(lp1
cnumpy.core.multiarray
_reconstruct
p2
(cnumpy
ndarray
p3
(I0
tS'b'
tRp4
(I1
(I4
tcnumpy
dtype
p5
(S'U36'
I0
I1
tRp6
(I3
S'<'
NNNI144
I4
I8
tbI00
S'2\x00\x00\x000\x00\x00\x001\x00\x00\x006\x00\x00\x00-\x00\x00\x000\x00\x00\x007\x00\x00\x00-\x00\x00\x000\x00\x00\x009\x00\x00\x00\x00\x00\x00\x00\x00\x00\x00\x00\x00\x00\x00\x00\x00\x00\x00\x00\x00\x00\x00\x00\x00\x00\x00\x00\x00\x00\x00\x00\x00\x00\x00\x00\x00\x00\x00\x00\x00\x00\x00\x00\x00\x00\x00\x00\x00\x00\x00\x00\x00\x00\x00\x00\x00\x00\x00\x00\x00\x00\x00\x00\x00\x00\x00\x00\x00\x00\x00\x00\x00\x00\x00\x00\x00\x00\x00\x00\x00\x00\x00\x00\x00\x00\x00\x00\x00\x00\x00\x00\x00\x00\x00\x00\x00\x00\x00\x00\x00\x00\x00\x00\x00\x00\x00\x00E\x00\x00\x00d\x00\x00\x00e\x00\x00\x00n\x00\x00\x00\x00\x00\x00\x00\x00\x00\x00\x00\x00\x00\x00\x00\x00\x00\x00\x00\x00\x00\x00\x00\x00\x00\x00\x00\x00\x00\x00\x00\x00\x00\x00\x00\x00\x00\x00\x00\x00\x00\x00\x00\x00\x00\x00\x00\x00\x00\x00\x00\x00\x00\x00\x00\x00\x00\x00\x00\x00\x00\x00\x00\x00\x00\x00\x00\x00\x00\x00\x00\x00\x00\x00\x00\x00\x00\x00\x00\x00\x00\x00\x00\x00\x00\x00\x00\x00\x00\x00\x00\x00\x00\x00\x00\x00\x00\x00\x00\x00\x00\x00\x00\x00\x00\x00\x00\x00\x00\x00\x00\x00\x00\x00\x00\x00\x00\x00\x00\x00\x00\x00\x00\x00\x00\x00\x00\x00\x00\x00\x00S\x00\x00\x00t\x00\x00\x00r\x00\x00\x00o\x00\x00\x00n\x00\x00\x00g\x00\x00\x00h\x00\x00\x00o\x00\x00\x00l\x00\x00\x00d\x00\x00\x00s\x00\x00\x00\x00\x00\x00\x00\x00\x00\x00\x00\x00\x00\x00\x00\x00\x00\x00\x00\x00\x00\x00\x00\x00\x00\x00\x00\x00\x00\x00\x00\x00\x00\x00\x00\x00\x00\x00\x00\x00\x00\x00\x00\x00\x00\x00\x00\x00\x00\x00\x00\x00\x00\x00\x00\x00\x00\x00\x00\x00\x00\x00\x00\x00\x00\x00\x00\x00\x00\x00\x00\x00\x00\x00\x00\x00\x00\x00\x00\x00\x00\x00\x00\x00\x00\x00\x00\x00\x00\x00\x00\x00\x00\x00\x00\x00\x00\x00\x00\x00\x00\x00\x00a\x00\x00\x008\x00\x00\x009\x00\x00\x003\x00\x00\x009\x00\x00\x003\x00\x00\x005\x00\x00\x00d\x00\x00\x00-\x00\x00\x00b\x00\x00\x00a\x00\x00\x00b\x00\x00\x00f\x00\x00\x00-\x00\x00\x004\x00\x00\x006\x00\x00\x00e\x00\x00\x007\x00\x00\x00-\x00\x00\x009\x00\x00\x00f\x00\x00\x00b\x00\x00\x006\x00\x00\x00-\x00\x00\x00a\x00\x00\x00d\x00\x00\x000\x00\x00\x009\x00\x00\x004\x00\x00\x007\x00\x00\x005\x00\x00\x004\x00\x00\x003\x00\x00\x00c\x00\x00\x005\x00\x00\x000\x00\x00\x00'
tba(lp7
S'e6'
p8
aS'alg'
p9
aaccopy_reg
_reconstructor
p10
(c__main__
match_breakdown
p11
c__builtin__
object
p12
NtRp13
(dp14
S'details'
p15
(dp16
VIsCompleteSetOfEvents
p17
I01
sVLinks
p18
(dp19
VUgcFilmManifest
p20
(dp21
VAuthenticationLifetimeExtensionSupported
p22
I00
sVQueryString
p23
V?view=film-manifest
p24
sVRetryPolicyId
p25
Vexponentialretry
p26
sVPath
p27
V/h5/films/a893935d-babf-46e7-9fb6-ad0947543c50
p28
sVAcknowledgementTypeId
p29
I0
sVAuthorityId
p30
Vugc
p31
sVTopicName
p32
V
ssVStatsMatchDetails
p33
(dp34
g22
I00
sg23
Nsg25
Vexponentialretry
p35
sg27
Vh5/custom/matches/a893935d-babf-46e7-9fb6-ad0947543c50
p36
sg29
I0
sg30
Vspartanstats
p37
sg32
V
sssVGameEvents
p38
(lp39
(dp40
VEventName
p41
VRoundStart
p42
sVRoundIndex
p43
I0
sVTimeSinceStart
p44
VPT0.0570058S
p45
sa(dp46
VWeaponStockId
p47
I313138863
sVPlayer
p48
(dp49
VGamertag
p50
VALGPredevonator
p51
sVXuid
p52
NssVWeaponAttachmentIds
p53
(lp54
I1095363701
asg41
VWeaponPickup
p55
sg44
VPT19.0133669S
p56
sa(dp57
g47
I4096745987
sg48
(dp58
g50
VALGPredevonator
p59
sg52
Nssg53
(lp60
I2758383128
asg41
VWeaponPickup
p61
sg44
VPT19.0143918S
p62
sa(dp63
g41
VPlayerSpawn
p64
sg48
(dp65
g50
VALGPredevonator
p66
sg52
Nssg44
VPT19.0143918S
p67
sa(dp68
g47
I313138863
sg48
(dp69
g50
VALG Heinz HCS
p70
sg52
Nssg53
(lp71
I1095363701
asg41
VWeaponPickup
p72
sg44
VPT19.0293667S
p73
sa(dp74
g47
I4096745987
sg48
(dp75
g50
VALG Heinz HCS
p76
sg52
Nssg53
(lp77
I2758383128
asg41
VWeaponPickup
p78
sg44
VPT19.0303862S
p79
sa(dp80
g41
VPlayerSpawn
p81
sg48
(dp82
g50
VALG Heinz HCS
p83
sg52
Nssg44
VPT19.0303862S
p84
sa(dp85
g47
I313138863
sg48
(dp86
g50
VE6 Huke HCS
p87
sg52
Nssg53
(lp88
I1095363701
asg41
VWeaponPickup
p89
sg44
VPT19.0463679S
p90
sa(dp91
g47
I4096745987
sg48
(dp92
g50
VE6 Huke HCS
p93
sg52
Nssg53
(lp94
I2758383128
asg41
VWeaponPickup
p95
sg44
VPT19.0463679S
p96
sa(dp97
g41
VPlayerSpawn
p98
sg48
(dp99
g50
VE6 Huke HCS
p100
sg52
Nssg44
VPT19.0473908S
p101
sa(dp102
g47
I313138863
sg48
(dp103
g50
VE6 Cratos HCS
p104
sg52
Nssg53
(lp105
I1095363701
asg41
VWeaponPickup
p106
sg44
VPT19.0633929S
p107
sa(dp108
g47
I4096745987
sg48
(dp109
g50
VE6 Cratos HCS
p110
sg52
Nssg53
(lp111
I2758383128
asg41
VWeaponPickup
p112
sg44
VPT19.0633929S
p113
sa(dp114
g41
VPlayerSpawn
p115
sg48
(dp116
g50
VE6 Cratos HCS
p117
sg52
Nssg44
VPT19.0633929S
p118
sa(dp119
g47
I313138863
sg48
(dp120
g50
VALG ContrA HCS
p121
sg52
Nssg53
(lp122
I1095363701
asg41
VWeaponPickup
p123
sg44
VPT19.0803871S
p124
sa(dp125
g47
I4096745987
sg48
(dp126
g50
VALG ContrA HCS
p127
sg52
Nssg53
(lp128
I2758383128
asg41
VWeaponPickup
p129
sg44
VPT19.0803871S
p130
sa(dp131
g41
VPlayerSpawn
p132
sg48
(dp133
g50
VALG ContrA HCS
p134
sg52
Nssg44
VPT19.0803871S
p135
sa(dp136
g47
I313138863
sg48
(dp137
g50
VALG RyaNoob
p138
sg52
Nssg53
(lp139
I1095363701
asg41
VWeaponPickup
p140
sg44
VPT19.096369S
p141
sa(dp142
g47
I4096745987
sg48
(dp143
g50
VALG RyaNoob
p144
sg52
Nssg53
(lp145
I2758383128
asg41
VWeaponPickup
p146
sg44
VPT19.096369S
p147
sa(dp148
g41
VPlayerSpawn
p149
sg48
(dp150
g50
VALG RyaNoob
p151
sg52
Nssg44
VPT19.096369S
p152
sa(dp153
g47
I313138863
sg48
(dp154
g50
VE6 Shooter
p155
sg52
Nssg53
(lp156
I1095363701
asg41
VWeaponPickup
p157
sg44
VPT19.1133864S
p158
sa(dp159
g47
I4096745987
sg48
(dp160
g50
VE6 Shooter
p161
sg52
Nssg53
(lp162
I2758383128
asg41
VWeaponPickup
p163
sg44
VPT19.1133864S
p164
sa(dp165
g41
VPlayerSpawn
p166
sg48
(dp167
g50
VE6 Shooter
p168
sg52
Nssg44
VPT19.1133864S
p169
sa(dp170
g47
I313138863
sg48
(dp171
g50
VE6 bubu dubu
p172
sg52
Nssg53
(lp173
I1095363701
asg41
VWeaponPickup
p174
sg44
VPT19.1303868S
p175
sa(dp176
g47
I4096745987
sg48
(dp177
g50
VE6 bubu dubu
p178
sg52
Nssg53
(lp179
I2758383128
asg41
VWeaponPickup
p180
sg44
VPT19.1303868S
p181
sa(dp182
g41
VPlayerSpawn
p183
sg48
(dp184
g50
VE6 bubu dubu
p185
sg52
Nssg44
VPT19.1303868S
p186
sa(dp187
g47
I4096745987
sg41
VWeaponDrop
p188
sVShotsFired
p189
I0
sg53
(lp190
I2758383128
asg44
VPT22.0454243S
p191
sVShotsLanded
p192
I0
sVTimeWeaponActiveAsPrimary
p193
VP0DT0H0M2.0667S
p194
sg48
(dp195
g50
VALG Heinz HCS
p196
sg52
Nssa(dp197
g47
I424645655
sg48
(dp198
g50
VALG Heinz HCS
p199
sg52
Nssg53
(lp200
I1327094800
asg41
VWeaponPickup
p201
sg44
VPT22.0454243S
p202
sa(dp203
g47
I4096745987
sg41
VWeaponDrop
p204
sg189
I0
sg53
(lp205
I2758383128
asg44
VPT23.2114496S
p206
sg192
I0
sg193
VP0DT0H0M3.3333S
p207
sg48
(dp208
g50
VE6 Cratos HCS
p209
sg52
Nssa(dp210
g47
I424645655
sg48
(dp211
g50
VE6 Cratos HCS
p212
sg52
Nssg53
(lp213
I1327094800
asg41
VWeaponPickup
p214
sg44
VPT23.2124474S
p215
sa(dp216
VKillerWeaponStockId
p217
I4106030681
sVIsAssassination
p218
I00
sVIsMelee
p219
I00
sVKiller
p220
(dp221
g50
VALG ContrA HCS
p222
sg52
NssVKillerWeaponAttachmentIds
p223
(lp224
sVIsGroundPound
p225
I00
sVIsWeapon
p226
I01
sVDeathDisposition
p227
I1
sVVictimStockId
p228
I0
sVVictimAgent
p229
I1
sVKillerWorldLocation
p230
(dp231
Vy
F10.399042100000001
sVx
F6.4609829999999997
sVz
F0.0045359432700000004
ssVVictimWorldLocation
p232
(dp233
Vy
F-3.93491364
sVx
F9.9920170000000006
sVz
F0.99831950000000003
ssVIsShoulderBash
p234
I00
sVVictim
p235
(dp236
g50
VE6 Huke HCS
p237
sg52
NssVVictimAttachmentIds
p238
(lp239
sVAssistants
p240
(lp241
(dp242
g50
VALG Heinz HCS
p243
sg52
NsasVIsHeadshot
p244
I00
sg44
VPT24.7824947S
p245
sg41
VDeath
p246
sVKillerAgent
p247
I1
sa(dp248
g41
VMedal
p249
sg48
(dp250
g50
VALG ContrA HCS
p251
sg52
NssVMedalId
p252
I3001183151
sg44
VPT24.7865118S
p253
sa(dp254
g47
I313138863
sg41
VWeaponDrop
p255
sg189
I0
sg53
(lp256
I1095363701
asg44
VPT24.7904793S
p257
sg192
I0
sg193
VP0DT0H0M1.0667S
p258
sg48
(dp259
g50
VE6 Huke HCS
p260
sg52
Nssa(dp261
g47
I4096745987
sg41
VWeaponDrop
p262
sg189
I0
sg53
(lp263
I2758383128
asg44
VPT24.7904793S
p264
sg192
I0
sg193
VP0DT0H0M4.6667S
p265
sg48
(dp266
g50
VE6 Huke HCS
p267
sg52
Nssa(dp268
g47
I2492868984
sg48
(dp269
g50
VALGPredevonator
p270
sg52
Nssg53
(lp271
I2758383128
asg41
VWeaponPickup
p272
sg44
VPT31.4296047S
p273
sa(dp274
g217
I4096745987
sg218
I00
sg219
I00
sg220
(dp275
g50
VE6 Shooter
p276
sg52
Nssg223
(lp277
I2758383128
asg225
I00
sg226
I01
sg227
I1
sg228
I0
sg229
I1
sg230
(dp278
Vy
F-1.65702784
sVx
F3.12281466
sVz
F4.403187
ssg232
(dp279
Vy
F5.3339104700000002
sVx
F5.3296456299999999
sVz
F4.9661049999999998
ssg234
I00
sg235
(dp280
g50
VALG RyaNoob
p281
sg52
Nssg238
(lp282
sg240
(lp283
sg244
I01
sg44
VPT31.9126144S
p284
sg41
VDeath
p285
sg247
I1
sa(dp286
g41
VImpulse
p287
sg48
(dp288
g50
VE6 Shooter
p289
sg52
NssVImpulseId
p290
I2556889090
sg44
VPT31.9126144S
p291
sa(dp292
g41
VMedal
p293
sg48
(dp294
g50
VE6 Shooter
p295
sg52
Nssg252
I2838259753
sg44
VPT31.9126144S
p296
sa(dp297
g41
VMedal
p298
sg48
(dp299
g50
VE6 Shooter
p300
sg52
Nssg252
I3261908037
sg44
VPT31.9146167S
p301
sa(dp302
g47
I313138863
sg41
VWeaponDrop
p303
sg189
I0
sg53
(lp304
I1095363701
asg44
VPT31.9146167S
p305
sg192
I0
sg193
VP0DT0H0M0.7667S
p306
sg48
(dp307
g50
VALG RyaNoob
p308
sg52
Nssa(dp309
g47
I4096745987
sg41
VWeaponDrop
p310
sg189
I16
sg53
(lp311
I2758383128
asg44
VPT31.9146167S
p312
sg192
I8
sg193
VP0DT0H0M12.0500S
p313
sg48
(dp314
g50
VALG RyaNoob
p315
sg52
Nssa(dp316
g47
I2492868984
sg41
VWeaponDrop
p317
sg189
I0
sg53
(lp318
I2758383128
asg44
VPT32.5806267S
p319
sg192
I0
sg193
VP0DT0H0M1.0000S
p320
sg48
(dp321
g50
VALGPredevonator
p322
sg52
Nssa(dp323
g47
I313138863
sg48
(dp324
g50
VE6 Huke HCS
p325
sg52
Nssg53
(lp326
I1095363701
asg41
VWeaponPickup
p327
sg44
VPT32.7966535S
p328
sa(dp329
g47
I4096745987
sg48
(dp330
g50
VE6 Huke HCS
p331
sg52
Nssg53
(lp332
I2758383128
asg41
VWeaponPickup
p333
sg44
VPT32.7966535S
p334
sa(dp335
g41
VPlayerSpawn
p336
sg48
(dp337
g50
VE6 Huke HCS
p338
sg52
Nssg44
VPT32.7966535S
p339
sa(dp340
g217
I4096745987
sg218
I00
sg219
I00
sg220
(dp341
g50
VE6 bubu dubu
p342
sg52
Nssg223
(lp343
I2758383128
asg225
I00
sg226
I01
sg227
I1
sg228
I0
sg229
I1
sg230
(dp344
Vy
F-2.9883713699999999
sVx
F-7.0397934900000001
sVz
F1.8352978200000001
ssg232
(dp345
Vy
F1.89304626
sVx
F-8.4639050000000005
sVz
F2.7877745599999999
ssg234
I00
sg235
(dp346
g50
VALG Heinz HCS
p347
sg52
Nssg238
(lp348
sg240
(lp349
sg244
I01
sg44
VPT33.8126508S
p350
sg41
VDeath
p351
sg247
I1
sa(dp352
g41
VImpulse
p353
sg48
(dp354
g50
VE6 bubu dubu
p355
sg52
Nssg290
I2556889090
sg44
VPT33.8136533S
p356
sa(dp357
g41
VMedal
p358
sg48
(dp359
g50
VE6 bubu dubu
p360
sg52
Nssg252
I2838259753
sg44
VPT33.8136533S
p361
sa(dp362
g41
VImpulse
p363
sg48
(dp364
g50
VE6 bubu dubu
p365
sg52
Nssg290
I3174430457
sg44
VPT33.8146548S
p366
sa(dp367
g41
VMedal
p368
sg48
(dp369
g50
VE6 Shooter
p370
sg52
Nssg252
I824733727
sg44
VPT33.8146548S
p371
sa(dp372
g41
VMedal
p373
sg48
(dp374
g50
VE6 bubu dubu
p375
sg52
Nssg252
I3653057799
sg44
VPT33.8157851S
p376
sa(dp377
g47
I313138863
sg41
VWeaponDrop
p378
sg189
I0
sg53
(lp379
I1095363701
asg44
VPT33.8157851S
p380
sg192
I0
sg193
VP0DT0H0M0.9500S
p381
sg48
(dp382
g50
VALG Heinz HCS
p383
sg52
Nssa(dp384
g47
I424645655
sg41
VWeaponDrop
p385
sg189
I9
sg53
(lp386
I1327094800
asg44
VPT33.8157851S
p387
sg192
I6
sg193
VP0DT0H0M11.7667S
p388
sg48
(dp389
g50
VALG Heinz HCS
p390
sg52
Nssa(dp391
g47
I2492868984
sg48
(dp392
g50
VE6 bubu dubu
p393
sg52
Nssg53
(lp394
I2758383128
asg41
VWeaponPickup
p395
sg44
VPT35.1126772S
p396
sa(dp397
g47
I2492868984
sg41
VWeaponDrop
p398
sg189
I0
sg53
(lp399
I2758383128
asg44
VPT36.2466975S
p400
sg192
I0
sg193
VP0DT0H0M0.9833S
p401
sg48
(dp402
g50
VE6 bubu dubu
p403
sg52
Nssa(dp404
g47
I4096745987
sg41
VWeaponDrop
p405
sg189
I15
sg53
(lp406
I2758383128
asg44
VPT36.4947023S
p407
sg192
I6
sg193
VP0DT0H0M15.9500S
p408
sg48
(dp409
g50
VE6 bubu dubu
p410
sg52
Nssa(dp411
g47
I424645655
sg48
(dp412
g50
VE6 bubu dubu
p413
sg52
Nssg53
(lp414
I1327094800
asg41
VWeaponPickup
p415
sg44
VPT36.4947023S
p416
sa(dp417
g47
I313138863
sg41
VWeaponDrop
p418
sg189
I0
sg53
(lp419
I1095363701
asg44
VPT38.7117496S
p420
sg192
I0
sg193
VP0DT0H0M1.0333S
p421
sg48
(dp422
g50
VE6 Huke HCS
p423
sg52
Nssa(dp424
g47
I2015271382
sg48
(dp425
g50
VE6 Huke HCS
p426
sg52
Nssg53
(lp427
I2758383128
asg41
VWeaponPickup
p428
sg44
VPT38.7117496S
p429
sa(dp430
g47
I313138863
sg48
(dp431
g50
VALG RyaNoob
p432
sg52
Nssg53
(lp433
I1095363701
asg41
VWeaponPickup
p434
sg44
VPT39.9297705S
p435
sa(dp436
g47
I4096745987
sg48
(dp437
g50
VALG RyaNoob
p438
sg52
Nssg53
(lp439
I2758383128
asg41
VWeaponPickup
p440
sg44
VPT39.9297705S
p441
sa(dp442
g41
VPlayerSpawn
p443
sg48
(dp444
g50
VALG RyaNoob
p445
sg52
Nssg44
VPT39.9297705S
p446
sa(dp447
g47
I313138863
sg48
(dp448
g50
VALG Heinz HCS
p449
sg52
Nssg53
(lp450
I1095363701
asg41
VWeaponPickup
p451
sg44
VPT41.8298164S
p452
sa(dp453
g47
I4096745987
sg48
(dp454
g50
VALG Heinz HCS
p455
sg52
Nssg53
(lp456
I2758383128
asg41
VWeaponPickup
p457
sg44
VPT41.8298164S
p458
sa(dp459
g41
VPlayerSpawn
p460
sg48
(dp461
g50
VALG Heinz HCS
p462
sg52
Nssg44
VPT41.8298164S
p463
sa(dp464
g217
I4096745987
sg218
I00
sg219
I00
sg220
(dp465
g50
VALGPredevonator
p466
sg52
Nssg223
(lp467
I2758383128
asg225
I00
sg226
I01
sg227
I1
sg228
I0
sg229
I1
sg230
(dp468
Vy
F7.8192472500000001
sVx
F23.434108699999999
sVz
F1.60586381
ssg232
(dp469
Vy
F12.2894659
sVx
F16.7685852
sVz
F2.4881768200000001
ssg234
I00
sg235
(dp470
g50
VE6 Cratos HCS
p471
sg52
Nssg238
(lp472
sg240
(lp473
(dp474
g50
VALG ContrA HCS
p475
sg52
Nsasg244
I01
sg44
VPT43.8628439S
p476
sg41
VDeath
p477
sg247
I1
sa(dp478
g41
VImpulse
p479
sg48
(dp480
g50
VALGPredevonator
p481
sg52
Nssg290
I2556889090
sg44
VPT43.8628439S
p482
sa(dp483
g41
VMedal
p484
sg48
(dp485
g50
VALGPredevonator
p486
sg52
Nssg252
I2838259753
sg44
VPT43.8628439S
p487
sa(dp488
g41
VMedal
p489
sg48
(dp490
g50
VALGPredevonator
p491
sg52
Nssg252
I3261908037
sg44
VPT43.8648455S
p492
sa(dp493
g47
I313138863
sg41
VWeaponDrop
p494
sg189
I25
sg53
(lp495
I1095363701
asg44
VPT43.8658458S
p496
sg192
I18
sg193
VP0DT0H0M5.6667S
p497
sg48
(dp498
g50
VE6 Cratos HCS
p499
sg52
Nssa(dp500
g47
I424645655
sg41
VWeaponDrop
p501
sg189
I3
sg53
(lp502
I1327094800
asg44
VPT43.8658458S
p503
sg192
I0
sg193
VP0DT0H0M15.8000S
p504
sg48
(dp505
g50
VE6 Cratos HCS
p506
sg52
Nssa(dp507
g41
VMedal
p508
sg48
(dp509
g50
VE6 Shooter
p510
sg52
Nssg252
I3565443938
sg44
VPT44.968875S
p511
sa(dp512
g41
VMedal
p513
sg48
(dp514
g50
VE6 bubu dubu
p515
sg52
Nssg252
I3565443938
sg44
VPT44.968875S
p516
sa(dp517
g47
I313138863
sg41
VWeaponDrop
p518
sg189
I0
sg53
(lp519
I1095363701
asg44
VPT47.1609286S
p520
sg192
I0
sg193
VP0DT0H0M1.5333S
p521
sg48
(dp522
g50
VALGPredevonator
p523
sg52
Nssa(dp524
g47
I2902827823
sg48
(dp525
g50
VALGPredevonator
p526
sg52
Nssg53
(lp527
I2758383128
asg41
VWeaponPickupPad
p528
sg44
VPT47.1619269S
p529
sa(dp530
g47
I2902827823
sg48
(dp531
g50
VALGPredevonator
p532
sg52
Nssg53
(lp533
I2758383128
asg41
VWeaponPickup
p534
sg44
VPT47.1649094S
p535
sa(dp536
g41
VMedal
p537
sg48
(dp538
g50
VALG ContrA HCS
p539
sg52
Nssg252
I3565443938
sg44
VPT47.212929S
p540
sa(dp541
g41
VMedal
p542
sg48
(dp543
g50
VALGPredevonator
p544
sg52
Nssg252
I1637841390
sg44
VPT47.2139278S
p545
sa(dp546
g41
VMedal
p547
sg48
(dp548
g50
VE6 Huke HCS
p549
sg52
Nssg252
I3565443938
sg44
VPT48.2449282S
p550
sa(dp551
g47
I4096745987
sg41
VWeaponDrop
p552
sg189
I4
sg53
(lp553
I2758383128
asg44
VPT48.3609447S
p554
sg192
I3
sg193
VP0DT0H0M27.6667S
p555
sg48
(dp556
g50
VALG ContrA HCS
p557
sg52
Nssa(dp558
g47
I424645655
sg48
(dp559
g50
VALG ContrA HCS
p560
sg52
Nssg53
(lp561
I1327094800
asg41
VWeaponPickup
p562
sg44
VPT48.3619502S
p563
sa(dp564
g47
I313138863
sg48
(dp565
g50
VE6 Cratos HCS
p566
sg52
Nssg53
(lp567
I1095363701
asg41
VWeaponPickup
p568
sg44
VPT51.879003S
p569
sa(dp570
g47
I4096745987
sg48
(dp571
g50
VE6 Cratos HCS
p572
sg52
Nssg53
(lp573
I2758383128
asg41
VWeaponPickup
p574
sg44
VPT51.8800197S
p575
sa(dp576
g41
VPlayerSpawn
p577
sg48
(dp578
g50
VE6 Cratos HCS
p579
sg52
Nssg44
VPT51.8800197S
p580
sa(dp581
g217
I4096745987
sg218
I00
sg219
I00
sg220
(dp582
g50
VE6 Cratos HCS
p583
sg52
Nssg223
(lp584
I2758383128
asg225
I00
sg226
I01
sg227
I1
sg228
I0
sg229
I1
sg230
(dp585
Vy
F-13.937745100000001
sVx
F2.7740614400000001
sVz
F2.5927033399999999
ssg232
(dp586
Vy
F-7.9647436100000002
sVx
F11.807703999999999
sVz
F3.1403884899999999
ssg234
I00
sg235
(dp587
g50
VALG ContrA HCS
p588
sg52
Nssg238
(lp589
sg240
(lp590
sg244
I01
sg44
VPT56.7290903S
p591
sg41
VDeath
p592
sg247
I1
sa(dp593
g41
VMedal
p594
sg48
(dp595
g50
VE6 Cratos HCS
p596
sg52
Nssg252
I1351381581
sg44
VPT56.7300917S
p597
sa(dp598
g41
VMedal
p599
sg48
(dp600
g50
VE6 Cratos HCS
p601
sg52
Nssg252
I3261908037
sg44
VPT56.7311138S
p602
sa(dp603
g47
I313138863
sg41
VWeaponDrop
p604
sg189
I0
sg53
(lp605
I1095363701
asg44
VPT56.7311138S
p606
sg192
I0
sg193
VP0DT0H0M2.3833S
p607
sg48
(dp608
g50
VALG ContrA HCS
p609
sg52
Nssa(dp610
g47
I424645655
sg41
VWeaponDrop
p611
sg189
I0
sg53
(lp612
I1327094800
asg44
VPT56.7311138S
p613
sg192
I0
sg193
VP0DT0H0M7.6000S
p614
sg48
(dp615
g50
VALG ContrA HCS
p616
sg52
Nssa(dp617
g217
I2902827823
sg218
I00
sg219
I00
sg220
(dp618
g50
VALGPredevonator
p619
sg52
Nssg223
(lp620
I2758383128
asg225
I00
sg226
I01
sg227
I1
sg228
I0
sg229
I1
sg230
(dp621
Vy
F-17.844003699999998
sVx
F13.809558900000001
sVz
F2.0090105500000002
ssg232
(dp622
Vy
F-12.706722299999999
sVx
F5.82066631
sVz
F1.21078146
ssg234
I00
sg235
(dp623
g50
VE6 Huke HCS
p624
sg52
Nssg238
(lp625
sg240
(lp626
sg244
I00
sg44
VPT57.845113S
p627
sg41
VDeath
p628
sg247
I1
sa(dp629
g41
VMedal
p630
sg48
(dp631
g50
VALG RyaNoob
p632
sg52
Nssg252
I824733727
sg44
VPT57.8461371S
p633
sa(dp634
g47
I2015271382
sg41
VWeaponDrop
p635
sg189
I11
sg53
(lp636
I2758383128
asg44
VPT57.8471328S
p637
sg192
I5
sg193
VP0DT0H0M4.0333S
p638
sg48
(dp639
g50
VE6 Huke HCS
p640
sg52
Nssa(dp641
g47
I4096745987
sg41
VWeaponDrop
p642
sg189
I5
sg53
(lp643
I2758383128
asg44
VPT57.8471328S
p644
sg192
I2
sg193
VP0DT0H0M19.9833S
p645
sg48
(dp646
g50
VE6 Huke HCS
p647
sg52
Nssa(dp648
g217
I424645655
sg218
I00
sg219
I00
sg220
(dp649
g50
VE6 bubu dubu
p650
sg52
Nssg223
(lp651
I1327094800
asg225
I00
sg226
I01
sg227
I1
sg228
I0
sg229
I1
sg230
(dp652
Vy
F1.9574352500000001
sVx
F3.9630615699999998
sVz
F5.1421999999999999
ssg232
(dp653
Vy
F5.4667244000000004
sVx
F1.4634738
sVz
F4.5988860000000003
ssg234
I00
sg235
(dp654
g50
VALG RyaNoob
p655
sg52
Nssg238
(lp656
sg240
(lp657
sg244
I01
sg44
VPT59.0451688S
p658
sg41
VDeath
p659
sg247
I1
sa(dp660
g41
VMedal
p661
sg48
(dp662
g50
VE6 bubu dubu
p663
sg52
Nssg252
I3261908037
sg44
VPT59.0471629S
p664
sa(dp665
g47
I313138863
sg41
VWeaponDrop
p666
sg189
I0
sg53
(lp667
I1095363701
asg44
VPT59.0471629S
p668
sg192
I0
sg193
VP0DT0H0M1.4000S
p669
sg48
(dp670
g50
VALG RyaNoob
p671
sg52
Nssa(dp672
g47
I4096745987
sg41
VWeaponDrop
p673
sg189
I5
sg53
(lp674
I2758383128
asg44
VPT59.0471629S
p675
sg192
I4
sg193
VP0DT0H0M17.7167S
p676
sg48
(dp677
g50
VALG RyaNoob
p678
sg52
Nssa(dp679
g217
I424645655
sg218
I00
sg219
I00
sg220
(dp680
g50
VE6 bubu dubu
p681
sg52
Nssg223
(lp682
I1327094800
asg225
I00
sg226
I01
sg227
I1
sg228
I0
sg229
I1
sg230
(dp683
Vy
F8.9803149999999992
sVx
F-0.241040692
sVz
F3.7001571700000002
ssg232
(dp684
Vy
F7.7903995500000001
sVx
F-4.7057786000000004
sVz
F0.78266143799999999
ssg234
I00
sg235
(dp685
g50
VALG Heinz HCS
p686
sg52
Nssg238
(lp687
sg240
(lp688
sg244
I01
sg44
VPT1M4.3622376S
p689
sg41
VDeath
p690
sg247
I1
sa(dp691
g41
VMedal
p692
sg48
(dp693
g50
VE6 bubu dubu
p694
sg52
Nssg252
I3261908037
sg44
VPT1M4.365275S
p695
sa(dp696
g47
I313138863
sg41
VWeaponDrop
p697
sg189
I0
sg53
(lp698
I1095363701
asg44
VPT1M4.365275S
p699
sg192
I0
sg193
VP0DT0H0M0.7167S
p700
sg48
(dp701
g50
VALG Heinz HCS
p702
sg52
Nssa(dp703
g47
I4096745987
sg41
VWeaponDrop
p704
sg189
I5
sg53
(lp705
I2758383128
asg44
VPT1M4.365275S
p706
sg192
I3
sg193
VP0DT0H0M21.8167S
p707
sg48
(dp708
g50
VALG Heinz HCS
p709
sg52
Nssa(dp710
g47
I313138863
sg48
(dp711
g50
VALG ContrA HCS
p712
sg52
Nssg53
(lp713
I1095363701
asg41
VWeaponPickup
p714
sg44
VPT1M4.7452456S
p715
sa(dp716
g47
I4096745987
sg48
(dp717
g50
VALG ContrA HCS
p718
sg52
Nssg53
(lp719
I2758383128
asg41
VWeaponPickup
p720
sg44
VPT1M4.7462635S
p721
sa(dp722
g41
VPlayerSpawn
p723
sg48
(dp724
g50
VALG ContrA HCS
p725
sg52
Nssg44
VPT1M4.7462635S
p726
sa(dp727
g47
I313138863
sg48
(dp728
g50
VE6 Huke HCS
p729
sg52
Nssg53
(lp730
I1095363701
asg41
VWeaponPickup
p731
sg44
VPT1M5.8622855S
p732
sa(dp733
g47
I4096745987
sg48
(dp734
g50
VE6 Huke HCS
p735
sg52
Nssg53
(lp736
I2758383128
asg41
VWeaponPickup
p737
sg44
VPT1M5.8622855S
p738
sa(dp739
g41
VPlayerSpawn
p740
sg48
(dp741
g50
VE6 Huke HCS
p742
sg52
Nssg44
VPT1M5.8622855S
p743
sa(dp744
g47
I313138863
sg48
(dp745
g50
VALG RyaNoob
p746
sg52
Nssg53
(lp747
I1095363701
asg41
VWeaponPickup
p748
sg44
VPT1M7.0623089S
p749
sa(dp750
g47
I4096745987
sg48
(dp751
g50
VALG RyaNoob
p752
sg52
Nssg53
(lp753
I2758383128
asg41
VWeaponPickup
p754
sg44
VPT1M7.0623089S
p755
sa(dp756
g41
VPlayerSpawn
p757
sg48
(dp758
g50
VALG RyaNoob
p759
sg52
Nssg44
VPT1M7.0623089S
p760
sa(dp761
g47
I4096745987
sg41
VWeaponDrop
p762
sg189
I0
sg53
(lp763
I2758383128
asg44
VPT1M8.2103144S
p764
sg192
I0
sg193
VP0DT0H0M1.2167S
p765
sg48
(dp766
g50
VE6 Huke HCS
p767
sg52
Nssa(dp768
g47
I424645655
sg48
(dp769
g50
VE6 Huke HCS
p770
sg52
Nssg53
(lp771
I1327094800
asg41
VWeaponPickup
p772
sg44
VPT1M8.2113116S
p773
sa(dp774
g47
I4096745987
sg41
VWeaponDrop
p775
sg189
I0
sg53
(lp776
I2758383128
asg44
VPT1M10.177371S
p777
sg192
I0
sg193
VP0DT0H0M2.2167S
p778
sg48
(dp779
g50
VALG RyaNoob
p780
sg52
Nssa(dp781
g47
I2511447508
sg48
(dp782
g50
VALG RyaNoob
p783
sg52
Nssg53
(lp784
I2758383128
asg41
VWeaponPickup
p785
sg44
VPT1M10.177371S
p786
sa(dp787
g47
I313138863
sg48
(dp788
g50
VALG Heinz HCS
p789
sg52
Nssg53
(lp790
I1095363701
asg41
VWeaponPickup
p791
sg44
VPT1M12.37942S
p792
sa(dp793
g47
I4096745987
sg48
(dp794
g50
VALG Heinz HCS
p795
sg52
Nssg53
(lp796
I2758383128
asg41
VWeaponPickup
p797
sg44
VPT1M12.37942S
p798
sa(dp799
g41
VPlayerSpawn
p800
sg48
(dp801
g50
VALG Heinz HCS
p802
sg52
Nssg44
VPT1M12.37942S
p803
sa(dp804
g47
I313138863
sg41
VWeaponDrop
p805
sg189
I0
sg53
(lp806
I1095363701
asg44
VPT1M14.9104429S
p807
sg192
I0
sg193
VP0DT0H0M0.6500S
p808
sg48
(dp809
g50
VE6 bubu dubu
p810
sg52
Nssa(dp811
g47
I723388907
sg48
(dp812
g50
VE6 bubu dubu
p813
sg52
Nssg53
(lp814
I89283061
asg41
VWeaponPickup
p815
sg44
VPT1M14.9104429S
p816
sa(dp817
g217
I2511447508
sg218
I00
sg219
I00
sg220
(dp818
g50
VALG RyaNoob
p819
sg52
Nssg223
(lp820
I2758383128
asg225
I00
sg226
I01
sg227
I1
sg228
I0
sg229
I1
sg230
(dp821
Vy
F-19.194953900000002
sVx
F0.94237625599999997
sVz
F1.79986048
ssg232
(dp822
Vy
F-15.109437
sVx
F1.6164320000000001
sVz
F2.16494513
ssg234
I00
sg235
(dp823
g50
VE6 Cratos HCS
p824
sg52
Nssg238
(lp825
sg240
(lp826
sg244
I01
sg44
VPT1M17.9124986S
p827
sg41
VDeath
p828
sg247
I1
sa(dp829
g41
VMedal
p830
sg48
(dp831
g50
VALG RyaNoob
p832
sg52
Nssg252
I3261908037
sg44
VPT1M17.9145173S
p833
sa(dp834
g47
I313138863
sg41
VWeaponDrop
p835
sg189
I0
sg53
(lp836
I1095363701
asg44
VPT1M17.9145173S
p837
sg192
I0
sg193
VP0DT0H0M1.4833S
p838
sg48
(dp839
g50
VE6 Cratos HCS
p840
sg52
Nssa(dp841
g47
I4096745987
sg41
VWeaponDrop
p842
sg189
I3
sg53
(lp843
I2758383128
asg44
VPT1M17.9145173S
p844
sg192
I2
sg193
VP0DT0H0M24.5500S
p845
sg48
(dp846
g50
VE6 Cratos HCS
p847
sg52
Nssa(dp848
g217
I4096745987
sg218
I00
sg219
I00
sg220
(dp849
g50
VALG ContrA HCS
p850
sg52
Nssg223
(lp851
I2758383128
asg225
I00
sg226
I01
sg227
I1
sg228
I0
sg229
I1
sg230
(dp852
Vy
F6.3722110000000001
sVx
F21.786365499999999
sVz
F1.6099808200000001
ssg232
(dp853
Vy
F10.0633211
sVx
F15.5233746
sVz
F1.8892777000000001
ssg234
I00
sg235
(dp854
g50
VE6 bubu dubu
p855
sg52
Nssg238
(lp856
sg240
(lp857
sg244
I01
sg44
VPT1M17.9454991S
p858
sg41
VDeath
p859
sg247
I1
sa(dp860
g41
VImpulse
p861
sg48
(dp862
g50
VALG ContrA HCS
p863
sg52
Nssg290
I3174430457
sg44
VPT1M17.9475182S
p864
sa(dp865
g41
VMedal
p866
sg48
(dp867
g50
VALG ContrA HCS
p868
sg52
Nssg252
I2782465081
sg44
VPT1M17.9475182S
p869
sa(dp870
g41
VMedal
p871
sg48
(dp872
g50
VALG ContrA HCS
p873
sg52
Nssg252
I1351381581
sg44
VPT1M17.9475182S
p874
sa(dp875
g41
VMedal
p876
sg48
(dp877
g50
VALG ContrA HCS
p878
sg52
Nssg252
I3653057799
sg44
VPT1M17.9485179S
p879
sa(dp880
g47
I723388907
sg41
VWeaponDrop
p881
sg189
I0
sg53
(lp882
I89283061
asg44
VPT1M17.9485179S
p883
sg192
I0
sg193
VP0DT0H0M0.4833S
p884
sg48
(dp885
g50
VE6 bubu dubu
p886
sg52
Nssa(dp887
g47
I424645655
sg41
VWeaponDrop
p888
sg189
I66
sg53
(lp889
I1327094800
asg44
VPT1M17.9485179S
p890
sg192
I39
sg193
VP0DT0H0M40.7333S
p891
sg48
(dp892
g50
VE6 bubu dubu
p893
sg52
Nssa(dp894
g217
I3190813201
sg218
I00
sg219
I00
sg220
(dp895
g50
VE6 Cratos HCS
p896
sg52
Nssg223
(lp897
sg225
I00
sg226
I01
sg227
I1
sg228
I0
sg229
I1
sg230
(dp898
Vy
F-15.2000723
sVx
F2.7218701799999998
sVz
F2.61707044
ssg232
(dp899
Vy
F-19.3736763
sVx
F1.70930648
sVz
F1.7999239
ssg234
I00
sg235
(dp900
g50
VALG RyaNoob
p901
sg52
Nssg238
(lp902
sg240
(lp903
(dp904
g50
VE6 Shooter
p905
sg52
Nsasg244
I00
sg44
VPT1M18.5615105S
p906
sg41
VDeath
p907
sg247
I1
sa(dp908
g41
VMedal
p909
sg48
(dp910
g50
VE6 Cratos HCS
p911
sg52
Nssg252
I285057226
sg44
VPT1M18.5625308S
p912
sa(dp913
g47
I313138863
sg41
VWeaponDrop
p914
sg189
I0
sg53
(lp915
I1095363701
asg44
VPT1M18.5635124S
p916
sg192
I0
sg193
VP0DT0H0M0.9000S
p917
sg48
(dp918
g50
VALG RyaNoob
p919
sg52
Nssa(dp920
g47
I2511447508
sg41
VWeaponDrop
p921
sg189
I4
sg53
(lp922
I2758383128
asg44
VPT1M18.5635124S
p923
sg192
I4
sg193
VP0DT0H0M8.3833S
p924
sg48
(dp925
g50
VALG RyaNoob
p926
sg52
Nssa(dp927
g41
VMedal
p928
sg48
(dp929
g50
VALG ContrA HCS
p930
sg52
Nssg252
I2916014239
sg44
VPT1M18.8965418S
p931
sa(dp932
g217
I424645655
sg218
I00
sg219
I00
sg220
(dp933
g50
VE6 Huke HCS
p934
sg52
Nssg223
(lp935
I1327094800
asg225
I00
sg226
I01
sg227
I1
sg228
I0
sg229
I1
sg230
(dp936
Vy
F4.2276210000000001
sVx
F4.421068
sVz
F3.7001571700000002
ssg232
(dp937
Vy
F8.9155309999999997
sVx
F16.5617962
sVz
F1.605896
ssg234
I00
sg235
(dp938
g50
VALG ContrA HCS
p939
sg52
Nssg238
(lp940
sg240
(lp941
(dp942
g50
VE6 bubu dubu
p943
sg52
Nsasg244
I01
sg44
VPT1M21.0955596S
p944
sg41
VDeath
p945
sg247
I1
sa(dp946
g41
VMedal
p947
sg48
(dp948
g50
VE6 Huke HCS
p949
sg52
Nssg252
I3261908037
sg44
VPT1M21.0965967S
p950
sa(dp951
g47
I313138863
sg41
VWeaponDrop
p952
sg189
I0
sg53
(lp953
I1095363701
asg44
VPT1M21.0975767S
p954
sg192
I0
sg193
VP0DT0H0M0.4000S
p955
sg48
(dp956
g50
VALG ContrA HCS
p957
sg52
Nssa(dp958
g47
I4096745987
sg41
VWeaponDrop
p959
sg189
I7
sg53
(lp960
I2758383128
asg44
VPT1M21.0975767S
p961
sg192
I5
sg193
VP0DT0H0M15.9500S
p962
sg48
(dp963
g50
VALG ContrA HCS
p964
sg52
Nssa(dp965
g47
I313138863
sg48
(dp966
g50
VE6 Cratos HCS
p967
sg52
Nssg53
(lp968
I1095363701
asg41
VWeaponPickup
p969
sg44
VPT1M25.9286839S
p970
sa(dp971
g47
I4096745987
sg48
(dp972
g50
VE6 Cratos HCS
p973
sg52
Nssg53
(lp974
I2758383128
asg41
VWeaponPickup
p975
sg44
VPT1M25.9286839S
p976
sa(dp977
g41
VPlayerSpawn
p978
sg48
(dp979
g50
VE6 Cratos HCS
p980
sg52
Nssg44
VPT1M25.9286839S
p981
sa(dp982
g47
I313138863
sg48
(dp983
g50
VE6 bubu dubu
p984
sg52
Nssg53
(lp985
I1095363701
asg41
VWeaponPickup
p986
sg44
VPT1M25.9626542S
p987
sa(dp988
g47
I4096745987
sg48
(dp989
g50
VE6 bubu dubu
p990
sg52
Nssg53
(lp991
I2758383128
asg41
VWeaponPickup
p992
sg44
VPT1M25.9626542S
p993
sa(dp994
g41
VPlayerSpawn
p995
sg48
(dp996
g50
VE6 bubu dubu
p997
sg52
Nssg44
VPT1M25.9626542S
p998
sa(dp999
g47
I313138863
sg48
(dp1000
g50
VALG RyaNoob
p1001
sg52
Nssg53
(lp1002
I1095363701
asg41
VWeaponPickup
p1003
sg44
VPT1M26.5786841S
p1004
sa(dp1005
g47
I4096745987
sg48
(dp1006
g50
VALG RyaNoob
p1007
sg52
Nssg53
(lp1008
I2758383128
asg41
VWeaponPickup
p1009
sg44
VPT1M26.5786841S
p1010
sa(dp1011
g41
VPlayerSpawn
p1012
sg48
(dp1013
g50
VALG RyaNoob
p1014
sg52
Nssg44
VPT1M26.5786841S
p1015
sa(dp1016
g41
VMedal
p1017
sg48
(dp1018
g50
VALG Heinz HCS
p1019
sg52
Nssg252
I3565443938
sg44
VPT1M27.6286846S
p1020
sa(dp1021
g41
VMedal
p1022
sg48
(dp1023
g50
VALGPredevonator
p1024
sg52
Nssg252
I3565443938
sg44
VPT1M27.6286846S
p1025
sa(dp1026
g41
VMedal
p1027
sg48
(dp1028
g50
VALG ContrA HCS
p1029
sg52
Nssg252
I1637841390
sg44
VPT1M27.6286846S
p1030
sa(dp1031
g47
I313138863
sg48
(dp1032
g50
VALG ContrA HCS
p1033
sg52
Nssg53
(lp1034
I1095363701
asg41
VWeaponPickup
p1035
sg44
VPT1M29.1117133S
p1036
sa(dp1037
g47
I4096745987
sg48
(dp1038
g50
VALG ContrA HCS
p1039
sg52
Nssg53
(lp1040
I2758383128
asg41
VWeaponPickup
p1041
sg44
VPT1M29.1117133S
p1042
sa(dp1043
g41
VPlayerSpawn
p1044
sg48
(dp1045
g50
VALG ContrA HCS
p1046
sg52
Nssg44
VPT1M29.1117133S
p1047
sa(dp1048
g47
I313138863
sg41
VWeaponDrop
p1049
sg189
I0
sg53
(lp1050
I1095363701
asg44
VPT1M30.7107435S
p1051
sg192
I0
sg193
VP0DT0H0M1.0500S
p1052
sg48
(dp1053
g50
VE6 Cratos HCS
p1054
sg52
Nssa(dp1055
g47
I723388907
sg48
(dp1056
g50
VE6 Cratos HCS
p1057
sg52
Nssg53
(lp1058
I89283061
asg41
VWeaponPickup
p1059
sg44
VPT1M30.7107435S
p1060
sa(dp1061
g217
I4096745987
sg218
I00
sg219
I00
sg220
(dp1062
g50
VE6 bubu dubu
p1063
sg52
Nssg223
(lp1064
I2758383128
asg225
I00
sg226
I01
sg227
I1
sg228
I0
sg229
I1
sg230
(dp1065
Vy
F14.5632029
sVx
F15.8215685
sVz
F2.7091293300000001
ssg232
(dp1066
Vy
F-1.5519858600000001
sVx
F25.902675599999998
sVz
F2.0688135600000002
ssg234
I00
sg235
(dp1067
g50
VALG RyaNoob
p1068
sg52
Nssg238
(lp1069
sg240
(lp1070
(dp1071
g50
VE6 Huke HCS
p1072
sg52
Nsa(dp1073
g50
VE6 Cratos HCS
p1074
sg52
Nsasg244
I01
sg44
VPT1M32.0117686S
p1075
sg41
VDeath
p1076
sg247
I1
sa(dp1077
g41
VMedal
p1078
sg48
(dp1079
g50
VE6 bubu dubu
p1080
sg52
Nssg252
I3261908037
sg44
VPT1M32.0127695S
p1081
sa(dp1082
g47
I313138863
sg41
VWeaponDrop
p1083
sg189
I0
sg53
(lp1084
I1095363701
asg44
VPT1M32.0137915S
p1085
sg192
I0
sg193
VP0DT0H0M0.7000S
p1086
sg48
(dp1087
g50
VALG RyaNoob
p1088
sg52
Nssa(dp1089
g47
I4096745987
sg41
VWeaponDrop
p1090
sg189
I5
sg53
(lp1091
I2758383128
asg44
VPT1M32.0137915S
p1092
sg192
I4
sg193
VP0DT0H0M4.7333S
p1093
sg48
(dp1094
g50
VALG RyaNoob
p1095
sg52
Nssa(dp1096
g41
VMedal
p1097
sg48
(dp1098
g50
VE6 Huke HCS
p1099
sg52
Nssg252
I3565443938
sg44
VPT1M33.5437996S
p1100
sa(dp1101
g41
VMedal
p1102
sg48
(dp1103
g50
VE6 Cratos HCS
p1104
sg52
Nssg252
I3565443938
sg44
VPT1M33.5437996S
p1105
sa(dp1106
g41
VMedal
p1107
sg48
(dp1108
g50
VE6 bubu dubu
p1109
sg52
Nssg252
I3565443938
sg44
VPT1M33.5437996S
p1110
sa(dp1111
g47
I313138863
sg48
(dp1112
g50
VALG RyaNoob
p1113
sg52
Nssg53
(lp1114
I1095363701
asg41
VWeaponPickup
p1115
sg44
VPT1M40.0279229S
p1116
sa(dp1117
g47
I4096745987
sg48
(dp1118
g50
VALG RyaNoob
p1119
sg52
Nssg53
(lp1120
I2758383128
asg41
VWeaponPickup
p1121
sg44
VPT1M40.0289421S
p1122
sa(dp1123
g41
VPlayerSpawn
p1124
sg48
(dp1125
g50
VALG RyaNoob
p1126
sg52
Nssg44
VPT1M40.0289421S
p1127
sa(dp1128
g217
I4096745987
sg218
I00
sg219
I00
sg220
(dp1129
g50
VE6 Shooter
p1130
sg52
Nssg223
(lp1131
I2758383128
asg225
I00
sg226
I01
sg227
I1
sg228
I0
sg229
I1
sg230
(dp1132
Vy
F1.17319489
sVx
F10.606041899999999
sVz
F2.7195968599999998
ssg232
(dp1133
Vy
F0.40298250000000002
sVx
F16.513069999999999
sVz
F0.80000305199999999
ssg234
I00
sg235
(dp1134
g50
VALG ContrA HCS
p1135
sg52
Nssg238
(lp1136
sg240
(lp1137
(dp1138
g50
VE6 Huke HCS
p1139
sg52
Nsasg244
I01
sg44
VPT1M40.6279338S
p1140
sg41
VDeath
p1141
sg247
I1
sa(dp1142
g41
VMedal
p1143
sg48
(dp1144
g50
VE6 Shooter
p1145
sg52
Nssg252
I2494364276
sg44
VPT1M40.628958S
p1146
sa(dp1147
g41
VMedal
p1148
sg48
(dp1149
g50
VE6 Shooter
p1150
sg52
Nssg252
I3261908037
sg44
VPT1M40.628958S
p1151
sa(dp1152
g47
I313138863
sg41
VWeaponDrop
p1153
sg189
I0
sg53
(lp1154
I1095363701
asg44
VPT1M40.6299563S
p1155
sg192
I0
sg193
VP0DT0H0M0.5667S
p1156
sg48
(dp1157
g50
VALG ContrA HCS
p1158
sg52
Nssa(dp1159
g47
I4096745987
sg41
VWeaponDrop
p1160
sg189
I11
sg53
(lp1161
I2758383128
asg44
VPT1M40.6299563S
p1162
sg192
I7
sg193
VP0DT0H0M10.9500S
p1163
sg48
(dp1164
g50
VALG ContrA HCS
p1165
sg52
Nssa(dp1166
g217
I4096745987
sg218
I00
sg219
I00
sg220
(dp1167
g50
VALGPredevonator
p1168
sg52
Nssg223
(lp1169
I2758383128
asg225
I00
sg226
I01
sg227
I1
sg228
I0
sg229
I1
sg230
(dp1170
Vy
F-9.8571259999999992
sVx
F14.4637423
sVz
F2.8246285900000001
ssg232
(dp1171
Vy
F-8.0347259999999991
sVx
F10.7660789
sVz
F3.1403884899999999
ssg234
I00
sg235
(dp1172
g50
VE6 Huke HCS
p1173
sg52
Nssg238
(lp1174
sg240
(lp1175
sg244
I01
sg44
VPT1M46.928055S
p1176
sg41
VDeath
p1177
sg247
I1
sa(dp1178
g41
VMedal
p1179
sg48
(dp1180
g50
VALGPredevonator
p1181
sg52
Nssg252
I1351381581
sg44
VPT1M46.9290807S
p1182
sa(dp1183
g41
VMedal
p1184
sg48
(dp1185
g50
VALGPredevonator
p1186
sg52
Nssg252
I3261908037
sg44
VPT1M46.9300832S
p1187
sa(dp1188
g47
I313138863
sg41
VWeaponDrop
p1189
sg189
I0
sg53
(lp1190
I1095363701
asg44
VPT1M46.9310822S
p1191
sg192
I0
sg193
VP0DT0H0M1.1333S
p1192
sg48
(dp1193
g50
VE6 Huke HCS
p1194
sg52
Nssa(dp1195
g47
I424645655
sg41
VWeaponDrop
p1196
sg189
I54
sg53
(lp1197
I1327094800
asg44
VPT1M46.9310822S
p1198
sg192
I21
sg193
VP0DT0H0M38.7167S
p1199
sg48
(dp1200
g50
VE6 Huke HCS
p1201
sg52
Nssa(dp1202
g41
VMedal
p1203
sg48
(dp1204
g50
VALGPredevonator
p1205
sg52
Nssg252
I2916014239
sg44
VPT1M47.2940622S
p1206
sa(dp1207
g217
I723388907
sg218
I00
sg219
I00
sg220
(dp1208
g50
VE6 Cratos HCS
p1209
sg52
Nssg223
(lp1210
I89283061
asg225
I00
sg226
I01
sg227
I1
sg228
I0
sg229
I1
sg230
(dp1211
Vy
F-0.603302538
sVx
F21.604040000000001
sVz
F0.80001889999999998
ssg232
(dp1212
Vy
F-1.2308562999999999
sVx
F18.9946327
sVz
F1.38808179
ssg234
I00
sg235
(dp1213
g50
VALG Heinz HCS
p1214
sg52
Nssg238
(lp1215
sg240
(lp1216
(dp1217
g50
VE6 Shooter
p1218
sg52
Nsasg244
I00
sg44
VPT1M48.2610812S
p1219
sg41
VDeath
p1220
sg247
I1
sa(dp1221
g47
I313138863
sg41
VWeaponDrop
p1222
sg189
I12
sg53
(lp1223
I1095363701
asg44
VPT1M48.2631025S
p1224
sg192
I6
sg193
VP0DT0H0M4.1833S
p1225
sg48
(dp1226
g50
VALG Heinz HCS
p1227
sg52
Nssa(dp1228
g47
I4096745987
sg41
VWeaponDrop
p1229
sg189
I15
sg53
(lp1230
I2758383128
asg44
VPT1M48.2631025S
p1231
sg192
I3
sg193
VP0DT0H0M31.7000S
p1232
sg48
(dp1233
g50
VALG Heinz HCS
p1234
sg52
Nssa(dp1235
g47
I313138863
sg48
(dp1236
g50
VALG ContrA HCS
p1237
sg52
Nssg53
(lp1238
I1095363701
asg41
VWeaponPickup
p1239
sg44
VPT1M48.6451109S
p1240
sa(dp1241
g47
I4096745987
sg48
(dp1242
g50
VALG ContrA HCS
p1243
sg52
Nssg53
(lp1244
I2758383128
asg41
VWeaponPickup
p1245
sg44
VPT1M48.6451109S
p1246
sa(dp1247
g41
VPlayerSpawn
p1248
sg48
(dp1249
g50
VALG ContrA HCS
p1250
sg52
Nssg44
VPT1M48.6451109S
p1251
sa(dp1252
g47
I2902827823
sg41
VWeaponDrop
p1253
sg189
I4
sg53
(lp1254
I2758383128
asg44
VPT1M49.7271086S
p1255
sg192
I4
sg193
VP0DT0H0M28.3000S
p1256
sg48
(dp1257
g50
VALGPredevonator
p1258
sg52
Nssa(dp1259
g47
I2015271382
sg48
(dp1260
g50
VALGPredevonator
p1261
sg52
Nssg53
(lp1262
I2758383128
asg41
VWeaponPickup
p1263
sg44
VPT1M49.7271086S
p1264
sa(dp1265
g41
VMedal
p1266
sg48
(dp1267
g50
VE6 Cratos HCS
p1268
sg52
Nssg252
I3400287617
sg44
VPT1M52.2271568S
p1269
sa(dp1270
g47
I313138863
sg48
(dp1271
g50
VE6 Huke HCS
p1272
sg52
Nssg53
(lp1273
I1095363701
asg41
VWeaponPickup
p1274
sg44
VPT1M54.9442088S
p1275
sa(dp1276
g47
I4096745987
sg48
(dp1277
g50
VE6 Huke HCS
p1278
sg52
Nssg53
(lp1279
I2758383128
asg41
VWeaponPickup
p1280
sg44
VPT1M54.9452283S
p1281
sa(dp1282
g41
VPlayerSpawn
p1283
sg48
(dp1284
g50
VE6 Huke HCS
p1285
sg52
Nssg44
VPT1M54.9452283S
p1286
sa(dp1287
g217
I4096745987
sg218
I00
sg219
I00
sg220
(dp1288
g50
VALG ContrA HCS
p1289
sg52
Nssg223
(lp1290
I2758383128
asg225
I00
sg226
I01
sg227
I1
sg228
I0
sg229
I1
sg230
(dp1291
Vy
F-16.699390000000001
sVx
F17.085586500000002
sVz
F1.6109245999999999
ssg232
(dp1292
Vy
F-4.0497455599999999
sVx
F20.513931299999999
sVz
F2.464385
ssg234
I00
sg235
(dp1293
g50
VE6 Shooter
p1294
sg52
Nssg238
(lp1295
sg240
(lp1296
(dp1297
g50
VALGPredevonator
p1298
sg52
Nsasg244
I01
sg44
VPT1M55.4272185S
p1299
sg41
VDeath
p1300
sg247
I1
sa(dp1301
g41
VImpulse
p1302
sg48
(dp1303
g50
VALG ContrA HCS
p1304
sg52
Nssg290
I2556889090
sg44
VPT1M55.4282189S
p1305
sa(dp1306
g41
VMedal
p1307
sg48
(dp1308
g50
VALG ContrA HCS
p1309
sg52
Nssg252
I2838259753
sg44
VPT1M55.4282189S
p1310
sa(dp1311
g41
VMedal
p1312
sg48
(dp1313
g50
VALG ContrA HCS
p1314
sg52
Nssg252
I3261908037
sg44
VPT1M55.4292199S
p1315
sa(dp1316
g47
I4096745987
sg41
VWeaponDrop
p1317
sg189
I42
sg53
(lp1318
I2758383128
asg44
VPT1M55.4292199S
p1319
sg192
I21
sg193
VP0DT0H1M28.0500S
p1320
sg48
(dp1321
g50
VE6 Shooter
p1322
sg52
Nssa(dp1323
g47
I313138863
sg41
VWeaponDrop
p1324
sg189
I23
sg53
(lp1325
I1095363701
asg44
VPT1M55.4302418S
p1326
sg192
I9
sg193
VP0DT0H0M8.2667S
p1327
sg48
(dp1328
g50
VE6 Shooter
p1329
sg52
Nssa(dp1330
g47
I313138863
sg48
(dp1331
g50
VALG Heinz HCS
p1332
sg52
Nssg53
(lp1333
I1095363701
asg41
VWeaponPickup
p1334
sg44
VPT1M56.2782366S
p1335
sa(dp1336
g47
I4096745987
sg48
(dp1337
g50
VALG Heinz HCS
p1338
sg52
Nssg53
(lp1339
I2758383128
asg41
VWeaponPickup
p1340
sg44
VPT1M56.2782366S
p1341
sa(dp1342
g41
VPlayerSpawn
p1343
sg48
(dp1344
g50
VALG Heinz HCS
p1345
sg52
Nssg44
VPT1M56.2782366S
p1346
sa(dp1347
g41
VMedal
p1348
sg48
(dp1349
g50
VE6 Cratos HCS
p1350
sg52
Nssg252
I2916014239
sg44
VPT1M58.6263026S
p1351
sa(dp1352
g47
I313138863
sg48
(dp1353
g50
VE6 Shooter
p1354
sg52
Nssg53
(lp1355
I1095363701
asg41
VWeaponPickup
p1356
sg44
VPT2M3.44462S
p1357
sa(dp1358
g47
I4096745987
sg48
(dp1359
g50
VE6 Shooter
p1360
sg52
Nssg53
(lp1361
I2758383128
asg41
VWeaponPickup
p1362
sg44
VPT2M3.44462S
p1363
sa(dp1364
g41
VPlayerSpawn
p1365
sg48
(dp1366
g50
VE6 Shooter
p1367
sg52
Nssg44
VPT2M3.44462S
p1368
sa(dp1369
g217
I4096745987
sg218
I00
sg219
I00
sg220
(dp1370
g50
VALG Heinz HCS
p1371
sg52
Nssg223
(lp1372
I2758383128
asg225
I00
sg226
I01
sg227
I1
sg228
I0
sg229
I1
sg230
(dp1373
Vy
F7.8208339999999996
sVx
F-7.4519880000000001
sVz
F0.78205776199999999
ssg232
(dp1374
Vy
F5.3645286600000004
sVx
F-3.8662221400000001
sVz
F0.78266143799999999
ssg234
I00
sg235
(dp1375
g50
VE6 Cratos HCS
p1376
sg52
Nssg238
(lp1377
sg240
(lp1378
(dp1379
g50
VALGPredevonator
p1380
sg52
Nsasg244
I01
sg44
VPT2M4.261389S
p1381
sg41
VDeath
p1382
sg247
I1
sa(dp1383
g41
VMedal
p1384
sg48
(dp1385
g50
VALG Heinz HCS
p1386
sg52
Nssg252
I3261908037
sg44
VPT2M4.2624077S
p1387
sa(dp1388
g47
I723388907
sg41
VWeaponDrop
p1389
sg189
I24
sg53
(lp1390
I89283061
asg44
VPT2M4.2624077S
p1391
sg192
I7
sg193
VP0DT0H0M12.4500S
p1392
sg48
(dp1393
g50
VE6 Cratos HCS
p1394
sg52
Nssa(dp1395
g47
I4096745987
sg41
VWeaponDrop
p1396
sg189
I15
sg53
(lp1397
I2758383128
asg44
VPT2M4.2624077S
p1398
sg192
I6
sg193
VP0DT0H0M24.8333S
p1399
sg48
(dp1400
g50
VE6 Cratos HCS
p1401
sg52
Nssa(dp1402
g47
I4096745987
sg41
VWeaponDrop
p1403
sg189
I36
sg53
(lp1404
I2758383128
asg44
VPT2M4.7093984S
p1405
sg192
I25
sg193
VP0DT0H1M13.8167S
p1406
sg48
(dp1407
g50
VALGPredevonator
p1408
sg52
Nssa(dp1409
g47
I313138863
sg48
(dp1410
g50
VALGPredevonator
p1411
sg52
Nssg53
(lp1412
I1095363701
asg41
VWeaponPickup
p1413
sg44
VPT2M4.7093984S
p1414
sa(dp1415
g47
I313138863
sg41
VWeaponDrop
p1416
sg189
I0
sg53
(lp1417
I1095363701
asg44
VPT2M5.7434172S
p1418
sg192
I0
sg193
VP0DT0H0M1.0333S
p1419
sg48
(dp1420
g50
VALGPredevonator
p1421
sg52
Nssa(dp1422
g47
I424645655
sg48
(dp1423
g50
VALGPredevonator
p1424
sg52
Nssg53
(lp1425
I1327094800
asg41
VWeaponPickup
p1426
sg44
VPT2M5.7434172S
p1427
sa(dp1428
g47
I313138863
sg41
VWeaponDrop
p1429
sg189
I0
sg53
(lp1430
I1095363701
asg44
VPT2M7.8764591S
p1431
sg192
I0
sg193
VP0DT0H0M0.9833S
p1432
sg48
(dp1433
g50
VALG ContrA HCS
p1434
sg52
Nssa(dp1435
g47
I723388907
sg48
(dp1436
g50
VALG ContrA HCS
p1437
sg52
Nssg53
(lp1438
I89283061
asg41
VWeaponPickup
p1439
sg44
VPT2M7.8764591S
p1440
sa(dp1441
g217
I4106030681
sg218
I00
sg219
I00
sg220
(dp1442
g50
VE6 Shooter
p1443
sg52
Nssg223
(lp1444
sg225
I00
sg226
I01
sg227
I1
sg228
I0
sg229
I1
sg230
(dp1445
Vy
F-1.00349581
sVx
F25.409452399999999
sVz
F2.4164226100000001
ssg232
(dp1446
Vy
F8.8767549999999993
sVx
F18.743234600000001
sVz
F1.605896
ssg234
I00
sg235
(dp1447
g50
VALG ContrA HCS
p1448
sg52
Nssg238
(lp1449
sg240
(lp1450
(dp1451
g50
VE6 Huke HCS
p1452
sg52
Nsasg244
I00
sg44
VPT2M9.4604876S
p1453
sg41
VDeath
p1454
sg247
I1
sa(dp1455
g41
VMedal
p1456
sg48
(dp1457
g50
VE6 Shooter
p1458
sg52
Nssg252
I1351381581
sg44
VPT2M9.4615094S
p1459
sa(dp1460
g47
I723388907
sg41
VWeaponDrop
p1461
sg189
I0
sg53
(lp1462
I89283061
asg44
VPT2M9.4625051S
p1463
sg192
I0
sg193
VP0DT0H0M0.4667S
p1464
sg48
(dp1465
g50
VALG ContrA HCS
p1466
sg52
Nssa(dp1467
g47
I4096745987
sg41
VWeaponDrop
p1468
sg189
I9
sg53
(lp1469
I2758383128
asg44
VPT2M9.4625051S
p1470
sg192
I5
sg193
VP0DT0H0M19.3667S
p1471
sg48
(dp1472
g50
VALG ContrA HCS
p1473
sg52
Nssa(dp1474
g41
VMedal
p1475
sg48
(dp1476
g50
VE6 Huke HCS
p1477
sg52
Nssg252
I2916014239
sg44
VPT2M10.993517S
p1478
sa(dp1479
g47
I313138863
sg48
(dp1480
g50
VE6 Cratos HCS
p1481
sg52
Nssg53
(lp1482
I1095363701
asg41
VWeaponPickup
p1483
sg44
VPT2M12.2775427S
p1484
sa(dp1485
g47
I4096745987
sg48
(dp1486
g50
VE6 Cratos HCS
p1487
sg52
Nssg53
(lp1488
I2758383128
asg41
VWeaponPickup
p1489
sg44
VPT2M12.2775427S
p1490
sa(dp1491
g41
VPlayerSpawn
p1492
sg48
(dp1493
g50
VE6 Cratos HCS
p1494
sg52
Nssg44
VPT2M12.2775427S
p1495
sa(dp1496
g41
VMedal
p1497
sg48
(dp1498
g50
VALG RyaNoob
p1499
sg52
Nssg252
I3565443938
sg44
VPT2M13.8435718S
p1500
sa(dp1501
g41
VMedal
p1502
sg48
(dp1503
g50
VALG Heinz HCS
p1504
sg52
Nssg252
I3565443938
sg44
VPT2M13.8435718S
p1505
sa(dp1506
g47
I313138863
sg48
(dp1507
g50
VALG ContrA HCS
p1508
sg52
Nssg53
(lp1509
I1095363701
asg41
VWeaponPickup
p1510
sg44
VPT2M17.4776418S
p1511
sa(dp1512
g47
I4096745987
sg48
(dp1513
g50
VALG ContrA HCS
p1514
sg52
Nssg53
(lp1515
I2758383128
asg41
VWeaponPickup
p1516
sg44
VPT2M17.4786646S
p1517
sa(dp1518
g41
VPlayerSpawn
p1519
sg48
(dp1520
g50
VALG ContrA HCS
p1521
sg52
Nssg44
VPT2M17.4786646S
p1522
sa(dp1523
g41
VMedal
p1524
sg48
(dp1525
g50
VE6 Shooter
p1526
sg52
Nssg252
I3400287617
sg44
VPT2M22.3427555S
p1527
sa(dp1528
g217
I4096745987
sg218
I00
sg219
I00
sg220
(dp1529
g50
VE6 Cratos HCS
p1530
sg52
Nssg223
(lp1531
I2758383128
asg225
I00
sg226
I01
sg227
I1
sg228
I0
sg229
I1
sg230
(dp1532
Vy
F-1.9669028500000001
sVx
F10.707002599999999
sVz
F-0.79783939999999998
ssg232
(dp1533
Vy
F-7.5545099999999996
sVx
F13.9082565
sVz
F0.18842953400000001
ssg234
I00
sg235
(dp1534
g50
VALGPredevonator
p1535
sg52
Nssg238
(lp1536
sg240
(lp1537
(dp1538
g50
VE6 Shooter
p1539
sg52
Nsasg244
I00
sg44
VPT2M22.4437377S
p1540
sg41
VDeath
p1541
sg247
I1
sa(dp1542
g47
I2015271382
sg41
VWeaponDrop
p1543
sg189
I0
sg53
(lp1544
I2758383128
asg44
VPT2M22.445737S
p1545
sg192
I0
sg193
VP0DT0H0M1.0333S
p1546
sg48
(dp1547
g50
VALGPredevonator
p1548
sg52
Nssa(dp1549
g47
I424645655
sg41
VWeaponDrop
p1550
sg189
I39
sg53
(lp1551
I1327094800
asg44
VPT2M22.445737S
p1552
sg192
I23
sg193
VP0DT0H0M16.7000S
p1553
sg48
(dp1554
g50
VALGPredevonator
p1555
sg52
Nssa(dp1556
g47
I313138863
sg41
VWeaponDrop
p1557
sg189
I0
sg53
(lp1558
I1095363701
asg44
VPT2M24.6257893S
p1559
sg192
I0
sg193
VP0DT0H0M3.2000S
p1560
sg48
(dp1561
g50
VALG RyaNoob
p1562
sg52
Nssa(dp1563
g47
I723388907
sg48
(dp1564
g50
VALG RyaNoob
p1565
sg52
Nssg53
(lp1566
I89283061
asg41
VWeaponPickup
p1567
sg44
VPT2M24.6257893S
p1568
sa(dp1569
g217
I4096745987
sg218
I00
sg219
I00
sg220
(dp1570
g50
VALG ContrA HCS
p1571
sg52
Nssg223
(lp1572
I2758383128
asg225
I00
sg226
I01
sg227
I1
sg228
I0
sg229
I1
sg230
(dp1573
Vy
F9.6261589999999995
sVx
F2.4103937100000001
sVz
F0.0045400559999999998
ssg232
(dp1574
Vy
F1.82852185
sVx
F7.7400002499999996
sVz
F1.2939560000000001
ssg234
I00
sg235
(dp1575
g50
VE6 Huke HCS
p1576
sg52
Nssg238
(lp1577
sg240
(lp1578
sg244
I01
sg44
VPT2M25.576825S
p1579
sg41
VDeath
p1580
sg247
I1
sa(dp1581
g41
VImpulse
p1582
sg48
(dp1583
g50
VALG ContrA HCS
p1584
sg52
Nssg290
I2556889090
sg44
VPT2M25.576825S
p1585
sa(dp1586
g41
VMedal
p1587
sg48
(dp1588
g50
VALG ContrA HCS
p1589
sg52
Nssg252
I2838259753
sg44
VPT2M25.5777978S
p1590
sa(dp1591
g41
VImpulse
p1592
sg48
(dp1593
g50
VALG ContrA HCS
p1594
sg52
Nssg290
I3174430457
sg44
VPT2M25.578827S
p1595
sa(dp1596
g41
VMedal
p1597
sg48
(dp1598
g50
VALG RyaNoob
p1599
sg52
Nssg252
I824733727
sg44
VPT2M25.578827S
p1600
sa(dp1601
g41
VMedal
p1602
sg48
(dp1603
g50
VALG ContrA HCS
p1604
sg52
Nssg252
I3653057799
sg44
VPT2M25.5798147S
p1605
sa(dp1606
g47
I313138863
sg41
VWeaponDrop
p1607
sg189
I0
sg53
(lp1608
I1095363701
asg44
VPT2M25.5798147S
p1609
sg192
I0
sg193
VP0DT0H0M1.8500S
p1610
sg48
(dp1611
g50
VE6 Huke HCS
p1612
sg52
Nssa(dp1613
g47
I4096745987
sg41
VWeaponDrop
p1614
sg189
I17
sg53
(lp1615
I2758383128
asg44
VPT2M25.5798147S
p1616
sg192
I7
sg193
VP0DT0H0M28.7833S
p1617
sg48
(dp1618
g50
VE6 Huke HCS
p1619
sg52
Nssa(dp1620
g217
I313138863
sg218
I00
sg219
I00
sg220
(dp1621
g50
VE6 Shooter
p1622
sg52
Nssg223
(lp1623
I1095363701
asg225
I00
sg226
I01
sg227
I1
sg228
I0
sg229
I1
sg230
(dp1624
Vy
F-9.4848995200000008
sVx
F12.0719213
sVz
F1.2998354400000001
ssg232
(dp1625
Vy
F-8.4136769999999999
sVx
F9.6957909999999998
sVz
F0.51120980000000005
ssg234
I00
sg235
(dp1626
g50
VALG RyaNoob
p1627
sg52
Nssg238
(lp1628
sg240
(lp1629
(dp1630
g50
VE6 Cratos HCS
p1631
sg52
Nsasg244
I00
sg44
VPT2M29.2608684S
p1632
sg41
VDeath
p1633
sg247
I1
sa(dp1634
g47
I723388907
sg41
VWeaponDrop
p1635
sg189
I18
sg53
(lp1636
I89283061
asg44
VPT2M29.2618924S
p1637
sg192
I3
sg193
VP0DT0H0M4.6333S
p1638
sg48
(dp1639
g50
VALG RyaNoob
p1640
sg52
Nssa(dp1641
g47
I4096745987
sg41
VWeaponDrop
p1642
sg189
I13
sg53
(lp1643
I2758383128
asg44
VPT2M29.2618924S
p1644
sg192
I5
sg193
VP0DT0H0M41.4000S
p1645
sg48
(dp1646
g50
VALG RyaNoob
p1647
sg52
Nssa(dp1648
g47
I313138863
sg48
(dp1649
g50
VALGPredevonator
p1650
sg52
Nssg53
(lp1651
I1095363701
asg41
VWeaponPickup
p1652
sg44
VPT2M30.4609099S
p1653
sa(dp1654
g47
I4096745987
sg48
(dp1655
g50
VALGPredevonator
p1656
sg52
Nssg53
(lp1657
I2758383128
asg41
VWeaponPickup
p1658
sg44
VPT2M30.4609099S
p1659
sa(dp1660
g41
VPlayerSpawn
p1661
sg48
(dp1662
g50
VALGPredevonator
p1663
sg52
Nssg44
VPT2M30.4609099S
p1664
sa(dp1665
g217
I313138863
sg218
I00
sg219
I00
sg220
(dp1666
g50
VE6 Cratos HCS
p1667
sg52
Nssg223
(lp1668
I1095363701
asg225
I00
sg226
I01
sg227
I1
sg228
I0
sg229
I1
sg230
(dp1669
Vy
F-5.1558529999999996
sVx
F7.9736733400000004
sVz
F0.0045197606099999996
ssg232
(dp1670
Vy
F-10.9795122
sVx
F5.7697310000000002
sVz
F0.70338666400000005
ssg234
I00
sg235
(dp1671
g50
VALG Heinz HCS
p1672
sg52
Nssg238
(lp1673
sg240
(lp1674
(dp1675
g50
VE6 Huke HCS
p1676
sg52
Nsasg244
I00
sg44
VPT2M30.5438912S
p1677
sg41
VDeath
p1678
sg247
I1
sa(dp1679
g47
I313138863
sg41
VWeaponDrop
p1680
sg189
I0
sg53
(lp1681
I1095363701
asg44
VPT2M30.5459095S
p1682
sg192
I0
sg193
VP0DT0H0M0.7333S
p1683
sg48
(dp1684
g50
VALG Heinz HCS
p1685
sg52
Nssa(dp1686
g47
I4096745987
sg41
VWeaponDrop
p1687
sg189
I19
sg53
(lp1688
I2758383128
asg44
VPT2M30.5459095S
p1689
sg192
I10
sg193
VP0DT0H0M33.5333S
p1690
sg48
(dp1691
g50
VALG Heinz HCS
p1692
sg52
Nssa(dp1693
g41
VMedal
p1694
sg48
(dp1695
g50
VE6 bubu dubu
p1696
sg52
Nssg252
I3565443938
sg44
VPT2M33.0099395S
p1697
sa(dp1698
g41
VMedal
p1699
sg48
(dp1700
g50
VE6 Shooter
p1701
sg52
Nssg252
I3400287617
sg44
VPT2M33.2599445S
p1702
sa(dp1703
g47
I313138863
sg48
(dp1704
g50
VE6 Huke HCS
p1705
sg52
Nssg53
(lp1706
I1095363701
asg41
VWeaponPickup
p1707
sg44
VPT2M33.5939686S
p1708
sa(dp1709
g47
I4096745987
sg48
(dp1710
g50
VE6 Huke HCS
p1711
sg52
Nssg53
(lp1712
I2758383128
asg41
VWeaponPickup
p1713
sg44
VPT2M33.5939686S
p1714
sa(dp1715
g41
VPlayerSpawn
p1716
sg48
(dp1717
g50
VE6 Huke HCS
p1718
sg52
Nssg44
VPT2M33.5939686S
p1719
sa(dp1720
g217
I4096745987
sg218
I00
sg219
I00
sg220
(dp1721
g50
VE6 Shooter
p1722
sg52
Nssg223
(lp1723
I2758383128
asg225
I00
sg226
I01
sg227
I1
sg228
I0
sg229
I1
sg230
(dp1724
Vy
F-9.6646380000000001
sVx
F12.774764100000001
sVz
F0.0045318305500000001
ssg232
(dp1725
Vy
F-0.123194546
sVx
F12.8659573
sVz
F-0.79763436300000001
ssg234
I00
sg235
(dp1726
g50
VALG ContrA HCS
p1727
sg52
Nssg238
(lp1728
sg240
(lp1729
(dp1730
g50
VE6 Cratos HCS
p1731
sg52
Nsasg244
I01
sg44
VPT2M33.7929546S
p1732
sg41
VDeath
p1733
sg247
I1
sa(dp1734
g41
VImpulse
p1735
sg48
(dp1736
g50
VE6 Shooter
p1737
sg52
Nssg290
I2556889090
sg44
VPT2M33.7939553S
p1738
sa(dp1739
g41
VMedal
p1740
sg48
(dp1741
g50
VE6 Shooter
p1742
sg52
Nssg252
I2838259753
sg44
VPT2M33.7939553S
p1743
sa(dp1744
g41
VMedal
p1745
sg48
(dp1746
g50
VE6 Shooter
p1747
sg52
Nssg252
I3261908037
sg44
VPT2M33.7949742S
p1748
sa(dp1749
g41
VMedal
p1750
sg48
(dp1751
g50
VE6 Shooter
p1752
sg52
Nssg252
I2078758684
sg44
VPT2M33.7949742S
p1753
sa(dp1754
g47
I313138863
sg41
VWeaponDrop
p1755
sg189
I0
sg53
(lp1756
I1095363701
asg44
VPT2M33.7949742S
p1757
sg192
I0
sg193
VP0DT0H0M0.4000S
p1758
sg48
(dp1759
g50
VALG ContrA HCS
p1760
sg52
Nssa(dp1761
g47
I4096745987
sg41
VWeaponDrop
p1762
sg189
I10
sg53
(lp1763
I2758383128
asg44
VPT2M33.7949742S
p1764
sg192
I8
sg193
VP0DT0H0M15.9167S
p1765
sg48
(dp1766
g50
VALG ContrA HCS
p1767
sg52
Nssa(dp1768
g47
I2492868984
sg48
(dp1769
g50
VE6 Cratos HCS
p1770
sg52
Nssg53
(lp1771
I2758383128
asg41
VWeaponPickup
p1772
sg44
VPT2M34.8099741S
p1773
sa(dp1774
g47
I2492868984
sg41
VWeaponDrop
p1775
sg189
I0
sg53
(lp1776
I2758383128
asg44
VPT2M35.9439956S
p1777
sg192
I0
sg193
VP0DT0H0M0.9833S
p1778
sg48
(dp1779
g50
VE6 Cratos HCS
p1780
sg52
Nssa(dp1781
g47
I2492868984
sg48
(dp1782
g50
VE6 bubu dubu
p1783
sg52
Nssg53
(lp1784
I2758383128
asg41
VWeaponPickup
p1785
sg44
VPT2M36.5600075S
p1786
sa(dp1787
g47
I313138863
sg48
(dp1788
g50
VALG RyaNoob
p1789
sg52
Nssg53
(lp1790
I1095363701
asg41
VWeaponPickup
p1791
sg44
VPT2M37.2770341S
p1792
sa(dp1793
g47
I4096745987
sg48
(dp1794
g50
VALG RyaNoob
p1795
sg52
Nssg53
(lp1796
I2758383128
asg41
VWeaponPickup
p1797
sg44
VPT2M37.2770341S
p1798
sa(dp1799
g41
VPlayerSpawn
p1800
sg48
(dp1801
g50
VALG RyaNoob
p1802
sg52
Nssg44
VPT2M37.2770341S
p1803
sa(dp1804
g47
I2492868984
sg41
VWeaponDrop
p1805
sg189
I0
sg53
(lp1806
I2758383128
asg44
VPT2M37.6951859S
p1807
sg192
I0
sg193
VP0DT0H0M0.9833S
p1808
sg48
(dp1809
g50
VE6 bubu dubu
p1810
sg52
Nssa(dp1811
g47
I313138863
sg48
(dp1812
g50
VALG Heinz HCS
p1813
sg52
Nssg53
(lp1814
I1095363701
asg41
VWeaponPickup
p1815
sg44
VPT2M38.560047S
p1816
sa(dp1817
g47
I4096745987
sg48
(dp1818
g50
VALG Heinz HCS
p1819
sg52
Nssg53
(lp1820
I2758383128
asg41
VWeaponPickup
p1821
sg44
VPT2M38.5610692S
p1822
sa(dp1823
g41
VPlayerSpawn
p1824
sg48
(dp1825
g50
VALG Heinz HCS
p1826
sg52
Nssg44
VPT2M38.5610692S
p1827
sa(dp1828
g47
I313138863
sg41
VWeaponDrop
p1829
sg189
I15
sg53
(lp1830
I1095363701
asg44
VPT2M40.6091032S
p1831
sg192
I6
sg193
VP0DT0H0M7.4500S
p1832
sg48
(dp1833
g50
VE6 Cratos HCS
p1834
sg52
Nssa(dp1835
g47
I2902827823
sg48
(dp1836
g50
VE6 Cratos HCS
p1837
sg52
Nssg53
(lp1838
I2758383128
asg41
VWeaponPickupPad
p1839
sg44
VPT2M40.6091032S
p1840
sa(dp1841
g47
I2902827823
sg48
(dp1842
g50
VE6 Cratos HCS
p1843
sg52
Nssg53
(lp1844
I2758383128
asg41
VWeaponPickup
p1845
sg44
VPT2M40.6091032S
p1846
sa(dp1847
g47
I313138863
sg41
VWeaponDrop
p1848
sg189
I20
sg53
(lp1849
I1095363701
asg44
VPT2M40.7090897S
p1850
sg192
I5
sg193
VP0DT0H0M10.1333S
p1851
sg48
(dp1852
g50
VE6 Shooter
p1853
sg52
Nssa(dp1854
g47
I2015271382
sg48
(dp1855
g50
VE6 Shooter
p1856
sg52
Nssg53
(lp1857
I2758383128
asg41
VWeaponPickup
p1858
sg44
VPT2M40.7090897S
p1859
sa(dp1860
g217
I4096745987
sg218
I00
sg219
I00
sg220
(dp1861
g50
VE6 Huke HCS
p1862
sg52
Nssg223
(lp1863
I2758383128
asg225
I00
sg226
I01
sg227
I1
sg228
I0
sg229
I1
sg230
(dp1864
Vy
F-4.5228630000000001
sVx
F0.61118289999999997
sVz
F3.2669146100000002
ssg232
(dp1865
Vy
F1.4339237199999999
sVx
F3.1583583399999999
sVz
F3.7001569999999999
ssg234
I00
sg235
(dp1866
g50
VALGPredevonator
p1867
sg52
Nssg238
(lp1868
sg240
(lp1869
(dp1870
g50
VE6 bubu dubu
p1871
sg52
Nsasg244
I01
sg44
VPT2M41.5601032S
p1872
sg41
VDeath
p1873
sg247
I1
sa(dp1874
g41
VMedal
p1875
sg48
(dp1876
g50
VE6 Huke HCS
p1877
sg52
Nssg252
I1351381581
sg44
VPT2M41.5611426S
p1878
sa(dp1879
g41
VMedal
p1880
sg48
(dp1881
g50
VE6 Huke HCS
p1882
sg52
Nssg252
I3261908037
sg44
VPT2M41.5611426S
p1883
sa(dp1884
g47
I313138863
sg41
VWeaponDrop
p1885
sg189
I0
sg53
(lp1886
I1095363701
asg44
VPT2M41.5621275S
p1887
sg192
I0
sg193
VP0DT0H0M3.5500S
p1888
sg48
(dp1889
g50
VALGPredevonator
p1890
sg52
Nssa(dp1891
g47
I4096745987
sg41
VWeaponDrop
p1892
sg189
I4
sg53
(lp1893
I2758383128
asg44
VPT2M41.5621275S
p1894
sg192
I3
sg193
VP0DT0H0M7.5500S
p1895
sg48
(dp1896
g50
VALGPredevonator
p1897
sg52
Nssa(dp1898
g47
I313138863
sg48
(dp1899
g50
VALG ContrA HCS
p1900
sg52
Nssg53
(lp1901
I1095363701
asg41
VWeaponPickup
p1902
sg44
VPT2M41.8101118S
p1903
sa(dp1904
g47
I4096745987
sg48
(dp1905
g50
VALG ContrA HCS
p1906
sg52
Nssg53
(lp1907
I2758383128
asg41
VWeaponPickup
p1908
sg44
VPT2M41.811133S
p1909
sa(dp1910
g41
VPlayerSpawn
p1911
sg48
(dp1912
g50
VALG ContrA HCS
p1913
sg52
Nssg44
VPT2M41.811133S
p1914
sa(dp1915
g217
I2902827823
sg218
I00
sg219
I00
sg220
(dp1916
g50
VE6 Cratos HCS
p1917
sg52
Nssg223
(lp1918
I2758383128
asg225
I00
sg226
I01
sg227
I1
sg228
I0
sg229
I1
sg230
(dp1919
Vy
F9.5504510000000007
sVx
F15.040271799999999
sVz
F2.5759685000000001
ssg232
(dp1920
Vy
F2.8688570000000002
sVx
F3.5395534
sVz
F3.7001571700000002
ssg234
I00
sg235
(dp1921
g50
VALG Heinz HCS
p1922
sg52
Nssg238
(lp1923
sg240
(lp1924
(dp1925
g50
VE6 Shooter
p1926
sg52
Nsasg244
I00
sg44
VPT2M48.2102312S
p1927
sg41
VDeath
p1928
sg247
I1
sa(dp1929
g41
VMedal
p1930
sg48
(dp1931
g50
VE6 Huke HCS
p1932
sg52
Nssg252
I824733727
sg44
VPT2M48.21125S
p1933
sa(dp1934
g41
VMedal
p1935
sg48
(dp1936
g50
VE6 Cratos HCS
p1937
sg52
Nssg252
I1351381581
sg44
VPT2M48.21125S
p1938
sa(dp1939
g47
I313138863
sg41
VWeaponDrop
p1940
sg189
I0
sg53
(lp1941
I1095363701
asg44
VPT2M48.212251S
p1942
sg192
I0
sg193
VP0DT0H0M2.0500S
p1943
sg48
(dp1944
g50
VALG Heinz HCS
p1945
sg52
Nssa(dp1946
g47
I4096745987
sg41
VWeaponDrop
p1947
sg189
I4
sg53
(lp1948
I2758383128
asg44
VPT2M48.212251S
p1949
sg192
I2
sg193
VP0DT0H0M7.6000S
p1950
sg48
(dp1951
g50
VALG Heinz HCS
p1952
sg52
Nssa(dp1953
g217
I2902827823
sg218
I00
sg219
I00
sg220
(dp1954
g50
VE6 Cratos HCS
p1955
sg52
Nssg223
(lp1956
I2758383128
asg225
I00
sg226
I01
sg227
I1
sg228
I0
sg229
I1
sg230
(dp1957
Vy
F9.5504510000000007
sVx
F15.040271799999999
sVz
F2.5759685000000001
ssg232
(dp1958
Vy
F3.1173636899999999
sVx
F3.9452991499999999
sVz
F3.7001571700000002
ssg234
I00
sg235
(dp1959
g50
VALG ContrA HCS
p1960
sg52
Nssg238
(lp1961
sg240
(lp1962
sg244
I00
sg44
VPT2M48.2132494S
p1963
sg41
VDeath
p1964
sg247
I1
sa(dp1965
g41
VMedal
p1966
sg48
(dp1967
g50
VE6 Cratos HCS
p1968
sg52
Nssg252
I1351381581
sg44
VPT2M48.2132494S
p1969
sa(dp1970
g41
VMedal
p1971
sg48
(dp1972
g50
VE6 Cratos HCS
p1973
sg52
Nssg252
I2078758684
sg44
VPT2M48.2142336S
p1974
sa(dp1975
g47
I313138863
sg41
VWeaponDrop
p1976
sg189
I0
sg53
(lp1977
I1095363701
asg44
VPT2M48.2152336S
p1978
sg192
I0
sg193
VP0DT0H0M0.3500S
p1979
sg48
(dp1980
g50
VALG ContrA HCS
p1981
sg52
Nssa(dp1982
g47
I4096745987
sg41
VWeaponDrop
p1983
sg189
I0
sg53
(lp1984
I2758383128
asg44
VPT2M48.2152336S
p1985
sg192
I0
sg193
VP0DT0H0M6.0500S
p1986
sg48
(dp1987
g50
VALG ContrA HCS
p1988
sg52
Nssa(dp1989
g41
VMedal
p1990
sg48
(dp1991
g50
VE6 Shooter
p1992
sg52
Nssg252
I3565443938
sg44
VPT2M49.0922737S
p1993
sa(dp1994
g41
VMedal
p1995
sg48
(dp1996
g50
VE6 bubu dubu
p1997
sg52
Nssg252
I2105198095
sg44
VPT2M49.093292S
p1998
sa(dp1999
g41
VMedal
p2000
sg48
(dp2001
g50
VE6 Shooter
p2002
sg52
Nssg252
I2105198095
sg44
VPT2M49.093292S
p2003
sa(dp2004
g41
VMedal
p2005
sg48
(dp2006
g50
VE6 Cratos HCS
p2007
sg52
Nssg252
I2105198095
sg44
VPT2M49.093292S
p2008
sa(dp2009
g41
VMedal
p2010
sg48
(dp2011
g50
VE6 Huke HCS
p2012
sg52
Nssg252
I2105198095
sg44
VPT2M49.093292S
p2013
sa(dp2014
g47
I313138863
sg48
(dp2015
g50
VALGPredevonator
p2016
sg52
Nssg53
(lp2017
I1095363701
asg41
VWeaponPickup
p2018
sg44
VPT2M49.5772597S
p2019
sa(dp2020
g47
I4096745987
sg48
(dp2021
g50
VALGPredevonator
p2022
sg52
Nssg53
(lp2023
I2758383128
asg41
VWeaponPickup
p2024
sg44
VPT2M49.5772597S
p2025
sa(dp2026
g41
VPlayerSpawn
p2027
sg48
(dp2028
g50
VALGPredevonator
p2029
sg52
Nssg44
VPT2M49.5772597S
p2030
sa(dp2031
g41
VMedal
p2032
sg48
(dp2033
g50
VE6 Huke HCS
p2034
sg52
Nssg252
I2916014239
sg44
VPT2M49.7422614S
p2035
sa(dp2036
g217
I313138863
sg218
I00
sg219
I00
sg220
(dp2037
g50
VALG RyaNoob
p2038
sg52
Nssg223
(lp2039
I1095363701
asg225
I00
sg226
I01
sg227
I1
sg228
I0
sg229
I1
sg230
(dp2040
Vy
F-8.1631359999999997
sVx
F-7.7810716600000003
sVz
F1.0853775699999999
ssg232
(dp2041
Vy
F-4.9891796099999999
sVx
F-7.2823950000000002
sVz
F2.54560685
ssg234
I00
sg235
(dp2042
g50
VE6 bubu dubu
p2043
sg52
Nssg238
(lp2044
sg240
(lp2045
sg244
I00
sg44
VPT2M49.8602623S
p2046
sg41
VDeath
p2047
sg247
I1
sa(dp2048
g47
I313138863
sg41
VWeaponDrop
p2049
sg189
I27
sg53
(lp2050
I1095363701
asg44
VPT2M49.8612639S
p2051
sg192
I15
sg193
VP0DT0H0M22.1833S
p2052
sg48
(dp2053
g50
VE6 bubu dubu
p2054
sg52
Nssa(dp2055
g47
I4096745987
sg41
VWeaponDrop
p2056
sg189
I32
sg53
(lp2057
I2758383128
asg44
VPT2M49.8612639S
p2058
sg192
I12
sg193
VP0DT0H1M0.7167S
p2059
sg48
(dp2060
g50
VE6 bubu dubu
p2061
sg52
Nssa(dp2062
g217
I4096745987
sg218
I00
sg219
I00
sg220
(dp2063
g50
VE6 Huke HCS
p2064
sg52
Nssg223
(lp2065
I2758383128
asg225
I00
sg226
I01
sg227
I1
sg228
I0
sg229
I1
sg230
(dp2066
Vy
F-0.77731776200000002
sVx
F-0.18820729999999999
sVz
F2.3999269999999999
ssg232
(dp2067
Vy
F-4.1120305100000003
sVx
F-6.0487723400000002
sVz
F2.2378971600000002
ssg234
I00
sg235
(dp2068
g50
VALG RyaNoob
p2069
sg52
Nssg238
(lp2070
sg240
(lp2071
(dp2072
g50
VE6 bubu dubu
p2073
sg52
Nsasg244
I01
sg44
VPT2M55.2263654S
p2074
sg41
VDeath
p2075
sg247
I1
sa(dp2076
g41
VMedal
p2077
sg48
(dp2078
g50
VE6 Huke HCS
p2079
sg52
Nssg252
I3261908037
sg44
VPT2M55.2283876S
p2080
sa(dp2081
g47
I313138863
sg41
VWeaponDrop
p2082
sg189
I15
sg53
(lp2083
I1095363701
asg44
VPT2M55.2283876S
p2084
sg192
I4
sg193
VP0DT0H0M6.5333S
p2085
sg48
(dp2086
g50
VALG RyaNoob
p2087
sg52
Nssa(dp2088
g47
I4096745987
sg41
VWeaponDrop
p2089
sg189
I12
sg53
(lp2090
I2758383128
asg44
VPT2M55.2283876S
p2091
sg192
I7
sg193
VP0DT0H0M11.4167S
p2092
sg48
(dp2093
g50
VALG RyaNoob
p2094
sg52
Nssa(dp2095
g217
I4096745987
sg218
I00
sg219
I00
sg220
(dp2096
g50
VALG RyaNoob
p2097
sg52
Nssg223
(lp2098
I2758383128
asg225
I00
sg226
I01
sg227
I1
sg228
I0
sg229
I1
sg230
(dp2099
Vy
F-4.3812437099999997
sVx
F-6.1223454500000001
sVz
F2.01254153
ssg232
(dp2100
Vy
F-0.95626276700000001
sVx
F-0.29100989999999999
sVz
F2.39993787
ssg234
I00
sg235
(dp2101
g50
VE6 Huke HCS
p2102
sg52
Nssg238
(lp2103
sg240
(lp2104
sg244
I01
sg44
VPT2M55.3093684S
p2105
sg41
VDeath
p2106
sg247
I1
sa(dp2107
g41
VMedal
p2108
sg48
(dp2109
g50
VALG RyaNoob
p2110
sg52
Nssg252
I3261908037
sg44
VPT2M55.3123913S
p2111
sa(dp2112
g47
I313138863
sg41
VWeaponDrop
p2113
sg189
I0
sg53
(lp2114
I1095363701
asg44
VPT2M55.3133937S
p2115
sg192
I0
sg193
VP0DT0H0M5.3333S
p2116
sg48
(dp2117
g50
VE6 Huke HCS
p2118
sg52
Nssa(dp2119
g47
I4096745987
sg41
VWeaponDrop
p2120
sg189
I14
sg53
(lp2121
I2758383128
asg44
VPT2M55.3133937S
p2122
sg192
I9
sg193
VP0DT0H0M16.3833S
p2123
sg48
(dp2124
g50
VE6 Huke HCS
p2125
sg52
Nssa(dp2126
g47
I313138863
sg48
(dp2127
g50
VALG Heinz HCS
p2128
sg52
Nssg53
(lp2129
I1095363701
asg41
VWeaponPickup
p2130
sg44
VPT2M56.226386S
p2131
sa(dp2132
g47
I4096745987
sg48
(dp2133
g50
VALG Heinz HCS
p2134
sg52
Nssg53
(lp2135
I2758383128
asg41
VWeaponPickup
p2136
sg44
VPT2M56.2274061S
p2137
sa(dp2138
g41
VPlayerSpawn
p2139
sg48
(dp2140
g50
VALG Heinz HCS
p2141
sg52
Nssg44
VPT2M56.2274061S
p2142
sa(dp2143
g47
I313138863
sg48
(dp2144
g50
VALG ContrA HCS
p2145
sg52
Nssg53
(lp2146
I1095363701
asg41
VWeaponPickup
p2147
sg44
VPT2M56.2593862S
p2148
sa(dp2149
g47
I4096745987
sg48
(dp2150
g50
VALG ContrA HCS
p2151
sg52
Nssg53
(lp2152
I2758383128
asg41
VWeaponPickup
p2153
sg44
VPT2M56.2604051S
p2154
sa(dp2155
g41
VPlayerSpawn
p2156
sg48
(dp2157
g50
VALG ContrA HCS
p2158
sg52
Nssg44
VPT2M56.2604051S
p2159
sa(dp2160
g47
I4096745987
sg41
VWeaponDrop
p2161
sg189
I0
sg53
(lp2162
I2758383128
asg44
VPT2M57.375446S
p2163
sg192
I0
sg193
VP0DT0H0M0.8000S
p2164
sg48
(dp2165
g50
VALG ContrA HCS
p2166
sg52
Nssa(dp2167
g47
I424645655
sg48
(dp2168
g50
VALG ContrA HCS
p2169
sg52
Nssg53
(lp2170
I1327094800
asg41
VWeaponPickup
p2171
sg44
VPT2M57.375446S
p2172
sa(dp2173
g47
I313138863
sg48
(dp2174
g50
VE6 bubu dubu
p2175
sg52
Nssg53
(lp2176
I1095363701
asg41
VWeaponPickup
p2177
sg44
VPT2M57.8764175S
p2178
sa(dp2179
g47
I4096745987
sg48
(dp2180
g50
VE6 bubu dubu
p2181
sg52
Nssg53
(lp2182
I2758383128
asg41
VWeaponPickup
p2183
sg44
VPT2M57.877435S
p2184
sa(dp2185
g41
VPlayerSpawn
p2186
sg48
(dp2187
g50
VE6 bubu dubu
p2188
sg52
Nssg44
VPT2M57.877435S
p2189
sa(dp2190
g217
I2902827823
sg218
I00
sg219
I00
sg220
(dp2191
g50
VE6 Cratos HCS
p2192
sg52
Nssg223
(lp2193
I2758383128
asg225
I00
sg226
I01
sg227
I1
sg228
I0
sg229
I1
sg230
(dp2194
Vy
F4.7364189999999997
sVx
F4.9415297499999999
sVz
F3.7001569999999999
ssg232
(dp2195
Vy
F4.4206089999999998
sVx
F3.2318282100000002
sVz
F4.2967259999999996
ssg234
I00
sg235
(dp2196
g50
VALGPredevonator
p2197
sg52
Nssg238
(lp2198
sg240
(lp2199
(dp2200
g50
VE6 Shooter
p2201
sg52
Nsasg244
I00
sg44
VPT3M0.6424704S
p2202
sg41
VDeath
p2203
sg247
I1
sa(dp2204
g41
VImpulse
p2205
sg48
(dp2206
g50
VE6 Cratos HCS
p2207
sg52
Nssg290
I2556889090
sg44
VPT3M0.643472S
p2208
sa(dp2209
g41
VMedal
p2210
sg48
(dp2211
g50
VE6 Cratos HCS
p2212
sg52
Nssg252
I2838259753
sg44
VPT3M0.643472S
p2213
sa(dp2214
g41
VMedal
p2215
sg48
(dp2216
g50
VE6 Cratos HCS
p2217
sg52
Nssg252
I1351381581
sg44
VPT3M0.643472S
p2218
sa(dp2219
g41
VMedal
p2220
sg48
(dp2221
g50
VE6 Cratos HCS
p2222
sg52
Nssg252
I2430242797
sg44
VPT3M0.6445021S
p2223
sa(dp2224
g47
I313138863
sg41
VWeaponDrop
p2225
sg189
I0
sg53
(lp2226
I1095363701
asg44
VPT3M0.6445021S
p2227
sg192
I0
sg193
VP0DT0H0M0.8167S
p2228
sg48
(dp2229
g50
VALGPredevonator
p2230
sg52
Nssa(dp2231
g47
I4096745987
sg41
VWeaponDrop
p2232
sg189
I6
sg53
(lp2233
I2758383128
asg44
VPT3M0.6445021S
p2234
sg192
I3
sg193
VP0DT0H0M10.2500S
p2235
sg48
(dp2236
g50
VALGPredevonator
p2237
sg52
Nssa(dp2238
g47
I313138863
sg41
VWeaponDrop
p2239
sg189
I0
sg53
(lp2240
I1095363701
asg44
VPT3M0.8254835S
p2241
sg192
I0
sg193
VP0DT0H0M1.2833S
p2242
sg48
(dp2243
g50
VE6 bubu dubu
p2244
sg52
Nssa(dp2245
g47
I723388907
sg48
(dp2246
g50
VE6 bubu dubu
p2247
sg52
Nssg53
(lp2248
I89283061
asg41
VWeaponPickup
p2249
sg44
VPT3M0.8254835S
p2250
sa(dp2251
g41
VMedal
p2252
sg48
(dp2253
g50
VE6 Cratos HCS
p2254
sg52
Nssg252
I2916014239
sg44
VPT3M0.9754778S
p2255
sa(dp2256
g47
I313138863
sg48
(dp2257
g50
VALG RyaNoob
p2258
sg52
Nssg53
(lp2259
I1095363701
asg41
VWeaponPickup
p2260
sg44
VPT3M3.2435414S
p2261
sa(dp2262
g47
I4096745987
sg48
(dp2263
g50
VALG RyaNoob
p2264
sg52
Nssg53
(lp2265
I2758383128
asg41
VWeaponPickup
p2266
sg44
VPT3M3.2435414S
p2267
sa(dp2268
g41
VPlayerSpawn
p2269
sg48
(dp2270
g50
VALG RyaNoob
p2271
sg52
Nssg44
VPT3M3.2435414S
p2272
sa(dp2273
g47
I313138863
sg48
(dp2274
g50
VE6 Huke HCS
p2275
sg52
Nssg53
(lp2276
I1095363701
asg41
VWeaponPickup
p2277
sg44
VPT3M3.3265393S
p2278
sa(dp2279
g47
I4096745987
sg48
(dp2280
g50
VE6 Huke HCS
p2281
sg52
Nssg53
(lp2282
I2758383128
asg41
VWeaponPickup
p2283
sg44
VPT3M3.3265393S
p2284
sa(dp2285
g41
VPlayerSpawn
p2286
sg48
(dp2287
g50
VE6 Huke HCS
p2288
sg52
Nssg44
VPT3M3.3265393S
p2289
sa(dp2290
g217
I4106030681
sg218
I00
sg219
I00
sg220
(dp2291
g50
VALG ContrA HCS
p2292
sg52
Nssg223
(lp2293
sg225
I00
sg226
I01
sg227
I1
sg228
I0
sg229
I1
sg230
(dp2294
Vy
F1.8345774399999999
sVx
F-7.5882077199999998
sVz
F1.8001889
ssg232
(dp2295
Vy
F-7.4039154099999998
sVx
F-1.2581024199999999
sVz
F0.0045315623299999998
ssg234
I00
sg235
(dp2296
g50
VE6 Shooter
p2297
sg52
Nssg238
(lp2298
sg240
(lp2299
(dp2300
g50
VALGPredevonator
p2301
sg52
Nsasg244
I00
sg44
VPT3M3.5425258S
p2302
sg41
VDeath
p2303
sg247
I1
sa(dp2304
g47
I2015271382
sg41
VWeaponDrop
p2305
sg189
I3
sg53
(lp2306
I2758383128
asg44
VPT3M3.5445459S
p2307
sg192
I0
sg193
VP0DT0H0M3.8500S
p2308
sg48
(dp2309
g50
VE6 Shooter
p2310
sg52
Nssa(dp2311
g47
I4096745987
sg41
VWeaponDrop
p2312
sg189
I29
sg53
(lp2313
I2758383128
asg44
VPT3M3.5445459S
p2314
sg192
I14
sg193
VP0DT0H0M46.1167S
p2315
sg48
(dp2316
g50
VE6 Shooter
p2317
sg52
Nssa(dp2318
g217
I2902827823
sg218
I00
sg219
I00
sg220
(dp2319
g50
VE6 Cratos HCS
p2320
sg52
Nssg223
(lp2321
I2758383128
asg225
I00
sg226
I01
sg227
I1
sg228
I0
sg229
I1
sg230
(dp2322
Vy
F-0.075343129999999994
sVx
F-0.453220874
sVz
F2.4000015299999999
ssg232
(dp2323
Vy
F1.1484816099999999
sVx
F-7.5555114699999999
sVz
F2.5570063599999999
ssg234
I00
sg235
(dp2324
g50
VALG ContrA HCS
p2325
sg52
Nssg238
(lp2326
sg240
(lp2327
sg244
I00
sg44
VPT3M3.9425328S
p2328
sg41
VDeath
p2329
sg247
I1
sa(dp2330
g41
VMedal
p2331
sg48
(dp2332
g50
VE6 Cratos HCS
p2333
sg52
Nssg252
I2078758684
sg44
VPT3M3.9435525S
p2334
sa(dp2335
g47
I313138863
sg41
VWeaponDrop
p2336
sg189
I0
sg53
(lp2337
I1095363701
asg44
VPT3M3.9435525S
p2338
sg192
I0
sg193
VP0DT0H0M0.8167S
p2339
sg48
(dp2340
g50
VALG ContrA HCS
p2341
sg52
Nssa(dp2342
g47
I424645655
sg41
VWeaponDrop
p2343
sg189
I14
sg53
(lp2344
I1327094800
asg44
VPT3M3.9435525S
p2345
sg192
I8
sg193
VP0DT0H0M6.0667S
p2346
sg48
(dp2347
g50
VALG ContrA HCS
p2348
sg52
Nssa(dp2349
g217
I4096745987
sg218
I00
sg219
I00
sg220
(dp2350
g50
VALG Heinz HCS
p2351
sg52
Nssg223
(lp2352
I2758383128
asg225
I00
sg226
I01
sg227
I1
sg228
I0
sg229
I1
sg230
(dp2353
Vy
F14.678804400000001
sVx
F13.5193043
sVz
F2.70914674
ssg232
(dp2354
Vy
F14.4526024
sVx
F17.944780000000002
sVz
F2.4811005599999998
ssg234
I00
sg235
(dp2355
g50
VE6 bubu dubu
p2356
sg52
Nssg238
(lp2357
sg240
(lp2358
(dp2359
g50
VALG RyaNoob
p2360
sg52
Nsasg244
I01
sg44
VPT3M8.2096172S
p2361
sg41
VDeath
p2362
sg247
I1
sa(dp2363
g41
VMedal
p2364
sg48
(dp2365
g50
VALG Heinz HCS
p2366
sg52
Nssg252
I3261908037
sg44
VPT3M8.2116172S
p2367
sa(dp2368
g47
I723388907
sg41
VWeaponDrop
p2369
sg189
I29
sg53
(lp2370
I89283061
asg44
VPT3M8.2126387S
p2371
sg192
I14
sg193
VP0DT0H0M4.7500S
p2372
sg48
(dp2373
g50
VE6 bubu dubu
p2374
sg52
Nssa(dp2375
g47
I4096745987
sg41
VWeaponDrop
p2376
sg189
I0
sg53
(lp2377
I2758383128
asg44
VPT3M8.2126387S
p2378
sg192
I0
sg193
VP0DT0H0M4.3000S
p2379
sg48
(dp2380
g50
VE6 bubu dubu
p2381
sg52
Nssa(dp2382
g47
I313138863
sg48
(dp2383
g50
VALGPredevonator
p2384
sg52
Nssg53
(lp2385
I1095363701
asg41
VWeaponPickup
p2386
sg44
VPT3M8.6596246S
p2387
sa(dp2388
g47
I4096745987
sg48
(dp2389
g50
VALGPredevonator
p2390
sg52
Nssg53
(lp2391
I2758383128
asg41
VWeaponPickup
p2392
sg44
VPT3M8.6606266S
p2393
sa(dp2394
g41
VPlayerSpawn
p2395
sg48
(dp2396
g50
VALGPredevonator
p2397
sg52
Nssg44
VPT3M8.6606266S
p2398
sa(dp2399
g47
I313138863
sg48
(dp2400
g50
VE6 Shooter
p2401
sg52
Nssg53
(lp2402
I1095363701
asg41
VWeaponPickup
p2403
sg44
VPT3M11.5607163S
p2404
sa(dp2405
g47
I4096745987
sg48
(dp2406
g50
VE6 Shooter
p2407
sg52
Nssg53
(lp2408
I2758383128
asg41
VWeaponPickup
p2409
sg44
VPT3M11.5607163S
p2410
sa(dp2411
g41
VPlayerSpawn
p2412
sg48
(dp2413
g50
VE6 Shooter
p2414
sg52
Nssg44
VPT3M11.5607163S
p2415
sa(dp2416
g47
I313138863
sg48
(dp2417
g50
VALG ContrA HCS
p2418
sg52
Nssg53
(lp2419
I1095363701
asg41
VWeaponPickup
p2420
sg44
VPT3M11.9597079S
p2421
sa(dp2422
g47
I4096745987
sg48
(dp2423
g50
VALG ContrA HCS
p2424
sg52
Nssg53
(lp2425
I2758383128
asg41
VWeaponPickup
p2426
sg44
VPT3M11.9597079S
p2427
sa(dp2428
g41
VPlayerSpawn
p2429
sg48
(dp2430
g50
VALG ContrA HCS
p2431
sg52
Nssg44
VPT3M11.9597079S
p2432
sa(dp2433
g41
VMedal
p2434
sg48
(dp2435
g50
VALG Heinz HCS
p2436
sg52
Nssg252
I3400287617
sg44
VPT3M12.09269S
p2437
sa(dp2438
g217
I4096745987
sg218
I00
sg219
I00
sg220
(dp2439
g50
VE6 Huke HCS
p2440
sg52
Nssg223
(lp2441
I2758383128
asg225
I00
sg226
I01
sg227
I1
sg228
I0
sg229
I1
sg230
(dp2442
Vy
F5.7565840000000001
sVx
F23.517150000000001
sVz
F1.718817
ssg232
(dp2443
Vy
F8.4871960000000009
sVx
F17.115670000000001
sVz
F2.0222787900000001
ssg234
I00
sg235
(dp2444
g50
VALG RyaNoob
p2445
sg52
Nssg238
(lp2446
sg240
(lp2447
sg244
I01
sg44
VPT3M12.426697S
p2448
sg41
VDeath
p2449
sg247
I1
sa(dp2450
g41
VMedal
p2451
sg48
(dp2452
g50
VE6 Huke HCS
p2453
sg52
Nssg252
I1351381581
sg44
VPT3M12.4277155S
p2454
sa(dp2455
g41
VMedal
p2456
sg48
(dp2457
g50
VE6 Huke HCS
p2458
sg52
Nssg252
I3261908037
sg44
VPT3M12.4287203S
p2459
sa(dp2460
g47
I313138863
sg41
VWeaponDrop
p2461
sg189
I0
sg53
(lp2462
I1095363701
asg44
VPT3M12.4297212S
p2463
sg192
I0
sg193
VP0DT0H0M0.7667S
p2464
sg48
(dp2465
g50
VALG RyaNoob
p2466
sg52
Nssa(dp2467
g47
I4096745987
sg41
VWeaponDrop
p2468
sg189
I10
sg53
(lp2469
I2758383128
asg44
VPT3M12.4297212S
p2470
sg192
I5
sg193
VP0DT0H0M8.4167S
p2471
sg48
(dp2472
g50
VALG RyaNoob
p2473
sg52
Nssa(dp2474
g47
I313138863
sg41
VWeaponDrop
p2475
sg189
I0
sg53
(lp2476
I1095363701
asg44
VPT3M12.8417539S
p2477
sg192
I0
sg193
VP0DT0H0M1.2833S
p2478
sg48
(dp2479
g50
VE6 Shooter
p2480
sg52
Nssa(dp2481
g47
I2015271382
sg48
(dp2482
g50
VE6 Shooter
p2483
sg52
Nssg53
(lp2484
I2758383128
asg41
VWeaponPickup
p2485
sg44
VPT3M12.8417539S
p2486
sa(dp2487
g217
I4096745987
sg218
I00
sg219
I00
sg220
(dp2488
g50
VALG Heinz HCS
p2489
sg52
Nssg223
(lp2490
I2758383128
asg225
I00
sg226
I01
sg227
I1
sg228
I0
sg229
I1
sg230
(dp2491
Vy
F15.857975
sVx
F14.5330124
sVz
F3.71403265
ssg232
(dp2492
Vy
F5.5008350000000004
sVx
F23.55395
sVz
F1.8051054499999999
ssg234
I00
sg235
(dp2493
g50
VE6 Huke HCS
p2494
sg52
Nssg238
(lp2495
sg240
(lp2496
(dp2497
g50
VALG RyaNoob
p2498
sg52
Nsasg244
I01
sg44
VPT3M13.192711S
p2499
sg41
VDeath
p2500
sg247
I1
sa(dp2501
g41
VMedal
p2502
sg48
(dp2503
g50
VALG Heinz HCS
p2504
sg52
Nssg252
I3261908037
sg44
VPT3M13.1937364S
p2505
sa(dp2506
g41
VMedal
p2507
sg48
(dp2508
g50
VALG Heinz HCS
p2509
sg52
Nssg252
I2078758684
sg44
VPT3M13.194739S
p2510
sa(dp2511
g47
I313138863
sg41
VWeaponDrop
p2512
sg189
I0
sg53
(lp2513
I1095363701
asg44
VPT3M13.194739S
p2514
sg192
I0
sg193
VP0DT0H0M0.6500S
p2515
sg48
(dp2516
g50
VE6 Huke HCS
p2517
sg52
Nssa(dp2518
g47
I4096745987
sg41
VWeaponDrop
p2519
sg189
I9
sg53
(lp2520
I2758383128
asg44
VPT3M13.194739S
p2521
sg192
I6
sg193
VP0DT0H0M9.2167S
p2522
sg48
(dp2523
g50
VE6 Huke HCS
p2524
sg52
Nssa(dp2525
g217
I2902827823
sg218
I00
sg219
I00
sg220
(dp2526
g50
VE6 Cratos HCS
p2527
sg52
Nssg223
(lp2528
I2758383128
asg225
I00
sg226
I01
sg227
I1
sg228
I0
sg229
I1
sg230
(dp2529
Vy
F12.5187569
sVx
F-1.19886446
sVz
F3.4060664200000002
ssg232
(dp2530
Vy
F14.682457899999999
sVx
F-2.18630624
sVz
F1.9169769299999999
ssg234
I00
sg235
(dp2531
g50
VALGPredevonator
p2532
sg52
Nssg238
(lp2533
sg240
(lp2534
sg244
I00
sg44
VPT3M16.1427699S
p2535
sg41
VDeath
p2536
sg247
I1
sa(dp2537
g47
I313138863
sg41
VWeaponDrop
p2538
sg189
I0
sg53
(lp2539
I1095363701
asg44
VPT3M16.1437851S
p2540
sg192
I0
sg193
VP0DT0H0M0.5667S
p2541
sg48
(dp2542
g50
VALGPredevonator
p2543
sg52
Nssa(dp2544
g47
I4096745987
sg41
VWeaponDrop
p2545
sg189
I1
sg53
(lp2546
I2758383128
asg44
VPT3M16.1437851S
p2547
sg192
I0
sg193
VP0DT0H0M6.9167S
p2548
sg48
(dp2549
g50
VALGPredevonator
p2550
sg52
Nssa(dp2551
g47
I313138863
sg48
(dp2552
g50
VE6 bubu dubu
p2553
sg52
Nssg53
(lp2554
I1095363701
asg41
VWeaponPickup
p2555
sg44
VPT3M16.2257692S
p2556
sa(dp2557
g47
I4096745987
sg48
(dp2558
g50
VE6 bubu dubu
p2559
sg52
Nssg53
(lp2560
I2758383128
asg41
VWeaponPickup
p2561
sg44
VPT3M16.2267912S
p2562
sa(dp2563
g41
VPlayerSpawn
p2564
sg48
(dp2565
g50
VE6 bubu dubu
p2566
sg52
Nssg44
VPT3M16.2267912S
p2567
sa(dp2568
g47
I313138863
sg41
VWeaponDrop
p2569
sg189
I0
sg53
(lp2570
I1095363701
asg44
VPT3M19.0748256S
p2571
sg192
I0
sg193
VP0DT0H0M0.8833S
p2572
sg48
(dp2573
g50
VALG Heinz HCS
p2574
sg52
Nssa(dp2575
g47
I723388907
sg48
(dp2576
g50
VALG Heinz HCS
p2577
sg52
Nssg53
(lp2578
I89283061
asg41
VWeaponPickup
p2579
sg44
VPT3M19.0748256S
p2580
sa(dp2581
g47
I2902827823
sg41
VWeaponDrop
p2582
sg189
I4
sg53
(lp2583
I2758383128
asg44
VPT3M20.2248804S
p2584
sg192
I4
sg193
VP0DT0H0M34.9333S
p2585
sg48
(dp2586
g50
VE6 Cratos HCS
p2587
sg52
Nssa(dp2588
g47
I424645655
sg48
(dp2589
g50
VE6 Cratos HCS
p2590
sg52
Nssg53
(lp2591
I1327094800
asg41
VWeaponPickup
p2592
sg44
VPT3M20.2248804S
p2593
sa(dp2594
g47
I313138863
sg48
(dp2595
g50
VALG RyaNoob
p2596
sg52
Nssg53
(lp2597
I1095363701
asg41
VWeaponPickup
p2598
sg44
VPT3M20.4428506S
p2599
sa(dp2600
g47
I4096745987
sg48
(dp2601
g50
VALG RyaNoob
p2602
sg52
Nssg53
(lp2603
I2758383128
asg41
VWeaponPickup
p2604
sg44
VPT3M20.4428506S
p2605
sa(dp2606
g41
VPlayerSpawn
p2607
sg48
(dp2608
g50
VALG RyaNoob
p2609
sg52
Nssg44
VPT3M20.4428506S
p2610
sa(dp2611
g41
VMedal
p2612
sg48
(dp2613
g50
VALG Heinz HCS
p2614
sg52
Nssg252
I3565443938
sg44
VPT3M21.1748839S
p2615
sa(dp2616
g41
VMedal
p2617
sg48
(dp2618
g50
VALG RyaNoob
p2619
sg52
Nssg252
I1637841390
sg44
VPT3M21.1748839S
p2620
sa(dp2621
g47
I313138863
sg48
(dp2622
g50
VE6 Huke HCS
p2623
sg52
Nssg53
(lp2624
I1095363701
asg41
VWeaponPickup
p2625
sg44
VPT3M21.2098978S
p2626
sa(dp2627
g47
I4096745987
sg48
(dp2628
g50
VE6 Huke HCS
p2629
sg52
Nssg53
(lp2630
I2758383128
asg41
VWeaponPickup
p2631
sg44
VPT3M21.2098978S
p2632
sa(dp2633
g41
VPlayerSpawn
p2634
sg48
(dp2635
g50
VE6 Huke HCS
p2636
sg52
Nssg44
VPT3M21.2098978S
p2637
sa(dp2638
g47
I313138863
sg48
(dp2639
g50
VALGPredevonator
p2640
sg52
Nssg53
(lp2641
I1095363701
asg41
VWeaponPickup
p2642
sg44
VPT3M24.1589214S
p2643
sa(dp2644
g47
I4096745987
sg48
(dp2645
g50
VALGPredevonator
p2646
sg52
Nssg53
(lp2647
I2758383128
asg41
VWeaponPickup
p2648
sg44
VPT3M24.1599507S
p2649
sa(dp2650
g41
VPlayerSpawn
p2651
sg48
(dp2652
g50
VALGPredevonator
p2653
sg52
Nssg44
VPT3M24.1599507S
p2654
sa(dp2655
g47
I4096745987
sg41
VWeaponDrop
p2656
sg189
I0
sg53
(lp2657
I2758383128
asg44
VPT3M27.0079969S
p2658
sg192
I0
sg193
VP0DT0H0M5.8500S
p2659
sg48
(dp2660
g50
VALG RyaNoob
p2661
sg52
Nssa(dp2662
g47
I2511447508
sg48
(dp2663
g50
VALG RyaNoob
p2664
sg52
Nssg53
(lp2665
I2758383128
asg41
VWeaponPickup
p2666
sg44
VPT3M27.0079969S
p2667
sa(dp2668
g217
I4096745987
sg218
I00
sg219
I00
sg220
(dp2669
g50
VE6 Huke HCS
p2670
sg52
Nssg223
(lp2671
I2758383128
asg225
I00
sg226
I01
sg227
I1
sg228
I0
sg229
I1
sg230
(dp2672
Vy
F-0.14531053599999999
sVx
F2.05812836
sVz
F3.3544010000000002
ssg232
(dp2673
Vy
F-18.899345400000001
sVx
F1.4293421500000001
sVz
F1.7998959999999999
ssg234
I00
sg235
(dp2674
g50
VALG RyaNoob
p2675
sg52
Nssg238
(lp2676
sg240
(lp2677
sg244
I01
sg44
VPT3M34.9591295S
p2678
sg41
VDeath
p2679
sg247
I1
sa(dp2680
g41
VImpulse
p2681
sg48
(dp2682
g50
VE6 Huke HCS
p2683
sg52
Nssg290
I3174430457
sg44
VPT3M34.960154S
p2684
sa(dp2685
g41
VMedal
p2686
sg48
(dp2687
g50
VE6 Huke HCS
p2688
sg52
Nssg252
I3653057799
sg44
VPT3M34.9611507S
p2689
sa(dp2690
g47
I313138863
sg41
VWeaponDrop
p2691
sg189
I0
sg53
(lp2692
I1095363701
asg44
VPT3M34.9621523S
p2693
sg192
I0
sg193
VP0DT0H0M0.7167S
p2694
sg48
(dp2695
g50
VALG RyaNoob
p2696
sg52
Nssa(dp2697
g47
I2511447508
sg41
VWeaponDrop
p2698
sg189
I0
sg53
(lp2699
I2758383128
asg44
VPT3M34.9621523S
p2700
sg192
I0
sg193
VP0DT0H0M7.9500S
p2701
sg48
(dp2702
g50
VALG RyaNoob
p2703
sg52
Nssa(dp2704
g47
I313138863
sg41
VWeaponDrop
p2705
sg189
I0
sg53
(lp2706
I1095363701
asg44
VPT3M35.0421508S
p2707
sg192
I0
sg193
VP0DT0H0M1.3333S
p2708
sg48
(dp2709
g50
VE6 bubu dubu
p2710
sg52
Nssa(dp2711
g47
I723388907
sg48
(dp2712
g50
VE6 bubu dubu
p2713
sg52
Nssg53
(lp2714
I89283061
asg41
VWeaponPickup
p2715
sg44
VPT3M35.0431312S
p2716
sa(dp2717
g47
I4096745987
sg41
VWeaponDrop
p2718
sg189
I12
sg53
(lp2719
I2758383128
asg44
VPT3M37.824221S
p2720
sg192
I5
sg193
VP0DT0H0M25.0000S
p2721
sg48
(dp2722
g50
VE6 Cratos HCS
p2723
sg52
Nssa(dp2724
g47
I723388907
sg48
(dp2725
g50
VE6 Cratos HCS
p2726
sg52
Nssg53
(lp2727
I89283061
asg41
VWeaponPickup
p2728
sg44
VPT3M37.824221S
p2729
sa(dp2730
g217
I4096745987
sg218
I00
sg219
I00
sg220
(dp2731
g50
VALG Heinz HCS
p2732
sg52
Nssg223
(lp2733
I2758383128
asg225
I00
sg226
I01
sg227
I1
sg228
I0
sg229
I1
sg230
(dp2734
Vy
F4.6455893499999998
sVx
F22.4315128
sVz
F2.2139134399999998
ssg232
(dp2735
Vy
F12.9468307
sVx
F18.0023479
sVz
F1.7273559999999999
ssg234
I00
sg235
(dp2736
g50
VE6 Cratos HCS
p2737
sg52
Nssg238
(lp2738
sg240
(lp2739
(dp2740
g50
VALG ContrA HCS
p2741
sg52
Nsa(dp2742
g50
VALGPredevonator
p2743
sg52
Nsasg244
I01
sg44
VPT3M41.5592566S
p2744
sg41
VDeath
p2745
sg247
I1
sa(dp2746
g41
VMedal
p2747
sg48
(dp2748
g50
VALG Heinz HCS
p2749
sg52
Nssg252
I1351381581
sg44
VPT3M41.5602758S
p2750
sa(dp2751
g41
VMedal
p2752
sg48
(dp2753
g50
VALG Heinz HCS
p2754
sg52
Nssg252
I3261908037
sg44
VPT3M41.5602758S
p2755
sa(dp2756
g47
I424645655
sg41
VWeaponDrop
p2757
sg189
I18
sg53
(lp2758
I1327094800
asg44
VPT3M41.5612749S
p2759
sg192
I14
sg193
VP0DT0H0M20.4000S
p2760
sg48
(dp2761
g50
VE6 Cratos HCS
p2762
sg52
Nssa(dp2763
g47
I723388907
sg41
VWeaponDrop
p2764
sg189
I0
sg53
(lp2765
I89283061
asg44
VPT3M41.5612749S
p2766
sg192
I0
sg193
VP0DT0H0M0.5000S
p2767
sg48
(dp2768
g50
VE6 Cratos HCS
p2769
sg52
Nssa(dp2770
g41
VMedal
p2771
sg48
(dp2772
g50
VALGPredevonator
p2773
sg52
Nssg252
I2916014239
sg44
VPT3M41.6082569S
p2774
sa(dp2775
g217
I4096745987
sg218
I00
sg219
I00
sg220
(dp2776
g50
VE6 Huke HCS
p2777
sg52
Nssg223
(lp2778
I2758383128
asg225
I00
sg226
I01
sg227
I1
sg228
I0
sg229
I1
sg230
(dp2779
Vy
F8.30654
sVx
F14.180005100000001
sVz
F2.1709839999999998
ssg232
(dp2780
Vy
F8.3756330000000005
sVx
F16.623640000000002
sVz
F1.6058958800000001
ssg234
I00
sg235
(dp2781
g50
VALGPredevonator
p2782
sg52
Nssg238
(lp2783
sg240
(lp2784
sg244
I01
sg44
VPT3M41.8082639S
p2785
sg41
VDeath
p2786
sg247
I1
sa(dp2787
g41
VImpulse
p2788
sg48
(dp2789
g50
VE6 Huke HCS
p2790
sg52
Nssg290
I3174430457
sg44
VPT3M41.810288S
p2791
sa(dp2792
g41
VMedal
p2793
sg48
(dp2794
g50
VE6 Huke HCS
p2795
sg52
Nssg252
I3653057799
sg44
VPT3M41.810288S
p2796
sa(dp2797
g47
I313138863
sg41
VWeaponDrop
p2798
sg189
I5
sg53
(lp2799
I1095363701
asg44
VPT3M41.8112855S
p2800
sg192
I3
sg193
VP0DT0H0M2.3167S
p2801
sg48
(dp2802
g50
VALGPredevonator
p2803
sg52
Nssa(dp2804
g47
I4096745987
sg41
VWeaponDrop
p2805
sg189
I1
sg53
(lp2806
I2758383128
asg44
VPT3M41.8112855S
p2807
sg192
I0
sg193
VP0DT0H0M15.3333S
p2808
sg48
(dp2809
g50
VALGPredevonator
p2810
sg52
Nssa(dp2811
g217
I4096745987
sg218
I00
sg219
I00
sg220
(dp2812
g50
VE6 Huke HCS
p2813
sg52
Nssg223
(lp2814
I2758383128
asg225
I00
sg226
I01
sg227
I1
sg228
I0
sg229
I1
sg230
(dp2815
Vy
F8.5785610000000005
sVx
F15.9696493
sVz
F1.6058958800000001
ssg232
(dp2816
Vy
F7.1772289999999996
sVx
F24.484960000000001
sVz
F1.6068604
ssg234
I00
sg235
(dp2817
g50
VALG Heinz HCS
p2818
sg52
Nssg238
(lp2819
sg240
(lp2820
(dp2821
g50
VE6 Cratos HCS
p2822
sg52
Nsasg244
I01
sg44
VPT3M42.8752813S
p2823
sg41
VDeath
p2824
sg247
I1
sa(dp2825
g41
VMedal
p2826
sg48
(dp2827
g50
VE6 Huke HCS
p2828
sg52
Nssg252
I3261908037
sg44
VPT3M42.8773051S
p2829
sa(dp2830
g41
VMedal
p2831
sg48
(dp2832
g50
VE6 Huke HCS
p2833
sg52
Nssg252
I2078758684
sg44
VPT3M42.8773051S
p2834
sa(dp2835
g47
I4096745987
sg41
VWeaponDrop
p2836
sg189
I21
sg53
(lp2837
I2758383128
asg44
VPT3M42.8783054S
p2838
sg192
I15
sg193
VP0DT0H0M45.4000S
p2839
sg48
(dp2840
g50
VALG Heinz HCS
p2841
sg52
Nssa(dp2842
g47
I723388907
sg41
VWeaponDrop
p2843
sg189
I0
sg53
(lp2844
I89283061
asg44
VPT3M42.8783054S
p2845
sg192
I0
sg193
VP0DT0H0M0.3667S
p2846
sg48
(dp2847
g50
VALG Heinz HCS
p2848
sg52
Nssa(dp2849
g47
I313138863
sg48
(dp2850
g50
VALG RyaNoob
p2851
sg52
Nssg53
(lp2852
I1095363701
asg41
VWeaponPickup
p2853
sg44
VPT3M42.9752831S
p2854
sa(dp2855
g47
I4096745987
sg48
(dp2856
g50
VALG RyaNoob
p2857
sg52
Nssg53
(lp2858
I2758383128
asg41
VWeaponPickup
p2859
sg44
VPT3M42.9763098S
p2860
sa(dp2861
g41
VPlayerSpawn
p2862
sg48
(dp2863
g50
VALG RyaNoob
p2864
sg52
Nssg44
VPT3M42.9763098S
p2865
sa(dp2866
g217
I4096745987
sg218
I00
sg219
I00
sg220
(dp2867
g50
VALG ContrA HCS
p2868
sg52
Nssg223
(lp2869
I2758383128
asg225
I00
sg226
I01
sg227
I1
sg228
I0
sg229
I1
sg230
(dp2870
Vy
F7.1675143200000004
sVx
F14.9385548
sVz
F3.05976129
ssg232
(dp2871
Vy
F12.084568000000001
sVx
F19.523219999999998
sVz
F1.605864
ssg234
I00
sg235
(dp2872
g50
VE6 Huke HCS
p2873
sg52
Nssg238
(lp2874
sg240
(lp2875
(dp2876
g50
VALG RyaNoob
p2877
sg52
Nsasg244
I01
sg44
VPT3M47.8253752S
p2878
sg41
VDeath
p2879
sg247
I1
sa(dp2880
g41
VMedal
p2881
sg48
(dp2882
g50
VALG ContrA HCS
p2883
sg52
Nssg252
I1351381581
sg44
VPT3M47.826407S
p2884
sa(dp2885
g41
VMedal
p2886
sg48
(dp2887
g50
VALG ContrA HCS
p2888
sg52
Nssg252
I3261908037
sg44
VPT3M47.826407S
p2889
sa(dp2890
g47
I313138863
sg41
VWeaponDrop
p2891
sg189
I0
sg53
(lp2892
I1095363701
asg44
VPT3M47.8273998S
p2893
sg192
I0
sg193
VP0DT0H0M0.7833S
p2894
sg48
(dp2895
g50
VE6 Huke HCS
p2896
sg52
Nssa(dp2897
g47
I4096745987
sg41
VWeaponDrop
p2898
sg189
I19
sg53
(lp2899
I2758383128
asg44
VPT3M47.8273998S
p2900
sg192
I15
sg193
VP0DT0H0M25.8333S
p2901
sg48
(dp2902
g50
VE6 Huke HCS
p2903
sg52
Nssa(dp2904
g47
I313138863
sg48
(dp2905
g50
VE6 Cratos HCS
p2906
sg52
Nssg53
(lp2907
I1095363701
asg41
VWeaponPickup
p2908
sg44
VPT3M49.5754106S
p2909
sa(dp2910
g47
I4096745987
sg48
(dp2911
g50
VE6 Cratos HCS
p2912
sg52
Nssg53
(lp2913
I2758383128
asg41
VWeaponPickup
p2914
sg44
VPT3M49.5764117S
p2915
sa(dp2916
g41
VPlayerSpawn
p2917
sg48
(dp2918
g50
VE6 Cratos HCS
p2919
sg52
Nssg44
VPT3M49.5764117S
p2920
sa(dp2921
g47
I313138863
sg48
(dp2922
g50
VALGPredevonator
p2923
sg52
Nssg53
(lp2924
I1095363701
asg41
VWeaponPickup
p2925
sg44
VPT3M49.8264165S
p2926
sa(dp2927
g47
I4096745987
sg48
(dp2928
g50
VALGPredevonator
p2929
sg52
Nssg53
(lp2930
I2758383128
asg41
VWeaponPickup
p2931
sg44
VPT3M49.8274339S
p2932
sa(dp2933
g41
VPlayerSpawn
p2934
sg48
(dp2935
g50
VALGPredevonator
p2936
sg52
Nssg44
VPT3M49.8274339S
p2937
sa(dp2938
g41
VMedal
p2939
sg48
(dp2940
g50
VALG RyaNoob
p2941
sg52
Nssg252
I2916014239
sg44
VPT3M50.2074483S
p2942
sa(dp2943
g47
I313138863
sg48
(dp2944
g50
VALG Heinz HCS
p2945
sg52
Nssg53
(lp2946
I1095363701
asg41
VWeaponPickup
p2947
sg44
VPT3M50.8924537S
p2948
sa(dp2949
g47
I4096745987
sg48
(dp2950
g50
VALG Heinz HCS
p2951
sg52
Nssg53
(lp2952
I2758383128
asg41
VWeaponPickup
p2953
sg44
VPT3M50.8924537S
p2954
sa(dp2955
g41
VPlayerSpawn
p2956
sg48
(dp2957
g50
VALG Heinz HCS
p2958
sg52
Nssg44
VPT3M50.8924537S
p2959
sa(dp2960
g217
I4096745987
sg218
I00
sg219
I00
sg220
(dp2961
g50
VE6 bubu dubu
p2962
sg52
Nssg223
(lp2963
I2758383128
asg225
I00
sg226
I01
sg227
I1
sg228
I0
sg229
I1
sg230
(dp2964
Vy
F-0.65100360000000002
sVx
F25.375389999999999
sVz
F2.4164216500000002
ssg232
(dp2965
Vy
F11.449534399999999
sVx
F16.516590000000001
sVz
F2.4995189999999998
ssg234
I00
sg235
(dp2966
g50
VALG RyaNoob
p2967
sg52
Nssg238
(lp2968
sg240
(lp2969
(dp2970
g50
VE6 Shooter
p2971
sg52
Nsasg244
I01
sg44
VPT3M51.4424462S
p2972
sg41
VDeath
p2973
sg247
I1
sa(dp2974
g41
VMedal
p2975
sg48
(dp2976
g50
VE6 bubu dubu
p2977
sg52
Nssg252
I3261908037
sg44
VPT3M51.44447S
p2978
sa(dp2979
g47
I313138863
sg41
VWeaponDrop
p2980
sg189
I0
sg53
(lp2981
I1095363701
asg44
VPT3M51.44447S
p2982
sg192
I0
sg193
VP0DT0H0M0.9000S
p2983
sg48
(dp2984
g50
VALG RyaNoob
p2985
sg52
Nssa(dp2986
g47
I4096745987
sg41
VWeaponDrop
p2987
sg189
I10
sg53
(lp2988
I2758383128
asg44
VPT3M51.44447S
p2989
sg192
I5
sg193
VP0DT0H0M7.5667S
p2990
sg48
(dp2991
g50
VALG RyaNoob
p2992
sg52
Nssa(dp2993
g47
I313138863
sg41
VWeaponDrop
p2994
sg189
I0
sg53
(lp2995
I1095363701
asg44
VPT3M54.3575038S
p2996
sg192
I0
sg193
VP0DT0H0M1.5667S
p2997
sg48
(dp2998
g50
VE6 Cratos HCS
p2999
sg52
Nssa(dp3000
g47
I2015271382
sg48
(dp3001
g50
VE6 Cratos HCS
p3002
sg52
Nssg53
(lp3003
I2758383128
asg41
VWeaponPickup
p3004
sg44
VPT3M54.3575038S
p3005
sa(dp3006
g47
I4096745987
sg41
VWeaponDrop
p3007
sg189
I0
sg53
(lp3008
I2758383128
asg44
VPT3M55.5735267S
p3009
sg192
I0
sg193
VP0DT0H0M5.1500S
p3010
sg48
(dp3011
g50
VALGPredevonator
p3012
sg52
Nssa(dp3013
g47
I424645655
sg48
(dp3014
g50
VALGPredevonator
p3015
sg52
Nssg53
(lp3016
I1327094800
asg41
VWeaponPickup
p3017
sg44
VPT3M55.5745322S
p3018
sa(dp3019
g47
I313138863
sg48
(dp3020
g50
VE6 Huke HCS
p3021
sg52
Nssg53
(lp3022
I1095363701
asg41
VWeaponPickup
p3023
sg44
VPT3M55.8425478S
p3024
sa(dp3025
g47
I4096745987
sg48
(dp3026
g50
VE6 Huke HCS
p3027
sg52
Nssg53
(lp3028
I2758383128
asg41
VWeaponPickup
p3029
sg44
VPT3M55.8425478S
p3030
sa(dp3031
g41
VPlayerSpawn
p3032
sg48
(dp3033
g50
VE6 Huke HCS
p3034
sg52
Nssg44
VPT3M55.8425478S
p3035
sa(dp3036
g217
I424645655
sg218
I00
sg219
I01
sg220
(dp3037
g50
VALGPredevonator
p3038
sg52
Nssg223
(lp3039
I1327094800
asg225
I00
sg226
I00
sg227
I1
sg228
I0
sg229
I1
sg230
(dp3040
Vy
F-7.7653102900000004
sVx
F1.3152159999999999
sVz
F0.00176869333
ssg232
(dp3041
Vy
F-7.9455970000000002
sVx
F1.6022175599999999
sVz
F0.0045292377499999998
ssg234
I00
sg235
(dp3042
g50
VE6 Cratos HCS
p3043
sg52
Nssg238
(lp3044
sg240
(lp3045
(dp3046
g50
VALG Heinz HCS
p3047
sg52
Nsasg244
I00
sg44
VPT3M56.8915501S
p3048
sg41
VDeath
p3049
sg247
I1
sa(dp3050
g41
VMedal
p3051
sg48
(dp3052
g50
VALGPredevonator
p3053
sg52
Nssg252
I2287626681
sg44
VPT3M56.8925738S
p3054
sa(dp3055
g47
I4096745987
sg41
VWeaponDrop
p3056
sg189
I1
sg53
(lp3057
I2758383128
asg44
VPT3M56.8935771S
p3058
sg192
I1
sg193
VP0DT0H0M4.2833S
p3059
sg48
(dp3060
g50
VE6 Cratos HCS
p3061
sg52
Nssa(dp3062
g47
I2015271382
sg41
VWeaponDrop
p3063
sg189
I0
sg53
(lp3064
I2758383128
asg44
VPT3M56.8945692S
p3065
sg192
I0
sg193
VP0DT0H0M1.4667S
p3066
sg48
(dp3067
g50
VE6 Cratos HCS
p3068
sg52
Nssa(dp3069
g47
I313138863
sg48
(dp3070
g50
VALG RyaNoob
p3071
sg52
Nssg53
(lp3072
I1095363701
asg41
VWeaponPickup
p3073
sg44
VPT3M59.4585999S
p3074
sa(dp3075
g47
I4096745987
sg48
(dp3076
g50
VALG RyaNoob
p3077
sg52
Nssg53
(lp3078
I2758383128
asg41
VWeaponPickup
p3079
sg44
VPT3M59.4585999S
p3080
sa(dp3081
g41
VPlayerSpawn
p3082
sg48
(dp3083
g50
VALG RyaNoob
p3084
sg52
Nssg44
VPT3M59.4596511S
p3085
sa(dp3086
g217
I4096745987
sg218
I00
sg219
I01
sg220
(dp3087
g50
VE6 Shooter
p3088
sg52
Nssg223
(lp3089
I2758383128
asg225
I00
sg226
I00
sg227
I1
sg228
I0
sg229
I1
sg230
(dp3090
Vy
F8.4736150000000006
sVx
F16.532093
sVz
F1.82821894
ssg232
(dp3091
Vy
F8.5805439999999997
sVx
F16.7868481
sVz
F1.627407
ssg234
I00
sg235
(dp3092
g50
VALG ContrA HCS
p3093
sg52
Nssg238
(lp3094
sg240
(lp3095
(dp3096
g50
VE6 bubu dubu
p3097
sg52
Nsasg244
I00
sg44
VPT4M0.6416216S
p3098
sg41
VDeath
p3099
sg247
I1
sa(dp3100
g41
VMedal
p3101
sg48
(dp3102
g50
VE6 Shooter
p3103
sg52
Nssg252
I2287626681
sg44
VPT4M0.6426543S
p3104
sa(dp3105
g47
I4096745987
sg41
VWeaponDrop
p3106
sg189
I20
sg53
(lp3107
I2758383128
asg44
VPT4M0.6436424S
p3108
sg192
I10
sg193
VP0DT0H0M47.0333S
p3109
sg48
(dp3110
g50
VALG ContrA HCS
p3111
sg52
Nssa(dp3112
g47
I313138863
sg41
VWeaponDrop
p3113
sg189
I0
sg53
(lp3114
I1095363701
asg44
VPT4M0.6436424S
p3115
sg192
I0
sg193
VP0DT0H0M1.6500S
p3116
sg48
(dp3117
g50
VALG ContrA HCS
p3118
sg52
Nssa(dp3119
g41
VMedal
p3120
sg48
(dp3121
g50
VALG Heinz HCS
p3122
sg52
Nssg252
I3565443938
sg44
VPT4M4.107689S
p3123
sa(dp3124
g41
VMedal
p3125
sg48
(dp3126
g50
VALG RyaNoob
p3127
sg52
Nssg252
I3565443938
sg44
VPT4M4.107689S
p3128
sa(dp3129
g47
I313138863
sg48
(dp3130
g50
VE6 Cratos HCS
p3131
sg52
Nssg53
(lp3132
I1095363701
asg41
VWeaponPickup
p3133
sg44
VPT4M4.9087051S
p3134
sa(dp3135
g47
I4096745987
sg48
(dp3136
g50
VE6 Cratos HCS
p3137
sg52
Nssg53
(lp3138
I2758383128
asg41
VWeaponPickup
p3139
sg44
VPT4M4.9087051S
p3140
sa(dp3141
g41
VPlayerSpawn
p3142
sg48
(dp3143
g50
VE6 Cratos HCS
p3144
sg52
Nssg44
VPT4M4.9087051S
p3145
sa(dp3146
g41
VMedal
p3147
sg48
(dp3148
g50
VE6 Shooter
p3149
sg52
Nssg252
I3565443938
sg44
VPT4M7.3077505S
p3150
sa(dp3151
g41
VMedal
p3152
sg48
(dp3153
g50
VE6 bubu dubu
p3154
sg52
Nssg252
I3565443938
sg44
VPT4M7.3077505S
p3155
sa(dp3156
g47
I313138863
sg48
(dp3157
g50
VALG ContrA HCS
p3158
sg52
Nssg53
(lp3159
I1095363701
asg41
VWeaponPickup
p3160
sg44
VPT4M8.6587988S
p3161
sa(dp3162
g47
I4096745987
sg48
(dp3163
g50
VALG ContrA HCS
p3164
sg52
Nssg53
(lp3165
I2758383128
asg41
VWeaponPickup
p3166
sg44
VPT4M8.6587988S
p3167
sa(dp3168
g41
VPlayerSpawn
p3169
sg48
(dp3170
g50
VALG ContrA HCS
p3171
sg52
Nssg44
VPT4M8.6587988S
p3172
sa(dp3173
g41
VMedal
p3174
sg48
(dp3175
g50
VALG Heinz HCS
p3176
sg52
Nssg252
I3565443938
sg44
VPT4M11.607834S
p3177
sa(dp3178
g41
VMedal
p3179
sg48
(dp3180
g50
VALGPredevonator
p3181
sg52
Nssg252
I1637841390
sg44
VPT4M11.607834S
p3182
sa(dp3183
g217
I313138863
sg218
I00
sg219
I00
sg220
(dp3184
g50
VALG RyaNoob
p3185
sg52
Nssg223
(lp3186
I1095363701
asg225
I00
sg226
I01
sg227
I1
sg228
I0
sg229
I1
sg230
(dp3187
Vy
F-7.01819229
sVx
F22.224710000000002
sVz
F1.61848021
ssg232
(dp3188
Vy
F-6.1581683199999997
sVx
F22.166499999999999
sVz
F1.62106431
ssg234
I00
sg235
(dp3189
g50
VE6 bubu dubu
p3190
sg52
Nssg238
(lp3191
sg240
(lp3192
sg244
I00
sg44
VPT4M13.4418685S
p3193
sg41
VDeath
p3194
sg247
I1
sa(dp3195
g41
VMedal
p3196
sg48
(dp3197
g50
VALG ContrA HCS
p3198
sg52
Nssg252
I824733727
sg44
VPT4M13.4428873S
p3199
sa(dp3200
g47
I723388907
sg41
VWeaponDrop
p3201
sg189
I12
sg53
(lp3202
I89283061
asg44
VPT4M13.4438935S
p3203
sg192
I6
sg193
VP0DT0H0M10.4833S
p3204
sg48
(dp3205
g50
VE6 bubu dubu
p3206
sg52
Nssa(dp3207
g47
I4096745987
sg41
VWeaponDrop
p3208
sg189
I15
sg53
(lp3209
I2758383128
asg44
VPT4M13.4438935S
p3210
sg192
I8
sg193
VP0DT0H0M45.4000S
p3211
sg48
(dp3212
g50
VE6 bubu dubu
p3213
sg52
Nssa(dp3214
g217
I4096745987
sg218
I00
sg219
I00
sg220
(dp3215
g50
VE6 Cratos HCS
p3216
sg52
Nssg223
(lp3217
I2758383128
asg225
I00
sg226
I01
sg227
I1
sg228
I0
sg229
I1
sg230
(dp3218
Vy
F-0.62641113999999998
sVx
F5.42045259
sVz
F3.7001574000000002
ssg232
(dp3219
Vy
F-11.5462246
sVx
F6.1810174
sVz
F0.0045283734800000003
ssg234
I00
sg235
(dp3220
g50
VALG Heinz HCS
p3221
sg52
Nssg238
(lp3222
sg240
(lp3223
(dp3224
g50
VE6 Huke HCS
p3225
sg52
Nsasg244
I01
sg44
VPT4M14.2418832S
p3226
sg41
VDeath
p3227
sg247
I1
sa(dp3228
g41
VImpulse
p3229
sg48
(dp3230
g50
VE6 Cratos HCS
p3231
sg52
Nssg290
I2556889090
sg44
VPT4M14.2418832S
p3232
sa(dp3233
g41
VMedal
p3234
sg48
(dp3235
g50
VE6 Cratos HCS
p3236
sg52
Nssg252
I2838259753
sg44
VPT4M14.2418832S
p3237
sa(dp3238
g41
VMedal
p3239
sg48
(dp3240
g50
VE6 Cratos HCS
p3241
sg52
Nssg252
I3261908037
sg44
VPT4M14.2429053S
p3242
sa(dp3243
g47
I313138863
sg41
VWeaponDrop
p3244
sg189
I9
sg53
(lp3245
I1095363701
asg44
VPT4M14.2438851S
p3246
sg192
I6
sg193
VP0DT0H0M5.7833S
p3247
sg48
(dp3248
g50
VALG Heinz HCS
p3249
sg52
Nssa(dp3250
g47
I4096745987
sg41
VWeaponDrop
p3251
sg189
I5
sg53
(lp3252
I2758383128
asg44
VPT4M14.2438851S
p3253
sg192
I4
sg193
VP0DT0H0M17.5667S
p3254
sg48
(dp3255
g50
VALG Heinz HCS
p3256
sg52
Nssa(dp3257
g47
I313138863
sg41
VWeaponDrop
p3258
sg189
I19
sg53
(lp3259
I1095363701
asg44
VPT4M16.4739261S
p3260
sg192
I12
sg193
VP0DT0H0M14.6333S
p3261
sg48
(dp3262
g50
VE6 Huke HCS
p3263
sg52
Nssa(dp3264
g47
I723388907
sg48
(dp3265
g50
VE6 Huke HCS
p3266
sg52
Nssg53
(lp3267
I89283061
asg41
VWeaponPickup
p3268
sg44
VPT4M16.4739261S
p3269
sa(dp3270
g217
I424645655
sg218
I00
sg219
I00
sg220
(dp3271
g50
VALGPredevonator
p3272
sg52
Nssg223
(lp3273
I1327094800
asg225
I00
sg226
I01
sg227
I1
sg228
I0
sg229
I1
sg230
(dp3274
Vy
F-12.8587685
sVx
F5.5231685600000002
sVz
F2.5636842299999998
ssg232
(dp3275
Vy
F0.0437276438
sVx
F1.74860466
sVz
F3.1972999999999998
ssg234
I00
sg235
(dp3276
g50
VE6 Cratos HCS
p3277
sg52
Nssg238
(lp3278
sg240
(lp3279
sg244
I01
sg44
VPT4M19.7579919S
p3280
sg41
VDeath
p3281
sg247
I1
sa(dp3282
g41
VMedal
p3283
sg48
(dp3284
g50
VALGPredevonator
p3285
sg52
Nssg252
I3261908037
sg44
VPT4M19.7600204S
p3286
sa(dp3287
g47
I313138863
sg41
VWeaponDrop
p3288
sg189
I0
sg53
(lp3289
I1095363701
asg44
VPT4M19.7610217S
p3290
sg192
I0
sg193
VP0DT0H0M0.8667S
p3291
sg48
(dp3292
g50
VE6 Cratos HCS
p3293
sg52
Nssa(dp3294
g47
I4096745987
sg41
VWeaponDrop
p3295
sg189
I12
sg53
(lp3296
I2758383128
asg44
VPT4M19.7610217S
p3297
sg192
I1
sg193
VP0DT0H0M13.9833S
p3298
sg48
(dp3299
g50
VE6 Cratos HCS
p3300
sg52
Nssa(dp3301
g47
I313138863
sg48
(dp3302
g50
VE6 bubu dubu
p3303
sg52
Nssg53
(lp3304
I1095363701
asg41
VWeaponPickup
p3305
sg44
VPT4M21.4590436S
p3306
sa(dp3307
g47
I4096745987
sg48
(dp3308
g50
VE6 bubu dubu
p3309
sg52
Nssg53
(lp3310
I2758383128
asg41
VWeaponPickup
p3311
sg44
VPT4M21.4590436S
p3312
sa(dp3313
g41
VPlayerSpawn
p3314
sg48
(dp3315
g50
VE6 bubu dubu
p3316
sg52
Nssg44
VPT4M21.4590436S
p3317
sa(dp3318
g47
I313138863
sg48
(dp3319
g50
VALG Heinz HCS
p3320
sg52
Nssg53
(lp3321
I1095363701
asg41
VWeaponPickup
p3322
sg44
VPT4M22.2580374S
p3323
sa(dp3324
g47
I4096745987
sg48
(dp3325
g50
VALG Heinz HCS
p3326
sg52
Nssg53
(lp3327
I2758383128
asg41
VWeaponPickup
p3328
sg44
VPT4M22.2580374S
p3329
sa(dp3330
g41
VPlayerSpawn
p3331
sg48
(dp3332
g50
VALG Heinz HCS
p3333
sg52
Nssg44
VPT4M22.2580374S
p3334
sa(dp3335
g47
I313138863
sg41
VWeaponDrop
p3336
sg189
I19
sg53
(lp3337
I1095363701
asg44
VPT4M22.8900498S
p3338
sg192
I15
sg193
VP0DT0H0M6.5500S
p3339
sg48
(dp3340
g50
VALG RyaNoob
p3341
sg52
Nssa(dp3342
g47
I2902827823
sg48
(dp3343
g50
VALG RyaNoob
p3344
sg52
Nssg53
(lp3345
I2758383128
asg41
VWeaponPickupPad
p3346
sg44
VPT4M22.8900498S
p3347
sa(dp3348
g47
I2902827823
sg48
(dp3349
g50
VALG RyaNoob
p3350
sg52
Nssg53
(lp3351
I2758383128
asg41
VWeaponPickup
p3352
sg44
VPT4M22.8900498S
p3353
sa(dp3354
g41
VMedal
p3355
sg48
(dp3356
g50
VALG ContrA HCS
p3357
sg52
Nssg252
I2916014239
sg44
VPT4M24.5570814S
p3358
sa(dp3359
g217
I723388907
sg218
I00
sg219
I00
sg220
(dp3360
g50
VE6 Huke HCS
p3361
sg52
Nssg223
(lp3362
I89283061
asg225
I00
sg226
I01
sg227
I1
sg228
I0
sg229
I1
sg230
(dp3363
Vy
F-19.3736839
sVx
F3.3408790000000002
sVz
F1.1936937599999999
ssg232
(dp3364
Vy
F-18.027292299999999
sVx
F8.9947280000000003
sVz
F1.13097
ssg234
I00
sg235
(dp3365
g50
VALGPredevonator
p3366
sg52
Nssg238
(lp3367
sg240
(lp3368
sg244
I00
sg44
VPT4M25.4911S
p3369
sg41
VDeath
p3370
sg247
I1
sa(dp3371
g47
I313138863
sg41
VWeaponDrop
p3372
sg189
I17
sg53
(lp3373
I1095363701
asg44
VPT4M25.4931239S
p3374
sg192
I11
sg193
VP0DT0H0M4.7833S
p3375
sg48
(dp3376
g50
VALGPredevonator
p3377
sg52
Nssa(dp3378
g47
I424645655
sg41
VWeaponDrop
p3379
sg189
I30
sg53
(lp3380
I1327094800
asg44
VPT4M25.4931239S
p3381
sg192
I17
sg193
VP0DT0H0M25.7333S
p3382
sg48
(dp3383
g50
VALGPredevonator
p3384
sg52
Nssa(dp3385
g47
I424645655
sg41
VWeaponDrop
p3386
sg189
I0
sg53
(lp3387
I1327094800
asg44
VPT4M25.4931239S
p3388
sg192
I0
sg193
VP0DT0S
p3389
sg48
(dp3390
g50
VALGPredevonator
p3391
sg52
Nssa(dp3392
g217
I4096745987
sg218
I00
sg219
I00
sg220
(dp3393
g50
VALG Heinz HCS
p3394
sg52
Nssg223
(lp3395
I2758383128
asg225
I00
sg226
I01
sg227
I1
sg228
I0
sg229
I1
sg230
(dp3396
Vy
F7.6345890000000001
sVx
F20.466358199999998
sVz
F1.6058958800000001
ssg232
(dp3397
Vy
F9.6579499999999996
sVx
F18.599761999999998
sVz
F1.605896
ssg234
I00
sg235
(dp3398
g50
VE6 Shooter
p3399
sg52
Nssg238
(lp3400
sg240
(lp3401
(dp3402
g50
VALG RyaNoob
p3403
sg52
Nsasg244
I01
sg44
VPT4M27.4241366S
p3404
sg41
VDeath
p3405
sg247
I1
sa(dp3406
g41
VMedal
p3407
sg48
(dp3408
g50
VALG Heinz HCS
p3409
sg52
Nssg252
I3261908037
sg44
VPT4M27.4251559S
p3410
sa(dp3411
g47
I2015271382
sg41
VWeaponDrop
p3412
sg189
I5
sg53
(lp3413
I2758383128
asg44
VPT4M27.4261378S
p3414
sg192
I3
sg193
VP0DT0H0M34.0000S
p3415
sg48
(dp3416
g50
VE6 Shooter
p3417
sg52
Nssa(dp3418
g47
I4096745987
sg41
VWeaponDrop
p3419
sg189
I21
sg53
(lp3420
I2758383128
asg44
VPT4M27.4261378S
p3421
sg192
I7
sg193
VP0DT0H0M40.5833S
p3422
sg48
(dp3423
g50
VE6 Shooter
p3424
sg52
Nssa(dp3425
g47
I4096745987
sg41
VWeaponDrop
p3426
sg189
I0
sg53
(lp3427
I2758383128
asg44
VPT4M27.4261378S
p3428
sg192
I0
sg193
VP0DT0S
p3429
sg48
(dp3430
g50
VE6 Shooter
p3431
sg52
Nssa(dp3432
g47
I313138863
sg48
(dp3433
g50
VE6 Cratos HCS
p3434
sg52
Nssg53
(lp3435
I1095363701
asg41
VWeaponPickup
p3436
sg44
VPT4M27.7751678S
p3437
sa(dp3438
g47
I4096745987
sg48
(dp3439
g50
VE6 Cratos HCS
p3440
sg52
Nssg53
(lp3441
I2758383128
asg41
VWeaponPickup
p3442
sg44
VPT4M27.7751678S
p3443
sa(dp3444
g41
VPlayerSpawn
p3445
sg48
(dp3446
g50
VE6 Cratos HCS
p3447
sg52
Nssg44
VPT4M27.7751678S
p3448
sa(dp3449
g47
I313138863
sg41
VWeaponDrop
p3450
sg189
I0
sg53
(lp3451
I1095363701
asg44
VPT4M33.0902453S
p3452
sg192
I0
sg193
VP0DT0H0M0.9333S
p3453
sg48
(dp3454
g50
VE6 Cratos HCS
p3455
sg52
Nssa(dp3456
g47
I723388907
sg48
(dp3457
g50
VE6 Cratos HCS
p3458
sg52
Nssg53
(lp3459
I89283061
asg41
VWeaponPickup
p3460
sg44
VPT4M33.0902453S
p3461
sa(dp3462
g47
I313138863
sg48
(dp3463
g50
VALGPredevonator
p3464
sg52
Nssg53
(lp3465
I1095363701
asg41
VWeaponPickup
p3466
sg44
VPT4M33.5082718S
p3467
sa(dp3468
g47
I4096745987
sg48
(dp3469
g50
VALGPredevonator
p3470
sg52
Nssg53
(lp3471
I2758383128
asg41
VWeaponPickup
p3472
sg44
VPT4M33.5082718S
p3473
sa(dp3474
g41
VPlayerSpawn
p3475
sg48
(dp3476
g50
VALGPredevonator
p3477
sg52
Nssg44
VPT4M33.5082718S
p3478
sa(dp3479
g47
I313138863
sg48
(dp3480
g50
VE6 Shooter
p3481
sg52
Nssg53
(lp3482
I1095363701
asg41
VWeaponPickup
p3483
sg44
VPT4M35.44129S
p3484
sa(dp3485
g47
I4096745987
sg48
(dp3486
g50
VE6 Shooter
p3487
sg52
Nssg53
(lp3488
I2758383128
asg41
VWeaponPickup
p3489
sg44
VPT4M35.44129S
p3490
sa(dp3491
g41
VPlayerSpawn
p3492
sg48
(dp3493
g50
VE6 Shooter
p3494
sg52
Nssg44
VPT4M35.44129S
p3495
sa(dp3496
g217
I4096745987
sg218
I00
sg219
I00
sg220
(dp3497
g50
VE6 Huke HCS
p3498
sg52
Nssg223
(lp3499
I2758383128
asg225
I00
sg226
I01
sg227
I1
sg228
I0
sg229
I1
sg230
(dp3500
Vy
F-10.5619087
sVx
F10.1235895
sVz
F3.1613013699999999
ssg232
(dp3501
Vy
F-0.054546619999999997
sVx
F0.95361059999999997
sVz
F2.8097023999999999
ssg234
I00
sg235
(dp3502
g50
VALG ContrA HCS
p3503
sg52
Nssg238
(lp3504
sg240
(lp3505
sg244
I01
sg44
VPT4M36.6243129S
p3506
sg41
VDeath
p3507
sg247
I1
sa(dp3508
g41
VMedal
p3509
sg48
(dp3510
g50
VE6 Huke HCS
p3511
sg52
Nssg252
I3261908037
sg44
VPT4M36.6263388S
p3512
sa(dp3513
g47
I313138863
sg41
VWeaponDrop
p3514
sg189
I0
sg53
(lp3515
I1095363701
asg44
VPT4M36.6263388S
p3516
sg192
I0
sg193
VP0DT0H0M0.5833S
p3517
sg48
(dp3518
g50
VALG ContrA HCS
p3519
sg52
Nssa(dp3520
g47
I4096745987
sg41
VWeaponDrop
p3521
sg189
I5
sg53
(lp3522
I2758383128
asg44
VPT4M36.6263388S
p3523
sg192
I3
sg193
VP0DT0H0M27.3833S
p3524
sg48
(dp3525
g50
VALG ContrA HCS
p3526
sg52
Nssa(dp3527
g47
I2492868984
sg48
(dp3528
g50
VALG RyaNoob
p3529
sg52
Nssg53
(lp3530
I2758383128
asg41
VWeaponPickup
p3531
sg44
VPT4M38.3573461S
p3532
sa(dp3533
g217
I723388907
sg218
I00
sg219
I00
sg220
(dp3534
g50
VE6 Cratos HCS
p3535
sg52
Nssg223
(lp3536
I89283061
asg225
I00
sg226
I01
sg227
I1
sg228
I0
sg229
I1
sg230
(dp3537
Vy
F1.8658817999999999
sVx
F13.9059372
sVz
F1.14813232
ssg232
(dp3538
Vy
F1.83081961
sVx
F10.604895600000001
sVz
F0.6918687
ssg234
I00
sg235
(dp3539
g50
VALG RyaNoob
p3540
sg52
Nssg238
(lp3541
sg240
(lp3542
sg244
I00
sg44
VPT4M39.3243655S
p3543
sg41
VDeath
p3544
sg247
I1
sa(dp3545
g47
I2902827823
sg41
VWeaponDrop
p3546
sg189
I1
sg53
(lp3547
I2758383128
asg44
VPT4M39.3263908S
p3548
sg192
I1
sg193
VP0DT0H0M8.1333S
p3549
sg48
(dp3550
g50
VALG RyaNoob
p3551
sg52
Nssa(dp3552
g47
I4096745987
sg41
VWeaponDrop
p3553
sg189
I12
sg53
(lp3554
I2758383128
asg44
VPT4M39.3263908S
p3555
sg192
I6
sg193
VP0DT0H0M24.3833S
p3556
sg48
(dp3557
g50
VALG RyaNoob
p3558
sg52
Nssa(dp3559
g47
I2492868984
sg41
VWeaponDrop
p3560
sg189
I0
sg53
(lp3561
I2758383128
asg44
VPT4M39.3263908S
p3562
sg192
I0
sg193
VP0DT0H0M0.8000S
p3563
sg48
(dp3564
g50
VALG RyaNoob
p3565
sg52
Nssa(dp3566
g47
I723388907
sg41
VWeaponDrop
p3567
sg189
I13
sg53
(lp3568
I89283061
asg44
VPT4M42.6734292S
p3569
sg192
I3
sg193
VP0DT0H0M3.7500S
p3570
sg48
(dp3571
g50
VE6 Cratos HCS
p3572
sg52
Nssa(dp3573
g47
I2902827823
sg48
(dp3574
g50
VE6 Cratos HCS
p3575
sg52
Nssg53
(lp3576
I2758383128
asg41
VWeaponPickup
p3577
sg44
VPT4M42.6734292S
p3578
sa(dp3579
g217
I4096745987
sg218
I00
sg219
I00
sg220
(dp3580
g50
VE6 Huke HCS
p3581
sg52
Nssg223
(lp3582
I2758383128
asg225
I00
sg226
I01
sg227
I1
sg228
I0
sg229
I1
sg230
(dp3583
Vy
F-8.7150134999999995
sVx
F9.9042359999999992
sVz
F3.1403884899999999
ssg232
(dp3584
Vy
F7.2072534599999996
sVx
F0.94841529999999996
sVz
F3.7001571700000002
ssg234
I00
sg235
(dp3585
g50
VALGPredevonator
p3586
sg52
Nssg238
(lp3587
sg240
(lp3588
sg244
I01
sg44
VPT4M43.5074449S
p3589
sg41
VDeath
p3590
sg247
I1
sa(dp3591
g41
VMedal
p3592
sg48
(dp3593
g50
VE6 Huke HCS
p3594
sg52
Nssg252
I3261908037
sg44
VPT4M43.5094639S
p3595
sa(dp3596
g47
I313138863
sg41
VWeaponDrop
p3597
sg189
I0
sg53
(lp3598
I1095363701
asg44
VPT4M43.5104689S
p3599
sg192
I0
sg193
VP0DT0H0M0.5333S
p3600
sg48
(dp3601
g50
VALGPredevonator
p3602
sg52
Nssa(dp3603
g47
I4096745987
sg41
VWeaponDrop
p3604
sg189
I2
sg53
(lp3605
I2758383128
asg44
VPT4M43.5104689S
p3606
sg192
I0
sg193
VP0DT0H0M9.4667S
p3607
sg48
(dp3608
g50
VALGPredevonator
p3609
sg52
Nssa(dp3610
g47
I313138863
sg48
(dp3611
g50
VALG ContrA HCS
p3612
sg52
Nssg53
(lp3613
I1095363701
asg41
VWeaponPickup
p3614
sg44
VPT4M44.6415058S
p3615
sa(dp3616
g47
I4096745987
sg48
(dp3617
g50
VALG ContrA HCS
p3618
sg52
Nssg53
(lp3619
I2758383128
asg41
VWeaponPickup
p3620
sg44
VPT4M44.6415058S
p3621
sa(dp3622
g41
VPlayerSpawn
p3623
sg48
(dp3624
g50
VALG ContrA HCS
p3625
sg52
Nssg44
VPT4M44.6415058S
p3626
sa(dp3627
g41
VMedal
p3628
sg48
(dp3629
g50
VE6 Huke HCS
p3630
sg52
Nssg252
I3565443938
sg44
VPT4M46.7065274S
p3631
sa(dp3632
g47
I313138863
sg41
VWeaponDrop
p3633
sg189
I0
sg53
(lp3634
I1095363701
asg44
VPT4M47.3245185S
p3635
sg192
I0
sg193
VP0DT0H0M0.9667S
p3636
sg48
(dp3637
g50
VALG Heinz HCS
p3638
sg52
Nssa(dp3639
g47
I723388907
sg48
(dp3640
g50
VALG Heinz HCS
p3641
sg52
Nssg53
(lp3642
I89283061
asg41
VWeaponPickup
p3643
sg44
VPT4M47.3245185S
p3644
sa(dp3645
g47
I313138863
sg48
(dp3646
g50
VALG RyaNoob
p3647
sg52
Nssg53
(lp3648
I1095363701
asg41
VWeaponPickup
p3649
sg44
VPT4M47.3415196S
p3650
sa(dp3651
g47
I4096745987
sg48
(dp3652
g50
VALG RyaNoob
p3653
sg52
Nssg53
(lp3654
I2758383128
asg41
VWeaponPickup
p3655
sg44
VPT4M47.3425407S
p3656
sa(dp3657
g41
VPlayerSpawn
p3658
sg48
(dp3659
g50
VALG RyaNoob
p3660
sg52
Nssg44
VPT4M47.3425407S
p3661
sa(dp3662
g47
I4096745987
sg41
VWeaponDrop
p3663
sg189
I9
sg53
(lp3664
I2758383128
asg44
VPT4M47.3725413S
p3665
sg192
I4
sg193
VP0DT0H0M16.4167S
p3666
sg48
(dp3667
g50
VE6 bubu dubu
p3668
sg52
Nssa(dp3669
g47
I424645655
sg48
(dp3670
g50
VE6 bubu dubu
p3671
sg52
Nssg53
(lp3672
I1327094800
asg41
VWeaponPickup
p3673
sg44
VPT4M47.3735227S
p3674
sa(dp3675
g217
I2902827823
sg218
I00
sg219
I00
sg220
(dp3676
g50
VE6 Cratos HCS
p3677
sg52
Nssg223
(lp3678
I2758383128
asg225
I00
sg226
I01
sg227
I1
sg228
I0
sg229
I1
sg230
(dp3679
Vy
F4.43990946
sVx
F16.301433599999999
sVz
F3.1491380000000002
ssg232
(dp3680
Vy
F8.4588889999999992
sVx
F16.741565699999999
sVz
F1.6058958800000001
ssg234
I00
sg235
(dp3681
g50
VALG Heinz HCS
p3682
sg52
Nssg238
(lp3683
sg240
(lp3684
sg244
I00
sg44
VPT4M48.2905366S
p3685
sg41
VDeath
p3686
sg247
I1
sa(dp3687
g41
VMedal
p3688
sg48
(dp3689
g50
VE6 Cratos HCS
p3690
sg52
Nssg252
I1351381581
sg44
VPT4M48.291538S
p3691
sa(dp3692
g47
I723388907
sg41
VWeaponDrop
p3693
sg189
I0
sg53
(lp3694
I89283061
asg44
VPT4M48.2925395S
p3695
sg192
I0
sg193
VP0DT0H0M0.6500S
p3696
sg48
(dp3697
g50
VALG Heinz HCS
p3698
sg52
Nssa(dp3699
g47
I4096745987
sg41
VWeaponDrop
p3700
sg189
I15
sg53
(lp3701
I2758383128
asg44
VPT4M48.2925395S
p3702
sg192
I6
sg193
VP0DT0H0M24.4167S
p3703
sg48
(dp3704
g50
VALG Heinz HCS
p3705
sg52
Nssa(dp3706
g41
VMedal
p3707
sg48
(dp3708
g50
VE6 Cratos HCS
p3709
sg52
Nssg252
I2916014239
sg44
VPT4M50.4905793S
p3710
sa(dp3711
g47
I313138863
sg48
(dp3712
g50
VALGPredevonator
p3713
sg52
Nssg53
(lp3714
I1095363701
asg41
VWeaponPickup
p3715
sg44
VPT4M51.5246221S
p3716
sa(dp3717
g47
I4096745987
sg48
(dp3718
g50
VALGPredevonator
p3719
sg52
Nssg53
(lp3720
I2758383128
asg41
VWeaponPickup
p3721
sg44
VPT4M51.5246221S
p3722
sa(dp3723
g41
VPlayerSpawn
p3724
sg48
(dp3725
g50
VALGPredevonator
p3726
sg52
Nssg44
VPT4M51.5246221S
p3727
sa(dp3728
g47
I2492868984
sg48
(dp3729
g50
VE6 bubu dubu
p3730
sg52
Nssg53
(lp3731
I2758383128
asg41
VWeaponPickup
p3732
sg44
VPT4M51.7406031S
p3733
sa(dp3734
g47
I2492868984
sg41
VWeaponDrop
p3735
sg189
I0
sg53
(lp3736
I2758383128
asg44
VPT4M52.8916257S
p3737
sg192
I0
sg193
VP0DT0H0M0.9833S
p3738
sg48
(dp3739
g50
VE6 bubu dubu
p3740
sg52
Nssa(dp3741
g47
I313138863
sg41
VWeaponDrop
p3742
sg189
I0
sg53
(lp3743
I1095363701
asg44
VPT4M55.0556668S
p3744
sg192
I0
sg193
VP0DT0H0M2.3833S
p3745
sg48
(dp3746
g50
VE6 Shooter
p3747
sg52
Nssa(dp3748
g47
I2015271382
sg48
(dp3749
g50
VE6 Shooter
p3750
sg52
Nssg53
(lp3751
I2758383128
asg41
VWeaponPickup
p3752
sg44
VPT4M55.056667S
p3753
sa(dp3754
g47
I313138863
sg48
(dp3755
g50
VALG Heinz HCS
p3756
sg52
Nssg53
(lp3757
I1095363701
asg41
VWeaponPickup
p3758
sg44
VPT4M56.3077085S
p3759
sa(dp3760
g47
I4096745987
sg48
(dp3761
g50
VALG Heinz HCS
p3762
sg52
Nssg53
(lp3763
I2758383128
asg41
VWeaponPickup
p3764
sg44
VPT4M56.3077085S
p3765
sa(dp3766
g41
VPlayerSpawn
p3767
sg48
(dp3768
g50
VALG Heinz HCS
p3769
sg52
Nssg44
VPT4M56.3077085S
p3770
sa(dp3771
g217
I313138863
sg218
I00
sg219
I00
sg220
(dp3772
g50
VALGPredevonator
p3773
sg52
Nssg223
(lp3774
I1095363701
asg225
I00
sg226
I01
sg227
I1
sg228
I0
sg229
I1
sg230
(dp3775
Vy
F-12.795083999999999
sVx
F2.33785987
sVz
F0.0045336186900000004
ssg232
(dp3776
Vy
F-12.150384900000001
sVx
F-0.52063760000000003
sVz
F0.00453588367
ssg234
I00
sg235
(dp3777
g50
VE6 bubu dubu
p3778
sg52
Nssg238
(lp3779
sg240
(lp3780
(dp3781
g50
VALG RyaNoob
p3782
sg52
Nsasg244
I00
sg44
VPT4M58.6577351S
p3783
sg41
VDeath
p3784
sg247
I1
sa(dp3785
g47
I313138863
sg41
VWeaponDrop
p3786
sg189
I23
sg53
(lp3787
I1095363701
asg44
VPT4M58.6597378S
p3788
sg192
I2
sg193
VP0DT0H0M9.5000S
p3789
sg48
(dp3790
g50
VE6 bubu dubu
p3791
sg52
Nssa(dp3792
g47
I424645655
sg41
VWeaponDrop
p3793
sg189
I11
sg53
(lp3794
I1327094800
asg44
VPT4M58.6597378S
p3795
sg192
I8
sg193
VP0DT0H0M10.2833S
p3796
sg48
(dp3797
g50
VE6 bubu dubu
p3798
sg52
Nssa(dp3799
g47
I4096745987
sg41
VWeaponDrop
p3800
sg189
I27
sg53
(lp3801
I2758383128
asg44
VPT4M58.8897438S
p3802
sg192
I14
sg193
VP0DT0H0M36.9500S
p3803
sg48
(dp3804
g50
VE6 Huke HCS
p3805
sg52
Nssa(dp3806
g47
I2511447508
sg48
(dp3807
g50
VE6 Huke HCS
p3808
sg52
Nssg53
(lp3809
I2758383128
asg41
VWeaponPickup
p3810
sg44
VPT4M58.8897438S
p3811
sa(dp3812
g217
I2511447508
sg218
I00
sg219
I00
sg220
(dp3813
g50
VE6 Huke HCS
p3814
sg52
Nssg223
(lp3815
I2758383128
asg225
I00
sg226
I01
sg227
I1
sg228
I0
sg229
I1
sg230
(dp3816
Vy
F-17.938652000000001
sVx
F14.449780000000001
sVz
F2.0090105500000002
ssg232
(dp3817
Vy
F-16.751771900000001
sVx
F2.2965216599999998
sVz
F0.0045378804200000003
ssg234
I00
sg235
(dp3818
g50
VALGPredevonator
p3819
sg52
Nssg238
(lp3820
sg240
(lp3821
(dp3822
g50
VE6 bubu dubu
p3823
sg52
Nsasg244
I01
sg44
VPT5M2.2898054S
p3824
sg41
VDeath
p3825
sg247
I1
sa(dp3826
g41
VMedal
p3827
sg48
(dp3828
g50
VE6 Huke HCS
p3829
sg52
Nssg252
I3261908037
sg44
VPT5M2.2928078S
p3830
sa(dp3831
g47
I313138863
sg41
VWeaponDrop
p3832
sg189
I12
sg53
(lp3833
I1095363701
asg44
VPT5M2.2938079S
p3834
sg192
I6
sg193
VP0DT0H0M3.6333S
p3835
sg48
(dp3836
g50
VALGPredevonator
p3837
sg52
Nssa(dp3838
g47
I4096745987
sg41
VWeaponDrop
p3839
sg189
I3
sg53
(lp3840
I2758383128
asg44
VPT5M2.2938079S
p3841
sg192
I1
sg193
VP0DT0H0M7.1333S
p3842
sg48
(dp3843
g50
VALGPredevonator
p3844
sg52
Nssa(dp3845
g47
I313138863
sg48
(dp3846
g50
VE6 bubu dubu
p3847
sg52
Nssg53
(lp3848
I1095363701
asg41
VWeaponPickup
p3849
sg44
VPT5M6.6739143S
p3850
sa(dp3851
g47
I4096745987
sg48
(dp3852
g50
VE6 bubu dubu
p3853
sg52
Nssg53
(lp3854
I2758383128
asg41
VWeaponPickup
p3855
sg44
VPT5M6.6739143S
p3856
sa(dp3857
g41
VPlayerSpawn
p3858
sg48
(dp3859
g50
VE6 bubu dubu
p3860
sg52
Nssg44
VPT5M6.6739143S
p3861
sa(dp3862
g47
I313138863
sg48
(dp3863
g50
VALGPredevonator
p3864
sg52
Nssg53
(lp3865
I1095363701
asg41
VWeaponPickup
p3866
sg44
VPT5M10.3069602S
p3867
sa(dp3868
g47
I4096745987
sg48
(dp3869
g50
VALGPredevonator
p3870
sg52
Nssg53
(lp3871
I2758383128
asg41
VWeaponPickup
p3872
sg44
VPT5M10.3069602S
p3873
sa(dp3874
g41
VPlayerSpawn
p3875
sg48
(dp3876
g50
VALGPredevonator
p3877
sg52
Nssg44
VPT5M10.3079785S
p3878
sa(dp3879
g47
I313138863
sg41
VWeaponDrop
p3880
sg189
I5
sg53
(lp3881
I1095363701
asg44
VPT5M10.7059906S
p3882
sg192
I1
sg193
VP0DT0H0M2.7833S
p3883
sg48
(dp3884
g50
VALG RyaNoob
p3885
sg52
Nssa(dp3886
g47
I723388907
sg48
(dp3887
g50
VALG RyaNoob
p3888
sg52
Nssg53
(lp3889
I89283061
asg41
VWeaponPickup
p3890
sg44
VPT5M10.7059906S
p3891
sa(dp3892
g47
I313138863
sg41
VWeaponDrop
p3893
sg189
I0
sg53
(lp3894
I1095363701
asg44
VPT5M10.9219959S
p3895
sg192
I0
sg193
VP0DT0H0M1.0167S
p3896
sg48
(dp3897
g50
VE6 bubu dubu
p3898
sg52
Nssa(dp3899
g47
I723388907
sg48
(dp3900
g50
VE6 bubu dubu
p3901
sg52
Nssg53
(lp3902
I89283061
asg41
VWeaponPickup
p3903
sg44
VPT5M10.9229717S
p3904
sa(dp3905
g217
I723388907
sg218
I00
sg219
I00
sg220
(dp3906
g50
VE6 Huke HCS
p3907
sg52
Nssg223
(lp3908
I89283061
asg225
I00
sg226
I01
sg227
I1
sg228
I0
sg229
I1
sg230
(dp3909
Vy
F-14.881708100000001
sVx
F15.300284400000001
sVz
F1.00023544
ssg232
(dp3910
Vy
F-15.1543732
sVx
F14.9813986
sVz
F0.85709840000000004
ssg234
I00
sg235
(dp3911
g50
VALG RyaNoob
p3912
sg52
Nssg238
(lp3913
sg240
(lp3914
sg244
I00
sg44
VPT5M12.8910097S
p3915
sg41
VDeath
p3916
sg247
I1
sa(dp3917
g41
VMedal
p3918
sg48
(dp3919
g50
VE6 Huke HCS
p3920
sg52
Nssg252
I2430242797
sg44
VPT5M12.8930347S
p3921
sa(dp3922
g47
I723388907
sg41
VWeaponDrop
p3923
sg189
I12
sg53
(lp3924
I89283061
asg44
VPT5M12.8930347S
p3925
sg192
I2
sg193
VP0DT0H0M2.1833S
p3926
sg48
(dp3927
g50
VALG RyaNoob
p3928
sg52
Nssa(dp3929
g47
I723388907
sg41
VWeaponDrop
p3930
sg189
I0
sg53
(lp3931
I89283061
asg44
VPT5M12.8930347S
p3932
sg192
I0
sg193
VP0DT0S
p3933
sg48
(dp3934
g50
VALG RyaNoob
p3935
sg52
Nssa(dp3936
g47
I4096745987
sg41
VWeaponDrop
p3937
sg189
I3
sg53
(lp3938
I2758383128
asg44
VPT5M12.8930347S
p3939
sg192
I1
sg193
VP0DT0H0M20.5833S
p3940
sg48
(dp3941
g50
VALG RyaNoob
p3942
sg52
Nssa(dp3943
g217
I4096745987
sg218
I00
sg219
I00
sg220
(dp3944
g50
VALG ContrA HCS
p3945
sg52
Nssg223
(lp3946
I2758383128
asg225
I00
sg226
I01
sg227
I1
sg228
I0
sg229
I1
sg230
(dp3947
Vy
F-18.456419
sVx
F8.9032280000000004
sVz
F1.6135813000000001
ssg232
(dp3948
Vy
F-13.0447226
sVx
F19.3194351
sVz
F2.4309153600000002
ssg234
I00
sg235
(dp3949
g50
VE6 Huke HCS
p3950
sg52
Nssg238
(lp3951
sg240
(lp3952
sg244
I01
sg44
VPT5M20.2061498S
p3953
sg41
VDeath
p3954
sg247
I1
sa(dp3955
g41
VImpulse
p3956
sg48
(dp3957
g50
VALG ContrA HCS
p3958
sg52
Nssg290
I3174430457
sg44
VPT5M20.2081695S
p3959
sa(dp3960
g41
VMedal
p3961
sg48
(dp3962
g50
VALG ContrA HCS
p3963
sg52
Nssg252
I3653057799
sg44
VPT5M20.2091688S
p3964
sa(dp3965
g47
I723388907
sg41
VWeaponDrop
p3966
sg189
I59
sg53
(lp3967
I89283061
asg44
VPT5M20.2101749S
p3968
sg192
I30
sg193
VP0DT0H0M14.3167S
p3969
sg48
(dp3970
g50
VE6 Huke HCS
p3971
sg52
Nssa(dp3972
g47
I2511447508
sg41
VWeaponDrop
p3973
sg189
I9
sg53
(lp3974
I2758383128
asg44
VPT5M20.2101749S
p3975
sg192
I7
sg193
VP0DT0H0M18.4500S
p3976
sg48
(dp3977
g50
VE6 Huke HCS
p3978
sg52
Nssa(dp3979
g47
I313138863
sg48
(dp3980
g50
VALG RyaNoob
p3981
sg52
Nssg53
(lp3982
I1095363701
asg41
VWeaponPickup
p3983
sg44
VPT5M20.9241891S
p3984
sa(dp3985
g47
I4096745987
sg48
(dp3986
g50
VALG RyaNoob
p3987
sg52
Nssg53
(lp3988
I2758383128
asg41
VWeaponPickup
p3989
sg44
VPT5M20.9241891S
p3990
sa(dp3991
g41
VPlayerSpawn
p3992
sg48
(dp3993
g50
VALG RyaNoob
p3994
sg52
Nssg44
VPT5M20.9241891S
p3995
sa(dp3996
g41
VMedal
p3997
sg48
(dp3998
g50
VALG ContrA HCS
p3999
sg52
Nssg252
I3400287617
sg44
VPT5M24.1562306S
p4000
sa(dp4001
g217
I2015271382
sg218
I00
sg219
I01
sg220
(dp4002
g50
VE6 Shooter
p4003
sg52
Nssg223
(lp4004
I2758383128
asg225
I00
sg226
I00
sg227
I1
sg228
I0
sg229
I1
sg230
(dp4005
Vy
F-7.1526589999999999
sVx
F18.929039
sVz
F2.4755473100000001
ssg232
(dp4006
Vy
F-7.4125256500000001
sVx
F18.698923099999998
sVz
F2.3007271299999998
ssg234
I00
sg235
(dp4007
g50
VALGPredevonator
p4008
sg52
Nssg238
(lp4009
sg240
(lp4010
sg244
I00
sg44
VPT5M25.5902541S
p4011
sg41
VDeath
p4012
sg247
I1
sa(dp4013
g41
VMedal
p4014
sg48
(dp4015
g50
VE6 Shooter
p4016
sg52
Nssg252
I250435527
sg44
VPT5M25.5912711S
p4017
sa(dp4018
g47
I313138863
sg41
VWeaponDrop
p4019
sg189
I9
sg53
(lp4020
I1095363701
asg44
VPT5M25.5912711S
p4021
sg192
I7
sg193
VP0DT0H0M4.3333S
p4022
sg48
(dp4023
g50
VALGPredevonator
p4024
sg52
Nssa(dp4025
g47
I313138863
sg41
VWeaponDrop
p4026
sg189
I0
sg53
(lp4027
I1095363701
asg44
VPT5M25.5912711S
p4028
sg192
I0
sg193
VP0DT0S
p4029
sg48
(dp4030
g50
VALGPredevonator
p4031
sg52
Nssa(dp4032
g47
I4096745987
sg41
VWeaponDrop
p4033
sg189
I0
sg53
(lp4034
I2758383128
asg44
VPT5M25.5922774S
p4035
sg192
I0
sg193
VP0DT0H0M10.9333S
p4036
sg48
(dp4037
g50
VALGPredevonator
p4038
sg52
Nssa(dp4039
g217
I313138863
sg218
I00
sg219
I01
sg220
(dp4040
g50
VALGPredevonator
p4041
sg52
Nssg223
(lp4042
I1095363701
asg225
I00
sg226
I00
sg227
I1
sg228
I0
sg229
I1
sg230
(dp4043
Vy
F-7.4125256500000001
sVx
F18.698923099999998
sVz
F2.5257269999999998
ssg232
(dp4044
Vy
F-7.1526589999999999
sVx
F18.929039
sVz
F2.4755473100000001
ssg234
I00
sg235
(dp4045
g50
VE6 Shooter
p4046
sg52
Nssg238
(lp4047
sg240
(lp4048
sg244
I00
sg44
VPT5M25.5922774S
p4049
sg41
VDeath
p4050
sg247
I1
sa(dp4051
g41
VMedal
p4052
sg48
(dp4053
g50
VALGPredevonator
p4054
sg52
Nssg252
I250435527
sg44
VPT5M25.5922774S
p4055
sa(dp4056
g47
I2015271382
sg41
VWeaponDrop
p4057
sg189
I4
sg53
(lp4058
I2758383128
asg44
VPT5M25.5932807S
p4059
sg192
I3
sg193
VP0DT0H0M1.5667S
p4060
sg48
(dp4061
g50
VE6 Shooter
p4062
sg52
Nssa(dp4063
g47
I2015271382
sg41
VWeaponDrop
p4064
sg189
I0
sg53
(lp4065
I2758383128
asg44
VPT5M25.5932807S
p4066
sg192
I0
sg193
VP0DT0S
p4067
sg48
(dp4068
g50
VE6 Shooter
p4069
sg52
Nssa(dp4070
g47
I4096745987
sg41
VWeaponDrop
p4071
sg189
I8
sg53
(lp4072
I2758383128
asg44
VPT5M25.5932807S
p4073
sg192
I3
sg193
VP0DT0H0M46.1833S
p4074
sg48
(dp4075
g50
VE6 Shooter
p4076
sg52
Nssa(dp4077
g47
I313138863
sg48
(dp4078
g50
VE6 Huke HCS
p4079
sg52
Nssg53
(lp4080
I1095363701
asg41
VWeaponPickup
p4081
sg44
VPT5M28.2233043S
p4082
sa(dp4083
g47
I4096745987
sg48
(dp4084
g50
VE6 Huke HCS
p4085
sg52
Nssg53
(lp4086
I2758383128
asg41
VWeaponPickup
p4087
sg44
VPT5M28.2233043S
p4088
sa(dp4089
g41
VPlayerSpawn
p4090
sg48
(dp4091
g50
VE6 Huke HCS
p4092
sg52
Nssg44
VPT5M28.2233043S
p4093
sa(dp4094
g47
I313138863
sg48
(dp4095
g50
VALGPredevonator
p4096
sg52
Nssg53
(lp4097
I1095363701
asg41
VWeaponPickup
p4098
sg44
VPT5M33.6064073S
p4099
sa(dp4100
g47
I4096745987
sg48
(dp4101
g50
VALGPredevonator
p4102
sg52
Nssg53
(lp4103
I2758383128
asg41
VWeaponPickup
p4104
sg44
VPT5M33.6074327S
p4105
sa(dp4106
g41
VPlayerSpawn
p4107
sg48
(dp4108
g50
VALGPredevonator
p4109
sg52
Nssg44
VPT5M33.6074327S
p4110
sa(dp4111
g47
I313138863
sg48
(dp4112
g50
VE6 Shooter
p4113
sg52
Nssg53
(lp4114
I1095363701
asg41
VWeaponPickup
p4115
sg44
VPT5M33.6404317S
p4116
sa(dp4117
g47
I4096745987
sg48
(dp4118
g50
VE6 Shooter
p4119
sg52
Nssg53
(lp4120
I2758383128
asg41
VWeaponPickup
p4121
sg44
VPT5M33.6404317S
p4122
sa(dp4123
g41
VPlayerSpawn
p4124
sg48
(dp4125
g50
VE6 Shooter
p4126
sg52
Nssg44
VPT5M33.6404317S
p4127
sa(dp4128
g217
I2902827823
sg218
I00
sg219
I00
sg220
(dp4129
g50
VE6 Cratos HCS
p4130
sg52
Nssg223
(lp4131
I2758383128
asg225
I00
sg226
I01
sg227
I1
sg228
I0
sg229
I1
sg230
(dp4132
Vy
F8.5372299999999992
sVx
F4.7532449999999997
sVz
F3.1515521999999998
ssg232
(dp4133
Vy
F2.3619251299999999
sVx
F4.1845470000000002
sVz
F4.0394945099999999
ssg234
I00
sg235
(dp4134
g50
VALG RyaNoob
p4135
sg52
Nssg238
(lp4136
sg240
(lp4137
(dp4138
g50
VE6 Huke HCS
p4139
sg52
Nsasg244
I00
sg44
VPT5M34.0234158S
p4140
sg41
VDeath
p4141
sg247
I1
sa(dp4142
g41
VMedal
p4143
sg48
(dp4144
g50
VE6 bubu dubu
p4145
sg52
Nssg252
I824733727
sg44
VPT5M34.0234158S
p4146
sa(dp4147
g47
I313138863
sg41
VWeaponDrop
p4148
sg189
I0
sg53
(lp4149
I1095363701
asg44
VPT5M34.0244346S
p4150
sg192
I0
sg193
VP0DT0H0M0.7167S
p4151
sg48
(dp4152
g50
VALG RyaNoob
p4153
sg52
Nssa(dp4154
g47
I4096745987
sg41
VWeaponDrop
p4155
sg189
I6
sg53
(lp4156
I2758383128
asg44
VPT5M34.0244346S
p4157
sg192
I3
sg193
VP0DT0H0M12.3833S
p4158
sg48
(dp4159
g50
VALG RyaNoob
p4160
sg52
Nssa(dp4161
g41
VMedal
p4162
sg48
(dp4163
g50
VALG Heinz HCS
p4164
sg52
Nssg252
I3565443938
sg44
VPT5M38.9725102S
p4165
sa(dp4166
g41
VMedal
p4167
sg48
(dp4168
g50
VALG ContrA HCS
p4169
sg52
Nssg252
I3565443938
sg44
VPT5M38.9725102S
p4170
sa(dp4171
g47
I313138863
sg48
(dp4172
g50
VALG RyaNoob
p4173
sg52
Nssg53
(lp4174
I1095363701
asg41
VWeaponPickup
p4175
sg44
VPT5M42.0395699S
p4176
sa(dp4177
g47
I4096745987
sg48
(dp4178
g50
VALG RyaNoob
p4179
sg52
Nssg53
(lp4180
I2758383128
asg41
VWeaponPickup
p4181
sg44
VPT5M42.040587S
p4182
sa(dp4183
g41
VPlayerSpawn
p4184
sg48
(dp4185
g50
VALG RyaNoob
p4186
sg52
Nssg44
VPT5M42.040587S
p4187
sa(dp4188
g41
VMedal
p4189
sg48
(dp4190
g50
VE6 Shooter
p4191
sg52
Nssg252
I3565443938
sg44
VPT5M44.7886496S
p4192
sa(dp4193
g41
VMedal
p4194
sg48
(dp4195
g50
VE6 Cratos HCS
p4196
sg52
Nssg252
I3565443938
sg44
VPT5M44.7886496S
p4197
sa(dp4198
g217
I4096745987
sg218
I00
sg219
I00
sg220
(dp4199
g50
VALG RyaNoob
p4200
sg52
Nssg223
(lp4201
I2758383128
asg225
I00
sg226
I01
sg227
I1
sg228
I0
sg229
I1
sg230
(dp4202
Vy
F12.3525972
sVx
F21.061632199999998
sVz
F2.0033145000000001
ssg232
(dp4203
Vy
F7.3483559999999999
sVx
F7.7827372600000002
sVz
F2.1265828600000001
ssg234
I00
sg235
(dp4204
g50
VE6 Cratos HCS
p4205
sg52
Nssg238
(lp4206
sg240
(lp4207
(dp4208
g50
VALG Heinz HCS
p4209
sg52
Nsa(dp4210
g50
VALGPredevonator
p4211
sg52
Nsasg244
I01
sg44
VPT5M47.33967S
p4212
sg41
VDeath
p4213
sg247
I1
sa(dp4214
g41
VImpulse
p4215
sg48
(dp4216
g50
VALG RyaNoob
p4217
sg52
Nssg290
I2556889090
sg44
VPT5M47.33967S
p4218
sa(dp4219
g41
VMedal
p4220
sg48
(dp4221
g50
VALG RyaNoob
p4222
sg52
Nssg252
I352859864
sg44
VPT5M47.33967S
p4223
sa(dp4224
g41
VMedal
p4225
sg48
(dp4226
g50
VALGPredevonator
p4227
sg52
Nssg252
I824733727
sg44
VPT5M47.3406716S
p4228
sa(dp4229
g41
VMedal
p4230
sg48
(dp4231
g50
VALG RyaNoob
p4232
sg52
Nssg252
I3261908037
sg44
VPT5M47.3417144S
p4233
sa(dp4234
g47
I2902827823
sg41
VWeaponDrop
p4235
sg189
I3
sg53
(lp4236
I2758383128
asg44
VPT5M47.3417144S
p4237
sg192
I3
sg193
VP0DT0H0M46.1333S
p4238
sg48
(dp4239
g50
VE6 Cratos HCS
p4240
sg52
Nssa(dp4241
g47
I4096745987
sg41
VWeaponDrop
p4242
sg189
I15
sg53
(lp4243
I2758383128
asg44
VPT5M47.3417144S
p4244
sg192
I4
sg193
VP0DT0H0M28.7333S
p4245
sg48
(dp4246
g50
VE6 Cratos HCS
p4247
sg52
Nssa(dp4248
g217
I4096745987
sg218
I00
sg219
I00
sg220
(dp4249
g50
VE6 bubu dubu
p4250
sg52
Nssg223
(lp4251
I2758383128
asg225
I00
sg226
I01
sg227
I1
sg228
I0
sg229
I1
sg230
(dp4252
Vy
F-6.0019912700000004
sVx
F0.66594833099999995
sVz
F2.43896055
ssg232
(dp4253
Vy
F-16.606796299999999
sVx
F5.310956
sVz
F0.80000305199999999
ssg234
I00
sg235
(dp4254
g50
VALG ContrA HCS
p4255
sg52
Nssg238
(lp4256
sg240
(lp4257
sg244
I01
sg44
VPT5M49.0727039S
p4258
sg41
VDeath
p4259
sg247
I1
sa(dp4260
g41
VImpulse
p4261
sg48
(dp4262
g50
VE6 bubu dubu
p4263
sg52
Nssg290
I3174430457
sg44
VPT5M49.0737273S
p4264
sa(dp4265
g41
VMedal
p4266
sg48
(dp4267
g50
VE6 bubu dubu
p4268
sg52
Nssg252
I3653057799
sg44
VPT5M49.0747274S
p4269
sa(dp4270
g47
I313138863
sg41
VWeaponDrop
p4271
sg189
I0
sg53
(lp4272
I1095363701
asg44
VPT5M49.075728S
p4273
sg192
I0
sg193
VP0DT0H0M0.6333S
p4274
sg48
(dp4275
g50
VALG ContrA HCS
p4276
sg52
Nssa(dp4277
g47
I4096745987
sg41
VWeaponDrop
p4278
sg189
I27
sg53
(lp4279
I2758383128
asg44
VPT5M49.075728S
p4280
sg192
I14
sg193
VP0DT0H1M3.7833S
p4281
sg48
(dp4282
g50
VALG ContrA HCS
p4283
sg52
Nssa(dp4284
g217
I4106030681
sg218
I00
sg219
I00
sg220
(dp4285
g50
VE6 Shooter
p4286
sg52
Nssg223
(lp4287
sg225
I00
sg226
I01
sg227
I1
sg228
I0
sg229
I1
sg230
(dp4288
Vy
F14.6293726
sVx
F1.2759529999999999
sVz
F3.7000045799999999
ssg232
(dp4289
Vy
F5.6738179999999998
sVx
F19.558489999999999
sVz
F1.60589659
ssg234
I00
sg235
(dp4290
g50
VALGPredevonator
p4291
sg52
Nssg238
(lp4292
sg240
(lp4293
(dp4294
g50
VE6 Cratos HCS
p4295
sg52
Nsasg244
I00
sg44
VPT5M50.1887254S
p4296
sg41
VDeath
p4297
sg247
I1
sa(dp4298
g41
VMedal
p4299
sg48
(dp4300
g50
VE6 Huke HCS
p4301
sg52
Nssg252
I824733727
sg44
VPT5M50.1907465S
p4302
sa(dp4303
g41
VMedal
p4304
sg48
(dp4305
g50
VE6 Shooter
p4306
sg52
Nssg252
I3491849182
sg44
VPT5M50.1907465S
p4307
sa(dp4308
g47
I4096745987
sg41
VWeaponDrop
p4309
sg189
I7
sg53
(lp4310
I2758383128
asg44
VPT5M50.1917284S
p4311
sg192
I1
sg193
VP0DT0H0M15.1333S
p4312
sg48
(dp4313
g50
VALGPredevonator
p4314
sg52
Nssa(dp4315
g47
I313138863
sg41
VWeaponDrop
p4316
sg189
I0
sg53
(lp4317
I1095363701
asg44
VPT5M50.1917284S
p4318
sg192
I0
sg193
VP0DT0H0M1.4500S
p4319
sg48
(dp4320
g50
VALGPredevonator
p4321
sg52
Nssa(dp4322
g217
I4096745987
sg218
I00
sg219
I01
sg220
(dp4323
g50
VALG RyaNoob
p4324
sg52
Nssg223
(lp4325
I2758383128
asg225
I00
sg226
I00
sg227
I1
sg228
I0
sg229
I1
sg230
(dp4326
Vy
F13.3908682
sVx
F18.100095700000001
sVz
F2.0600447700000002
ssg232
(dp4327
Vy
F13.0686445
sVx
F17.825435599999999
sVz
F2.2078920000000002
ssg234
I00
sg235
(dp4328
g50
VE6 Huke HCS
p4329
sg52
Nssg238
(lp4330
sg240
(lp4331
(dp4332
g50
VALGPredevonator
p4333
sg52
Nsasg244
I00
sg44
VPT5M51.0227421S
p4334
sg41
VDeath
p4335
sg247
I1
sa(dp4336
g41
VMedal
p4337
sg48
(dp4338
g50
VALG RyaNoob
p4339
sg52
Nssg252
I2287626681
sg44
VPT5M51.0237644S
p4340
sa(dp4341
g41
VMedal
p4342
sg48
(dp4343
g50
VALG RyaNoob
p4344
sg52
Nssg252
I2078758684
sg44
VPT5M51.0247487S
p4345
sa(dp4346
g47
I313138863
sg41
VWeaponDrop
p4347
sg189
I3
sg53
(lp4348
I1095363701
asg44
VPT5M51.0247487S
p4349
sg192
I0
sg193
VP0DT0H0M3.0333S
p4350
sg48
(dp4351
g50
VE6 Huke HCS
p4352
sg52
Nssa(dp4353
g47
I4096745987
sg41
VWeaponDrop
p4354
sg189
I16
sg53
(lp4355
I2758383128
asg44
VPT5M51.0257897S
p4356
sg192
I7
sg193
VP0DT0H0M19.7667S
p4357
sg48
(dp4358
g50
VE6 Huke HCS
p4359
sg52
Nssa(dp4360
g41
VMedal
p4361
sg48
(dp4362
g50
VALG RyaNoob
p4363
sg52
Nssg252
I3565443938
sg44
VPT5M53.3888103S
p4364
sa(dp4365
g41
VMedal
p4366
sg48
(dp4367
g50
VALGPredevonator
p4368
sg52
Nssg252
I1637841390
sg44
VPT5M53.3888103S
p4369
sa(dp4370
g41
VMedal
p4371
sg48
(dp4372
g50
VE6 Shooter
p4373
sg52
Nssg252
I3400287617
sg44
VPT5M53.6218121S
p4374
sa(dp4375
g47
I313138863
sg48
(dp4376
g50
VE6 Cratos HCS
p4377
sg52
Nssg53
(lp4378
I1095363701
asg41
VWeaponPickup
p4379
sg44
VPT5M55.3558248S
p4380
sa(dp4381
g47
I4096745987
sg48
(dp4382
g50
VE6 Cratos HCS
p4383
sg52
Nssg53
(lp4384
I2758383128
asg41
VWeaponPickup
p4385
sg44
VPT5M55.3568538S
p4386
sa(dp4387
g41
VPlayerSpawn
p4388
sg48
(dp4389
g50
VE6 Cratos HCS
p4390
sg52
Nssg44
VPT5M55.3568538S
p4391
sa(dp4392
g47
I313138863
sg41
VWeaponDrop
p4393
sg189
I0
sg53
(lp4394
I1095363701
asg44
VPT5M56.8548742S
p4395
sg192
I0
sg193
VP0DT0H0M0.8000S
p4396
sg48
(dp4397
g50
VALG RyaNoob
p4398
sg52
Nssa(dp4399
g47
I723388907
sg48
(dp4400
g50
VALG RyaNoob
p4401
sg52
Nssg53
(lp4402
I89283061
asg41
VWeaponPickup
p4403
sg44
VPT5M56.8548742S
p4404
sa(dp4405
g47
I313138863
sg48
(dp4406
g50
VALG ContrA HCS
p4407
sg52
Nssg53
(lp4408
I1095363701
asg41
VWeaponPickup
p4409
sg44
VPT5M57.0898784S
p4410
sa(dp4411
g47
I4096745987
sg48
(dp4412
g50
VALG ContrA HCS
p4413
sg52
Nssg53
(lp4414
I2758383128
asg41
VWeaponPickup
p4415
sg44
VPT5M57.0898784S
p4416
sa(dp4417
g41
VPlayerSpawn
p4418
sg48
(dp4419
g50
VALG ContrA HCS
p4420
sg52
Nssg44
VPT5M57.0898784S
p4421
sa(dp4422
g47
I313138863
sg48
(dp4423
g50
VALGPredevonator
p4424
sg52
Nssg53
(lp4425
I1095363701
asg41
VWeaponPickup
p4426
sg44
VPT5M58.2058795S
p4427
sa(dp4428
g47
I4096745987
sg48
(dp4429
g50
VALGPredevonator
p4430
sg52
Nssg53
(lp4431
I2758383128
asg41
VWeaponPickup
p4432
sg44
VPT5M58.2069005S
p4433
sa(dp4434
g41
VPlayerSpawn
p4435
sg48
(dp4436
g50
VALGPredevonator
p4437
sg52
Nssg44
VPT5M58.2069005S
p4438
sa(dp4439
g47
I313138863
sg48
(dp4440
g50
VE6 Huke HCS
p4441
sg52
Nssg53
(lp4442
I1095363701
asg41
VWeaponPickup
p4443
sg44
VPT5M59.039915S
p4444
sa(dp4445
g47
I4096745987
sg48
(dp4446
g50
VE6 Huke HCS
p4447
sg52
Nssg53
(lp4448
I2758383128
asg41
VWeaponPickup
p4449
sg44
VPT5M59.039915S
p4450
sa(dp4451
g41
VPlayerSpawn
p4452
sg48
(dp4453
g50
VE6 Huke HCS
p4454
sg52
Nssg44
VPT5M59.039915S
p4455
sa(dp4456
g217
I723388907
sg218
I00
sg219
I00
sg220
(dp4457
g50
VALG RyaNoob
p4458
sg52
Nssg223
(lp4459
I89283061
asg225
I00
sg226
I01
sg227
I1
sg228
I0
sg229
I1
sg230
(dp4460
Vy
F14.677475899999999
sVx
F10.616551400000001
sVz
F3.7962393799999998
ssg232
(dp4461
Vy
F19.025926599999998
sVx
F10.5280275
sVz
F3.63194537
ssg234
I00
sg235
(dp4462
g50
VE6 Shooter
p4463
sg52
Nssg238
(lp4464
sg240
(lp4465
sg244
I00
sg44
VPT6M2.9059689S
p4466
sg41
VDeath
p4467
sg247
I1
sa(dp4468
g47
I313138863
sg41
VWeaponDrop
p4469
sg189
I15
sg53
(lp4470
I1095363701
asg44
VPT6M2.9079787S
p4471
sg192
I5
sg193
VP0DT0H0M6.9667S
p4472
sg48
(dp4473
g50
VE6 Shooter
p4474
sg52
Nssa(dp4475
g47
I4096745987
sg41
VWeaponDrop
p4476
sg189
I8
sg53
(lp4477
I2758383128
asg44
VPT6M2.9079787S
p4478
sg192
I4
sg193
VP0DT0H0M22.3000S
p4479
sg48
(dp4480
g50
VE6 Shooter
p4481
sg52
Nssa(dp4482
g47
I313138863
sg41
VWeaponDrop
p4483
sg189
I0
sg53
(lp4484
I1095363701
asg44
VPT6M8.5380801S
p4485
sg192
I0
sg193
VP0DT0H0M2.4000S
p4486
sg48
(dp4487
g50
VE6 Cratos HCS
p4488
sg52
Nssa(dp4489
g47
I2015271382
sg48
(dp4490
g50
VE6 Cratos HCS
p4491
sg52
Nssg53
(lp4492
I2758383128
asg41
VWeaponPickup
p4493
sg44
VPT6M8.5380801S
p4494
sa(dp4495
g47
I313138863
sg48
(dp4496
g50
VE6 Shooter
p4497
sg52
Nssg53
(lp4498
I1095363701
asg41
VWeaponPickup
p4499
sg44
VPT6M10.9231445S
p4500
sa(dp4501
g47
I4096745987
sg48
(dp4502
g50
VE6 Shooter
p4503
sg52
Nssg53
(lp4504
I2758383128
asg41
VWeaponPickup
p4505
sg44
VPT6M10.9231445S
p4506
sa(dp4507
g41
VPlayerSpawn
p4508
sg48
(dp4509
g50
VE6 Shooter
p4510
sg52
Nssg44
VPT6M10.9231445S
p4511
sa(dp4512
g217
I4096745987
sg218
I00
sg219
I00
sg220
(dp4513
g50
VE6 bubu dubu
p4514
sg52
Nssg223
(lp4515
I2758383128
asg225
I00
sg226
I01
sg227
I1
sg228
I0
sg229
I1
sg230
(dp4516
Vy
F-16.987051000000001
sVx
F9.8624840000000003
sVz
F0.80000305199999999
ssg232
(dp4517
Vy
F-13.917697
sVx
F11.664012
sVz
F0.9394692
ssg234
I00
sg235
(dp4518
g50
VALG Heinz HCS
p4519
sg52
Nssg238
(lp4520
sg240
(lp4521
(dp4522
g50
VE6 Huke HCS
p4523
sg52
Nsasg244
I00
sg44
VPT6M11.3051312S
p4524
sg41
VDeath
p4525
sg247
I1
sa(dp4526
g41
VImpulse
p4527
sg48
(dp4528
g50
VE6 bubu dubu
p4529
sg52
Nssg290
I2556889090
sg44
VPT6M11.3061318S
p4530
sa(dp4531
g41
VMedal
p4532
sg48
(dp4533
g50
VE6 bubu dubu
p4534
sg52
Nssg252
I2838259753
sg44
VPT6M11.3061318S
p4535
sa(dp4536
g47
I313138863
sg41
VWeaponDrop
p4537
sg189
I0
sg53
(lp4538
I1095363701
asg44
VPT6M11.3081331S
p4539
sg192
I0
sg193
VP0DT0H0M0.8500S
p4540
sg48
(dp4541
g50
VALG Heinz HCS
p4542
sg52
Nssa(dp4543
g47
I4096745987
sg41
VWeaponDrop
p4544
sg189
I37
sg53
(lp4545
I2758383128
asg44
VPT6M11.3081331S
p4546
sg192
I18
sg193
VP0DT0H1M14.1333S
p4547
sg48
(dp4548
g50
VALG Heinz HCS
p4549
sg52
Nssa(dp4550
g217
I4106030681
sg218
I00
sg219
I00
sg220
(dp4551
g50
VALG RyaNoob
p4552
sg52
Nssg223
(lp4553
sg225
I00
sg226
I01
sg227
I1
sg228
I0
sg229
I1
sg230
(dp4554
Vy
F8.2524599999999992
sVx
F14.1773138
sVz
F2.1734423600000001
ssg232
(dp4555
Vy
F-8.9535400000000003
sVx
F9.0638769999999997
sVz
F3.1403932600000002
ssg234
I00
sg235
(dp4556
g50
VE6 Cratos HCS
p4557
sg52
Nssg238
(lp4558
sg240
(lp4559
(dp4560
g50
VALGPredevonator
p4561
sg52
Nsa(dp4562
g50
VALG ContrA HCS
p4563
sg52
Nsasg244
I00
sg44
VPT6M11.5221349S
p4564
sg41
VDeath
p4565
sg247
I1
sa(dp4566
g41
VImpulse
p4567
sg48
(dp4568
g50
VALG RyaNoob
p4569
sg52
Nssg290
I2556889090
sg44
VPT6M11.5221349S
p4570
sa(dp4571
g41
VMedal
p4572
sg48
(dp4573
g50
VALG RyaNoob
p4574
sg52
Nssg252
I352859864
sg44
VPT6M11.5221349S
p4575
sa(dp4576
g41
VMedal
p4577
sg48
(dp4578
g50
VALG RyaNoob
p4579
sg52
Nssg252
I3491849182
sg44
VPT6M11.5231579S
p4580
sa(dp4581
g47
I2015271382
sg41
VWeaponDrop
p4582
sg189
I6
sg53
(lp4583
I2758383128
asg44
VPT6M11.5241372S
p4584
sg192
I5
sg193
VP0DT0H0M1.6333S
p4585
sg48
(dp4586
g50
VE6 Cratos HCS
p4587
sg52
Nssa(dp4588
g47
I4096745987
sg41
VWeaponDrop
p4589
sg189
I2
sg53
(lp4590
I2758383128
asg44
VPT6M11.5241372S
p4591
sg192
I0
sg193
VP0DT0H0M12.1333S
p4592
sg48
(dp4593
g50
VE6 Cratos HCS
p4594
sg52
Nssa(dp4595
g217
I4096745987
sg218
I00
sg219
I00
sg220
(dp4596
g50
VE6 bubu dubu
p4597
sg52
Nssg223
(lp4598
I2758383128
asg225
I00
sg226
I01
sg227
I1
sg228
I0
sg229
I1
sg230
(dp4599
Vy
F-17.295354799999998
sVx
F17.233264900000002
sVz
F1.6009998299999999
ssg232
(dp4600
Vy
F-11.2684765
sVx
F18.8851528
sVz
F1.6166646499999999
ssg234
I00
sg235
(dp4601
g50
VALGPredevonator
p4602
sg52
Nssg238
(lp4603
sg240
(lp4604
sg244
I01
sg44
VPT6M16.9052391S
p4605
sg41
VDeath
p4606
sg247
I1
sa(dp4607
g41
VMedal
p4608
sg48
(dp4609
g50
VE6 bubu dubu
p4610
sg52
Nssg252
I3261908037
sg44
VPT6M16.9072406S
p4611
sa(dp4612
g47
I313138863
sg41
VWeaponDrop
p4613
sg189
I6
sg53
(lp4614
I1095363701
asg44
VPT6M16.9082575S
p4615
sg192
I3
sg193
VP0DT0H0M1.8667S
p4616
sg48
(dp4617
g50
VALGPredevonator
p4618
sg52
Nssa(dp4619
g47
I4096745987
sg41
VWeaponDrop
p4620
sg189
I8
sg53
(lp4621
I2758383128
asg44
VPT6M16.9082575S
p4622
sg192
I6
sg193
VP0DT0H0M16.8333S
p4623
sg48
(dp4624
g50
VALGPredevonator
p4625
sg52
Nssa(dp4626
g47
I313138863
sg48
(dp4627
g50
VALG Heinz HCS
p4628
sg52
Nssg53
(lp4629
I1095363701
asg41
VWeaponPickup
p4630
sg44
VPT6M19.3222853S
p4631
sa(dp4632
g47
I4096745987
sg48
(dp4633
g50
VALG Heinz HCS
p4634
sg52
Nssg53
(lp4635
I2758383128
asg41
VWeaponPickup
p4636
sg44
VPT6M19.3232869S
p4637
sa(dp4638
g41
VPlayerSpawn
p4639
sg48
(dp4640
g50
VALG Heinz HCS
p4641
sg52
Nssg44
VPT6M19.3232869S
p4642
sa(dp4643
g47
I313138863
sg48
(dp4644
g50
VE6 Cratos HCS
p4645
sg52
Nssg53
(lp4646
I1095363701
asg41
VWeaponPickup
p4647
sg44
VPT6M19.5392898S
p4648
sa(dp4649
g47
I4096745987
sg48
(dp4650
g50
VE6 Cratos HCS
p4651
sg52
Nssg53
(lp4652
I2758383128
asg41
VWeaponPickup
p4653
sg44
VPT6M19.5392898S
p4654
sa(dp4655
g41
VPlayerSpawn
p4656
sg48
(dp4657
g50
VE6 Cratos HCS
p4658
sg52
Nssg44
VPT6M19.5392898S
p4659
sa(dp4660
g217
I4096745987
sg218
I00
sg219
I00
sg220
(dp4661
g50
VE6 Huke HCS
p4662
sg52
Nssg223
(lp4663
I2758383128
asg225
I00
sg226
I01
sg227
I1
sg228
I0
sg229
I1
sg230
(dp4664
Vy
F-12.190175099999999
sVx
F8.7664530000000003
sVz
F2.5285136700000002
ssg232
(dp4665
Vy
F-2.65125155
sVx
F1.30478764
sVz
F2.5064661500000001
ssg234
I00
sg235
(dp4666
g50
VALG RyaNoob
p4667
sg52
Nssg238
(lp4668
sg240
(lp4669
(dp4670
g50
VE6 Shooter
p4671
sg52
Nsasg244
I01
sg44
VPT6M20.7223108S
p4672
sg41
VDeath
p4673
sg247
I1
sa(dp4674
g41
VMedal
p4675
sg48
(dp4676
g50
VE6 Huke HCS
p4677
sg52
Nssg252
I3261908037
sg44
VPT6M20.7233436S
p4678
sa(dp4679
g47
I723388907
sg41
VWeaponDrop
p4680
sg189
I43
sg53
(lp4681
I89283061
asg44
VPT6M20.7243211S
p4682
sg192
I20
sg193
VP0DT0H0M11.3167S
p4683
sg48
(dp4684
g50
VALG RyaNoob
p4685
sg52
Nssa(dp4686
g47
I4096745987
sg41
VWeaponDrop
p4687
sg189
I10
sg53
(lp4688
I2758383128
asg44
VPT6M20.7243211S
p4689
sg192
I6
sg193
VP0DT0H0M26.5667S
p4690
sg48
(dp4691
g50
VALG RyaNoob
p4692
sg52
Nssa(dp4693
g47
I4096745987
sg41
VWeaponDrop
p4694
sg189
I0
sg53
(lp4695
I2758383128
asg44
VPT6M20.7243211S
p4696
sg192
I0
sg193
VP0DT0S
p4697
sg48
(dp4698
g50
VALG RyaNoob
p4699
sg52
Nssa(dp4700
g47
I313138863
sg41
VWeaponDrop
p4701
sg189
I0
sg53
(lp4702
I1095363701
asg44
VPT6M21.7373487S
p4703
sg192
I0
sg193
VP0DT0H0M0.6333S
p4704
sg48
(dp4705
g50
VALG ContrA HCS
p4706
sg52
Nssa(dp4707
g47
I2902827823
sg48
(dp4708
g50
VALG ContrA HCS
p4709
sg52
Nssg53
(lp4710
I2758383128
asg41
VWeaponPickupPad
p4711
sg44
VPT6M21.7373487S
p4712
sa(dp4713
g47
I2902827823
sg48
(dp4714
g50
VALG ContrA HCS
p4715
sg52
Nssg53
(lp4716
I2758383128
asg41
VWeaponPickup
p4717
sg44
VPT6M21.73835S
p4718
sa(dp4719
g47
I313138863
sg48
(dp4720
g50
VALGPredevonator
p4721
sg52
Nssg53
(lp4722
I1095363701
asg41
VWeaponPickup
p4723
sg44
VPT6M24.9234159S
p4724
sa(dp4725
g47
I4096745987
sg48
(dp4726
g50
VALGPredevonator
p4727
sg52
Nssg53
(lp4728
I2758383128
asg41
VWeaponPickup
p4729
sg44
VPT6M24.9234159S
p4730
sa(dp4731
g41
VPlayerSpawn
p4732
sg48
(dp4733
g50
VALGPredevonator
p4734
sg52
Nssg44
VPT6M24.9234159S
p4735
sa(dp4736
g47
I4096745987
sg41
VWeaponDrop
p4737
sg189
I3
sg53
(lp4738
I2758383128
asg44
VPT6M25.3874269S
p4739
sg192
I2
sg193
VP0DT0H0M11.5500S
p4740
sg48
(dp4741
g50
VE6 Shooter
p4742
sg52
Nssa(dp4743
g47
I424645655
sg48
(dp4744
g50
VE6 Shooter
p4745
sg52
Nssg53
(lp4746
I1327094800
asg41
VWeaponPickup
p4747
sg44
VPT6M25.3874269S
p4748
sa(dp4749
g41
VMedal
p4750
sg48
(dp4751
g50
VE6 Huke HCS
p4752
sg52
Nssg252
I3565443938
sg44
VPT6M26.971432S
p4753
sa(dp4754
g41
VMedal
p4755
sg48
(dp4756
g50
VE6 bubu dubu
p4757
sg52
Nssg252
I3565443938
sg44
VPT6M26.971432S
p4758
sa(dp4759
g41
VMedal
p4760
sg48
(dp4761
g50
VE6 Cratos HCS
p4762
sg52
Nssg252
I1637841390
sg44
VPT6M26.971432S
p4763
sa(dp4764
g47
I313138863
sg48
(dp4765
g50
VALG RyaNoob
p4766
sg52
Nssg53
(lp4767
I1095363701
asg41
VWeaponPickup
p4768
sg44
VPT6M28.7384654S
p4769
sa(dp4770
g47
I4096745987
sg48
(dp4771
g50
VALG RyaNoob
p4772
sg52
Nssg53
(lp4773
I2758383128
asg41
VWeaponPickup
p4774
sg44
VPT6M28.7394849S
p4775
sa(dp4776
g41
VPlayerSpawn
p4777
sg48
(dp4778
g50
VALG RyaNoob
p4779
sg52
Nssg44
VPT6M28.7394849S
p4780
sa(dp4781
g217
I424645655
sg218
I00
sg219
I00
sg220
(dp4782
g50
VE6 Shooter
p4783
sg52
Nssg223
(lp4784
I1327094800
asg225
I00
sg226
I01
sg227
I1
sg228
I0
sg229
I1
sg230
(dp4785
Vy
F8.0622509999999998
sVx
F-7.7694650000000003
sVz
F0.78202116499999996
ssg232
(dp4786
Vy
F8.4281100000000002
sVx
F-4.924518
sVz
F1.2981750999999999
ssg234
I00
sg235
(dp4787
g50
VALG Heinz HCS
p4788
sg52
Nssg238
(lp4789
sg240
(lp4790
(dp4791
g50
VE6 Cratos HCS
p4792
sg52
Nsasg244
I00
sg44
VPT6M33.8555645S
p4793
sg41
VDeath
p4794
sg247
I1
sa(dp4795
g41
VImpulse
p4796
sg48
(dp4797
g50
VE6 Shooter
p4798
sg52
Nssg290
I2556889090
sg44
VPT6M33.8555645S
p4799
sa(dp4800
g41
VMedal
p4801
sg48
(dp4802
g50
VE6 Shooter
p4803
sg52
Nssg252
I2838259753
sg44
VPT6M33.8555645S
p4804
sa(dp4805
g47
I313138863
sg41
VWeaponDrop
p4806
sg189
I3
sg53
(lp4807
I1095363701
asg44
VPT6M33.8565867S
p4808
sg192
I3
sg193
VP0DT0H0M4.8167S
p4809
sg48
(dp4810
g50
VALG Heinz HCS
p4811
sg52
Nssa(dp4812
g47
I4096745987
sg41
VWeaponDrop
p4813
sg189
I7
sg53
(lp4814
I2758383128
asg44
VPT6M33.8565867S
p4815
sg192
I2
sg193
VP0DT0H0M9.7167S
p4816
sg48
(dp4817
g50
VALG Heinz HCS
p4818
sg52
Nssa(dp4819
g41
VMedal
p4820
sg48
(dp4821
g50
VE6 bubu dubu
p4822
sg52
Nssg252
I2916014239
sg44
VPT6M39.1206835S
p4823
sa(dp4824
g217
I723388907
sg218
I00
sg219
I01
sg220
(dp4825
g50
VE6 bubu dubu
p4826
sg52
Nssg223
(lp4827
I89283061
asg225
I00
sg226
I00
sg227
I1
sg228
I0
sg229
I1
sg230
(dp4828
Vy
F3.8993440000000001
sVx
F4.112584
sVz
F3.7001528700000001
ssg232
(dp4829
Vy
F4.0744423899999997
sVx
F4.3605947499999997
sVz
F3.6060242699999998
ssg234
I00
sg235
(dp4830
g50
VALG RyaNoob
p4831
sg52
Nssg238
(lp4832
sg240
(lp4833
sg244
I00
sg44
VPT6M39.8556797S
p4834
sg41
VDeath
p4835
sg247
I1
sa(dp4836
g41
VMedal
p4837
sg48
(dp4838
g50
VE6 bubu dubu
p4839
sg52
Nssg252
I1351381581
sg44
VPT6M39.8566809S
p4840
sa(dp4841
g41
VMedal
p4842
sg48
(dp4843
g50
VE6 bubu dubu
p4844
sg52
Nssg252
I250435527
sg44
VPT6M39.8566809S
p4845
sa(dp4846
g47
I4096745987
sg41
VWeaponDrop
p4847
sg189
I2
sg53
(lp4848
I2758383128
asg44
VPT6M39.8576851S
p4849
sg192
I1
sg193
VP0DT0H0M10.3500S
p4850
sg48
(dp4851
g50
VALG RyaNoob
p4852
sg52
Nssa(dp4853
g47
I4096745987
sg41
VWeaponDrop
p4854
sg189
I0
sg53
(lp4855
I2758383128
asg44
VPT6M39.8576851S
p4856
sg192
I0
sg193
VP0DT0S
p4857
sg48
(dp4858
g50
VALG RyaNoob
p4859
sg52
Nssa(dp4860
g47
I313138863
sg41
VWeaponDrop
p4861
sg189
I0
sg53
(lp4862
I1095363701
asg44
VPT6M39.8587023S
p4863
sg192
I0
sg193
VP0DT0H0M0.7667S
p4864
sg48
(dp4865
g50
VALG RyaNoob
p4866
sg52
Nssa(dp4867
g47
I2492868984
sg48
(dp4868
g50
VE6 Huke HCS
p4869
sg52
Nssg53
(lp4870
I2758383128
asg41
VWeaponPickup
p4871
sg44
VPT6M40.7216962S
p4872
sa(dp4873
g47
I313138863
sg41
VWeaponDrop
p4874
sg189
I0
sg53
(lp4875
I1095363701
asg44
VPT6M41.0537042S
p4876
sg192
I0
sg193
VP0DT0H0M1.3833S
p4877
sg48
(dp4878
g50
VALGPredevonator
p4879
sg52
Nssa(dp4880
g47
I2015271382
sg48
(dp4881
g50
VALGPredevonator
p4882
sg52
Nssg53
(lp4883
I2758383128
asg41
VWeaponPickup
p4884
sg44
VPT6M41.0537042S
p4885
sa(dp4886
g47
I2492868984
sg41
VWeaponDrop
p4887
sg189
I0
sg53
(lp4888
I2758383128
asg44
VPT6M41.8557237S
p4889
sg192
I0
sg193
VP0DT0H0M0.9833S
p4890
sg48
(dp4891
g50
VE6 Huke HCS
p4892
sg52
Nssa(dp4893
g47
I313138863
sg48
(dp4894
g50
VALG Heinz HCS
p4895
sg52
Nssg53
(lp4896
I1095363701
asg41
VWeaponPickup
p4897
sg44
VPT6M41.8717182S
p4898
sa(dp4899
g47
I4096745987
sg48
(dp4900
g50
VALG Heinz HCS
p4901
sg52
Nssg53
(lp4902
I2758383128
asg41
VWeaponPickup
p4903
sg44
VPT6M41.8727375S
p4904
sa(dp4905
g41
VPlayerSpawn
p4906
sg48
(dp4907
g50
VALG Heinz HCS
p4908
sg52
Nssg44
VPT6M41.8727375S
p4909
sa(dp4910
g41
VMedal
p4911
sg48
(dp4912
g50
VALGPredevonator
p4913
sg52
Nssg252
I3565443938
sg44
VPT6M44.0547599S
p4914
sa(dp4915
g41
VMedal
p4916
sg48
(dp4917
g50
VALG ContrA HCS
p4918
sg52
Nssg252
I1637841390
sg44
VPT6M44.0547599S
p4919
sa(dp4920
g47
I313138863
sg41
VWeaponDrop
p4921
sg189
I0
sg53
(lp4922
I1095363701
asg44
VPT6M44.0707796S
p4923
sg192
I0
sg193
VP0DT0H0M3.7167S
p4924
sg48
(dp4925
g50
VE6 Shooter
p4926
sg52
Nssa(dp4927
g47
I723388907
sg48
(dp4928
g50
VE6 Shooter
p4929
sg52
Nssg53
(lp4930
I89283061
asg41
VWeaponPickup
p4931
sg44
VPT6M44.0707796S
p4932
sa(dp4933
g217
I4096745987
sg218
I00
sg219
I00
sg220
(dp4934
g50
VALG ContrA HCS
p4935
sg52
Nssg223
(lp4936
I2758383128
asg225
I00
sg226
I01
sg227
I1
sg228
I0
sg229
I1
sg230
(dp4937
Vy
F-14.8913631
sVx
F18.7731514
sVz
F1.6008182799999999
ssg232
(dp4938
Vy
F-6.9843874000000001
sVx
F20.52083
sVz
F2.3995327899999999
ssg234
I00
sg235
(dp4939
g50
VE6 Cratos HCS
p4940
sg52
Nssg238
(lp4941
sg240
(lp4942
(dp4943
g50
VALGPredevonator
p4944
sg52
Nsasg244
I01
sg44
VPT6M45.4717868S
p4945
sg41
VDeath
p4946
sg247
I1
sa(dp4947
g41
VImpulse
p4948
sg48
(dp4949
g50
VALG ContrA HCS
p4950
sg52
Nssg290
I2556889090
sg44
VPT6M45.4717868S
p4951
sa(dp4952
g41
VMedal
p4953
sg48
(dp4954
g50
VALG ContrA HCS
p4955
sg52
Nssg252
I2838259753
sg44
VPT6M45.4717868S
p4956
sa(dp4957
g41
VMedal
p4958
sg48
(dp4959
g50
VALG ContrA HCS
p4960
sg52
Nssg252
I3261908037
sg44
VPT6M45.4728049S
p4961
sa(dp4962
g47
I4096745987
sg41
VWeaponDrop
p4963
sg189
I16
sg53
(lp4964
I2758383128
asg44
VPT6M45.4737873S
p4965
sg192
I4
sg193
VP0DT0H0M20.1500S
p4966
sg48
(dp4967
g50
VE6 Cratos HCS
p4968
sg52
Nssa(dp4969
g47
I313138863
sg41
VWeaponDrop
p4970
sg189
I15
sg53
(lp4971
I1095363701
asg44
VPT6M45.4737873S
p4972
sg192
I5
sg193
VP0DT0H0M5.7833S
p4973
sg48
(dp4974
g50
VE6 Cratos HCS
p4975
sg52
Nssa(dp4976
g217
I313138863
sg218
I00
sg219
I00
sg220
(dp4977
g50
VE6 Huke HCS
p4978
sg52
Nssg223
(lp4979
I1095363701
asg225
I00
sg226
I01
sg227
I1
sg228
I0
sg229
I1
sg230
(dp4980
Vy
F-9.3983319999999999
sVx
F16.4384689
sVz
F2.80349731
ssg232
(dp4981
Vy
F-9.4592399999999994
sVx
F10.8255692
sVz
F3.1403884899999999
ssg234
I00
sg235
(dp4982
g50
VALGPredevonator
p4983
sg52
Nssg238
(lp4984
sg240
(lp4985
(dp4986
g50
VE6 Cratos HCS
p4987
sg52
Nsasg244
I00
sg44
VPT6M45.4887867S
p4988
sg41
VDeath
p4989
sg247
I1
sa(dp4990
g47
I2015271382
sg41
VWeaponDrop
p4991
sg189
I9
sg53
(lp4992
I2758383128
asg44
VPT6M45.4907893S
p4993
sg192
I4
sg193
VP0DT0H0M2.2833S
p4994
sg48
(dp4995
g50
VALGPredevonator
p4996
sg52
Nssa(dp4997
g47
I4096745987
sg41
VWeaponDrop
p4998
sg189
I14
sg53
(lp4999
I2758383128
asg44
VPT6M45.4907893S
p5000
sg192
I11
sg193
VP0DT0H0M16.9000S
p5001
sg48
(dp5002
g50
VALGPredevonator
p5003
sg52
Nssa(dp5004
g47
I313138863
sg48
(dp5005
g50
VALG RyaNoob
p5006
sg52
Nssg53
(lp5007
I1095363701
asg41
VWeaponPickup
p5008
sg44
VPT6M47.8718546S
p5009
sa(dp5010
g47
I4096745987
sg48
(dp5011
g50
VALG RyaNoob
p5012
sg52
Nssg53
(lp5013
I2758383128
asg41
VWeaponPickup
p5014
sg44
VPT6M47.8718546S
p5015
sa(dp5016
g41
VPlayerSpawn
p5017
sg48
(dp5018
g50
VALG RyaNoob
p5019
sg52
Nssg44
VPT6M47.8718546S
p5020
sa(dp5021
g217
I4096745987
sg218
I00
sg219
I00
sg220
(dp5022
g50
VE6 Huke HCS
p5023
sg52
Nssg223
(lp5024
I2758383128
asg225
I00
sg226
I01
sg227
I1
sg228
I0
sg229
I1
sg230
(dp5025
Vy
F-7.4803557400000003
sVx
F18.784009999999999
sVz
F2.0679069999999999
ssg232
(dp5026
Vy
F-15.3012047
sVx
F20.53444
sVz
F1.6007344699999999
ssg234
I00
sg235
(dp5027
g50
VALG ContrA HCS
p5028
sg52
Nssg238
(lp5029
sg240
(lp5030
sg244
I01
sg44
VPT6M50.7208875S
p5031
sg41
VDeath
p5032
sg247
I1
sa(dp5033
g41
VImpulse
p5034
sg48
(dp5035
g50
VE6 Huke HCS
p5036
sg52
Nssg290
I3174430457
sg44
VPT6M50.722911S
p5037
sa(dp5038
g41
VMedal
p5039
sg48
(dp5040
g50
VE6 Huke HCS
p5041
sg52
Nssg252
I3653057799
sg44
VPT6M50.7239112S
p5042
sa(dp5043
g47
I2902827823
sg41
VWeaponDrop
p5044
sg189
I4
sg53
(lp5045
I2758383128
asg44
VPT6M50.7239112S
p5046
sg192
I4
sg193
VP0DT0H0M23.9500S
p5047
sg48
(dp5048
g50
VALG ContrA HCS
p5049
sg52
Nssa(dp5050
g47
I4096745987
sg41
VWeaponDrop
p5051
sg189
I15
sg53
(lp5052
I2758383128
asg44
VPT6M50.7239112S
p5053
sg192
I8
sg193
VP0DT0H0M29.0500S
p5054
sg48
(dp5055
g50
VALG ContrA HCS
p5056
sg52
Nssa(dp5057
g217
I313138863
sg218
I00
sg219
I00
sg220
(dp5058
g50
VALG Heinz HCS
p5059
sg52
Nssg223
(lp5060
I1095363701
asg225
I00
sg226
I01
sg227
I1
sg228
I0
sg229
I1
sg230
(dp5061
Vy
F-8.4281970000000008
sVx
F17.597305299999999
sVz
F3.0992531799999998
ssg232
(dp5062
Vy
F-7.5052022899999997
sVx
F18.3542919
sVz
F2.2219190000000002
ssg234
I00
sg235
(dp5063
g50
VE6 Huke HCS
p5064
sg52
Nssg238
(lp5065
sg240
(lp5066
(dp5067
g50
VALG ContrA HCS
p5068
sg52
Nsasg244
I00
sg44
VPT6M50.8548899S
p5069
sg41
VDeath
p5070
sg247
I1
sa(dp5071
g47
I313138863
sg41
VWeaponDrop
p5072
sg189
I21
sg53
(lp5073
I1095363701
asg44
VPT6M50.8569102S
p5074
sg192
I5
sg193
VP0DT0H0M11.8667S
p5075
sg48
(dp5076
g50
VE6 Huke HCS
p5077
sg52
Nssa(dp5078
g47
I4096745987
sg41
VWeaponDrop
p5079
sg189
I20
sg53
(lp5080
I2758383128
asg44
VPT6M50.8569102S
p5081
sg192
I12
sg193
VP0DT0H0M38.9500S
p5082
sg48
(dp5083
g50
VE6 Huke HCS
p5084
sg52
Nssa(dp5085
g41
VMedal
p5086
sg48
(dp5087
g50
VE6 Shooter
p5088
sg52
Nssg252
I3565443938
sg44
VPT6M52.1209149S
p5089
sa(dp5090
g41
VMedal
p5091
sg48
(dp5092
g50
VE6 bubu dubu
p5093
sg52
Nssg252
I3565443938
sg44
VPT6M52.1209149S
p5094
sa(dp5095
g47
I313138863
sg48
(dp5096
g50
VE6 Cratos HCS
p5097
sg52
Nssg53
(lp5098
I1095363701
asg41
VWeaponPickup
p5099
sg44
VPT6M53.4889415S
p5100
sa(dp5101
g47
I4096745987
sg48
(dp5102
g50
VE6 Cratos HCS
p5103
sg52
Nssg53
(lp5104
I2758383128
asg41
VWeaponPickup
p5105
sg44
VPT6M53.4889415S
p5106
sa(dp5107
g41
VPlayerSpawn
p5108
sg48
(dp5109
g50
VE6 Cratos HCS
p5110
sg52
Nssg44
VPT6M53.4889415S
p5111
sa(dp5112
g47
I313138863
sg48
(dp5113
g50
VALGPredevonator
p5114
sg52
Nssg53
(lp5115
I1095363701
asg41
VWeaponPickup
p5116
sg44
VPT6M53.5059666S
p5117
sa(dp5118
g47
I4096745987
sg48
(dp5119
g50
VALGPredevonator
p5120
sg52
Nssg53
(lp5121
I2758383128
asg41
VWeaponPickup
p5122
sg44
VPT6M53.5059666S
p5123
sa(dp5124
g41
VPlayerSpawn
p5125
sg48
(dp5126
g50
VALGPredevonator
p5127
sg52
Nssg44
VPT6M53.5059666S
p5128
sa(dp5129
g47
I313138863
sg48
(dp5130
g50
VALG ContrA HCS
p5131
sg52
Nssg53
(lp5132
I1095363701
asg41
VWeaponPickup
p5133
sg44
VPT6M58.7380421S
p5134
sa(dp5135
g47
I4096745987
sg48
(dp5136
g50
VALG ContrA HCS
p5137
sg52
Nssg53
(lp5138
I2758383128
asg41
VWeaponPickup
p5139
sg44
VPT6M58.7390605S
p5140
sa(dp5141
g41
VPlayerSpawn
p5142
sg48
(dp5143
g50
VALG ContrA HCS
p5144
sg52
Nssg44
VPT6M58.7390605S
p5145
sa(dp5146
g47
I313138863
sg48
(dp5147
g50
VE6 Huke HCS
p5148
sg52
Nssg53
(lp5149
I1095363701
asg41
VWeaponPickup
p5150
sg44
VPT6M58.8720677S
p5151
sa(dp5152
g47
I4096745987
sg48
(dp5153
g50
VE6 Huke HCS
p5154
sg52
Nssg53
(lp5155
I2758383128
asg41
VWeaponPickup
p5156
sg44
VPT6M58.8720677S
p5157
sa(dp5158
g41
VPlayerSpawn
p5159
sg48
(dp5160
g50
VE6 Huke HCS
p5161
sg52
Nssg44
VPT6M58.8720677S
p5162
sa(dp5163
g217
I4106030681
sg218
I00
sg219
I00
sg220
(dp5164
g50
VE6 Shooter
p5165
sg52
Nssg223
(lp5166
sg225
I00
sg226
I01
sg227
I1
sg228
I0
sg229
I1
sg230
(dp5167
Vy
F12.311486199999999
sVx
F6.4798429999999998
sVz
F3.5372874699999999
ssg232
(dp5168
Vy
F-1.10672474
sVx
F4.49165964
sVz
F4.7268204699999998
ssg234
I00
sg235
(dp5169
g50
VALG RyaNoob
p5170
sg52
Nssg238
(lp5171
sg240
(lp5172
(dp5173
g50
VE6 bubu dubu
p5174
sg52
Nsa(dp5175
g50
VE6 Cratos HCS
p5176
sg52
Nsasg244
I00
sg44
VPT7M1.0880875S
p5177
sg41
VDeath
p5178
sg247
I1
sa(dp5179
g41
VMedal
p5180
sg48
(dp5181
g50
VE6 Shooter
p5182
sg52
Nssg252
I1351381581
sg44
VPT7M1.0891074S
p5183
sa(dp5184
g47
I313138863
sg41
VWeaponDrop
p5185
sg189
I0
sg53
(lp5186
I1095363701
asg44
VPT7M1.0891074S
p5187
sg192
I0
sg193
VP0DT0H0M0.7000S
p5188
sg48
(dp5189
g50
VALG RyaNoob
p5190
sg52
Nssa(dp5191
g47
I4096745987
sg41
VWeaponDrop
p5192
sg189
I4
sg53
(lp5193
I2758383128
asg44
VPT7M1.0891074S
p5194
sg192
I3
sg193
VP0DT0H0M12.5167S
p5195
sg48
(dp5196
g50
VALG RyaNoob
p5197
sg52
Nssa(dp5198
g217
I313138863
sg218
I00
sg219
I00
sg220
(dp5199
g50
VALG Heinz HCS
p5200
sg52
Nssg223
(lp5201
I1095363701
asg225
I00
sg226
I01
sg227
I1
sg228
I0
sg229
I1
sg230
(dp5202
Vy
F1.6617360000000001
sVx
F5.47653151
sVz
F3.7001574000000002
ssg232
(dp5203
Vy
F3.5610651999999998
sVx
F4.5852310000000003
sVz
F3.7001574000000002
ssg234
I00
sg235
(dp5204
g50
VE6 Cratos HCS
p5205
sg52
Nssg238
(lp5206
sg240
(lp5207
(dp5208
g50
VALGPredevonator
p5209
sg52
Nsasg244
I00
sg44
VPT7M2.3051437S
p5210
sg41
VDeath
p5211
sg247
I1
sa(dp5212
g47
I313138863
sg41
VWeaponDrop
p5213
sg189
I8
sg53
(lp5214
I1095363701
asg44
VPT7M2.3071376S
p5215
sg192
I0
sg193
VP0DT0H0M3.9333S
p5216
sg48
(dp5217
g50
VE6 Cratos HCS
p5218
sg52
Nssa(dp5219
g47
I4096745987
sg41
VWeaponDrop
p5220
sg189
I0
sg53
(lp5221
I2758383128
asg44
VPT7M2.3071376S
p5222
sg192
I0
sg193
VP0DT0H0M4.8833S
p5223
sg48
(dp5224
g50
VE6 Cratos HCS
p5225
sg52
Nssa(dp5226
g217
I424645655
sg218
I00
sg219
I00
sg220
(dp5227
g50
VE6 Shooter
p5228
sg52
Nssg223
(lp5229
I1327094800
asg225
I00
sg226
I01
sg227
I1
sg228
I0
sg229
I1
sg230
(dp5230
Vy
F10.61177
sVx
F5.88163328
sVz
F4.1826470000000002
ssg232
(dp5231
Vy
F1.9473058000000001
sVx
F5.1769780000000001
sVz
F3.7001574000000002
ssg234
I00
sg235
(dp5232
g50
VALG Heinz HCS
p5233
sg52
Nssg238
(lp5234
sg240
(lp5235
(dp5236
g50
VE6 bubu dubu
p5237
sg52
Nsasg244
I01
sg44
VPT7M2.5711154S
p5238
sg41
VDeath
p5239
sg247
I1
sa(dp5240
g41
VMedal
p5241
sg48
(dp5242
g50
VE6 Shooter
p5243
sg52
Nssg252
I1351381581
sg44
VPT7M2.5731393S
p5244
sa(dp5245
g41
VMedal
p5246
sg48
(dp5247
g50
VE6 Shooter
p5248
sg52
Nssg252
I3261908037
sg44
VPT7M2.5731393S
p5249
sa(dp5250
g41
VMedal
p5251
sg48
(dp5252
g50
VE6 Shooter
p5253
sg52
Nssg252
I2078758684
sg44
VPT7M2.5731393S
p5254
sa(dp5255
g47
I313138863
sg41
VWeaponDrop
p5256
sg189
I25
sg53
(lp5257
I1095363701
asg44
VPT7M2.5741412S
p5258
sg192
I12
sg193
VP0DT0H0M7.4167S
p5259
sg48
(dp5260
g50
VALG Heinz HCS
p5261
sg52
Nssa(dp5262
g47
I4096745987
sg41
VWeaponDrop
p5263
sg189
I3
sg53
(lp5264
I2758383128
asg44
VPT7M2.5741412S
p5265
sg192
I2
sg193
VP0DT0H0M13.2833S
p5266
sg48
(dp5267
g50
VALG Heinz HCS
p5268
sg52
Nssa(dp5269
g41
VMedal
p5270
sg48
(dp5271
g50
VE6 Huke HCS
p5272
sg52
Nssg252
I2916014239
sg44
VPT7M5.4201717S
p5273
sa(dp5274
g41
VRoundEnd
p5275
sg43
I0
sg44
VPT7M6.3541924S
p5276
sassba.