(lp1
cnumpy.core.multiarray
_reconstruct
p2
(cnumpy
ndarray
p3
(I0
tS'b'
tRp4
(I1
(I4
tcnumpy
dtype
p5
(S'U36'
I0
I1
tRp6
(I3
S'<'
NNNI144
I4
I8
tbI00
S'2\x00\x00\x000\x00\x00\x001\x00\x00\x006\x00\x00\x00-\x00\x00\x000\x00\x00\x007\x00\x00\x00-\x00\x00\x000\x00\x00\x002\x00\x00\x00\x00\x00\x00\x00\x00\x00\x00\x00\x00\x00\x00\x00\x00\x00\x00\x00\x00\x00\x00\x00\x00\x00\x00\x00\x00\x00\x00\x00\x00\x00\x00\x00\x00\x00\x00\x00\x00\x00\x00\x00\x00\x00\x00\x00\x00\x00\x00\x00\x00\x00\x00\x00\x00\x00\x00\x00\x00\x00\x00\x00\x00\x00\x00\x00\x00\x00\x00\x00\x00\x00\x00\x00\x00\x00\x00\x00\x00\x00\x00\x00\x00\x00\x00\x00\x00\x00\x00\x00\x00\x00\x00\x00\x00\x00\x00\x00\x00\x00\x00\x00\x00\x00\x00\x00F\x00\x00\x00a\x00\x00\x00t\x00\x00\x00h\x00\x00\x00o\x00\x00\x00m\x00\x00\x00\x00\x00\x00\x00\x00\x00\x00\x00\x00\x00\x00\x00\x00\x00\x00\x00\x00\x00\x00\x00\x00\x00\x00\x00\x00\x00\x00\x00\x00\x00\x00\x00\x00\x00\x00\x00\x00\x00\x00\x00\x00\x00\x00\x00\x00\x00\x00\x00\x00\x00\x00\x00\x00\x00\x00\x00\x00\x00\x00\x00\x00\x00\x00\x00\x00\x00\x00\x00\x00\x00\x00\x00\x00\x00\x00\x00\x00\x00\x00\x00\x00\x00\x00\x00\x00\x00\x00\x00\x00\x00\x00\x00\x00\x00\x00\x00\x00\x00\x00\x00\x00\x00\x00\x00\x00\x00\x00\x00\x00\x00\x00\x00\x00\x00\x00\x00\x00\x00\x00\x00C\x00\x00\x00a\x00\x00\x00p\x00\x00\x00t\x00\x00\x00u\x00\x00\x00r\x00\x00\x00e\x00\x00\x00 \x00\x00\x00t\x00\x00\x00h\x00\x00\x00e\x00\x00\x00 \x00\x00\x00F\x00\x00\x00l\x00\x00\x00a\x00\x00\x00g\x00\x00\x00\x00\x00\x00\x00\x00\x00\x00\x00\x00\x00\x00\x00\x00\x00\x00\x00\x00\x00\x00\x00\x00\x00\x00\x00\x00\x00\x00\x00\x00\x00\x00\x00\x00\x00\x00\x00\x00\x00\x00\x00\x00\x00\x00\x00\x00\x00\x00\x00\x00\x00\x00\x00\x00\x00\x00\x00\x00\x00\x00\x00\x00\x00\x00\x00\x00\x00\x00\x00\x00\x00\x00\x00\x00\x00\x00\x00\x00\x00\x00\x002\x00\x00\x009\x00\x00\x00b\x00\x00\x00a\x00\x00\x00a\x00\x00\x001\x00\x00\x006\x00\x00\x004\x00\x00\x00-\x00\x00\x003\x00\x00\x00e\x00\x00\x00f\x00\x00\x00b\x00\x00\x00-\x00\x00\x004\x00\x00\x00c\x00\x00\x006\x00\x00\x00b\x00\x00\x00-\x00\x00\x009\x00\x00\x003\x00\x00\x001\x00\x00\x007\x00\x00\x00-\x00\x00\x001\x00\x00\x00d\x00\x00\x00f\x00\x00\x009\x00\x00\x00a\x00\x00\x00c\x00\x00\x004\x00\x00\x002\x00\x00\x005\x00\x00\x006\x00\x00\x00c\x00\x00\x008\x00\x00\x00'
tba(lp7
S'tl'
p8
aS'alg'
p9
aaccopy_reg
_reconstructor
p10
(c__main__
match_breakdown
p11
c__builtin__
object
p12
NtRp13
(dp14
S'details'
p15
(dp16
VIsCompleteSetOfEvents
p17
I01
sVLinks
p18
(dp19
VUgcFilmManifest
p20
(dp21
VAuthenticationLifetimeExtensionSupported
p22
I00
sVQueryString
p23
V?view=film-manifest
p24
sVRetryPolicyId
p25
Vexponentialretry
p26
sVPath
p27
V/h5/films/29baa164-3efb-4c6b-9317-1df9ac4256c8
p28
sVAcknowledgementTypeId
p29
I0
sVAuthorityId
p30
Vugc
p31
sVTopicName
p32
V
ssVStatsMatchDetails
p33
(dp34
g22
I00
sg23
Nsg25
Vexponentialretry
p35
sg27
Vh5/custom/matches/29baa164-3efb-4c6b-9317-1df9ac4256c8
p36
sg29
I0
sg30
Vspartanstats
p37
sg32
V
sssVGameEvents
p38
(lp39
(dp40
VEventName
p41
VRoundStart
p42
sVRoundIndex
p43
I0
sVTimeSinceStart
p44
VPT0.1069988S
p45
sa(dp46
VWeaponStockId
p47
I313138863
sVPlayer
p48
(dp49
VGamertag
p50
VTL Danoxide
p51
sVXuid
p52
NssVWeaponAttachmentIds
p53
(lp54
I1095363701
asg41
VWeaponPickup
p55
sg44
VPT17.400126S
p56
sa(dp57
g47
I4096745987
sg48
(dp58
g50
VTL Danoxide
p59
sg52
Nssg53
(lp60
I2758383128
asg41
VWeaponPickup
p61
sg44
VPT17.400126S
p62
sa(dp63
g41
VPlayerSpawn
p64
sg48
(dp65
g50
VTL Danoxide
p66
sg52
Nssg44
VPT17.400126S
p67
sa(dp68
g47
I313138863
sg48
(dp69
g50
VTL Spartan HCS
p70
sg52
Nssg53
(lp71
I1095363701
asg41
VWeaponPickup
p72
sg44
VPT17.4161122S
p73
sa(dp74
g47
I4096745987
sg48
(dp75
g50
VTL Spartan HCS
p76
sg52
Nssg53
(lp77
I2758383128
asg41
VWeaponPickup
p78
sg44
VPT17.4161122S
p79
sa(dp80
g41
VPlayerSpawn
p81
sg48
(dp82
g50
VTL Spartan HCS
p83
sg52
Nssg44
VPT17.4161122S
p84
sa(dp85
g47
I313138863
sg48
(dp86
g50
VALG ContrA HCS
p87
sg52
Nssg53
(lp88
I1095363701
asg41
VWeaponPickup
p89
sg44
VPT17.433108S
p90
sa(dp91
g47
I4096745987
sg48
(dp92
g50
VALG ContrA HCS
p93
sg52
Nssg53
(lp94
I2758383128
asg41
VWeaponPickup
p95
sg44
VPT17.433108S
p96
sa(dp97
g41
VPlayerSpawn
p98
sg48
(dp99
g50
VALG ContrA HCS
p100
sg52
Nssg44
VPT17.433108S
p101
sa(dp102
g47
I313138863
sg48
(dp103
g50
VALG Heinz HCS
p104
sg52
Nssg53
(lp105
I1095363701
asg41
VWeaponPickup
p106
sg44
VPT17.4490874S
p107
sa(dp108
g47
I4096745987
sg48
(dp109
g50
VALG Heinz HCS
p110
sg52
Nssg53
(lp111
I2758383128
asg41
VWeaponPickup
p112
sg44
VPT17.4501104S
p113
sa(dp114
g41
VPlayerSpawn
p115
sg48
(dp116
g50
VALG Heinz HCS
p117
sg52
Nssg44
VPT17.4501104S
p118
sa(dp119
g47
I313138863
sg48
(dp120
g50
VALG RyaNoob
p121
sg52
Nssg53
(lp122
I1095363701
asg41
VWeaponPickup
p123
sg44
VPT17.4660896S
p124
sa(dp125
g47
I4096745987
sg48
(dp126
g50
VALG RyaNoob
p127
sg52
Nssg53
(lp128
I2758383128
asg41
VWeaponPickup
p129
sg44
VPT17.4660896S
p130
sa(dp131
g41
VPlayerSpawn
p132
sg48
(dp133
g50
VALG RyaNoob
p134
sg52
Nssg44
VPT17.4660896S
p135
sa(dp136
g47
I313138863
sg48
(dp137
g50
VTL StelluR
p138
sg52
Nssg53
(lp139
I1095363701
asg41
VWeaponPickup
p140
sg44
VPT17.4831167S
p141
sa(dp142
g47
I4096745987
sg48
(dp143
g50
VTL StelluR
p144
sg52
Nssg53
(lp145
I2758383128
asg41
VWeaponPickup
p146
sg44
VPT17.4831167S
p147
sa(dp148
g41
VPlayerSpawn
p149
sg48
(dp150
g50
VTL StelluR
p151
sg52
Nssg44
VPT17.4831167S
p152
sa(dp153
g47
I313138863
sg48
(dp154
g50
VALGPredevonator
p155
sg52
Nssg53
(lp156
I1095363701
asg41
VWeaponPickup
p157
sg44
VPT17.4990877S
p158
sa(dp159
g47
I4096745987
sg48
(dp160
g50
VALGPredevonator
p161
sg52
Nssg53
(lp162
I2758383128
asg41
VWeaponPickup
p163
sg44
VPT17.5001147S
p164
sa(dp165
g41
VPlayerSpawn
p166
sg48
(dp167
g50
VALGPredevonator
p168
sg52
Nssg44
VPT17.5001147S
p169
sa(dp170
g47
I313138863
sg48
(dp171
g50
VTL Eco HCS
p172
sg52
Nssg53
(lp173
I1095363701
asg41
VWeaponPickup
p174
sg44
VPT17.5161116S
p175
sa(dp176
g47
I4096745987
sg48
(dp177
g50
VTL Eco HCS
p178
sg52
Nssg53
(lp179
I2758383128
asg41
VWeaponPickup
p180
sg44
VPT17.5161116S
p181
sa(dp182
g41
VPlayerSpawn
p183
sg48
(dp184
g50
VTL Eco HCS
p185
sg52
Nssg44
VPT17.5161116S
p186
sa(dp187
g47
I4096745987
sg41
VWeaponDrop
p188
sVShotsFired
p189
I0
sg53
(lp190
I2758383128
asg44
VPT19.1811168S
p191
sVShotsLanded
p192
I0
sVTimeWeaponActiveAsPrimary
p193
VP0DT0H0M0.7167S
p194
sg48
(dp195
g50
VALG ContrA HCS
p196
sg52
Nssa(dp197
g47
I2511447508
sg48
(dp198
g50
VALG ContrA HCS
p199
sg52
Nssg53
(lp200
I2758383128
asg41
VWeaponPickup
p201
sg44
VPT19.1821217S
p202
sa(dp203
g47
I313138863
sg41
VWeaponDrop
p204
sg189
I0
sg53
(lp205
I1095363701
asg44
VPT19.4150997S
p206
sg192
I0
sg193
VP0DT0H0M1.3833S
p207
sg48
(dp208
g50
VTL Danoxide
p209
sg52
Nssa(dp210
g47
I2511447508
sg48
(dp211
g50
VTL Danoxide
p212
sg52
Nssg53
(lp213
I2758383128
asg41
VWeaponPickup
p214
sg44
VPT19.4150997S
p215
sa(dp216
g47
I4096745987
sg41
VWeaponDrop
p217
sg189
I0
sg53
(lp218
I2758383128
asg44
VPT20.8981332S
p219
sg192
I0
sg193
VP0DT0H0M2.5333S
p220
sg48
(dp221
g50
VTL Spartan HCS
p222
sg52
Nssa(dp223
g47
I424645655
sg48
(dp224
g50
VTL Spartan HCS
p225
sg52
Nssg53
(lp226
I1327094800
asg41
VWeaponPickup
p227
sg44
VPT20.8981332S
p228
sa(dp229
VKillerWeaponStockId
p230
I4096745987
sVIsAssassination
p231
I00
sVIsMelee
p232
I00
sVKiller
p233
(dp234
g50
VTL StelluR
p235
sg52
NssVKillerWeaponAttachmentIds
p236
(lp237
I2758383128
asVIsGroundPound
p238
I00
sVIsWeapon
p239
I01
sVDeathDisposition
p240
I1
sVVictimStockId
p241
I0
sVVictimAgent
p242
I1
sVKillerWorldLocation
p243
(dp244
Vy
F-4.0845966300000001
sVx
F-8.7166549999999994
sVz
F5.7220459999999996e-06
ssVVictimWorldLocation
p245
(dp246
Vy
F4.8197720000000004
sVx
F-3.2149715400000001
sVz
F1.3648269200000001
ssVIsShoulderBash
p247
I00
sVVictim
p248
(dp249
g50
VALG RyaNoob
p250
sg52
NssVVictimAttachmentIds
p251
(lp252
sVAssistants
p253
(lp254
sVIsHeadshot
p255
I01
sg44
VPT23.635167S
p256
sg41
VDeath
p257
sVKillerAgent
p258
I1
sa(dp259
g41
VImpulse
p260
sg48
(dp261
g50
VTL StelluR
p262
sg52
NssVImpulseId
p263
I3174430457
sg44
VPT23.6361509S
p264
sa(dp265
g41
VMedal
p266
sg48
(dp267
g50
VTL StelluR
p268
sg52
NssVMedalId
p269
I3653057799
sg44
VPT23.6461296S
p270
sa(dp271
g41
VMedal
p272
sg48
(dp273
g50
VTL StelluR
p274
sg52
Nssg269
I3001183151
sg44
VPT23.6461296S
p275
sa(dp276
g47
I313138863
sg41
VWeaponDrop
p277
sg189
I0
sg53
(lp278
I1095363701
asg44
VPT23.6511474S
p279
sg192
I0
sg193
VP0DT0H0M0.9000S
p280
sg48
(dp281
g50
VALG RyaNoob
p282
sg52
Nssa(dp283
g47
I4096745987
sg41
VWeaponDrop
p284
sg189
I4
sg53
(lp285
I2758383128
asg44
VPT23.6511474S
p286
sg192
I4
sg193
VP0DT0H0M5.2667S
p287
sg48
(dp288
g50
VALG RyaNoob
p289
sg52
Nssa(dp290
g47
I313138863
sg41
VWeaponDrop
p291
sg189
I0
sg53
(lp292
I1095363701
asg44
VPT27.2311861S
p293
sg192
I0
sg193
VP0DT0H0M1.7333S
p294
sg48
(dp295
g50
VALG ContrA HCS
p296
sg52
Nssa(dp297
g47
I3682788176
sg48
(dp298
g50
VALG ContrA HCS
p299
sg52
Nssg53
(lp300
I2758383128
asg41
VWeaponPickupPad
p301
sg44
VPT27.2311861S
p302
sa(dp303
g47
I3682788176
sg48
(dp304
g50
VALG ContrA HCS
p305
sg52
Nssg53
(lp306
I2758383128
asg41
VWeaponPickup
p307
sg44
VPT27.2331739S
p308
sa(dp309
g47
I313138863
sg48
(dp310
g50
VALG RyaNoob
p311
sg52
Nssg53
(lp312
I1095363701
asg41
VWeaponPickup
p313
sg44
VPT31.649199S
p314
sa(dp315
g47
I4096745987
sg48
(dp316
g50
VALG RyaNoob
p317
sg52
Nssg53
(lp318
I2758383128
asg41
VWeaponPickup
p319
sg44
VPT31.649199S
p320
sa(dp321
g41
VPlayerSpawn
p322
sg48
(dp323
g50
VALG RyaNoob
p324
sg52
Nssg44
VPT31.649199S
p325
sa(dp326
g230
I3682788176
sg231
I00
sg232
I00
sg233
(dp327
g50
VALG ContrA HCS
p328
sg52
Nssg236
(lp329
I2758383128
asg238
I00
sg239
I01
sg240
I1
sg241
I0
sg242
I1
sg243
(dp330
Vy
F4.3251614600000003
sVx
F6.1959486000000004
sVz
F-0.000268578529
ssg245
(dp331
Vy
F-5.3494963599999998
sVx
F8.8485700000000005
sVz
F0.85690826200000003
ssg247
I00
sg248
(dp332
g50
VTL Danoxide
p333
sg52
Nssg251
(lp334
sg253
(lp335
(dp336
g50
VALG Heinz HCS
p337
sg52
Nsasg255
I00
sg44
VPT33.7821924S
p338
sg41
VDeath
p339
sg258
I1
sa(dp340
g47
I2511447508
sg41
VWeaponDrop
p341
sg189
I4
sg53
(lp342
I2758383128
asg44
VPT33.784216S
p343
sg192
I2
sg193
VP0DT0H0M14.3667S
p344
sg48
(dp345
g50
VTL Danoxide
p346
sg52
Nssa(dp347
g47
I4096745987
sg41
VWeaponDrop
p348
sg189
I0
sg53
(lp349
I2758383128
asg44
VPT33.784216S
p350
sg192
I0
sg193
VP0DT0H0M0.6333S
p351
sg48
(dp352
g50
VTL Danoxide
p353
sg52
Nssa(dp354
g230
I424645655
sg231
I00
sg232
I00
sg233
(dp355
g50
VTL Spartan HCS
p356
sg52
Nssg236
(lp357
I1327094800
asg238
I00
sg239
I01
sg240
I1
sg241
I0
sg242
I1
sg243
(dp358
Vy
F0.60175365199999997
sVx
F-11.1313543
sVz
F3.5974780000000002
ssg245
(dp359
Vy
F1.3713855699999999
sVx
F1.24170387
sVz
F3.2791359999999998
ssg247
I00
sg248
(dp360
g50
VALGPredevonator
p361
sg52
Nssg251
(lp362
sg253
(lp363
(dp364
g50
VTL Danoxide
p365
sg52
Nsasg255
I01
sg44
VPT35.1822S
p366
sg41
VDeath
p367
sg258
I1
sa(dp368
g41
VMedal
p369
sg48
(dp370
g50
VTL Spartan HCS
p371
sg52
Nssg269
I3261908037
sg44
VPT35.1832211S
p372
sa(dp373
g47
I4096745987
sg41
VWeaponDrop
p374
sg189
I8
sg53
(lp375
I2758383128
asg44
VPT35.1842237S
p376
sg192
I2
sg193
VP0DT0H0M15.3667S
p377
sg48
(dp378
g50
VALGPredevonator
p379
sg52
Nssa(dp380
g47
I313138863
sg41
VWeaponDrop
p381
sg189
I2
sg53
(lp382
I1095363701
asg44
VPT35.1842237S
p383
sg192
I1
sg193
VP0DT0H0M2.3167S
p384
sg48
(dp385
g50
VALGPredevonator
p386
sg52
Nssa(dp387
g47
I313138863
sg48
(dp388
g50
VTL Danoxide
p389
sg52
Nssg53
(lp390
I1095363701
asg41
VWeaponPickup
p391
sg44
VPT41.7992663S
p392
sa(dp393
g47
I4096745987
sg48
(dp394
g50
VTL Danoxide
p395
sg52
Nssg53
(lp396
I2758383128
asg41
VWeaponPickup
p397
sg44
VPT41.7992663S
p398
sa(dp399
g41
VPlayerSpawn
p400
sg48
(dp401
g50
VTL Danoxide
p402
sg52
Nssg44
VPT41.7992663S
p403
sa(dp404
g47
I2492868984
sg48
(dp405
g50
VTL Spartan HCS
p406
sg52
Nssg53
(lp407
I2758383128
asg41
VWeaponPickup
p408
sg44
VPT42.6982678S
p409
sa(dp410
g47
I313138863
sg48
(dp411
g50
VALGPredevonator
p412
sg52
Nssg53
(lp413
I1095363701
asg41
VWeaponPickup
p414
sg44
VPT43.1992775S
p415
sa(dp416
g47
I4096745987
sg48
(dp417
g50
VALGPredevonator
p418
sg52
Nssg53
(lp419
I2758383128
asg41
VWeaponPickup
p420
sg44
VPT43.1992775S
p421
sa(dp422
g41
VPlayerSpawn
p423
sg48
(dp424
g50
VALGPredevonator
p425
sg52
Nssg44
VPT43.1992775S
p426
sa(dp427
g47
I2492868984
sg41
VWeaponDrop
p428
sg189
I0
sg53
(lp429
I2758383128
asg44
VPT43.8482561S
p430
sg192
I0
sg193
VP0DT0H0M0.9833S
p431
sg48
(dp432
g50
VTL Spartan HCS
p433
sg52
Nssa(dp434
g230
I313138863
sg231
I00
sg232
I01
sg233
(dp435
g50
VTL Danoxide
p436
sg52
Nssg236
(lp437
I1095363701
asg238
I00
sg239
I00
sg240
I1
sg241
I0
sg242
I1
sg243
(dp438
Vy
F-9.9851089999999996
sVx
F-16.970376999999999
sVz
F0.0342791229
ssg245
(dp439
Vy
F-9.63626
sVx
F-16.953691500000001
sVz
F-0.0021937042500000002
ssg247
I00
sg248
(dp440
g50
VALG RyaNoob
p441
sg52
Nssg251
(lp442
sg253
(lp443
sg255
I00
sg44
VPT49.1482901S
p444
sg41
VDeath
p445
sg258
I1
sa(dp446
g41
VMedal
p447
sg48
(dp448
g50
VTL Danoxide
p449
sg52
Nssg269
I250435527
sg44
VPT49.1493107S
p450
sa(dp451
g47
I4096745987
sg41
VWeaponDrop
p452
sg189
I3
sg53
(lp453
I2758383128
asg44
VPT49.1503152S
p454
sg192
I1
sg193
VP0DT0H0M15.1500S
p455
sg48
(dp456
g50
VALG RyaNoob
p457
sg52
Nssa(dp458
g47
I4096745987
sg41
VWeaponDrop
p459
sg189
I0
sg53
(lp460
I2758383128
asg44
VPT49.1503152S
p461
sg192
I0
sg193
VP0DT0S
p462
sg48
(dp463
g50
VALG RyaNoob
p464
sg52
Nssa(dp465
g47
I313138863
sg41
VWeaponDrop
p466
sg189
I0
sg53
(lp467
I1095363701
asg44
VPT49.1503152S
p468
sg192
I0
sg193
VP0DT0H0M2.3500S
p469
sg48
(dp470
g50
VALG RyaNoob
p471
sg52
Nssa(dp472
g47
I313138863
sg41
VWeaponDrop
p473
sg189
I0
sg53
(lp474
I1095363701
asg44
VPT49.4803122S
p475
sg192
I0
sg193
VP0DT0H0M6.4833S
p476
sg48
(dp477
g50
VTL Spartan HCS
p478
sg52
Nssa(dp479
g47
I2133511419
sg48
(dp480
g50
VTL Spartan HCS
p481
sg52
Nssg53
(lp482
I2758383128
asg41
VWeaponPickup
p483
sg44
VPT49.4803122S
p484
sa(dp485
g47
I4096745987
sg41
VWeaponDrop
p486
sg189
I0
sg53
(lp487
I2758383128
asg44
VPT52.5473112S
p488
sg192
I0
sg193
VP0DT0H0M8.4833S
p489
sg48
(dp490
g50
VALGPredevonator
p491
sg52
Nssa(dp492
g47
I2511447508
sg48
(dp493
g50
VALGPredevonator
p494
sg52
Nssg53
(lp495
I2758383128
asg41
VWeaponPickup
p496
sg44
VPT52.5473112S
p497
sa(dp498
g230
I4096745987
sg231
I00
sg232
I00
sg233
(dp499
g50
VTL StelluR
p500
sg52
Nssg236
(lp501
I2758383128
asg238
I00
sg239
I01
sg240
I1
sg241
I0
sg242
I1
sg243
(dp502
Vy
F11.2884808
sVx
F13.5031929
sVz
F0.61461379999999999
ssg245
(dp503
Vy
F13.259948700000001
sVx
F10.995132399999999
sVz
F0.60021334900000001
ssg247
I00
sg248
(dp504
g50
VALGPredevonator
p505
sg52
Nssg251
(lp506
sg253
(lp507
sg255
I01
sg44
VPT55.2813285S
p508
sg41
VDeath
p509
sg258
I1
sa(dp510
g41
VMedal
p511
sg48
(dp512
g50
VTL StelluR
p513
sg52
Nssg269
I3261908037
sg44
VPT55.283353S
p514
sa(dp515
g47
I313138863
sg41
VWeaponDrop
p516
sg189
I0
sg53
(lp517
I1095363701
asg44
VPT55.283353S
p518
sg192
I0
sg193
VP0DT0H0M0.8667S
p519
sg48
(dp520
g50
VALGPredevonator
p521
sg52
Nssa(dp522
g47
I2511447508
sg41
VWeaponDrop
p523
sg189
I2
sg53
(lp524
I2758383128
asg44
VPT55.283353S
p525
sg192
I1
sg193
VP0DT0H0M2.7333S
p526
sg48
(dp527
g50
VALGPredevonator
p528
sg52
Nssa(dp529
g230
I2133511419
sg231
I00
sg232
I01
sg233
(dp530
g50
VTL Spartan HCS
p531
sg52
Nssg236
(lp532
I2758383128
asg238
I00
sg239
I00
sg240
I1
sg241
I0
sg242
I1
sg243
(dp533
Vy
F2.49817753
sVx
F-0.023776530000000001
sVz
F3.2755441699999999
ssg245
(dp534
Vy
F2.6301932300000002
sVx
F0.30955359999999998
sVz
F3.2791731400000002
ssg247
I00
sg248
(dp535
g50
VALG ContrA HCS
p536
sg52
Nssg251
(lp537
sg253
(lp538
(dp539
g50
VTL Eco HCS
p540
sg52
Nsasg255
I00
sg44
VPT55.3983302S
p541
sg41
VDeath
p542
sg258
I1
sa(dp543
g41
VMedal
p544
sg48
(dp545
g50
VTL Spartan HCS
p546
sg52
Nssg269
I2287626681
sg44
VPT55.3993541S
p547
sa(dp548
g47
I3682788176
sg41
VWeaponDrop
p549
sg189
I4
sg53
(lp550
I2758383128
asg44
VPT55.3993541S
p551
sg192
I2
sg193
VP0DT0H0M25.6833S
p552
sg48
(dp553
g50
VALG ContrA HCS
p554
sg52
Nssa(dp555
g47
I3682788176
sg41
VWeaponDrop
p556
sg189
I0
sg53
(lp557
I2758383128
asg44
VPT55.3993541S
p558
sg192
I0
sg193
VP0DT0S
p559
sg48
(dp560
g50
VALG ContrA HCS
p561
sg52
Nssa(dp562
g47
I2511447508
sg41
VWeaponDrop
p563
sg189
I2
sg53
(lp564
I2758383128
asg44
VPT55.4003543S
p565
sg192
I1
sg193
VP0DT0H0M9.8333S
p566
sg48
(dp567
g50
VALG ContrA HCS
p568
sg52
Nssa(dp569
g47
I2133511419
sg41
VWeaponDrop
p570
sg189
I6
sg53
(lp571
I2758383128
asg44
VPT55.7473592S
p572
sg192
I6
sg193
VP0DT0H0M6.2667S
p573
sg48
(dp574
g50
VTL Spartan HCS
p575
sg52
Nssa(dp576
g47
I2133511419
sg41
VWeaponDrop
p577
sg189
I0
sg53
(lp578
I2758383128
asg44
VPT55.7473592S
p579
sg192
I0
sg193
VP0DT0S
p580
sg48
(dp581
g50
VTL Spartan HCS
p582
sg52
Nssa(dp583
g47
I2511447508
sg48
(dp584
g50
VTL Spartan HCS
p585
sg52
Nssg53
(lp586
I2758383128
asg41
VWeaponPickup
p587
sg44
VPT55.7473592S
p588
sa(dp589
g47
I2244200496
sg48
(dp590
g50
VTL StelluR
p591
sg52
Nssg53
(lp592
I2758383128
asg41
VWeaponPickup
p593
sg44
VPT57.0303424S
p594
sa(dp595
g41
VImpulse
p596
sg48
(dp597
g50
VTL StelluR
p598
sg52
Nssg263
I4191318012
sg44
VPT57.0553594S
p599
sa(dp600
g41
VImpulse
p601
sg48
(dp602
g50
VTL StelluR
p603
sg52
Nssg263
I1039658009
sg44
VPT57.0563765S
p604
sa(dp605
g47
I313138863
sg48
(dp606
g50
VALG RyaNoob
p607
sg52
Nssg53
(lp608
I1095363701
asg41
VWeaponPickup
p609
sg44
VPT57.1653435S
p610
sa(dp611
g47
I4096745987
sg48
(dp612
g50
VALG RyaNoob
p613
sg52
Nssg53
(lp614
I2758383128
asg41
VWeaponPickup
p615
sg44
VPT57.1653435S
p616
sa(dp617
g41
VPlayerSpawn
p618
sg48
(dp619
g50
VALG RyaNoob
p620
sg52
Nssg44
VPT57.1653435S
p621
sa(dp622
g47
I2511447508
sg41
VWeaponDrop
p623
sg189
I0
sg53
(lp624
I2758383128
asg44
VPT57.4803456S
p625
sg192
I0
sg193
VP0DT0H0M1.7333S
p626
sg48
(dp627
g50
VTL Spartan HCS
p628
sg52
Nssa(dp629
g47
I3682788176
sg48
(dp630
g50
VTL Spartan HCS
p631
sg52
Nssg53
(lp632
I2758383128
asg41
VWeaponPickup
p633
sg44
VPT57.4803456S
p634
sa(dp635
g47
I2244200496
sg41
VWeaponDrop
p636
sg189
I0
sg53
(lp637
I2758383128
asg44
VPT57.8133654S
p638
sg192
I0
sg193
VP0DT0H0M0.6333S
p639
sg48
(dp640
g50
VTL StelluR
p641
sg52
Nssa(dp642
g41
VImpulse
p643
sg48
(dp644
g50
VTL StelluR
p645
sg52
Nssg263
I3435524855
sg44
VPT57.8253692S
p646
sa(dp647
g47
I2244200496
sg48
(dp648
g50
VTL StelluR
p649
sg52
Nssg53
(lp650
I2758383128
asg41
VWeaponPickup
p651
sg44
VPT59.1973551S
p652
sa(dp653
g41
VImpulse
p654
sg48
(dp655
g50
VTL StelluR
p656
sg52
Nssg263
I4191318012
sg44
VPT59.1973551S
p657
sa(dp658
g47
I2244200496
sg41
VWeaponDrop
p659
sg189
I0
sg53
(lp660
I2758383128
asg44
VPT59.4963581S
p661
sg192
I0
sg193
VP0DT0H0M0.1500S
p662
sg48
(dp663
g50
VTL StelluR
p664
sg52
Nssa(dp665
g41
VImpulse
p666
sg48
(dp667
g50
VTL StelluR
p668
sg52
Nssg263
I3435524855
sg44
VPT59.4973571S
p669
sa(dp670
g230
I3682788176
sg231
I00
sg232
I00
sg233
(dp671
g50
VTL Spartan HCS
p672
sg52
Nssg236
(lp673
I2758383128
asg238
I00
sg239
I01
sg240
I1
sg241
I0
sg242
I1
sg243
(dp674
Vy
F4.5614290000000004
sVx
F-1.70238709
sVz
F4.1622724499999997
ssg245
(dp675
Vy
F4.8301782600000003
sVx
F1.7555698200000001
sVz
F0.0001488626
ssg247
I00
sg248
(dp676
g50
VALG Heinz HCS
p677
sg52
Nssg251
(lp678
sg253
(lp679
sg255
I00
sg44
VPT1M1.2313678S
p680
sg41
VDeath
p681
sg258
I1
sa(dp682
g47
I313138863
sg41
VWeaponDrop
p683
sg189
I0
sg53
(lp684
I1095363701
asg44
VPT1M1.2327443S
p685
sg192
I0
sg193
VP0DT0H0M8.9333S
p686
sg48
(dp687
g50
VALG Heinz HCS
p688
sg52
Nssa(dp689
g47
I4096745987
sg41
VWeaponDrop
p690
sg189
I12
sg53
(lp691
I2758383128
asg44
VPT1M1.2327443S
p692
sg192
I7
sg193
VP0DT0H0M34.8500S
p693
sg48
(dp694
g50
VALG Heinz HCS
p695
sg52
Nssa(dp696
g47
I2244200496
sg48
(dp697
g50
VTL StelluR
p698
sg52
Nssg53
(lp699
I2758383128
asg41
VWeaponPickup
p700
sg44
VPT1M1.3133945S
p701
sa(dp702
g41
VImpulse
p703
sg48
(dp704
g50
VTL StelluR
p705
sg52
Nssg263
I4191318012
sg44
VPT1M1.3143922S
p706
sa(dp707
g47
I4096745987
sg41
VWeaponDrop
p708
sg189
I11
sg53
(lp709
I2758383128
asg44
VPT1M2.096418S
p710
sg192
I0
sg193
VP0DT0H0M14.9000S
p711
sg48
(dp712
g50
VTL Danoxide
p713
sg52
Nssa(dp714
g47
I424645655
sg48
(dp715
g50
VTL Danoxide
p716
sg52
Nssg53
(lp717
I1327094800
asg41
VWeaponPickup
p718
sg44
VPT1M2.0974007S
p719
sa(dp720
g47
I2244200496
sg41
VWeaponDrop
p721
sg189
I0
sg53
(lp722
I2758383128
asg44
VPT1M2.8803797S
p723
sg192
I0
sg193
VP0DT0H0M1.4167S
p724
sg48
(dp725
g50
VTL StelluR
p726
sg52
Nssa(dp727
g41
VImpulse
p728
sg48
(dp729
g50
VTL StelluR
p730
sg52
Nssg263
I3435524855
sg44
VPT1M2.8803797S
p731
sa(dp732
g47
I313138863
sg48
(dp733
g50
VALGPredevonator
p734
sg52
Nssg53
(lp735
I1095363701
asg41
VWeaponPickup
p736
sg44
VPT1M3.2984032S
p737
sa(dp738
g47
I4096745987
sg48
(dp739
g50
VALGPredevonator
p740
sg52
Nssg53
(lp741
I2758383128
asg41
VWeaponPickup
p742
sg44
VPT1M3.2984032S
p743
sa(dp744
g41
VPlayerSpawn
p745
sg48
(dp746
g50
VALGPredevonator
p747
sg52
Nssg44
VPT1M3.2984032S
p748
sa(dp749
g47
I313138863
sg48
(dp750
g50
VALG ContrA HCS
p751
sg52
Nssg53
(lp752
I1095363701
asg41
VWeaponPickup
p753
sg44
VPT1M3.4143823S
p754
sa(dp755
g47
I4096745987
sg48
(dp756
g50
VALG ContrA HCS
p757
sg52
Nssg53
(lp758
I2758383128
asg41
VWeaponPickup
p759
sg44
VPT1M3.415404S
p760
sa(dp761
g41
VPlayerSpawn
p762
sg48
(dp763
g50
VALG ContrA HCS
p764
sg52
Nssg44
VPT1M3.415404S
p765
sa(dp766
g47
I2244200496
sg48
(dp767
g50
VTL StelluR
p768
sg52
Nssg53
(lp769
I2758383128
asg41
VWeaponPickup
p770
sg44
VPT1M4.1303864S
p771
sa(dp772
g41
VImpulse
p773
sg48
(dp774
g50
VTL StelluR
p775
sg52
Nssg263
I4191318012
sg44
VPT1M4.1303864S
p776
sa(dp777
g47
I2244200496
sg41
VWeaponDrop
p778
sg189
I0
sg53
(lp779
I2758383128
asg44
VPT1M4.7303905S
p780
sg192
I0
sg193
VP0DT0H0M0.4500S
p781
sg48
(dp782
g50
VTL StelluR
p783
sg52
Nssa(dp784
g41
VImpulse
p785
sg48
(dp786
g50
VTL StelluR
p787
sg52
Nssg263
I3435524855
sg44
VPT1M4.7303905S
p788
sa(dp789
g47
I2244200496
sg48
(dp790
g50
VTL StelluR
p791
sg52
Nssg53
(lp792
I2758383128
asg41
VWeaponPickup
p793
sg44
VPT1M6.2804005S
p794
sa(dp795
g41
VImpulse
p796
sg48
(dp797
g50
VTL StelluR
p798
sg52
Nssg263
I4191318012
sg44
VPT1M6.2804005S
p799
sa(dp800
g47
I2244200496
sg41
VWeaponDrop
p801
sg189
I0
sg53
(lp802
I2758383128
asg44
VPT1M7.2464311S
p803
sg192
I0
sg193
VP0DT0H0M0.8167S
p804
sg48
(dp805
g50
VTL StelluR
p806
sg52
Nssa(dp807
g41
VImpulse
p808
sg48
(dp809
g50
VTL StelluR
p810
sg52
Nssg263
I3435524855
sg44
VPT1M7.24743S
p811
sa(dp812
g47
I313138863
sg48
(dp813
g50
VALG Heinz HCS
p814
sg52
Nssg53
(lp815
I1095363701
asg41
VWeaponPickup
p816
sg44
VPT1M9.2484452S
p817
sa(dp818
g47
I4096745987
sg48
(dp819
g50
VALG Heinz HCS
p820
sg52
Nssg53
(lp821
I2758383128
asg41
VWeaponPickup
p822
sg44
VPT1M9.2484452S
p823
sa(dp824
g41
VPlayerSpawn
p825
sg48
(dp826
g50
VALG Heinz HCS
p827
sg52
Nssg44
VPT1M9.2484452S
p828
sa(dp829
g47
I2244200496
sg48
(dp830
g50
VTL StelluR
p831
sg52
Nssg53
(lp832
I2758383128
asg41
VWeaponPickup
p833
sg44
VPT1M11.1294534S
p834
sa(dp835
g41
VImpulse
p836
sg48
(dp837
g50
VTL StelluR
p838
sg52
Nssg263
I4191318012
sg44
VPT1M11.1304536S
p839
sa(dp840
g47
I2244200496
sg41
VWeaponDrop
p841
sg189
I0
sg53
(lp842
I2758383128
asg44
VPT1M12.0464564S
p843
sg192
I0
sg193
VP0DT0H0M0.7667S
p844
sg48
(dp845
g50
VTL StelluR
p846
sg52
Nssa(dp847
g41
VImpulse
p848
sg48
(dp849
g50
VTL StelluR
p850
sg52
Nssg263
I3435524855
sg44
VPT1M12.0474649S
p851
sa(dp852
g47
I4096745987
sg41
VWeaponDrop
p853
sg189
I8
sg53
(lp854
I2758383128
asg44
VPT1M12.2634634S
p855
sg192
I3
sg193
VP0DT0H0M14.2667S
p856
sg48
(dp857
g50
VALG RyaNoob
p858
sg52
Nssa(dp859
g47
I424645655
sg48
(dp860
g50
VALG RyaNoob
p861
sg52
Nssg53
(lp862
I1327094800
asg41
VWeaponPickup
p863
sg44
VPT1M12.2634634S
p864
sa(dp865
g47
I2244200496
sg48
(dp866
g50
VTL StelluR
p867
sg52
Nssg53
(lp868
I2758383128
asg41
VWeaponPickup
p869
sg44
VPT1M12.5634404S
p870
sa(dp871
g41
VImpulse
p872
sg48
(dp873
g50
VTL StelluR
p874
sg52
Nssg263
I4191318012
sg44
VPT1M12.5644636S
p875
sa(dp876
g41
VMedal
p877
sg48
(dp878
g50
VTL StelluR
p879
sg52
Nssg269
I3894006667
sg44
VPT1M12.75746S
p880
sa(dp881
g41
VImpulse
p882
sg48
(dp883
g50
VTL StelluR
p884
sg52
Nssg263
I2944278681
sg44
VPT1M12.75746S
p885
sa(dp886
g47
I2244200496
sg41
VWeaponDrop
p887
sg189
I0
sg53
(lp888
I2758383128
asg44
VPT1M12.7684435S
p889
sg192
I0
sg193
VP0DT0H0M0.0333S
p890
sg48
(dp891
g50
VTL StelluR
p892
sg52
Nssa(dp893
g47
I313138863
sg41
VWeaponDrop
p894
sg189
I0
sg53
(lp895
I1095363701
asg44
VPT1M13.8624721S
p896
sg192
I0
sg193
VP0DT0H0M2.9833S
p897
sg48
(dp898
g50
VTL StelluR
p899
sg52
Nssa(dp900
g47
I2511447508
sg48
(dp901
g50
VTL StelluR
p902
sg52
Nssg53
(lp903
I2758383128
asg41
VWeaponPickup
p904
sg44
VPT1M13.8634489S
p905
sa(dp906
g230
I4096745987
sg231
I00
sg232
I00
sg233
(dp907
g50
VTL Eco HCS
p908
sg52
Nssg236
(lp909
I2758383128
asg238
I00
sg239
I01
sg240
I1
sg241
I0
sg242
I1
sg243
(dp910
Vy
F1.60998511
sVx
F12.077873200000001
sVz
F3.58159852
ssg245
(dp911
Vy
F7.3412090000000001
sVx
F13.1278877
sVz
F0.66798500000000005
ssg247
I00
sg248
(dp912
g50
VALG RyaNoob
p913
sg52
Nssg251
(lp914
sg253
(lp915
sg255
I01
sg44
VPT1M14.264451S
p916
sg41
VDeath
p917
sg258
I1
sa(dp918
g41
VMedal
p919
sg48
(dp920
g50
VTL Eco HCS
p921
sg52
Nssg269
I3261908037
sg44
VPT1M14.2664762S
p922
sa(dp923
g47
I313138863
sg41
VWeaponDrop
p924
sg189
I0
sg53
(lp925
I1095363701
asg44
VPT1M14.2674879S
p926
sg192
I0
sg193
VP0DT0H0M0.8333S
p927
sg48
(dp928
g50
VALG RyaNoob
p929
sg52
Nssa(dp930
g47
I424645655
sg41
VWeaponDrop
p931
sg189
I6
sg53
(lp932
I1327094800
asg44
VPT1M14.2674879S
p933
sg192
I5
sg193
VP0DT0H0M2.0000S
p934
sg48
(dp935
g50
VALG RyaNoob
p936
sg52
Nssa(dp937
g230
I424645655
sg231
I00
sg232
I01
sg233
(dp938
g50
VTL Spartan HCS
p939
sg52
Nssg236
(lp940
I1327094800
asg238
I00
sg239
I00
sg240
I1
sg241
I0
sg242
I1
sg243
(dp941
Vy
F-0.94878196699999995
sVx
F17.55808
sVz
F1.95044982
ssg245
(dp942
Vy
F-0.84709876799999995
sVx
F17.7413235
sVz
F2.38880968
ssg247
I00
sg248
(dp943
g50
VALG Heinz HCS
p944
sg52
Nssg251
(lp945
sg253
(lp946
(dp947
g50
VTL Eco HCS
p948
sg52
Nsasg255
I00
sg44
VPT1M17.5304723S
p949
sg41
VDeath
p950
sg258
I1
sa(dp951
g41
VImpulse
p952
sg48
(dp953
g50
VTL Spartan HCS
p954
sg52
Nssg263
I2556889090
sg44
VPT1M17.5304723S
p955
sa(dp956
g41
VMedal
p957
sg48
(dp958
g50
VTL Spartan HCS
p959
sg52
Nssg269
I2838259753
sg44
VPT1M17.5304723S
p960
sa(dp961
g41
VMedal
p962
sg48
(dp963
g50
VTL Spartan HCS
p964
sg52
Nssg269
I2287626681
sg44
VPT1M17.5314736S
p965
sa(dp966
g47
I4096745987
sg41
VWeaponDrop
p967
sg189
I2
sg53
(lp968
I2758383128
asg44
VPT1M17.53251S
p969
sg192
I2
sg193
VP0DT0H0M7.5833S
p970
sg48
(dp971
g50
VALG Heinz HCS
p972
sg52
Nssa(dp973
g47
I313138863
sg41
VWeaponDrop
p974
sg189
I0
sg53
(lp975
I1095363701
asg44
VPT1M17.53251S
p976
sg192
I0
sg193
VP0DT0H0M0.7000S
p977
sg48
(dp978
g50
VALG Heinz HCS
p979
sg52
Nssa(dp980
g47
I3682788176
sg41
VWeaponDrop
p981
sg189
I1
sg53
(lp982
I2758383128
asg44
VPT1M18.0964784S
p983
sg192
I1
sg193
VP0DT0H0M6.5333S
p984
sg48
(dp985
g50
VTL Spartan HCS
p986
sg52
Nssa(dp987
g47
I3682788176
sg41
VWeaponDrop
p988
sg189
I0
sg53
(lp989
I2758383128
asg44
VPT1M18.0964784S
p990
sg192
I0
sg193
VP0DT0S
p991
sg48
(dp992
g50
VTL Spartan HCS
p993
sg52
Nssa(dp994
g47
I4096745987
sg48
(dp995
g50
VTL Spartan HCS
p996
sg52
Nssg53
(lp997
I2758383128
asg41
VWeaponPickup
p998
sg44
VPT1M18.0964784S
p999
sa(dp1000
g230
I313138863
sg231
I00
sg232
I00
sg233
(dp1001
g50
VALG ContrA HCS
p1002
sg52
Nssg236
(lp1003
I1095363701
asg238
I00
sg239
I01
sg240
I1
sg241
I0
sg242
I1
sg243
(dp1004
Vy
F-0.60111236599999995
sVx
F-18.705976499999998
sVz
F2.1790759999999998
ssg245
(dp1005
Vy
F0.71589273200000003
sVx
F-14.816967999999999
sVz
F1.3997802699999999
ssg247
I00
sg248
(dp1006
g50
VTL Danoxide
p1007
sg52
Nssg251
(lp1008
sg253
(lp1009
sg255
I00
sg44
VPT1M18.1974765S
p1010
sg41
VDeath
p1011
sg258
I1
sa(dp1012
g47
I424645655
sg41
VWeaponDrop
p1013
sg189
I15
sg53
(lp1014
I1327094800
asg44
VPT1M18.199501S
p1015
sg192
I12
sg193
VP0DT0H0M16.1000S
p1016
sg48
(dp1017
g50
VTL Danoxide
p1018
sg52
Nssa(dp1019
g47
I313138863
sg41
VWeaponDrop
p1020
sg189
I8
sg53
(lp1021
I1095363701
asg44
VPT1M18.200507S
p1022
sg192
I7
sg193
VP0DT0H0M5.4000S
p1023
sg48
(dp1024
g50
VTL Danoxide
p1025
sg52
Nssa(dp1026
g47
I313138863
sg41
VWeaponDrop
p1027
sg189
I0
sg53
(lp1028
I1095363701
asg44
VPT1M18.200507S
p1029
sg192
I0
sg193
VP0DT0S
p1030
sg48
(dp1031
g50
VTL Danoxide
p1032
sg52
Nssa(dp1033
g230
I2511447508
sg231
I00
sg232
I00
sg233
(dp1034
g50
VTL StelluR
p1035
sg52
Nssg236
(lp1036
I2758383128
asg238
I00
sg239
I01
sg240
I1
sg241
I0
sg242
I1
sg243
(dp1037
Vy
F-4.0295167000000003
sVx
F-17.815042500000001
sVz
F1.37849891
ssg245
(dp1038
Vy
F-1.57188141
sVx
F-17.308488799999999
sVz
F1.3997802699999999
ssg247
I00
sg248
(dp1039
g50
VALG ContrA HCS
p1040
sg52
Nssg251
(lp1041
sg253
(lp1042
(dp1043
g50
VTL Danoxide
p1044
sg52
Nsasg255
I00
sg44
VPT1M19.4304845S
p1045
sg41
VDeath
p1046
sg258
I1
sa(dp1047
g47
I313138863
sg41
VWeaponDrop
p1048
sg189
I20
sg53
(lp1049
I1095363701
asg44
VPT1M19.4325085S
p1050
sg192
I13
sg193
VP0DT0H0M3.9833S
p1051
sg48
(dp1052
g50
VALG ContrA HCS
p1053
sg52
Nssa(dp1054
g47
I4096745987
sg41
VWeaponDrop
p1055
sg189
I0
sg53
(lp1056
I2758383128
asg44
VPT1M19.4325085S
p1057
sg192
I0
sg193
VP0DT0H0M12.0333S
p1058
sg48
(dp1059
g50
VALG ContrA HCS
p1060
sg52
Nssa(dp1061
g47
I313138863
sg48
(dp1062
g50
VALG RyaNoob
p1063
sg52
Nssg53
(lp1064
I1095363701
asg41
VWeaponPickup
p1065
sg44
VPT1M22.2805025S
p1066
sa(dp1067
g47
I4096745987
sg48
(dp1068
g50
VALG RyaNoob
p1069
sg52
Nssg53
(lp1070
I2758383128
asg41
VWeaponPickup
p1071
sg44
VPT1M22.2815034S
p1072
sa(dp1073
g41
VPlayerSpawn
p1074
sg48
(dp1075
g50
VALG RyaNoob
p1076
sg52
Nssg44
VPT1M22.2815034S
p1077
sa(dp1078
g47
I4096745987
sg41
VWeaponDrop
p1079
sg189
I11
sg53
(lp1080
I2758383128
asg44
VPT1M22.9455442S
p1081
sg192
I7
sg193
VP0DT0H0M51.2000S
p1082
sg48
(dp1083
g50
VTL StelluR
p1084
sg52
Nssa(dp1085
g47
I424645655
sg48
(dp1086
g50
VTL StelluR
p1087
sg52
Nssg53
(lp1088
I1327094800
asg41
VWeaponPickup
p1089
sg44
VPT1M22.9465084S
p1090
sa(dp1091
g230
I4096745987
sg231
I00
sg232
I00
sg233
(dp1092
g50
VTL Eco HCS
p1093
sg52
Nssg236
(lp1094
I2758383128
asg238
I00
sg239
I01
sg240
I1
sg241
I0
sg242
I1
sg243
(dp1095
Vy
F1.6946650000000001
sVx
F11.8118935
sVz
F3.58159852
ssg245
(dp1096
Vy
F10.4564009
sVx
F16.045833600000002
sVz
F-3.0606985099999997e-05
ssg247
I00
sg248
(dp1097
g50
VALGPredevonator
p1098
sg52
Nssg251
(lp1099
sg253
(lp1100
(dp1101
g50
VTL Spartan HCS
p1102
sg52
Nsasg255
I01
sg44
VPT1M23.2135317S
p1103
sg41
VDeath
p1104
sg258
I1
sa(dp1105
g41
VImpulse
p1106
sg48
(dp1107
g50
VTL Eco HCS
p1108
sg52
Nssg263
I2556889090
sg44
VPT1M23.2145447S
p1109
sa(dp1110
g41
VMedal
p1111
sg48
(dp1112
g50
VTL Eco HCS
p1113
sg52
Nssg269
I2838259753
sg44
VPT1M23.2145447S
p1114
sa(dp1115
g41
VMedal
p1116
sg48
(dp1117
g50
VTL Eco HCS
p1118
sg52
Nssg269
I3261908037
sg44
VPT1M23.2155283S
p1119
sa(dp1120
g47
I313138863
sg41
VWeaponDrop
p1121
sg189
I0
sg53
(lp1122
I1095363701
asg44
VPT1M23.2155283S
p1123
sg192
I0
sg193
VP0DT0H0M0.3167S
p1124
sg48
(dp1125
g50
VALGPredevonator
p1126
sg52
Nssa(dp1127
g47
I4096745987
sg41
VWeaponDrop
p1128
sg189
I11
sg53
(lp1129
I2758383128
asg44
VPT1M23.2155283S
p1130
sg192
I7
sg193
VP0DT0H0M19.6000S
p1131
sg48
(dp1132
g50
VALGPredevonator
p1133
sg52
Nssa(dp1134
g47
I313138863
sg48
(dp1135
g50
VALG Heinz HCS
p1136
sg52
Nssg53
(lp1137
I1095363701
asg41
VWeaponPickup
p1138
sg44
VPT1M25.5475472S
p1139
sa(dp1140
g47
I4096745987
sg48
(dp1141
g50
VALG Heinz HCS
p1142
sg52
Nssg53
(lp1143
I2758383128
asg41
VWeaponPickup
p1144
sg44
VPT1M25.5475472S
p1145
sa(dp1146
g41
VPlayerSpawn
p1147
sg48
(dp1148
g50
VALG Heinz HCS
p1149
sg52
Nssg44
VPT1M25.5475472S
p1150
sa(dp1151
g47
I313138863
sg48
(dp1152
g50
VTL Danoxide
p1153
sg52
Nssg53
(lp1154
I1095363701
asg41
VWeaponPickup
p1155
sg44
VPT1M26.2145328S
p1156
sa(dp1157
g47
I4096745987
sg48
(dp1158
g50
VTL Danoxide
p1159
sg52
Nssg53
(lp1160
I2758383128
asg41
VWeaponPickup
p1161
sg44
VPT1M26.2145328S
p1162
sa(dp1163
g41
VPlayerSpawn
p1164
sg48
(dp1165
g50
VTL Danoxide
p1166
sg52
Nssg44
VPT1M26.2145328S
p1167
sa(dp1168
g47
I313138863
sg48
(dp1169
g50
VALG ContrA HCS
p1170
sg52
Nssg53
(lp1171
I1095363701
asg41
VWeaponPickup
p1172
sg44
VPT1M27.4485613S
p1173
sa(dp1174
g47
I4096745987
sg48
(dp1175
g50
VALG ContrA HCS
p1176
sg52
Nssg53
(lp1177
I2758383128
asg41
VWeaponPickup
p1178
sg44
VPT1M27.4485613S
p1179
sa(dp1180
g41
VPlayerSpawn
p1181
sg48
(dp1182
g50
VALG ContrA HCS
p1183
sg52
Nssg44
VPT1M27.4485613S
p1184
sa(dp1185
g230
I424645655
sg231
I00
sg232
I00
sg233
(dp1186
g50
VTL StelluR
p1187
sg52
Nssg236
(lp1188
I1327094800
asg238
I00
sg239
I01
sg240
I1
sg241
I0
sg242
I1
sg243
(dp1189
Vy
F0.47734599999999999
sVx
F-6.5146550000000003
sVz
F2.8090696300000002
ssg245
(dp1190
Vy
F11.981348000000001
sVx
F9.2055849999999992
sVz
F1.4631462099999999
ssg247
I00
sg248
(dp1191
g50
VALG RyaNoob
p1192
sg52
Nssg251
(lp1193
sg253
(lp1194
(dp1195
g50
VTL Eco HCS
p1196
sg52
Nsa(dp1197
g50
VTL Spartan HCS
p1198
sg52
Nsasg255
I01
sg44
VPT1M27.8135381S
p1199
sg41
VDeath
p1200
sg258
I1
sa(dp1201
g41
VMedal
p1202
sg48
(dp1203
g50
VTL StelluR
p1204
sg52
Nssg269
I3261908037
sg44
VPT1M27.8155619S
p1205
sa(dp1206
g47
I313138863
sg41
VWeaponDrop
p1207
sg189
I0
sg53
(lp1208
I1095363701
asg44
VPT1M27.8155619S
p1209
sg192
I0
sg193
VP0DT0H0M0.7167S
p1210
sg48
(dp1211
g50
VALG RyaNoob
p1212
sg52
Nssa(dp1213
g47
I4096745987
sg41
VWeaponDrop
p1214
sg189
I6
sg53
(lp1215
I2758383128
asg44
VPT1M27.8155619S
p1216
sg192
I2
sg193
VP0DT0H0M4.8167S
p1217
sg48
(dp1218
g50
VALG RyaNoob
p1219
sg52
Nssa(dp1220
g41
VMedal
p1221
sg48
(dp1222
g50
VTL Eco HCS
p1223
sg52
Nssg269
I3400287617
sg44
VPT1M29.9625741S
p1224
sa(dp1225
g47
I424645655
sg41
VWeaponDrop
p1226
sg189
I39
sg53
(lp1227
I1327094800
asg44
VPT1M29.9795523S
p1228
sg192
I19
sg193
VP0DT0H0M36.8000S
p1229
sg48
(dp1230
g50
VTL Spartan HCS
p1231
sg52
Nssa(dp1232
g47
I424645655
sg41
VWeaponDrop
p1233
sg189
I0
sg53
(lp1234
I1327094800
asg44
VPT1M29.9795523S
p1235
sg192
I0
sg193
VP0DT0S
p1236
sg48
(dp1237
g50
VTL Spartan HCS
p1238
sg52
Nssa(dp1239
g47
I2133511419
sg48
(dp1240
g50
VTL Spartan HCS
p1241
sg52
Nssg53
(lp1242
I2758383128
asg41
VWeaponPickup
p1243
sg44
VPT1M29.9795523S
p1244
sa(dp1245
g47
I4096745987
sg41
VWeaponDrop
p1246
sg189
I6
sg53
(lp1247
I2758383128
asg44
VPT1M30.7125822S
p1248
sg192
I5
sg193
VP0DT0H0M11.3500S
p1249
sg48
(dp1250
g50
VTL Spartan HCS
p1251
sg52
Nssa(dp1252
g47
I424645655
sg48
(dp1253
g50
VTL Spartan HCS
p1254
sg52
Nssg53
(lp1255
I1327094800
asg41
VWeaponPickup
p1256
sg44
VPT1M30.7125822S
p1257
sa(dp1258
g47
I313138863
sg48
(dp1259
g50
VALGPredevonator
p1260
sg52
Nssg53
(lp1261
I1095363701
asg41
VWeaponPickup
p1262
sg44
VPT1M31.234588S
p1263
sa(dp1264
g47
I4096745987
sg48
(dp1265
g50
VALGPredevonator
p1266
sg52
Nssg53
(lp1267
I2758383128
asg41
VWeaponPickup
p1268
sg44
VPT1M31.234588S
p1269
sa(dp1270
g41
VPlayerSpawn
p1271
sg48
(dp1272
g50
VALGPredevonator
p1273
sg52
Nssg44
VPT1M31.234588S
p1274
sa(dp1275
g47
I313138863
sg48
(dp1276
g50
VALG RyaNoob
p1277
sg52
Nssg53
(lp1278
I1095363701
asg41
VWeaponPickup
p1279
sg44
VPT1M35.8306115S
p1280
sa(dp1281
g47
I4096745987
sg48
(dp1282
g50
VALG RyaNoob
p1283
sg52
Nssg53
(lp1284
I2758383128
asg41
VWeaponPickup
p1285
sg44
VPT1M35.8306115S
p1286
sa(dp1287
g41
VPlayerSpawn
p1288
sg48
(dp1289
g50
VALG RyaNoob
p1290
sg52
Nssg44
VPT1M35.8306115S
p1291
sa(dp1292
g230
I4106030681
sg231
I00
sg232
I00
sg233
(dp1293
g50
VTL Eco HCS
p1294
sg52
Nssg236
(lp1295
sg238
I00
sg239
I01
sg240
I1
sg241
I0
sg242
I1
sg243
(dp1296
Vy
F15.154836700000001
sVx
F10.805027000000001
sVz
F0.600221
ssg245
(dp1297
Vy
F13.4697361
sVx
F-3.2886414500000001
sVz
F1.07960677
ssg247
I00
sg248
(dp1298
g50
VALG Heinz HCS
p1299
sg52
Nssg251
(lp1300
sg253
(lp1301
(dp1302
g50
VTL Danoxide
p1303
sg52
Nsasg255
I00
sg44
VPT1M38.7296114S
p1304
sg41
VDeath
p1305
sg258
I1
sa(dp1306
g47
I313138863
sg41
VWeaponDrop
p1307
sg189
I0
sg53
(lp1308
I1095363701
asg44
VPT1M38.7316274S
p1309
sg192
I0
sg193
VP0DT0H0M0.5167S
p1310
sg48
(dp1311
g50
VALG Heinz HCS
p1312
sg52
Nssa(dp1313
g47
I4096745987
sg41
VWeaponDrop
p1314
sg189
I11
sg53
(lp1315
I2758383128
asg44
VPT1M38.7316274S
p1316
sg192
I5
sg193
VP0DT0H0M12.6667S
p1317
sg48
(dp1318
g50
VALG Heinz HCS
p1319
sg52
Nssa(dp1320
g47
I2244200496
sg48
(dp1321
g50
VTL Eco HCS
p1322
sg52
Nssg53
(lp1323
I2758383128
asg41
VWeaponPickup
p1324
sg44
VPT1M40.2126187S
p1325
sa(dp1326
g41
VImpulse
p1327
sg48
(dp1328
g50
VTL Eco HCS
p1329
sg52
Nssg263
I4191318012
sg44
VPT1M40.2136179S
p1330
sa(dp1331
g41
VImpulse
p1332
sg48
(dp1333
g50
VTL Eco HCS
p1334
sg52
Nssg263
I1039658009
sg44
VPT1M40.2136179S
p1335
sa(dp1336
g47
I2244200496
sg41
VWeaponDrop
p1337
sg189
I0
sg53
(lp1338
I2758383128
asg44
VPT1M41.7786499S
p1339
sg192
I0
sg193
VP0DT0H0M1.4167S
p1340
sg48
(dp1341
g50
VTL Eco HCS
p1342
sg52
Nssa(dp1343
g41
VImpulse
p1344
sg48
(dp1345
g50
VTL Eco HCS
p1346
sg52
Nssg263
I3435524855
sg44
VPT1M41.7796587S
p1347
sa(dp1348
g230
I424645655
sg231
I00
sg232
I00
sg233
(dp1349
g50
VTL Spartan HCS
p1350
sg52
Nssg236
(lp1351
I1327094800
asg238
I00
sg239
I01
sg240
I1
sg241
I0
sg242
I1
sg243
(dp1352
Vy
F-0.67029070000000002
sVx
F9.2696020000000008
sVz
F2.8092130000000002
ssg245
(dp1353
Vy
F17.443985000000001
sVx
F1.2919591699999999
sVz
F0.59982230000000003
ssg247
I00
sg248
(dp1354
g50
VALG ContrA HCS
p1355
sg52
Nssg251
(lp1356
sg253
(lp1357
(dp1358
g50
VTL Danoxide
p1359
sg52
Nsasg255
I01
sg44
VPT1M43.8466403S
p1360
sg41
VDeath
p1361
sg258
I1
sa(dp1362
g41
VImpulse
p1363
sg48
(dp1364
g50
VTL Spartan HCS
p1365
sg52
Nssg263
I2556889090
sg44
VPT1M43.8466403S
p1366
sa(dp1367
g41
VMedal
p1368
sg48
(dp1369
g50
VTL Spartan HCS
p1370
sg52
Nssg269
I352859864
sg44
VPT1M43.8466403S
p1371
sa(dp1372
g41
VMedal
p1373
sg48
(dp1374
g50
VTL Eco HCS
p1375
sg52
Nssg269
I824733727
sg44
VPT1M43.8476657S
p1376
sa(dp1377
g41
VMedal
p1378
sg48
(dp1379
g50
VTL Spartan HCS
p1380
sg52
Nssg269
I3261908037
sg44
VPT1M43.8486624S
p1381
sa(dp1382
g41
VMedal
p1383
sg48
(dp1384
g50
VTL Spartan HCS
p1385
sg52
Nssg269
I2430242797
sg44
VPT1M43.8486624S
p1386
sa(dp1387
g47
I313138863
sg41
VWeaponDrop
p1388
sg189
I0
sg53
(lp1389
I1095363701
asg44
VPT1M43.8486624S
p1390
sg192
I0
sg193
VP0DT0H0M0.4000S
p1391
sg48
(dp1392
g50
VALG ContrA HCS
p1393
sg52
Nssa(dp1394
g47
I4096745987
sg41
VWeaponDrop
p1395
sg189
I11
sg53
(lp1396
I2758383128
asg44
VPT1M43.8486624S
p1397
sg192
I7
sg193
VP0DT0H0M16.0000S
p1398
sg48
(dp1399
g50
VALG ContrA HCS
p1400
sg52
Nssa(dp1401
g47
I2244200496
sg48
(dp1402
g50
VTL Eco HCS
p1403
sg52
Nssg53
(lp1404
I2758383128
asg41
VWeaponPickup
p1405
sg44
VPT1M44.1286691S
p1406
sa(dp1407
g41
VImpulse
p1408
sg48
(dp1409
g50
VTL Eco HCS
p1410
sg52
Nssg263
I4191318012
sg44
VPT1M44.1296635S
p1411
sa(dp1412
g230
I3190813201
sg231
I00
sg232
I00
sg233
(dp1413
g50
VTL Danoxide
p1414
sg52
Nssg236
(lp1415
sg238
I00
sg239
I01
sg240
I1
sg241
I0
sg242
I1
sg243
(dp1416
Vy
F11.534288399999999
sVx
F-1.27238834
sVz
F1.2463507700000001
ssg245
(dp1417
Vy
F14.832273499999999
sVx
F-1.47852921
sVz
F1.4802951799999999
ssg247
I00
sg248
(dp1418
g50
VALGPredevonator
p1419
sg52
Nssg251
(lp1420
sg253
(lp1421
(dp1422
g50
VTL Spartan HCS
p1423
sg52
Nsasg255
I00
sg44
VPT1M45.9296536S
p1424
sg41
VDeath
p1425
sg258
I1
sa(dp1426
g47
I313138863
sg41
VWeaponDrop
p1427
sg189
I0
sg53
(lp1428
I1095363701
asg44
VPT1M45.9326753S
p1429
sg192
I0
sg193
VP0DT0H0M1.3667S
p1430
sg48
(dp1431
g50
VALGPredevonator
p1432
sg52
Nssa(dp1433
g47
I4096745987
sg41
VWeaponDrop
p1434
sg189
I4
sg53
(lp1435
I2758383128
asg44
VPT1M45.9326753S
p1436
sg192
I1
sg193
VP0DT0H0M13.3333S
p1437
sg48
(dp1438
g50
VALGPredevonator
p1439
sg52
Nssa(dp1440
g47
I2244200496
sg41
VWeaponDrop
p1441
sg189
I0
sg53
(lp1442
I2758383128
asg44
VPT1M46.0286798S
p1443
sg192
I0
sg193
VP0DT0H0M1.7500S
p1444
sg48
(dp1445
g50
VTL Eco HCS
p1446
sg52
Nssa(dp1447
g41
VImpulse
p1448
sg48
(dp1449
g50
VTL Eco HCS
p1450
sg52
Nssg263
I3435524855
sg44
VPT1M46.0296547S
p1451
sa(dp1452
g47
I313138863
sg48
(dp1453
g50
VALG Heinz HCS
p1454
sg52
Nssg53
(lp1455
I1095363701
asg41
VWeaponPickup
p1456
sg44
VPT1M46.7466598S
p1457
sa(dp1458
g47
I4096745987
sg48
(dp1459
g50
VALG Heinz HCS
p1460
sg52
Nssg53
(lp1461
I2758383128
asg41
VWeaponPickup
p1462
sg44
VPT1M46.7476784S
p1463
sa(dp1464
g41
VPlayerSpawn
p1465
sg48
(dp1466
g50
VALG Heinz HCS
p1467
sg52
Nssg44
VPT1M46.7476784S
p1468
sa(dp1469
g41
VMedal
p1470
sg48
(dp1471
g50
VTL Eco HCS
p1472
sg52
Nssg269
I3400287617
sg44
VPT1M47.4787003S
p1473
sa(dp1474
g230
I313138863
sg231
I00
sg232
I01
sg233
(dp1475
g50
VALG RyaNoob
p1476
sg52
Nssg236
(lp1477
I1095363701
asg238
I00
sg239
I00
sg240
I1
sg241
I0
sg242
I1
sg243
(dp1478
Vy
F0.30909922699999998
sVx
F-0.59735020000000005
sVz
F3.8484310000000002
ssg245
(dp1479
Vy
F0.33781471800000001
sVx
F-0.156446785
sVz
F3.9269721500000001
ssg247
I00
sg248
(dp1480
g50
VTL Spartan HCS
p1481
sg52
Nssg251
(lp1482
sg253
(lp1483
sg255
I00
sg44
VPT1M48.4966703S
p1484
sg41
VDeath
p1485
sg258
I1
sa(dp1486
g41
VMedal
p1487
sg48
(dp1488
g50
VALG RyaNoob
p1489
sg52
Nssg269
I250435527
sg44
VPT1M48.497706S
p1490
sa(dp1491
g47
I424645655
sg41
VWeaponDrop
p1492
sg189
I29
sg53
(lp1493
I1327094800
asg44
VPT1M48.497706S
p1494
sg192
I15
sg193
VP0DT0H0M17.7833S
p1495
sg48
(dp1496
g50
VTL Spartan HCS
p1497
sg52
Nssa(dp1498
g47
I424645655
sg41
VWeaponDrop
p1499
sg189
I0
sg53
(lp1500
I1327094800
asg44
VPT1M48.497706S
p1501
sg192
I0
sg193
VP0DT0S
p1502
sg48
(dp1503
g50
VTL Spartan HCS
p1504
sg52
Nssa(dp1505
g47
I2133511419
sg41
VWeaponDrop
p1506
sg189
I0
sg53
(lp1507
I2758383128
asg44
VPT1M48.4996719S
p1508
sg192
I0
sg193
VP0DT0H0M0.6000S
p1509
sg48
(dp1510
g50
VTL Spartan HCS
p1511
sg52
Nssa(dp1512
g230
I424645655
sg231
I00
sg232
I01
sg233
(dp1513
g50
VTL Spartan HCS
p1514
sg52
Nssg236
(lp1515
I1327094800
asg238
I00
sg239
I00
sg240
I1
sg241
I0
sg242
I1
sg243
(dp1516
Vy
F0.33781471800000001
sVx
F-0.156446785
sVz
F3.9269721500000001
ssg245
(dp1517
Vy
F0.30909922699999998
sVx
F-0.59735020000000005
sVz
F3.8484310000000002
ssg247
I00
sg248
(dp1518
g50
VALG RyaNoob
p1519
sg52
Nssg251
(lp1520
sg253
(lp1521
sg255
I00
sg44
VPT1M48.4996719S
p1522
sg41
VDeath
p1523
sg258
I1
sa(dp1524
g41
VImpulse
p1525
sg48
(dp1526
g50
VTL Spartan HCS
p1527
sg52
Nssg263
I2556889090
sg44
VPT1M48.4996719S
p1528
sa(dp1529
g41
VMedal
p1530
sg48
(dp1531
g50
VTL Spartan HCS
p1532
sg52
Nssg269
I2838259753
sg44
VPT1M48.4996719S
p1533
sa(dp1534
g41
VMedal
p1535
sg48
(dp1536
g50
VTL Spartan HCS
p1537
sg52
Nssg269
I250435527
sg44
VPT1M48.5006958S
p1538
sa(dp1539
g47
I313138863
sg41
VWeaponDrop
p1540
sg189
I9
sg53
(lp1541
I1095363701
asg44
VPT1M48.5006958S
p1542
sg192
I7
sg193
VP0DT0H0M2.1167S
p1543
sg48
(dp1544
g50
VALG RyaNoob
p1545
sg52
Nssa(dp1546
g47
I313138863
sg41
VWeaponDrop
p1547
sg189
I0
sg53
(lp1548
I1095363701
asg44
VPT1M48.5006958S
p1549
sg192
I0
sg193
VP0DT0S
p1550
sg48
(dp1551
g50
VALG RyaNoob
p1552
sg52
Nssa(dp1553
g47
I4096745987
sg41
VWeaponDrop
p1554
sg189
I9
sg53
(lp1555
I2758383128
asg44
VPT1M48.5016944S
p1556
sg192
I5
sg193
VP0DT0H0M10.5500S
p1557
sg48
(dp1558
g50
VALG RyaNoob
p1559
sg52
Nssa(dp1560
g47
I2244200496
sg48
(dp1561
g50
VTL Eco HCS
p1562
sg52
Nssg53
(lp1563
I2758383128
asg41
VWeaponPickup
p1564
sg44
VPT1M48.8956738S
p1565
sa(dp1566
g41
VImpulse
p1567
sg48
(dp1568
g50
VTL Eco HCS
p1569
sg52
Nssg263
I4191318012
sg44
VPT1M48.8956738S
p1570
sa(dp1571
g47
I313138863
sg48
(dp1572
g50
VALG ContrA HCS
p1573
sg52
Nssg53
(lp1574
I1095363701
asg41
VWeaponPickup
p1575
sg44
VPT1M51.8626924S
p1576
sa(dp1577
g47
I4096745987
sg48
(dp1578
g50
VALG ContrA HCS
p1579
sg52
Nssg53
(lp1580
I2758383128
asg41
VWeaponPickup
p1581
sg44
VPT1M51.863717S
p1582
sa(dp1583
g41
VPlayerSpawn
p1584
sg48
(dp1585
g50
VALG ContrA HCS
p1586
sg52
Nssg44
VPT1M51.863717S
p1587
sa(dp1588
g230
I313138863
sg231
I00
sg232
I00
sg233
(dp1589
g50
VALG Heinz HCS
p1590
sg52
Nssg236
(lp1591
I1095363701
asg238
I00
sg239
I01
sg240
I1
sg241
I0
sg242
I1
sg243
(dp1592
Vy
F7.7350099999999999
sVx
F-3.9565806399999999
sVz
F0.62679094099999999
ssg245
(dp1593
Vy
F9.1637430000000002
sVx
F-0.3884184
sVz
F4.7385692599999997e-06
ssg247
I00
sg248
(dp1594
g50
VTL Danoxide
p1595
sg52
Nssg251
(lp1596
sg253
(lp1597
sg255
I00
sg44
VPT1M52.7136976S
p1598
sg41
VDeath
p1599
sg258
I1
sa(dp1600
g47
I313138863
sg41
VWeaponDrop
p1601
sg189
I13
sg53
(lp1602
I1095363701
asg44
VPT1M52.7157251S
p1603
sg192
I5
sg193
VP0DT0H0M4.4833S
p1604
sg48
(dp1605
g50
VTL Danoxide
p1606
sg52
Nssa(dp1607
g47
I4096745987
sg41
VWeaponDrop
p1608
sg189
I11
sg53
(lp1609
I2758383128
asg44
VPT1M52.7157251S
p1610
sg192
I4
sg193
VP0DT0H0M22.0167S
p1611
sg48
(dp1612
g50
VTL Danoxide
p1613
sg52
Nssa(dp1614
g47
I313138863
sg48
(dp1615
g50
VALGPredevonator
p1616
sg52
Nssg53
(lp1617
I1095363701
asg41
VWeaponPickup
p1618
sg44
VPT1M53.9467309S
p1619
sa(dp1620
g47
I4096745987
sg48
(dp1621
g50
VALGPredevonator
p1622
sg52
Nssg53
(lp1623
I2758383128
asg41
VWeaponPickup
p1624
sg44
VPT1M53.9467309S
p1625
sa(dp1626
g41
VPlayerSpawn
p1627
sg48
(dp1628
g50
VALGPredevonator
p1629
sg52
Nssg44
VPT1M53.9467309S
p1630
sa(dp1631
g47
I2244200496
sg41
VWeaponDrop
p1632
sg189
I0
sg53
(lp1633
I2758383128
asg44
VPT1M54.1787073S
p1634
sg192
I0
sg193
VP0DT0H0M5.1333S
p1635
sg48
(dp1636
g50
VTL Eco HCS
p1637
sg52
Nssa(dp1638
g41
VImpulse
p1639
sg48
(dp1640
g50
VTL Eco HCS
p1641
sg52
Nssg263
I3435524855
sg44
VPT1M54.1797322S
p1642
sa(dp1643
g47
I2244200496
sg48
(dp1644
g50
VTL Eco HCS
p1645
sg52
Nssg53
(lp1646
I2758383128
asg41
VWeaponPickup
p1647
sg44
VPT1M55.3617408S
p1648
sa(dp1649
g41
VImpulse
p1650
sg48
(dp1651
g50
VTL Eco HCS
p1652
sg52
Nssg263
I4191318012
sg44
VPT1M55.3627145S
p1653
sa(dp1654
g41
VMedal
p1655
sg48
(dp1656
g50
VTL Eco HCS
p1657
sg52
Nssg269
I3894006667
sg44
VPT1M56.3957211S
p1658
sa(dp1659
g41
VImpulse
p1660
sg48
(dp1661
g50
VTL Eco HCS
p1662
sg52
Nssg263
I2944278681
sg44
VPT1M56.3957211S
p1663
sa(dp1664
g47
I2244200496
sg41
VWeaponDrop
p1665
sg189
I0
sg53
(lp1666
I2758383128
asg44
VPT1M56.3967249S
p1667
sg192
I0
sg193
VP0DT0H0M0.8833S
p1668
sg48
(dp1669
g50
VTL Eco HCS
p1670
sg52
Nssa(dp1671
g47
I313138863
sg48
(dp1672
g50
VTL Spartan HCS
p1673
sg52
Nssg53
(lp1674
I1095363701
asg41
VWeaponPickup
p1675
sg44
VPT1M56.5127225S
p1676
sa(dp1677
g47
I4096745987
sg48
(dp1678
g50
VTL Spartan HCS
p1679
sg52
Nssg53
(lp1680
I2758383128
asg41
VWeaponPickup
p1681
sg44
VPT1M56.5137454S
p1682
sa(dp1683
g41
VPlayerSpawn
p1684
sg48
(dp1685
g50
VTL Spartan HCS
p1686
sg52
Nssg44
VPT1M56.5137454S
p1687
sa(dp1688
g47
I313138863
sg48
(dp1689
g50
VALG RyaNoob
p1690
sg52
Nssg53
(lp1691
I1095363701
asg41
VWeaponPickup
p1692
sg44
VPT1M56.5467414S
p1693
sa(dp1694
g47
I4096745987
sg48
(dp1695
g50
VALG RyaNoob
p1696
sg52
Nssg53
(lp1697
I2758383128
asg41
VWeaponPickup
p1698
sg44
VPT1M56.5467414S
p1699
sa(dp1700
g41
VPlayerSpawn
p1701
sg48
(dp1702
g50
VALG RyaNoob
p1703
sg52
Nssg44
VPT1M56.5467414S
p1704
sa(dp1705
g47
I4096745987
sg41
VWeaponDrop
p1706
sg189
I0
sg53
(lp1707
I2758383128
asg44
VPT1M58.4617394S
p1708
sg192
I0
sg193
VP0DT0H0M0.9500S
p1709
sg48
(dp1710
g50
VALG RyaNoob
p1711
sg52
Nssa(dp1712
g47
I2511447508
sg48
(dp1713
g50
VALG RyaNoob
p1714
sg52
Nssg53
(lp1715
I2758383128
asg41
VWeaponPickup
p1716
sg44
VPT1M58.4617394S
p1717
sa(dp1718
g47
I313138863
sg48
(dp1719
g50
VTL Danoxide
p1720
sg52
Nssg53
(lp1721
I1095363701
asg41
VWeaponPickup
p1722
sg44
VPT2M0.7317684S
p1723
sa(dp1724
g47
I4096745987
sg48
(dp1725
g50
VTL Danoxide
p1726
sg52
Nssg53
(lp1727
I2758383128
asg41
VWeaponPickup
p1728
sg44
VPT2M0.7317684S
p1729
sa(dp1730
g41
VPlayerSpawn
p1731
sg48
(dp1732
g50
VTL Danoxide
p1733
sg52
Nssg44
VPT2M0.7317684S
p1734
sa(dp1735
g47
I4096745987
sg41
VWeaponDrop
p1736
sg189
I0
sg53
(lp1737
I2758383128
asg44
VPT2M3.3447874S
p1738
sg192
I0
sg193
VP0DT0H0M1.9000S
p1739
sg48
(dp1740
g50
VTL Danoxide
p1741
sg52
Nssa(dp1742
g47
I424645655
sg48
(dp1743
g50
VTL Danoxide
p1744
sg52
Nssg53
(lp1745
I1327094800
asg41
VWeaponPickup
p1746
sg44
VPT2M3.3447874S
p1747
sa(dp1748
g230
I4096745987
sg231
I00
sg232
I00
sg233
(dp1749
g50
VALG ContrA HCS
p1750
sg52
Nssg236
(lp1751
I2758383128
asg238
I00
sg239
I01
sg240
I1
sg241
I0
sg242
I1
sg243
(dp1752
Vy
F-0.282699376
sVx
F-1.96051753
sVz
F4.8454769999999998
ssg245
(dp1753
Vy
F-0.16229216799999999
sVx
F-12.193306
sVz
F2.1567041900000001
ssg247
I00
sg248
(dp1754
g50
VTL Eco HCS
p1755
sg52
Nssg251
(lp1756
sg253
(lp1757
(dp1758
g50
VALG Heinz HCS
p1759
sg52
Nsasg255
I01
sg44
VPT2M4.4127731S
p1760
sg41
VDeath
p1761
sg258
I1
sa(dp1762
g41
VMedal
p1763
sg48
(dp1764
g50
VALG ContrA HCS
p1765
sg52
Nssg269
I3261908037
sg44
VPT2M4.4137953S
p1766
sa(dp1767
g47
I4096745987
sg41
VWeaponDrop
p1768
sg189
I41
sg53
(lp1769
I2758383128
asg44
VPT2M4.4147742S
p1770
sg192
I26
sg193
VP0DT0H1M23.5167S
p1771
sg48
(dp1772
g50
VTL Eco HCS
p1773
sg52
Nssa(dp1774
g47
I313138863
sg41
VWeaponDrop
p1775
sg189
I17
sg53
(lp1776
I1095363701
asg44
VPT2M4.4157906S
p1777
sg192
I6
sg193
VP0DT0H0M14.2000S
p1778
sg48
(dp1779
g50
VTL Eco HCS
p1780
sg52
Nssa(dp1781
g230
I2511447508
sg231
I00
sg232
I00
sg233
(dp1782
g50
VALG RyaNoob
p1783
sg52
Nssg236
(lp1784
I2758383128
asg238
I00
sg239
I01
sg240
I1
sg241
I0
sg242
I1
sg243
(dp1785
Vy
F11.122564300000001
sVx
F-9.0095580000000002
sVz
F5.5134296400000004e-06
ssg245
(dp1786
Vy
F8.58934
sVx
F-11.3454351
sVz
F0.89268225400000001
ssg247
I00
sg248
(dp1787
g50
VTL StelluR
p1788
sg52
Nssg251
(lp1789
sg253
(lp1790
sg255
I01
sg44
VPT2M10.5288384S
p1791
sg41
VDeath
p1792
sg258
I1
sa(dp1793
g41
VMedal
p1794
sg48
(dp1795
g50
VALG RyaNoob
p1796
sg52
Nssg269
I3261908037
sg44
VPT2M10.531836S
p1797
sa(dp1798
g47
I2511447508
sg41
VWeaponDrop
p1799
sg189
I12
sg53
(lp1800
I2758383128
asg44
VPT2M10.531836S
p1801
sg192
I6
sg193
VP0DT0H0M46.6167S
p1802
sg48
(dp1803
g50
VTL StelluR
p1804
sg52
Nssa(dp1805
g47
I424645655
sg41
VWeaponDrop
p1806
sg189
I6
sg53
(lp1807
I1327094800
asg44
VPT2M10.531836S
p1808
sg192
I5
sg193
VP0DT0H0M7.9833S
p1809
sg48
(dp1810
g50
VTL StelluR
p1811
sg52
Nssa(dp1812
g47
I313138863
sg48
(dp1813
g50
VTL Eco HCS
p1814
sg52
Nssg53
(lp1815
I1095363701
asg41
VWeaponPickup
p1816
sg44
VPT2M12.4288242S
p1817
sa(dp1818
g47
I4096745987
sg48
(dp1819
g50
VTL Eco HCS
p1820
sg52
Nssg53
(lp1821
I2758383128
asg41
VWeaponPickup
p1822
sg44
VPT2M12.4298432S
p1823
sa(dp1824
g41
VPlayerSpawn
p1825
sg48
(dp1826
g50
VTL Eco HCS
p1827
sg52
Nssg44
VPT2M12.4298432S
p1828
sa(dp1829
g230
I4096745987
sg231
I00
sg232
I00
sg233
(dp1830
g50
VALG ContrA HCS
p1831
sg52
Nssg236
(lp1832
I2758383128
asg238
I00
sg239
I01
sg240
I1
sg241
I0
sg242
I1
sg243
(dp1833
Vy
F-3.2050869999999998
sVx
F-11.3678837
sVz
F1.9910378500000001
ssg245
(dp1834
Vy
F-6.8322310000000002
sVx
F-15.1887341
sVz
F0.78025335100000004
ssg247
I00
sg248
(dp1835
g50
VTL Danoxide
p1836
sg52
Nssg251
(lp1837
sg253
(lp1838
(dp1839
g50
VALG Heinz HCS
p1840
sg52
Nsasg255
I00
sg44
VPT2M17.8788577S
p1841
sg41
VDeath
p1842
sg258
I1
sa(dp1843
g47
I313138863
sg41
VWeaponDrop
p1844
sg189
I0
sg53
(lp1845
I1095363701
asg44
VPT2M17.8798782S
p1846
sg192
I0
sg193
VP0DT0H0M0.7167S
p1847
sg48
(dp1848
g50
VTL Danoxide
p1849
sg52
Nssa(dp1850
g47
I424645655
sg41
VWeaponDrop
p1851
sg189
I6
sg53
(lp1852
I1327094800
asg44
VPT2M17.8808605S
p1853
sg192
I0
sg193
VP0DT0H0M14.5333S
p1854
sg48
(dp1855
g50
VTL Danoxide
p1856
sg52
Nssa(dp1857
g47
I313138863
sg48
(dp1858
g50
VTL StelluR
p1859
sg52
Nssg53
(lp1860
I1095363701
asg41
VWeaponPickup
p1861
sg44
VPT2M18.5458808S
p1862
sa(dp1863
g47
I4096745987
sg48
(dp1864
g50
VTL StelluR
p1865
sg52
Nssg53
(lp1866
I2758383128
asg41
VWeaponPickup
p1867
sg44
VPT2M18.5458808S
p1868
sa(dp1869
g41
VPlayerSpawn
p1870
sg48
(dp1871
g50
VTL StelluR
p1872
sg52
Nssg44
VPT2M18.5458808S
p1873
sa(dp1874
g230
I4096745987
sg231
I00
sg232
I00
sg233
(dp1875
g50
VALG Heinz HCS
p1876
sg52
Nssg236
(lp1877
I2758383128
asg238
I00
sg239
I01
sg240
I1
sg241
I0
sg242
I1
sg243
(dp1878
Vy
F-7.6226960000000004
sVx
F-9.4818040000000003
sVz
F-0.00021857023200000001
ssg245
(dp1879
Vy
F-17.7088985
sVx
F-0.054196939999999999
sVz
F1.54478228
ssg247
I00
sg248
(dp1880
g50
VTL Spartan HCS
p1881
sg52
Nssg251
(lp1882
sg253
(lp1883
(dp1884
g50
VALG ContrA HCS
p1885
sg52
Nsa(dp1886
g50
VALGPredevonator
p1887
sg52
Nsasg255
I00
sg44
VPT2M19.6278696S
p1888
sg41
VDeath
p1889
sg258
I1
sa(dp1890
g47
I313138863
sg41
VWeaponDrop
p1891
sg189
I17
sg53
(lp1892
I1095363701
asg44
VPT2M19.6298934S
p1893
sg192
I3
sg193
VP0DT0H0M7.5833S
p1894
sg48
(dp1895
g50
VTL Spartan HCS
p1896
sg52
Nssa(dp1897
g47
I4096745987
sg41
VWeaponDrop
p1898
sg189
I8
sg53
(lp1899
I2758383128
asg44
VPT2M19.6298934S
p1900
sg192
I2
sg193
VP0DT0H0M15.5333S
p1901
sg48
(dp1902
g50
VTL Spartan HCS
p1903
sg52
Nssa(dp1904
g230
I4106030681
sg231
I00
sg232
I00
sg233
(dp1905
g50
VTL Eco HCS
p1906
sg52
Nssg236
(lp1907
sg238
I00
sg239
I01
sg240
I1
sg241
I0
sg242
I1
sg243
(dp1908
Vy
F-10.4893026
sVx
F-11.013714800000001
sVz
F0.54773324700000003
ssg245
(dp1909
Vy
F-17.161777499999999
sVx
F4.0968710000000002
sVz
F0.59954094899999999
ssg247
I00
sg248
(dp1910
g50
VALGPredevonator
p1911
sg52
Nssg251
(lp1912
sg253
(lp1913
(dp1914
g50
VTL Spartan HCS
p1915
sg52
Nsasg255
I00
sg44
VPT2M21.0278791S
p1916
sg41
VDeath
p1917
sg258
I1
sa(dp1918
g41
VMedal
p1919
sg48
(dp1920
g50
VTL Eco HCS
p1921
sg52
Nssg269
I3491849182
sg44
VPT2M21.0299018S
p1922
sa(dp1923
g47
I313138863
sg41
VWeaponDrop
p1924
sg189
I13
sg53
(lp1925
I1095363701
asg44
VPT2M21.0299018S
p1926
sg192
I3
sg193
VP0DT0H0M11.4500S
p1927
sg48
(dp1928
g50
VALGPredevonator
p1929
sg52
Nssa(dp1930
g47
I4096745987
sg41
VWeaponDrop
p1931
sg189
I1
sg53
(lp1932
I2758383128
asg44
VPT2M21.0299018S
p1933
sg192
I0
sg193
VP0DT0H0M15.6333S
p1934
sg48
(dp1935
g50
VALGPredevonator
p1936
sg52
Nssa(dp1937
g230
I313138863
sg231
I00
sg232
I01
sg233
(dp1938
g50
VTL Eco HCS
p1939
sg52
Nssg236
(lp1940
I1095363701
asg238
I00
sg239
I00
sg240
I1
sg241
I0
sg242
I1
sg243
(dp1941
Vy
F-9.9001490000000008
sVx
F-10.3960686
sVz
F0.00072868170000000003
ssg245
(dp1942
Vy
F-9.6149520000000006
sVx
F-9.9539910000000003
sVz
F0.045132234700000003
ssg247
I00
sg248
(dp1943
g50
VALG ContrA HCS
p1944
sg52
Nssg251
(lp1945
sg253
(lp1946
sg255
I00
sg44
VPT2M22.1618856S
p1947
sg41
VDeath
p1948
sg258
I1
sa(dp1949
g41
VMedal
p1950
sg48
(dp1951
g50
VTL Eco HCS
p1952
sg52
Nssg269
I250435527
sg44
VPT2M22.1629359S
p1953
sa(dp1954
g41
VMedal
p1955
sg48
(dp1956
g50
VTL Eco HCS
p1957
sg52
Nssg269
I2078758684
sg44
VPT2M22.1629359S
p1958
sa(dp1959
g47
I313138863
sg41
VWeaponDrop
p1960
sg189
I9
sg53
(lp1961
I1095363701
asg44
VPT2M22.1639115S
p1962
sg192
I7
sg193
VP0DT0H0M1.9000S
p1963
sg48
(dp1964
g50
VALG ContrA HCS
p1965
sg52
Nssa(dp1966
g47
I313138863
sg41
VWeaponDrop
p1967
sg189
I0
sg53
(lp1968
I1095363701
asg44
VPT2M22.1639115S
p1969
sg192
I0
sg193
VP0DT0S
p1970
sg48
(dp1971
g50
VALG ContrA HCS
p1972
sg52
Nssa(dp1973
g47
I4096745987
sg41
VWeaponDrop
p1974
sg189
I18
sg53
(lp1975
I2758383128
asg44
VPT2M22.1639115S
p1976
sg192
I10
sg193
VP0DT0H0M28.4000S
p1977
sg48
(dp1978
g50
VALG ContrA HCS
p1979
sg52
Nssa(dp1980
g230
I313138863
sg231
I00
sg232
I01
sg233
(dp1981
g50
VALG ContrA HCS
p1982
sg52
Nssg236
(lp1983
I1095363701
asg238
I00
sg239
I00
sg240
I1
sg241
I0
sg242
I1
sg243
(dp1984
Vy
F-9.6149520000000006
sVx
F-9.9539910000000003
sVz
F0.33573225099999998
ssg245
(dp1985
Vy
F-9.9001490000000008
sVx
F-10.3960686
sVz
F0.00072868170000000003
ssg247
I00
sg248
(dp1986
g50
VTL Eco HCS
p1987
sg52
Nssg251
(lp1988
sg253
(lp1989
sg255
I00
sg44
VPT2M22.1639115S
p1990
sg41
VDeath
p1991
sg258
I1
sa(dp1992
g41
VMedal
p1993
sg48
(dp1994
g50
VALG ContrA HCS
p1995
sg52
Nssg269
I250435527
sg44
VPT2M22.1649211S
p1996
sa(dp1997
g47
I313138863
sg41
VWeaponDrop
p1998
sg189
I8
sg53
(lp1999
I1095363701
asg44
VPT2M22.1649211S
p2000
sg192
I8
sg193
VP0DT0H0M2.3333S
p2001
sg48
(dp2002
g50
VTL Eco HCS
p2003
sg52
Nssa(dp2004
g47
I313138863
sg41
VWeaponDrop
p2005
sg189
I0
sg53
(lp2006
I1095363701
asg44
VPT2M22.1649211S
p2007
sg192
I0
sg193
VP0DT0S
p2008
sg48
(dp2009
g50
VTL Eco HCS
p2010
sg52
Nssa(dp2011
g47
I4096745987
sg41
VWeaponDrop
p2012
sg189
I10
sg53
(lp2013
I2758383128
asg44
VPT2M22.1659111S
p2014
sg192
I4
sg193
VP0DT0H0M7.4000S
p2015
sg48
(dp2016
g50
VTL Eco HCS
p2017
sg52
Nssa(dp2018
g47
I2244200496
sg48
(dp2019
g50
VALG Heinz HCS
p2020
sg52
Nssg53
(lp2021
I2758383128
asg41
VWeaponPickup
p2022
sg44
VPT2M22.7438908S
p2023
sa(dp2024
g41
VImpulse
p2025
sg48
(dp2026
g50
VALG Heinz HCS
p2027
sg52
Nssg263
I4191318012
sg44
VPT2M22.744891S
p2028
sa(dp2029
g41
VImpulse
p2030
sg48
(dp2031
g50
VALG Heinz HCS
p2032
sg52
Nssg263
I1039658009
sg44
VPT2M22.744891S
p2033
sa(dp2034
g230
I4096745987
sg231
I00
sg232
I00
sg233
(dp2035
g50
VTL StelluR
p2036
sg52
Nssg236
(lp2037
I2758383128
asg238
I00
sg239
I01
sg240
I1
sg241
I0
sg242
I1
sg243
(dp2038
Vy
F-4.9413260000000001
sVx
F3.6018197500000002
sVz
F1.3605395600000001
ssg245
(dp2039
Vy
F-12.2823677
sVx
F-9.7110509999999994
sVz
F0.60006020000000004
ssg247
I00
sg248
(dp2040
g50
VALG Heinz HCS
p2041
sg52
Nssg251
(lp2042
sg253
(lp2043
sg255
I01
sg44
VPT2M22.8949143S
p2044
sg41
VDeath
p2045
sg258
I1
sa(dp2046
g41
VImpulse
p2047
sg48
(dp2048
g50
VTL StelluR
p2049
sg52
Nssg263
I3174430457
sg44
VPT2M22.8968927S
p2050
sa(dp2051
g41
VMedal
p2052
sg48
(dp2053
g50
VTL StelluR
p2054
sg52
Nssg269
I2028249938
sg44
VPT2M22.9009129S
p2055
sa(dp2056
g41
VImpulse
p2057
sg48
(dp2058
g50
VTL StelluR
p2059
sg52
Nssg263
I2299858338
sg44
VPT2M22.9009129S
p2060
sa(dp2061
g41
VMedal
p2062
sg48
(dp2063
g50
VTL StelluR
p2064
sg52
Nssg269
I3653057799
sg44
VPT2M22.902253S
p2065
sa(dp2066
g47
I313138863
sg41
VWeaponDrop
p2067
sg189
I41
sg53
(lp2068
I1095363701
asg44
VPT2M22.9059127S
p2069
sg192
I20
sg193
VP0DT0H0M10.0167S
p2070
sg48
(dp2071
g50
VALG Heinz HCS
p2072
sg52
Nssa(dp2073
g47
I4096745987
sg41
VWeaponDrop
p2074
sg189
I10
sg53
(lp2075
I2758383128
asg44
VPT2M22.9059127S
p2076
sg192
I6
sg193
VP0DT0H0M26.1333S
p2077
sg48
(dp2078
g50
VALG Heinz HCS
p2079
sg52
Nssa(dp2080
g41
VImpulse
p2081
sg48
(dp2082
g50
VALG Heinz HCS
p2083
sg52
Nssg263
I3435524855
sg44
VPT2M22.9109232S
p2084
sa(dp2085
g47
I2244200496
sg48
(dp2086
g50
VALG RyaNoob
p2087
sg52
Nssg53
(lp2088
I2758383128
asg41
VWeaponPickup
p2089
sg44
VPT2M24.643921S
p2090
sa(dp2091
g41
VImpulse
p2092
sg48
(dp2093
g50
VALG RyaNoob
p2094
sg52
Nssg263
I4191318012
sg44
VPT2M24.6449017S
p2095
sa(dp2096
g47
I313138863
sg41
VWeaponDrop
p2097
sg189
I0
sg53
(lp2098
I1095363701
asg44
VPT2M25.4609071S
p2099
sg192
I0
sg193
VP0DT0H0M2.1333S
p2100
sg48
(dp2101
g50
VTL StelluR
p2102
sg52
Nssa(dp2103
g47
I3682788176
sg48
(dp2104
g50
VTL StelluR
p2105
sg52
Nssg53
(lp2106
I2758383128
asg41
VWeaponPickupPad
p2107
sg44
VPT2M25.4609071S
p2108
sa(dp2109
g47
I3682788176
sg48
(dp2110
g50
VTL StelluR
p2111
sg52
Nssg53
(lp2112
I2758383128
asg41
VWeaponPickup
p2113
sg44
VPT2M25.4609071S
p2114
sa(dp2115
g47
I313138863
sg48
(dp2116
g50
VTL Danoxide
p2117
sg52
Nssg53
(lp2118
I1095363701
asg41
VWeaponPickup
p2119
sg44
VPT2M25.8949102S
p2120
sa(dp2121
g47
I4096745987
sg48
(dp2122
g50
VTL Danoxide
p2123
sg52
Nssg53
(lp2124
I2758383128
asg41
VWeaponPickup
p2125
sg44
VPT2M25.8959292S
p2126
sa(dp2127
g41
VPlayerSpawn
p2128
sg48
(dp2129
g50
VTL Danoxide
p2130
sg52
Nssg44
VPT2M25.8959292S
p2131
sa(dp2132
g47
I2244200496
sg41
VWeaponDrop
p2133
sg189
I0
sg53
(lp2134
I2758383128
asg44
VPT2M26.7439378S
p2135
sg192
I0
sg193
VP0DT0H0M1.9333S
p2136
sg48
(dp2137
g50
VALG RyaNoob
p2138
sg52
Nssa(dp2139
g41
VImpulse
p2140
sg48
(dp2141
g50
VALG RyaNoob
p2142
sg52
Nssg263
I3435524855
sg44
VPT2M26.7449193S
p2143
sa(dp2144
g47
I313138863
sg48
(dp2145
g50
VTL Spartan HCS
p2146
sg52
Nssg53
(lp2147
I1095363701
asg41
VWeaponPickup
p2148
sg44
VPT2M27.6449214S
p2149
sa(dp2150
g47
I4096745987
sg48
(dp2151
g50
VTL Spartan HCS
p2152
sg52
Nssg53
(lp2153
I2758383128
asg41
VWeaponPickup
p2154
sg44
VPT2M27.6459408S
p2155
sa(dp2156
g41
VPlayerSpawn
p2157
sg48
(dp2158
g50
VTL Spartan HCS
p2159
sg52
Nssg44
VPT2M27.6459408S
p2160
sa(dp2161
g47
I313138863
sg48
(dp2162
g50
VALGPredevonator
p2163
sg52
Nssg53
(lp2164
I1095363701
asg41
VWeaponPickup
p2165
sg44
VPT2M29.0449303S
p2166
sa(dp2167
g47
I4096745987
sg48
(dp2168
g50
VALGPredevonator
p2169
sg52
Nssg53
(lp2170
I2758383128
asg41
VWeaponPickup
p2171
sg44
VPT2M29.0459321S
p2172
sa(dp2173
g41
VPlayerSpawn
p2174
sg48
(dp2175
g50
VALGPredevonator
p2176
sg52
Nssg44
VPT2M29.0459321S
p2177
sa(dp2178
g47
I313138863
sg48
(dp2179
g50
VALG ContrA HCS
p2180
sg52
Nssg53
(lp2181
I1095363701
asg41
VWeaponPickup
p2182
sg44
VPT2M30.1789618S
p2183
sa(dp2184
g47
I4096745987
sg48
(dp2185
g50
VALG ContrA HCS
p2186
sg52
Nssg53
(lp2187
I2758383128
asg41
VWeaponPickup
p2188
sg44
VPT2M30.1789618S
p2189
sa(dp2190
g41
VPlayerSpawn
p2191
sg48
(dp2192
g50
VALG ContrA HCS
p2193
sg52
Nssg44
VPT2M30.1789618S
p2194
sa(dp2195
g47
I313138863
sg48
(dp2196
g50
VTL Eco HCS
p2197
sg52
Nssg53
(lp2198
I1095363701
asg41
VWeaponPickup
p2199
sg44
VPT2M30.2099378S
p2200
sa(dp2201
g47
I4096745987
sg48
(dp2202
g50
VTL Eco HCS
p2203
sg52
Nssg53
(lp2204
I2758383128
asg41
VWeaponPickup
p2205
sg44
VPT2M30.2099378S
p2206
sa(dp2207
g41
VPlayerSpawn
p2208
sg48
(dp2209
g50
VTL Eco HCS
p2210
sg52
Nssg44
VPT2M30.2099378S
p2211
sa(dp2212
g47
I2244200496
sg48
(dp2213
g50
VALG RyaNoob
p2214
sg52
Nssg53
(lp2215
I2758383128
asg41
VWeaponPickup
p2216
sg44
VPT2M30.3609369S
p2217
sa(dp2218
g41
VImpulse
p2219
sg48
(dp2220
g50
VALG RyaNoob
p2221
sg52
Nssg263
I4191318012
sg44
VPT2M30.3609369S
p2222
sa(dp2223
g47
I313138863
sg48
(dp2224
g50
VALG Heinz HCS
p2225
sg52
Nssg53
(lp2226
I1095363701
asg41
VWeaponPickup
p2227
sg44
VPT2M30.9119639S
p2228
sa(dp2229
g47
I4096745987
sg48
(dp2230
g50
VALG Heinz HCS
p2231
sg52
Nssg53
(lp2232
I2758383128
asg41
VWeaponPickup
p2233
sg44
VPT2M30.9119639S
p2234
sa(dp2235
g41
VPlayerSpawn
p2236
sg48
(dp2237
g50
VALG Heinz HCS
p2238
sg52
Nssg44
VPT2M30.9119639S
p2239
sa(dp2240
g47
I2244200496
sg41
VWeaponDrop
p2241
sg189
I0
sg53
(lp2242
I2758383128
asg44
VPT2M31.0439619S
p2243
sg192
I0
sg193
VP0DT0H0M0.5167S
p2244
sg48
(dp2245
g50
VALG RyaNoob
p2246
sg52
Nssa(dp2247
g41
VImpulse
p2248
sg48
(dp2249
g50
VALG RyaNoob
p2250
sg52
Nssg263
I3435524855
sg44
VPT2M31.0439619S
p2251
sa(dp2252
g47
I4096745987
sg41
VWeaponDrop
p2253
sg189
I0
sg53
(lp2254
I2758383128
asg44
VPT2M32.509975S
p2255
sg192
I0
sg193
VP0DT0H0M1.8167S
p2256
sg48
(dp2257
g50
VALG ContrA HCS
p2258
sg52
Nssa(dp2259
g47
I424645655
sg48
(dp2260
g50
VALG ContrA HCS
p2261
sg52
Nssg53
(lp2262
I1327094800
asg41
VWeaponPickup
p2263
sg44
VPT2M32.5109796S
p2264
sa(dp2265
g47
I4096745987
sg41
VWeaponDrop
p2266
sg189
I0
sg53
(lp2267
I2758383128
asg44
VPT2M32.7599727S
p2268
sg192
I0
sg193
VP0DT0H0M1.0667S
p2269
sg48
(dp2270
g50
VALG Heinz HCS
p2271
sg52
Nssa(dp2272
g47
I2511447508
sg48
(dp2273
g50
VALG Heinz HCS
p2274
sg52
Nssg53
(lp2275
I2758383128
asg41
VWeaponPickup
p2276
sg44
VPT2M32.7609842S
p2277
sa(dp2278
g230
I313138863
sg231
I00
sg232
I01
sg233
(dp2279
g50
VALG RyaNoob
p2280
sg52
Nssg236
(lp2281
I1095363701
asg238
I00
sg239
I00
sg240
I1
sg241
I0
sg242
I1
sg243
(dp2282
Vy
F-5.7258839999999998
sVx
F-17.128471399999999
sVz
F0.53949606400000005
ssg245
(dp2283
Vy
F-5.5596170000000003
sVx
F-16.771043800000001
sVz
F0.61464700000000005
ssg247
I00
sg248
(dp2284
g50
VTL StelluR
p2285
sg52
Nssg251
(lp2286
sg253
(lp2287
sg255
I00
sg44
VPT2M33.4109839S
p2288
sg41
VDeath
p2289
sg258
I1
sa(dp2290
g41
VMedal
p2291
sg48
(dp2292
g50
VALG RyaNoob
p2293
sg52
Nssg269
I2782465081
sg44
VPT2M33.4119583S
p2294
sa(dp2295
g41
VMedal
p2296
sg48
(dp2297
g50
VALG RyaNoob
p2298
sg52
Nssg269
I2287626681
sg44
VPT2M33.4129829S
p2299
sa(dp2300
g47
I3682788176
sg41
VWeaponDrop
p2301
sg189
I1
sg53
(lp2302
I2758383128
asg44
VPT2M33.4129829S
p2303
sg192
I0
sg193
VP0DT0H0M3.5833S
p2304
sg48
(dp2305
g50
VTL StelluR
p2306
sg52
Nssa(dp2307
g47
I4096745987
sg41
VWeaponDrop
p2308
sg189
I8
sg53
(lp2309
I2758383128
asg44
VPT2M33.4139842S
p2310
sg192
I7
sg193
VP0DT0H0M9.1500S
p2311
sg48
(dp2312
g50
VTL StelluR
p2313
sg52
Nssa(dp2314
g230
I4096745987
sg231
I00
sg232
I00
sg233
(dp2315
g50
VALGPredevonator
p2316
sg52
Nssg236
(lp2317
I2758383128
asg238
I00
sg239
I01
sg240
I1
sg241
I0
sg242
I1
sg243
(dp2318
Vy
F5.3925075500000004
sVx
F17.140428499999999
sVz
F0.70430856900000005
ssg245
(dp2319
Vy
F-1.17587519
sVx
F18.379222899999998
sVz
F1.7246476399999999
ssg247
I00
sg248
(dp2320
g50
VTL Eco HCS
p2321
sg52
Nssg251
(lp2322
sg253
(lp2323
sg255
I01
sg44
VPT2M34.810989S
p2324
sg41
VDeath
p2325
sg258
I1
sa(dp2326
g41
VImpulse
p2327
sg48
(dp2328
g50
VALGPredevonator
p2329
sg52
Nssg263
I3174430457
sg44
VPT2M34.8119863S
p2330
sa(dp2331
g41
VMedal
p2332
sg48
(dp2333
g50
VALGPredevonator
p2334
sg52
Nssg269
I3653057799
sg44
VPT2M34.812992S
p2335
sa(dp2336
g47
I313138863
sg41
VWeaponDrop
p2337
sg189
I9
sg53
(lp2338
I1095363701
asg44
VPT2M34.8139846S
p2339
sg192
I6
sg193
VP0DT0H0M4.6000S
p2340
sg48
(dp2341
g50
VTL Eco HCS
p2342
sg52
Nssa(dp2343
g47
I2244200496
sg48
(dp2344
g50
VALG RyaNoob
p2345
sg52
Nssg53
(lp2346
I2758383128
asg41
VWeaponPickup
p2347
sg44
VPT2M35.7439729S
p2348
sa(dp2349
g41
VImpulse
p2350
sg48
(dp2351
g50
VALG RyaNoob
p2352
sg52
Nssg263
I4191318012
sg44
VPT2M35.7439729S
p2353
sa(dp2354
g47
I2244200496
sg41
VWeaponDrop
p2355
sg189
I0
sg53
(lp2356
I2758383128
asg44
VPT2M36.1599776S
p2357
sg192
I0
sg193
VP0DT0H0M0.2500S
p2358
sg48
(dp2359
g50
VALG RyaNoob
p2360
sg52
Nssa(dp2361
g41
VImpulse
p2362
sg48
(dp2363
g50
VALG RyaNoob
p2364
sg52
Nssg263
I3435524855
sg44
VPT2M36.1609964S
p2365
sa(dp2366
g41
VMedal
p2367
sg48
(dp2368
g50
VALG RyaNoob
p2369
sg52
Nssg269
I3400287617
sg44
VPT2M37.2770066S
p2370
sa(dp2371
g47
I2244200496
sg48
(dp2372
g50
VALG RyaNoob
p2373
sg52
Nssg53
(lp2374
I2758383128
asg41
VWeaponPickup
p2375
sg44
VPT2M38.3770088S
p2376
sa(dp2377
g41
VImpulse
p2378
sg48
(dp2379
g50
VALG RyaNoob
p2380
sg52
Nssg263
I4191318012
sg44
VPT2M38.37806S
p2381
sa(dp2382
g47
I2244200496
sg41
VWeaponDrop
p2383
sg189
I0
sg53
(lp2384
I2758383128
asg44
VPT2M38.7599931S
p2385
sg192
I0
sg193
VP0DT0H0M0.2167S
p2386
sg48
(dp2387
g50
VALG RyaNoob
p2388
sg52
Nssa(dp2389
g41
VImpulse
p2390
sg48
(dp2391
g50
VALG RyaNoob
p2392
sg52
Nssg263
I3435524855
sg44
VPT2M38.7609968S
p2393
sa(dp2394
g47
I313138863
sg41
VWeaponDrop
p2395
sg189
I0
sg53
(lp2396
I1095363701
asg44
VPT2M39.6100206S
p2397
sg192
I0
sg193
VP0DT0H0M1.6000S
p2398
sg48
(dp2399
g50
VTL Spartan HCS
p2400
sg52
Nssa(dp2401
g47
I3682788176
sg48
(dp2402
g50
VTL Spartan HCS
p2403
sg52
Nssg53
(lp2404
I2758383128
asg41
VWeaponPickup
p2405
sg44
VPT2M39.6110156S
p2406
sa(dp2407
g47
I2244200496
sg48
(dp2408
g50
VALG RyaNoob
p2409
sg52
Nssg53
(lp2410
I2758383128
asg41
VWeaponPickup
p2411
sg44
VPT2M40.077005S
p2412
sa(dp2413
g41
VImpulse
p2414
sg48
(dp2415
g50
VALG RyaNoob
p2416
sg52
Nssg263
I4191318012
sg44
VPT2M40.0780007S
p2417
sa(dp2418
g47
I2244200496
sg41
VWeaponDrop
p2419
sg189
I0
sg53
(lp2420
I2758383128
asg44
VPT2M40.9770063S
p2421
sg192
I0
sg193
VP0DT0H0M0.7333S
p2422
sg48
(dp2423
g50
VALG RyaNoob
p2424
sg52
Nssa(dp2425
g41
VImpulse
p2426
sg48
(dp2427
g50
VALG RyaNoob
p2428
sg52
Nssg263
I3435524855
sg44
VPT2M40.9770063S
p2429
sa(dp2430
g47
I313138863
sg48
(dp2431
g50
VTL StelluR
p2432
sg52
Nssg53
(lp2433
I1095363701
asg41
VWeaponPickup
p2434
sg44
VPT2M41.4280413S
p2435
sa(dp2436
g47
I4096745987
sg48
(dp2437
g50
VTL StelluR
p2438
sg52
Nssg53
(lp2439
I2758383128
asg41
VWeaponPickup
p2440
sg44
VPT2M41.4280413S
p2441
sa(dp2442
g41
VPlayerSpawn
p2443
sg48
(dp2444
g50
VTL StelluR
p2445
sg52
Nssg44
VPT2M41.4280413S
p2446
sa(dp2447
g47
I2244200496
sg48
(dp2448
g50
VALG RyaNoob
p2449
sg52
Nssg53
(lp2450
I2758383128
asg41
VWeaponPickup
p2451
sg44
VPT2M42.5100428S
p2452
sa(dp2453
g41
VImpulse
p2454
sg48
(dp2455
g50
VALG RyaNoob
p2456
sg52
Nssg263
I4191318012
sg44
VPT2M42.5110402S
p2457
sa(dp2458
g47
I313138863
sg48
(dp2459
g50
VTL Eco HCS
p2460
sg52
Nssg53
(lp2461
I1095363701
asg41
VWeaponPickup
p2462
sg44
VPT2M42.8280189S
p2463
sa(dp2464
g47
I4096745987
sg48
(dp2465
g50
VTL Eco HCS
p2466
sg52
Nssg53
(lp2467
I2758383128
asg41
VWeaponPickup
p2468
sg44
VPT2M42.82904S
p2469
sa(dp2470
g41
VPlayerSpawn
p2471
sg48
(dp2472
g50
VTL Eco HCS
p2473
sg52
Nssg44
VPT2M42.82904S
p2474
sa(dp2475
g41
VMedal
p2476
sg48
(dp2477
g50
VALGPredevonator
p2478
sg52
Nssg269
I3400287617
sg44
VPT2M44.0950261S
p2479
sa(dp2480
g47
I2492868984
sg48
(dp2481
g50
VTL Danoxide
p2482
sg52
Nssg53
(lp2483
I2758383128
asg41
VWeaponPickup
p2484
sg44
VPT2M44.5940306S
p2485
sa(dp2486
g47
I2244200496
sg41
VWeaponDrop
p2487
sg189
I0
sg53
(lp2488
I2758383128
asg44
VPT2M45.0100539S
p2489
sg192
I0
sg193
VP0DT0H0M2.3333S
p2490
sg48
(dp2491
g50
VALG RyaNoob
p2492
sg52
Nssa(dp2493
g41
VImpulse
p2494
sg48
(dp2495
g50
VALG RyaNoob
p2496
sg52
Nssg263
I3435524855
sg44
VPT2M45.0110321S
p2497
sa(dp2498
g47
I2492868984
sg41
VWeaponDrop
p2499
sg189
I0
sg53
(lp2500
I2758383128
asg44
VPT2M45.7280354S
p2501
sg192
I0
sg193
VP0DT0H0M0.9833S
p2502
sg48
(dp2503
g50
VTL Danoxide
p2504
sg52
Nssa(dp2505
g230
I2511447508
sg231
I00
sg232
I00
sg233
(dp2506
g50
VALG Heinz HCS
p2507
sg52
Nssg236
(lp2508
I2758383128
asg238
I00
sg239
I01
sg240
I1
sg241
I0
sg242
I1
sg243
(dp2509
Vy
F11.2445936
sVx
F-8.5956745100000003
sVz
F0.40266042899999999
ssg245
(dp2510
Vy
F-0.233541578
sVx
F-1.84696138
sVz
F3.2797031400000001
ssg247
I00
sg248
(dp2511
g50
VTL Danoxide
p2512
sg52
Nssg251
(lp2513
sg253
(lp2514
(dp2515
g50
VALGPredevonator
p2516
sg52
Nsasg255
I00
sg44
VPT2M45.8110373S
p2517
sg41
VDeath
p2518
sg258
I1
sa(dp2519
g47
I313138863
sg41
VWeaponDrop
p2520
sg189
I0
sg53
(lp2521
I1095363701
asg44
VPT2M45.813063S
p2522
sg192
I0
sg193
VP0DT0H0M0.4333S
p2523
sg48
(dp2524
g50
VTL Danoxide
p2525
sg52
Nssa(dp2526
g47
I4096745987
sg41
VWeaponDrop
p2527
sg189
I7
sg53
(lp2528
I2758383128
asg44
VPT2M45.813063S
p2529
sg192
I3
sg193
VP0DT0H0M18.4833S
p2530
sg48
(dp2531
g50
VTL Danoxide
p2532
sg52
Nssa(dp2533
g47
I2244200496
sg48
(dp2534
g50
VALG RyaNoob
p2535
sg52
Nssg53
(lp2536
I2758383128
asg41
VWeaponPickup
p2537
sg44
VPT2M46.2430612S
p2538
sa(dp2539
g41
VImpulse
p2540
sg48
(dp2541
g50
VALG RyaNoob
p2542
sg52
Nssg263
I4191318012
sg44
VPT2M46.2440674S
p2543
sa(dp2544
g230
I4096745987
sg231
I00
sg232
I00
sg233
(dp2545
g50
VTL StelluR
p2546
sg52
Nssg236
(lp2547
I2758383128
asg238
I00
sg239
I01
sg240
I1
sg241
I0
sg242
I1
sg243
(dp2548
Vy
F-9.0809879999999996
sVx
F-8.4891389999999998
sVz
F4.7385692599999997e-06
ssg245
(dp2549
Vy
F-3.4485993399999999
sVx
F-6.9484380000000003
sVz
F0.0224464238
ssg247
I00
sg248
(dp2550
g50
VALG ContrA HCS
p2551
sg52
Nssg251
(lp2552
sg253
(lp2553
sg255
I01
sg44
VPT2M46.7780425S
p2554
sg41
VDeath
p2555
sg258
I1
sa(dp2556
g41
VMedal
p2557
sg48
(dp2558
g50
VTL StelluR
p2559
sg52
Nssg269
I3261908037
sg44
VPT2M46.7811137S
p2560
sa(dp2561
g47
I313138863
sg41
VWeaponDrop
p2562
sg189
I0
sg53
(lp2563
I1095363701
asg44
VPT2M46.7820743S
p2564
sg192
I0
sg193
VP0DT0H0M0.5167S
p2565
sg48
(dp2566
g50
VALG ContrA HCS
p2567
sg52
Nssa(dp2568
g47
I424645655
sg41
VWeaponDrop
p2569
sg189
I24
sg53
(lp2570
I1327094800
asg44
VPT2M46.7820743S
p2571
sg192
I16
sg193
VP0DT0H0M14.2667S
p2572
sg48
(dp2573
g50
VALG ContrA HCS
p2574
sg52
Nssa(dp2575
g41
VMedal
p2576
sg48
(dp2577
g50
VALG RyaNoob
p2578
sg52
Nssg269
I3886151616
sg44
VPT2M47.2100483S
p2579
sa(dp2580
g41
VMedal
p2581
sg48
(dp2582
g50
VALG Heinz HCS
p2583
sg52
Nssg269
I1494478183
sg44
VPT2M47.2100483S
p2584
sa(dp2585
g41
VImpulse
p2586
sg48
(dp2587
g50
VALG RyaNoob
p2588
sg52
Nssg263
I2944278681
sg44
VPT2M47.2110648S
p2589
sa(dp2590
g47
I2244200496
sg41
VWeaponDrop
p2591
sg189
I0
sg53
(lp2592
I2758383128
asg44
VPT2M47.2110648S
p2593
sg192
I0
sg193
VP0DT0H0M0.8000S
p2594
sg48
(dp2595
g50
VALG RyaNoob
p2596
sg52
Nssa(dp2597
g47
I313138863
sg48
(dp2598
g50
VTL Danoxide
p2599
sg52
Nssg53
(lp2600
I1095363701
asg41
VWeaponPickup
p2601
sg44
VPT2M53.8281116S
p2602
sa(dp2603
g47
I4096745987
sg48
(dp2604
g50
VTL Danoxide
p2605
sg52
Nssg53
(lp2606
I2758383128
asg41
VWeaponPickup
p2607
sg44
VPT2M53.8281116S
p2608
sa(dp2609
g41
VPlayerSpawn
p2610
sg48
(dp2611
g50
VTL Danoxide
p2612
sg52
Nssg44
VPT2M53.8281116S
p2613
sa(dp2614
g47
I313138863
sg48
(dp2615
g50
VALG ContrA HCS
p2616
sg52
Nssg53
(lp2617
I1095363701
asg41
VWeaponPickup
p2618
sg44
VPT2M54.7940953S
p2619
sa(dp2620
g47
I4096745987
sg48
(dp2621
g50
VALG ContrA HCS
p2622
sg52
Nssg53
(lp2623
I2758383128
asg41
VWeaponPickup
p2624
sg44
VPT2M54.7951198S
p2625
sa(dp2626
g41
VPlayerSpawn
p2627
sg48
(dp2628
g50
VALG ContrA HCS
p2629
sg52
Nssg44
VPT2M54.7951198S
p2630
sa(dp2631
g230
I313138863
sg231
I00
sg232
I00
sg233
(dp2632
g50
VALGPredevonator
p2633
sg52
Nssg236
(lp2634
I1095363701
asg238
I00
sg239
I01
sg240
I1
sg241
I0
sg242
I1
sg243
(dp2635
Vy
F-0.071936700000000006
sVx
F10.1212292
sVz
F0.032013624900000003
ssg245
(dp2636
Vy
F-3.0006687599999999
sVx
F11.9784145
sVz
F1.1175788600000001
ssg247
I00
sg248
(dp2637
g50
VTL Eco HCS
p2638
sg52
Nssg251
(lp2639
sg253
(lp2640
(dp2641
g50
VALG RyaNoob
p2642
sg52
Nsasg255
I00
sg44
VPT3M0.2111289S
p2643
sg41
VDeath
p2644
sg258
I1
sa(dp2645
g41
VImpulse
p2646
sg48
(dp2647
g50
VALGPredevonator
p2648
sg52
Nssg263
I2556889090
sg44
VPT3M0.2121711S
p2649
sa(dp2650
g41
VMedal
p2651
sg48
(dp2652
g50
VALGPredevonator
p2653
sg52
Nssg269
I2838259753
sg44
VPT3M0.2121711S
p2654
sa(dp2655
g47
I313138863
sg41
VWeaponDrop
p2656
sg189
I18
sg53
(lp2657
I1095363701
asg44
VPT3M0.2131498S
p2658
sg192
I9
sg193
VP0DT0H0M9.8667S
p2659
sg48
(dp2660
g50
VTL Eco HCS
p2661
sg52
Nssa(dp2662
g47
I4096745987
sg41
VWeaponDrop
p2663
sg189
I4
sg53
(lp2664
I2758383128
asg44
VPT3M0.2131498S
p2665
sg192
I3
sg193
VP0DT0H0M7.5167S
p2666
sg48
(dp2667
g50
VTL Eco HCS
p2668
sg52
Nssa(dp2669
g230
I313138863
sg231
I00
sg232
I00
sg233
(dp2670
g50
VTL StelluR
p2671
sg52
Nssg236
(lp2672
I1095363701
asg238
I00
sg239
I01
sg240
I1
sg241
I0
sg242
I1
sg243
(dp2673
Vy
F6.12137127
sVx
F-14.807389300000001
sVz
F0.6738845
ssg245
(dp2674
Vy
F6.7077064499999999
sVx
F-18.254335399999999
sVz
F0.076210799999999995
ssg247
I00
sg248
(dp2675
g50
VALG Heinz HCS
p2676
sg52
Nssg251
(lp2677
sg253
(lp2678
sg255
I00
sg44
VPT3M0.8611333S
p2679
sg41
VDeath
p2680
sg258
I1
sa(dp2681
g47
I2511447508
sg41
VWeaponDrop
p2682
sg189
I4
sg53
(lp2683
I2758383128
asg44
VPT3M0.8631578S
p2684
sg192
I4
sg193
VP0DT0H0M28.1000S
p2685
sg48
(dp2686
g50
VALG Heinz HCS
p2687
sg52
Nssa(dp2688
g47
I313138863
sg41
VWeaponDrop
p2689
sg189
I0
sg53
(lp2690
I1095363701
asg44
VPT3M0.8631578S
p2691
sg192
I0
sg193
VP0DT0H0M0.7833S
p2692
sg48
(dp2693
g50
VALG Heinz HCS
p2694
sg52
Nssa(dp2695
g230
I4106030681
sg231
I00
sg232
I00
sg233
(dp2696
g50
VTL Danoxide
p2697
sg52
Nssg236
(lp2698
sg238
I00
sg239
I01
sg240
I1
sg241
I0
sg242
I1
sg243
(dp2699
Vy
F-11.5442734
sVx
F5.0003409999999997
sVz
F4.7385692599999997e-06
ssg245
(dp2700
Vy
F-8.2454210000000003
sVx
F11.1682711
sVz
F0.0027111172700000001
ssg247
I00
sg248
(dp2701
g50
VALG RyaNoob
p2702
sg52
Nssg251
(lp2703
sg253
(lp2704
(dp2705
g50
VTL Eco HCS
p2706
sg52
Nsasg255
I00
sg44
VPT3M0.9601328S
p2707
sg41
VDeath
p2708
sg258
I1
sa(dp2709
g47
I2511447508
sg41
VWeaponDrop
p2710
sg189
I12
sg53
(lp2711
I2758383128
asg44
VPT3M0.962161S
p2712
sg192
I7
sg193
VP0DT0H0M39.9500S
p2713
sg48
(dp2714
g50
VALG RyaNoob
p2715
sg52
Nssa(dp2716
g47
I313138863
sg41
VWeaponDrop
p2717
sg189
I7
sg53
(lp2718
I1095363701
asg44
VPT3M0.962161S
p2719
sg192
I7
sg193
VP0DT0H0M16.7333S
p2720
sg48
(dp2721
g50
VALG RyaNoob
p2722
sg52
Nssa(dp2723
g47
I313138863
sg41
VWeaponDrop
p2724
sg189
I0
sg53
(lp2725
I1095363701
asg44
VPT3M0.962161S
p2726
sg192
I0
sg193
VP0DT0S
p2727
sg48
(dp2728
g50
VALG RyaNoob
p2729
sg52
Nssa(dp2730
g47
I313138863
sg48
(dp2731
g50
VTL Eco HCS
p2732
sg52
Nssg53
(lp2733
I1095363701
asg41
VWeaponPickup
p2734
sg44
VPT3M8.2272008S
p2735
sa(dp2736
g47
I4096745987
sg48
(dp2737
g50
VTL Eco HCS
p2738
sg52
Nssg53
(lp2739
I2758383128
asg41
VWeaponPickup
p2740
sg44
VPT3M8.2272008S
p2741
sa(dp2742
g41
VPlayerSpawn
p2743
sg48
(dp2744
g50
VTL Eco HCS
p2745
sg52
Nssg44
VPT3M8.2272008S
p2746
sa(dp2747
g47
I313138863
sg48
(dp2748
g50
VALG Heinz HCS
p2749
sg52
Nssg53
(lp2750
I1095363701
asg41
VWeaponPickup
p2751
sg44
VPT3M8.8772076S
p2752
sa(dp2753
g47
I4096745987
sg48
(dp2754
g50
VALG Heinz HCS
p2755
sg52
Nssg53
(lp2756
I2758383128
asg41
VWeaponPickup
p2757
sg44
VPT3M8.8772076S
p2758
sa(dp2759
g41
VPlayerSpawn
p2760
sg48
(dp2761
g50
VALG Heinz HCS
p2762
sg52
Nssg44
VPT3M8.8772076S
p2763
sa(dp2764
g47
I313138863
sg48
(dp2765
g50
VALG RyaNoob
p2766
sg52
Nssg53
(lp2767
I1095363701
asg41
VWeaponPickup
p2768
sg44
VPT3M8.9771863S
p2769
sa(dp2770
g47
I4096745987
sg48
(dp2771
g50
VALG RyaNoob
p2772
sg52
Nssg53
(lp2773
I2758383128
asg41
VWeaponPickup
p2774
sg44
VPT3M8.9782096S
p2775
sa(dp2776
g41
VPlayerSpawn
p2777
sg48
(dp2778
g50
VALG RyaNoob
p2779
sg52
Nssg44
VPT3M8.9782096S
p2780
sa(dp2781
g47
I4096745987
sg41
VWeaponDrop
p2782
sg189
I0
sg53
(lp2783
I2758383128
asg44
VPT3M10.9752206S
p2784
sg192
I0
sg193
VP0DT0H0M1.1167S
p2785
sg48
(dp2786
g50
VALG RyaNoob
p2787
sg52
Nssa(dp2788
g47
I2511447508
sg48
(dp2789
g50
VALG RyaNoob
p2790
sg52
Nssg53
(lp2791
I2758383128
asg41
VWeaponPickup
p2792
sg44
VPT3M10.9761985S
p2793
sa(dp2794
g230
I4096745987
sg231
I00
sg232
I00
sg233
(dp2795
g50
VTL Danoxide
p2796
sg52
Nssg236
(lp2797
I2758383128
asg238
I00
sg239
I01
sg240
I1
sg241
I0
sg242
I1
sg243
(dp2798
Vy
F-6.2029676399999998
sVx
F15.3401356
sVz
F0.00022289156899999999
ssg245
(dp2799
Vy
F4.6967739999999996
sVx
F6.4336113900000003
sVz
F-0.00023159384699999999
ssg247
I00
sg248
(dp2800
g50
VALGPredevonator
p2801
sg52
Nssg251
(lp2802
sg253
(lp2803
(dp2804
g50
VTL Spartan HCS
p2805
sg52
Nsasg255
I00
sg44
VPT3M13.0932121S
p2806
sg41
VDeath
p2807
sg258
I1
sa(dp2808
g41
VImpulse
p2809
sg48
(dp2810
g50
VTL Danoxide
p2811
sg52
Nssg263
I2556889090
sg44
VPT3M13.0942342S
p2812
sa(dp2813
g41
VMedal
p2814
sg48
(dp2815
g50
VTL Danoxide
p2816
sg52
Nssg269
I352859864
sg44
VPT3M13.0942342S
p2817
sa(dp2818
g47
I313138863
sg41
VWeaponDrop
p2819
sg189
I14
sg53
(lp2820
I1095363701
asg44
VPT3M13.0952375S
p2821
sg192
I7
sg193
VP0DT0H0M7.9333S
p2822
sg48
(dp2823
g50
VALGPredevonator
p2824
sg52
Nssa(dp2825
g47
I4096745987
sg41
VWeaponDrop
p2826
sg189
I20
sg53
(lp2827
I2758383128
asg44
VPT3M13.0952375S
p2828
sg192
I15
sg193
VP0DT0H0M36.1167S
p2829
sg48
(dp2830
g50
VALGPredevonator
p2831
sg52
Nssa(dp2832
g47
I313138863
sg48
(dp2833
g50
VALGPredevonator
p2834
sg52
Nssg53
(lp2835
I1095363701
asg41
VWeaponPickup
p2836
sg44
VPT3M21.1112866S
p2837
sa(dp2838
g47
I4096745987
sg48
(dp2839
g50
VALGPredevonator
p2840
sg52
Nssg53
(lp2841
I2758383128
asg41
VWeaponPickup
p2842
sg44
VPT3M21.1112866S
p2843
sa(dp2844
g41
VPlayerSpawn
p2845
sg48
(dp2846
g50
VALGPredevonator
p2847
sg52
Nssg44
VPT3M21.1112866S
p2848
sa(dp2849
g230
I4096745987
sg231
I00
sg232
I00
sg233
(dp2850
g50
VALG ContrA HCS
p2851
sg52
Nssg236
(lp2852
I2758383128
asg238
I00
sg239
I01
sg240
I1
sg241
I0
sg242
I1
sg243
(dp2853
Vy
F11.936735199999999
sVx
F10.2620115
sVz
F0.60021674599999997
ssg245
(dp2854
Vy
F17.69276
sVx
F-2.7365996799999999
sVz
F0.64911620000000003
ssg247
I00
sg248
(dp2855
g50
VTL Eco HCS
p2856
sg52
Nssg251
(lp2857
sg253
(lp2858
(dp2859
g50
VALG Heinz HCS
p2860
sg52
Nsasg255
I00
sg44
VPT3M22.176293S
p2861
sg41
VDeath
p2862
sg258
I1
sa(dp2863
g47
I313138863
sg41
VWeaponDrop
p2864
sg189
I10
sg53
(lp2865
I1095363701
asg44
VPT3M22.1782931S
p2866
sg192
I6
sg193
VP0DT0H0M4.8000S
p2867
sg48
(dp2868
g50
VTL Eco HCS
p2869
sg52
Nssa(dp2870
g47
I4096745987
sg41
VWeaponDrop
p2871
sg189
I0
sg53
(lp2872
I2758383128
asg44
VPT3M22.1792722S
p2873
sg192
I0
sg193
VP0DT0H0M9.1500S
p2874
sg48
(dp2875
g50
VTL Eco HCS
p2876
sg52
Nssa(dp2877
g230
I313138863
sg231
I00
sg232
I00
sg233
(dp2878
g50
VALG RyaNoob
p2879
sg52
Nssg236
(lp2880
I1095363701
asg238
I00
sg239
I01
sg240
I1
sg241
I0
sg242
I1
sg243
(dp2881
Vy
F3.9797356100000001
sVx
F17.960788699999998
sVz
F1.4020328500000001
ssg245
(dp2882
Vy
F8.2687449999999991
sVx
F17.409891099999999
sVz
F-0.00063839554800000002
ssg247
I00
sg248
(dp2883
g50
VTL Danoxide
p2884
sg52
Nssg251
(lp2885
sg253
(lp2886
sg255
I00
sg44
VPT3M22.4102706S
p2887
sg41
VDeath
p2888
sg258
I1
sa(dp2889
g47
I4096745987
sg41
VWeaponDrop
p2890
sg189
I18
sg53
(lp2891
I2758383128
asg44
VPT3M22.4132968S
p2892
sg192
I7
sg193
VP0DT0H0M27.7000S
p2893
sg48
(dp2894
g50
VTL Danoxide
p2895
sg52
Nssa(dp2896
g47
I313138863
sg41
VWeaponDrop
p2897
sg189
I0
sg53
(lp2898
I1095363701
asg44
VPT3M22.4132968S
p2899
sg192
I0
sg193
VP0DT0H0M0.8833S
p2900
sg48
(dp2901
g50
VTL Danoxide
p2902
sg52
Nssa(dp2903
g230
I4096745987
sg231
I00
sg232
I00
sg233
(dp2904
g50
VALG ContrA HCS
p2905
sg52
Nssg236
(lp2906
I2758383128
asg238
I00
sg239
I01
sg240
I1
sg241
I0
sg242
I1
sg243
(dp2907
Vy
F9.4596999999999998
sVx
F7.9210690000000001
sVz
F4.7385692599999997e-06
ssg245
(dp2908
Vy
F0.457955748
sVx
F8.5941620000000007
sVz
F2.80918717
ssg247
I00
sg248
(dp2909
g50
VTL StelluR
p2910
sg52
Nssg251
(lp2911
sg253
(lp2912
(dp2913
g50
VALG RyaNoob
p2914
sg52
Nsasg255
I01
sg44
VPT3M25.9093104S
p2915
sg41
VDeath
p2916
sg258
I1
sa(dp2917
g41
VMedal
p2918
sg48
(dp2919
g50
VALG ContrA HCS
p2920
sg52
Nssg269
I3261908037
sg44
VPT3M25.911315S
p2921
sa(dp2922
g41
VMedal
p2923
sg48
(dp2924
g50
VALG ContrA HCS
p2925
sg52
Nssg269
I2078758684
sg44
VPT3M25.911315S
p2926
sa(dp2927
g47
I313138863
sg41
VWeaponDrop
p2928
sg189
I20
sg53
(lp2929
I1095363701
asg44
VPT3M25.911315S
p2930
sg192
I9
sg193
VP0DT0H0M7.3500S
p2931
sg48
(dp2932
g50
VTL StelluR
p2933
sg52
Nssa(dp2934
g47
I4096745987
sg41
VWeaponDrop
p2935
sg189
I19
sg53
(lp2936
I2758383128
asg44
VPT3M25.911315S
p2937
sg192
I12
sg193
VP0DT0H0M37.1333S
p2938
sg48
(dp2939
g50
VTL StelluR
p2940
sg52
Nssa(dp2941
g47
I4096745987
sg41
VWeaponDrop
p2942
sg189
I9
sg53
(lp2943
I2758383128
asg44
VPT3M28.9083128S
p2944
sg192
I3
sg193
VP0DT0H0M33.5333S
p2945
sg48
(dp2946
g50
VALG ContrA HCS
p2947
sg52
Nssa(dp2948
g47
I424645655
sg48
(dp2949
g50
VALG ContrA HCS
p2950
sg52
Nssg53
(lp2951
I1327094800
asg41
VWeaponPickup
p2952
sg44
VPT3M28.9083128S
p2953
sa(dp2954
g47
I313138863
sg48
(dp2955
g50
VTL Eco HCS
p2956
sg52
Nssg53
(lp2957
I1095363701
asg41
VWeaponPickup
p2958
sg44
VPT3M30.1933401S
p2959
sa(dp2960
g47
I4096745987
sg48
(dp2961
g50
VTL Eco HCS
p2962
sg52
Nssg53
(lp2963
I2758383128
asg41
VWeaponPickup
p2964
sg44
VPT3M30.1933401S
p2965
sa(dp2966
g41
VPlayerSpawn
p2967
sg48
(dp2968
g50
VTL Eco HCS
p2969
sg52
Nssg44
VPT3M30.1933401S
p2970
sa(dp2971
g47
I313138863
sg48
(dp2972
g50
VTL Danoxide
p2973
sg52
Nssg53
(lp2974
I1095363701
asg41
VWeaponPickup
p2975
sg44
VPT3M30.4273251S
p2976
sa(dp2977
g47
I4096745987
sg48
(dp2978
g50
VTL Danoxide
p2979
sg52
Nssg53
(lp2980
I2758383128
asg41
VWeaponPickup
p2981
sg44
VPT3M30.4273251S
p2982
sa(dp2983
g41
VPlayerSpawn
p2984
sg48
(dp2985
g50
VTL Danoxide
p2986
sg52
Nssg44
VPT3M30.4273251S
p2987
sa(dp2988
g230
I313138863
sg231
I00
sg232
I01
sg233
(dp2989
g50
VALG ContrA HCS
p2990
sg52
Nssg236
(lp2991
I1095363701
asg238
I00
sg239
I00
sg240
I1
sg241
I0
sg242
I1
sg243
(dp2992
Vy
F-0.4618758
sVx
F16.1358414
sVz
F1.39501524
ssg245
(dp2993
Vy
F-0.97194826599999995
sVx
F16.095951100000001
sVz
F1.3999649300000001
ssg247
I00
sg248
(dp2994
g50
VTL Spartan HCS
p2995
sg52
Nssg251
(lp2996
sg253
(lp2997
(dp2998
g50
VALG RyaNoob
p2999
sg52
Nsasg255
I00
sg44
VPT3M33.776344S
p3000
sg41
VDeath
p3001
sg258
I1
sa(dp3002
g41
VMedal
p3003
sg48
(dp3004
g50
VALG ContrA HCS
p3005
sg52
Nssg269
I2287626681
sg44
VPT3M33.7773623S
p3006
sa(dp3007
g47
I3682788176
sg41
VWeaponDrop
p3008
sg189
I2
sg53
(lp3009
I2758383128
asg44
VPT3M33.7783622S
p3010
sg192
I2
sg193
VP0DT0H0M48.9167S
p3011
sg48
(dp3012
g50
VTL Spartan HCS
p3013
sg52
Nssa(dp3014
g47
I4096745987
sg41
VWeaponDrop
p3015
sg189
I7
sg53
(lp3016
I2758383128
asg44
VPT3M33.7783622S
p3017
sg192
I3
sg193
VP0DT0H0M15.6167S
p3018
sg48
(dp3019
g50
VTL Spartan HCS
p3020
sg52
Nssa(dp3021
g47
I313138863
sg48
(dp3022
g50
VTL StelluR
p3023
sg52
Nssg53
(lp3024
I1095363701
asg41
VWeaponPickup
p3025
sg44
VPT3M33.9263631S
p3026
sa(dp3027
g47
I4096745987
sg48
(dp3028
g50
VTL StelluR
p3029
sg52
Nssg53
(lp3030
I2758383128
asg41
VWeaponPickup
p3031
sg44
VPT3M33.9263631S
p3032
sa(dp3033
g41
VPlayerSpawn
p3034
sg48
(dp3035
g50
VTL StelluR
p3036
sg52
Nssg44
VPT3M33.9263631S
p3037
sa(dp3038
g47
I313138863
sg41
VWeaponDrop
p3039
sg189
I1
sg53
(lp3040
I1095363701
asg44
VPT3M35.3413751S
p3041
sg192
I0
sg193
VP0DT0H0M5.2667S
p3042
sg48
(dp3043
g50
VALG ContrA HCS
p3044
sg52
Nssa(dp3045
g47
I3682788176
sg48
(dp3046
g50
VALG ContrA HCS
p3047
sg52
Nssg53
(lp3048
I2758383128
asg41
VWeaponPickup
p3049
sg44
VPT3M35.3413751S
p3050
sa(dp3051
g47
I313138863
sg41
VWeaponDrop
p3052
sg189
I0
sg53
(lp3053
I1095363701
asg44
VPT3M36.9913669S
p3054
sg192
I0
sg193
VP0DT0H0M1.7667S
p3055
sg48
(dp3056
g50
VTL StelluR
p3057
sg52
Nssa(dp3058
g47
I2511447508
sg48
(dp3059
g50
VTL StelluR
p3060
sg52
Nssg53
(lp3061
I2758383128
asg41
VWeaponPickup
p3062
sg44
VPT3M36.9913669S
p3063
sa(dp3064
g230
I4096745987
sg231
I00
sg232
I00
sg233
(dp3065
g50
VTL Danoxide
p3066
sg52
Nssg236
(lp3067
I2758383128
asg238
I00
sg239
I01
sg240
I1
sg241
I0
sg242
I1
sg243
(dp3068
Vy
F-10.0797873
sVx
F-17.142444600000001
sVz
F-7.7545639999999994e-05
ssg245
(dp3069
Vy
F-8.0221800000000005
sVx
F-10.663034400000001
sVz
F0.017464219999999999
ssg247
I00
sg248
(dp3070
g50
VALGPredevonator
p3071
sg52
Nssg251
(lp3072
sg253
(lp3073
(dp3074
g50
VTL Eco HCS
p3075
sg52
Nsasg255
I01
sg44
VPT3M38.892377S
p3076
sg41
VDeath
p3077
sg258
I1
sa(dp3078
g41
VImpulse
p3079
sg48
(dp3080
g50
VTL Danoxide
p3081
sg52
Nssg263
I2556889090
sg44
VPT3M38.8933776S
p3082
sa(dp3083
g41
VMedal
p3084
sg48
(dp3085
g50
VTL Danoxide
p3086
sg52
Nssg269
I2838259753
sg44
VPT3M38.8933776S
p3087
sa(dp3088
g41
VMedal
p3089
sg48
(dp3090
g50
VTL Danoxide
p3091
sg52
Nssg269
I3261908037
sg44
VPT3M38.8943994S
p3092
sa(dp3093
g47
I313138863
sg41
VWeaponDrop
p3094
sg189
I0
sg53
(lp3095
I1095363701
asg44
VPT3M38.8953956S
p3096
sg192
I0
sg193
VP0DT0H0M2.0333S
p3097
sg48
(dp3098
g50
VALGPredevonator
p3099
sg52
Nssa(dp3100
g47
I4096745987
sg41
VWeaponDrop
p3101
sg189
I7
sg53
(lp3102
I2758383128
asg44
VPT3M38.8953956S
p3103
sg192
I3
sg193
VP0DT0H0M15.7500S
p3104
sg48
(dp3105
g50
VALGPredevonator
p3106
sg52
Nssa(dp3107
g230
I4106030681
sg231
I00
sg232
I00
sg233
(dp3108
g50
VALGPredevonator
p3109
sg52
Nssg236
(lp3110
sg238
I00
sg239
I01
sg240
I1
sg241
I0
sg242
I1
sg243
(dp3111
Vy
F-7.964734
sVx
F-10.632389099999999
sVz
F0.064692689999999997
ssg245
(dp3112
Vy
F-0.76031389999999999
sVx
F-9.5515589999999992
sVz
F0.041275949999999999
ssg247
I00
sg248
(dp3113
g50
VTL Eco HCS
p3114
sg52
Nssg251
(lp3115
sg253
(lp3116
sg255
I00
sg44
VPT3M40.5583879S
p3117
sg41
VDeath
p3118
sg258
I1
sa(dp3119
g41
VMedal
p3120
sg48
(dp3121
g50
VALGPredevonator
p3122
sg52
Nssg269
I285057226
sg44
VPT3M40.5603909S
p3123
sa(dp3124
g47
I4096745987
sg41
VWeaponDrop
p3125
sg189
I0
sg53
(lp3126
I2758383128
asg44
VPT3M40.5603909S
p3127
sg192
I0
sg193
VP0DT0H0M2.1833S
p3128
sg48
(dp3129
g50
VTL Eco HCS
p3130
sg52
Nssa(dp3131
g47
I313138863
sg41
VWeaponDrop
p3132
sg189
I21
sg53
(lp3133
I1095363701
asg44
VPT3M40.5614255S
p3134
sg192
I5
sg193
VP0DT0H0M8.1833S
p3135
sg48
(dp3136
g50
VTL Eco HCS
p3137
sg52
Nssa(dp3138
g47
I313138863
sg48
(dp3139
g50
VTL Spartan HCS
p3140
sg52
Nssg53
(lp3141
I1095363701
asg41
VWeaponPickup
p3142
sg44
VPT3M41.792396S
p3143
sa(dp3144
g47
I4096745987
sg48
(dp3145
g50
VTL Spartan HCS
p3146
sg52
Nssg53
(lp3147
I2758383128
asg41
VWeaponPickup
p3148
sg44
VPT3M41.7934176S
p3149
sa(dp3150
g41
VPlayerSpawn
p3151
sg48
(dp3152
g50
VTL Spartan HCS
p3153
sg52
Nssg44
VPT3M41.7934176S
p3154
sa(dp3155
g230
I4096745987
sg231
I00
sg232
I00
sg233
(dp3156
g50
VALG Heinz HCS
p3157
sg52
Nssg236
(lp3158
I2758383128
asg238
I00
sg239
I01
sg240
I1
sg241
I0
sg242
I1
sg243
(dp3159
Vy
F-0.21685302300000001
sVx
F-18.620172499999999
sVz
F1.8720223899999999
ssg245
(dp3160
Vy
F-11.7583027
sVx
F-16.8021736
sVz
F0.89569896500000001
ssg247
I00
sg248
(dp3161
g50
VTL Danoxide
p3162
sg52
Nssg251
(lp3163
sg253
(lp3164
sg255
I01
sg44
VPT3M42.2593994S
p3165
sg41
VDeath
p3166
sg258
I1
sa(dp3167
g41
VMedal
p3168
sg48
(dp3169
g50
VALG Heinz HCS
p3170
sg52
Nssg269
I3261908037
sg44
VPT3M42.2604233S
p3171
sa(dp3172
g47
I313138863
sg41
VWeaponDrop
p3173
sg189
I0
sg53
(lp3174
I1095363701
asg44
VPT3M42.2604233S
p3175
sg192
I0
sg193
VP0DT0H0M0.3333S
p3176
sg48
(dp3177
g50
VTL Danoxide
p3178
sg52
Nssa(dp3179
g47
I4096745987
sg41
VWeaponDrop
p3180
sg189
I10
sg53
(lp3181
I2758383128
asg44
VPT3M42.2604233S
p3182
sg192
I6
sg193
VP0DT0H0M11.5000S
p3183
sg48
(dp3184
g50
VTL Danoxide
p3185
sg52
Nssa(dp3186
g47
I313138863
sg48
(dp3187
g50
VALGPredevonator
p3188
sg52
Nssg53
(lp3189
I1095363701
asg41
VWeaponPickup
p3190
sg44
VPT3M46.91043S
p3191
sa(dp3192
g47
I4096745987
sg48
(dp3193
g50
VALGPredevonator
p3194
sg52
Nssg53
(lp3195
I2758383128
asg41
VWeaponPickup
p3196
sg44
VPT3M46.9114847S
p3197
sa(dp3198
g41
VPlayerSpawn
p3199
sg48
(dp3200
g50
VALGPredevonator
p3201
sg52
Nssg44
VPT3M46.9114847S
p3202
sa(dp3203
g47
I313138863
sg48
(dp3204
g50
VTL Eco HCS
p3205
sg52
Nssg53
(lp3206
I1095363701
asg41
VWeaponPickup
p3207
sg44
VPT3M48.5754385S
p3208
sa(dp3209
g47
I4096745987
sg48
(dp3210
g50
VTL Eco HCS
p3211
sg52
Nssg53
(lp3212
I2758383128
asg41
VWeaponPickup
p3213
sg44
VPT3M48.5764745S
p3214
sa(dp3215
g41
VPlayerSpawn
p3216
sg48
(dp3217
g50
VTL Eco HCS
p3218
sg52
Nssg44
VPT3M48.5764745S
p3219
sa(dp3220
g230
I313138863
sg231
I00
sg232
I00
sg233
(dp3221
g50
VTL Spartan HCS
p3222
sg52
Nssg236
(lp3223
I1095363701
asg238
I00
sg239
I01
sg240
I1
sg241
I0
sg242
I1
sg243
(dp3224
Vy
F-13.091172200000001
sVx
F-3.8115017400000002
sVz
F0.60020180000000001
ssg245
(dp3225
Vy
F-13.9617453
sVx
F-7.0139665600000001
sVz
F0.74839383400000004
ssg247
I00
sg248
(dp3226
g50
VALG RyaNoob
p3227
sg52
Nssg251
(lp3228
sg253
(lp3229
sg255
I00
sg44
VPT3M49.2754437S
p3230
sg41
VDeath
p3231
sg258
I1
sa(dp3232
g47
I313138863
sg41
VWeaponDrop
p3233
sg189
I28
sg53
(lp3234
I1095363701
asg44
VPT3M49.2774681S
p3235
sg192
I15
sg193
VP0DT0H0M6.0167S
p3236
sg48
(dp3237
g50
VALG RyaNoob
p3238
sg52
Nssa(dp3239
g47
I2511447508
sg41
VWeaponDrop
p3240
sg189
I11
sg53
(lp3241
I2758383128
asg44
VPT3M49.2774681S
p3242
sg192
I7
sg193
VP0DT0H0M33.1667S
p3243
sg48
(dp3244
g50
VALG RyaNoob
p3245
sg52
Nssa(dp3246
g47
I2511447508
sg41
VWeaponDrop
p3247
sg189
I0
sg53
(lp3248
I2758383128
asg44
VPT3M49.2774681S
p3249
sg192
I0
sg193
VP0DT0S
p3250
sg48
(dp3251
g50
VALG RyaNoob
p3252
sg52
Nssa(dp3253
g47
I313138863
sg48
(dp3254
g50
VTL Danoxide
p3255
sg52
Nssg53
(lp3256
I1095363701
asg41
VWeaponPickup
p3257
sg44
VPT3M50.2754505S
p3258
sa(dp3259
g47
I4096745987
sg48
(dp3260
g50
VTL Danoxide
p3261
sg52
Nssg53
(lp3262
I2758383128
asg41
VWeaponPickup
p3263
sg44
VPT3M50.2764754S
p3264
sa(dp3265
g41
VPlayerSpawn
p3266
sg48
(dp3267
g50
VTL Danoxide
p3268
sg52
Nssg44
VPT3M50.2764754S
p3269
sa(dp3270
g41
VMedal
p3271
sg48
(dp3272
g50
VTL Spartan HCS
p3273
sg52
Nssg269
I3400287617
sg44
VPT3M54.8084787S
p3274
sa(dp3275
g47
I313138863
sg48
(dp3276
g50
VALG RyaNoob
p3277
sg52
Nssg53
(lp3278
I1095363701
asg41
VWeaponPickup
p3279
sg44
VPT3M57.2925188S
p3280
sa(dp3281
g47
I4096745987
sg48
(dp3282
g50
VALG RyaNoob
p3283
sg52
Nssg53
(lp3284
I2758383128
asg41
VWeaponPickup
p3285
sg44
VPT3M57.2925188S
p3286
sa(dp3287
g41
VPlayerSpawn
p3288
sg48
(dp3289
g50
VALG RyaNoob
p3290
sg52
Nssg44
VPT3M57.2925188S
p3291
sa(dp3292
g47
I4096745987
sg41
VWeaponDrop
p3293
sg189
I0
sg53
(lp3294
I2758383128
asg44
VPT3M58.9405295S
p3295
sg192
I0
sg193
VP0DT0H0M0.7667S
p3296
sg48
(dp3297
g50
VALG RyaNoob
p3298
sg52
Nssa(dp3299
g47
I2511447508
sg48
(dp3300
g50
VALG RyaNoob
p3301
sg52
Nssg53
(lp3302
I2758383128
asg41
VWeaponPickup
p3303
sg44
VPT3M58.9405295S
p3304
sa(dp3305
g230
I313138863
sg231
I00
sg232
I00
sg233
(dp3306
g50
VALG Heinz HCS
p3307
sg52
Nssg236
(lp3308
I1095363701
asg238
I00
sg239
I01
sg240
I1
sg241
I0
sg242
I1
sg243
(dp3309
Vy
F0.4724373
sVx
F-18.687774699999999
sVz
F2.2895815399999999
ssg245
(dp3310
Vy
F-5.0351963
sVx
F-16.950970000000002
sVz
F0.88057529999999995
ssg247
I00
sg248
(dp3311
g50
VTL StelluR
p3312
sg52
Nssg251
(lp3313
sg253
(lp3314
sg255
I00
sg44
VPT4M7.7255618S
p3315
sg41
VDeath
p3316
sg258
I1
sa(dp3317
g47
I2511447508
sg41
VWeaponDrop
p3318
sg189
I10
sg53
(lp3319
I2758383128
asg44
VPT4M7.7275796S
p3320
sg192
I6
sg193
VP0DT0H0M28.7833S
p3321
sg48
(dp3322
g50
VTL StelluR
p3323
sg52
Nssa(dp3324
g47
I4096745987
sg41
VWeaponDrop
p3325
sg189
I0
sg53
(lp3326
I2758383128
asg44
VPT4M7.7275796S
p3327
sg192
I0
sg193
VP0DT0H0M3.2500S
p3328
sg48
(dp3329
g50
VTL StelluR
p3330
sg52
Nssa(dp3331
g230
I424645655
sg231
I00
sg232
I00
sg233
(dp3332
g50
VALG ContrA HCS
p3333
sg52
Nssg236
(lp3334
I1327094800
asg238
I00
sg239
I01
sg240
I1
sg241
I0
sg242
I1
sg243
(dp3335
Vy
F-0.88503399999999999
sVx
F-8.0240259999999992
sVz
F2.9295127399999998
ssg245
(dp3336
Vy
F-5.0912819999999996
sVx
F-5.7827095999999996
sVz
F8.0168249999999993e-06
ssg247
I00
sg248
(dp3337
g50
VTL Eco HCS
p3338
sg52
Nssg251
(lp3339
sg253
(lp3340
(dp3341
g50
VALGPredevonator
p3342
sg52
Nsasg255
I01
sg44
VPT4M8.4245898S
p3343
sg41
VDeath
p3344
sg258
I1
sa(dp3345
g41
VMedal
p3346
sg48
(dp3347
g50
VALG ContrA HCS
p3348
sg52
Nssg269
I3261908037
sg44
VPT4M8.4265857S
p3349
sa(dp3350
g47
I313138863
sg41
VWeaponDrop
p3351
sg189
I0
sg53
(lp3352
I1095363701
asg44
VPT4M8.4265857S
p3353
sg192
I0
sg193
VP0DT0H0M1.0500S
p3354
sg48
(dp3355
g50
VTL Eco HCS
p3356
sg52
Nssa(dp3357
g47
I4096745987
sg41
VWeaponDrop
p3358
sg189
I15
sg53
(lp3359
I2758383128
asg44
VPT4M8.4265857S
p3360
sg192
I9
sg193
VP0DT0H0M18.8000S
p3361
sg48
(dp3362
g50
VTL Eco HCS
p3363
sg52
Nssa(dp3364
g47
I4096745987
sg41
VWeaponDrop
p3365
sg189
I4
sg53
(lp3366
I2758383128
asg44
VPT4M10.4236047S
p3367
sg192
I3
sg193
VP0DT0H0M21.7500S
p3368
sg48
(dp3369
g50
VTL Spartan HCS
p3370
sg52
Nssa(dp3371
g47
I2511447508
sg48
(dp3372
g50
VTL Spartan HCS
p3373
sg52
Nssg53
(lp3374
I2758383128
asg41
VWeaponPickup
p3375
sg44
VPT4M10.4236047S
p3376
sa(dp3377
g41
VMedal
p3378
sg48
(dp3379
g50
VALG Heinz HCS
p3380
sg52
Nssg269
I3400287617
sg44
VPT4M11.5736191S
p3381
sa(dp3382
g41
VMedal
p3383
sg48
(dp3384
g50
VALG ContrA HCS
p3385
sg52
Nssg269
I3400287617
sg44
VPT4M13.3075983S
p3386
sa(dp3387
g47
I4096745987
sg41
VWeaponDrop
p3388
sg189
I30
sg53
(lp3389
I2758383128
asg44
VPT4M14.5906054S
p3390
sg192
I15
sg193
VP0DT0H0M55.3333S
p3391
sg48
(dp3392
g50
VALG Heinz HCS
p3393
sg52
Nssa(dp3394
g47
I2511447508
sg48
(dp3395
g50
VALG Heinz HCS
p3396
sg52
Nssg53
(lp3397
I2758383128
asg41
VWeaponPickup
p3398
sg44
VPT4M14.5906054S
p3399
sa(dp3400
g47
I313138863
sg48
(dp3401
g50
VTL StelluR
p3402
sg52
Nssg53
(lp3403
I1095363701
asg41
VWeaponPickup
p3404
sg44
VPT4M15.7416153S
p3405
sa(dp3406
g47
I4096745987
sg48
(dp3407
g50
VTL StelluR
p3408
sg52
Nssg53
(lp3409
I2758383128
asg41
VWeaponPickup
p3410
sg44
VPT4M15.7416153S
p3411
sa(dp3412
g41
VPlayerSpawn
p3413
sg48
(dp3414
g50
VTL StelluR
p3415
sg52
Nssg44
VPT4M15.7416153S
p3416
sa(dp3417
g230
I4106030681
sg231
I00
sg232
I00
sg233
(dp3418
g50
VALG RyaNoob
p3419
sg52
Nssg236
(lp3420
sg238
I00
sg239
I01
sg240
I1
sg241
I0
sg242
I1
sg243
(dp3421
Vy
F-13.762901299999999
sVx
F-0.48714777799999998
sVz
F0.59989119999999996
ssg245
(dp3422
Vy
F-9.960229
sVx
F-11.122159
sVz
F1.78813934e-07
ssg247
I00
sg248
(dp3423
g50
VTL Spartan HCS
p3424
sg52
Nssg251
(lp3425
sg253
(lp3426
sg255
I00
sg44
VPT4M15.9406142S
p3427
sg41
VDeath
p3428
sg258
I1
sa(dp3429
g47
I2511447508
sg41
VWeaponDrop
p3430
sg189
I0
sg53
(lp3431
I2758383128
asg44
VPT4M15.9436164S
p3432
sg192
I0
sg193
VP0DT0H0M4.6667S
p3433
sg48
(dp3434
g50
VTL Spartan HCS
p3435
sg52
Nssa(dp3436
g47
I313138863
sg41
VWeaponDrop
p3437
sg189
I17
sg53
(lp3438
I1095363701
asg44
VPT4M15.9456158S
p3439
sg192
I6
sg193
VP0DT0H0M7.7333S
p3440
sg48
(dp3441
g50
VTL Spartan HCS
p3442
sg52
Nssa(dp3443
g47
I313138863
sg41
VWeaponDrop
p3444
sg189
I0
sg53
(lp3445
I1095363701
asg44
VPT4M15.9456158S
p3446
sg192
I0
sg193
VP0DT0S
p3447
sg48
(dp3448
g50
VTL Spartan HCS
p3449
sg52
Nssa(dp3450
g47
I313138863
sg48
(dp3451
g50
VTL Eco HCS
p3452
sg52
Nssg53
(lp3453
I1095363701
asg41
VWeaponPickup
p3454
sg44
VPT4M16.4416362S
p3455
sa(dp3456
g47
I4096745987
sg48
(dp3457
g50
VTL Eco HCS
p3458
sg52
Nssg53
(lp3459
I2758383128
asg41
VWeaponPickup
p3460
sg44
VPT4M16.4416362S
p3461
sa(dp3462
g41
VPlayerSpawn
p3463
sg48
(dp3464
g50
VTL Eco HCS
p3465
sg52
Nssg44
VPT4M16.4416362S
p3466
sa(dp3467
g41
VMedal
p3468
sg48
(dp3469
g50
VALG Heinz HCS
p3470
sg52
Nssg269
I3400287617
sg44
VPT4M17.9906273S
p3471
sa(dp3472
g47
I2244200496
sg48
(dp3473
g50
VALG RyaNoob
p3474
sg52
Nssg53
(lp3475
I2758383128
asg41
VWeaponPickup
p3476
sg44
VPT4M18.5906312S
p3477
sa(dp3478
g41
VImpulse
p3479
sg48
(dp3480
g50
VALG RyaNoob
p3481
sg52
Nssg263
I4191318012
sg44
VPT4M18.5906312S
p3482
sa(dp3483
g41
VImpulse
p3484
sg48
(dp3485
g50
VALG RyaNoob
p3486
sg52
Nssg263
I1039658009
sg44
VPT4M18.5906312S
p3487
sa(dp3488
g230
I313138863
sg231
I00
sg232
I00
sg233
(dp3489
g50
VTL Danoxide
p3490
sg52
Nssg236
(lp3491
I1095363701
asg238
I00
sg239
I01
sg240
I1
sg241
I0
sg242
I1
sg243
(dp3492
Vy
F-1.7523990899999999
sVx
F0.33481872099999999
sVz
F0.055862844000000002
ssg245
(dp3493
Vy
F0.39594754599999998
sVx
F-0.15705846300000001
sVz
F0.108776867
ssg247
I00
sg248
(dp3494
g50
VALGPredevonator
p3495
sg52
Nssg251
(lp3496
sg253
(lp3497
sg255
I00
sg44
VPT4M18.9576324S
p3498
sg41
VDeath
p3499
sg258
I1
sa(dp3500
g41
VMedal
p3501
sg48
(dp3502
g50
VTL Danoxide
p3503
sg52
Nssg269
I2782465081
sg44
VPT4M18.9586571S
p3504
sa(dp3505
g47
I313138863
sg41
VWeaponDrop
p3506
sg189
I8
sg53
(lp3507
I1095363701
asg44
VPT4M18.9596625S
p3508
sg192
I8
sg193
VP0DT0H0M3.3833S
p3509
sg48
(dp3510
g50
VALGPredevonator
p3511
sg52
Nssa(dp3512
g47
I4096745987
sg41
VWeaponDrop
p3513
sg189
I5
sg53
(lp3514
I2758383128
asg44
VPT4M18.9596625S
p3515
sg192
I2
sg193
VP0DT0H0M28.6667S
p3516
sg48
(dp3517
g50
VALGPredevonator
p3518
sg52
Nssa(dp3519
g47
I313138863
sg41
VWeaponDrop
p3520
sg189
I7
sg53
(lp3521
I1095363701
asg44
VPT4M19.7736658S
p3522
sg192
I3
sg193
VP0DT0H0M2.6667S
p3523
sg48
(dp3524
g50
VTL Danoxide
p3525
sg52
Nssa(dp3526
g47
I3682788176
sg48
(dp3527
g50
VTL Danoxide
p3528
sg52
Nssg53
(lp3529
I2758383128
asg41
VWeaponPickupPad
p3530
sg44
VPT4M19.7736658S
p3531
sa(dp3532
g47
I3682788176
sg48
(dp3533
g50
VTL Danoxide
p3534
sg52
Nssg53
(lp3535
I2758383128
asg41
VWeaponPickup
p3536
sg44
VPT4M19.7736658S
p3537
sa(dp3538
g47
I2244200496
sg41
VWeaponDrop
p3539
sg189
I0
sg53
(lp3540
I2758383128
asg44
VPT4M20.0566772S
p3541
sg192
I0
sg193
VP0DT0H0M1.3000S
p3542
sg48
(dp3543
g50
VALG RyaNoob
p3544
sg52
Nssa(dp3545
g41
VImpulse
p3546
sg48
(dp3547
g50
VALG RyaNoob
p3548
sg52
Nssg263
I3435524855
sg44
VPT4M20.0576671S
p3549
sa(dp3550
g47
I2244200496
sg48
(dp3551
g50
VALG RyaNoob
p3552
sg52
Nssg53
(lp3553
I2758383128
asg41
VWeaponPickup
p3554
sg44
VPT4M21.3906667S
p3555
sa(dp3556
g41
VImpulse
p3557
sg48
(dp3558
g50
VALG RyaNoob
p3559
sg52
Nssg263
I4191318012
sg44
VPT4M21.3906667S
p3560
sa(dp3561
g47
I2244200496
sg41
VWeaponDrop
p3562
sg189
I0
sg53
(lp3563
I2758383128
asg44
VPT4M22.7736582S
p3564
sg192
I0
sg193
VP0DT0H0M1.2167S
p3565
sg48
(dp3566
g50
VALG RyaNoob
p3567
sg52
Nssa(dp3568
g41
VImpulse
p3569
sg48
(dp3570
g50
VALG RyaNoob
p3571
sg52
Nssg263
I3435524855
sg44
VPT4M22.7736582S
p3572
sa(dp3573
g47
I313138863
sg48
(dp3574
g50
VTL Spartan HCS
p3575
sg52
Nssg53
(lp3576
I1095363701
asg41
VWeaponPickup
p3577
sg44
VPT4M23.9576657S
p3578
sa(dp3579
g47
I4096745987
sg48
(dp3580
g50
VTL Spartan HCS
p3581
sg52
Nssg53
(lp3582
I2758383128
asg41
VWeaponPickup
p3583
sg44
VPT4M23.9586833S
p3584
sa(dp3585
g41
VPlayerSpawn
p3586
sg48
(dp3587
g50
VTL Spartan HCS
p3588
sg52
Nssg44
VPT4M23.9586833S
p3589
sa(dp3590
g47
I2244200496
sg48
(dp3591
g50
VALG RyaNoob
p3592
sg52
Nssg53
(lp3593
I2758383128
asg41
VWeaponPickup
p3594
sg44
VPT4M24.2896906S
p3595
sa(dp3596
g41
VImpulse
p3597
sg48
(dp3598
g50
VALG RyaNoob
p3599
sg52
Nssg263
I4191318012
sg44
VPT4M24.2906939S
p3600
sa(dp3601
g230
I424645655
sg231
I00
sg232
I00
sg233
(dp3602
g50
VALG ContrA HCS
p3603
sg52
Nssg236
(lp3604
I1327094800
asg238
I00
sg239
I01
sg240
I1
sg241
I0
sg242
I1
sg243
(dp3605
Vy
F-4.6745223999999999
sVx
F-5.2419524199999996
sVz
F5.2750110000000004e-06
ssg245
(dp3606
Vy
F-3.7259739999999999
sVx
F-7.2955810000000003
sVz
F2.6464462300000001e-05
ssg247
I00
sg248
(dp3607
g50
VTL Danoxide
p3608
sg52
Nssg251
(lp3609
sg253
(lp3610
sg255
I01
sg44
VPT4M25.9916788S
p3611
sg41
VDeath
p3612
sg258
I1
sa(dp3613
g41
VMedal
p3614
sg48
(dp3615
g50
VALG ContrA HCS
p3616
sg52
Nssg269
I3261908037
sg44
VPT4M25.9946977S
p3617
sa(dp3618
g41
VMedal
p3619
sg48
(dp3620
g50
VALG ContrA HCS
p3621
sg52
Nssg269
I2430242797
sg44
VPT4M25.9946977S
p3622
sa(dp3623
g47
I3682788176
sg41
VWeaponDrop
p3624
sg189
I1
sg53
(lp3625
I2758383128
asg44
VPT4M25.9957007S
p3626
sg192
I0
sg193
VP0DT0H0M6.2167S
p3627
sg48
(dp3628
g50
VTL Danoxide
p3629
sg52
Nssa(dp3630
g47
I4096745987
sg41
VWeaponDrop
p3631
sg189
I8
sg53
(lp3632
I2758383128
asg44
VPT4M25.9957007S
p3633
sg192
I3
sg193
VP0DT0H0M26.8333S
p3634
sg48
(dp3635
g50
VTL Danoxide
p3636
sg52
Nssa(dp3637
g41
VMedal
p3638
sg48
(dp3639
g50
VALG RyaNoob
p3640
sg52
Nssg269
I3400287617
sg44
VPT4M26.1736784S
p3641
sa(dp3642
g47
I2244200496
sg41
VWeaponDrop
p3643
sg189
I0
sg53
(lp3644
I2758383128
asg44
VPT4M26.8567056S
p3645
sg192
I0
sg193
VP0DT0H0M2.4000S
p3646
sg48
(dp3647
g50
VALG RyaNoob
p3648
sg52
Nssa(dp3649
g41
VImpulse
p3650
sg48
(dp3651
g50
VALG RyaNoob
p3652
sg52
Nssg263
I3435524855
sg44
VPT4M26.8567056S
p3653
sa(dp3654
g47
I313138863
sg48
(dp3655
g50
VALGPredevonator
p3656
sg52
Nssg53
(lp3657
I1095363701
asg41
VWeaponPickup
p3658
sg44
VPT4M26.9747146S
p3659
sa(dp3660
g47
I4096745987
sg48
(dp3661
g50
VALGPredevonator
p3662
sg52
Nssg53
(lp3663
I2758383128
asg41
VWeaponPickup
p3664
sg44
VPT4M26.9747146S
p3665
sa(dp3666
g41
VPlayerSpawn
p3667
sg48
(dp3668
g50
VALGPredevonator
p3669
sg52
Nssg44
VPT4M26.9747146S
p3670
sa(dp3671
g230
I4096745987
sg231
I00
sg232
I00
sg233
(dp3672
g50
VTL StelluR
p3673
sg52
Nssg236
(lp3674
I2758383128
asg238
I00
sg239
I01
sg240
I1
sg241
I0
sg242
I1
sg243
(dp3675
Vy
F-12.069178600000001
sVx
F-6.2510333100000004
sVz
F1.4307891100000001
ssg245
(dp3676
Vy
F-4.4254259999999999
sVx
F-7.7631059999999996
sVz
F2.7090311099999999e-05
ssg247
I00
sg248
(dp3677
g50
VALG Heinz HCS
p3678
sg52
Nssg251
(lp3679
sg253
(lp3680
(dp3681
g50
VTL Eco HCS
p3682
sg52
Nsasg255
I01
sg44
VPT4M28.0576911S
p3683
sg41
VDeath
p3684
sg258
I1
sa(dp3685
g41
VMedal
p3686
sg48
(dp3687
g50
VTL StelluR
p3688
sg52
Nssg269
I3261908037
sg44
VPT4M28.0587239S
p3689
sa(dp3690
g47
I313138863
sg41
VWeaponDrop
p3691
sg189
I28
sg53
(lp3692
I1095363701
asg44
VPT4M28.0597092S
p3693
sg192
I9
sg193
VP0DT0H0M10.3833S
p3694
sg48
(dp3695
g50
VALG Heinz HCS
p3696
sg52
Nssa(dp3697
g47
I2511447508
sg41
VWeaponDrop
p3698
sg189
I5
sg53
(lp3699
I2758383128
asg44
VPT4M28.0597092S
p3700
sg192
I2
sg193
VP0DT0H0M13.4667S
p3701
sg48
(dp3702
g50
VALG Heinz HCS
p3703
sg52
Nssa(dp3704
g47
I2244200496
sg48
(dp3705
g50
VALG RyaNoob
p3706
sg52
Nssg53
(lp3707
I2758383128
asg41
VWeaponPickup
p3708
sg44
VPT4M28.3906942S
p3709
sa(dp3710
g41
VImpulse
p3711
sg48
(dp3712
g50
VALG RyaNoob
p3713
sg52
Nssg263
I4191318012
sg44
VPT4M28.3906942S
p3714
sa(dp3715
g47
I2244200496
sg41
VWeaponDrop
p3716
sg189
I0
sg53
(lp3717
I2758383128
asg44
VPT4M28.7397215S
p3718
sg192
I0
sg193
VP0DT0H0M0.1833S
p3719
sg48
(dp3720
g50
VALG RyaNoob
p3721
sg52
Nssa(dp3722
g41
VImpulse
p3723
sg48
(dp3724
g50
VALG RyaNoob
p3725
sg52
Nssg263
I3435524855
sg44
VPT4M28.7406987S
p3726
sa(dp3727
g47
I2244200496
sg48
(dp3728
g50
VALG RyaNoob
p3729
sg52
Nssg53
(lp3730
I2758383128
asg41
VWeaponPickup
p3731
sg44
VPT4M30.2227076S
p3732
sa(dp3733
g41
VImpulse
p3734
sg48
(dp3735
g50
VALG RyaNoob
p3736
sg52
Nssg263
I4191318012
sg44
VPT4M30.2237064S
p3737
sa(dp3738
g47
I2244200496
sg41
VWeaponDrop
p3739
sg189
I0
sg53
(lp3740
I2758383128
asg44
VPT4M31.2567122S
p3741
sg192
I0
sg193
VP0DT0H0M0.8667S
p3742
sg48
(dp3743
g50
VALG RyaNoob
p3744
sg52
Nssa(dp3745
g41
VImpulse
p3746
sg48
(dp3747
g50
VALG RyaNoob
p3748
sg52
Nssg263
I3435524855
sg44
VPT4M31.2567122S
p3749
sa(dp3750
g230
I3682788176
sg231
I00
sg232
I00
sg233
(dp3751
g50
VALG ContrA HCS
p3752
sg52
Nssg236
(lp3753
I2758383128
asg238
I00
sg239
I01
sg240
I1
sg241
I0
sg242
I1
sg243
(dp3754
Vy
F0.82382094900000002
sVx
F-4.6133613599999999
sVz
F0.44952399999999998
ssg245
(dp3755
Vy
F-2.7331824299999998
sVx
F-8.7721599999999995
sVz
F0.061051905199999999
ssg247
I00
sg248
(dp3756
g50
VTL StelluR
p3757
sg52
Nssg251
(lp3758
sg253
(lp3759
(dp3760
g50
VALGPredevonator
p3761
sg52
Nsasg255
I00
sg44
VPT4M31.4577134S
p3762
sg41
VDeath
p3763
sg258
I1
sa(dp3764
g47
I313138863
sg41
VWeaponDrop
p3765
sg189
I0
sg53
(lp3766
I1095363701
asg44
VPT4M31.4587257S
p3767
sg192
I0
sg193
VP0DT0H0M0.3667S
p3768
sg48
(dp3769
g50
VTL StelluR
p3770
sg52
Nssa(dp3771
g47
I4096745987
sg41
VWeaponDrop
p3772
sg189
I13
sg53
(lp3773
I2758383128
asg44
VPT4M31.4587257S
p3774
sg192
I7
sg193
VP0DT0H0M15.3500S
p3775
sg48
(dp3776
g50
VTL StelluR
p3777
sg52
Nssa(dp3778
g47
I2244200496
sg48
(dp3779
g50
VTL Spartan HCS
p3780
sg52
Nssg53
(lp3781
I2758383128
asg41
VWeaponPickup
p3782
sg44
VPT4M33.3397526S
p3783
sa(dp3784
g41
VImpulse
p3785
sg48
(dp3786
g50
VTL Spartan HCS
p3787
sg52
Nssg263
I4191318012
sg44
VPT4M33.3407254S
p3788
sa(dp3789
g41
VImpulse
p3790
sg48
(dp3791
g50
VTL Spartan HCS
p3792
sg52
Nssg263
I1039658009
sg44
VPT4M33.3407254S
p3793
sa(dp3794
g47
I313138863
sg48
(dp3795
g50
VTL Danoxide
p3796
sg52
Nssg53
(lp3797
I1095363701
asg41
VWeaponPickup
p3798
sg44
VPT4M34.0077491S
p3799
sa(dp3800
g47
I4096745987
sg48
(dp3801
g50
VTL Danoxide
p3802
sg52
Nssg53
(lp3803
I2758383128
asg41
VWeaponPickup
p3804
sg44
VPT4M34.0077491S
p3805
sa(dp3806
g41
VPlayerSpawn
p3807
sg48
(dp3808
g50
VTL Danoxide
p3809
sg52
Nssg44
VPT4M34.0077491S
p3810
sa(dp3811
g47
I2244200496
sg41
VWeaponDrop
p3812
sg189
I0
sg53
(lp3813
I2758383128
asg44
VPT4M34.0897309S
p3814
sg192
I0
sg193
VP0DT0H0M0.5833S
p3815
sg48
(dp3816
g50
VTL Spartan HCS
p3817
sg52
Nssa(dp3818
g41
VImpulse
p3819
sg48
(dp3820
g50
VTL Spartan HCS
p3821
sg52
Nssg263
I3435524855
sg44
VPT4M34.0907289S
p3822
sa(dp3823
g47
I313138863
sg48
(dp3824
g50
VALG Heinz HCS
p3825
sg52
Nssg53
(lp3826
I1095363701
asg41
VWeaponPickup
p3827
sg44
VPT4M36.0737427S
p3828
sa(dp3829
g47
I4096745987
sg48
(dp3830
g50
VALG Heinz HCS
p3831
sg52
Nssg53
(lp3832
I2758383128
asg41
VWeaponPickup
p3833
sg44
VPT4M36.0747624S
p3834
sa(dp3835
g41
VPlayerSpawn
p3836
sg48
(dp3837
g50
VALG Heinz HCS
p3838
sg52
Nssg44
VPT4M36.0747624S
p3839
sa(dp3840
g230
I4096745987
sg231
I00
sg232
I00
sg233
(dp3841
g50
VTL Spartan HCS
p3842
sg52
Nssg236
(lp3843
I2758383128
asg238
I00
sg239
I01
sg240
I1
sg241
I0
sg242
I1
sg243
(dp3844
Vy
F11.509673100000001
sVx
F8.7546599999999994
sVz
F0.60020839999999998
ssg245
(dp3845
Vy
F11.2042561
sVx
F-1.57083416
sVz
F1.0537333499999999
ssg247
I00
sg248
(dp3846
g50
VALGPredevonator
p3847
sg52
Nssg251
(lp3848
sg253
(lp3849
(dp3850
g50
VTL Eco HCS
p3851
sg52
Nsasg255
I01
sg44
VPT4M37.1077513S
p3852
sg41
VDeath
p3853
sg258
I1
sa(dp3854
g41
VImpulse
p3855
sg48
(dp3856
g50
VTL Spartan HCS
p3857
sg52
Nssg263
I2556889090
sg44
VPT4M37.1077513S
p3858
sa(dp3859
g41
VMedal
p3860
sg48
(dp3861
g50
VTL Spartan HCS
p3862
sg52
Nssg269
I2838259753
sg44
VPT4M37.1077513S
p3863
sa(dp3864
g41
VMedal
p3865
sg48
(dp3866
g50
VTL Spartan HCS
p3867
sg52
Nssg269
I3261908037
sg44
VPT4M37.1087789S
p3868
sa(dp3869
g47
I313138863
sg41
VWeaponDrop
p3870
sg189
I0
sg53
(lp3871
I1095363701
asg44
VPT4M37.1097695S
p3872
sg192
I0
sg193
VP0DT0H0M0.8000S
p3873
sg48
(dp3874
g50
VALGPredevonator
p3875
sg52
Nssa(dp3876
g47
I4096745987
sg41
VWeaponDrop
p3877
sg189
I13
sg53
(lp3878
I2758383128
asg44
VPT4M37.1097695S
p3879
sg192
I7
sg193
VP0DT0H0M9.3333S
p3880
sg48
(dp3881
g50
VALGPredevonator
p3882
sg52
Nssa(dp3883
g47
I313138863
sg48
(dp3884
g50
VTL StelluR
p3885
sg52
Nssg53
(lp3886
I1095363701
asg41
VWeaponPickup
p3887
sg44
VPT4M39.474789S
p3888
sa(dp3889
g47
I4096745987
sg48
(dp3890
g50
VTL StelluR
p3891
sg52
Nssg53
(lp3892
I2758383128
asg41
VWeaponPickup
p3893
sg44
VPT4M39.474789S
p3894
sa(dp3895
g41
VPlayerSpawn
p3896
sg48
(dp3897
g50
VTL StelluR
p3898
sg52
Nssg44
VPT4M39.474789S
p3899
sa(dp3900
g47
I2244200496
sg48
(dp3901
g50
VALG RyaNoob
p3902
sg52
Nssg53
(lp3903
I2758383128
asg41
VWeaponPickup
p3904
sg44
VPT4M41.5397778S
p3905
sa(dp3906
g41
VImpulse
p3907
sg48
(dp3908
g50
VALG RyaNoob
p3909
sg52
Nssg263
I4191318012
sg44
VPT4M41.5397778S
p3910
sa(dp3911
g230
I4096745987
sg231
I00
sg232
I00
sg233
(dp3912
g50
VTL Spartan HCS
p3913
sg52
Nssg236
(lp3914
I2758383128
asg238
I00
sg239
I01
sg240
I1
sg241
I0
sg242
I1
sg243
(dp3915
Vy
F7.9786314999999997
sVx
F17.019945100000001
sVz
F0.93426203699999999
ssg245
(dp3916
Vy
F4.1520080000000004
sVx
F12.588329999999999
sVz
F0.167740941
ssg247
I00
sg248
(dp3917
g50
VALG Heinz HCS
p3918
sg52
Nssg251
(lp3919
sg253
(lp3920
(dp3921
g50
VTL Danoxide
p3922
sg52
Nsa(dp3923
g50
VTL StelluR
p3924
sg52
Nsasg255
I01
sg44
VPT4M41.8407821S
p3925
sg41
VDeath
p3926
sg258
I1
sa(dp3927
g41
VMedal
p3928
sg48
(dp3929
g50
VTL Spartan HCS
p3930
sg52
Nssg269
I3261908037
sg44
VPT4M41.8407821S
p3931
sa(dp3932
g41
VMedal
p3933
sg48
(dp3934
g50
VTL Spartan HCS
p3935
sg52
Nssg269
I2078758684
sg44
VPT4M41.8407821S
p3936
sa(dp3937
g47
I313138863
sg41
VWeaponDrop
p3938
sg189
I0
sg53
(lp3939
I1095363701
asg44
VPT4M41.8407821S
p3940
sg192
I0
sg193
VP0DT0H0M2.9833S
p3941
sg48
(dp3942
g50
VALG Heinz HCS
p3943
sg52
Nssa(dp3944
g47
I4096745987
sg41
VWeaponDrop
p3945
sg189
I2
sg53
(lp3946
I2758383128
asg44
VPT4M41.8407821S
p3947
sg192
I2
sg193
VP0DT0H0M2.7833S
p3948
sg48
(dp3949
g50
VALG Heinz HCS
p3950
sg52
Nssa(dp3951
g230
I3682788176
sg231
I00
sg232
I00
sg233
(dp3952
g50
VALG ContrA HCS
p3953
sg52
Nssg236
(lp3954
I2758383128
asg238
I00
sg239
I01
sg240
I1
sg241
I0
sg242
I1
sg243
(dp3955
Vy
F4.8216877
sVx
F2.64896441
sVz
F7.9393390000000004e-05
ssg245
(dp3956
Vy
F7.2573084799999998
sVx
F17.396047599999999
sVz
F1.0360417399999999
ssg247
I00
sg248
(dp3957
g50
VTL Spartan HCS
p3958
sg52
Nssg251
(lp3959
sg253
(lp3960
(dp3961
g50
VALG Heinz HCS
p3962
sg52
Nsasg255
I00
sg44
VPT4M42.1907818S
p3963
sg41
VDeath
p3964
sg258
I1
sa(dp3965
g47
I313138863
sg41
VWeaponDrop
p3966
sg189
I0
sg53
(lp3967
I1095363701
asg44
VPT4M42.1918136S
p3968
sg192
I0
sg193
VP0DT0H0M4.1000S
p3969
sg48
(dp3970
g50
VTL Spartan HCS
p3971
sg52
Nssa(dp3972
g47
I4096745987
sg41
VWeaponDrop
p3973
sg189
I5
sg53
(lp3974
I2758383128
asg44
VPT4M42.1918136S
p3975
sg192
I3
sg193
VP0DT0H0M13.5500S
p3976
sg48
(dp3977
g50
VTL Spartan HCS
p3978
sg52
Nssa(dp3979
g230
I4096745987
sg231
I00
sg232
I00
sg233
(dp3980
g50
VTL Danoxide
p3981
sg52
Nssg236
(lp3982
I2758383128
asg238
I00
sg239
I01
sg240
I1
sg241
I0
sg242
I1
sg243
(dp3983
Vy
F5.4075550000000003
sVx
F7.3601919999999996
sVz
F0.69140880000000005
ssg245
(dp3984
Vy
F6.6646590000000003
sVx
F0.96227145199999997
sVz
F0.87484260000000003
ssg247
I00
sg248
(dp3985
g50
VALG ContrA HCS
p3986
sg52
Nssg251
(lp3987
sg253
(lp3988
sg255
I01
sg44
VPT4M44.2068172S
p3989
sg41
VDeath
p3990
sg258
I1
sa(dp3991
g41
VImpulse
p3992
sg48
(dp3993
g50
VTL Danoxide
p3994
sg52
Nssg263
I3174430457
sg44
VPT4M44.2088189S
p3995
sa(dp3996
g41
VMedal
p3997
sg48
(dp3998
g50
VTL Danoxide
p3999
sg52
Nssg269
I3653057799
sg44
VPT4M44.2098187S
p4000
sa(dp4001
g47
I3682788176
sg41
VWeaponDrop
p4002
sg189
I5
sg53
(lp4003
I2758383128
asg44
VPT4M44.2098187S
p4004
sg192
I3
sg193
VP0DT0H0M22.3000S
p4005
sg48
(dp4006
g50
VALG ContrA HCS
p4007
sg52
Nssa(dp4008
g47
I3682788176
sg41
VWeaponDrop
p4009
sg189
I0
sg53
(lp4010
I2758383128
asg44
VPT4M44.2098187S
p4011
sg192
I0
sg193
VP0DT0S
p4012
sg48
(dp4013
g50
VALG ContrA HCS
p4014
sg52
Nssa(dp4015
g47
I424645655
sg41
VWeaponDrop
p4016
sg189
I76
sg53
(lp4017
I1327094800
asg44
VPT4M44.2098187S
p4018
sg192
I38
sg193
VP0DT0H0M48.3167S
p4019
sg48
(dp4020
g50
VALG ContrA HCS
p4021
sg52
Nssa(dp4022
g47
I2244200496
sg41
VWeaponDrop
p4023
sg189
I0
sg53
(lp4024
I2758383128
asg44
VPT4M44.2887977S
p4025
sg192
I0
sg193
VP0DT0H0M2.5833S
p4026
sg48
(dp4027
g50
VALG RyaNoob
p4028
sg52
Nssa(dp4029
g41
VImpulse
p4030
sg48
(dp4031
g50
VALG RyaNoob
p4032
sg52
Nssg263
I3435524855
sg44
VPT4M44.2907954S
p4033
sa(dp4034
g47
I313138863
sg48
(dp4035
g50
VALGPredevonator
p4036
sg52
Nssg53
(lp4037
I1095363701
asg41
VWeaponPickup
p4038
sg44
VPT4M45.1238011S
p4039
sa(dp4040
g47
I4096745987
sg48
(dp4041
g50
VALGPredevonator
p4042
sg52
Nssg53
(lp4043
I2758383128
asg41
VWeaponPickup
p4044
sg44
VPT4M45.1248379S
p4045
sa(dp4046
g41
VPlayerSpawn
p4047
sg48
(dp4048
g50
VALGPredevonator
p4049
sg52
Nssg44
VPT4M45.1248379S
p4050
sa(dp4051
g47
I313138863
sg41
VWeaponDrop
p4052
sg189
I24
sg53
(lp4053
I1095363701
asg44
VPT4M45.9558267S
p4054
sg192
I9
sg193
VP0DT0H0M7.2000S
p4055
sg48
(dp4056
g50
VTL Eco HCS
p4057
sg52
Nssa(dp4058
g47
I3682788176
sg48
(dp4059
g50
VTL Eco HCS
p4060
sg52
Nssg53
(lp4061
I2758383128
asg41
VWeaponPickup
p4062
sg44
VPT4M45.9558267S
p4063
sa(dp4064
g230
I2511447508
sg231
I00
sg232
I00
sg233
(dp4065
g50
VALG RyaNoob
p4066
sg52
Nssg236
(lp4067
I2758383128
asg238
I00
sg239
I01
sg240
I1
sg241
I0
sg242
I1
sg243
(dp4068
Vy
F14.10093
sVx
F2.0328495499999999
sVz
F1.4575557699999999
ssg245
(dp4069
Vy
F9.6564820000000005
sVx
F6.6436185800000001
sVz
F4.7385692599999997e-06
ssg247
I00
sg248
(dp4070
g50
VTL Danoxide
p4071
sg52
Nssg251
(lp4072
sg253
(lp4073
(dp4074
g50
VALG ContrA HCS
p4075
sg52
Nsasg255
I01
sg44
VPT4M46.6738104S
p4076
sg41
VDeath
p4077
sg258
I1
sa(dp4078
g41
VMedal
p4079
sg48
(dp4080
g50
VALG RyaNoob
p4081
sg52
Nssg269
I164204247
sg44
VPT4M46.6748291S
p4082
sa(dp4083
g41
VMedal
p4084
sg48
(dp4085
g50
VALG RyaNoob
p4086
sg52
Nssg269
I3261908037
sg44
VPT4M46.6748291S
p4087
sa(dp4088
g47
I313138863
sg41
VWeaponDrop
p4089
sg189
I0
sg53
(lp4090
I1095363701
asg44
VPT4M46.6758352S
p4091
sg192
I0
sg193
VP0DT0H0M0.3833S
p4092
sg48
(dp4093
g50
VTL Danoxide
p4094
sg52
Nssa(dp4095
g47
I4096745987
sg41
VWeaponDrop
p4096
sg189
I12
sg53
(lp4097
I2758383128
asg44
VPT4M46.6758352S
p4098
sg192
I7
sg193
VP0DT0H0M12.2833S
p4099
sg48
(dp4100
g50
VTL Danoxide
p4101
sg52
Nssa(dp4102
g230
I2511447508
sg231
I00
sg232
I01
sg233
(dp4103
g50
VALG RyaNoob
p4104
sg52
Nssg236
(lp4105
I2758383128
asg238
I00
sg239
I00
sg240
I1
sg241
I0
sg242
I1
sg243
(dp4106
Vy
F12.5540094
sVx
F-0.82653279999999996
sVz
F0.79006624199999997
ssg245
(dp4107
Vy
F12.1962461
sVx
F-0.540310442
sVz
F0.82966150000000005
ssg247
I00
sg248
(dp4108
g50
VTL Eco HCS
p4109
sg52
Nssg251
(lp4110
sg253
(lp4111
sg255
I00
sg44
VPT4M48.7568265S
p4112
sg41
VDeath
p4113
sg258
I1
sa(dp4114
g41
VMedal
p4115
sg48
(dp4116
g50
VALG RyaNoob
p4117
sg52
Nssg269
I2782465081
sg44
VPT4M48.7578479S
p4118
sa(dp4119
g41
VMedal
p4120
sg48
(dp4121
g50
VALG RyaNoob
p4122
sg52
Nssg269
I250435527
sg44
VPT4M48.7578479S
p4123
sa(dp4124
g41
VMedal
p4125
sg48
(dp4126
g50
VALG RyaNoob
p4127
sg52
Nssg269
I2078758684
sg44
VPT4M48.7578479S
p4128
sa(dp4129
g47
I4096745987
sg41
VWeaponDrop
p4130
sg189
I15
sg53
(lp4131
I2758383128
asg44
VPT4M48.7588505S
p4132
sg192
I11
sg193
VP0DT0H0M24.1000S
p4133
sg48
(dp4134
g50
VTL Eco HCS
p4135
sg52
Nssa(dp4136
g47
I4096745987
sg41
VWeaponDrop
p4137
sg189
I0
sg53
(lp4138
I2758383128
asg44
VPT4M48.7588505S
p4139
sg192
I0
sg193
VP0DT0S
p4140
sg48
(dp4141
g50
VTL Eco HCS
p4142
sg52
Nssa(dp4143
g47
I3682788176
sg41
VWeaponDrop
p4144
sg189
I0
sg53
(lp4145
I2758383128
asg44
VPT4M48.7588505S
p4146
sg192
I0
sg193
VP0DT0H0M1.0167S
p4147
sg48
(dp4148
g50
VTL Eco HCS
p4149
sg52
Nssa(dp4150
g230
I4096745987
sg231
I00
sg232
I01
sg233
(dp4151
g50
VTL Eco HCS
p4152
sg52
Nssg236
(lp4153
I2758383128
asg238
I00
sg239
I00
sg240
I1
sg241
I0
sg242
I1
sg243
(dp4154
Vy
F12.1962461
sVx
F-0.540310442
sVz
F1.0546615100000001
ssg245
(dp4155
Vy
F12.5540094
sVx
F-0.82653279999999996
sVz
F0.79006624199999997
ssg247
I00
sg248
(dp4156
g50
VALG RyaNoob
p4157
sg52
Nssg251
(lp4158
sg253
(lp4159
sg255
I00
sg44
VPT4M48.7598474S
p4160
sg41
VDeath
p4161
sg258
I1
sa(dp4162
g41
VMedal
p4163
sg48
(dp4164
g50
VTL Eco HCS
p4165
sg52
Nssg269
I250435527
sg44
VPT4M48.760848S
p4166
sa(dp4167
g47
I2511447508
sg41
VWeaponDrop
p4168
sg189
I8
sg53
(lp4169
I2758383128
asg44
VPT4M48.760848S
p4170
sg192
I6
sg193
VP0DT0H0M41.2667S
p4171
sg48
(dp4172
g50
VALG RyaNoob
p4173
sg52
Nssa(dp4174
g47
I2511447508
sg41
VWeaponDrop
p4175
sg189
I0
sg53
(lp4176
I2758383128
asg44
VPT4M48.760848S
p4177
sg192
I0
sg193
VP0DT0S
p4178
sg48
(dp4179
g50
VALG RyaNoob
p4180
sg52
Nssa(dp4181
g47
I313138863
sg41
VWeaponDrop
p4182
sg189
I0
sg53
(lp4183
I1095363701
asg44
VPT4M48.7618461S
p4184
sg192
I0
sg193
VP0DT0H0M0.8833S
p4185
sg48
(dp4186
g50
VALG RyaNoob
p4187
sg52
Nssa(dp4188
g47
I313138863
sg48
(dp4189
g50
VALG Heinz HCS
p4190
sg52
Nssg53
(lp4191
I1095363701
asg41
VWeaponPickup
p4192
sg44
VPT4M49.8568318S
p4193
sa(dp4194
g47
I4096745987
sg48
(dp4195
g50
VALG Heinz HCS
p4196
sg52
Nssg53
(lp4197
I2758383128
asg41
VWeaponPickup
p4198
sg44
VPT4M49.8568318S
p4199
sa(dp4200
g41
VPlayerSpawn
p4201
sg48
(dp4202
g50
VALG Heinz HCS
p4203
sg52
Nssg44
VPT4M49.8568318S
p4204
sa(dp4205
g47
I313138863
sg48
(dp4206
g50
VTL Spartan HCS
p4207
sg52
Nssg53
(lp4208
I1095363701
asg41
VWeaponPickup
p4209
sg44
VPT4M50.2068262S
p4210
sa(dp4211
g47
I4096745987
sg48
(dp4212
g50
VTL Spartan HCS
p4213
sg52
Nssg53
(lp4214
I2758383128
asg41
VWeaponPickup
p4215
sg44
VPT4M50.2078521S
p4216
sa(dp4217
g41
VPlayerSpawn
p4218
sg48
(dp4219
g50
VTL Spartan HCS
p4220
sg52
Nssg44
VPT4M50.2078521S
p4221
sa(dp4222
g47
I313138863
sg48
(dp4223
g50
VALG ContrA HCS
p4224
sg52
Nssg53
(lp4225
I1095363701
asg41
VWeaponPickup
p4226
sg44
VPT4M52.2238438S
p4227
sa(dp4228
g47
I4096745987
sg48
(dp4229
g50
VALG ContrA HCS
p4230
sg52
Nssg53
(lp4231
I2758383128
asg41
VWeaponPickup
p4232
sg44
VPT4M52.2238438S
p4233
sa(dp4234
g41
VPlayerSpawn
p4235
sg48
(dp4236
g50
VALG ContrA HCS
p4237
sg52
Nssg44
VPT4M52.2238438S
p4238
sa(dp4239
g47
I4096745987
sg41
VWeaponDrop
p4240
sg189
I0
sg53
(lp4241
I2758383128
asg44
VPT4M53.171849S
p4242
sg192
I0
sg193
VP0DT0H0M1.7167S
p4243
sg48
(dp4244
g50
VTL Spartan HCS
p4245
sg52
Nssa(dp4246
g47
I424645655
sg48
(dp4247
g50
VTL Spartan HCS
p4248
sg52
Nssg53
(lp4249
I1327094800
asg41
VWeaponPickup
p4250
sg44
VPT4M53.1728269S
p4251
sa(dp4252
g230
I4096745987
sg231
I00
sg232
I00
sg233
(dp4253
g50
VTL StelluR
p4254
sg52
Nssg236
(lp4255
I2758383128
asg238
I00
sg239
I01
sg240
I1
sg241
I0
sg242
I1
sg243
(dp4256
Vy
F12.780569099999999
sVx
F3.5686273599999998
sVz
F1.65075934
ssg245
(dp4257
Vy
F10.2945042
sVx
F6.6794385900000002
sVz
F0.196576416
ssg247
I00
sg248
(dp4258
g50
VALGPredevonator
p4259
sg52
Nssg251
(lp4260
sg253
(lp4261
sg255
I01
sg44
VPT4M53.2398257S
p4262
sg41
VDeath
p4263
sg258
I1
sa(dp4264
g41
VMedal
p4265
sg48
(dp4266
g50
VTL StelluR
p4267
sg52
Nssg269
I2782465081
sg44
VPT4M53.2418381S
p4268
sa(dp4269
g41
VMedal
p4270
sg48
(dp4271
g50
VTL StelluR
p4272
sg52
Nssg269
I3261908037
sg44
VPT4M53.2418381S
p4273
sa(dp4274
g47
I313138863
sg41
VWeaponDrop
p4275
sg189
I0
sg53
(lp4276
I1095363701
asg44
VPT4M53.2428531S
p4277
sg192
I0
sg193
VP0DT0H0M0.4833S
p4278
sg48
(dp4279
g50
VALGPredevonator
p4280
sg52
Nssa(dp4281
g47
I4096745987
sg41
VWeaponDrop
p4282
sg189
I8
sg53
(lp4283
I2758383128
asg44
VPT4M53.2428531S
p4284
sg192
I5
sg193
VP0DT0H0M7.6333S
p4285
sg48
(dp4286
g50
VALGPredevonator
p4287
sg52
Nssa(dp4288
g47
I313138863
sg48
(dp4289
g50
VTL Danoxide
p4290
sg52
Nssg53
(lp4291
I1095363701
asg41
VWeaponPickup
p4292
sg44
VPT4M54.6908492S
p4293
sa(dp4294
g47
I4096745987
sg48
(dp4295
g50
VTL Danoxide
p4296
sg52
Nssg53
(lp4297
I2758383128
asg41
VWeaponPickup
p4298
sg44
VPT4M54.6908492S
p4299
sa(dp4300
g41
VPlayerSpawn
p4301
sg48
(dp4302
g50
VTL Danoxide
p4303
sg52
Nssg44
VPT4M54.6908492S
p4304
sa(dp4305
g230
I313138863
sg231
I00
sg232
I00
sg233
(dp4306
g50
VALG Heinz HCS
p4307
sg52
Nssg236
(lp4308
I1095363701
asg238
I00
sg239
I01
sg240
I1
sg241
I0
sg242
I1
sg243
(dp4309
Vy
F14.233407
sVx
F-0.103281341
sVz
F0.60000969999999998
ssg245
(dp4310
Vy
F13.241946199999999
sVx
F4.4814252899999998
sVz
F1.4885626999999999
ssg247
I00
sg248
(dp4311
g50
VTL StelluR
p4312
sg52
Nssg251
(lp4313
sg253
(lp4314
(dp4315
g50
VALGPredevonator
p4316
sg52
Nsasg255
I00
sg44
VPT4M55.1728263S
p4317
sg41
VDeath
p4318
sg258
I1
sa(dp4319
g47
I313138863
sg41
VWeaponDrop
p4320
sg189
I0
sg53
(lp4321
I1095363701
asg44
VPT4M55.1748489S
p4322
sg192
I0
sg193
VP0DT0H0M1.4833S
p4323
sg48
(dp4324
g50
VTL StelluR
p4325
sg52
Nssa(dp4326
g47
I4096745987
sg41
VWeaponDrop
p4327
sg189
I10
sg53
(lp4328
I2758383128
asg44
VPT4M55.1748489S
p4329
sg192
I6
sg193
VP0DT0H0M14.2167S
p4330
sg48
(dp4331
g50
VTL StelluR
p4332
sg52
Nssa(dp4333
g47
I313138863
sg48
(dp4334
g50
VTL Eco HCS
p4335
sg52
Nssg53
(lp4336
I1095363701
asg41
VWeaponPickup
p4337
sg44
VPT4M56.7738497S
p4338
sa(dp4339
g47
I4096745987
sg48
(dp4340
g50
VTL Eco HCS
p4341
sg52
Nssg53
(lp4342
I2758383128
asg41
VWeaponPickup
p4343
sg44
VPT4M56.7738497S
p4344
sa(dp4345
g41
VPlayerSpawn
p4346
sg48
(dp4347
g50
VTL Eco HCS
p4348
sg52
Nssg44
VPT4M56.7748479S
p4349
sa(dp4350
g47
I313138863
sg48
(dp4351
g50
VALG RyaNoob
p4352
sg52
Nssg53
(lp4353
I1095363701
asg41
VWeaponPickup
p4354
sg44
VPT4M56.8068492S
p4355
sa(dp4356
g47
I4096745987
sg48
(dp4357
g50
VALG RyaNoob
p4358
sg52
Nssg53
(lp4359
I2758383128
asg41
VWeaponPickup
p4360
sg44
VPT4M56.8068492S
p4361
sa(dp4362
g41
VPlayerSpawn
p4363
sg48
(dp4364
g50
VALG RyaNoob
p4365
sg52
Nssg44
VPT4M56.8068492S
p4366
sa(dp4367
g47
I2244200496
sg48
(dp4368
g50
VALG Heinz HCS
p4369
sg52
Nssg53
(lp4370
I2758383128
asg41
VWeaponPickup
p4371
sg44
VPT4M56.9058261S
p4372
sa(dp4373
g41
VImpulse
p4374
sg48
(dp4375
g50
VALG Heinz HCS
p4376
sg52
Nssg263
I4191318012
sg44
VPT4M56.9068253S
p4377
sa(dp4378
g47
I4096745987
sg41
VWeaponDrop
p4379
sg189
I0
sg53
(lp4380
I2758383128
asg44
VPT4M57.3218473S
p4381
sg192
I0
sg193
VP0DT0H0M2.0333S
p4382
sg48
(dp4383
g50
VTL Danoxide
p4384
sg52
Nssa(dp4385
g47
I2511447508
sg48
(dp4386
g50
VTL Danoxide
p4387
sg52
Nssg53
(lp4388
I2758383128
asg41
VWeaponPickup
p4389
sg44
VPT4M57.3218473S
p4390
sa(dp4391
g47
I313138863
sg41
VWeaponDrop
p4392
sg189
I0
sg53
(lp4393
I1095363701
asg44
VPT4M58.521845S
p4394
sg192
I0
sg193
VP0DT0H0M1.3167S
p4395
sg48
(dp4396
g50
VTL Eco HCS
p4397
sg52
Nssa(dp4398
g47
I2511447508
sg48
(dp4399
g50
VTL Eco HCS
p4400
sg52
Nssg53
(lp4401
I2758383128
asg41
VWeaponPickup
p4402
sg44
VPT4M58.521845S
p4403
sa(dp4404
g47
I2511447508
sg41
VWeaponDrop
p4405
sg189
I0
sg53
(lp4406
I2758383128
asg44
VPT4M58.8888509S
p4407
sg192
I0
sg193
VP0DT0H0M1.5667S
p4408
sg48
(dp4409
g50
VTL Danoxide
p4410
sg52
Nssa(dp4411
g47
I4096745987
sg48
(dp4412
g50
VTL Danoxide
p4413
sg52
Nssg53
(lp4414
I2758383128
asg41
VWeaponPickup
p4415
sg44
VPT4M58.8888509S
p4416
sa(dp4417
g41
VMedal
p4418
sg48
(dp4419
g50
VALG ContrA HCS
p4420
sg52
Nssg269
I2380717523
sg44
VPT4M59.3918499S
p4421
sa(dp4422
g41
VImpulse
p4423
sg48
(dp4424
g50
VALG ContrA HCS
p4425
sg52
Nssg263
I1063951891
sg44
VPT4M59.3918499S
p4426
sa(dp4427
g47
I4096745987
sg41
VWeaponDrop
p4428
sg189
I3
sg53
(lp4429
I2758383128
asg44
VPT4M59.4718279S
p4430
sg192
I3
sg193
VP0DT0H0M1.9167S
p4431
sg48
(dp4432
g50
VALG RyaNoob
p4433
sg52
Nssa(dp4434
g47
I424645655
sg48
(dp4435
g50
VALG RyaNoob
p4436
sg52
Nssg53
(lp4437
I1327094800
asg41
VWeaponPickup
p4438
sg44
VPT4M59.4718279S
p4439
sa(dp4440
g41
VMedal
p4441
sg48
(dp4442
g50
VALG Heinz HCS
p4443
sg52
Nssg269
I3886151616
sg44
VPT4M59.688849S
p4444
sa(dp4445
g41
VMedal
p4446
sg48
(dp4447
g50
VALG RyaNoob
p4448
sg52
Nssg269
I1494478183
sg44
VPT4M59.688849S
p4449
sa(dp4450
g41
VImpulse
p4451
sg48
(dp4452
g50
VALG Heinz HCS
p4453
sg52
Nssg263
I2944278681
sg44
VPT4M59.688849S
p4454
sa(dp4455
g47
I2244200496
sg41
VWeaponDrop
p4456
sg189
I0
sg53
(lp4457
I2758383128
asg44
VPT4M59.6898599S
p4458
sg192
I0
sg193
VP0DT0H0M2.6167S
p4459
sg48
(dp4460
g50
VALG Heinz HCS
p4461
sg52
Nssa(dp4462
g47
I313138863
sg48
(dp4463
g50
VALGPredevonator
p4464
sg52
Nssg53
(lp4465
I1095363701
asg41
VWeaponPickup
p4466
sg44
VPT5M1.2568247S
p4467
sa(dp4468
g47
I4096745987
sg48
(dp4469
g50
VALGPredevonator
p4470
sg52
Nssg53
(lp4471
I2758383128
asg41
VWeaponPickup
p4472
sg44
VPT5M1.2568247S
p4473
sa(dp4474
g41
VPlayerSpawn
p4475
sg48
(dp4476
g50
VALGPredevonator
p4477
sg52
Nssg44
VPT5M1.2568247S
p4478
sa(dp4479
g47
I313138863
sg48
(dp4480
g50
VTL StelluR
p4481
sg52
Nssg53
(lp4482
I1095363701
asg41
VWeaponPickup
p4483
sg44
VPT5M3.1898554S
p4484
sa(dp4485
g47
I4096745987
sg48
(dp4486
g50
VTL StelluR
p4487
sg52
Nssg53
(lp4488
I2758383128
asg41
VWeaponPickup
p4489
sg44
VPT5M3.1898554S
p4490
sa(dp4491
g41
VPlayerSpawn
p4492
sg48
(dp4493
g50
VTL StelluR
p4494
sg52
Nssg44
VPT5M3.1898554S
p4495
sa(dp4496
g47
I2492868984
sg48
(dp4497
g50
VTL Danoxide
p4498
sg52
Nssg53
(lp4499
I2758383128
asg41
VWeaponPickup
p4500
sg44
VPT5M4.4558244S
p4501
sa(dp4502
g47
I2492868984
sg41
VWeaponDrop
p4503
sg189
I0
sg53
(lp4504
I2758383128
asg44
VPT5M5.5898284S
p4505
sg192
I0
sg193
VP0DT0H0M0.9833S
p4506
sg48
(dp4507
g50
VTL Danoxide
p4508
sg52
Nssa(dp4509
g230
I2511447508
sg231
I00
sg232
I00
sg233
(dp4510
g50
VTL Eco HCS
p4511
sg52
Nssg236
(lp4512
I2758383128
asg238
I00
sg239
I01
sg240
I1
sg241
I0
sg242
I1
sg243
(dp4513
Vy
F-5.1135149999999996
sVx
F12.440962799999999
sVz
F0.2104047
ssg245
(dp4514
Vy
F-6.5552020000000004
sVx
F15.3526077
sVz
F0.00021982193000000001
ssg247
I00
sg248
(dp4515
g50
VALG RyaNoob
p4516
sg52
Nssg251
(lp4517
sg253
(lp4518
sg255
I01
sg44
VPT5M7.7558652S
p4519
sg41
VDeath
p4520
sg258
I1
sa(dp4521
g41
VMedal
p4522
sg48
(dp4523
g50
VTL Eco HCS
p4524
sg52
Nssg269
I3261908037
sg44
VPT5M7.7578685S
p4525
sa(dp4526
g47
I313138863
sg41
VWeaponDrop
p4527
sg189
I0
sg53
(lp4528
I1095363701
asg44
VPT5M7.7588623S
p4529
sg192
I0
sg193
VP0DT0H0M0.7500S
p4530
sg48
(dp4531
g50
VALG RyaNoob
p4532
sg52
Nssa(dp4533
g47
I424645655
sg41
VWeaponDrop
p4534
sg189
I15
sg53
(lp4535
I1327094800
asg44
VPT5M7.7588623S
p4536
sg192
I6
sg193
VP0DT0H0M8.2833S
p4537
sg48
(dp4538
g50
VALG RyaNoob
p4539
sg52
Nssa(dp4540
g47
I313138863
sg41
VWeaponDrop
p4541
sg189
I0
sg53
(lp4542
I1095363701
asg44
VPT5M13.337899S
p4543
sg192
I0
sg193
VP0DT0H0M1.4667S
p4544
sg48
(dp4545
g50
VTL Spartan HCS
p4546
sg52
Nssa(dp4547
g47
I2511447508
sg48
(dp4548
g50
VTL Spartan HCS
p4549
sg52
Nssg53
(lp4550
I2758383128
asg41
VWeaponPickup
p4551
sg44
VPT5M13.337899S
p4552
sa(dp4553
g230
I4096745987
sg231
I00
sg232
I00
sg233
(dp4554
g50
VALG ContrA HCS
p4555
sg52
Nssg236
(lp4556
I2758383128
asg238
I00
sg239
I01
sg240
I1
sg241
I0
sg242
I1
sg243
(dp4557
Vy
F3.9530885200000001
sVx
F3.611656
sVz
F0.72769206799999997
ssg245
(dp4558
Vy
F4.3021390000000004
sVx
F8.8509729999999998
sVz
F0.10190492900000001
ssg247
I00
sg248
(dp4559
g50
VTL Eco HCS
p4560
sg52
Nssg251
(lp4561
sg253
(lp4562
sg255
I01
sg44
VPT5M15.4228919S
p4563
sg41
VDeath
p4564
sg258
I1
sa(dp4565
g41
VImpulse
p4566
sg48
(dp4567
g50
VALG ContrA HCS
p4568
sg52
Nssg263
I3174430457
sg44
VPT5M15.424925S
p4569
sa(dp4570
g41
VMedal
p4571
sg48
(dp4572
g50
VALG ContrA HCS
p4573
sg52
Nssg269
I3653057799
sg44
VPT5M15.4259149S
p4574
sa(dp4575
g47
I2511447508
sg41
VWeaponDrop
p4576
sg189
I10
sg53
(lp4577
I2758383128
asg44
VPT5M15.4269168S
p4578
sg192
I6
sg193
VP0DT0H0M16.9000S
p4579
sg48
(dp4580
g50
VTL Eco HCS
p4581
sg52
Nssa(dp4582
g47
I4096745987
sg41
VWeaponDrop
p4583
sg189
I0
sg53
(lp4584
I2758383128
asg44
VPT5M15.4269168S
p4585
sg192
I0
sg193
VP0DT0H0M0.4333S
p4586
sg48
(dp4587
g50
VTL Eco HCS
p4588
sg52
Nssa(dp4589
g47
I313138863
sg48
(dp4590
g50
VALG RyaNoob
p4591
sg52
Nssg53
(lp4592
I1095363701
asg41
VWeaponPickup
p4593
sg44
VPT5M15.7729167S
p4594
sa(dp4595
g47
I4096745987
sg48
(dp4596
g50
VALG RyaNoob
p4597
sg52
Nssg53
(lp4598
I2758383128
asg41
VWeaponPickup
p4599
sg44
VPT5M15.7729167S
p4600
sa(dp4601
g41
VPlayerSpawn
p4602
sg48
(dp4603
g50
VALG RyaNoob
p4604
sg52
Nssg44
VPT5M15.7729167S
p4605
sa(dp4606
g230
I2511447508
sg231
I00
sg232
I00
sg233
(dp4607
g50
VTL Spartan HCS
p4608
sg52
Nssg236
(lp4609
I2758383128
asg238
I00
sg239
I01
sg240
I1
sg241
I0
sg242
I1
sg243
(dp4610
Vy
F-3.2672560000000002
sVx
F-10.635097500000001
sVz
F4.7385692599999997e-06
ssg245
(dp4611
Vy
F0.25449067399999997
sVx
F-13.174552
sVz
F4.7385692599999997e-06
ssg247
I00
sg248
(dp4612
g50
VALGPredevonator
p4613
sg52
Nssg251
(lp4614
sg253
(lp4615
(dp4616
g50
VTL StelluR
p4617
sg52
Nsasg255
I01
sg44
VPT5M18.172911S
p4618
sg41
VDeath
p4619
sg258
I1
sa(dp4620
g41
VMedal
p4621
sg48
(dp4622
g50
VTL Spartan HCS
p4623
sg52
Nssg269
I3261908037
sg44
VPT5M18.1739356S
p4624
sa(dp4625
g47
I313138863
sg41
VWeaponDrop
p4626
sg189
I0
sg53
(lp4627
I1095363701
asg44
VPT5M18.1739356S
p4628
sg192
I0
sg193
VP0DT0H0M0.6500S
p4629
sg48
(dp4630
g50
VALGPredevonator
p4631
sg52
Nssa(dp4632
g47
I4096745987
sg41
VWeaponDrop
p4633
sg189
I3
sg53
(lp4634
I2758383128
asg44
VPT5M18.1739356S
p4635
sg192
I0
sg193
VP0DT0H0M16.2667S
p4636
sg48
(dp4637
g50
VALGPredevonator
p4638
sg52
Nssa(dp4639
g47
I4096745987
sg41
VWeaponDrop
p4640
sg189
I0
sg53
(lp4641
I2758383128
asg44
VPT5M19.0379335S
p4642
sg192
I0
sg193
VP0DT0H0M2.7000S
p4643
sg48
(dp4644
g50
VALG RyaNoob
p4645
sg52
Nssa(dp4646
g47
I2511447508
sg48
(dp4647
g50
VALG RyaNoob
p4648
sg52
Nssg53
(lp4649
I2758383128
asg41
VWeaponPickup
p4650
sg44
VPT5M19.0379335S
p4651
sa(dp4652
g41
VMedal
p4653
sg48
(dp4654
g50
VALG ContrA HCS
p4655
sg52
Nssg269
I3400287617
sg44
VPT5M19.4379378S
p4656
sa(dp4657
g47
I313138863
sg41
VWeaponDrop
p4658
sg189
I0
sg53
(lp4659
I1095363701
asg44
VPT5M20.8549273S
p4660
sg192
I0
sg193
VP0DT0H0M1.2333S
p4661
sg48
(dp4662
g50
VTL Danoxide
p4663
sg52
Nssa(dp4664
g47
I2133511419
sg48
(dp4665
g50
VTL Danoxide
p4666
sg52
Nssg53
(lp4667
I2758383128
asg41
VWeaponPickup
p4668
sg44
VPT5M20.8549273S
p4669
sa(dp4670
g47
I313138863
sg48
(dp4671
g50
VTL Eco HCS
p4672
sg52
Nssg53
(lp4673
I1095363701
asg41
VWeaponPickup
p4674
sg44
VPT5M23.4389444S
p4675
sa(dp4676
g47
I4096745987
sg48
(dp4677
g50
VTL Eco HCS
p4678
sg52
Nssg53
(lp4679
I2758383128
asg41
VWeaponPickup
p4680
sg44
VPT5M23.439966S
p4681
sa(dp4682
g41
VPlayerSpawn
p4683
sg48
(dp4684
g50
VTL Eco HCS
p4685
sg52
Nssg44
VPT5M23.439966S
p4686
sa(dp4687
g230
I2133511419
sg231
I00
sg232
I00
sg233
(dp4688
g50
VTL Danoxide
p4689
sg52
Nssg236
(lp4690
I2758383128
asg238
I00
sg239
I01
sg240
I1
sg241
I0
sg242
I1
sg243
(dp4691
Vy
F6.0197479999999999
sVx
F1.21276629
sVz
F-4.0024519999999997e-05
ssg245
(dp4692
Vy
F4.0275749999999997
sVx
F3.6479618500000002
sVz
F-0.000116065145
ssg247
I00
sg248
(dp4693
g50
VALG ContrA HCS
p4694
sg52
Nssg251
(lp4695
sg253
(lp4696
sg255
I00
sg44
VPT5M25.055955S
p4697
sg41
VDeath
p4698
sg258
I1
sa(dp4699
g47
I313138863
sg41
VWeaponDrop
p4700
sg189
I0
sg53
(lp4701
I1095363701
asg44
VPT5M25.0569765S
p4702
sg192
I0
sg193
VP0DT0H0M1.3667S
p4703
sg48
(dp4704
g50
VALG ContrA HCS
p4705
sg52
Nssa(dp4706
g47
I4096745987
sg41
VWeaponDrop
p4707
sg189
I16
sg53
(lp4708
I2758383128
asg44
VPT5M25.0569765S
p4709
sg192
I9
sg193
VP0DT0H0M31.4667S
p4710
sg48
(dp4711
g50
VALG ContrA HCS
p4712
sg52
Nssa(dp4713
g47
I313138863
sg41
VWeaponDrop
p4714
sg189
I0
sg53
(lp4715
I1095363701
asg44
VPT5M25.703984S
p4716
sg192
I0
sg193
VP0DT0H0M0.7667S
p4717
sg48
(dp4718
g50
VTL Eco HCS
p4719
sg52
Nssa(dp4720
g47
I2511447508
sg48
(dp4721
g50
VTL Eco HCS
p4722
sg52
Nssg53
(lp4723
I2758383128
asg41
VWeaponPickup
p4724
sg44
VPT5M25.7049591S
p4725
sa(dp4726
g47
I4096745987
sg41
VWeaponDrop
p4727
sg189
I0
sg53
(lp4728
I2758383128
asg44
VPT5M25.8209831S
p4729
sg192
I0
sg193
VP0DT0H0M20.6667S
p4730
sg48
(dp4731
g50
VTL Danoxide
p4732
sg52
Nssa(dp4733
g47
I424645655
sg48
(dp4734
g50
VTL Danoxide
p4735
sg52
Nssg53
(lp4736
I1327094800
asg41
VWeaponPickup
p4737
sg44
VPT5M25.8209831S
p4738
sa(dp4739
g47
I313138863
sg48
(dp4740
g50
VALGPredevonator
p4741
sg52
Nssg53
(lp4742
I1095363701
asg41
VWeaponPickup
p4743
sg44
VPT5M26.1889624S
p4744
sa(dp4745
g47
I4096745987
sg48
(dp4746
g50
VALGPredevonator
p4747
sg52
Nssg53
(lp4748
I2758383128
asg41
VWeaponPickup
p4749
sg44
VPT5M26.1899867S
p4750
sa(dp4751
g41
VPlayerSpawn
p4752
sg48
(dp4753
g50
VALGPredevonator
p4754
sg52
Nssg44
VPT5M26.1899867S
p4755
sa(dp4756
g230
I4096745987
sg231
I00
sg232
I00
sg233
(dp4757
g50
VALG Heinz HCS
p4758
sg52
Nssg236
(lp4759
I2758383128
asg238
I00
sg239
I01
sg240
I1
sg241
I0
sg242
I1
sg243
(dp4760
Vy
F-8.0540679999999991
sVx
F15.484647799999999
sVz
F0.28429305599999999
ssg245
(dp4761
Vy
F-11.6922493
sVx
F4.5311164899999996
sVz
F0.30889648199999997
ssg247
I00
sg248
(dp4762
g50
VTL Spartan HCS
p4763
sg52
Nssg251
(lp4764
sg253
(lp4765
sg255
I01
sg44
VPT5M27.8889719S
p4766
sg41
VDeath
p4767
sg258
I1
sa(dp4768
g41
VMedal
p4769
sg48
(dp4770
g50
VALG Heinz HCS
p4771
sg52
Nssg269
I3261908037
sg44
VPT5M27.8909968S
p4772
sa(dp4773
g47
I2511447508
sg41
VWeaponDrop
p4774
sg189
I3
sg53
(lp4775
I2758383128
asg44
VPT5M27.8919914S
p4776
sg192
I2
sg193
VP0DT0H0M5.7000S
p4777
sg48
(dp4778
g50
VTL Spartan HCS
p4779
sg52
Nssa(dp4780
g47
I424645655
sg41
VWeaponDrop
p4781
sg189
I39
sg53
(lp4782
I1327094800
asg44
VPT5M27.8919914S
p4783
sg192
I23
sg193
VP0DT0H0M28.8000S
p4784
sg48
(dp4785
g50
VTL Spartan HCS
p4786
sg52
Nssa(dp4787
g230
I2511447508
sg231
I00
sg232
I00
sg233
(dp4788
g50
VALG RyaNoob
p4789
sg52
Nssg236
(lp4790
I2758383128
asg238
I00
sg239
I01
sg240
I1
sg241
I0
sg242
I1
sg243
(dp4791
Vy
F14.0689192
sVx
F1.10866368
sVz
F0.59987040000000003
ssg245
(dp4792
Vy
F15.1801262
sVx
F-1.94630408
sVz
F0.59999999999999998
ssg247
I00
sg248
(dp4793
g50
VTL StelluR
p4794
sg52
Nssg251
(lp4795
sg253
(lp4796
(dp4797
g50
VALGPredevonator
p4798
sg52
Nsasg255
I00
sg44
VPT5M31.5050233S
p4799
sg41
VDeath
p4800
sg258
I1
sa(dp4801
g47
I313138863
sg41
VWeaponDrop
p4802
sg189
I0
sg53
(lp4803
I1095363701
asg44
VPT5M31.508053S
p4804
sg192
I0
sg193
VP0DT0H0M1.6667S
p4805
sg48
(dp4806
g50
VTL StelluR
p4807
sg52
Nssa(dp4808
g47
I4096745987
sg41
VWeaponDrop
p4809
sg189
I11
sg53
(lp4810
I2758383128
asg44
VPT5M31.508053S
p4811
sg192
I6
sg193
VP0DT0H0M26.6500S
p4812
sg48
(dp4813
g50
VTL StelluR
p4814
sg52
Nssa(dp4815
g47
I313138863
sg48
(dp4816
g50
VALG ContrA HCS
p4817
sg52
Nssg53
(lp4818
I1095363701
asg41
VWeaponPickup
p4819
sg44
VPT5M33.0720127S
p4820
sa(dp4821
g47
I4096745987
sg48
(dp4822
g50
VALG ContrA HCS
p4823
sg52
Nssg53
(lp4824
I2758383128
asg41
VWeaponPickup
p4825
sg44
VPT5M33.0720127S
p4826
sa(dp4827
g41
VPlayerSpawn
p4828
sg48
(dp4829
g50
VALG ContrA HCS
p4830
sg52
Nssg44
VPT5M33.0730323S
p4831
sa(dp4832
g230
I2511447508
sg231
I00
sg232
I00
sg233
(dp4833
g50
VALG RyaNoob
p4834
sg52
Nssg236
(lp4835
I2758383128
asg238
I00
sg239
I01
sg240
I1
sg241
I0
sg242
I1
sg243
(dp4836
Vy
F10.7118111
sVx
F1.32112944
sVz
F0.81264394500000003
ssg245
(dp4837
Vy
F10.0992508
sVx
F9.9460300000000004
sVz
F-0.00012740492799999999
ssg247
I00
sg248
(dp4838
g50
VTL Danoxide
p4839
sg52
Nssg251
(lp4840
sg253
(lp4841
(dp4842
g50
VALGPredevonator
p4843
sg52
Nsasg255
I00
sg44
VPT5M33.5890121S
p4844
sg41
VDeath
p4845
sg258
I1
sa(dp4846
g41
VMedal
p4847
sg48
(dp4848
g50
VALG RyaNoob
p4849
sg52
Nssg269
I164204247
sg44
VPT5M33.5900291S
p4850
sa(dp4851
g41
VMedal
p4852
sg48
(dp4853
g50
VALG RyaNoob
p4854
sg52
Nssg269
I2078758684
sg44
VPT5M33.5900291S
p4855
sa(dp4856
g47
I2133511419
sg41
VWeaponDrop
p4857
sg189
I35
sg53
(lp4858
I2758383128
asg44
VPT5M33.5910298S
p4859
sg192
I13
sg193
VP0DT0H0M7.6667S
p4860
sg48
(dp4861
g50
VTL Danoxide
p4862
sg52
Nssa(dp4863
g47
I424645655
sg41
VWeaponDrop
p4864
sg189
I6
sg53
(lp4865
I1327094800
asg44
VPT5M33.5910298S
p4866
sg192
I2
sg193
VP0DT0H0M4.7333S
p4867
sg48
(dp4868
g50
VTL Danoxide
p4869
sg52
Nssa(dp4870
g47
I313138863
sg48
(dp4871
g50
VTL Spartan HCS
p4872
sg52
Nssg53
(lp4873
I1095363701
asg41
VWeaponPickup
p4874
sg44
VPT5M35.9060479S
p4875
sa(dp4876
g47
I4096745987
sg48
(dp4877
g50
VTL Spartan HCS
p4878
sg52
Nssg53
(lp4879
I2758383128
asg41
VWeaponPickup
p4880
sg44
VPT5M35.9060479S
p4881
sa(dp4882
g41
VPlayerSpawn
p4883
sg48
(dp4884
g50
VTL Spartan HCS
p4885
sg52
Nssg44
VPT5M35.9060479S
p4886
sa(dp4887
g47
I313138863
sg48
(dp4888
g50
VTL StelluR
p4889
sg52
Nssg53
(lp4890
I1095363701
asg41
VWeaponPickup
p4891
sg44
VPT5M39.522071S
p4892
sa(dp4893
g47
I4096745987
sg48
(dp4894
g50
VTL StelluR
p4895
sg52
Nssg53
(lp4896
I2758383128
asg41
VWeaponPickup
p4897
sg44
VPT5M39.522071S
p4898
sa(dp4899
g41
VPlayerSpawn
p4900
sg48
(dp4901
g50
VTL StelluR
p4902
sg52
Nssg44
VPT5M39.5230714S
p4903
sa(dp4904
g47
I313138863
sg48
(dp4905
g50
VTL Danoxide
p4906
sg52
Nssg53
(lp4907
I1095363701
asg41
VWeaponPickup
p4908
sg44
VPT5M41.6050603S
p4909
sa(dp4910
g47
I4096745987
sg48
(dp4911
g50
VTL Danoxide
p4912
sg52
Nssg53
(lp4913
I2758383128
asg41
VWeaponPickup
p4914
sg44
VPT5M41.6060846S
p4915
sa(dp4916
g41
VPlayerSpawn
p4917
sg48
(dp4918
g50
VTL Danoxide
p4919
sg52
Nssg44
VPT5M41.6060846S
p4920
sa(dp4921
g230
I2511447508
sg231
I00
sg232
I00
sg233
(dp4922
g50
VTL Eco HCS
p4923
sg52
Nssg236
(lp4924
I2758383128
asg238
I00
sg239
I01
sg240
I1
sg241
I0
sg242
I1
sg243
(dp4925
Vy
F-6.0201234799999996
sVx
F-7.4136552800000004
sVz
F0.84855443200000003
ssg245
(dp4926
Vy
F-5.6290173499999998
sVx
F-2.2390415699999999
sVz
F0.102115154
ssg247
I00
sg248
(dp4927
g50
VALG ContrA HCS
p4928
sg52
Nssg251
(lp4929
sg253
(lp4930
sg255
I01
sg44
VPT5M45.1050815S
p4931
sg41
VDeath
p4932
sg258
I1
sa(dp4933
g41
VMedal
p4934
sg48
(dp4935
g50
VTL Eco HCS
p4936
sg52
Nssg269
I3261908037
sg44
VPT5M45.1071068S
p4937
sa(dp4938
g47
I313138863
sg41
VWeaponDrop
p4939
sg189
I0
sg53
(lp4940
I1095363701
asg44
VPT5M45.1081024S
p4941
sg192
I0
sg193
VP0DT0H0M0.7000S
p4942
sg48
(dp4943
g50
VALG ContrA HCS
p4944
sg52
Nssa(dp4945
g47
I4096745987
sg41
VWeaponDrop
p4946
sg189
I5
sg53
(lp4947
I2758383128
asg44
VPT5M45.1081024S
p4948
sg192
I4
sg193
VP0DT0H0M11.3333S
p4949
sg48
(dp4950
g50
VALG ContrA HCS
p4951
sg52
Nssa(dp4952
g230
I313138863
sg231
I00
sg232
I01
sg233
(dp4953
g50
VTL StelluR
p4954
sg52
Nssg236
(lp4955
I1095363701
asg238
I00
sg239
I00
sg240
I1
sg241
I0
sg242
I1
sg243
(dp4956
Vy
F0.25564452999999998
sVx
F-10.5945015
sVz
F3.4581935399999999
ssg245
(dp4957
Vy
F-0.034856345499999997
sVx
F-10.402813
sVz
F3.6518302
ssg247
I00
sg248
(dp4958
g50
VALG RyaNoob
p4959
sg52
Nssg251
(lp4960
sg253
(lp4961
(dp4962
g50
VTL Spartan HCS
p4963
sg52
Nsasg255
I00
sg44
VPT5M48.7381043S
p4964
sg41
VDeath
p4965
sg258
I1
sa(dp4966
g41
VMedal
p4967
sg48
(dp4968
g50
VTL StelluR
p4969
sg52
Nssg269
I2287626681
sg44
VPT5M48.7391294S
p4970
sa(dp4971
g47
I2511447508
sg41
VWeaponDrop
p4972
sg189
I11
sg53
(lp4973
I2758383128
asg44
VPT5M48.7401295S
p4974
sg192
I5
sg193
VP0DT0H0M29.7000S
p4975
sg48
(dp4976
g50
VALG RyaNoob
p4977
sg52
Nssa(dp4978
g47
I313138863
sg41
VWeaponDrop
p4979
sg189
I0
sg53
(lp4980
I1095363701
asg44
VPT5M48.7401295S
p4981
sg192
I0
sg193
VP0DT0H0M0.5667S
p4982
sg48
(dp4983
g50
VALG RyaNoob
p4984
sg52
Nssa(dp4985
g47
I4096745987
sg41
VWeaponDrop
p4986
sg189
I2
sg53
(lp4987
I2758383128
asg44
VPT5M50.2701172S
p4988
sg192
I0
sg193
VP0DT0H0M8.3000S
p4989
sg48
(dp4990
g50
VTL Danoxide
p4991
sg52
Nssa(dp4992
g47
I2511447508
sg48
(dp4993
g50
VTL Danoxide
p4994
sg52
Nssg53
(lp4995
I2758383128
asg41
VWeaponPickup
p4996
sg44
VPT5M50.2701172S
p4997
sa(dp4998
g230
I4096745987
sg231
I00
sg232
I00
sg233
(dp4999
g50
VALGPredevonator
p5000
sg52
Nssg236
(lp5001
I2758383128
asg238
I00
sg239
I01
sg240
I1
sg241
I0
sg242
I1
sg243
(dp5002
Vy
F-0.51148736500000003
sVx
F1.2602311399999999
sVz
F3.4970927199999999
ssg245
(dp5003
Vy
F-1.509223
sVx
F-8.5816479999999995
sVz
F3.3701465100000001
ssg247
I00
sg248
(dp5004
g50
VTL StelluR
p5005
sg52
Nssg251
(lp5006
sg253
(lp5007
sg255
I01
sg44
VPT5M51.4881219S
p5008
sg41
VDeath
p5009
sg258
I1
sa(dp5010
g41
VMedal
p5011
sg48
(dp5012
g50
VALGPredevonator
p5013
sg52
Nssg269
I3261908037
sg44
VPT5M51.4901468S
p5014
sa(dp5015
g47
I313138863
sg41
VWeaponDrop
p5016
sg189
I20
sg53
(lp5017
I1095363701
asg44
VPT5M51.4911486S
p5018
sg192
I5
sg193
VP0DT0H0M5.9000S
p5019
sg48
(dp5020
g50
VTL StelluR
p5021
sg52
Nssa(dp5022
g47
I313138863
sg41
VWeaponDrop
p5023
sg189
I0
sg53
(lp5024
I1095363701
asg44
VPT5M51.4911486S
p5025
sg192
I0
sg193
VP0DT0S
p5026
sg48
(dp5027
g50
VTL StelluR
p5028
sg52
Nssa(dp5029
g47
I4096745987
sg41
VWeaponDrop
p5030
sg189
I4
sg53
(lp5031
I2758383128
asg44
VPT5M51.4911486S
p5032
sg192
I1
sg193
VP0DT0H0M6.0667S
p5033
sg48
(dp5034
g50
VTL StelluR
p5035
sg52
Nssa(dp5036
g47
I313138863
sg48
(dp5037
g50
VALG ContrA HCS
p5038
sg52
Nssg53
(lp5039
I1095363701
asg41
VWeaponPickup
p5040
sg44
VPT5M53.1221582S
p5041
sa(dp5042
g47
I4096745987
sg48
(dp5043
g50
VALG ContrA HCS
p5044
sg52
Nssg53
(lp5045
I2758383128
asg41
VWeaponPickup
p5046
sg44
VPT5M53.1221582S
p5047
sa(dp5048
g41
VPlayerSpawn
p5049
sg48
(dp5050
g50
VALG ContrA HCS
p5051
sg52
Nssg44
VPT5M53.1221582S
p5052
sa(dp5053
g47
I313138863
sg48
(dp5054
g50
VALG RyaNoob
p5055
sg52
Nssg53
(lp5056
I1095363701
asg41
VWeaponPickup
p5057
sg44
VPT5M56.7551821S
p5058
sa(dp5059
g47
I4096745987
sg48
(dp5060
g50
VALG RyaNoob
p5061
sg52
Nssg53
(lp5062
I2758383128
asg41
VWeaponPickup
p5063
sg44
VPT5M56.7551821S
p5064
sa(dp5065
g41
VPlayerSpawn
p5066
sg48
(dp5067
g50
VALG RyaNoob
p5068
sg52
Nssg44
VPT5M56.7551821S
p5069
sa(dp5070
g47
I313138863
sg41
VWeaponDrop
p5071
sg189
I2
sg53
(lp5072
I1095363701
asg44
VPT5M58.6871694S
p5073
sg192
I0
sg193
VP0DT0H0M1.3000S
p5074
sg48
(dp5075
g50
VALG ContrA HCS
p5076
sg52
Nssa(dp5077
g47
I424645655
sg48
(dp5078
g50
VALG ContrA HCS
p5079
sg52
Nssg53
(lp5080
I1327094800
asg41
VWeaponPickup
p5081
sg44
VPT5M58.6871694S
p5082
sa(dp5083
g47
I313138863
sg48
(dp5084
g50
VTL StelluR
p5085
sg52
Nssg53
(lp5086
I1095363701
asg41
VWeaponPickup
p5087
sg44
VPT5M59.505198S
p5088
sa(dp5089
g47
I4096745987
sg48
(dp5090
g50
VTL StelluR
p5091
sg52
Nssg53
(lp5092
I2758383128
asg41
VWeaponPickup
p5093
sg44
VPT5M59.505198S
p5094
sa(dp5095
g41
VPlayerSpawn
p5096
sg48
(dp5097
g50
VTL StelluR
p5098
sg52
Nssg44
VPT5M59.505198S
p5099
sa(dp5100
g230
I4096745987
sg231
I00
sg232
I00
sg233
(dp5101
g50
VALGPredevonator
p5102
sg52
Nssg236
(lp5103
I2758383128
asg238
I00
sg239
I01
sg240
I1
sg241
I0
sg242
I1
sg243
(dp5104
Vy
F-1.40669847
sVx
F-1.4363815799999999
sVz
F3.2791356999999999
ssg245
(dp5105
Vy
F-0.23804071500000001
sVx
F7.7665267
sVz
F2.8091556999999998
ssg247
I00
sg248
(dp5106
g50
VTL Eco HCS
p5107
sg52
Nssg251
(lp5108
sg253
(lp5109
sg255
I01
sg44
VPT5M59.9371772S
p5110
sg41
VDeath
p5111
sg258
I1
sa(dp5112
g41
VMedal
p5113
sg48
(dp5114
g50
VALGPredevonator
p5115
sg52
Nssg269
I3261908037
sg44
VPT5M59.939204S
p5116
sa(dp5117
g47
I2511447508
sg41
VWeaponDrop
p5118
sg189
I14
sg53
(lp5119
I2758383128
asg44
VPT5M59.9401962S
p5120
sg192
I8
sg193
VP0DT0H0M34.2333S
p5121
sg48
(dp5122
g50
VTL Eco HCS
p5123
sg52
Nssa(dp5124
g47
I4096745987
sg41
VWeaponDrop
p5125
sg189
I0
sg53
(lp5126
I2758383128
asg44
VPT5M59.9401962S
p5127
sg192
I0
sg193
VP0DT0H0M1.5000S
p5128
sg48
(dp5129
g50
VTL Eco HCS
p5130
sg52
Nssa(dp5131
g230
I2511447508
sg231
I00
sg232
I01
sg233
(dp5132
g50
VTL Danoxide
p5133
sg52
Nssg236
(lp5134
I2758383128
asg238
I00
sg239
I00
sg240
I1
sg241
I0
sg242
I1
sg243
(dp5135
Vy
F-5.485036
sVx
F17.302427300000002
sVz
F0.78796790000000005
ssg245
(dp5136
Vy
F-5.1068134299999999
sVx
F17.2230816
sVz
F0.86484910000000004
ssg247
I00
sg248
(dp5137
g50
VALG RyaNoob
p5138
sg52
Nssg251
(lp5139
sg253
(lp5140
sg255
I00
sg44
VPT6M2.3211922S
p5141
sg41
VDeath
p5142
sg258
I1
sa(dp5143
g41
VMedal
p5144
sg48
(dp5145
g50
VTL Danoxide
p5146
sg52
Nssg269
I2287626681
sg44
VPT6M2.3222147S
p5147
sa(dp5148
g47
I4096745987
sg41
VWeaponDrop
p5149
sg189
I0
sg53
(lp5150
I2758383128
asg44
VPT6M2.3222147S
p5151
sg192
I0
sg193
VP0DT0H0M4.8333S
p5152
sg48
(dp5153
g50
VALG RyaNoob
p5154
sg52
Nssa(dp5155
g47
I313138863
sg41
VWeaponDrop
p5156
sg189
I0
sg53
(lp5157
I1095363701
asg44
VPT6M2.3232301S
p5158
sg192
I0
sg193
VP0DT0H0M0.7333S
p5159
sg48
(dp5160
g50
VALG RyaNoob
p5161
sg52
Nssa(dp5162
g230
I424645655
sg231
I00
sg232
I00
sg233
(dp5163
g50
VALG ContrA HCS
p5164
sg52
Nssg236
(lp5165
I1327094800
asg238
I00
sg239
I01
sg240
I1
sg241
I0
sg242
I1
sg243
(dp5166
Vy
F-1.03403139
sVx
F10.7442408
sVz
F4.7385692599999997e-06
ssg245
(dp5167
Vy
F-6.0927996599999998
sVx
F15.1650753
sVz
F0.36416006099999998
ssg247
I00
sg248
(dp5168
g50
VTL Danoxide
p5169
sg52
Nssg251
(lp5170
sg253
(lp5171
(dp5172
g50
VALG RyaNoob
p5173
sg52
Nsa(dp5174
g50
VALGPredevonator
p5175
sg52
Nsasg255
I01
sg44
VPT6M3.1381987S
p5176
sg41
VDeath
p5177
sg258
I1
sa(dp5178
g41
VMedal
p5179
sg48
(dp5180
g50
VALG ContrA HCS
p5181
sg52
Nssg269
I3261908037
sg44
VPT6M3.1392216S
p5182
sa(dp5183
g47
I313138863
sg41
VWeaponDrop
p5184
sg189
I0
sg53
(lp5185
I1095363701
asg44
VPT6M3.1392216S
p5186
sg192
I0
sg193
VP0DT0H0M0.3667S
p5187
sg48
(dp5188
g50
VTL Danoxide
p5189
sg52
Nssa(dp5190
g47
I2511447508
sg41
VWeaponDrop
p5191
sg189
I4
sg53
(lp5192
I2758383128
asg44
VPT6M3.1392216S
p5193
sg192
I3
sg193
VP0DT0H0M12.8667S
p5194
sg48
(dp5195
g50
VTL Danoxide
p5196
sg52
Nssa(dp5197
g47
I2511447508
sg41
VWeaponDrop
p5198
sg189
I0
sg53
(lp5199
I2758383128
asg44
VPT6M3.1392216S
p5200
sg192
I0
sg193
VP0DT0S
p5201
sg48
(dp5202
g50
VTL Danoxide
p5203
sg52
Nssa(dp5204
g47
I313138863
sg48
(dp5205
g50
VTL Eco HCS
p5206
sg52
Nssg53
(lp5207
I1095363701
asg41
VWeaponPickup
p5208
sg44
VPT6M7.9552568S
p5209
sa(dp5210
g47
I4096745987
sg48
(dp5211
g50
VTL Eco HCS
p5212
sg52
Nssg53
(lp5213
I2758383128
asg41
VWeaponPickup
p5214
sg44
VPT6M7.9552568S
p5215
sa(dp5216
g41
VPlayerSpawn
p5217
sg48
(dp5218
g50
VTL Eco HCS
p5219
sg52
Nssg44
VPT6M7.9552568S
p5220
sa(dp5221
g47
I2244200496
sg48
(dp5222
g50
VALG Heinz HCS
p5223
sg52
Nssg53
(lp5224
I2758383128
asg41
VWeaponPickup
p5225
sg44
VPT6M9.3532364S
p5226
sa(dp5227
g41
VImpulse
p5228
sg48
(dp5229
g50
VALG Heinz HCS
p5230
sg52
Nssg263
I4191318012
sg44
VPT6M9.3542376S
p5231
sa(dp5232
g41
VImpulse
p5233
sg48
(dp5234
g50
VALG Heinz HCS
p5235
sg52
Nssg263
I1039658009
sg44
VPT6M9.3542376S
p5236
sa(dp5237
g47
I313138863
sg48
(dp5238
g50
VALG RyaNoob
p5239
sg52
Nssg53
(lp5240
I1095363701
asg41
VWeaponPickup
p5241
sg44
VPT6M10.3422689S
p5242
sa(dp5243
g47
I4096745987
sg48
(dp5244
g50
VALG RyaNoob
p5245
sg52
Nssg53
(lp5246
I2758383128
asg41
VWeaponPickup
p5247
sg44
VPT6M10.3422689S
p5248
sa(dp5249
g41
VPlayerSpawn
p5250
sg48
(dp5251
g50
VALG RyaNoob
p5252
sg52
Nssg44
VPT6M10.3422689S
p5253
sa(dp5254
g47
I2244200496
sg41
VWeaponDrop
p5255
sg189
I0
sg53
(lp5256
I2758383128
asg44
VPT6M10.8862496S
p5257
sg192
I0
sg193
VP0DT0H0M1.3833S
p5258
sg48
(dp5259
g50
VALG Heinz HCS
p5260
sg52
Nssa(dp5261
g41
VImpulse
p5262
sg48
(dp5263
g50
VALG Heinz HCS
p5264
sg52
Nssg263
I3435524855
sg44
VPT6M10.8872478S
p5265
sa(dp5266
g47
I313138863
sg48
(dp5267
g50
VTL Danoxide
p5268
sg52
Nssg53
(lp5269
I1095363701
asg41
VWeaponPickup
p5270
sg44
VPT6M11.1542701S
p5271
sa(dp5272
g47
I4096745987
sg48
(dp5273
g50
VTL Danoxide
p5274
sg52
Nssg53
(lp5275
I2758383128
asg41
VWeaponPickup
p5276
sg44
VPT6M11.1542701S
p5277
sa(dp5278
g41
VPlayerSpawn
p5279
sg48
(dp5280
g50
VTL Danoxide
p5281
sg52
Nssg44
VPT6M11.1542701S
p5282
sa(dp5283
g47
I2244200496
sg48
(dp5284
g50
VALG Heinz HCS
p5285
sg52
Nssg53
(lp5286
I2758383128
asg41
VWeaponPickup
p5287
sg44
VPT6M12.4362773S
p5288
sa(dp5289
g41
VImpulse
p5290
sg48
(dp5291
g50
VALG Heinz HCS
p5292
sg52
Nssg263
I4191318012
sg44
VPT6M12.4372572S
p5293
sa(dp5294
g230
I4096745987
sg231
I00
sg232
I00
sg233
(dp5295
g50
VTL Eco HCS
p5296
sg52
Nssg236
(lp5297
I2758383128
asg238
I00
sg239
I01
sg240
I1
sg241
I0
sg242
I1
sg243
(dp5298
Vy
F-11.649026900000001
sVx
F-10.6912441
sVz
F0.600078
ssg245
(dp5299
Vy
F-11.1908665
sVx
F2.5620243500000002
sVz
F0.79382850000000005
ssg247
I00
sg248
(dp5300
g50
VALG ContrA HCS
p5301
sg52
Nssg251
(lp5302
sg253
(lp5303
(dp5304
g50
VTL StelluR
p5305
sg52
Nsasg255
I01
sg44
VPT6M12.7262593S
p5306
sg41
VDeath
p5307
sg258
I1
sa(dp5308
g41
VMedal
p5309
sg48
(dp5310
g50
VTL Eco HCS
p5311
sg52
Nssg269
I3261908037
sg44
VPT6M12.7282827S
p5312
sa(dp5313
g47
I424645655
sg41
VWeaponDrop
p5314
sg189
I3
sg53
(lp5315
I1327094800
asg44
VPT6M12.7282827S
p5316
sg192
I2
sg193
VP0DT0H0M14.0333S
p5317
sg48
(dp5318
g50
VALG ContrA HCS
p5319
sg52
Nssa(dp5320
g47
I4096745987
sg41
VWeaponDrop
p5321
sg189
I0
sg53
(lp5322
I2758383128
asg44
VPT6M12.7282827S
p5323
sg192
I0
sg193
VP0DT0H0M4.2667S
p5324
sg48
(dp5325
g50
VALG ContrA HCS
p5326
sg52
Nssa(dp5327
g47
I2244200496
sg41
VWeaponDrop
p5328
sg189
I0
sg53
(lp5329
I2758383128
asg44
VPT6M12.9362782S
p5330
sg192
I0
sg193
VP0DT0H0M0.3500S
p5331
sg48
(dp5332
g50
VALG Heinz HCS
p5333
sg52
Nssa(dp5334
g41
VImpulse
p5335
sg48
(dp5336
g50
VALG Heinz HCS
p5337
sg52
Nssg263
I3435524855
sg44
VPT6M12.9372605S
p5338
sa(dp5339
g230
I4096745987
sg231
I00
sg232
I00
sg233
(dp5340
g50
VTL StelluR
p5341
sg52
Nssg236
(lp5342
I2758383128
asg238
I00
sg239
I01
sg240
I1
sg241
I0
sg242
I1
sg243
(dp5343
Vy
F-17.459713000000001
sVx
F-1.6178318300000001
sVz
F1.58219409
ssg245
(dp5344
Vy
F-2.7997619999999999
sVx
F-6.7350289999999999
sVz
F0.45738035399999999
ssg247
I00
sg248
(dp5345
g50
VALG Heinz HCS
p5346
sg52
Nssg251
(lp5347
sg253
(lp5348
(dp5349
g50
VTL Spartan HCS
p5350
sg52
Nsasg255
I00
sg44
VPT6M13.4042643S
p5351
sg41
VDeath
p5352
sg258
I1
sa(dp5353
g41
VMedal
p5354
sg48
(dp5355
g50
VTL StelluR
p5356
sg52
Nssg269
I164204247
sg44
VPT6M13.4052892S
p5357
sa(dp5358
g47
I313138863
sg41
VWeaponDrop
p5359
sg189
I9
sg53
(lp5360
I1095363701
asg44
VPT6M13.4052892S
p5361
sg192
I4
sg193
VP0DT0H0M6.5333S
p5362
sg48
(dp5363
g50
VALG Heinz HCS
p5364
sg52
Nssa(dp5365
g47
I4096745987
sg41
VWeaponDrop
p5366
sg189
I15
sg53
(lp5367
I2758383128
asg44
VPT6M13.4052892S
p5368
sg192
I8
sg193
VP0DT0H1M12.6667S
p5369
sg48
(dp5370
g50
VALG Heinz HCS
p5371
sg52
Nssa(dp5372
g47
I313138863
sg41
VWeaponDrop
p5373
sg189
I0
sg53
(lp5374
I1095363701
asg44
VPT6M13.5032642S
p5375
sg192
I0
sg193
VP0DT0H0M0.8167S
p5376
sg48
(dp5377
g50
VTL Danoxide
p5378
sg52
Nssa(dp5379
g47
I2511447508
sg48
(dp5380
g50
VTL Danoxide
p5381
sg52
Nssg53
(lp5382
I2758383128
asg41
VWeaponPickup
p5383
sg44
VPT6M13.5032642S
p5384
sa(dp5385
g47
I313138863
sg41
VWeaponDrop
p5386
sg189
I0
sg53
(lp5387
I1095363701
asg44
VPT6M17.7523135S
p5388
sg192
I0
sg193
VP0DT0H0M1.4167S
p5389
sg48
(dp5390
g50
VALG RyaNoob
p5391
sg52
Nssa(dp5392
g47
I3682788176
sg48
(dp5393
g50
VALG RyaNoob
p5394
sg52
Nssg53
(lp5395
I2758383128
asg41
VWeaponPickupPad
p5396
sg44
VPT6M17.7523135S
p5397
sa(dp5398
g47
I3682788176
sg48
(dp5399
g50
VALG RyaNoob
p5400
sg52
Nssg53
(lp5401
I2758383128
asg41
VWeaponPickup
p5402
sg44
VPT6M17.7533231S
p5403
sa(dp5404
g41
VMedal
p5405
sg48
(dp5406
g50
VTL Spartan HCS
p5407
sg52
Nssg269
I2380717523
sg44
VPT6M20.4193307S
p5408
sa(dp5409
g41
VImpulse
p5410
sg48
(dp5411
g50
VTL Spartan HCS
p5412
sg52
Nssg263
I1063951891
sg44
VPT6M20.4193307S
p5413
sa(dp5414
g47
I313138863
sg48
(dp5415
g50
VALG ContrA HCS
p5416
sg52
Nssg53
(lp5417
I1095363701
asg41
VWeaponPickup
p5418
sg44
VPT6M20.7373117S
p5419
sa(dp5420
g47
I4096745987
sg48
(dp5421
g50
VALG ContrA HCS
p5422
sg52
Nssg53
(lp5423
I2758383128
asg41
VWeaponPickup
p5424
sg44
VPT6M20.7383584S
p5425
sa(dp5426
g41
VPlayerSpawn
p5427
sg48
(dp5428
g50
VALG ContrA HCS
p5429
sg52
Nssg44
VPT6M20.7383584S
p5430
sa(dp5431
g47
I313138863
sg48
(dp5432
g50
VALG Heinz HCS
p5433
sg52
Nssg53
(lp5434
I1095363701
asg41
VWeaponPickup
p5435
sg44
VPT6M21.4203153S
p5436
sa(dp5437
g47
I4096745987
sg48
(dp5438
g50
VALG Heinz HCS
p5439
sg52
Nssg53
(lp5440
I2758383128
asg41
VWeaponPickup
p5441
sg44
VPT6M21.4213402S
p5442
sa(dp5443
g41
VPlayerSpawn
p5444
sg48
(dp5445
g50
VALG Heinz HCS
p5446
sg52
Nssg44
VPT6M21.4213402S
p5447
sa(dp5448
g47
I4096745987
sg41
VWeaponDrop
p5449
sg189
I0
sg53
(lp5450
I2758383128
asg44
VPT6M22.7693418S
p5451
sg192
I0
sg193
VP0DT0H0M1.7333S
p5452
sg48
(dp5453
g50
VALG ContrA HCS
p5454
sg52
Nssa(dp5455
g47
I424645655
sg48
(dp5456
g50
VALG ContrA HCS
p5457
sg52
Nssg53
(lp5458
I1327094800
asg41
VWeaponPickup
p5459
sg44
VPT6M22.7693418S
p5460
sa(dp5461
g230
I4096745987
sg231
I00
sg232
I00
sg233
(dp5462
g50
VTL StelluR
p5463
sg52
Nssg236
(lp5464
I2758383128
asg238
I00
sg239
I01
sg240
I1
sg241
I0
sg242
I1
sg243
(dp5465
Vy
F-1.1985026599999999
sVx
F8.9785184900000008
sVz
F-0.59999939999999996
ssg245
(dp5466
Vy
F4.1153974499999997
sVx
F7.51594973
sVz
F0.85574490000000003
ssg247
I00
sg248
(dp5467
g50
VALG RyaNoob
p5468
sg52
Nssg251
(lp5469
sg253
(lp5470
(dp5471
g50
VTL Danoxide
p5472
sg52
Nsasg255
I00
sg44
VPT6M25.9373433S
p5473
sg41
VDeath
p5474
sg258
I1
sa(dp5475
g47
I3682788176
sg41
VWeaponDrop
p5476
sg189
I0
sg53
(lp5477
I2758383128
asg44
VPT6M25.9393735S
p5478
sg192
I0
sg193
VP0DT0H0M6.6833S
p5479
sg48
(dp5480
g50
VALG RyaNoob
p5481
sg52
Nssa(dp5482
g47
I4096745987
sg41
VWeaponDrop
p5483
sg189
I2
sg53
(lp5484
I2758383128
asg44
VPT6M25.9393735S
p5485
sg192
I0
sg193
VP0DT0H0M7.5000S
p5486
sg48
(dp5487
g50
VALG RyaNoob
p5488
sg52
Nssa(dp5489
g41
VMedal
p5490
sg48
(dp5491
g50
VTL Eco HCS
p5492
sg52
Nssg269
I3400287617
sg44
VPT6M27.1193515S
p5493
sa(dp5494
g230
I313138863
sg231
I00
sg232
I00
sg233
(dp5495
g50
VALG ContrA HCS
p5496
sg52
Nssg236
(lp5497
I1095363701
asg238
I00
sg239
I01
sg240
I1
sg241
I0
sg242
I1
sg243
(dp5498
Vy
F11.420414900000001
sVx
F10.788437800000001
sVz
F0.60020744800000003
ssg245
(dp5499
Vy
F15.424417500000001
sVx
F7.1475900000000001
sVz
F0.62675749999999997
ssg247
I00
sg248
(dp5500
g50
VTL Danoxide
p5501
sg52
Nssg251
(lp5502
sg253
(lp5503
sg255
I00
sg44
VPT6M27.5703539S
p5504
sg41
VDeath
p5505
sg258
I1
sa(dp5506
g47
I4096745987
sg41
VWeaponDrop
p5507
sg189
I8
sg53
(lp5508
I2758383128
asg44
VPT6M27.5723791S
p5509
sg192
I3
sg193
VP0DT0H0M13.7833S
p5510
sg48
(dp5511
g50
VTL Danoxide
p5512
sg52
Nssa(dp5513
g47
I2511447508
sg41
VWeaponDrop
p5514
sg189
I0
sg53
(lp5515
I2758383128
asg44
VPT6M27.5733767S
p5516
sg192
I0
sg193
VP0DT0H0M1.8167S
p5517
sg48
(dp5518
g50
VTL Danoxide
p5519
sg52
Nssa(dp5520
g47
I313138863
sg41
VWeaponDrop
p5521
sg189
I0
sg53
(lp5522
I1095363701
asg44
VPT6M28.4193597S
p5523
sg192
I0
sg193
VP0DT0H0M3.4667S
p5524
sg48
(dp5525
g50
VTL StelluR
p5526
sg52
Nssa(dp5527
g47
I3682788176
sg48
(dp5528
g50
VTL StelluR
p5529
sg52
Nssg53
(lp5530
I2758383128
asg41
VWeaponPickup
p5531
sg44
VPT6M28.4193597S
p5532
sa(dp5533
g230
I3682788176
sg231
I00
sg232
I00
sg233
(dp5534
g50
VTL StelluR
p5535
sg52
Nssg236
(lp5536
I2758383128
asg238
I00
sg239
I01
sg240
I1
sg241
I0
sg242
I1
sg243
(dp5537
Vy
F1.7187483299999999
sVx
F8.3050499999999996
sVz
F0.80515780000000003
ssg245
(dp5538
Vy
F4.9458546600000002
sVx
F5.7850910000000004
sVz
F-0.00014439225199999999
ssg247
I00
sg248
(dp5539
g50
VALG Heinz HCS
p5540
sg52
Nssg251
(lp5541
sg253
(lp5542
sg255
I00
sg44
VPT6M30.0203697S
p5543
sg41
VDeath
p5544
sg258
I1
sa(dp5545
g41
VMedal
p5546
sg48
(dp5547
g50
VTL StelluR
p5548
sg52
Nssg269
I2078758684
sg44
VPT6M30.0213917S
p5549
sa(dp5550
g47
I313138863
sg41
VWeaponDrop
p5551
sg189
I6
sg53
(lp5552
I1095363701
asg44
VPT6M30.0213917S
p5553
sg192
I2
sg193
VP0DT0H0M3.4000S
p5554
sg48
(dp5555
g50
VALG Heinz HCS
p5556
sg52
Nssa(dp5557
g47
I4096745987
sg41
VWeaponDrop
p5558
sg189
I0
sg53
(lp5559
I2758383128
asg44
VPT6M30.0213917S
p5560
sg192
I0
sg193
VP0DT0H0M5.2000S
p5561
sg48
(dp5562
g50
VALG Heinz HCS
p5563
sg52
Nssa(dp5564
g230
I313138863
sg231
I00
sg232
I00
sg233
(dp5565
g50
VALGPredevonator
p5566
sg52
Nssg236
(lp5567
I1095363701
asg238
I00
sg239
I01
sg240
I1
sg241
I0
sg242
I1
sg243
(dp5568
Vy
F0.013765959100000001
sVx
F-5.8334869999999999
sVz
F3.3521416199999998
ssg245
(dp5569
Vy
F-1.2766131199999999
sVx
F-1.7600262200000001
sVz
F3.2791356999999999
ssg247
I00
sg248
(dp5570
g50
VTL Spartan HCS
p5571
sg52
Nssg251
(lp5572
sg253
(lp5573
sg255
I00
sg44
VPT6M32.1703847S
p5574
sg41
VDeath
p5575
sg258
I1
sa(dp5576
g47
I313138863
sg41
VWeaponDrop
p5577
sg189
I15
sg53
(lp5578
I1095363701
asg44
VPT6M32.1724082S
p5579
sg192
I5
sg193
VP0DT0H0M14.1167S
p5580
sg48
(dp5581
g50
VTL Spartan HCS
p5582
sg52
Nssa(dp5583
g47
I4096745987
sg41
VWeaponDrop
p5584
sg189
I14
sg53
(lp5585
I2758383128
asg44
VPT6M32.1724082S
p5586
sg192
I9
sg193
VP0DT0H0M42.1500S
p5587
sg48
(dp5588
g50
VTL Spartan HCS
p5589
sg52
Nssa(dp5590
g47
I313138863
sg48
(dp5591
g50
VALG RyaNoob
p5592
sg52
Nssg53
(lp5593
I1095363701
asg41
VWeaponPickup
p5594
sg44
VPT6M33.9533956S
p5595
sa(dp5596
g47
I4096745987
sg48
(dp5597
g50
VALG RyaNoob
p5598
sg52
Nssg53
(lp5599
I2758383128
asg41
VWeaponPickup
p5600
sg44
VPT6M33.954417S
p5601
sa(dp5602
g41
VPlayerSpawn
p5603
sg48
(dp5604
g50
VALG RyaNoob
p5605
sg52
Nssg44
VPT6M33.954417S
p5606
sa(dp5607
g47
I313138863
sg48
(dp5608
g50
VTL Danoxide
p5609
sg52
Nssg53
(lp5610
I1095363701
asg41
VWeaponPickup
p5611
sg44
VPT6M35.5864062S
p5612
sa(dp5613
g47
I4096745987
sg48
(dp5614
g50
VTL Danoxide
p5615
sg52
Nssg53
(lp5616
I2758383128
asg41
VWeaponPickup
p5617
sg44
VPT6M35.5874294S
p5618
sa(dp5619
g41
VPlayerSpawn
p5620
sg48
(dp5621
g50
VTL Danoxide
p5622
sg52
Nssg44
VPT6M35.5874294S
p5623
sa(dp5624
g47
I4096745987
sg41
VWeaponDrop
p5625
sg189
I0
sg53
(lp5626
I2758383128
asg44
VPT6M37.8354218S
p5627
sg192
I0
sg193
VP0DT0H0M1.7500S
p5628
sg48
(dp5629
g50
VTL Danoxide
p5630
sg52
Nssa(dp5631
g47
I424645655
sg48
(dp5632
g50
VTL Danoxide
p5633
sg52
Nssg53
(lp5634
I1327094800
asg41
VWeaponPickup
p5635
sg44
VPT6M37.8354218S
p5636
sa(dp5637
g47
I313138863
sg48
(dp5638
g50
VALG Heinz HCS
p5639
sg52
Nssg53
(lp5640
I1095363701
asg41
VWeaponPickup
p5641
sg44
VPT6M38.037061S
p5642
sa(dp5643
g47
I4096745987
sg48
(dp5644
g50
VALG Heinz HCS
p5645
sg52
Nssg53
(lp5646
I2758383128
asg41
VWeaponPickup
p5647
sg44
VPT6M38.0374442S
p5648
sa(dp5649
g41
VPlayerSpawn
p5650
sg48
(dp5651
g50
VALG Heinz HCS
p5652
sg52
Nssg44
VPT6M38.0374442S
p5653
sa(dp5654
g47
I313138863
sg48
(dp5655
g50
VTL Spartan HCS
p5656
sg52
Nssg53
(lp5657
I1095363701
asg41
VWeaponPickup
p5658
sg44
VPT6M40.1864357S
p5659
sa(dp5660
g47
I4096745987
sg48
(dp5661
g50
VTL Spartan HCS
p5662
sg52
Nssg53
(lp5663
I2758383128
asg41
VWeaponPickup
p5664
sg44
VPT6M40.1864357S
p5665
sa(dp5666
g41
VPlayerSpawn
p5667
sg48
(dp5668
g50
VTL Spartan HCS
p5669
sg52
Nssg44
VPT6M40.1874612S
p5670
sa(dp5671
g47
I4096745987
sg41
VWeaponDrop
p5672
sg189
I0
sg53
(lp5673
I2758383128
asg44
VPT6M42.8014756S
p5674
sg192
I0
sg193
VP0DT0H0M4.3000S
p5675
sg48
(dp5676
g50
VALG Heinz HCS
p5677
sg52
Nssa(dp5678
g47
I2511447508
sg48
(dp5679
g50
VALG Heinz HCS
p5680
sg52
Nssg53
(lp5681
I2758383128
asg41
VWeaponPickup
p5682
sg44
VPT6M42.8024774S
p5683
sa(dp5684
g230
I3682788176
sg231
I00
sg232
I00
sg233
(dp5685
g50
VTL StelluR
p5686
sg52
Nssg236
(lp5687
I2758383128
asg238
I00
sg239
I01
sg240
I1
sg241
I0
sg242
I1
sg243
(dp5688
Vy
F-3.3166769999999999
sVx
F13.107903500000001
sVz
F0.71966949999999996
ssg245
(dp5689
Vy
F-2.4814020000000001
sVx
F11.967696200000001
sVz
F0.35820281500000001
ssg247
I00
sg248
(dp5690
g50
VALG ContrA HCS
p5691
sg52
Nssg251
(lp5692
sg253
(lp5693
sg255
I00
sg44
VPT6M43.0534552S
p5694
sg41
VDeath
p5695
sg258
I1
sa(dp5696
g47
I313138863
sg41
VWeaponDrop
p5697
sg189
I28
sg53
(lp5698
I1095363701
asg44
VPT6M43.0544766S
p5699
sg192
I15
sg193
VP0DT0H0M4.7333S
p5700
sg48
(dp5701
g50
VALG ContrA HCS
p5702
sg52
Nssa(dp5703
g47
I424645655
sg41
VWeaponDrop
p5704
sg189
I24
sg53
(lp5705
I1327094800
asg44
VPT6M43.0544766S
p5706
sg192
I8
sg193
VP0DT0H0M15.8500S
p5707
sg48
(dp5708
g50
VALG ContrA HCS
p5709
sg52
Nssa(dp5710
g230
I313138863
sg231
I00
sg232
I00
sg233
(dp5711
g50
VALG RyaNoob
p5712
sg52
Nssg236
(lp5713
I1095363701
asg238
I00
sg239
I01
sg240
I1
sg241
I0
sg242
I1
sg243
(dp5714
Vy
F-7.0945634799999997
sVx
F17.4429245
sVz
F0.061648130000000002
ssg245
(dp5715
Vy
F-4.9374294299999999
sVx
F15.788273800000001
sVz
F0.00081676244700000001
ssg247
I00
sg248
(dp5716
g50
VTL StelluR
p5717
sg52
Nssg251
(lp5718
sg253
(lp5719
(dp5720
g50
VALG ContrA HCS
p5721
sg52
Nsasg255
I00
sg44
VPT6M44.8704655S
p5722
sg41
VDeath
p5723
sg258
I1
sa(dp5724
g47
I3682788176
sg41
VWeaponDrop
p5725
sg189
I3
sg53
(lp5726
I2758383128
asg44
VPT6M44.8724865S
p5727
sg192
I2
sg193
VP0DT0H0M13.9833S
p5728
sg48
(dp5729
g50
VTL StelluR
p5730
sg52
Nssa(dp5731
g47
I3682788176
sg41
VWeaponDrop
p5732
sg189
I0
sg53
(lp5733
I2758383128
asg44
VPT6M44.8724865S
p5734
sg192
I0
sg193
VP0DT0S
p5735
sg48
(dp5736
g50
VTL StelluR
p5737
sg52
Nssa(dp5738
g47
I4096745987
sg41
VWeaponDrop
p5739
sg189
I15
sg53
(lp5740
I2758383128
asg44
VPT6M44.8724865S
p5741
sg192
I4
sg193
VP0DT0H0M27.9167S
p5742
sg48
(dp5743
g50
VTL StelluR
p5744
sg52
Nssa(dp5745
g47
I313138863
sg41
VWeaponDrop
p5746
sg189
I14
sg53
(lp5747
I1095363701
asg44
VPT6M45.7184954S
p5748
sg192
I8
sg193
VP0DT0H0M5.2333S
p5749
sg48
(dp5750
g50
VALG RyaNoob
p5751
sg52
Nssa(dp5752
g47
I3682788176
sg48
(dp5753
g50
VALG RyaNoob
p5754
sg52
Nssg53
(lp5755
I2758383128
asg41
VWeaponPickup
p5756
sg44
VPT6M45.7184954S
p5757
sa(dp5758
g41
VMedal
p5759
sg48
(dp5760
g50
VALGPredevonator
p5761
sg52
Nssg269
I3400287617
sg44
VPT6M47.2685155S
p5762
sa(dp5763
g47
I313138863
sg48
(dp5764
g50
VALG ContrA HCS
p5765
sg52
Nssg53
(lp5766
I1095363701
asg41
VWeaponPickup
p5767
sg44
VPT6M51.0695268S
p5768
sa(dp5769
g47
I4096745987
sg48
(dp5770
g50
VALG ContrA HCS
p5771
sg52
Nssg53
(lp5772
I2758383128
asg41
VWeaponPickup
p5773
sg44
VPT6M51.0695268S
p5774
sa(dp5775
g41
VPlayerSpawn
p5776
sg48
(dp5777
g50
VALG ContrA HCS
p5778
sg52
Nssg44
VPT6M51.070531S
p5779
sa(dp5780
g230
I4096745987
sg231
I00
sg232
I00
sg233
(dp5781
g50
VTL Eco HCS
p5782
sg52
Nssg236
(lp5783
I2758383128
asg238
I00
sg239
I01
sg240
I1
sg241
I0
sg242
I1
sg243
(dp5784
Vy
F-3.1368209999999999
sVx
F0.84253615100000001
sVz
F3.2791359999999998
ssg245
(dp5785
Vy
F-0.727908
sVx
F7.6810479999999997
sVz
F-0.59999950000000002
ssg247
I00
sg248
(dp5786
g50
VALGPredevonator
p5787
sg52
Nssg251
(lp5788
sg253
(lp5789
(dp5790
g50
VTL Danoxide
p5791
sg52
Nsasg255
I01
sg44
VPT6M52.1525114S
p5792
sg41
VDeath
p5793
sg258
I1
sa(dp5794
g41
VMedal
p5795
sg48
(dp5796
g50
VTL Eco HCS
p5797
sg52
Nssg269
I3261908037
sg44
VPT6M52.1545365S
p5798
sa(dp5799
g47
I313138863
sg41
VWeaponDrop
p5800
sg189
I36
sg53
(lp5801
I1095363701
asg44
VPT6M52.1545365S
p5802
sg192
I14
sg193
VP0DT0H0M18.6000S
p5803
sg48
(dp5804
g50
VALGPredevonator
p5805
sg52
Nssa(dp5806
g47
I4096745987
sg41
VWeaponDrop
p5807
sg189
I45
sg53
(lp5808
I2758383128
asg44
VPT6M52.1545365S
p5809
sg192
I27
sg193
VP0DT0H1M7.3667S
p5810
sg48
(dp5811
g50
VALGPredevonator
p5812
sg52
Nssa(dp5813
g47
I313138863
sg48
(dp5814
g50
VTL StelluR
p5815
sg52
Nssg53
(lp5816
I1095363701
asg41
VWeaponPickup
p5817
sg44
VPT6M52.8865268S
p5818
sa(dp5819
g47
I4096745987
sg48
(dp5820
g50
VTL StelluR
p5821
sg52
Nssg53
(lp5822
I2758383128
asg41
VWeaponPickup
p5823
sg44
VPT6M52.8877203S
p5824
sa(dp5825
g41
VPlayerSpawn
p5826
sg48
(dp5827
g50
VTL StelluR
p5828
sg52
Nssg44
VPT6M52.8877203S
p5829
sa(dp5830
g47
I4096745987
sg41
VWeaponDrop
p5831
sg189
I0
sg53
(lp5832
I2758383128
asg44
VPT6M53.318519S
p5833
sg192
I0
sg193
VP0DT0H0M1.7667S
p5834
sg48
(dp5835
g50
VALG ContrA HCS
p5836
sg52
Nssa(dp5837
g47
I424645655
sg48
(dp5838
g50
VALG ContrA HCS
p5839
sg52
Nssg53
(lp5840
I1327094800
asg41
VWeaponPickup
p5841
sg44
VPT6M53.318519S
p5842
sa(dp5843
g230
I424645655
sg231
I00
sg232
I00
sg233
(dp5844
g50
VALG ContrA HCS
p5845
sg52
Nssg236
(lp5846
I1327094800
asg238
I00
sg239
I01
sg240
I1
sg241
I0
sg242
I1
sg243
(dp5847
Vy
F4.5478459999999998
sVx
F7.1311297400000004
sVz
F-0.00030818581599999998
ssg245
(dp5848
Vy
F-3.3009605400000002
sVx
F8.2462230000000005
sVz
F0.043148666600000003
ssg247
I00
sg248
(dp5849
g50
VTL Danoxide
p5850
sg52
Nssg251
(lp5851
sg253
(lp5852
(dp5853
g50
VALG RyaNoob
p5854
sg52
Nsasg255
I01
sg44
VPT6M55.2027081S
p5855
sg41
VDeath
p5856
sg258
I1
sa(dp5857
g41
VMedal
p5858
sg48
(dp5859
g50
VALG ContrA HCS
p5860
sg52
Nssg269
I3261908037
sg44
VPT6M55.204564S
p5861
sa(dp5862
g47
I313138863
sg41
VWeaponDrop
p5863
sg189
I0
sg53
(lp5864
I1095363701
asg44
VPT6M55.2055332S
p5865
sg192
I0
sg193
VP0DT0H0M0.5000S
p5866
sg48
(dp5867
g50
VTL Danoxide
p5868
sg52
Nssa(dp5869
g47
I424645655
sg41
VWeaponDrop
p5870
sg189
I15
sg53
(lp5871
I1327094800
asg44
VPT6M55.2055332S
p5872
sg192
I5
sg193
VP0DT0H0M17.3667S
p5873
sg48
(dp5874
g50
VTL Danoxide
p5875
sg52
Nssa(dp5876
g47
I313138863
sg48
(dp5877
g50
VALGPredevonator
p5878
sg52
Nssg53
(lp5879
I1095363701
asg41
VWeaponPickup
p5880
sg44
VPT7M0.1695842S
p5881
sa(dp5882
g47
I4096745987
sg48
(dp5883
g50
VALGPredevonator
p5884
sg52
Nssg53
(lp5885
I2758383128
asg41
VWeaponPickup
p5886
sg44
VPT7M0.1695842S
p5887
sa(dp5888
g41
VPlayerSpawn
p5889
sg48
(dp5890
g50
VALGPredevonator
p5891
sg52
Nssg44
VPT7M0.1695842S
p5892
sa(dp5893
g47
I2244200496
sg48
(dp5894
g50
VTL Spartan HCS
p5895
sg52
Nssg53
(lp5896
I2758383128
asg41
VWeaponPickup
p5897
sg44
VPT7M0.4185633S
p5898
sa(dp5899
g41
VImpulse
p5900
sg48
(dp5901
g50
VTL Spartan HCS
p5902
sg52
Nssg263
I4191318012
sg44
VPT7M0.4195875S
p5903
sa(dp5904
g41
VImpulse
p5905
sg48
(dp5906
g50
VTL Spartan HCS
p5907
sg52
Nssg263
I1039658009
sg44
VPT7M0.4205839S
p5908
sa(dp5909
g230
I4106030681
sg231
I00
sg232
I00
sg233
(dp5910
g50
VTL Spartan HCS
p5911
sg52
Nssg236
(lp5912
sg238
I00
sg239
I01
sg240
I1
sg241
I0
sg242
I1
sg243
(dp5913
Vy
F11.768549999999999
sVx
F10.2552471
sVz
F0.60021513699999995
ssg245
(dp5914
Vy
F0.98908989999999997
sVx
F5.5702819999999997
sVz
F-0.59999939999999996
ssg247
I00
sg248
(dp5915
g50
VALG ContrA HCS
p5916
sg52
Nssg251
(lp5917
sg253
(lp5918
sg255
I00
sg44
VPT7M1.1195694S
p5919
sg41
VDeath
p5920
sg258
I1
sa(dp5921
g41
VImpulse
p5922
sg48
(dp5923
g50
VTL Spartan HCS
p5924
sg52
Nssg263
I3514632335
sg44
VPT7M1.1205708S
p5925
sa(dp5926
g41
VMedal
p5927
sg48
(dp5928
g50
VTL Spartan HCS
p5929
sg52
Nssg269
I2299864088
sg44
VPT7M1.1205708S
p5930
sa(dp5931
g47
I313138863
sg41
VWeaponDrop
p5932
sg189
I0
sg53
(lp5933
I1095363701
asg44
VPT7M1.1215919S
p5934
sg192
I0
sg193
VP0DT0H0M0.4833S
p5935
sg48
(dp5936
g50
VALG ContrA HCS
p5937
sg52
Nssa(dp5938
g47
I424645655
sg41
VWeaponDrop
p5939
sg189
I6
sg53
(lp5940
I1327094800
asg44
VPT7M1.1215919S
p5941
sg192
I2
sg193
VP0DT0H0M7.8000S
p5942
sg48
(dp5943
g50
VALG ContrA HCS
p5944
sg52
Nssa(dp5945
g47
I2244200496
sg41
VWeaponDrop
p5946
sg189
I0
sg53
(lp5947
I2758383128
asg44
VPT7M2.9176353S
p5948
sg192
I0
sg193
VP0DT0H0M2.3167S
p5949
sg48
(dp5950
g50
VTL Spartan HCS
p5951
sg52
Nssa(dp5952
g41
VImpulse
p5953
sg48
(dp5954
g50
VTL Spartan HCS
p5955
sg52
Nssg263
I3435524855
sg44
VPT7M2.9186035S
p5956
sa(dp5957
g47
I313138863
sg48
(dp5958
g50
VTL Danoxide
p5959
sg52
Nssg53
(lp5960
I1095363701
asg41
VWeaponPickup
p5961
sg44
VPT7M3.2355827S
p5962
sa(dp5963
g47
I4096745987
sg48
(dp5964
g50
VTL Danoxide
p5965
sg52
Nssg53
(lp5966
I2758383128
asg41
VWeaponPickup
p5967
sg44
VPT7M3.2366075S
p5968
sa(dp5969
g41
VPlayerSpawn
p5970
sg48
(dp5971
g50
VTL Danoxide
p5972
sg52
Nssg44
VPT7M3.2366075S
p5973
sa(dp5974
g47
I2244200496
sg48
(dp5975
g50
VTL Spartan HCS
p5976
sg52
Nssg53
(lp5977
I2758383128
asg41
VWeaponPickup
p5978
sg44
VPT7M4.3015896S
p5979
sa(dp5980
g41
VImpulse
p5981
sg48
(dp5982
g50
VTL Spartan HCS
p5983
sg52
Nssg263
I4191318012
sg44
VPT7M4.3015896S
p5984
sa(dp5985
g47
I2244200496
sg41
VWeaponDrop
p5986
sg189
I0
sg53
(lp5987
I2758383128
asg44
VPT7M5.150618S
p5988
sg192
I0
sg193
VP0DT0H0M0.6833S
p5989
sg48
(dp5990
g50
VTL Spartan HCS
p5991
sg52
Nssa(dp5992
g41
VImpulse
p5993
sg48
(dp5994
g50
VTL Spartan HCS
p5995
sg52
Nssg263
I3435524855
sg44
VPT7M5.1515948S
p5996
sa(dp5997
g230
I3682788176
sg231
I00
sg232
I00
sg233
(dp5998
g50
VALG RyaNoob
p5999
sg52
Nssg236
(lp6000
I2758383128
asg238
I00
sg239
I01
sg240
I1
sg241
I0
sg242
I1
sg243
(dp6001
Vy
F11.9440966
sVx
F7.7868389999999996
sVz
F0.6002073
ssg245
(dp6002
Vy
F-3.16222286
sVx
F6.3697749999999997
sVz
F0.044243782799999999
ssg247
I00
sg248
(dp6003
g50
VTL StelluR
p6004
sg52
Nssg251
(lp6005
sg253
(lp6006
sg255
I00
sg44
VPT7M8.9856185S
p6007
sg41
VDeath
p6008
sg258
I1
sa(dp6009
g41
VMedal
p6010
sg48
(dp6011
g50
VALG RyaNoob
p6012
sg52
Nssg269
I164204247
sg44
VPT7M8.9866738S
p6013
sa(dp6014
g47
I4096745987
sg41
VWeaponDrop
p6015
sg189
I6
sg53
(lp6016
I2758383128
asg44
VPT7M8.9866738S
p6017
sg192
I1
sg193
VP0DT0H0M15.1500S
p6018
sg48
(dp6019
g50
VTL StelluR
p6020
sg52
Nssa(dp6021
g47
I313138863
sg41
VWeaponDrop
p6022
sg189
I0
sg53
(lp6023
I1095363701
asg44
VPT7M8.9876385S
p6024
sg192
I0
sg193
VP0DT0H0M0.9333S
p6025
sg48
(dp6026
g50
VTL StelluR
p6027
sg52
Nssa(dp6028
g230
I2511447508
sg231
I00
sg232
I00
sg233
(dp6029
g50
VALG Heinz HCS
p6030
sg52
Nssg236
(lp6031
I2758383128
asg238
I00
sg239
I01
sg240
I1
sg241
I0
sg242
I1
sg243
(dp6032
Vy
F4.3952026399999999
sVx
F4.0869999999999997
sVz
F-9.5218419999999998e-05
ssg245
(dp6033
Vy
F8.2779030000000002
sVx
F12.129367800000001
sVz
F0.35243493300000001
ssg247
I00
sg248
(dp6034
g50
VTL Eco HCS
p6035
sg52
Nssg251
(lp6036
sg253
(lp6037
(dp6038
g50
VALGPredevonator
p6039
sg52
Nsasg255
I00
sg44
VPT7M9.0186194S
p6040
sg41
VDeath
p6041
sg258
I1
sa(dp6042
g41
VMedal
p6043
sg48
(dp6044
g50
VALG RyaNoob
p6045
sg52
Nssg269
I824733727
sg44
VPT7M9.01962S
p6046
sa(dp6047
g47
I313138863
sg41
VWeaponDrop
p6048
sg189
I8
sg53
(lp6049
I1095363701
asg44
VPT7M9.0206391S
p6050
sg192
I0
sg193
VP0DT0H0M7.0667S
p6051
sg48
(dp6052
g50
VTL Eco HCS
p6053
sg52
Nssa(dp6054
g47
I4096745987
sg41
VWeaponDrop
p6055
sg189
I30
sg53
(lp6056
I2758383128
asg44
VPT7M9.0206391S
p6057
sg192
I14
sg193
VP0DT0H0M53.9833S
p6058
sg48
(dp6059
g50
VTL Eco HCS
p6060
sg52
Nssa(dp6061
g47
I313138863
sg48
(dp6062
g50
VALG ContrA HCS
p6063
sg52
Nssg53
(lp6064
I1095363701
asg41
VWeaponPickup
p6065
sg44
VPT7M9.1526419S
p6066
sa(dp6067
g47
I4096745987
sg48
(dp6068
g50
VALG ContrA HCS
p6069
sg52
Nssg53
(lp6070
I2758383128
asg41
VWeaponPickup
p6071
sg44
VPT7M9.1526419S
p6072
sa(dp6073
g41
VPlayerSpawn
p6074
sg48
(dp6075
g50
VALG ContrA HCS
p6076
sg52
Nssg44
VPT7M9.1526419S
p6077
sa(dp6078
g47
I2492868984
sg48
(dp6079
g50
VTL Danoxide
p6080
sg52
Nssg53
(lp6081
I2758383128
asg41
VWeaponPickup
p6082
sg44
VPT7M12.9186448S
p6083
sa(dp6084
g230
I2511447508
sg231
I00
sg232
I00
sg233
(dp6085
g50
VALG Heinz HCS
p6086
sg52
Nssg236
(lp6087
I2758383128
asg238
I00
sg239
I01
sg240
I1
sg241
I0
sg242
I1
sg243
(dp6088
Vy
F7.6824370000000002
sVx
F8.1471520000000002
sVz
F0.43685829999999998
ssg245
(dp6089
Vy
F3.786063
sVx
F7.6668789999999998
sVz
F0.080483109999999997
ssg247
I00
sg248
(dp6090
g50
VTL Spartan HCS
p6091
sg52
Nssg251
(lp6092
sg253
(lp6093
(dp6094
g50
VALGPredevonator
p6095
sg52
Nsasg255
I01
sg44
VPT7M13.3196478S
p6096
sg41
VDeath
p6097
sg258
I1
sa(dp6098
g41
VMedal
p6099
sg48
(dp6100
g50
VALG Heinz HCS
p6101
sg52
Nssg269
I3261908037
sg44
VPT7M13.3206735S
p6102
sa(dp6103
g41
VMedal
p6104
sg48
(dp6105
g50
VALG Heinz HCS
p6106
sg52
Nssg269
I2078758684
sg44
VPT7M13.3206735S
p6107
sa(dp6108
g47
I313138863
sg41
VWeaponDrop
p6109
sg189
I18
sg53
(lp6110
I1095363701
asg44
VPT7M13.3206735S
p6111
sg192
I10
sg193
VP0DT0H0M11.7667S
p6112
sg48
(dp6113
g50
VTL Spartan HCS
p6114
sg52
Nssa(dp6115
g47
I4096745987
sg41
VWeaponDrop
p6116
sg189
I4
sg53
(lp6117
I2758383128
asg44
VPT7M13.3206735S
p6118
sg192
I3
sg193
VP0DT0H0M18.3500S
p6119
sg48
(dp6120
g50
VTL Spartan HCS
p6121
sg52
Nssa(dp6122
g47
I2492868984
sg41
VWeaponDrop
p6123
sg189
I0
sg53
(lp6124
I2758383128
asg44
VPT7M14.0526514S
p6125
sg192
I0
sg193
VP0DT0H0M0.9833S
p6126
sg48
(dp6127
g50
VTL Danoxide
p6128
sg52
Nssa(dp6129
g41
VMedal
p6130
sg48
(dp6131
g50
VALGPredevonator
p6132
sg52
Nssg269
I2380717523
sg44
VPT7M15.7006829S
p6133
sa(dp6134
g41
VImpulse
p6135
sg48
(dp6136
g50
VALGPredevonator
p6137
sg52
Nssg263
I1063951891
sg44
VPT7M15.7006829S
p6138
sa(dp6139
g47
I313138863
sg48
(dp6140
g50
VTL StelluR
p6141
sg52
Nssg53
(lp6142
I1095363701
asg41
VWeaponPickup
p6143
sg44
VPT7M17.002694S
p6144
sa(dp6145
g47
I4096745987
sg48
(dp6146
g50
VTL StelluR
p6147
sg52
Nssg53
(lp6148
I2758383128
asg41
VWeaponPickup
p6149
sg44
VPT7M17.002694S
p6150
sa(dp6151
g41
VPlayerSpawn
p6152
sg48
(dp6153
g50
VTL StelluR
p6154
sg52
Nssg44
VPT7M17.002694S
p6155
sa(dp6156
g47
I313138863
sg48
(dp6157
g50
VTL Eco HCS
p6158
sg52
Nssg53
(lp6159
I1095363701
asg41
VWeaponPickup
p6160
sg44
VPT7M17.0356941S
p6161
sa(dp6162
g47
I4096745987
sg48
(dp6163
g50
VTL Eco HCS
p6164
sg52
Nssg53
(lp6165
I2758383128
asg41
VWeaponPickup
p6166
sg44
VPT7M17.0356941S
p6167
sa(dp6168
g41
VPlayerSpawn
p6169
sg48
(dp6170
g50
VTL Eco HCS
p6171
sg52
Nssg44
VPT7M17.0356941S
p6172
sa(dp6173
g47
I313138863
sg48
(dp6174
g50
VTL Spartan HCS
p6175
sg52
Nssg53
(lp6176
I1095363701
asg41
VWeaponPickup
p6177
sg44
VPT7M21.3357234S
p6178
sa(dp6179
g47
I4096745987
sg48
(dp6180
g50
VTL Spartan HCS
p6181
sg52
Nssg53
(lp6182
I2758383128
asg41
VWeaponPickup
p6183
sg44
VPT7M21.3357234S
p6184
sa(dp6185
g41
VPlayerSpawn
p6186
sg48
(dp6187
g50
VTL Spartan HCS
p6188
sg52
Nssg44
VPT7M21.3357234S
p6189
sa(dp6190
g230
I313138863
sg231
I00
sg232
I00
sg233
(dp6191
g50
VTL Danoxide
p6192
sg52
Nssg236
(lp6193
I1095363701
asg238
I00
sg239
I01
sg240
I1
sg241
I0
sg242
I1
sg243
(dp6194
Vy
F2.8579479999999999
sVx
F-0.24276404100000001
sVz
F4.425357
ssg245
(dp6195
Vy
F-4.2009015099999996
sVx
F0.10099718000000001
sVz
F3.0560209999999999
ssg247
I00
sg248
(dp6196
g50
VALG RyaNoob
p6197
sg52
Nssg251
(lp6198
sg253
(lp6199
(dp6200
g50
VTL StelluR
p6201
sg52
Nsasg255
I00
sg44
VPT7M23.1517098S
p6202
sg41
VDeath
p6203
sg258
I1
sa(dp6204
g47
I3682788176
sg41
VWeaponDrop
p6205
sg189
I2
sg53
(lp6206
I2758383128
asg44
VPT7M23.1527334S
p6207
sg192
I2
sg193
VP0DT0H0M24.5167S
p6208
sg48
(dp6209
g50
VALG RyaNoob
p6210
sg52
Nssa(dp6211
g47
I3682788176
sg41
VWeaponDrop
p6212
sg189
I0
sg53
(lp6213
I2758383128
asg44
VPT7M23.1527334S
p6214
sg192
I0
sg193
VP0DT0S
p6215
sg48
(dp6216
g50
VALG RyaNoob
p6217
sg52
Nssa(dp6218
g47
I4096745987
sg41
VWeaponDrop
p6219
sg189
I7
sg53
(lp6220
I2758383128
asg44
VPT7M23.1527334S
p6221
sg192
I2
sg193
VP0DT0H0M19.4333S
p6222
sg48
(dp6223
g50
VALG RyaNoob
p6224
sg52
Nssa(dp6225
g47
I2244200496
sg48
(dp6226
g50
VALG ContrA HCS
p6227
sg52
Nssg53
(lp6228
I2758383128
asg41
VWeaponPickup
p6229
sg44
VPT7M24.7837462S
p6230
sa(dp6231
g41
VImpulse
p6232
sg48
(dp6233
g50
VALG ContrA HCS
p6234
sg52
Nssg263
I4191318012
sg44
VPT7M24.7847224S
p6235
sa(dp6236
g41
VImpulse
p6237
sg48
(dp6238
g50
VALG ContrA HCS
p6239
sg52
Nssg263
I1039658009
sg44
VPT7M24.7847224S
p6240
sa(dp6241
g230
I4096745987
sg231
I00
sg232
I00
sg233
(dp6242
g50
VTL Spartan HCS
p6243
sg52
Nssg236
(lp6244
I2758383128
asg238
I00
sg239
I01
sg240
I1
sg241
I0
sg242
I1
sg243
(dp6245
Vy
F-5.6155624399999997
sVx
F7.08978748
sVz
F-0.0017878711200000001
ssg245
(dp6246
Vy
F6.9836410000000004
sVx
F6.6625914599999998
sVz
F4.7385692599999997e-06
ssg247
I00
sg248
(dp6247
g50
VALG Heinz HCS
p6248
sg52
Nssg251
(lp6249
sg253
(lp6250
sg255
I01
sg44
VPT7M26.1027284S
p6251
sg41
VDeath
p6252
sg258
I1
sa(dp6253
g41
VImpulse
p6254
sg48
(dp6255
g50
VTL Spartan HCS
p6256
sg52
Nssg263
I2556889090
sg44
VPT7M26.1027284S
p6257
sa(dp6258
g41
VMedal
p6259
sg48
(dp6260
g50
VTL Spartan HCS
p6261
sg52
Nssg269
I2838259753
sg44
VPT7M26.1027284S
p6262
sa(dp6263
g41
VImpulse
p6264
sg48
(dp6265
g50
VTL Spartan HCS
p6266
sg52
Nssg263
I3174430457
sg44
VPT7M26.1047528S
p6267
sa(dp6268
g41
VMedal
p6269
sg48
(dp6270
g50
VTL Danoxide
p6271
sg52
Nssg269
I824733727
sg44
VPT7M26.1047528S
p6272
sa(dp6273
g41
VMedal
p6274
sg48
(dp6275
g50
VTL Spartan HCS
p6276
sg52
Nssg269
I3653057799
sg44
VPT7M26.1057521S
p6277
sa(dp6278
g47
I313138863
sg41
VWeaponDrop
p6279
sg189
I0
sg53
(lp6280
I1095363701
asg44
VPT7M26.1057521S
p6281
sg192
I0
sg193
VP0DT0H0M1.2833S
p6282
sg48
(dp6283
g50
VALG Heinz HCS
p6284
sg52
Nssa(dp6285
g47
I2511447508
sg41
VWeaponDrop
p6286
sg189
I20
sg53
(lp6287
I2758383128
asg44
VPT7M26.1057521S
p6288
sg192
I12
sg193
VP0DT0H0M42.4667S
p6289
sg48
(dp6290
g50
VALG Heinz HCS
p6291
sg52
Nssa(dp6292
g230
I313138863
sg231
I01
sg232
I00
sg233
(dp6293
g50
VTL StelluR
p6294
sg52
Nssg236
(lp6295
I1095363701
asg238
I00
sg239
I00
sg240
I1
sg241
I0
sg242
I1
sg243
(dp6296
Vy
F-9.7173160000000003
sVx
F-7.2924429999999996
sVz
F0.62814890000000001
ssg245
(dp6297
Vy
F-10.264962199999999
sVx
F-7.1342196500000004
sVz
F0.71372973900000003
ssg247
I00
sg248
(dp6298
g50
VALG ContrA HCS
p6299
sg52
Nssg251
(lp6300
sg253
(lp6301
(dp6302
g50
VTL Eco HCS
p6303
sg52
Nsasg255
I00
sg44
VPT7M28.068744S
p6304
sg41
VDeath
p6305
sg258
I1
sa(dp6306
g41
VMedal
p6307
sg48
(dp6308
g50
VTL StelluR
p6309
sg52
Nssg269
I2028249938
sg44
VPT7M28.068744S
p6310
sa(dp6311
g41
VImpulse
p6312
sg48
(dp6313
g50
VTL StelluR
p6314
sg52
Nssg263
I2299858338
sg44
VPT7M28.068744S
p6315
sa(dp6316
g41
VMedal
p6317
sg48
(dp6318
g50
VTL StelluR
p6319
sg52
Nssg269
I3270120991
sg44
VPT7M28.0697676S
p6320
sa(dp6321
g47
I2244200496
sg41
VWeaponDrop
p6322
sg189
I3
sg53
(lp6323
I2758383128
asg44
VPT7M28.0697676S
p6324
sg192
I3
sg193
VP0DT0H0M3.1333S
p6325
sg48
(dp6326
g50
VALG ContrA HCS
p6327
sg52
Nssa(dp6328
g47
I313138863
sg41
VWeaponDrop
p6329
sg189
I0
sg53
(lp6330
I1095363701
asg44
VPT7M28.0707698S
p6331
sg192
I0
sg193
VP0DT0H0M0.2833S
p6332
sg48
(dp6333
g50
VALG ContrA HCS
p6334
sg52
Nssa(dp6335
g47
I4096745987
sg41
VWeaponDrop
p6336
sg189
I8
sg53
(lp6337
I2758383128
asg44
VPT7M28.0707698S
p6338
sg192
I4
sg193
VP0DT0H0M15.5000S
p6339
sg48
(dp6340
g50
VALG ContrA HCS
p6341
sg52
Nssa(dp6342
g41
VImpulse
p6343
sg48
(dp6344
g50
VALG ContrA HCS
p6345
sg52
Nssg263
I3435524855
sg44
VPT7M28.0837661S
p6346
sa(dp6347
g47
I313138863
sg48
(dp6348
g50
VALG RyaNoob
p6349
sg52
Nssg53
(lp6350
I1095363701
asg41
VWeaponPickup
p6351
sg44
VPT7M31.1687844S
p6352
sa(dp6353
g47
I4096745987
sg48
(dp6354
g50
VALG RyaNoob
p6355
sg52
Nssg53
(lp6356
I2758383128
asg41
VWeaponPickup
p6357
sg44
VPT7M31.1687844S
p6358
sa(dp6359
g41
VPlayerSpawn
p6360
sg48
(dp6361
g50
VALG RyaNoob
p6362
sg52
Nssg44
VPT7M31.1687844S
p6363
sa(dp6364
g41
VMedal
p6365
sg48
(dp6366
g50
VTL StelluR
p6367
sg52
Nssg269
I2380717523
sg44
VPT7M31.9167963S
p6368
sa(dp6369
g41
VImpulse
p6370
sg48
(dp6371
g50
VTL StelluR
p6372
sg52
Nssg263
I1063951891
sg44
VPT7M31.9167963S
p6373
sa(dp6374
g41
VMedal
p6375
sg48
(dp6376
g50
VTL Danoxide
p6377
sg52
Nssg269
I3400287617
sg44
VPT7M33.4507856S
p6378
sa(dp6379
g47
I313138863
sg48
(dp6380
g50
VALG Heinz HCS
p6381
sg52
Nssg53
(lp6382
I1095363701
asg41
VWeaponPickup
p6383
sg44
VPT7M34.1177809S
p6384
sa(dp6385
g47
I4096745987
sg48
(dp6386
g50
VALG Heinz HCS
p6387
sg52
Nssg53
(lp6388
I2758383128
asg41
VWeaponPickup
p6389
sg44
VPT7M34.1187998S
p6390
sa(dp6391
g41
VPlayerSpawn
p6392
sg48
(dp6393
g50
VALG Heinz HCS
p6394
sg52
Nssg44
VPT7M34.1187998S
p6395
sa(dp6396
g47
I313138863
sg48
(dp6397
g50
VALG ContrA HCS
p6398
sg52
Nssg53
(lp6399
I1095363701
asg41
VWeaponPickup
p6400
sg44
VPT7M36.0848148S
p6401
sa(dp6402
g47
I4096745987
sg48
(dp6403
g50
VALG ContrA HCS
p6404
sg52
Nssg53
(lp6405
I2758383128
asg41
VWeaponPickup
p6406
sg44
VPT7M36.0848148S
p6407
sa(dp6408
g41
VPlayerSpawn
p6409
sg48
(dp6410
g50
VALG ContrA HCS
p6411
sg52
Nssg44
VPT7M36.0848148S
p6412
sa(dp6413
g230
I313138863
sg231
I00
sg232
I00
sg233
(dp6414
g50
VALGPredevonator
p6415
sg52
Nssg236
(lp6416
I1095363701
asg238
I00
sg239
I01
sg240
I1
sg241
I0
sg242
I1
sg243
(dp6417
Vy
F-0.97262114300000002
sVx
F-2.0171425300000001
sVz
F3.67948985
ssg245
(dp6418
Vy
F-0.65758883999999995
sVx
F2.308732
sVz
F3.2267160000000001
ssg247
I00
sg248
(dp6419
g50
VTL Eco HCS
p6420
sg52
Nssg251
(lp6421
sg253
(lp6422
sg255
I00
sg44
VPT7M36.9008208S
p6423
sg41
VDeath
p6424
sg258
I1
sa(dp6425
g47
I313138863
sg41
VWeaponDrop
p6426
sg189
I1
sg53
(lp6427
I1095363701
asg44
VPT7M36.9028267S
p6428
sg192
I0
sg193
VP0DT0H0M4.9333S
p6429
sg48
(dp6430
g50
VTL Eco HCS
p6431
sg52
Nssa(dp6432
g47
I4096745987
sg41
VWeaponDrop
p6433
sg189
I8
sg53
(lp6434
I2758383128
asg44
VPT7M36.9028267S
p6435
sg192
I6
sg193
VP0DT0H0M14.9333S
p6436
sg48
(dp6437
g50
VTL Eco HCS
p6438
sg52
Nssa(dp6439
g47
I2511447508
sg41
VWeaponDrop
p6440
sg189
I1
sg53
(lp6441
I2758383128
asg44
VPT7M36.9668225S
p6442
sg192
I1
sg193
VPT0S
p6443
sg48
(dp6444
g50
VTL Eco HCS
p6445
sg52
Nssa(dp6446
g230
I4096745987
sg231
I00
sg232
I00
sg233
(dp6447
g50
VALG RyaNoob
p6448
sg52
Nssg236
(lp6449
I2758383128
asg238
I00
sg239
I01
sg240
I1
sg241
I0
sg242
I1
sg243
(dp6450
Vy
F0.98971149999999997
sVx
F0.179140419
sVz
F0.078048825299999999
ssg245
(dp6451
Vy
F5.3196500000000002
sVx
F-0.85668915499999998
sVz
F1.11745107
ssg247
I00
sg248
(dp6452
g50
VTL Spartan HCS
p6453
sg52
Nssg251
(lp6454
sg253
(lp6455
sg255
I01
sg44
VPT7M39.6188157S
p6456
sg41
VDeath
p6457
sg258
I1
sa(dp6458
g41
VImpulse
p6459
sg48
(dp6460
g50
VALG RyaNoob
p6461
sg52
Nssg263
I2556889090
sg44
VPT7M39.6188157S
p6462
sa(dp6463
g41
VMedal
p6464
sg48
(dp6465
g50
VALG RyaNoob
p6466
sg52
Nssg269
I2838259753
sg44
VPT7M39.6188157S
p6467
sa(dp6468
g41
VMedal
p6469
sg48
(dp6470
g50
VALG RyaNoob
p6471
sg52
Nssg269
I3261908037
sg44
VPT7M39.6208388S
p6472
sa(dp6473
g47
I313138863
sg41
VWeaponDrop
p6474
sg189
I11
sg53
(lp6475
I1095363701
asg44
VPT7M39.6208388S
p6476
sg192
I7
sg193
VP0DT0H0M2.3333S
p6477
sg48
(dp6478
g50
VTL Spartan HCS
p6479
sg52
Nssa(dp6480
g47
I4096745987
sg41
VWeaponDrop
p6481
sg189
I10
sg53
(lp6482
I2758383128
asg44
VPT7M39.6208388S
p6483
sg192
I5
sg193
VP0DT0H0M15.9500S
p6484
sg48
(dp6485
g50
VTL Spartan HCS
p6486
sg52
Nssa(dp6487
g230
I4096745987
sg231
I00
sg232
I00
sg233
(dp6488
g50
VALG ContrA HCS
p6489
sg52
Nssg236
(lp6490
I2758383128
asg238
I00
sg239
I01
sg240
I1
sg241
I0
sg242
I1
sg243
(dp6491
Vy
F0.55853426500000003
sVx
F-20.083072699999999
sVz
F1.3937758200000001
ssg245
(dp6492
Vy
F-1.0231002600000001
sVx
F-11.7944794
sVz
F2.3581235399999998
ssg247
I00
sg248
(dp6493
g50
VTL StelluR
p6494
sg52
Nssg251
(lp6495
sg253
(lp6496
sg255
I01
sg44
VPT7M42.6838551S
p6497
sg41
VDeath
p6498
sg258
I1
sa(dp6499
g41
VMedal
p6500
sg48
(dp6501
g50
VALG ContrA HCS
p6502
sg52
Nssg269
I3261908037
sg44
VPT7M42.6868344S
p6503
sa(dp6504
g47
I4096745987
sg41
VWeaponDrop
p6505
sg189
I11
sg53
(lp6506
I2758383128
asg44
VPT7M42.68786S
p6507
sg192
I7
sg193
VP0DT0H0M22.1000S
p6508
sg48
(dp6509
g50
VTL StelluR
p6510
sg52
Nssa(dp6511
g47
I313138863
sg41
VWeaponDrop
p6512
sg189
I6
sg53
(lp6513
I1095363701
asg44
VPT7M42.68786S
p6514
sg192
I4
sg193
VP0DT0H0M3.5833S
p6515
sg48
(dp6516
g50
VTL StelluR
p6517
sg52
Nssa(dp6518
g47
I313138863
sg41
VWeaponDrop
p6519
sg189
I0
sg53
(lp6520
I1095363701
asg44
VPT7M42.68786S
p6521
sg192
I0
sg193
VP0DT0S
p6522
sg48
(dp6523
g50
VTL StelluR
p6524
sg52
Nssa(dp6525
g41
VMedal
p6526
sg48
(dp6527
g50
VALG RyaNoob
p6528
sg52
Nssg269
I3400287617
sg44
VPT7M43.5668405S
p6529
sa(dp6530
g47
I313138863
sg48
(dp6531
g50
VTL Eco HCS
p6532
sg52
Nssg53
(lp6533
I1095363701
asg41
VWeaponPickup
p6534
sg44
VPT7M44.9178723S
p6535
sa(dp6536
g47
I4096745987
sg48
(dp6537
g50
VTL Eco HCS
p6538
sg52
Nssg53
(lp6539
I2758383128
asg41
VWeaponPickup
p6540
sg44
VPT7M44.9178723S
p6541
sa(dp6542
g41
VPlayerSpawn
p6543
sg48
(dp6544
g50
VTL Eco HCS
p6545
sg52
Nssg44
VPT7M44.9178723S
p6546
sa(dp6547
g230
I4096745987
sg231
I00
sg232
I01
sg233
(dp6548
g50
VALG Heinz HCS
p6549
sg52
Nssg236
(lp6550
I2758383128
asg238
I00
sg239
I00
sg240
I1
sg241
I0
sg242
I1
sg243
(dp6551
Vy
F10.631091100000001
sVx
F-0.161047891
sVz
F0.80500640000000001
ssg245
(dp6552
Vy
F10.6343184
sVx
F-0.50753825900000005
sVz
F0.81264400000000003
ssg247
I00
sg248
(dp6553
g50
VTL Danoxide
p6554
sg52
Nssg251
(lp6555
sg253
(lp6556
sg255
I00
sg44
VPT7M45.4838814S
p6557
sg41
VDeath
p6558
sg258
I1
sa(dp6559
g41
VMedal
p6560
sg48
(dp6561
g50
VALG Heinz HCS
p6562
sg52
Nssg269
I250435527
sg44
VPT7M45.4858876S
p6563
sa(dp6564
g47
I313138863
sg41
VWeaponDrop
p6565
sg189
I22
sg53
(lp6566
I1095363701
asg44
VPT7M45.4858876S
p6567
sg192
I11
sg193
VP0DT0H0M22.2833S
p6568
sg48
(dp6569
g50
VTL Danoxide
p6570
sg52
Nssa(dp6571
g47
I4096745987
sg41
VWeaponDrop
p6572
sg189
I6
sg53
(lp6573
I2758383128
asg44
VPT7M45.4898511S
p6574
sg192
I3
sg193
VP0DT0H0M18.9667S
p6575
sg48
(dp6576
g50
VTL Danoxide
p6577
sg52
Nssa(dp6578
g47
I2244200496
sg48
(dp6579
g50
VALG RyaNoob
p6580
sg52
Nssg53
(lp6581
I2758383128
asg41
VWeaponPickup
p6582
sg44
VPT7M46.3828746S
p6583
sa(dp6584
g41
VImpulse
p6585
sg48
(dp6586
g50
VALG RyaNoob
p6587
sg52
Nssg263
I4191318012
sg44
VPT7M46.383881S
p6588
sa(dp6589
g41
VImpulse
p6590
sg48
(dp6591
g50
VALG RyaNoob
p6592
sg52
Nssg263
I1039658009
sg44
VPT7M46.383881S
p6593
sa(dp6594
g47
I2244200496
sg41
VWeaponDrop
p6595
sg189
I0
sg53
(lp6596
I2758383128
asg44
VPT7M47.065851S
p6597
sg192
I0
sg193
VP0DT0H0M0.5333S
p6598
sg48
(dp6599
g50
VALG RyaNoob
p6600
sg52
Nssa(dp6601
g41
VImpulse
p6602
sg48
(dp6603
g50
VALG RyaNoob
p6604
sg52
Nssg263
I3435524855
sg44
VPT7M47.0668651S
p6605
sa(dp6606
g47
I313138863
sg48
(dp6607
g50
VTL Spartan HCS
p6608
sg52
Nssg53
(lp6609
I1095363701
asg41
VWeaponPickup
p6610
sg44
VPT7M47.6348511S
p6611
sa(dp6612
g47
I4096745987
sg48
(dp6613
g50
VTL Spartan HCS
p6614
sg52
Nssg53
(lp6615
I2758383128
asg41
VWeaponPickup
p6616
sg44
VPT7M47.6348511S
p6617
sa(dp6618
g41
VPlayerSpawn
p6619
sg48
(dp6620
g50
VTL Spartan HCS
p6621
sg52
Nssg44
VPT7M47.6348511S
p6622
sa(dp6623
g47
I2244200496
sg48
(dp6624
g50
VALG RyaNoob
p6625
sg52
Nssg53
(lp6626
I2758383128
asg41
VWeaponPickup
p6627
sg44
VPT7M48.699874S
p6628
sa(dp6629
g41
VImpulse
p6630
sg48
(dp6631
g50
VALG RyaNoob
p6632
sg52
Nssg263
I4191318012
sg44
VPT7M48.7208728S
p6633
sa(dp6634
g47
I2244200496
sg41
VWeaponDrop
p6635
sg189
I0
sg53
(lp6636
I2758383128
asg44
VPT7M49.5998582S
p6637
sg192
I0
sg193
VP0DT0H0M0.7333S
p6638
sg48
(dp6639
g50
VALG RyaNoob
p6640
sg52
Nssa(dp6641
g41
VImpulse
p6642
sg48
(dp6643
g50
VALG RyaNoob
p6644
sg52
Nssg263
I3435524855
sg44
VPT7M49.5998582S
p6645
sa(dp6646
g47
I313138863
sg48
(dp6647
g50
VTL StelluR
p6648
sg52
Nssg53
(lp6649
I1095363701
asg41
VWeaponPickup
p6650
sg44
VPT7M50.7008773S
p6651
sa(dp6652
g47
I4096745987
sg48
(dp6653
g50
VTL StelluR
p6654
sg52
Nssg53
(lp6655
I2758383128
asg41
VWeaponPickup
p6656
sg44
VPT7M50.7008773S
p6657
sa(dp6658
g41
VPlayerSpawn
p6659
sg48
(dp6660
g50
VTL StelluR
p6661
sg52
Nssg44
VPT7M50.7008773S
p6662
sa(dp6663
g47
I2244200496
sg48
(dp6664
g50
VALG RyaNoob
p6665
sg52
Nssg53
(lp6666
I2758383128
asg41
VWeaponPickup
p6667
sg44
VPT7M50.7168752S
p6668
sa(dp6669
g41
VImpulse
p6670
sg48
(dp6671
g50
VALG RyaNoob
p6672
sg52
Nssg263
I4191318012
sg44
VPT7M50.7168752S
p6673
sa(dp6674
g47
I2244200496
sg41
VWeaponDrop
p6675
sg189
I0
sg53
(lp6676
I2758383128
asg44
VPT7M51.6658515S
p6677
sg192
I0
sg193
VP0DT0H0M0.8000S
p6678
sg48
(dp6679
g50
VALG RyaNoob
p6680
sg52
Nssa(dp6681
g41
VImpulse
p6682
sg48
(dp6683
g50
VALG RyaNoob
p6684
sg52
Nssg263
I3435524855
sg44
VPT7M51.6668823S
p6685
sa(dp6686
g47
I2244200496
sg48
(dp6687
g50
VALG RyaNoob
p6688
sg52
Nssg53
(lp6689
I2758383128
asg41
VWeaponPickup
p6690
sg44
VPT7M53.1163614S
p6691
sa(dp6692
g41
VImpulse
p6693
sg48
(dp6694
g50
VALG RyaNoob
p6695
sg52
Nssg263
I4191318012
sg44
VPT7M53.1168516S
p6696
sa(dp6697
g47
I313138863
sg48
(dp6698
g50
VTL Danoxide
p6699
sg52
Nssg53
(lp6700
I1095363701
asg41
VWeaponPickup
p6701
sg44
VPT7M53.5008697S
p6702
sa(dp6703
g47
I4096745987
sg48
(dp6704
g50
VTL Danoxide
p6705
sg52
Nssg53
(lp6706
I2758383128
asg41
VWeaponPickup
p6707
sg44
VPT7M53.5008697S
p6708
sa(dp6709
g41
VPlayerSpawn
p6710
sg48
(dp6711
g50
VTL Danoxide
p6712
sg52
Nssg44
VPT7M53.5008697S
p6713
sa(dp6714
g230
I313138863
sg231
I00
sg232
I00
sg233
(dp6715
g50
VTL Eco HCS
p6716
sg52
Nssg236
(lp6717
I1095363701
asg238
I00
sg239
I01
sg240
I1
sg241
I0
sg242
I1
sg243
(dp6718
Vy
F0.196939737
sVx
F1.7802572299999999
sVz
F4.3536262499999996
ssg245
(dp6719
Vy
F0.112875581
sVx
F-2.5161764600000001
sVz
F3.1442737599999999
ssg247
I00
sg248
(dp6720
g50
VALGPredevonator
p6721
sg52
Nssg251
(lp6722
sg253
(lp6723
(dp6724
g50
VTL Spartan HCS
p6725
sg52
Nsasg255
I00
sg44
VPT7M53.8508494S
p6726
sg41
VDeath
p6727
sg258
I1
sa(dp6728
g47
I313138863
sg41
VWeaponDrop
p6729
sg189
I27
sg53
(lp6730
I1095363701
asg44
VPT7M53.8528703S
p6731
sg192
I10
sg193
VP0DT0H0M12.5167S
p6732
sg48
(dp6733
g50
VALGPredevonator
p6734
sg52
Nssa(dp6735
g47
I4096745987
sg41
VWeaponDrop
p6736
sg189
I35
sg53
(lp6737
I2758383128
asg44
VPT7M53.8528703S
p6738
sg192
I14
sg193
VP0DT0H0M41.1500S
p6739
sg48
(dp6740
g50
VALGPredevonator
p6741
sg52
Nssa(dp6742
g47
I2244200496
sg41
VWeaponDrop
p6743
sg189
I0
sg53
(lp6744
I2758383128
asg44
VPT7M53.8998503S
p6745
sg192
I0
sg193
VP0DT0H0M0.6333S
p6746
sg48
(dp6747
g50
VALG RyaNoob
p6748
sg52
Nssa(dp6749
g41
VImpulse
p6750
sg48
(dp6751
g50
VALG RyaNoob
p6752
sg52
Nssg263
I3435524855
sg44
VPT7M53.8998503S
p6753
sa(dp6754
g230
I4106030681
sg231
I00
sg232
I00
sg233
(dp6755
g50
VALGPredevonator
p6756
sg52
Nssg236
(lp6757
sg238
I00
sg239
I01
sg240
I1
sg241
I0
sg242
I1
sg243
(dp6758
Vy
F0.35718080000000002
sVx
F-2.24992561
sVz
F3.0841054899999998
ssg245
(dp6759
Vy
F0.45986455700000001
sVx
F1.6074660000000001
sVz
F4.2318559999999996
ssg247
I00
sg248
(dp6760
g50
VTL Eco HCS
p6761
sg52
Nssg251
(lp6762
sg253
(lp6763
sg255
I00
sg44
VPT7M54.0678495S
p6764
sg41
VDeath
p6765
sg258
I1
sa(dp6766
g47
I313138863
sg41
VWeaponDrop
p6767
sg189
I9
sg53
(lp6768
I1095363701
asg44
VPT7M54.0688745S
p6769
sg192
I6
sg193
VP0DT0H0M3.5000S
p6770
sg48
(dp6771
g50
VTL Eco HCS
p6772
sg52
Nssa(dp6773
g47
I4096745987
sg41
VWeaponDrop
p6774
sg189
I0
sg53
(lp6775
I2758383128
asg44
VPT7M54.0688745S
p6776
sg192
I0
sg193
VP0DT0H0M5.6500S
p6777
sg48
(dp6778
g50
VTL Eco HCS
p6779
sg52
Nssa(dp6780
g47
I2244200496
sg48
(dp6781
g50
VALG RyaNoob
p6782
sg52
Nssg53
(lp6783
I2758383128
asg41
VWeaponPickup
p6784
sg44
VPT7M55.6158736S
p6785
sa(dp6786
g41
VImpulse
p6787
sg48
(dp6788
g50
VALG RyaNoob
p6789
sg52
Nssg263
I4191318012
sg44
VPT7M55.6168744S
p6790
sa(dp6791
g47
I2244200496
sg41
VWeaponDrop
p6792
sg189
I0
sg53
(lp6793
I2758383128
asg44
VPT7M56.3158865S
p6794
sg192
I0
sg193
VP0DT0H0M0.5500S
p6795
sg48
(dp6796
g50
VALG RyaNoob
p6797
sg52
Nssa(dp6798
g41
VImpulse
p6799
sg48
(dp6800
g50
VALG RyaNoob
p6801
sg52
Nssg263
I3435524855
sg44
VPT7M56.3168746S
p6802
sa(dp6803
g47
I2244200496
sg48
(dp6804
g50
VALG RyaNoob
p6805
sg52
Nssg53
(lp6806
I2758383128
asg41
VWeaponPickup
p6807
sg44
VPT7M57.6658523S
p6808
sa(dp6809
g41
VImpulse
p6810
sg48
(dp6811
g50
VALG RyaNoob
p6812
sg52
Nssg263
I4191318012
sg44
VPT7M57.6668704S
p6813
sa(dp6814
g47
I2244200496
sg41
VWeaponDrop
p6815
sg189
I0
sg53
(lp6816
I2758383128
asg44
VPT7M58.5658742S
p6817
sg192
I0
sg193
VP0DT0H0M0.7500S
p6818
sg48
(dp6819
g50
VALG RyaNoob
p6820
sg52
Nssa(dp6821
g41
VImpulse
p6822
sg48
(dp6823
g50
VALG RyaNoob
p6824
sg52
Nssg263
I3435524855
sg44
VPT7M58.5668495S
p6825
sa(dp6826
g47
I2244200496
sg48
(dp6827
g50
VALG RyaNoob
p6828
sg52
Nssg53
(lp6829
I2758383128
asg41
VWeaponPickup
p6830
sg44
VPT7M59.6988743S
p6831
sa(dp6832
g41
VImpulse
p6833
sg48
(dp6834
g50
VALG RyaNoob
p6835
sg52
Nssg263
I4191318012
sg44
VPT7M59.699869S
p6836
sa(dp6837
g47
I2244200496
sg41
VWeaponDrop
p6838
sg189
I0
sg53
(lp6839
I2758383128
asg44
VPT8M0.8828497S
p6840
sg192
I0
sg193
VP0DT0H0M1.0333S
p6841
sg48
(dp6842
g50
VALG RyaNoob
p6843
sg52
Nssa(dp6844
g41
VImpulse
p6845
sg48
(dp6846
g50
VALG RyaNoob
p6847
sg52
Nssg263
I3435524855
sg44
VPT8M0.8848484S
p6848
sa(dp6849
g47
I313138863
sg48
(dp6850
g50
VALGPredevonator
p6851
sg52
Nssg53
(lp6852
I1095363701
asg41
VWeaponPickup
p6853
sg44
VPT8M1.8668557S
p6854
sa(dp6855
g47
I4096745987
sg48
(dp6856
g50
VALGPredevonator
p6857
sg52
Nssg53
(lp6858
I2758383128
asg41
VWeaponPickup
p6859
sg44
VPT8M1.867873S
p6860
sa(dp6861
g41
VPlayerSpawn
p6862
sg48
(dp6863
g50
VALGPredevonator
p6864
sg52
Nssg44
VPT8M1.867873S
p6865
sa(dp6866
g47
I313138863
sg48
(dp6867
g50
VTL Eco HCS
p6868
sg52
Nssg53
(lp6869
I1095363701
asg41
VWeaponPickup
p6870
sg44
VPT8M2.0838809S
p6871
sa(dp6872
g47
I4096745987
sg48
(dp6873
g50
VTL Eco HCS
p6874
sg52
Nssg53
(lp6875
I2758383128
asg41
VWeaponPickup
p6876
sg44
VPT8M2.0838809S
p6877
sa(dp6878
g41
VPlayerSpawn
p6879
sg48
(dp6880
g50
VTL Eco HCS
p6881
sg52
Nssg44
VPT8M2.0838809S
p6882
sa(dp6883
g47
I2244200496
sg48
(dp6884
g50
VALG RyaNoob
p6885
sg52
Nssg53
(lp6886
I2758383128
asg41
VWeaponPickup
p6887
sg44
VPT8M2.2658836S
p6888
sa(dp6889
g41
VImpulse
p6890
sg48
(dp6891
g50
VALG RyaNoob
p6892
sg52
Nssg263
I4191318012
sg44
VPT8M2.2668784S
p6893
sa(dp6894
g41
VMedal
p6895
sg48
(dp6896
g50
VALG RyaNoob
p6897
sg52
Nssg269
I3886151616
sg44
VPT8M3.0658858S
p6898
sa(dp6899
g41
VMedal
p6900
sg48
(dp6901
g50
VALG RyaNoob
p6902
sg52
Nssg269
I2137994204
sg44
VPT8M3.0668708S
p6903
sa(dp6904
g41
VImpulse
p6905
sg48
(dp6906
g50
VALG RyaNoob
p6907
sg52
Nssg263
I2944278681
sg44
VPT8M3.0668708S
p6908
sa(dp6909
g41
VRoundEnd
p6910
sg43
I0
sg44
VPT8M3.0678867S
p6911
sassba.