(lp1
cnumpy.core.multiarray
_reconstruct
p2
(cnumpy
ndarray
p3
(I0
tS'b'
tRp4
(I1
(I4
tcnumpy
dtype
p5
(S'U36'
I0
I1
tRp6
(I3
S'<'
NNNI144
I4
I8
tbI00
S'2\x00\x00\x000\x00\x00\x001\x00\x00\x006\x00\x00\x00-\x00\x00\x000\x00\x00\x007\x00\x00\x00-\x00\x00\x000\x00\x00\x002\x00\x00\x00\x00\x00\x00\x00\x00\x00\x00\x00\x00\x00\x00\x00\x00\x00\x00\x00\x00\x00\x00\x00\x00\x00\x00\x00\x00\x00\x00\x00\x00\x00\x00\x00\x00\x00\x00\x00\x00\x00\x00\x00\x00\x00\x00\x00\x00\x00\x00\x00\x00\x00\x00\x00\x00\x00\x00\x00\x00\x00\x00\x00\x00\x00\x00\x00\x00\x00\x00\x00\x00\x00\x00\x00\x00\x00\x00\x00\x00\x00\x00\x00\x00\x00\x00\x00\x00\x00\x00\x00\x00\x00\x00\x00\x00\x00\x00\x00\x00\x00\x00\x00\x00\x00\x00\x00T\x00\x00\x00r\x00\x00\x00u\x00\x00\x00t\x00\x00\x00h\x00\x00\x00\x00\x00\x00\x00\x00\x00\x00\x00\x00\x00\x00\x00\x00\x00\x00\x00\x00\x00\x00\x00\x00\x00\x00\x00\x00\x00\x00\x00\x00\x00\x00\x00\x00\x00\x00\x00\x00\x00\x00\x00\x00\x00\x00\x00\x00\x00\x00\x00\x00\x00\x00\x00\x00\x00\x00\x00\x00\x00\x00\x00\x00\x00\x00\x00\x00\x00\x00\x00\x00\x00\x00\x00\x00\x00\x00\x00\x00\x00\x00\x00\x00\x00\x00\x00\x00\x00\x00\x00\x00\x00\x00\x00\x00\x00\x00\x00\x00\x00\x00\x00\x00\x00\x00\x00\x00\x00\x00\x00\x00\x00\x00\x00\x00\x00\x00\x00\x00\x00\x00\x00\x00\x00\x00\x00S\x00\x00\x00l\x00\x00\x00a\x00\x00\x00y\x00\x00\x00e\x00\x00\x00r\x00\x00\x00\x00\x00\x00\x00\x00\x00\x00\x00\x00\x00\x00\x00\x00\x00\x00\x00\x00\x00\x00\x00\x00\x00\x00\x00\x00\x00\x00\x00\x00\x00\x00\x00\x00\x00\x00\x00\x00\x00\x00\x00\x00\x00\x00\x00\x00\x00\x00\x00\x00\x00\x00\x00\x00\x00\x00\x00\x00\x00\x00\x00\x00\x00\x00\x00\x00\x00\x00\x00\x00\x00\x00\x00\x00\x00\x00\x00\x00\x00\x00\x00\x00\x00\x00\x00\x00\x00\x00\x00\x00\x00\x00\x00\x00\x00\x00\x00\x00\x00\x00\x00\x00\x00\x00\x00\x00\x00\x00\x00\x00\x00\x00\x00\x00\x00\x00\x00\x00\x00\x00\x006\x00\x00\x001\x00\x00\x008\x00\x00\x004\x00\x00\x003\x00\x00\x005\x00\x00\x007\x00\x00\x00d\x00\x00\x00-\x00\x00\x006\x00\x00\x00f\x00\x00\x003\x00\x00\x00b\x00\x00\x00-\x00\x00\x004\x00\x00\x008\x00\x00\x006\x00\x00\x00e\x00\x00\x00-\x00\x00\x008\x00\x00\x00e\x00\x00\x00e\x00\x00\x00a\x00\x00\x00-\x00\x00\x006\x00\x00\x00a\x00\x00\x00f\x00\x00\x008\x00\x00\x00d\x00\x00\x006\x00\x00\x005\x00\x00\x008\x00\x00\x00b\x00\x00\x00a\x00\x00\x005\x00\x00\x001\x00\x00\x00'
tba(lp7
S'tl'
p8
aS'alg'
p9
aaccopy_reg
_reconstructor
p10
(c__main__
match_breakdown
p11
c__builtin__
object
p12
NtRp13
(dp14
S'details'
p15
(dp16
VIsCompleteSetOfEvents
p17
I01
sVLinks
p18
(dp19
VUgcFilmManifest
p20
(dp21
VAuthenticationLifetimeExtensionSupported
p22
I00
sVQueryString
p23
V?view=film-manifest
p24
sVRetryPolicyId
p25
Vexponentialretry
p26
sVPath
p27
V/h5/films/6184357d-6f3b-486e-8eea-6af8d658ba51
p28
sVAcknowledgementTypeId
p29
I0
sVAuthorityId
p30
Vugc
p31
sVTopicName
p32
V
ssVStatsMatchDetails
p33
(dp34
g22
I00
sg23
Nsg25
Vexponentialretry
p35
sg27
Vh5/custom/matches/6184357d-6f3b-486e-8eea-6af8d658ba51
p36
sg29
I0
sg30
Vspartanstats
p37
sg32
V
sssVGameEvents
p38
(lp39
(dp40
VEventName
p41
VRoundStart
p42
sVRoundIndex
p43
I0
sVTimeSinceStart
p44
VPT0.0260019S
p45
sa(dp46
VWeaponStockId
p47
I313138863
sVPlayer
p48
(dp49
VGamertag
p50
VTL Spartan HCS
p51
sVXuid
p52
NssVWeaponAttachmentIds
p53
(lp54
I1095363701
asg41
VWeaponPickup
p55
sg44
VPT17.4892332S
p56
sa(dp57
g47
I4096745987
sg48
(dp58
g50
VTL Spartan HCS
p59
sg52
Nssg53
(lp60
I2758383128
asg41
VWeaponPickup
p61
sg44
VPT17.4902245S
p62
sa(dp63
g41
VPlayerSpawn
p64
sg48
(dp65
g50
VTL Spartan HCS
p66
sg52
Nssg44
VPT17.4902245S
p67
sa(dp68
g47
I313138863
sg48
(dp69
g50
VTL Danoxide
p70
sg52
Nssg53
(lp71
I1095363701
asg41
VWeaponPickup
p72
sg44
VPT17.5052052S
p73
sa(dp74
g47
I4096745987
sg48
(dp75
g50
VTL Danoxide
p76
sg52
Nssg53
(lp77
I2758383128
asg41
VWeaponPickup
p78
sg44
VPT17.5062279S
p79
sa(dp80
g41
VPlayerSpawn
p81
sg48
(dp82
g50
VTL Danoxide
p83
sg52
Nssg44
VPT17.5062279S
p84
sa(dp85
g47
I313138863
sg48
(dp86
g50
VTL Eco HCS
p87
sg52
Nssg53
(lp88
I1095363701
asg41
VWeaponPickup
p89
sg44
VPT17.5242287S
p90
sa(dp91
g47
I4096745987
sg48
(dp92
g50
VTL Eco HCS
p93
sg52
Nssg53
(lp94
I2758383128
asg41
VWeaponPickup
p95
sg44
VPT17.5242287S
p96
sa(dp97
g41
VPlayerSpawn
p98
sg48
(dp99
g50
VTL Eco HCS
p100
sg52
Nssg44
VPT17.5242287S
p101
sa(dp102
g47
I313138863
sg48
(dp103
g50
VALG Heinz HCS
p104
sg52
Nssg53
(lp105
I1095363701
asg41
VWeaponPickup
p106
sg44
VPT17.5282248S
p107
sa(dp108
g47
I4096745987
sg48
(dp109
g50
VALG Heinz HCS
p110
sg52
Nssg53
(lp111
I2758383128
asg41
VWeaponPickup
p112
sg44
VPT17.5282248S
p113
sa(dp114
g41
VPlayerSpawn
p115
sg48
(dp116
g50
VALG Heinz HCS
p117
sg52
Nssg44
VPT17.5282248S
p118
sa(dp119
g47
I313138863
sg48
(dp120
g50
VALGPredevonator
p121
sg52
Nssg53
(lp122
I1095363701
asg41
VWeaponPickup
p123
sg44
VPT17.5552053S
p124
sa(dp125
g47
I4096745987
sg48
(dp126
g50
VALGPredevonator
p127
sg52
Nssg53
(lp128
I2758383128
asg41
VWeaponPickup
p129
sg44
VPT17.5562299S
p130
sa(dp131
g41
VPlayerSpawn
p132
sg48
(dp133
g50
VALGPredevonator
p134
sg52
Nssg44
VPT17.5562299S
p135
sa(dp136
g47
I313138863
sg48
(dp137
g50
VTL StelluR
p138
sg52
Nssg53
(lp139
I1095363701
asg41
VWeaponPickup
p140
sg44
VPT17.5722062S
p141
sa(dp142
g47
I4096745987
sg48
(dp143
g50
VTL StelluR
p144
sg52
Nssg53
(lp145
I2758383128
asg41
VWeaponPickup
p146
sg44
VPT17.5722062S
p147
sa(dp148
g41
VPlayerSpawn
p149
sg48
(dp150
g50
VTL StelluR
p151
sg52
Nssg44
VPT17.5722062S
p152
sa(dp153
g47
I313138863
sg48
(dp154
g50
VALG RyaNoob
p155
sg52
Nssg53
(lp156
I1095363701
asg41
VWeaponPickup
p157
sg44
VPT17.589226S
p158
sa(dp159
g47
I4096745987
sg48
(dp160
g50
VALG RyaNoob
p161
sg52
Nssg53
(lp162
I2758383128
asg41
VWeaponPickup
p163
sg44
VPT17.589226S
p164
sa(dp165
g41
VPlayerSpawn
p166
sg48
(dp167
g50
VALG RyaNoob
p168
sg52
Nssg44
VPT17.589226S
p169
sa(dp170
g47
I313138863
sg48
(dp171
g50
VALG ContrA HCS
p172
sg52
Nssg53
(lp173
I1095363701
asg41
VWeaponPickup
p174
sg44
VPT17.6062286S
p175
sa(dp176
g47
I4096745987
sg48
(dp177
g50
VALG ContrA HCS
p178
sg52
Nssg53
(lp179
I2758383128
asg41
VWeaponPickup
p180
sg44
VPT17.6062286S
p181
sa(dp182
g41
VPlayerSpawn
p183
sg48
(dp184
g50
VALG ContrA HCS
p185
sg52
Nssg44
VPT17.6062286S
p186
sa(dp187
VKillerWeaponStockId
p188
I4096745987
sVIsAssassination
p189
I00
sVIsMelee
p190
I00
sVKiller
p191
(dp192
g50
VTL Spartan HCS
p193
sg52
NssVKillerWeaponAttachmentIds
p194
(lp195
I2758383128
asVIsGroundPound
p196
I00
sVIsWeapon
p197
I01
sVDeathDisposition
p198
I1
sVVictimStockId
p199
I0
sVVictimAgent
p200
I1
sVKillerWorldLocation
p201
(dp202
Vy
F4.6199245500000004
sVx
F-16.768888499999999
sVz
F4.2582269999999998
ssVVictimWorldLocation
p203
(dp204
Vy
F1.2626493000000001
sVx
F-7.9350350000000001
sVz
F3.5310347100000001
ssVIsShoulderBash
p205
I00
sVVictim
p206
(dp207
g50
VALG RyaNoob
p208
sg52
NssVVictimAttachmentIds
p209
(lp210
sVAssistants
p211
(lp212
(dp213
g50
VTL Eco HCS
p214
sg52
NsasVIsHeadshot
p215
I01
sg44
VPT24.9073341S
p216
sg41
VDeath
p217
sVKillerAgent
p218
I1
sa(dp219
g41
VMedal
p220
sg48
(dp221
g50
VTL Spartan HCS
p222
sg52
NssVMedalId
p223
I3261908037
sg44
VPT24.9093018S
p224
sa(dp225
g41
VMedal
p226
sg48
(dp227
g50
VTL Spartan HCS
p228
sg52
Nssg223
I3001183151
sg44
VPT24.9093018S
p229
sa(dp230
g47
I313138863
sg41
VWeaponDrop
p231
sVShotsFired
p232
I0
sg53
(lp233
I1095363701
asg44
VPT24.9333222S
p234
sVShotsLanded
p235
I0
sVTimeWeaponActiveAsPrimary
p236
VP0DT0H0M0.8833S
p237
sg48
(dp238
g50
VALG RyaNoob
p239
sg52
Nssa(dp240
g47
I4096745987
sg41
VWeaponDrop
p241
sg232
I5
sg53
(lp242
I2758383128
asg44
VPT24.9333222S
p243
sg235
I4
sg236
VP0DT0H0M6.4333S
p244
sg48
(dp245
g50
VALG RyaNoob
p246
sg52
Nssa(dp247
g188
I4096745987
sg189
I00
sg190
I00
sg191
(dp248
g50
VALG Heinz HCS
p249
sg52
Nssg194
(lp250
I2758383128
asg196
I00
sg197
I01
sg198
I1
sg199
I0
sg200
I1
sg201
(dp251
Vy
F-1.7546213900000001
sVx
F-1.22046649
sVz
F0.53162986000000001
ssg203
(dp252
Vy
F6.9006576500000003
sVx
F1.7231951999999999
sVz
F1.5029556799999999
ssg205
I00
sg206
(dp253
g50
VTL Eco HCS
p254
sg52
Nssg209
(lp255
sg211
(lp256
sg215
I01
sg44
VPT26.2383164S
p257
sg41
VDeath
p258
sg218
I1
sa(dp259
g41
VMedal
p260
sg48
(dp261
g50
VALG Heinz HCS
p262
sg52
Nssg223
I3261908037
sg44
VPT26.2403363S
p263
sa(dp264
g47
I313138863
sg41
VWeaponDrop
p265
sg232
I0
sg53
(lp266
I1095363701
asg44
VPT26.2413348S
p267
sg235
I0
sg236
VP0DT0H0M0.5167S
p268
sg48
(dp269
g50
VTL Eco HCS
p270
sg52
Nssa(dp271
g47
I4096745987
sg41
VWeaponDrop
p272
sg232
I6
sg53
(lp273
I2758383128
asg44
VPT26.2413348S
p274
sg235
I5
sg236
VP0DT0H0M8.2000S
p275
sg48
(dp276
g50
VTL Eco HCS
p277
sg52
Nssa(dp278
g188
I4096745987
sg189
I00
sg190
I00
sg191
(dp279
g50
VALGPredevonator
p280
sg52
Nssg194
(lp281
I2758383128
asg196
I00
sg197
I01
sg198
I1
sg199
I0
sg200
I1
sg201
(dp282
Vy
F-4.8249779999999998
sVx
F-17.3112335
sVz
F-0.061345547399999999
ssg203
(dp283
Vy
F2.1884540000000001
sVx
F-16.773857100000001
sVz
F-0.17208970000000001
ssg205
I00
sg206
(dp284
g50
VTL Danoxide
p285
sg52
Nssg209
(lp286
sg211
(lp287
sg215
I01
sg44
VPT29.3553566S
p288
sg41
VDeath
p289
sg218
I1
sa(dp290
g41
VMedal
p291
sg48
(dp292
g50
VALGPredevonator
p293
sg52
Nssg223
I3261908037
sg44
VPT29.3573858S
p294
sa(dp295
g47
I313138863
sg41
VWeaponDrop
p296
sg232
I0
sg53
(lp297
I1095363701
asg44
VPT29.3583826S
p298
sg235
I0
sg236
VP0DT0H0M0.9167S
p299
sg48
(dp300
g50
VTL Danoxide
p301
sg52
Nssa(dp302
g47
I4096745987
sg41
VWeaponDrop
p303
sg232
I3
sg53
(lp304
I2758383128
asg44
VPT29.3583826S
p305
sg235
I1
sg236
VP0DT0H0M10.9333S
p306
sg48
(dp307
g50
VTL Danoxide
p308
sg52
Nssa(dp309
g188
I4096745987
sg189
I00
sg190
I00
sg191
(dp310
g50
VTL Spartan HCS
p311
sg52
Nssg194
(lp312
I2758383128
asg196
I00
sg197
I01
sg198
I1
sg199
I0
sg200
I1
sg201
(dp313
Vy
F5.6753334999999998
sVx
F-14.2849035
sVz
F1.5116882300000001
ssg203
(dp314
Vy
F-2.9410827199999998
sVx
F-16.133825300000002
sVz
F0.76704620000000001
ssg205
I00
sg206
(dp315
g50
VALGPredevonator
p316
sg52
Nssg209
(lp317
sg211
(lp318
(dp319
g50
VTL Danoxide
p320
sg52
Nsasg215
I01
sg44
VPT30.6043958S
p321
sg41
VDeath
p322
sg218
I1
sa(dp323
g41
VMedal
p324
sg48
(dp325
g50
VTL Spartan HCS
p326
sg52
Nssg223
I3261908037
sg44
VPT30.6063962S
p327
sa(dp328
g47
I313138863
sg41
VWeaponDrop
p329
sg232
I0
sg53
(lp330
I1095363701
asg44
VPT30.6073916S
p331
sg235
I0
sg236
VP0DT0H0M1.4000S
p332
sg48
(dp333
g50
VALGPredevonator
p334
sg52
Nssa(dp335
g47
I4096745987
sg41
VWeaponDrop
p336
sg232
I12
sg53
(lp337
I2758383128
asg44
VPT30.6073916S
p338
sg235
I5
sg236
VP0DT0H0M11.6500S
p339
sg48
(dp340
g50
VALGPredevonator
p341
sg52
Nssa(dp342
g188
I4096745987
sg189
I00
sg190
I00
sg191
(dp343
g50
VALG Heinz HCS
p344
sg52
Nssg194
(lp345
I2758383128
asg196
I00
sg197
I01
sg198
I1
sg199
I0
sg200
I1
sg201
(dp346
Vy
F5.78695965
sVx
F-4.691719
sVz
F-0.135095611
ssg203
(dp347
Vy
F2.316859
sVx
F-13.886426
sVz
F-0.072221670000000002
ssg205
I00
sg206
(dp348
g50
VTL Spartan HCS
p349
sg52
Nssg209
(lp350
sg211
(lp351
(dp352
g50
VALGPredevonator
p353
sg52
Nsasg215
I00
sg44
VPT31.7883879S
p354
sg41
VDeath
p355
sg218
I1
sa(dp356
g47
I4096745987
sg41
VWeaponDrop
p357
sg232
I8
sg53
(lp358
I2758383128
asg44
VPT31.790409S
p359
sg235
I6
sg236
VP0DT0H0M13.3167S
p360
sg48
(dp361
g50
VTL Spartan HCS
p362
sg52
Nssa(dp363
g47
I313138863
sg41
VWeaponDrop
p364
sg232
I0
sg53
(lp365
I1095363701
asg44
VPT31.790409S
p366
sg235
I0
sg236
VP0DT0H0M0.9833S
p367
sg48
(dp368
g50
VTL Spartan HCS
p369
sg52
Nssa(dp370
g47
I313138863
sg48
(dp371
g50
VALG RyaNoob
p372
sg52
Nssg53
(lp373
I1095363701
asg41
VWeaponPickup
p374
sg44
VPT32.9214028S
p375
sa(dp376
g47
I4096745987
sg48
(dp377
g50
VALG RyaNoob
p378
sg52
Nssg53
(lp379
I2758383128
asg41
VWeaponPickup
p380
sg44
VPT32.9224233S
p381
sa(dp382
g41
VPlayerSpawn
p383
sg48
(dp384
g50
VALG RyaNoob
p385
sg52
Nssg44
VPT32.9224233S
p386
sa(dp387
g188
I4096745987
sg189
I00
sg190
I00
sg191
(dp388
g50
VTL StelluR
p389
sg52
Nssg194
(lp390
I2758383128
asg196
I00
sg197
I01
sg198
I1
sg199
I0
sg200
I1
sg201
(dp391
Vy
F5.4517290000000003
sVx
F8.5410269999999997
sVz
F3.7394645199999998
ssg203
(dp392
Vy
F8.2567419999999991
sVx
F-3.1443784199999998
sVz
F0.23859095599999999
ssg205
I00
sg206
(dp393
g50
VALG Heinz HCS
p394
sg52
Nssg209
(lp395
sg211
(lp396
sg215
I01
sg44
VPT33.0714037S
p397
sg41
VDeath
p398
sg218
I1
sa(dp399
g41
VMedal
p400
sg48
(dp401
g50
VTL StelluR
p402
sg52
Nssg223
I3261908037
sg44
VPT33.072429S
p403
sa(dp404
g47
I313138863
sg41
VWeaponDrop
p405
sg232
I0
sg53
(lp406
I1095363701
asg44
VPT33.072429S
p407
sg235
I0
sg236
VP0DT0H0M1.5667S
p408
sg48
(dp409
g50
VALG Heinz HCS
p410
sg52
Nssa(dp411
g47
I4096745987
sg41
VWeaponDrop
p412
sg232
I12
sg53
(lp413
I2758383128
asg44
VPT33.072429S
p414
sg235
I6
sg236
VP0DT0H0M13.9667S
p415
sg48
(dp416
g50
VALG Heinz HCS
p417
sg52
Nssa(dp418
g47
I2492868984
sg48
(dp419
g50
VALG RyaNoob
p420
sg52
Nssg53
(lp421
I2758383128
asg41
VWeaponPickup
p422
sg44
VPT34.2204313S
p423
sa(dp424
g47
I313138863
sg48
(dp425
g50
VTL Eco HCS
p426
sg52
Nssg53
(lp427
I1095363701
asg41
VWeaponPickup
p428
sg44
VPT34.2554433S
p429
sa(dp430
g47
I4096745987
sg48
(dp431
g50
VTL Eco HCS
p432
sg52
Nssg53
(lp433
I2758383128
asg41
VWeaponPickup
p434
sg44
VPT34.2554433S
p435
sa(dp436
g41
VPlayerSpawn
p437
sg48
(dp438
g50
VTL Eco HCS
p439
sg52
Nssg44
VPT34.2554433S
p440
sa(dp441
g47
I2492868984
sg41
VWeaponDrop
p442
sg232
I0
sg53
(lp443
I2758383128
asg44
VPT35.3554332S
p444
sg235
I0
sg236
VP0DT0H0M0.9833S
p445
sg48
(dp446
g50
VALG RyaNoob
p447
sg52
Nssa(dp448
g47
I313138863
sg48
(dp449
g50
VTL Danoxide
p450
sg52
Nssg53
(lp451
I1095363701
asg41
VWeaponPickup
p452
sg44
VPT37.3714612S
p453
sa(dp454
g47
I4096745987
sg48
(dp455
g50
VTL Danoxide
p456
sg52
Nssg53
(lp457
I2758383128
asg41
VWeaponPickup
p458
sg44
VPT37.3714612S
p459
sa(dp460
g41
VPlayerSpawn
p461
sg48
(dp462
g50
VTL Danoxide
p463
sg52
Nssg44
VPT37.3724845S
p464
sa(dp465
g47
I313138863
sg48
(dp466
g50
VALGPredevonator
p467
sg52
Nssg53
(lp468
I1095363701
asg41
VWeaponPickup
p469
sg44
VPT38.6217446S
p470
sa(dp471
g47
I4096745987
sg48
(dp472
g50
VALGPredevonator
p473
sg52
Nssg53
(lp474
I2758383128
asg41
VWeaponPickup
p475
sg44
VPT38.6217446S
p476
sa(dp477
g41
VPlayerSpawn
p478
sg48
(dp479
g50
VALGPredevonator
p480
sg52
Nssg44
VPT38.6224754S
p481
sa(dp482
g47
I313138863
sg41
VWeaponDrop
p483
sg232
I0
sg53
(lp484
I1095363701
asg44
VPT39.353503S
p485
sg235
I0
sg236
VP0DT0H0M1.1667S
p486
sg48
(dp487
g50
VTL Eco HCS
p488
sg52
Nssa(dp489
g47
I4108759423
sg48
(dp490
g50
VTL Eco HCS
p491
sg52
Nssg53
(lp492
I2758383128
asg41
VWeaponPickup
p493
sg44
VPT39.353503S
p494
sa(dp495
g47
I313138863
sg48
(dp496
g50
VTL Spartan HCS
p497
sg52
Nssg53
(lp498
I1095363701
asg41
VWeaponPickup
p499
sg44
VPT39.804491S
p500
sa(dp501
g47
I4096745987
sg48
(dp502
g50
VTL Spartan HCS
p503
sg52
Nssg53
(lp504
I2758383128
asg41
VWeaponPickup
p505
sg44
VPT39.8054927S
p506
sa(dp507
g41
VPlayerSpawn
p508
sg48
(dp509
g50
VTL Spartan HCS
p510
sg52
Nssg44
VPT39.8054927S
p511
sa(dp512
g47
I313138863
sg48
(dp513
g50
VALG Heinz HCS
p514
sg52
Nssg53
(lp515
I1095363701
asg41
VWeaponPickup
p516
sg44
VPT41.0885265S
p517
sa(dp518
g47
I4096745987
sg48
(dp519
g50
VALG Heinz HCS
p520
sg52
Nssg53
(lp521
I2758383128
asg41
VWeaponPickup
p522
sg44
VPT41.0885265S
p523
sa(dp524
g41
VPlayerSpawn
p525
sg48
(dp526
g50
VALG Heinz HCS
p527
sg52
Nssg44
VPT41.0885265S
p528
sa(dp529
g188
I4096745987
sg189
I00
sg190
I00
sg191
(dp530
g50
VALG ContrA HCS
p531
sg52
Nssg194
(lp532
I2758383128
asg196
I00
sg197
I01
sg198
I1
sg199
I0
sg200
I1
sg201
(dp533
Vy
F17.039470000000001
sVx
F-3.3175461300000002
sVz
F2.0006849999999998
ssg203
(dp534
Vy
F4.6045894599999997
sVx
F8.3437194800000007
sVz
F3.7745575900000001
ssg205
I00
sg206
(dp535
g50
VTL StelluR
p536
sg52
Nssg209
(lp537
sg211
(lp538
sg215
I00
sg44
VPT41.7375157S
p539
sg41
VDeath
p540
sg218
I1
sa(dp541
g47
I313138863
sg41
VWeaponDrop
p542
sg232
I0
sg53
(lp543
I1095363701
asg44
VPT41.7395271S
p544
sg235
I0
sg236
VP0DT0H0M1.7667S
p545
sg48
(dp546
g50
VTL StelluR
p547
sg52
Nssa(dp548
g47
I4096745987
sg41
VWeaponDrop
p549
sg232
I15
sg53
(lp550
I2758383128
asg44
VPT41.7395271S
p551
sg235
I6
sg236
VP0DT0H0M22.4000S
p552
sg48
(dp553
g50
VTL StelluR
p554
sg52
Nssa(dp555
g47
I313138863
sg41
VWeaponDrop
p556
sg232
I0
sg53
(lp557
I1095363701
asg44
VPT42.6695512S
p558
sg235
I0
sg236
VP0DT0H0M2.8667S
p559
sg48
(dp560
g50
VTL Spartan HCS
p561
sg52
Nssa(dp562
g47
I2650887244
sg48
(dp563
g50
VTL Spartan HCS
p564
sg52
Nssg53
(lp565
I2758383128
asg41
VWeaponPickup
p566
sg44
VPT42.6705279S
p567
sa(dp568
g47
I4096745987
sg41
VWeaponDrop
p569
sg232
I0
sg53
(lp570
I2758383128
asg44
VPT44.6366223S
p571
sg235
I0
sg236
VP0DT0H0M9.7500S
p572
sg48
(dp573
g50
VALG RyaNoob
p574
sg52
Nssa(dp575
g47
I424645655
sg48
(dp576
g50
VALG RyaNoob
p577
sg52
Nssg53
(lp578
I1327094800
asg41
VWeaponPickup
p579
sg44
VPT44.6366223S
p580
sa(dp581
g188
I313138863
sg189
I00
sg190
I00
sg191
(dp582
g50
VALG ContrA HCS
p583
sg52
Nssg194
(lp584
I1095363701
asg196
I00
sg197
I01
sg198
I1
sg199
I0
sg200
I1
sg201
(dp585
Vy
F17.663489999999999
sVx
F-4.2820390000000002
sVz
F2.0006849999999998
ssg203
(dp586
Vy
F11.179334600000001
sVx
F-4.2725095700000004
sVz
F2.0006849999999998
ssg205
I00
sg206
(dp587
g50
VTL Danoxide
p588
sg52
Nssg209
(lp589
sg211
(lp590
sg215
I00
sg44
VPT46.3385751S
p591
sg41
VDeath
p592
sg218
I1
sa(dp593
g41
VMedal
p594
sg48
(dp595
g50
VALG ContrA HCS
p596
sg52
Nssg223
I2078758684
sg44
VPT46.3395969S
p597
sa(dp598
g47
I313138863
sg41
VWeaponDrop
p599
sg232
I16
sg53
(lp600
I1095363701
asg44
VPT46.3405925S
p601
sg235
I3
sg236
VP0DT0H0M3.0167S
p602
sg48
(dp603
g50
VTL Danoxide
p604
sg52
Nssa(dp605
g47
I4096745987
sg41
VWeaponDrop
p606
sg232
I3
sg53
(lp607
I2758383128
asg44
VPT46.3405925S
p608
sg235
I0
sg236
VP0DT0H0M5.9500S
p609
sg48
(dp610
g50
VTL Danoxide
p611
sg52
Nssa(dp612
g47
I313138863
sg41
VWeaponDrop
p613
sg232
I0
sg53
(lp614
I1095363701
asg44
VPT48.0196148S
p615
sg235
I0
sg236
VP0DT0H0M2.0500S
p616
sg48
(dp617
g50
VALG RyaNoob
p618
sg52
Nssa(dp619
g47
I2670072722
sg48
(dp620
g50
VALG RyaNoob
p621
sg52
Nssg53
(lp622
I2758383128
asg41
VWeaponPickupPad
p623
sg44
VPT48.0196148S
p624
sa(dp625
g47
I2670072722
sg48
(dp626
g50
VALG RyaNoob
p627
sg52
Nssg53
(lp628
I2758383128
asg41
VWeaponPickup
p629
sg44
VPT48.0216136S
p630
sa(dp631
g47
I313138863
sg48
(dp632
g50
VTL StelluR
p633
sg52
Nssg53
(lp634
I1095363701
asg41
VWeaponPickup
p635
sg44
VPT49.7556409S
p636
sa(dp637
g47
I4096745987
sg48
(dp638
g50
VTL StelluR
p639
sg52
Nssg53
(lp640
I2758383128
asg41
VWeaponPickup
p641
sg44
VPT49.7556409S
p642
sa(dp643
g41
VPlayerSpawn
p644
sg48
(dp645
g50
VTL StelluR
p646
sg52
Nssg44
VPT49.7556409S
p647
sa(dp648
g47
I313138863
sg41
VWeaponDrop
p649
sg232
I27
sg53
(lp650
I1095363701
asg44
VPT52.4866585S
p651
sg235
I14
sg236
VP0DT0H0M7.8667S
p652
sg48
(dp653
g50
VALG ContrA HCS
p654
sg52
Nssa(dp655
g47
I2133511419
sg48
(dp656
g50
VALG ContrA HCS
p657
sg52
Nssg53
(lp658
I2758383128
asg41
VWeaponPickup
p659
sg44
VPT52.4866585S
p660
sa(dp661
g47
I313138863
sg48
(dp662
g50
VTL Danoxide
p663
sg52
Nssg53
(lp664
I1095363701
asg41
VWeaponPickup
p665
sg44
VPT54.3546991S
p666
sa(dp667
g47
I4096745987
sg48
(dp668
g50
VTL Danoxide
p669
sg52
Nssg53
(lp670
I2758383128
asg41
VWeaponPickup
p671
sg44
VPT54.3546991S
p672
sa(dp673
g41
VPlayerSpawn
p674
sg48
(dp675
g50
VTL Danoxide
p676
sg52
Nssg44
VPT54.3546991S
p677
sa(dp678
g188
I2670072722
sg189
I00
sg190
I00
sg191
(dp679
g50
VALG RyaNoob
p680
sg52
Nssg194
(lp681
I2758383128
asg196
I00
sg197
I01
sg198
I1
sg199
I0
sg200
I1
sg201
(dp682
Vy
F-2.2223809999999999
sVx
F-3.88352728
sVz
F3.12304235
ssg203
(dp683
Vy
F-11.1522446
sVx
F8.6174389999999992
sVz
F2.5626060000000002
ssg205
I00
sg206
(dp684
g50
VTL Eco HCS
p685
sg52
Nssg209
(lp686
sg211
(lp687
(dp688
g50
VALG Heinz HCS
p689
sg52
Nsa(dp690
g50
VALGPredevonator
p691
sg52
Nsasg215
I00
sg44
VPT55.3536889S
p692
sg41
VDeath
p693
sg218
I1
sa(dp694
g47
I4108759423
sg41
VWeaponDrop
p695
sg232
I12
sg53
(lp696
I2758383128
asg44
VPT55.3557072S
p697
sg235
I6
sg236
VP0DT0H0M16.0000S
p698
sg48
(dp699
g50
VTL Eco HCS
p700
sg52
Nssa(dp701
g47
I4096745987
sg41
VWeaponDrop
p702
sg232
I0
sg53
(lp703
I2758383128
asg44
VPT55.3557072S
p704
sg235
I0
sg236
VP0DT0H0M3.9333S
p705
sg48
(dp706
g50
VTL Eco HCS
p707
sg52
Nssa(dp708
g188
I3168248199
sg189
I00
sg190
I00
sg191
(dp709
g50
VTL Spartan HCS
p710
sg52
Nssg194
(lp711
sg196
I00
sg197
I01
sg198
I1
sg199
I0
sg200
I1
sg201
(dp712
Vy
F15.419024500000001
sVx
F-7.9925889999999997
sVz
F-0.082861065900000003
ssg203
(dp713
Vy
F15.149806999999999
sVx
F-7.7719573999999998
sVz
F-0.102088019
ssg205
I00
sg206
(dp714
g50
VALG ContrA HCS
p715
sg52
Nssg209
(lp716
sg211
(lp717
sg215
I00
sg44
VPT1M0.2867528S
p718
sg41
VDeath
p719
sg218
I1
sa(dp720
g41
VMedal
p721
sg48
(dp722
g50
VTL Spartan HCS
p723
sg52
Nssg223
I2782465081
sg44
VPT1M0.2877784S
p724
sa(dp725
g47
I2133511419
sg41
VWeaponDrop
p726
sg232
I9
sg53
(lp727
I2758383128
asg44
VPT1M0.2887832S
p728
sg235
I4
sg236
VP0DT0H0M7.8000S
p729
sg48
(dp730
g50
VALG ContrA HCS
p731
sg52
Nssa(dp732
g47
I2133511419
sg41
VWeaponDrop
p733
sg232
I0
sg53
(lp734
I2758383128
asg44
VPT1M0.2887832S
p735
sg235
I0
sg236
VP0DT0S
p736
sg48
(dp737
g50
VALG ContrA HCS
p738
sg52
Nssa(dp739
g47
I4096745987
sg41
VWeaponDrop
p740
sg232
I9
sg53
(lp741
I2758383128
asg44
VPT1M0.2897548S
p742
sg235
I8
sg236
VP0DT0H0M27.0167S
p743
sg48
(dp744
g50
VALG ContrA HCS
p745
sg52
Nssa(dp746
g47
I313138863
sg48
(dp747
g50
VTL Eco HCS
p748
sg52
Nssg53
(lp749
I1095363701
asg41
VWeaponPickup
p750
sg44
VPT1M3.3707924S
p751
sa(dp752
g47
I4096745987
sg48
(dp753
g50
VTL Eco HCS
p754
sg52
Nssg53
(lp755
I2758383128
asg41
VWeaponPickup
p756
sg44
VPT1M3.3707924S
p757
sa(dp758
g41
VPlayerSpawn
p759
sg48
(dp760
g50
VTL Eco HCS
p761
sg52
Nssg44
VPT1M3.3707924S
p762
sa(dp763
g41
VMedal
p764
sg48
(dp765
g50
VTL Spartan HCS
p766
sg52
Nssg223
I3400287617
sg44
VPT1M4.2868031S
p767
sa(dp768
g188
I2670072722
sg189
I00
sg190
I00
sg191
(dp769
g50
VALG RyaNoob
p770
sg52
Nssg194
(lp771
I2758383128
asg196
I00
sg197
I01
sg198
I1
sg199
I0
sg200
I1
sg201
(dp772
Vy
F11.481383299999999
sVx
F-3.3496684999999999
sVz
F0.75898049999999995
ssg203
(dp773
Vy
F16.260223400000001
sVx
F-4.419632
sVz
F0.088993489999999995
ssg205
I00
sg206
(dp774
g50
VTL Spartan HCS
p775
sg52
Nssg209
(lp776
sg211
(lp777
sg215
I00
sg44
VPT1M7.3038418S
p778
sg41
VDeath
p779
sg218
I1
sa(dp780
g47
I2650887244
sg41
VWeaponDrop
p781
sg232
I0
sg53
(lp782
I2758383128
asg44
VPT1M7.3058505S
p783
sg235
I0
sg236
VP0DT0H0M7.3833S
p784
sg48
(dp785
g50
VTL Spartan HCS
p786
sg52
Nssa(dp787
g47
I4096745987
sg41
VWeaponDrop
p788
sg232
I15
sg53
(lp789
I2758383128
asg44
VPT1M7.3058505S
p790
sg235
I7
sg236
VP0DT0H0M17.2500S
p791
sg48
(dp792
g50
VTL Spartan HCS
p793
sg52
Nssa(dp794
g47
I313138863
sg48
(dp795
g50
VALG ContrA HCS
p796
sg52
Nssg53
(lp797
I1095363701
asg41
VWeaponPickup
p798
sg44
VPT1M8.3038556S
p799
sa(dp800
g47
I4096745987
sg48
(dp801
g50
VALG ContrA HCS
p802
sg52
Nssg53
(lp803
I2758383128
asg41
VWeaponPickup
p804
sg44
VPT1M8.3048814S
p805
sa(dp806
g41
VPlayerSpawn
p807
sg48
(dp808
g50
VALG ContrA HCS
p809
sg52
Nssg44
VPT1M8.3048814S
p810
sa(dp811
g47
I313138863
sg41
VWeaponDrop
p812
sg232
I0
sg53
(lp813
I1095363701
asg44
VPT1M9.2528672S
p814
sg235
I0
sg236
VP0DT0H0M1.3167S
p815
sg48
(dp816
g50
VTL Eco HCS
p817
sg52
Nssa(dp818
g47
I4108759423
sg48
(dp819
g50
VTL Eco HCS
p820
sg52
Nssg53
(lp821
I2758383128
asg41
VWeaponPickup
p822
sg44
VPT1M9.2528672S
p823
sa(dp824
g188
I313138863
sg189
I00
sg190
I01
sg191
(dp825
g50
VTL Danoxide
p826
sg52
Nssg194
(lp827
I1095363701
asg196
I00
sg197
I00
sg198
I1
sg199
I0
sg200
I1
sg201
(dp828
Vy
F10.8022566
sVx
F-8.0072774899999999
sVz
F0.084656120000000001
ssg203
(dp829
Vy
F11.1675787
sVx
F-7.9250679999999996
sVz
F-0.086897134799999998
ssg205
I00
sg206
(dp830
g50
VALG RyaNoob
p831
sg52
Nssg209
(lp832
sg211
(lp833
(dp834
g50
VTL StelluR
p835
sg52
Nsasg215
I00
sg44
VPT1M13.3199409S
p836
sg41
VDeath
p837
sg218
I1
sa(dp838
g41
VMedal
p839
sg48
(dp840
g50
VTL Danoxide
p841
sg52
Nssg223
I2287626681
sg44
VPT1M13.3209205S
p842
sa(dp843
g47
I2670072722
sg41
VWeaponDrop
p844
sg232
I6
sg53
(lp845
I2758383128
asg44
VPT1M13.3219401S
p846
sg235
I6
sg236
VP0DT0H0M18.9500S
p847
sg48
(dp848
g50
VALG RyaNoob
p849
sg52
Nssa(dp850
g47
I424645655
sg41
VWeaponDrop
p851
sg232
I0
sg53
(lp852
I1327094800
asg44
VPT1M13.3229466S
p853
sg235
I0
sg236
VP0DT0H0M8.6500S
p854
sg48
(dp855
g50
VALG RyaNoob
p856
sg52
Nssa(dp857
g47
I313138863
sg41
VWeaponDrop
p858
sg232
I22
sg53
(lp859
I1095363701
asg44
VPT1M13.752925S
p860
sg235
I0
sg236
VP0DT0H0M9.1333S
p861
sg48
(dp862
g50
VTL Danoxide
p863
sg52
Nssa(dp864
g47
I2670072722
sg48
(dp865
g50
VTL Danoxide
p866
sg52
Nssg53
(lp867
I2758383128
asg41
VWeaponPickup
p868
sg44
VPT1M13.752925S
p869
sa(dp870
g188
I4096745987
sg189
I00
sg190
I00
sg191
(dp871
g50
VALG Heinz HCS
p872
sg52
Nssg194
(lp873
I2758383128
asg196
I00
sg197
I01
sg198
I1
sg199
I0
sg200
I1
sg201
(dp874
Vy
F8.2915770000000002
sVx
F-13.7714424
sVz
F0.73685049999999996
ssg203
(dp875
Vy
F14.0587921
sVx
F-7.8212679999999999
sVz
F-0.107411742
ssg205
I00
sg206
(dp876
g50
VTL Danoxide
p877
sg52
Nssg209
(lp878
sg211
(lp879
(dp880
g50
VALG RyaNoob
p881
sg52
Nsasg215
I01
sg44
VPT1M15.1699678S
p882
sg41
VDeath
p883
sg218
I1
sa(dp884
g41
VMedal
p885
sg48
(dp886
g50
VALG Heinz HCS
p887
sg52
Nssg223
I3261908037
sg44
VPT1M15.1719679S
p888
sa(dp889
g47
I2670072722
sg41
VWeaponDrop
p890
sg232
I0
sg53
(lp891
I2758383128
asg44
VPT1M15.1719679S
p892
sg235
I0
sg236
VP0DT0H0M1.0000S
p893
sg48
(dp894
g50
VTL Danoxide
p895
sg52
Nssa(dp896
g47
I4096745987
sg41
VWeaponDrop
p897
sg232
I0
sg53
(lp898
I2758383128
asg44
VPT1M15.1719679S
p899
sg235
I0
sg236
VP0DT0H0M10.6833S
p900
sg48
(dp901
g50
VTL Danoxide
p902
sg52
Nssa(dp903
g47
I313138863
sg48
(dp904
g50
VTL Spartan HCS
p905
sg52
Nssg53
(lp906
I1095363701
asg41
VWeaponPickup
p907
sg44
VPT1M15.320947S
p908
sa(dp909
g47
I4096745987
sg48
(dp910
g50
VTL Spartan HCS
p911
sg52
Nssg53
(lp912
I2758383128
asg41
VWeaponPickup
p913
sg44
VPT1M15.320947S
p914
sa(dp915
g41
VPlayerSpawn
p916
sg48
(dp917
g50
VTL Spartan HCS
p918
sg52
Nssg44
VPT1M15.320947S
p919
sa(dp920
g188
I4096745987
sg189
I00
sg190
I00
sg191
(dp921
g50
VALG Heinz HCS
p922
sg52
Nssg194
(lp923
I2758383128
asg196
I00
sg197
I01
sg198
I1
sg199
I0
sg200
I1
sg201
(dp924
Vy
F9.6212319999999991
sVx
F-11.766551
sVz
F0.51436740000000003
ssg203
(dp925
Vy
F13.043901399999999
sVx
F-2.8597839999999999
sVz
F-0.10525
ssg205
I00
sg206
(dp926
g50
VTL StelluR
p927
sg52
Nssg209
(lp928
sg211
(lp929
(dp930
g50
VALGPredevonator
p931
sg52
Nsasg215
I01
sg44
VPT1M16.8869649S
p932
sg41
VDeath
p933
sg218
I1
sa(dp934
g41
VMedal
p935
sg48
(dp936
g50
VALG Heinz HCS
p937
sg52
Nssg223
I3261908037
sg44
VPT1M16.8879883S
p938
sa(dp939
g41
VMedal
p940
sg48
(dp941
g50
VALG Heinz HCS
p942
sg52
Nssg223
I2078758684
sg44
VPT1M16.8879883S
p943
sa(dp944
g47
I313138863
sg41
VWeaponDrop
p945
sg232
I0
sg53
(lp946
I1095363701
asg44
VPT1M16.8889907S
p947
sg235
I0
sg236
VP0DT0H0M3.2500S
p948
sg48
(dp949
g50
VTL StelluR
p950
sg52
Nssa(dp951
g47
I4096745987
sg41
VWeaponDrop
p952
sg232
I6
sg53
(lp953
I2758383128
asg44
VPT1M16.8889907S
p954
sg235
I5
sg236
VP0DT0H0M23.8833S
p955
sg48
(dp956
g50
VTL StelluR
p957
sg52
Nssa(dp958
g47
I313138863
sg48
(dp959
g50
VALG RyaNoob
p960
sg52
Nssg53
(lp961
I1095363701
asg41
VWeaponPickup
p962
sg44
VPT1M21.3370409S
p963
sa(dp964
g47
I4096745987
sg48
(dp965
g50
VALG RyaNoob
p966
sg52
Nssg53
(lp967
I2758383128
asg41
VWeaponPickup
p968
sg44
VPT1M21.3370409S
p969
sa(dp970
g41
VPlayerSpawn
p971
sg48
(dp972
g50
VALG RyaNoob
p973
sg52
Nssg44
VPT1M21.3380457S
p974
sa(dp975
g47
I313138863
sg48
(dp976
g50
VTL Danoxide
p977
sg52
Nssg53
(lp978
I1095363701
asg41
VWeaponPickup
p979
sg44
VPT1M23.1870708S
p980
sa(dp981
g47
I4096745987
sg48
(dp982
g50
VTL Danoxide
p983
sg52
Nssg53
(lp984
I2758383128
asg41
VWeaponPickup
p985
sg44
VPT1M23.1870708S
p986
sa(dp987
g41
VPlayerSpawn
p988
sg48
(dp989
g50
VTL Danoxide
p990
sg52
Nssg44
VPT1M23.1870708S
p991
sa(dp992
g47
I313138863
sg41
VWeaponDrop
p993
sg232
I0
sg53
(lp994
I1095363701
asg44
VPT1M24.802094S
p995
sg235
I0
sg236
VP0DT0H0M1.2000S
p996
sg48
(dp997
g50
VTL Danoxide
p998
sg52
Nssa(dp999
g47
I524558978
sg48
(dp1000
g50
VTL Danoxide
p1001
sg52
Nssg53
(lp1002
I2758383128
asg41
VWeaponPickup
p1003
sg44
VPT1M24.802094S
p1004
sa(dp1005
g47
I313138863
sg48
(dp1006
g50
VTL StelluR
p1007
sg52
Nssg53
(lp1008
I1095363701
asg41
VWeaponPickup
p1009
sg44
VPT1M24.904097S
p1010
sa(dp1011
g47
I4096745987
sg48
(dp1012
g50
VTL StelluR
p1013
sg52
Nssg53
(lp1014
I2758383128
asg41
VWeaponPickup
p1015
sg44
VPT1M24.904097S
p1016
sa(dp1017
g41
VPlayerSpawn
p1018
sg48
(dp1019
g50
VTL StelluR
p1020
sg52
Nssg44
VPT1M24.904097S
p1021
sa(dp1022
g188
I4096745987
sg189
I00
sg190
I00
sg191
(dp1023
g50
VTL StelluR
p1024
sg52
Nssg194
(lp1025
I2758383128
asg196
I00
sg197
I01
sg198
I1
sg199
I0
sg200
I1
sg201
(dp1026
Vy
F-2.7939441199999999
sVx
F5.0236473100000003
sVz
F1.3460121199999999
ssg203
(dp1027
Vy
F-12.063535699999999
sVx
F5.6673712700000003
sVz
F2.26673722
ssg205
I00
sg206
(dp1028
g50
VALG ContrA HCS
p1029
sg52
Nssg209
(lp1030
sg211
(lp1031
sg215
I01
sg44
VPT1M30.6361401S
p1032
sg41
VDeath
p1033
sg218
I1
sa(dp1034
g41
VImpulse
p1035
sg48
(dp1036
g50
VTL StelluR
p1037
sg52
NssVImpulseId
p1038
I3174430457
sg44
VPT1M30.6381679S
p1039
sa(dp1040
g41
VMedal
p1041
sg48
(dp1042
g50
VTL StelluR
p1043
sg52
Nssg223
I3653057799
sg44
VPT1M30.6391614S
p1044
sa(dp1045
g47
I313138863
sg41
VWeaponDrop
p1046
sg232
I0
sg53
(lp1047
I1095363701
asg44
VPT1M30.6391614S
p1048
sg235
I0
sg236
VP0DT0H0M0.7500S
p1049
sg48
(dp1050
g50
VALG ContrA HCS
p1051
sg52
Nssa(dp1052
g47
I4096745987
sg41
VWeaponDrop
p1053
sg232
I7
sg53
(lp1054
I2758383128
asg44
VPT1M30.6391614S
p1055
sg235
I4
sg236
VP0DT0H0M21.5833S
p1056
sg48
(dp1057
g50
VALG ContrA HCS
p1058
sg52
Nssa(dp1059
g188
I4096745987
sg189
I00
sg190
I01
sg191
(dp1060
g50
VTL Eco HCS
p1061
sg52
Nssg194
(lp1062
I2758383128
asg196
I00
sg197
I00
sg198
I1
sg199
I0
sg200
I1
sg201
(dp1063
Vy
F16.8475723
sVx
F-4.3207716899999999
sVz
F-0.085474359999999999
ssg203
(dp1064
Vy
F16.475000000000001
sVx
F-4.3790903099999996
sVz
F-0.096719680000000002
ssg205
I00
sg206
(dp1065
g50
VALG Heinz HCS
p1066
sg52
Nssg209
(lp1067
sg211
(lp1068
(dp1069
g50
VTL Spartan HCS
p1070
sg52
Nsasg215
I00
sg44
VPT1M34.5031901S
p1071
sg41
VDeath
p1072
sg218
I1
sa(dp1073
g41
VImpulse
p1074
sg48
(dp1075
g50
VTL Eco HCS
p1076
sg52
Nssg1038
I2556889090
sg44
VPT1M34.5031901S
p1077
sa(dp1078
g41
VMedal
p1079
sg48
(dp1080
g50
VTL Eco HCS
p1081
sg52
Nssg223
I2838259753
sg44
VPT1M34.5031901S
p1082
sa(dp1083
g41
VMedal
p1084
sg48
(dp1085
g50
VTL Eco HCS
p1086
sg52
Nssg223
I2287626681
sg44
VPT1M34.5052157S
p1087
sa(dp1088
g47
I313138863
sg41
VWeaponDrop
p1089
sg232
I14
sg53
(lp1090
I1095363701
asg44
VPT1M34.5062162S
p1091
sg235
I4
sg236
VP0DT0H0M5.3500S
p1092
sg48
(dp1093
g50
VALG Heinz HCS
p1094
sg52
Nssa(dp1095
g47
I4096745987
sg41
VWeaponDrop
p1096
sg232
I32
sg53
(lp1097
I2758383128
asg44
VPT1M34.5072171S
p1098
sg235
I18
sg236
VP0DT0H0M48.0667S
p1099
sg48
(dp1100
g50
VALG Heinz HCS
p1101
sg52
Nssa(dp1102
g47
I313138863
sg41
VWeaponDrop
p1103
sg232
I0
sg53
(lp1104
I1095363701
asg44
VPT1M35.7682312S
p1105
sg235
I0
sg236
VP0DT0H0M1.6667S
p1106
sg48
(dp1107
g50
VTL StelluR
p1108
sg52
Nssa(dp1109
g47
I4108759423
sg48
(dp1110
g50
VTL StelluR
p1111
sg52
Nssg53
(lp1112
I2758383128
asg41
VWeaponPickup
p1113
sg44
VPT1M35.7682312S
p1114
sa(dp1115
g47
I313138863
sg41
VWeaponDrop
p1116
sg232
I23
sg53
(lp1117
I1095363701
asg44
VPT1M36.7352418S
p1118
sg235
I6
sg236
VP0DT0H0M10.9167S
p1119
sg48
(dp1120
g50
VTL Spartan HCS
p1121
sg52
Nssa(dp1122
g47
I2133511419
sg48
(dp1123
g50
VTL Spartan HCS
p1124
sg52
Nssg53
(lp1125
I2758383128
asg41
VWeaponPickup
p1126
sg44
VPT1M36.7352418S
p1127
sa(dp1128
g47
I313138863
sg48
(dp1129
g50
VALG ContrA HCS
p1130
sg52
Nssg53
(lp1131
I1095363701
asg41
VWeaponPickup
p1132
sg44
VPT1M38.6532444S
p1133
sa(dp1134
g47
I4096745987
sg48
(dp1135
g50
VALG ContrA HCS
p1136
sg52
Nssg53
(lp1137
I2758383128
asg41
VWeaponPickup
p1138
sg44
VPT1M38.6532444S
p1139
sa(dp1140
g41
VPlayerSpawn
p1141
sg48
(dp1142
g50
VALG ContrA HCS
p1143
sg52
Nssg44
VPT1M38.6532444S
p1144
sa(dp1145
g47
I4096745987
sg41
VWeaponDrop
p1146
sg232
I4
sg53
(lp1147
I2758383128
asg44
VPT1M39.618258S
p1148
sg235
I2
sg236
VP0DT0H0M12.0333S
p1149
sg48
(dp1150
g50
VTL Eco HCS
p1151
sg52
Nssa(dp1152
g47
I4096745987
sg41
VWeaponDrop
p1153
sg232
I0
sg53
(lp1154
I2758383128
asg44
VPT1M39.618258S
p1155
sg235
I0
sg236
VP0DT0S
p1156
sg48
(dp1157
g50
VTL Eco HCS
p1158
sg52
Nssa(dp1159
g47
I2133511419
sg48
(dp1160
g50
VTL Eco HCS
p1161
sg52
Nssg53
(lp1162
I2758383128
asg41
VWeaponPickup
p1163
sg44
VPT1M39.618258S
p1164
sa(dp1165
g188
I4096745987
sg189
I00
sg190
I00
sg191
(dp1166
g50
VALGPredevonator
p1167
sg52
Nssg194
(lp1168
I2758383128
asg196
I00
sg197
I01
sg198
I1
sg199
I0
sg200
I1
sg201
(dp1169
Vy
F7.56376648
sVx
F-18.0911312
sVz
F1.4333054999999999
ssg203
(dp1170
Vy
F12.6711893
sVx
F-8.0141829999999992
sVz
F0.40331810000000001
ssg205
I00
sg206
(dp1171
g50
VTL Spartan HCS
p1172
sg52
Nssg209
(lp1173
sg211
(lp1174
(dp1175
g50
VALG RyaNoob
p1176
sg52
Nsasg215
I01
sg44
VPT1M42.3192906S
p1177
sg41
VDeath
p1178
sg218
I1
sa(dp1179
g41
VImpulse
p1180
sg48
(dp1181
g50
VALGPredevonator
p1182
sg52
Nssg1038
I2556889090
sg44
VPT1M42.3192906S
p1183
sa(dp1184
g41
VMedal
p1185
sg48
(dp1186
g50
VALGPredevonator
p1187
sg52
Nssg223
I2838259753
sg44
VPT1M42.3203161S
p1188
sa(dp1189
g41
VMedal
p1190
sg48
(dp1191
g50
VALGPredevonator
p1192
sg52
Nssg223
I3261908037
sg44
VPT1M42.3212926S
p1193
sa(dp1194
g47
I2133511419
sg41
VWeaponDrop
p1195
sg232
I12
sg53
(lp1196
I2758383128
asg44
VPT1M42.3212926S
p1197
sg235
I6
sg236
VP0DT0H0M2.9333S
p1198
sg48
(dp1199
g50
VTL Spartan HCS
p1200
sg52
Nssa(dp1201
g47
I4096745987
sg41
VWeaponDrop
p1202
sg232
I6
sg53
(lp1203
I2758383128
asg44
VPT1M42.3212926S
p1204
sg235
I1
sg236
VP0DT0H0M13.1500S
p1205
sg48
(dp1206
g50
VTL Spartan HCS
p1207
sg52
Nssa(dp1208
g47
I313138863
sg48
(dp1209
g50
VALG Heinz HCS
p1210
sg52
Nssg53
(lp1211
I1095363701
asg41
VWeaponPickup
p1212
sg44
VPT1M42.5203136S
p1213
sa(dp1214
g47
I4096745987
sg48
(dp1215
g50
VALG Heinz HCS
p1216
sg52
Nssg53
(lp1217
I2758383128
asg41
VWeaponPickup
p1218
sg44
VPT1M42.5203136S
p1219
sa(dp1220
g41
VPlayerSpawn
p1221
sg48
(dp1222
g50
VALG Heinz HCS
p1223
sg52
Nssg44
VPT1M42.5203136S
p1224
sa(dp1225
g188
I4108759423
sg189
I00
sg190
I00
sg191
(dp1226
g50
VTL Eco HCS
p1227
sg52
Nssg194
(lp1228
I2758383128
asg196
I00
sg197
I01
sg198
I1
sg199
I0
sg200
I1
sg201
(dp1229
Vy
F10.8395548
sVx
F-5.7185649999999999
sVz
F-0.121658921
ssg203
(dp1230
Vy
F11.3547764
sVx
F-12.238150600000001
sVz
F1.53853488
ssg205
I00
sg206
(dp1231
g50
VALG RyaNoob
p1232
sg52
Nssg209
(lp1233
sg211
(lp1234
(dp1235
g50
VTL Spartan HCS
p1236
sg52
Nsasg215
I00
sg44
VPT1M42.5213129S
p1237
sg41
VDeath
p1238
sg218
I1
sa(dp1239
g41
VMedal
p1240
sg48
(dp1241
g50
VTL Eco HCS
p1242
sg52
Nssg223
I3698887726
sg44
VPT1M42.5222939S
p1243
sa(dp1244
g47
I313138863
sg41
VWeaponDrop
p1245
sg232
I11
sg53
(lp1246
I1095363701
asg44
VPT1M42.523317S
p1247
sg235
I5
sg236
VP0DT0H0M8.8333S
p1248
sg48
(dp1249
g50
VALG RyaNoob
p1250
sg52
Nssa(dp1251
g47
I4096745987
sg41
VWeaponDrop
p1252
sg232
I10
sg53
(lp1253
I2758383128
asg44
VPT1M42.5243131S
p1254
sg235
I5
sg236
VP0DT0H0M12.3500S
p1255
sg48
(dp1256
g50
VALG RyaNoob
p1257
sg52
Nssa(dp1258
g47
I313138863
sg48
(dp1259
g50
VTL Spartan HCS
p1260
sg52
Nssg53
(lp1261
I1095363701
asg41
VWeaponPickup
p1262
sg44
VPT1M50.3364122S
p1263
sa(dp1264
g47
I4096745987
sg48
(dp1265
g50
VTL Spartan HCS
p1266
sg52
Nssg53
(lp1267
I2758383128
asg41
VWeaponPickup
p1268
sg44
VPT1M50.3364122S
p1269
sa(dp1270
g41
VPlayerSpawn
p1271
sg48
(dp1272
g50
VTL Spartan HCS
p1273
sg52
Nssg44
VPT1M50.3364122S
p1274
sa(dp1275
g47
I313138863
sg48
(dp1276
g50
VALG RyaNoob
p1277
sg52
Nssg53
(lp1278
I1095363701
asg41
VWeaponPickup
p1279
sg44
VPT1M50.5364136S
p1280
sa(dp1281
g47
I4096745987
sg48
(dp1282
g50
VALG RyaNoob
p1283
sg52
Nssg53
(lp1284
I2758383128
asg41
VWeaponPickup
p1285
sg44
VPT1M50.5364136S
p1286
sa(dp1287
g41
VPlayerSpawn
p1288
sg48
(dp1289
g50
VALG RyaNoob
p1290
sg52
Nssg44
VPT1M50.5364136S
p1291
sa(dp1292
g188
I4108759423
sg189
I00
sg190
I00
sg191
(dp1293
g50
VTL StelluR
p1294
sg52
Nssg194
(lp1295
I2758383128
asg196
I00
sg197
I01
sg198
I1
sg199
I0
sg200
I1
sg201
(dp1296
Vy
F10.648720000000001
sVx
F-9.1375759999999993
sVz
F3.43239546
ssg203
(dp1297
Vy
F11.0954742
sVx
F-13.776328100000001
sVz
F0.99069499999999999
ssg205
I00
sg206
(dp1298
g50
VALGPredevonator
p1299
sg52
Nssg209
(lp1300
sg211
(lp1301
(dp1302
g50
VTL Eco HCS
p1303
sg52
Nsasg215
I01
sg44
VPT1M50.6693974S
p1304
sg41
VDeath
p1305
sg218
I1
sa(dp1306
g41
VMedal
p1307
sg48
(dp1308
g50
VTL StelluR
p1309
sg52
Nssg223
I3261908037
sg44
VPT1M50.6704381S
p1310
sa(dp1311
g47
I4096745987
sg41
VWeaponDrop
p1312
sg232
I29
sg53
(lp1313
I2758383128
asg44
VPT1M50.6714208S
p1314
sg235
I14
sg236
VP0DT0H1M11.5667S
p1315
sg48
(dp1316
g50
VALGPredevonator
p1317
sg52
Nssa(dp1318
g47
I313138863
sg41
VWeaponDrop
p1319
sg232
I0
sg53
(lp1320
I1095363701
asg44
VPT1M50.6714208S
p1321
sg235
I0
sg236
VP0DT0H0M0.4833S
p1322
sg48
(dp1323
g50
VALGPredevonator
p1324
sg52
Nssa(dp1325
g188
I4096745987
sg189
I00
sg190
I00
sg191
(dp1326
g50
VALG RyaNoob
p1327
sg52
Nssg194
(lp1328
I2758383128
asg196
I00
sg197
I01
sg198
I1
sg199
I0
sg200
I1
sg201
(dp1329
Vy
F-5.4190196999999998
sVx
F9.3869330000000009
sVz
F3.1127393200000002
ssg203
(dp1330
Vy
F-7.6524086000000002
sVx
F-2.3835139999999999
sVz
F0.54952394999999998
ssg205
I00
sg206
(dp1331
g50
VTL Danoxide
p1332
sg52
Nssg209
(lp1333
sg211
(lp1334
(dp1335
g50
VALG ContrA HCS
p1336
sg52
Nsa(dp1337
g50
VALG Heinz HCS
p1338
sg52
Nsasg215
I00
sg44
VPT1M52.8694252S
p1339
sg41
VDeath
p1340
sg218
I1
sa(dp1341
g41
VImpulse
p1342
sg48
(dp1343
g50
VALG RyaNoob
p1344
sg52
Nssg1038
I2556889090
sg44
VPT1M52.8694252S
p1345
sa(dp1346
g41
VMedal
p1347
sg48
(dp1348
g50
VALG RyaNoob
p1349
sg52
Nssg223
I2838259753
sg44
VPT1M52.8694252S
p1350
sa(dp1351
g41
VMedal
p1352
sg48
(dp1353
g50
VALG Heinz HCS
p1354
sg52
Nssg223
I824733727
sg44
VPT1M52.8704477S
p1355
sa(dp1356
g47
I524558978
sg41
VWeaponDrop
p1357
sg232
I2
sg53
(lp1358
I2758383128
asg44
VPT1M52.8714497S
p1359
sg235
I2
sg236
VP0DT0H0M10.8667S
p1360
sg48
(dp1361
g50
VTL Danoxide
p1362
sg52
Nssa(dp1363
g47
I524558978
sg41
VWeaponDrop
p1364
sg232
I0
sg53
(lp1365
I2758383128
asg44
VPT1M52.8714497S
p1366
sg235
I0
sg236
VP0DT0S
p1367
sg48
(dp1368
g50
VTL Danoxide
p1369
sg52
Nssa(dp1370
g47
I524558978
sg41
VWeaponDrop
p1371
sg232
I0
sg53
(lp1372
I2758383128
asg44
VPT1M52.8714497S
p1373
sg235
I0
sg236
VP0DT0S
p1374
sg48
(dp1375
g50
VTL Danoxide
p1376
sg52
Nssa(dp1377
g47
I4096745987
sg41
VWeaponDrop
p1378
sg232
I8
sg53
(lp1379
I2758383128
asg44
VPT1M52.8714497S
p1380
sg235
I2
sg236
VP0DT0H0M17.6167S
p1381
sg48
(dp1382
g50
VTL Danoxide
p1383
sg52
Nssa(dp1384
g47
I313138863
sg41
VWeaponDrop
p1385
sg232
I21
sg53
(lp1386
I1095363701
asg44
VPT1M54.0684411S
p1387
sg235
I7
sg236
VP0DT0H0M3.8500S
p1388
sg48
(dp1389
g50
VALG ContrA HCS
p1390
sg52
Nssa(dp1391
g47
I2133511419
sg48
(dp1392
g50
VALG ContrA HCS
p1393
sg52
Nssg53
(lp1394
I2758383128
asg41
VWeaponPickup
p1395
sg44
VPT1M54.0684411S
p1396
sa(dp1397
g188
I4096745987
sg189
I00
sg190
I01
sg191
(dp1398
g50
VTL Spartan HCS
p1399
sg52
Nssg194
(lp1400
I2758383128
asg196
I00
sg197
I00
sg198
I1
sg199
I0
sg200
I1
sg201
(dp1401
Vy
F-2.1567187300000001
sVx
F8.5757209999999997
sVz
F3.1288461700000001
ssg203
(dp1402
Vy
F-2.68667436
sVx
F8.7328539999999997
sVz
F3.3560862500000002
ssg205
I00
sg206
(dp1403
g50
VALG RyaNoob
p1404
sg52
Nssg209
(lp1405
sg211
(lp1406
sg215
I00
sg44
VPT1M55.0854566S
p1407
sg41
VDeath
p1408
sg218
I1
sa(dp1409
g41
VMedal
p1410
sg48
(dp1411
g50
VTL Spartan HCS
p1412
sg52
Nssg223
I2287626681
sg44
VPT1M55.086473S
p1413
sa(dp1414
g47
I4096745987
sg41
VWeaponDrop
p1415
sg232
I2
sg53
(lp1416
I2758383128
asg44
VPT1M55.0874789S
p1417
sg235
I2
sg236
VP0DT0H0M3.8167S
p1418
sg48
(dp1419
g50
VALG RyaNoob
p1420
sg52
Nssa(dp1421
g47
I4096745987
sg41
VWeaponDrop
p1422
sg232
I0
sg53
(lp1423
I2758383128
asg44
VPT1M55.0874789S
p1424
sg235
I0
sg236
VP0DT0S
p1425
sg48
(dp1426
g50
VALG RyaNoob
p1427
sg52
Nssa(dp1428
g47
I313138863
sg41
VWeaponDrop
p1429
sg232
I0
sg53
(lp1430
I1095363701
asg44
VPT1M55.0874789S
p1431
sg235
I0
sg236
VP0DT0H0M0.7333S
p1432
sg48
(dp1433
g50
VALG RyaNoob
p1434
sg52
Nssa(dp1435
g47
I313138863
sg48
(dp1436
g50
VALGPredevonator
p1437
sg52
Nssg53
(lp1438
I1095363701
asg41
VWeaponPickup
p1439
sg44
VPT1M58.686502S
p1440
sa(dp1441
g47
I4096745987
sg48
(dp1442
g50
VALGPredevonator
p1443
sg52
Nssg53
(lp1444
I2758383128
asg41
VWeaponPickup
p1445
sg44
VPT1M58.686502S
p1446
sa(dp1447
g41
VPlayerSpawn
p1448
sg48
(dp1449
g50
VALGPredevonator
p1450
sg52
Nssg44
VPT1M58.686502S
p1451
sa(dp1452
g47
I4096745987
sg41
VWeaponDrop
p1453
sg232
I1
sg53
(lp1454
I2758383128
asg44
VPT1M59.7175398S
p1455
sg235
I0
sg236
VP0DT0H0M8.4500S
p1456
sg48
(dp1457
g50
VTL Spartan HCS
p1458
sg52
Nssa(dp1459
g47
I4108759423
sg48
(dp1460
g50
VTL Spartan HCS
p1461
sg52
Nssg53
(lp1462
I2758383128
asg41
VWeaponPickup
p1463
sg44
VPT1M59.7175398S
p1464
sa(dp1465
g47
I313138863
sg48
(dp1466
g50
VTL Danoxide
p1467
sg52
Nssg53
(lp1468
I1095363701
asg41
VWeaponPickup
p1469
sg44
VPT2M0.886551S
p1470
sa(dp1471
g47
I4096745987
sg48
(dp1472
g50
VTL Danoxide
p1473
sg52
Nssg53
(lp1474
I2758383128
asg41
VWeaponPickup
p1475
sg44
VPT2M0.886551S
p1476
sa(dp1477
g41
VPlayerSpawn
p1478
sg48
(dp1479
g50
VTL Danoxide
p1480
sg52
Nssg44
VPT2M0.886551S
p1481
sa(dp1482
g47
I313138863
sg48
(dp1483
g50
VALG RyaNoob
p1484
sg52
Nssg53
(lp1485
I1095363701
asg41
VWeaponPickup
p1486
sg44
VPT2M3.1025812S
p1487
sa(dp1488
g47
I4096745987
sg48
(dp1489
g50
VALG RyaNoob
p1490
sg52
Nssg53
(lp1491
I2758383128
asg41
VWeaponPickup
p1492
sg44
VPT2M3.1025812S
p1493
sa(dp1494
g41
VPlayerSpawn
p1495
sg48
(dp1496
g50
VALG RyaNoob
p1497
sg52
Nssg44
VPT2M3.1025812S
p1498
sa(dp1499
g47
I313138863
sg41
VWeaponDrop
p1500
sg232
I0
sg53
(lp1501
I1095363701
asg44
VPT2M4.3676018S
p1502
sg235
I0
sg236
VP0DT0H0M1.3500S
p1503
sg48
(dp1504
g50
VTL Danoxide
p1505
sg52
Nssa(dp1506
g47
I2133511419
sg48
(dp1507
g50
VTL Danoxide
p1508
sg52
Nssg53
(lp1509
I2758383128
asg41
VWeaponPickup
p1510
sg44
VPT2M4.3676018S
p1511
sa(dp1512
g188
I4108759423
sg189
I00
sg190
I00
sg191
(dp1513
g50
VTL StelluR
p1514
sg52
Nssg194
(lp1515
I2758383128
asg196
I00
sg197
I01
sg198
I1
sg199
I0
sg200
I1
sg201
(dp1516
Vy
F1.8865970000000001
sVx
F-14.125938400000001
sVz
F4.3540382400000004
ssg203
(dp1517
Vy
F-11.643471699999999
sVx
F-3.6578650000000001
sVz
F2.2475993600000002
ssg205
I00
sg206
(dp1518
g50
VALGPredevonator
p1519
sg52
Nssg209
(lp1520
sg211
(lp1521
(dp1522
g50
VTL Eco HCS
p1523
sg52
Nsasg215
I01
sg44
VPT2M10.551678S
p1524
sg41
VDeath
p1525
sg218
I1
sa(dp1526
g41
VMedal
p1527
sg48
(dp1528
g50
VTL StelluR
p1529
sg52
Nssg223
I3261908037
sg44
VPT2M10.5536757S
p1530
sa(dp1531
g47
I313138863
sg41
VWeaponDrop
p1532
sg232
I0
sg53
(lp1533
I1095363701
asg44
VPT2M10.554654S
p1534
sg235
I0
sg236
VP0DT0H0M0.4167S
p1535
sg48
(dp1536
g50
VALGPredevonator
p1537
sg52
Nssa(dp1538
g47
I4096745987
sg41
VWeaponDrop
p1539
sg232
I7
sg53
(lp1540
I2758383128
asg44
VPT2M10.554654S
p1541
sg235
I4
sg236
VP0DT0H0M11.4500S
p1542
sg48
(dp1543
g50
VALGPredevonator
p1544
sg52
Nssa(dp1545
g47
I2133511419
sg41
VWeaponDrop
p1546
sg232
I0
sg53
(lp1547
I2758383128
asg44
VPT2M13.7337174S
p1548
sg235
I0
sg236
VP0DT0H0M0.5667S
p1549
sg48
(dp1550
g50
VTL Eco HCS
p1551
sg52
Nssa(dp1552
g47
I2650887244
sg48
(dp1553
g50
VTL Eco HCS
p1554
sg52
Nssg53
(lp1555
I2758383128
asg41
VWeaponPickup
p1556
sg44
VPT2M13.7347171S
p1557
sa(dp1558
g47
I4096745987
sg41
VWeaponDrop
p1559
sg232
I9
sg53
(lp1560
I2758383128
asg44
VPT2M14.433721S
p1561
sg235
I5
sg236
VP0DT0H0M15.2333S
p1562
sg48
(dp1563
g50
VTL StelluR
p1564
sg52
Nssa(dp1565
g47
I424645655
sg48
(dp1566
g50
VTL StelluR
p1567
sg52
Nssg53
(lp1568
I1327094800
asg41
VWeaponPickup
p1569
sg44
VPT2M14.4347248S
p1570
sa(dp1571
g188
I2133511419
sg189
I00
sg190
I00
sg191
(dp1572
g50
VALG ContrA HCS
p1573
sg52
Nssg194
(lp1574
I2758383128
asg196
I00
sg197
I01
sg198
I1
sg199
I0
sg200
I1
sg201
(dp1575
Vy
F-2.58635831
sVx
F-19.654827099999999
sVz
F3.8629784599999999
ssg203
(dp1576
Vy
F-1.03466189
sVx
F-15.3229294
sVz
F3.1324527299999998
ssg205
I00
sg206
(dp1577
g50
VTL Danoxide
p1578
sg52
Nssg209
(lp1579
sg211
(lp1580
(dp1581
g50
VALG Heinz HCS
p1582
sg52
Nsasg215
I00
sg44
VPT2M15.0187087S
p1583
sg41
VDeath
p1584
sg218
I1
sa(dp1585
g47
I2133511419
sg41
VWeaponDrop
p1586
sg232
I7
sg53
(lp1587
I2758383128
asg44
VPT2M15.0207321S
p1588
sg235
I0
sg236
VP0DT0H0M1.5500S
p1589
sg48
(dp1590
g50
VTL Danoxide
p1591
sg52
Nssa(dp1592
g47
I4096745987
sg41
VWeaponDrop
p1593
sg232
I4
sg53
(lp1594
I2758383128
asg44
VPT2M15.0207321S
p1595
sg235
I1
sg236
VP0DT0H0M11.2333S
p1596
sg48
(dp1597
g50
VTL Danoxide
p1598
sg52
Nssa(dp1599
g188
I424645655
sg189
I00
sg190
I00
sg191
(dp1600
g50
VTL StelluR
p1601
sg52
Nssg194
(lp1602
I1327094800
asg196
I00
sg197
I01
sg198
I1
sg199
I0
sg200
I1
sg201
(dp1603
Vy
F0.81759727000000004
sVx
F-14.44633
sVz
F3.1327731600000002
ssg203
(dp1604
Vy
F-1.61023593
sVx
F-19.189209000000002
sVz
F3.3232774699999998
ssg205
I00
sg206
(dp1605
g50
VALG ContrA HCS
p1606
sg52
Nssg209
(lp1607
sg211
(lp1608
(dp1609
g50
VTL Danoxide
p1610
sg52
Nsasg215
I00
sg44
VPT2M15.4687147S
p1611
sg41
VDeath
p1612
sg218
I1
sa(dp1613
g41
VMedal
p1614
sg48
(dp1615
g50
VTL StelluR
p1616
sg52
Nssg223
I2078758684
sg44
VPT2M15.4697159S
p1617
sa(dp1618
g47
I2133511419
sg41
VWeaponDrop
p1619
sg232
I27
sg53
(lp1620
I2758383128
asg44
VPT2M15.4697159S
p1621
sg235
I11
sg236
VP0DT0H0M4.9000S
p1622
sg48
(dp1623
g50
VALG ContrA HCS
p1624
sg52
Nssa(dp1625
g47
I4096745987
sg41
VWeaponDrop
p1626
sg232
I12
sg53
(lp1627
I2758383128
asg44
VPT2M15.4697159S
p1628
sg235
I6
sg236
VP0DT0H0M28.0667S
p1629
sg48
(dp1630
g50
VALG ContrA HCS
p1631
sg52
Nssa(dp1632
g47
I313138863
sg48
(dp1633
g50
VALGPredevonator
p1634
sg52
Nssg53
(lp1635
I1095363701
asg41
VWeaponPickup
p1636
sg44
VPT2M18.5687554S
p1637
sa(dp1638
g47
I4096745987
sg48
(dp1639
g50
VALGPredevonator
p1640
sg52
Nssg53
(lp1641
I2758383128
asg41
VWeaponPickup
p1642
sg44
VPT2M18.5687554S
p1643
sa(dp1644
g41
VPlayerSpawn
p1645
sg48
(dp1646
g50
VALGPredevonator
p1647
sg52
Nssg44
VPT2M18.5687554S
p1648
sa(dp1649
g188
I424645655
sg189
I00
sg190
I00
sg191
(dp1650
g50
VTL StelluR
p1651
sg52
Nssg194
(lp1652
I1327094800
asg196
I00
sg197
I01
sg198
I1
sg199
I0
sg200
I1
sg201
(dp1653
Vy
F4.6510877600000002
sVx
F-19.2147255
sVz
F2.8831632100000002
ssg203
(dp1654
Vy
F-1.735832
sVx
F-17.801942799999999
sVz
F4.0910954500000001
ssg205
I00
sg206
(dp1655
g50
VALG Heinz HCS
p1656
sg52
Nssg209
(lp1657
sg211
(lp1658
(dp1659
g50
VTL Spartan HCS
p1660
sg52
Nsa(dp1661
g50
VTL Eco HCS
p1662
sg52
Nsasg215
I01
sg44
VPT2M19.0687618S
p1663
sg41
VDeath
p1664
sg218
I1
sa(dp1665
g41
VMedal
p1666
sg48
(dp1667
g50
VTL StelluR
p1668
sg52
Nssg223
I3261908037
sg44
VPT2M19.069762S
p1669
sa(dp1670
g41
VMedal
p1671
sg48
(dp1672
g50
VTL StelluR
p1673
sg52
Nssg223
I2430242797
sg44
VPT2M19.069762S
p1674
sa(dp1675
g41
VMedal
p1676
sg48
(dp1677
g50
VTL StelluR
p1678
sg52
Nssg223
I2763748638
sg44
VPT2M19.069762S
p1679
sa(dp1680
g47
I313138863
sg41
VWeaponDrop
p1681
sg232
I16
sg53
(lp1682
I1095363701
asg44
VPT2M19.0707623S
p1683
sg235
I9
sg236
VP0DT0H0M4.3333S
p1684
sg48
(dp1685
g50
VALG Heinz HCS
p1686
sg52
Nssa(dp1687
g47
I4096745987
sg41
VWeaponDrop
p1688
sg232
I11
sg53
(lp1689
I2758383128
asg44
VPT2M19.0707623S
p1690
sg235
I4
sg236
VP0DT0H0M32.2167S
p1691
sg48
(dp1692
g50
VALG Heinz HCS
p1693
sg52
Nssa(dp1694
g47
I313138863
sg41
VWeaponDrop
p1695
sg232
I0
sg53
(lp1696
I1095363701
asg44
VPT2M21.3668142S
p1697
sg235
I0
sg236
VP0DT0H0M0.5167S
p1698
sg48
(dp1699
g50
VALGPredevonator
p1700
sg52
Nssa(dp1701
g47
I2133511419
sg48
(dp1702
g50
VALGPredevonator
p1703
sg52
Nssg53
(lp1704
I2758383128
asg41
VWeaponPickup
p1705
sg44
VPT2M21.3678033S
p1706
sa(dp1707
g41
VMedal
p1708
sg48
(dp1709
g50
VTL StelluR
p1710
sg52
Nssg223
I3400287617
sg44
VPT2M22.8508209S
p1711
sa(dp1712
g47
I313138863
sg48
(dp1713
g50
VTL Danoxide
p1714
sg52
Nssg53
(lp1715
I1095363701
asg41
VWeaponPickup
p1716
sg44
VPT2M23.035835S
p1717
sa(dp1718
g47
I4096745987
sg48
(dp1719
g50
VTL Danoxide
p1720
sg52
Nssg53
(lp1721
I2758383128
asg41
VWeaponPickup
p1722
sg44
VPT2M23.035835S
p1723
sa(dp1724
g41
VPlayerSpawn
p1725
sg48
(dp1726
g50
VTL Danoxide
p1727
sg52
Nssg44
VPT2M23.035835S
p1728
sa(dp1729
g47
I313138863
sg48
(dp1730
g50
VALG ContrA HCS
p1731
sg52
Nssg53
(lp1732
I1095363701
asg41
VWeaponPickup
p1733
sg44
VPT2M23.4858393S
p1734
sa(dp1735
g47
I4096745987
sg48
(dp1736
g50
VALG ContrA HCS
p1737
sg52
Nssg53
(lp1738
I2758383128
asg41
VWeaponPickup
p1739
sg44
VPT2M23.4858393S
p1740
sa(dp1741
g41
VPlayerSpawn
p1742
sg48
(dp1743
g50
VALG ContrA HCS
p1744
sg52
Nssg44
VPT2M23.4858393S
p1745
sa(dp1746
g47
I313138863
sg41
VWeaponDrop
p1747
sg232
I0
sg53
(lp1748
I1095363701
asg44
VPT2M23.8838522S
p1749
sg235
I0
sg236
VP0DT0H0M4.1333S
p1750
sg48
(dp1751
g50
VTL Spartan HCS
p1752
sg52
Nssa(dp1753
g47
I2670072722
sg48
(dp1754
g50
VTL Spartan HCS
p1755
sg52
Nssg53
(lp1756
I2758383128
asg41
VWeaponPickupPad
p1757
sg44
VPT2M23.8838522S
p1758
sa(dp1759
g47
I2670072722
sg48
(dp1760
g50
VTL Spartan HCS
p1761
sg52
Nssg53
(lp1762
I2758383128
asg41
VWeaponPickup
p1763
sg44
VPT2M23.8838522S
p1764
sa(dp1765
g47
I313138863
sg48
(dp1766
g50
VALG Heinz HCS
p1767
sg52
Nssg53
(lp1768
I1095363701
asg41
VWeaponPickup
p1769
sg44
VPT2M27.0858813S
p1770
sa(dp1771
g47
I4096745987
sg48
(dp1772
g50
VALG Heinz HCS
p1773
sg52
Nssg53
(lp1774
I2758383128
asg41
VWeaponPickup
p1775
sg44
VPT2M27.0858813S
p1776
sa(dp1777
g41
VPlayerSpawn
p1778
sg48
(dp1779
g50
VALG Heinz HCS
p1780
sg52
Nssg44
VPT2M27.0858813S
p1781
sa(dp1782
g47
I4108759423
sg41
VWeaponDrop
p1783
sg232
I35
sg53
(lp1784
I2758383128
asg44
VPT2M27.4168956S
p1785
sg235
I13
sg236
VP0DT0H0M36.2833S
p1786
sg48
(dp1787
g50
VTL StelluR
p1788
sg52
Nssa(dp1789
g47
I2133511419
sg48
(dp1790
g50
VTL StelluR
p1791
sg52
Nssg53
(lp1792
I2758383128
asg41
VWeaponPickup
p1793
sg44
VPT2M27.4168956S
p1794
sa(dp1795
g188
I4108759423
sg189
I00
sg190
I00
sg191
(dp1796
g50
VTL Eco HCS
p1797
sg52
Nssg194
(lp1798
I2758383128
asg196
I00
sg197
I01
sg198
I1
sg199
I0
sg200
I1
sg201
(dp1799
Vy
F10.495512
sVx
F7.7914714800000002
sVz
F3.4316770000000001
ssg203
(dp1800
Vy
F-2.3644244699999999
sVx
F9.2637160000000005
sVz
F3.1694448
ssg205
I00
sg206
(dp1801
g50
VALG ContrA HCS
p1802
sg52
Nssg209
(lp1803
sg211
(lp1804
(dp1805
g50
VTL Spartan HCS
p1806
sg52
Nsasg215
I00
sg44
VPT2M29.3018931S
p1807
sg41
VDeath
p1808
sg218
I1
sa(dp1809
g47
I313138863
sg41
VWeaponDrop
p1810
sg232
I0
sg53
(lp1811
I1095363701
asg44
VPT2M29.3029149S
p1812
sg235
I0
sg236
VP0DT0H0M0.5667S
p1813
sg48
(dp1814
g50
VALG ContrA HCS
p1815
sg52
Nssa(dp1816
g47
I4096745987
sg41
VWeaponDrop
p1817
sg232
I4
sg53
(lp1818
I2758383128
asg44
VPT2M29.3029149S
p1819
sg235
I2
sg236
VP0DT0H0M5.2500S
p1820
sg48
(dp1821
g50
VALG ContrA HCS
p1822
sg52
Nssa(dp1823
g188
I2133511419
sg189
I00
sg190
I01
sg191
(dp1824
g50
VALGPredevonator
p1825
sg52
Nssg194
(lp1826
I2758383128
asg196
I00
sg197
I00
sg198
I1
sg199
I0
sg200
I1
sg201
(dp1827
Vy
F-3.16774464
sVx
F-19.662874200000001
sVz
F2.9849956
ssg203
(dp1828
Vy
F-2.71408987
sVx
F-19.5369587
sVz
F3.0330088100000001
ssg205
I00
sg206
(dp1829
g50
VTL StelluR
p1830
sg52
Nssg209
(lp1831
sg211
(lp1832
sg215
I00
sg44
VPT2M30.4179078S
p1833
sg41
VDeath
p1834
sg218
I1
sa(dp1835
g41
VMedal
p1836
sg48
(dp1837
g50
VALGPredevonator
p1838
sg52
Nssg223
I2287626681
sg44
VPT2M30.4189078S
p1839
sa(dp1840
g47
I2133511419
sg41
VWeaponDrop
p1841
sg232
I6
sg53
(lp1842
I2758383128
asg44
VPT2M30.4200151S
p1843
sg235
I3
sg236
VP0DT0H0M2.0000S
p1844
sg48
(dp1845
g50
VTL StelluR
p1846
sg52
Nssa(dp1847
g47
I2133511419
sg41
VWeaponDrop
p1848
sg232
I0
sg53
(lp1849
I2758383128
asg44
VPT2M30.4200151S
p1850
sg235
I0
sg236
VP0DT0S
p1851
sg48
(dp1852
g50
VTL StelluR
p1853
sg52
Nssa(dp1854
g47
I424645655
sg41
VWeaponDrop
p1855
sg232
I12
sg53
(lp1856
I1327094800
asg44
VPT2M30.4209081S
p1857
sg235
I6
sg236
VP0DT0H0M10.3333S
p1858
sg48
(dp1859
g50
VTL StelluR
p1860
sg52
Nssa(dp1861
g41
VMedal
p1862
sg48
(dp1863
g50
VTL Eco HCS
p1864
sg52
Nssg223
I3400287617
sg44
VPT2M33.0840637S
p1865
sa(dp1866
g47
I313138863
sg41
VWeaponDrop
p1867
sg232
I0
sg53
(lp1868
I1095363701
asg44
VPT2M33.3669734S
p1869
sg235
I0
sg236
VP0DT0H0M1.2333S
p1870
sg48
(dp1871
g50
VALG RyaNoob
p1872
sg52
Nssa(dp1873
g47
I1579758889
sg48
(dp1874
g50
VALG RyaNoob
p1875
sg52
Nssg53
(lp1876
I2758383128
asg41
VWeaponPickup
p1877
sg44
VPT2M33.3669734S
p1878
sa(dp1879
g41
VMedal
p1880
sg48
(dp1881
g50
VALGPredevonator
p1882
sg52
Nssg223
I3400287617
sg44
VPT2M34.2509548S
p1883
sa(dp1884
g188
I4108759423
sg189
I00
sg190
I00
sg191
(dp1885
g50
VTL Spartan HCS
p1886
sg52
Nssg194
(lp1887
I2758383128
asg196
I00
sg197
I01
sg198
I1
sg199
I0
sg200
I1
sg201
(dp1888
Vy
F-7.7794942899999997
sVx
F7.8740949999999996
sVz
F4.1840619999999999
ssg203
(dp1889
Vy
F-4.75430536
sVx
F-20.160327899999999
sVz
F2.7011856999999999
ssg205
I00
sg206
(dp1890
g50
VALGPredevonator
p1891
sg52
Nssg209
(lp1892
sg211
(lp1893
(dp1894
g50
VTL StelluR
p1895
sg52
Nsasg215
I01
sg44
VPT2M34.7179672S
p1896
sg41
VDeath
p1897
sg218
I1
sa(dp1898
g41
VMedal
p1899
sg48
(dp1900
g50
VTL Spartan HCS
p1901
sg52
Nssg223
I3261908037
sg44
VPT2M34.7199788S
p1902
sa(dp1903
g47
I4096745987
sg41
VWeaponDrop
p1904
sg232
I0
sg53
(lp1905
I2758383128
asg44
VPT2M34.7199788S
p1906
sg235
I0
sg236
VP0DT0H0M11.3333S
p1907
sg48
(dp1908
g50
VALGPredevonator
p1909
sg52
Nssa(dp1910
g47
I2133511419
sg41
VWeaponDrop
p1911
sg232
I13
sg53
(lp1912
I2758383128
asg44
VPT2M34.7209875S
p1913
sg235
I7
sg236
VP0DT0H0M4.3000S
p1914
sg48
(dp1915
g50
VALGPredevonator
p1916
sg52
Nssa(dp1917
g47
I2133511419
sg41
VWeaponDrop
p1918
sg232
I0
sg53
(lp1919
I2758383128
asg44
VPT2M34.7209875S
p1920
sg235
I0
sg236
VP0DT0S
p1921
sg48
(dp1922
g50
VALGPredevonator
p1923
sg52
Nssa(dp1924
g47
I313138863
sg48
(dp1925
g50
VALG ContrA HCS
p1926
sg52
Nssg53
(lp1927
I1095363701
asg41
VWeaponPickup
p1928
sg44
VPT2M37.3179946S
p1929
sa(dp1930
g47
I4096745987
sg48
(dp1931
g50
VALG ContrA HCS
p1932
sg52
Nssg53
(lp1933
I2758383128
asg41
VWeaponPickup
p1934
sg44
VPT2M37.3190163S
p1935
sa(dp1936
g41
VPlayerSpawn
p1937
sg48
(dp1938
g50
VALG ContrA HCS
p1939
sg52
Nssg44
VPT2M37.3190163S
p1940
sa(dp1941
g47
I313138863
sg48
(dp1942
g50
VTL StelluR
p1943
sg52
Nssg53
(lp1944
I1095363701
asg41
VWeaponPickup
p1945
sg44
VPT2M38.4350326S
p1946
sa(dp1947
g47
I4096745987
sg48
(dp1948
g50
VTL StelluR
p1949
sg52
Nssg53
(lp1950
I2758383128
asg41
VWeaponPickup
p1951
sg44
VPT2M38.4350326S
p1952
sa(dp1953
g41
VPlayerSpawn
p1954
sg48
(dp1955
g50
VTL StelluR
p1956
sg52
Nssg44
VPT2M38.4350326S
p1957
sa(dp1958
g47
I2492868984
sg48
(dp1959
g50
VALG Heinz HCS
p1960
sg52
Nssg53
(lp1961
I2758383128
asg41
VWeaponPickup
p1962
sg44
VPT2M39.3180199S
p1963
sa(dp1964
g188
I4108759423
sg189
I00
sg190
I00
sg191
(dp1965
g50
VTL Eco HCS
p1966
sg52
Nssg194
(lp1967
I2758383128
asg196
I00
sg197
I01
sg198
I1
sg199
I0
sg200
I1
sg201
(dp1968
Vy
F11.336460000000001
sVx
F-5.583005
sVz
F-0.13653542099999999
ssg203
(dp1969
Vy
F11.0921793
sVx
F-11.240845699999999
sVz
F0.26340258100000002
ssg205
I00
sg206
(dp1970
g50
VALG RyaNoob
p1971
sg52
Nssg209
(lp1972
sg211
(lp1973
(dp1974
g50
VTL Spartan HCS
p1975
sg52
Nsasg215
I01
sg44
VPT2M39.4350225S
p1976
sg41
VDeath
p1977
sg218
I1
sa(dp1978
g41
VImpulse
p1979
sg48
(dp1980
g50
VTL Eco HCS
p1981
sg52
Nssg1038
I2556889090
sg44
VPT2M39.4350225S
p1982
sa(dp1983
g41
VMedal
p1984
sg48
(dp1985
g50
VTL Eco HCS
p1986
sg52
Nssg223
I2838259753
sg44
VPT2M39.4350225S
p1987
sa(dp1988
g41
VMedal
p1989
sg48
(dp1990
g50
VTL Danoxide
p1991
sg52
Nssg223
I824733727
sg44
VPT2M39.436042S
p1992
sa(dp1993
g41
VMedal
p1994
sg48
(dp1995
g50
VTL Eco HCS
p1996
sg52
Nssg223
I3261908037
sg44
VPT2M39.436042S
p1997
sa(dp1998
g47
I1579758889
sg41
VWeaponDrop
p1999
sg232
I0
sg53
(lp2000
I2758383128
asg44
VPT2M39.436042S
p2001
sg235
I0
sg236
VP0DT0H0M1.3500S
p2002
sg48
(dp2003
g50
VALG RyaNoob
p2004
sg52
Nssa(dp2005
g47
I4096745987
sg41
VWeaponDrop
p2006
sg232
I5
sg53
(lp2007
I2758383128
asg44
VPT2M39.436042S
p2008
sg235
I4
sg236
VP0DT0H0M33.7500S
p2009
sg48
(dp2010
g50
VALG RyaNoob
p2011
sg52
Nssa(dp2012
g47
I2492868984
sg41
VWeaponDrop
p2013
sg232
I0
sg53
(lp2014
I2758383128
asg44
VPT2M40.4690357S
p2015
sg235
I0
sg236
VP0DT0H0M1.0000S
p2016
sg48
(dp2017
g50
VALG Heinz HCS
p2018
sg52
Nssa(dp2019
g47
I313138863
sg41
VWeaponDrop
p2020
sg232
I0
sg53
(lp2021
I1095363701
asg44
VPT2M40.9830767S
p2022
sg235
I0
sg236
VP0DT0H0M2.0667S
p2023
sg48
(dp2024
g50
VTL Danoxide
p2025
sg52
Nssa(dp2026
g47
I2133511419
sg48
(dp2027
g50
VTL Danoxide
p2028
sg52
Nssg53
(lp2029
I2758383128
asg41
VWeaponPickup
p2030
sg44
VPT2M40.9830767S
p2031
sa(dp2032
g188
I4108759423
sg189
I00
sg190
I00
sg191
(dp2033
g50
VTL Eco HCS
p2034
sg52
Nssg194
(lp2035
I2758383128
asg196
I00
sg197
I01
sg198
I1
sg199
I0
sg200
I1
sg201
(dp2036
Vy
F10.489501000000001
sVx
F-13.147647900000001
sVz
F0.70945775499999997
ssg203
(dp2037
Vy
F1.99619842
sVx
F-16.620492899999999
sVz
F0.57220079999999995
ssg205
I00
sg206
(dp2038
g50
VALG Heinz HCS
p2039
sg52
Nssg209
(lp2040
sg211
(lp2041
(dp2042
g50
VTL Spartan HCS
p2043
sg52
Nsasg215
I01
sg44
VPT2M42.668063S
p2044
sg41
VDeath
p2045
sg218
I1
sa(dp2046
g41
VMedal
p2047
sg48
(dp2048
g50
VTL Spartan HCS
p2049
sg52
Nssg223
I3744028405
sg44
VPT2M42.668063S
p2050
sa(dp2051
g41
VMedal
p2052
sg48
(dp2053
g50
VTL Eco HCS
p2054
sg52
Nssg223
I2494364276
sg44
VPT2M42.6690653S
p2055
sa(dp2056
g41
VMedal
p2057
sg48
(dp2058
g50
VTL Eco HCS
p2059
sg52
Nssg223
I3261908037
sg44
VPT2M42.6690653S
p2060
sa(dp2061
g41
VMedal
p2062
sg48
(dp2063
g50
VTL Eco HCS
p2064
sg52
Nssg223
I2430242797
sg44
VPT2M42.6700848S
p2065
sa(dp2066
g41
VMedal
p2067
sg48
(dp2068
g50
VTL Eco HCS
p2069
sg52
Nssg223
I2078758684
sg44
VPT2M42.6700848S
p2070
sa(dp2071
g47
I313138863
sg41
VWeaponDrop
p2072
sg232
I0
sg53
(lp2073
I1095363701
asg44
VPT2M42.6700848S
p2074
sg235
I0
sg236
VP0DT0H0M0.7167S
p2075
sg48
(dp2076
g50
VALG Heinz HCS
p2077
sg52
Nssa(dp2078
g47
I4096745987
sg41
VWeaponDrop
p2079
sg232
I4
sg53
(lp2080
I2758383128
asg44
VPT2M42.6700848S
p2081
sg235
I2
sg236
VP0DT0H0M13.8500S
p2082
sg48
(dp2083
g50
VALG Heinz HCS
p2084
sg52
Nssa(dp2085
g47
I313138863
sg48
(dp2086
g50
VALGPredevonator
p2087
sg52
Nssg53
(lp2088
I1095363701
asg41
VWeaponPickup
p2089
sg44
VPT2M42.7350862S
p2090
sa(dp2091
g47
I4096745987
sg48
(dp2092
g50
VALGPredevonator
p2093
sg52
Nssg53
(lp2094
I2758383128
asg41
VWeaponPickup
p2095
sg44
VPT2M42.7350862S
p2096
sa(dp2097
g41
VPlayerSpawn
p2098
sg48
(dp2099
g50
VALGPredevonator
p2100
sg52
Nssg44
VPT2M42.7350862S
p2101
sa(dp2102
g47
I313138863
sg41
VWeaponDrop
p2103
sg232
I0
sg53
(lp2104
I1095363701
asg44
VPT2M42.7670643S
p2105
sg235
I0
sg236
VP0DT0H0M1.7667S
p2106
sg48
(dp2107
g50
VTL StelluR
p2108
sg52
Nssa(dp2109
g47
I4108759423
sg48
(dp2110
g50
VTL StelluR
p2111
sg52
Nssg53
(lp2112
I2758383128
asg41
VWeaponPickup
p2113
sg44
VPT2M42.7670643S
p2114
sa(dp2115
g47
I4108759423
sg41
VWeaponDrop
p2116
sg232
I80
sg53
(lp2117
I2758383128
asg44
VPT2M45.9161147S
p2118
sg235
I41
sg236
VP0DT0H1M26.2333S
p2119
sg48
(dp2120
g50
VTL Eco HCS
p2121
sg52
Nssa(dp2122
g47
I4096745987
sg48
(dp2123
g50
VTL Eco HCS
p2124
sg52
Nssg53
(lp2125
I2758383128
asg41
VWeaponPickup
p2126
sg44
VPT2M45.9171046S
p2127
sa(dp2128
g41
VMedal
p2129
sg48
(dp2130
g50
VTL Eco HCS
p2131
sg52
Nssg223
I3400287617
sg44
VPT2M46.9831204S
p2132
sa(dp2133
g47
I313138863
sg48
(dp2134
g50
VALG RyaNoob
p2135
sg52
Nssg53
(lp2136
I1095363701
asg41
VWeaponPickup
p2137
sg44
VPT2M47.4521482S
p2138
sa(dp2139
g47
I4096745987
sg48
(dp2140
g50
VALG RyaNoob
p2141
sg52
Nssg53
(lp2142
I2758383128
asg41
VWeaponPickup
p2143
sg44
VPT2M47.4521482S
p2144
sa(dp2145
g41
VPlayerSpawn
p2146
sg48
(dp2147
g50
VALG RyaNoob
p2148
sg52
Nssg44
VPT2M47.4521482S
p2149
sa(dp2150
g188
I4096745987
sg189
I00
sg190
I01
sg191
(dp2151
g50
VALGPredevonator
p2152
sg52
Nssg194
(lp2153
I2758383128
asg196
I00
sg197
I00
sg198
I1
sg199
I0
sg200
I1
sg201
(dp2154
Vy
F-12.132391
sVx
F-13.748889
sVz
F1.28130126
ssg203
(dp2155
Vy
F-11.7135067
sVx
F-13.891726500000001
sVz
F1.170534
ssg205
I00
sg206
(dp2156
g50
VTL Spartan HCS
p2157
sg52
Nssg209
(lp2158
sg211
(lp2159
sg215
I00
sg44
VPT2M47.4851249S
p2160
sg41
VDeath
p2161
sg218
I1
sa(dp2162
g41
VMedal
p2163
sg48
(dp2164
g50
VALGPredevonator
p2165
sg52
Nssg223
I2287626681
sg44
VPT2M47.4861439S
p2166
sa(dp2167
g47
I2670072722
sg41
VWeaponDrop
p2168
sg232
I5
sg53
(lp2169
I2758383128
asg44
VPT2M47.487148S
p2170
sg235
I5
sg236
VP0DT0H0M11.2500S
p2171
sg48
(dp2172
g50
VTL Spartan HCS
p2173
sg52
Nssa(dp2174
g47
I4108759423
sg41
VWeaponDrop
p2175
sg232
I28
sg53
(lp2176
I2758383128
asg44
VPT2M47.487148S
p2177
sg235
I15
sg236
VP0DT0H0M33.3167S
p2178
sg48
(dp2179
g50
VTL Spartan HCS
p2180
sg52
Nssa(dp2181
g188
I4096745987
sg189
I00
sg190
I00
sg191
(dp2182
g50
VTL Danoxide
p2183
sg52
Nssg194
(lp2184
I2758383128
asg196
I00
sg197
I01
sg198
I1
sg199
I0
sg200
I1
sg201
(dp2185
Vy
F-5.7822503999999997
sVx
F-15.7512951
sVz
F0.238455534
ssg203
(dp2186
Vy
F-10.588425600000001
sVx
F-15.3150978
sVz
F2.1620919999999999
ssg205
I00
sg206
(dp2187
g50
VALGPredevonator
p2188
sg52
Nssg209
(lp2189
sg211
(lp2190
(dp2191
g50
VTL Spartan HCS
p2192
sg52
Nsasg215
I01
sg44
VPT2M48.6341393S
p2193
sg41
VDeath
p2194
sg218
I1
sa(dp2195
g41
VMedal
p2196
sg48
(dp2197
g50
VTL Danoxide
p2198
sg52
Nssg223
I3261908037
sg44
VPT2M48.636163S
p2199
sa(dp2200
g47
I313138863
sg41
VWeaponDrop
p2201
sg232
I0
sg53
(lp2202
I1095363701
asg44
VPT2M48.636163S
p2203
sg235
I0
sg236
VP0DT0H0M0.7833S
p2204
sg48
(dp2205
g50
VALGPredevonator
p2206
sg52
Nssa(dp2207
g47
I4096745987
sg41
VWeaponDrop
p2208
sg232
I8
sg53
(lp2209
I2758383128
asg44
VPT2M48.636163S
p2210
sg235
I7
sg236
VP0DT0H0M5.1167S
p2211
sg48
(dp2212
g50
VALGPredevonator
p2213
sg52
Nssa(dp2214
g47
I4096745987
sg41
VWeaponDrop
p2215
sg232
I0
sg53
(lp2216
I2758383128
asg44
VPT2M48.636163S
p2217
sg235
I0
sg236
VP0DT0S
p2218
sg48
(dp2219
g50
VALGPredevonator
p2220
sg52
Nssa(dp2221
g47
I313138863
sg48
(dp2222
g50
VALG Heinz HCS
p2223
sg52
Nssg53
(lp2224
I1095363701
asg41
VWeaponPickup
p2225
sg44
VPT2M50.6861664S
p2226
sa(dp2227
g47
I4096745987
sg48
(dp2228
g50
VALG Heinz HCS
p2229
sg52
Nssg53
(lp2230
I2758383128
asg41
VWeaponPickup
p2231
sg44
VPT2M50.6871833S
p2232
sa(dp2233
g41
VPlayerSpawn
p2234
sg48
(dp2235
g50
VALG Heinz HCS
p2236
sg52
Nssg44
VPT2M50.6871833S
p2237
sa(dp2238
g188
I4096745987
sg189
I00
sg190
I00
sg191
(dp2239
g50
VALG ContrA HCS
p2240
sg52
Nssg194
(lp2241
I2758383128
asg196
I00
sg197
I01
sg198
I1
sg199
I0
sg200
I1
sg201
(dp2242
Vy
F-12.6500187
sVx
F-14.195354500000001
sVz
F1.2968820000000001
ssg203
(dp2243
Vy
F-8.2002735100000006
sVx
F-15.8105783
sVz
F0.90708005400000002
ssg205
I00
sg206
(dp2244
g50
VTL Danoxide
p2245
sg52
Nssg209
(lp2246
sg211
(lp2247
(dp2248
g50
VALGPredevonator
p2249
sg52
Nsa(dp2250
g50
VALG RyaNoob
p2251
sg52
Nsasg215
I00
sg44
VPT2M51.4671959S
p2252
sg41
VDeath
p2253
sg218
I1
sa(dp2254
g47
I2133511419
sg41
VWeaponDrop
p2255
sg232
I11
sg53
(lp2256
I2758383128
asg44
VPT2M51.4701986S
p2257
sg235
I6
sg236
VP0DT0H0M2.8000S
p2258
sg48
(dp2259
g50
VTL Danoxide
p2260
sg52
Nssa(dp2261
g47
I4096745987
sg41
VWeaponDrop
p2262
sg232
I10
sg53
(lp2263
I2758383128
asg44
VPT2M51.4701986S
p2264
sg235
I6
sg236
VP0DT0H0M23.5667S
p2265
sg48
(dp2266
g50
VTL Danoxide
p2267
sg52
Nssa(dp2268
g47
I313138863
sg48
(dp2269
g50
VTL Spartan HCS
p2270
sg52
Nssg53
(lp2271
I1095363701
asg41
VWeaponPickup
p2272
sg44
VPT2M55.5012288S
p2273
sa(dp2274
g47
I4096745987
sg48
(dp2275
g50
VTL Spartan HCS
p2276
sg52
Nssg53
(lp2277
I2758383128
asg41
VWeaponPickup
p2278
sg44
VPT2M55.5022558S
p2279
sa(dp2280
g41
VPlayerSpawn
p2281
sg48
(dp2282
g50
VTL Spartan HCS
p2283
sg52
Nssg44
VPT2M55.5022558S
p2284
sa(dp2285
g41
VMedal
p2286
sg48
(dp2287
g50
VALG ContrA HCS
p2288
sg52
Nssg223
I3400287617
sg44
VPT2M55.5162522S
p2289
sa(dp2290
g47
I313138863
sg48
(dp2291
g50
VALGPredevonator
p2292
sg52
Nssg53
(lp2293
I1095363701
asg41
VWeaponPickup
p2294
sg44
VPT2M56.6512425S
p2295
sa(dp2296
g47
I4096745987
sg48
(dp2297
g50
VALGPredevonator
p2298
sg52
Nssg53
(lp2299
I2758383128
asg41
VWeaponPickup
p2300
sg44
VPT2M56.6512425S
p2301
sa(dp2302
g41
VPlayerSpawn
p2303
sg48
(dp2304
g50
VALGPredevonator
p2305
sg52
Nssg44
VPT2M56.6512425S
p2306
sa(dp2307
g47
I4096745987
sg41
VWeaponDrop
p2308
sg232
I6
sg53
(lp2309
I2758383128
asg44
VPT2M58.2662822S
p2310
sg235
I1
sg236
VP0DT0H0M10.1000S
p2311
sg48
(dp2312
g50
VALG RyaNoob
p2313
sg52
Nssa(dp2314
g47
I424645655
sg48
(dp2315
g50
VALG RyaNoob
p2316
sg52
Nssg53
(lp2317
I1327094800
asg41
VWeaponPickup
p2318
sg44
VPT2M58.2662822S
p2319
sa(dp2320
g47
I313138863
sg48
(dp2321
g50
VTL Danoxide
p2322
sg52
Nssg53
(lp2323
I1095363701
asg41
VWeaponPickup
p2324
sg44
VPT2M59.4842788S
p2325
sa(dp2326
g47
I4096745987
sg48
(dp2327
g50
VTL Danoxide
p2328
sg52
Nssg53
(lp2329
I2758383128
asg41
VWeaponPickup
p2330
sg44
VPT2M59.4842788S
p2331
sa(dp2332
g41
VPlayerSpawn
p2333
sg48
(dp2334
g50
VTL Danoxide
p2335
sg52
Nssg44
VPT2M59.4842788S
p2336
sa(dp2337
g47
I313138863
sg41
VWeaponDrop
p2338
sg232
I0
sg53
(lp2339
I1095363701
asg44
VPT2M59.7163041S
p2340
sg235
I0
sg236
VP0DT0H0M1.7667S
p2341
sg48
(dp2342
g50
VALG ContrA HCS
p2343
sg52
Nssa(dp2344
g47
I2133511419
sg48
(dp2345
g50
VALG ContrA HCS
p2346
sg52
Nssg53
(lp2347
I2758383128
asg41
VWeaponPickup
p2348
sg44
VPT2M59.7163041S
p2349
sa(dp2350
g47
I313138863
sg41
VWeaponDrop
p2351
sg232
I0
sg53
(lp2352
I1095363701
asg44
VPT3M1.0993246S
p2353
sg235
I0
sg236
VP0DT0H0M0.9333S
p2354
sg48
(dp2355
g50
VALG Heinz HCS
p2356
sg52
Nssa(dp2357
g47
I2670072722
sg48
(dp2358
g50
VALG Heinz HCS
p2359
sg52
Nssg53
(lp2360
I2758383128
asg41
VWeaponPickup
p2361
sg44
VPT3M1.0993246S
p2362
sa(dp2363
g188
I424645655
sg189
I00
sg190
I00
sg191
(dp2364
g50
VALG RyaNoob
p2365
sg52
Nssg194
(lp2366
I1327094800
asg196
I00
sg197
I01
sg198
I1
sg199
I0
sg200
I1
sg201
(dp2367
Vy
F2.9009969999999998
sVx
F-19.226732299999998
sVz
F2.9939632399999998
ssg203
(dp2368
Vy
F12.7029114
sVx
F-11.137988099999999
sVz
F1.5665224799999999
ssg205
I00
sg206
(dp2369
g50
VTL Eco HCS
p2370
sg52
Nssg209
(lp2371
sg211
(lp2372
sg215
I01
sg44
VPT3M2.384315S
p2373
sg41
VDeath
p2374
sg218
I1
sa(dp2375
g41
VMedal
p2376
sg48
(dp2377
g50
VALG RyaNoob
p2378
sg52
Nssg223
I3261908037
sg44
VPT3M2.3863362S
p2379
sa(dp2380
g47
I4096745987
sg41
VWeaponDrop
p2381
sg232
I11
sg53
(lp2382
I2758383128
asg44
VPT3M2.3873355S
p2383
sg235
I5
sg236
VP0DT0H0M15.1667S
p2384
sg48
(dp2385
g50
VTL Eco HCS
p2386
sg52
Nssa(dp2387
g47
I2650887244
sg41
VWeaponDrop
p2388
sg232
I0
sg53
(lp2389
I2758383128
asg44
VPT3M2.3873355S
p2390
sg235
I0
sg236
VP0DT0H0M3.7000S
p2391
sg48
(dp2392
g50
VTL Eco HCS
p2393
sg52
Nssa(dp2394
g188
I4096745987
sg189
I00
sg190
I00
sg191
(dp2395
g50
VALG Heinz HCS
p2396
sg52
Nssg194
(lp2397
I2758383128
asg196
I00
sg197
I01
sg198
I1
sg199
I0
sg200
I1
sg201
(dp2398
Vy
F-11.286513299999999
sVx
F-5.0625999999999998
sVz
F2.0006849999999998
ssg203
(dp2399
Vy
F-3.2450747500000001
sVx
F-6.2082805600000004
sVz
F3.12449551
ssg205
I00
sg206
(dp2400
g50
VTL Spartan HCS
p2401
sg52
Nssg209
(lp2402
sg211
(lp2403
(dp2404
g50
VALG ContrA HCS
p2405
sg52
Nsa(dp2406
g50
VALGPredevonator
p2407
sg52
Nsasg215
I01
sg44
VPT3M5.9333868S
p2408
sg41
VDeath
p2409
sg218
I1
sa(dp2410
g41
VMedal
p2411
sg48
(dp2412
g50
VALG Heinz HCS
p2413
sg52
Nssg223
I3261908037
sg44
VPT3M5.9353812S
p2414
sa(dp2415
g47
I313138863
sg41
VWeaponDrop
p2416
sg232
I0
sg53
(lp2417
I1095363701
asg44
VPT3M5.9353812S
p2418
sg235
I0
sg236
VP0DT0H0M0.9333S
p2419
sg48
(dp2420
g50
VTL Spartan HCS
p2421
sg52
Nssa(dp2422
g47
I4096745987
sg41
VWeaponDrop
p2423
sg232
I0
sg53
(lp2424
I2758383128
asg44
VPT3M5.9373801S
p2425
sg235
I0
sg236
VP0DT0H0M9.5000S
p2426
sg48
(dp2427
g50
VTL Spartan HCS
p2428
sg52
Nssa(dp2429
g47
I313138863
sg48
(dp2430
g50
VTL Eco HCS
p2431
sg52
Nssg53
(lp2432
I1095363701
asg41
VWeaponPickup
p2433
sg44
VPT3M10.4004193S
p2434
sa(dp2435
g47
I4096745987
sg48
(dp2436
g50
VTL Eco HCS
p2437
sg52
Nssg53
(lp2438
I2758383128
asg41
VWeaponPickup
p2439
sg44
VPT3M10.4014452S
p2440
sa(dp2441
g41
VPlayerSpawn
p2442
sg48
(dp2443
g50
VTL Eco HCS
p2444
sg52
Nssg44
VPT3M10.4014452S
p2445
sa(dp2446
g47
I313138863
sg48
(dp2447
g50
VTL Spartan HCS
p2448
sg52
Nssg53
(lp2449
I1095363701
asg41
VWeaponPickup
p2450
sg44
VPT3M13.950464S
p2451
sa(dp2452
g47
I4096745987
sg48
(dp2453
g50
VTL Spartan HCS
p2454
sg52
Nssg53
(lp2455
I2758383128
asg41
VWeaponPickup
p2456
sg44
VPT3M13.950464S
p2457
sa(dp2458
g41
VPlayerSpawn
p2459
sg48
(dp2460
g50
VTL Spartan HCS
p2461
sg52
Nssg44
VPT3M13.9514854S
p2462
sa(dp2463
g188
I4096745987
sg189
I00
sg190
I00
sg191
(dp2464
g50
VALG Heinz HCS
p2465
sg52
Nssg194
(lp2466
I2758383128
asg196
I00
sg197
I01
sg198
I1
sg199
I0
sg200
I1
sg201
(dp2467
Vy
F-13.128768900000001
sVx
F-1.2997068199999999
sVz
F2.0006847400000001
ssg203
(dp2468
Vy
F-14.943205799999999
sVx
F9.9163169999999994
sVz
F3.1986215100000002
ssg205
I00
sg206
(dp2469
g50
VTL StelluR
p2470
sg52
Nssg209
(lp2471
sg211
(lp2472
(dp2473
g50
VALGPredevonator
p2474
sg52
Nsasg215
I01
sg44
VPT3M14.9674773S
p2475
sg41
VDeath
p2476
sg218
I1
sa(dp2477
g41
VMedal
p2478
sg48
(dp2479
g50
VALG Heinz HCS
p2480
sg52
Nssg223
I3261908037
sg44
VPT3M14.9685172S
p2481
sa(dp2482
g47
I4108759423
sg41
VWeaponDrop
p2483
sg232
I13
sg53
(lp2484
I2758383128
asg44
VPT3M14.9695019S
p2485
sg235
I7
sg236
VP0DT0H0M32.2000S
p2486
sg48
(dp2487
g50
VTL StelluR
p2488
sg52
Nssa(dp2489
g47
I4096745987
sg41
VWeaponDrop
p2490
sg232
I0
sg53
(lp2491
I2758383128
asg44
VPT3M14.9695019S
p2492
sg235
I0
sg236
VP0DT0H0M2.5667S
p2493
sg48
(dp2494
g50
VTL StelluR
p2495
sg52
Nssa(dp2496
g47
I4096745987
sg41
VWeaponDrop
p2497
sg232
I4
sg53
(lp2498
I2758383128
asg44
VPT3M17.9325339S
p2499
sg235
I3
sg236
VP0DT0H0M14.7167S
p2500
sg48
(dp2501
g50
VALGPredevonator
p2502
sg52
Nssa(dp2503
g47
I4108759423
sg48
(dp2504
g50
VALGPredevonator
p2505
sg52
Nssg53
(lp2506
I2758383128
asg41
VWeaponPickup
p2507
sg44
VPT3M17.9325339S
p2508
sa(dp2509
g47
I313138863
sg41
VWeaponDrop
p2510
sg232
I0
sg53
(lp2511
I1095363701
asg44
VPT3M18.9985457S
p2512
sg235
I0
sg236
VP0DT0H0M0.5167S
p2513
sg48
(dp2514
g50
VTL Eco HCS
p2515
sg52
Nssa(dp2516
g47
I2650887244
sg48
(dp2517
g50
VTL Eco HCS
p2518
sg52
Nssg53
(lp2519
I2758383128
asg41
VWeaponPickup
p2520
sg44
VPT3M18.9995282S
p2521
sa(dp2522
g47
I313138863
sg48
(dp2523
g50
VTL StelluR
p2524
sg52
Nssg53
(lp2525
I1095363701
asg41
VWeaponPickup
p2526
sg44
VPT3M22.9835796S
p2527
sa(dp2528
g47
I4096745987
sg48
(dp2529
g50
VTL StelluR
p2530
sg52
Nssg53
(lp2531
I2758383128
asg41
VWeaponPickup
p2532
sg44
VPT3M22.9835796S
p2533
sa(dp2534
g41
VPlayerSpawn
p2535
sg48
(dp2536
g50
VTL StelluR
p2537
sg52
Nssg44
VPT3M22.9846012S
p2538
sa(dp2539
g47
I4096745987
sg41
VWeaponDrop
p2540
sg232
I8
sg53
(lp2541
I2758383128
asg44
VPT3M32.7149983S
p2542
sg235
I6
sg236
VP0DT0H0M38.0000S
p2543
sg48
(dp2544
g50
VALG Heinz HCS
p2545
sg52
Nssa(dp2546
g47
I424645655
sg48
(dp2547
g50
VALG Heinz HCS
p2548
sg52
Nssg53
(lp2549
I1327094800
asg41
VWeaponPickup
p2550
sg44
VPT3M32.7157853S
p2551
sa(dp2552
g188
I4096745987
sg189
I00
sg190
I00
sg191
(dp2553
g50
VTL Spartan HCS
p2554
sg52
Nssg194
(lp2555
I2758383128
asg196
I00
sg197
I01
sg198
I1
sg199
I0
sg200
I1
sg201
(dp2556
Vy
F5.4800310000000003
sVx
F2.4497461299999999
sVz
F0.31442229999999999
ssg203
(dp2557
Vy
F7.0157780000000001
sVx
F-16.297567399999998
sVz
F2.4396655599999999
ssg205
I00
sg206
(dp2558
g50
VALG RyaNoob
p2559
sg52
Nssg209
(lp2560
sg211
(lp2561
(dp2562
g50
VTL StelluR
p2563
sg52
Nsasg215
I00
sg44
VPT3M44.998861S
p2564
sg41
VDeath
p2565
sg218
I1
sa(dp2566
g47
I313138863
sg41
VWeaponDrop
p2567
sg232
I0
sg53
(lp2568
I1095363701
asg44
VPT3M45.0008628S
p2569
sg235
I0
sg236
VP0DT0H0M0.7167S
p2570
sg48
(dp2571
g50
VALG RyaNoob
p2572
sg52
Nssa(dp2573
g47
I424645655
sg41
VWeaponDrop
p2574
sg232
I46
sg53
(lp2575
I1327094800
asg44
VPT3M45.0008628S
p2576
sg235
I15
sg236
VP0DT0H0M46.7333S
p2577
sg48
(dp2578
g50
VALG RyaNoob
p2579
sg52
Nssa(dp2580
g188
I2460880172
sg189
I00
sg190
I00
sg191
(dp2581
g50
VTL StelluR
p2582
sg52
Nssg194
(lp2583
sg196
I00
sg197
I01
sg198
I1
sg199
I0
sg200
I1
sg201
(dp2584
Vy
F10.962279300000001
sVx
F-3.6672668499999999
sVz
F2.7224674200000001
ssg203
(dp2585
Vy
F9.8172420000000002
sVx
F-8.2844320000000007
sVz
F3.4255689999999999
ssg205
I00
sg206
(dp2586
g50
VALG ContrA HCS
p2587
sg52
Nssg209
(lp2588
sg211
(lp2589
sg215
I00
sg44
VPT3M49.815922S
p2590
sg41
VDeath
p2591
sg218
I1
sa(dp2592
g41
VImpulse
p2593
sg48
(dp2594
g50
VTL StelluR
p2595
sg52
Nssg1038
I2556889090
sg44
VPT3M49.815922S
p2596
sa(dp2597
g41
VMedal
p2598
sg48
(dp2599
g50
VTL StelluR
p2600
sg52
Nssg223
I2838259753
sg44
VPT3M49.815922S
p2601
sa(dp2602
g41
VMedal
p2603
sg48
(dp2604
g50
VTL Danoxide
p2605
sg52
Nssg223
I824733727
sg44
VPT3M49.8169396S
p2606
sa(dp2607
g47
I2133511419
sg41
VWeaponDrop
p2608
sg232
I33
sg53
(lp2609
I2758383128
asg44
VPT3M49.8169396S
p2610
sg235
I17
sg236
VP0DT0H0M15.8333S
p2611
sg48
(dp2612
g50
VALG ContrA HCS
p2613
sg52
Nssa(dp2614
g47
I4096745987
sg41
VWeaponDrop
p2615
sg232
I18
sg53
(lp2616
I2758383128
asg44
VPT3M49.8169396S
p2617
sg235
I11
sg236
VP0DT0H0M54.9000S
p2618
sg48
(dp2619
g50
VALG ContrA HCS
p2620
sg52
Nssa(dp2621
g188
I4096745987
sg189
I00
sg190
I00
sg191
(dp2622
g50
VTL Spartan HCS
p2623
sg52
Nssg194
(lp2624
I2758383128
asg196
I00
sg197
I01
sg198
I1
sg199
I0
sg200
I1
sg201
(dp2625
Vy
F-1.12380159
sVx
F-8.4400835000000001
sVz
F3.1714828000000002
ssg203
(dp2626
Vy
F1.24261665
sVx
F-17.080970000000001
sVz
F3.1324524899999999
ssg205
I00
sg206
(dp2627
g50
VALG Heinz HCS
p2628
sg52
Nssg209
(lp2629
sg211
(lp2630
(dp2631
g50
VTL Eco HCS
p2632
sg52
Nsasg215
I01
sg44
VPT3M50.2159275S
p2633
sg41
VDeath
p2634
sg218
I1
sa(dp2635
g41
VMedal
p2636
sg48
(dp2637
g50
VTL StelluR
p2638
sg52
Nssg223
I824733727
sg44
VPT3M50.2169524S
p2639
sa(dp2640
g41
VMedal
p2641
sg48
(dp2642
g50
VTL Spartan HCS
p2643
sg52
Nssg223
I3261908037
sg44
VPT3M50.2179571S
p2644
sa(dp2645
g47
I2670072722
sg41
VWeaponDrop
p2646
sg232
I0
sg53
(lp2647
I2758383128
asg44
VPT3M50.2179571S
p2648
sg235
I0
sg236
VP0DT0H0M5.6500S
p2649
sg48
(dp2650
g50
VALG Heinz HCS
p2651
sg52
Nssa(dp2652
g47
I424645655
sg41
VWeaponDrop
p2653
sg232
I27
sg53
(lp2654
I1327094800
asg44
VPT3M50.2179571S
p2655
sg235
I11
sg236
VP0DT0H0M14.9500S
p2656
sg48
(dp2657
g50
VALG Heinz HCS
p2658
sg52
Nssa(dp2659
g47
I313138863
sg41
VWeaponDrop
p2660
sg232
I5
sg53
(lp2661
I1095363701
asg44
VPT3M50.9979585S
p2662
sg235
I0
sg236
VP0DT0H0M5.2000S
p2663
sg48
(dp2664
g50
VTL Danoxide
p2665
sg52
Nssa(dp2666
g47
I2133511419
sg48
(dp2667
g50
VTL Danoxide
p2668
sg52
Nssg53
(lp2669
I2758383128
asg41
VWeaponPickup
p2670
sg44
VPT3M50.9979585S
p2671
sa(dp2672
g47
I313138863
sg48
(dp2673
g50
VALG RyaNoob
p2674
sg52
Nssg53
(lp2675
I1095363701
asg41
VWeaponPickup
p2676
sg44
VPT3M53.0169886S
p2677
sa(dp2678
g47
I4096745987
sg48
(dp2679
g50
VALG RyaNoob
p2680
sg52
Nssg53
(lp2681
I2758383128
asg41
VWeaponPickup
p2682
sg44
VPT3M53.0169886S
p2683
sa(dp2684
g41
VPlayerSpawn
p2685
sg48
(dp2686
g50
VALG RyaNoob
p2687
sg52
Nssg44
VPT3M53.0169886S
p2688
sa(dp2689
g188
I4108759423
sg189
I00
sg190
I00
sg191
(dp2690
g50
VALGPredevonator
p2691
sg52
Nssg194
(lp2692
I2758383128
asg196
I00
sg197
I01
sg198
I1
sg199
I0
sg200
I1
sg201
(dp2693
Vy
F13.8119993
sVx
F-0.053727447999999997
sVz
F1.7715764000000001
ssg203
(dp2694
Vy
F12.751555400000001
sVx
F-8.5851500000000005
sVz
F2.0006849999999998
ssg205
I00
sg206
(dp2695
g50
VTL Danoxide
p2696
sg52
Nssg209
(lp2697
sg211
(lp2698
sg215
I01
sg44
VPT3M54.4659819S
p2699
sg41
VDeath
p2700
sg218
I1
sa(dp2701
g41
VMedal
p2702
sg48
(dp2703
g50
VALGPredevonator
p2704
sg52
Nssg223
I3261908037
sg44
VPT3M54.4670029S
p2705
sa(dp2706
g47
I2133511419
sg41
VWeaponDrop
p2707
sg232
I0
sg53
(lp2708
I2758383128
asg44
VPT3M54.4680074S
p2709
sg235
I0
sg236
VP0DT0H0M0.7167S
p2710
sg48
(dp2711
g50
VTL Danoxide
p2712
sg52
Nssa(dp2713
g47
I4096745987
sg41
VWeaponDrop
p2714
sg232
I23
sg53
(lp2715
I2758383128
asg44
VPT3M54.4680074S
p2716
sg235
I8
sg236
VP0DT0H0M49.0667S
p2717
sg48
(dp2718
g50
VTL Danoxide
p2719
sg52
Nssa(dp2720
g47
I313138863
sg48
(dp2721
g50
VALG ContrA HCS
p2722
sg52
Nssg53
(lp2723
I1095363701
asg41
VWeaponPickup
p2724
sg44
VPT3M57.8330468S
p2725
sa(dp2726
g47
I4096745987
sg48
(dp2727
g50
VALG ContrA HCS
p2728
sg52
Nssg53
(lp2729
I2758383128
asg41
VWeaponPickup
p2730
sg44
VPT3M57.8330468S
p2731
sa(dp2732
g41
VPlayerSpawn
p2733
sg48
(dp2734
g50
VALG ContrA HCS
p2735
sg52
Nssg44
VPT3M57.8330468S
p2736
sa(dp2737
g47
I313138863
sg48
(dp2738
g50
VALG Heinz HCS
p2739
sg52
Nssg53
(lp2740
I1095363701
asg41
VWeaponPickup
p2741
sg44
VPT3M58.2330589S
p2742
sa(dp2743
g47
I4096745987
sg48
(dp2744
g50
VALG Heinz HCS
p2745
sg52
Nssg53
(lp2746
I2758383128
asg41
VWeaponPickup
p2747
sg44
VPT3M58.2330589S
p2748
sa(dp2749
g41
VPlayerSpawn
p2750
sg48
(dp2751
g50
VALG Heinz HCS
p2752
sg52
Nssg44
VPT3M58.2330589S
p2753
sa(dp2754
g188
I4096745987
sg189
I00
sg190
I00
sg191
(dp2755
g50
VTL StelluR
p2756
sg52
Nssg194
(lp2757
I2758383128
asg196
I00
sg197
I01
sg198
I1
sg199
I0
sg200
I1
sg201
(dp2758
Vy
F15.1332483
sVx
F-6.2273945800000003
sVz
F2.9321391600000002
ssg203
(dp2759
Vy
F10.0752144
sVx
F-4.7039823500000004
sVz
F1.9988212599999999
ssg205
I00
sg206
(dp2760
g50
VALGPredevonator
p2761
sg52
Nssg209
(lp2762
sg211
(lp2763
(dp2764
g50
VTL Spartan HCS
p2765
sg52
Nsasg215
I01
sg44
VPT3M58.7990374S
p2766
sg41
VDeath
p2767
sg218
I1
sa(dp2768
g41
VMedal
p2769
sg48
(dp2770
g50
VTL StelluR
p2771
sg52
Nssg223
I3261908037
sg44
VPT3M58.8010732S
p2772
sa(dp2773
g47
I4108759423
sg41
VWeaponDrop
p2774
sg232
I14
sg53
(lp2775
I2758383128
asg44
VPT3M58.8010732S
p2776
sg235
I8
sg236
VP0DT0H0M40.8667S
p2777
sg48
(dp2778
g50
VALGPredevonator
p2779
sg52
Nssa(dp2780
g47
I313138863
sg41
VWeaponDrop
p2781
sg232
I6
sg53
(lp2782
I1095363701
asg44
VPT3M58.8030601S
p2783
sg235
I2
sg236
VP0DT0H0M6.5667S
p2784
sg48
(dp2785
g50
VALGPredevonator
p2786
sg52
Nssa(dp2787
g47
I313138863
sg48
(dp2788
g50
VTL Danoxide
p2789
sg52
Nssg53
(lp2790
I1095363701
asg41
VWeaponPickup
p2791
sg44
VPT4M2.4830873S
p2792
sa(dp2793
g47
I4096745987
sg48
(dp2794
g50
VTL Danoxide
p2795
sg52
Nssg53
(lp2796
I2758383128
asg41
VWeaponPickup
p2797
sg44
VPT4M2.4830873S
p2798
sa(dp2799
g41
VPlayerSpawn
p2800
sg48
(dp2801
g50
VTL Danoxide
p2802
sg52
Nssg44
VPT4M2.4830873S
p2803
sa(dp2804
g47
I313138863
sg41
VWeaponDrop
p2805
sg232
I0
sg53
(lp2806
I1095363701
asg44
VPT4M4.364327S
p2807
sg235
I0
sg236
VP0DT0H0M1.1667S
p2808
sg48
(dp2809
g50
VALG Heinz HCS
p2810
sg52
Nssa(dp2811
g47
I2670072722
sg48
(dp2812
g50
VALG Heinz HCS
p2813
sg52
Nssg53
(lp2814
I2758383128
asg41
VWeaponPickup
p2815
sg44
VPT4M4.3651096S
p2816
sa(dp2817
g47
I4096745987
sg41
VWeaponDrop
p2818
sg232
I17
sg53
(lp2819
I2758383128
asg44
VPT4M4.7641341S
p2820
sg235
I10
sg236
VP0DT0H0M45.6833S
p2821
sg48
(dp2822
g50
VTL Spartan HCS
p2823
sg52
Nssa(dp2824
g47
I4108759423
sg48
(dp2825
g50
VTL Spartan HCS
p2826
sg52
Nssg53
(lp2827
I2758383128
asg41
VWeaponPickup
p2828
sg44
VPT4M4.7641341S
p2829
sa(dp2830
g188
I4096745987
sg189
I00
sg190
I01
sg191
(dp2831
g50
VTL StelluR
p2832
sg52
Nssg194
(lp2833
I2758383128
asg196
I00
sg197
I00
sg198
I1
sg199
I0
sg200
I1
sg201
(dp2834
Vy
F10.277024300000001
sVx
F-13.617809299999999
sVz
F0.9049779
ssg203
(dp2835
Vy
F10.207386
sVx
F-13.9702883
sVz
F0.81440409999999996
ssg205
I00
sg206
(dp2836
g50
VALG RyaNoob
p2837
sg52
Nssg209
(lp2838
sg211
(lp2839
sg215
I00
sg44
VPT4M6.1991322S
p2840
sg41
VDeath
p2841
sg218
I1
sa(dp2842
g41
VMedal
p2843
sg48
(dp2844
g50
VTL StelluR
p2845
sg52
Nssg223
I2287626681
sg44
VPT4M6.2001561S
p2846
sa(dp2847
g47
I313138863
sg41
VWeaponDrop
p2848
sg232
I12
sg53
(lp2849
I1095363701
asg44
VPT4M6.2011331S
p2850
sg235
I11
sg236
VP0DT0H0M3.8500S
p2851
sg48
(dp2852
g50
VALG RyaNoob
p2853
sg52
Nssa(dp2854
g47
I4096745987
sg41
VWeaponDrop
p2855
sg232
I5
sg53
(lp2856
I2758383128
asg44
VPT4M6.2011331S
p2857
sg235
I4
sg236
VP0DT0H0M9.3333S
p2858
sg48
(dp2859
g50
VALG RyaNoob
p2860
sg52
Nssa(dp2861
g47
I313138863
sg48
(dp2862
g50
VALGPredevonator
p2863
sg52
Nssg53
(lp2864
I1095363701
asg41
VWeaponPickup
p2865
sg44
VPT4M6.8161642S
p2866
sa(dp2867
g47
I4096745987
sg48
(dp2868
g50
VALGPredevonator
p2869
sg52
Nssg53
(lp2870
I2758383128
asg41
VWeaponPickup
p2871
sg44
VPT4M6.8161642S
p2872
sa(dp2873
g41
VPlayerSpawn
p2874
sg48
(dp2875
g50
VALGPredevonator
p2876
sg52
Nssg44
VPT4M6.8161642S
p2877
sa(dp2878
g188
I4096745987
sg189
I00
sg190
I00
sg191
(dp2879
g50
VALG Heinz HCS
p2880
sg52
Nssg194
(lp2881
I2758383128
asg196
I00
sg197
I01
sg198
I1
sg199
I0
sg200
I1
sg201
(dp2882
Vy
F4.7629450000000002
sVx
F-19.272642099999999
sVz
F2.5282588000000001
ssg203
(dp2883
Vy
F9.7668590000000002
sVx
F-10.9821072
sVz
F0.37960135900000003
ssg205
I00
sg206
(dp2884
g50
VTL StelluR
p2885
sg52
Nssg209
(lp2886
sg211
(lp2887
(dp2888
g50
VALG RyaNoob
p2889
sg52
Nsasg215
I01
sg44
VPT4M7.2991461S
p2890
sg41
VDeath
p2891
sg218
I1
sa(dp2892
g41
VMedal
p2893
sg48
(dp2894
g50
VALG Heinz HCS
p2895
sg52
Nssg223
I3261908037
sg44
VPT4M7.3001723S
p2896
sa(dp2897
g47
I313138863
sg41
VWeaponDrop
p2898
sg232
I0
sg53
(lp2899
I1095363701
asg44
VPT4M7.3011686S
p2900
sg235
I0
sg236
VP0DT0H0M2.3000S
p2901
sg48
(dp2902
g50
VTL StelluR
p2903
sg52
Nssa(dp2904
g47
I4096745987
sg41
VWeaponDrop
p2905
sg232
I23
sg53
(lp2906
I2758383128
asg44
VPT4M7.3011686S
p2907
sg235
I14
sg236
VP0DT0H0M42.0167S
p2908
sg48
(dp2909
g50
VTL StelluR
p2910
sg52
Nssa(dp2911
g47
I4096745987
sg41
VWeaponDrop
p2912
sg232
I0
sg53
(lp2913
I2758383128
asg44
VPT4M7.3011686S
p2914
sg235
I0
sg236
VP0DT0S
p2915
sg48
(dp2916
g50
VTL StelluR
p2917
sg52
Nssa(dp2918
g188
I4096745987
sg189
I00
sg190
I00
sg191
(dp2919
g50
VALG ContrA HCS
p2920
sg52
Nssg194
(lp2921
I2758383128
asg196
I00
sg197
I01
sg198
I1
sg199
I0
sg200
I1
sg201
(dp2922
Vy
F-14.175182299999999
sVx
F-2.8000557399999999
sVz
F2.0006847400000001
ssg203
(dp2923
Vy
F-4.9411529999999999
sVx
F6.4766445199999998
sVz
F2.33850479
ssg205
I00
sg206
(dp2924
g50
VTL Spartan HCS
p2925
sg52
Nssg209
(lp2926
sg211
(lp2927
sg215
I01
sg44
VPT4M13.3982469S
p2928
sg41
VDeath
p2929
sg218
I1
sa(dp2930
g41
VImpulse
p2931
sg48
(dp2932
g50
VALG ContrA HCS
p2933
sg52
Nssg1038
I3174430457
sg44
VPT4M13.4002478S
p2934
sa(dp2935
g41
VMedal
p2936
sg48
(dp2937
g50
VALG ContrA HCS
p2938
sg52
Nssg223
I3698887726
sg44
VPT4M13.4002478S
p2939
sa(dp2940
g41
VMedal
p2941
sg48
(dp2942
g50
VALG ContrA HCS
p2943
sg52
Nssg223
I3653057799
sg44
VPT4M13.4012637S
p2944
sa(dp2945
g47
I4108759423
sg41
VWeaponDrop
p2946
sg232
I0
sg53
(lp2947
I2758383128
asg44
VPT4M13.4022468S
p2948
sg235
I0
sg236
VP0DT0H0M6.9500S
p2949
sg48
(dp2950
g50
VTL Spartan HCS
p2951
sg52
Nssa(dp2952
g47
I313138863
sg41
VWeaponDrop
p2953
sg232
I0
sg53
(lp2954
I1095363701
asg44
VPT4M13.4022468S
p2955
sg235
I0
sg236
VP0DT0H0M6.8167S
p2956
sg48
(dp2957
g50
VTL Spartan HCS
p2958
sg52
Nssa(dp2959
g47
I313138863
sg41
VWeaponDrop
p2960
sg232
I0
sg53
(lp2961
I1095363701
asg44
VPT4M13.997251S
p2962
sg235
I0
sg236
VP0DT0H0M0.5667S
p2963
sg48
(dp2964
g50
VTL Danoxide
p2965
sg52
Nssa(dp2966
g47
I524558978
sg48
(dp2967
g50
VTL Danoxide
p2968
sg52
Nssg53
(lp2969
I2758383128
asg41
VWeaponPickup
p2970
sg44
VPT4M13.997251S
p2971
sa(dp2972
g47
I313138863
sg48
(dp2973
g50
VALG RyaNoob
p2974
sg52
Nssg53
(lp2975
I1095363701
asg41
VWeaponPickup
p2976
sg44
VPT4M14.2162542S
p2977
sa(dp2978
g47
I4096745987
sg48
(dp2979
g50
VALG RyaNoob
p2980
sg52
Nssg53
(lp2981
I2758383128
asg41
VWeaponPickup
p2982
sg44
VPT4M14.2162542S
p2983
sa(dp2984
g41
VPlayerSpawn
p2985
sg48
(dp2986
g50
VALG RyaNoob
p2987
sg52
Nssg44
VPT4M14.2162542S
p2988
sa(dp2989
g47
I313138863
sg41
VWeaponDrop
p2990
sg232
I0
sg53
(lp2991
I1095363701
asg44
VPT4M15.1312464S
p2992
sg235
I0
sg236
VP0DT0H0M1.1500S
p2993
sg48
(dp2994
g50
VALGPredevonator
p2995
sg52
Nssa(dp2996
g47
I2133511419
sg48
(dp2997
g50
VALGPredevonator
p2998
sg52
Nssg53
(lp2999
I2758383128
asg41
VWeaponPickup
p3000
sg44
VPT4M15.1312464S
p3001
sa(dp3002
g47
I313138863
sg48
(dp3003
g50
VTL StelluR
p3004
sg52
Nssg53
(lp3005
I1095363701
asg41
VWeaponPickup
p3006
sg44
VPT4M15.3162708S
p3007
sa(dp3008
g47
I4096745987
sg48
(dp3009
g50
VTL StelluR
p3010
sg52
Nssg53
(lp3011
I2758383128
asg41
VWeaponPickup
p3012
sg44
VPT4M15.3162708S
p3013
sa(dp3014
g41
VPlayerSpawn
p3015
sg48
(dp3016
g50
VTL StelluR
p3017
sg52
Nssg44
VPT4M15.3162708S
p3018
sa(dp3019
g47
I4096745987
sg41
VWeaponDrop
p3020
sg232
I21
sg53
(lp3021
I2758383128
asg44
VPT4M15.6142767S
p3022
sg235
I9
sg236
VP0DT0H1M2.8167S
p3023
sg48
(dp3024
g50
VTL Eco HCS
p3025
sg52
Nssa(dp3026
g47
I4108759423
sg48
(dp3027
g50
VTL Eco HCS
p3028
sg52
Nssg53
(lp3029
I2758383128
asg41
VWeaponPickup
p3030
sg44
VPT4M15.6142767S
p3031
sa(dp3032
g47
I4096745987
sg41
VWeaponDrop
p3033
sg232
I7
sg53
(lp3034
I2758383128
asg44
VPT4M18.5473138S
p3035
sg235
I2
sg236
VP0DT0H0M18.5500S
p3036
sg48
(dp3037
g50
VALG Heinz HCS
p3038
sg52
Nssa(dp3039
g47
I424645655
sg48
(dp3040
g50
VALG Heinz HCS
p3041
sg52
Nssg53
(lp3042
I1327094800
asg41
VWeaponPickup
p3043
sg44
VPT4M18.5473138S
p3044
sa(dp3045
g47
I313138863
sg48
(dp3046
g50
VTL Spartan HCS
p3047
sg52
Nssg53
(lp3048
I1095363701
asg41
VWeaponPickup
p3049
sg44
VPT4M21.4153276S
p3050
sa(dp3051
g47
I4096745987
sg48
(dp3052
g50
VTL Spartan HCS
p3053
sg52
Nssg53
(lp3054
I2758383128
asg41
VWeaponPickup
p3055
sg44
VPT4M21.4163509S
p3056
sa(dp3057
g41
VPlayerSpawn
p3058
sg48
(dp3059
g50
VTL Spartan HCS
p3060
sg52
Nssg44
VPT4M21.4163509S
p3061
sa(dp3062
g188
I2670072722
sg189
I00
sg190
I00
sg191
(dp3063
g50
VALG Heinz HCS
p3064
sg52
Nssg194
(lp3065
I2758383128
asg196
I00
sg197
I01
sg198
I1
sg199
I0
sg200
I1
sg201
(dp3066
Vy
F1.3643283799999999
sVx
F-18.116834600000001
sVz
F3.8976106599999998
ssg203
(dp3067
Vy
F4.353154
sVx
F-18.6318512
sVz
F2.5645124899999998
ssg205
I00
sg206
(dp3068
g50
VTL StelluR
p3069
sg52
Nssg209
(lp3070
sg211
(lp3071
(dp3072
g50
VALGPredevonator
p3073
sg52
Nsasg215
I00
sg44
VPT4M25.547402S
p3074
sg41
VDeath
p3075
sg218
I1
sa(dp3076
g47
I313138863
sg41
VWeaponDrop
p3077
sg232
I3
sg53
(lp3078
I1095363701
asg44
VPT4M25.5503787S
p3079
sg235
I3
sg236
VP0DT0H0M2.7333S
p3080
sg48
(dp3081
g50
VTL StelluR
p3082
sg52
Nssa(dp3083
g47
I4096745987
sg41
VWeaponDrop
p3084
sg232
I1
sg53
(lp3085
I2758383128
asg44
VPT4M25.5503787S
p3086
sg235
I0
sg236
VP0DT0H0M7.5000S
p3087
sg48
(dp3088
g50
VTL StelluR
p3089
sg52
Nssa(dp3090
g47
I4108759423
sg41
VWeaponDrop
p3091
sg232
I13
sg53
(lp3092
I2758383128
asg44
VPT4M26.3134092S
p3093
sg235
I5
sg236
VP0DT0H0M10.7000S
p3094
sg48
(dp3095
g50
VTL Eco HCS
p3096
sg52
Nssa(dp3097
g47
I4096745987
sg48
(dp3098
g50
VTL Eco HCS
p3099
sg52
Nssg53
(lp3100
I2758383128
asg41
VWeaponPickup
p3101
sg44
VPT4M26.3143905S
p3102
sa(dp3103
g47
I4096745987
sg41
VWeaponDrop
p3104
sg232
I0
sg53
(lp3105
I2758383128
asg44
VPT4M30.1994623S
p3106
sg235
I0
sg236
VP0DT0H0M7.9500S
p3107
sg48
(dp3108
g50
VTL Spartan HCS
p3109
sg52
Nssa(dp3110
g47
I4108759423
sg48
(dp3111
g50
VTL Spartan HCS
p3112
sg52
Nssg53
(lp3113
I2758383128
asg41
VWeaponPickup
p3114
sg44
VPT4M30.1994623S
p3115
sa(dp3116
g188
I4096745987
sg189
I00
sg190
I00
sg191
(dp3117
g50
VALG ContrA HCS
p3118
sg52
Nssg194
(lp3119
I2758383128
asg196
I00
sg197
I01
sg198
I1
sg199
I0
sg200
I1
sg201
(dp3120
Vy
F-16.1692657
sVx
F-2.9655628200000002
sVz
F2.0006847400000001
ssg203
(dp3121
Vy
F-1.75931525
sVx
F6.8379917099999998
sVz
F3.1354866000000001
ssg205
I00
sg206
(dp3122
g50
VTL Danoxide
p3123
sg52
Nssg209
(lp3124
sg211
(lp3125
(dp3126
g50
VALG Heinz HCS
p3127
sg52
Nsasg215
I01
sg44
VPT4M31.3984546S
p3128
sg41
VDeath
p3129
sg218
I1
sa(dp3130
g41
VMedal
p3131
sg48
(dp3132
g50
VALG ContrA HCS
p3133
sg52
Nssg223
I3261908037
sg44
VPT4M31.3994737S
p3134
sa(dp3135
g47
I524558978
sg41
VWeaponDrop
p3136
sg232
I1
sg53
(lp3137
I2758383128
asg44
VPT4M31.4004753S
p3138
sg235
I0
sg236
VP0DT0H0M10.0667S
p3139
sg48
(dp3140
g50
VTL Danoxide
p3141
sg52
Nssa(dp3142
g47
I4096745987
sg41
VWeaponDrop
p3143
sg232
I5
sg53
(lp3144
I2758383128
asg44
VPT4M31.4004753S
p3145
sg235
I1
sg236
VP0DT0H0M18.2833S
p3146
sg48
(dp3147
g50
VTL Danoxide
p3148
sg52
Nssa(dp3149
g47
I313138863
sg48
(dp3150
g50
VTL StelluR
p3151
sg52
Nssg53
(lp3152
I1095363701
asg41
VWeaponPickup
p3153
sg44
VPT4M33.5655049S
p3154
sa(dp3155
g47
I4096745987
sg48
(dp3156
g50
VTL StelluR
p3157
sg52
Nssg53
(lp3158
I2758383128
asg41
VWeaponPickup
p3159
sg44
VPT4M33.5655049S
p3160
sa(dp3161
g41
VPlayerSpawn
p3162
sg48
(dp3163
g50
VTL StelluR
p3164
sg52
Nssg44
VPT4M33.5655049S
p3165
sa(dp3166
g47
I313138863
sg48
(dp3167
g50
VTL Danoxide
p3168
sg52
Nssg53
(lp3169
I1095363701
asg41
VWeaponPickup
p3170
sg44
VPT4M39.4155752S
p3171
sa(dp3172
g47
I4096745987
sg48
(dp3173
g50
VTL Danoxide
p3174
sg52
Nssg53
(lp3175
I2758383128
asg41
VWeaponPickup
p3176
sg44
VPT4M39.4155752S
p3177
sa(dp3178
g41
VPlayerSpawn
p3179
sg48
(dp3180
g50
VTL Danoxide
p3181
sg52
Nssg44
VPT4M39.4155752S
p3182
sa(dp3183
g188
I4096745987
sg189
I00
sg190
I00
sg191
(dp3184
g50
VTL Eco HCS
p3185
sg52
Nssg194
(lp3186
I2758383128
asg196
I00
sg197
I01
sg198
I1
sg199
I0
sg200
I1
sg201
(dp3187
Vy
F12.6183853
sVx
F-11.6575813
sVz
F1.92277312
ssg203
(dp3188
Vy
F-0.0116524184
sVx
F-14.4444885
sVz
F-0.17863874099999999
ssg205
I00
sg206
(dp3189
g50
VALG RyaNoob
p3190
sg52
Nssg209
(lp3191
sg211
(lp3192
(dp3193
g50
VTL Spartan HCS
p3194
sg52
Nsasg215
I01
sg44
VPT4M44.4146219S
p3195
sg41
VDeath
p3196
sg218
I1
sa(dp3197
g41
VImpulse
p3198
sg48
(dp3199
g50
VTL Eco HCS
p3200
sg52
Nssg1038
I2556889090
sg44
VPT4M44.4146219S
p3201
sa(dp3202
g41
VMedal
p3203
sg48
(dp3204
g50
VTL Eco HCS
p3205
sg52
Nssg223
I2838259753
sg44
VPT4M44.4146219S
p3206
sa(dp3207
g41
VMedal
p3208
sg48
(dp3209
g50
VTL StelluR
p3210
sg52
Nssg223
I824733727
sg44
VPT4M44.4156392S
p3211
sa(dp3212
g41
VMedal
p3213
sg48
(dp3214
g50
VTL Eco HCS
p3215
sg52
Nssg223
I3261908037
sg44
VPT4M44.4156392S
p3216
sa(dp3217
g47
I313138863
sg41
VWeaponDrop
p3218
sg232
I0
sg53
(lp3219
I1095363701
asg44
VPT4M44.4166431S
p3220
sg235
I0
sg236
VP0DT0H0M0.7333S
p3221
sg48
(dp3222
g50
VALG RyaNoob
p3223
sg52
Nssa(dp3224
g47
I4096745987
sg41
VWeaponDrop
p3225
sg232
I6
sg53
(lp3226
I2758383128
asg44
VPT4M44.4166431S
p3227
sg235
I1
sg236
VP0DT0H0M29.4667S
p3228
sg48
(dp3229
g50
VALG RyaNoob
p3230
sg52
Nssa(dp3231
g188
I4096745987
sg189
I00
sg190
I00
sg191
(dp3232
g50
VTL Danoxide
p3233
sg52
Nssg194
(lp3234
I2758383128
asg196
I00
sg197
I01
sg198
I1
sg199
I0
sg200
I1
sg201
(dp3235
Vy
F12.27304
sVx
F-15.322786300000001
sVz
F1.3426806899999999
ssg203
(dp3236
Vy
F6.5029764200000004
sVx
F-19.230415300000001
sVz
F2.0020444400000001
ssg205
I00
sg206
(dp3237
g50
VALGPredevonator
p3238
sg52
Nssg209
(lp3239
sg211
(lp3240
(dp3241
g50
VTL StelluR
p3242
sg52
Nsasg215
I01
sg44
VPT4M45.8976402S
p3243
sg41
VDeath
p3244
sg218
I1
sa(dp3245
g41
VMedal
p3246
sg48
(dp3247
g50
VTL Danoxide
p3248
sg52
Nssg223
I3261908037
sg44
VPT4M45.8996593S
p3249
sa(dp3250
g47
I2133511419
sg41
VWeaponDrop
p3251
sg232
I0
sg53
(lp3252
I2758383128
asg44
VPT4M45.8996593S
p3253
sg235
I0
sg236
VP0DT0H0M0.4500S
p3254
sg48
(dp3255
g50
VALGPredevonator
p3256
sg52
Nssa(dp3257
g47
I4096745987
sg41
VWeaponDrop
p3258
sg232
I5
sg53
(lp3259
I2758383128
asg44
VPT4M45.8996593S
p3260
sg235
I4
sg236
VP0DT0H0M37.4833S
p3261
sg48
(dp3262
g50
VALGPredevonator
p3263
sg52
Nssa(dp3264
g47
I2492868984
sg48
(dp3265
g50
VTL Eco HCS
p3266
sg52
Nssg53
(lp3267
I2758383128
asg41
VWeaponPickup
p3268
sg44
VPT4M52.13072S
p3269
sa(dp3270
g47
I313138863
sg48
(dp3271
g50
VALG RyaNoob
p3272
sg52
Nssg53
(lp3273
I1095363701
asg41
VWeaponPickup
p3274
sg44
VPT4M52.4317485S
p3275
sa(dp3276
g47
I4096745987
sg48
(dp3277
g50
VALG RyaNoob
p3278
sg52
Nssg53
(lp3279
I2758383128
asg41
VWeaponPickup
p3280
sg44
VPT4M52.4317485S
p3281
sa(dp3282
g41
VPlayerSpawn
p3283
sg48
(dp3284
g50
VALG RyaNoob
p3285
sg52
Nssg44
VPT4M52.4317485S
p3286
sa(dp3287
g47
I2492868984
sg41
VWeaponDrop
p3288
sg232
I0
sg53
(lp3289
I2758383128
asg44
VPT4M53.2647341S
p3290
sg235
I0
sg236
VP0DT0H0M0.9833S
p3291
sg48
(dp3292
g50
VTL Eco HCS
p3293
sg52
Nssa(dp3294
g47
I313138863
sg48
(dp3295
g50
VALGPredevonator
p3296
sg52
Nssg53
(lp3297
I1095363701
asg41
VWeaponPickup
p3298
sg44
VPT4M53.9147646S
p3299
sa(dp3300
g47
I4096745987
sg48
(dp3301
g50
VALGPredevonator
p3302
sg52
Nssg53
(lp3303
I2758383128
asg41
VWeaponPickup
p3304
sg44
VPT4M53.9147646S
p3305
sa(dp3306
g41
VPlayerSpawn
p3307
sg48
(dp3308
g50
VALGPredevonator
p3309
sg52
Nssg44
VPT4M53.9147646S
p3310
sa(dp3311
g47
I313138863
sg41
VWeaponDrop
p3312
sg232
I0
sg53
(lp3313
I1095363701
asg44
VPT4M55.8627698S
p3314
sg235
I0
sg236
VP0DT0H0M3.5167S
p3315
sg48
(dp3316
g50
VTL StelluR
p3317
sg52
Nssa(dp3318
g47
I2670072722
sg48
(dp3319
g50
VTL StelluR
p3320
sg52
Nssg53
(lp3321
I2758383128
asg41
VWeaponPickupPad
p3322
sg44
VPT4M55.8627698S
p3323
sa(dp3324
g47
I2670072722
sg48
(dp3325
g50
VTL StelluR
p3326
sg52
Nssg53
(lp3327
I2758383128
asg41
VWeaponPickup
p3328
sg44
VPT4M55.8638048S
p3329
sa(dp3330
g188
I4096745987
sg189
I00
sg190
I00
sg191
(dp3331
g50
VALGPredevonator
p3332
sg52
Nssg194
(lp3333
I2758383128
asg196
I00
sg197
I01
sg198
I1
sg199
I0
sg200
I1
sg201
(dp3334
Vy
F-17.79833
sVx
F-5.7707730000000002
sVz
F2.0006847400000001
ssg203
(dp3335
Vy
F-0.72920759999999996
sVx
F-4.2236285200000001
sVz
F4.0468080000000004
ssg205
I00
sg206
(dp3336
g50
VTL StelluR
p3337
sg52
Nssg209
(lp3338
sg211
(lp3339
sg215
I01
sg44
VPT4M56.6977782S
p3340
sg41
VDeath
p3341
sg218
I1
sa(dp3342
g41
VImpulse
p3343
sg48
(dp3344
g50
VALGPredevonator
p3345
sg52
Nssg1038
I3174430457
sg44
VPT4M56.6988106S
p3346
sa(dp3347
g41
VMedal
p3348
sg48
(dp3349
g50
VALGPredevonator
p3350
sg52
Nssg223
I3653057799
sg44
VPT4M56.6997974S
p3351
sa(dp3352
g47
I2670072722
sg41
VWeaponDrop
p3353
sg232
I0
sg53
(lp3354
I2758383128
asg44
VPT4M56.6997974S
p3355
sg235
I0
sg236
VP0DT0H0M0.8333S
p3356
sg48
(dp3357
g50
VTL StelluR
p3358
sg52
Nssa(dp3359
g47
I4096745987
sg41
VWeaponDrop
p3360
sg232
I9
sg53
(lp3361
I2758383128
asg44
VPT4M56.6997974S
p3362
sg235
I6
sg236
VP0DT0H0M18.7833S
p3363
sg48
(dp3364
g50
VTL StelluR
p3365
sg52
Nssa(dp3366
g47
I313138863
sg41
VWeaponDrop
p3367
sg232
I0
sg53
(lp3368
I1095363701
asg44
VPT5M3.6958876S
p3369
sg235
I0
sg236
VP0DT0H0M7.1000S
p3370
sg48
(dp3371
g50
VTL Spartan HCS
p3372
sg52
Nssa(dp3373
g47
I2133511419
sg48
(dp3374
g50
VTL Spartan HCS
p3375
sg52
Nssg53
(lp3376
I2758383128
asg41
VWeaponPickup
p3377
sg44
VPT5M3.6968908S
p3378
sa(dp3379
g47
I313138863
sg48
(dp3380
g50
VTL StelluR
p3381
sg52
Nssg53
(lp3382
I1095363701
asg41
VWeaponPickup
p3383
sg44
VPT5M4.7148922S
p3384
sa(dp3385
g47
I4096745987
sg48
(dp3386
g50
VTL StelluR
p3387
sg52
Nssg53
(lp3388
I2758383128
asg41
VWeaponPickup
p3389
sg44
VPT5M4.7148922S
p3390
sa(dp3391
g41
VPlayerSpawn
p3392
sg48
(dp3393
g50
VTL StelluR
p3394
sg52
Nssg44
VPT5M4.7148922S
p3395
sa(dp3396
g188
I4096745987
sg189
I00
sg190
I00
sg191
(dp3397
g50
VALG ContrA HCS
p3398
sg52
Nssg194
(lp3399
I2758383128
asg196
I00
sg197
I01
sg198
I1
sg199
I0
sg200
I1
sg201
(dp3400
Vy
F-4.7544775000000001
sVx
F-17.293410000000002
sVz
F3.158871
ssg203
(dp3401
Vy
F-7.0996819999999996
sVx
F-7.0291233100000001
sVz
F-0.18814396899999999
ssg205
I00
sg206
(dp3402
g50
VTL Spartan HCS
p3403
sg52
Nssg209
(lp3404
sg211
(lp3405
(dp3406
g50
VALG Heinz HCS
p3407
sg52
Nsasg215
I01
sg44
VPT5M5.5469449S
p3408
sg41
VDeath
p3409
sg218
I1
sa(dp3410
g41
VMedal
p3411
sg48
(dp3412
g50
VALG ContrA HCS
p3413
sg52
Nssg223
I3261908037
sg44
VPT5M5.5489269S
p3414
sa(dp3415
g47
I2133511419
sg41
VWeaponDrop
p3416
sg232
I0
sg53
(lp3417
I2758383128
asg44
VPT5M5.5499141S
p3418
sg235
I0
sg236
VP0DT0H0M0.5167S
p3419
sg48
(dp3420
g50
VTL Spartan HCS
p3421
sg52
Nssa(dp3422
g47
I4108759423
sg41
VWeaponDrop
p3423
sg232
I21
sg53
(lp3424
I2758383128
asg44
VPT5M5.5499141S
p3425
sg235
I12
sg236
VP0DT0H0M28.5667S
p3426
sg48
(dp3427
g50
VTL Spartan HCS
p3428
sg52
Nssa(dp3429
g47
I4096745987
sg41
VWeaponDrop
p3430
sg232
I0
sg53
(lp3431
I2758383128
asg44
VPT5M8.7629386S
p3432
sg235
I0
sg236
VP0DT0H0M10.9000S
p3433
sg48
(dp3434
g50
VALG RyaNoob
p3435
sg52
Nssa(dp3436
g47
I4108759423
sg48
(dp3437
g50
VALG RyaNoob
p3438
sg52
Nssg53
(lp3439
I2758383128
asg41
VWeaponPickup
p3440
sg44
VPT5M8.7629386S
p3441
sa(dp3442
g188
I2650887244
sg189
I00
sg190
I00
sg191
(dp3443
g50
VTL Eco HCS
p3444
sg52
Nssg194
(lp3445
I2758383128
asg196
I00
sg197
I01
sg198
I1
sg199
I0
sg200
I1
sg201
(dp3446
Vy
F2.3196387299999999
sVx
F8.0819679999999998
sVz
F3.0956065700000002
ssg203
(dp3447
Vy
F2.1879882799999999
sVx
F8.4097810000000006
sVz
F3.1364429999999999
ssg205
I00
sg206
(dp3448
g50
VALG RyaNoob
p3449
sg52
Nssg209
(lp3450
sg211
(lp3451
(dp3452
g50
VTL StelluR
p3453
sg52
Nsasg215
I00
sg44
VPT5M13.0639878S
p3454
sg41
VDeath
p3455
sg218
I1
sa(dp3456
g47
I4108759423
sg41
VWeaponDrop
p3457
sg232
I0
sg53
(lp3458
I2758383128
asg44
VPT5M13.0660081S
p3459
sg235
I0
sg236
VP0DT0H0M4.3000S
p3460
sg48
(dp3461
g50
VALG RyaNoob
p3462
sg52
Nssa(dp3463
g47
I313138863
sg41
VWeaponDrop
p3464
sg232
I0
sg53
(lp3465
I1095363701
asg44
VPT5M13.0660081S
p3466
sg235
I0
sg236
VP0DT0H0M5.4333S
p3467
sg48
(dp3468
g50
VALG RyaNoob
p3469
sg52
Nssa(dp3470
g47
I313138863
sg48
(dp3471
g50
VTL Spartan HCS
p3472
sg52
Nssg53
(lp3473
I1095363701
asg41
VWeaponPickup
p3474
sg44
VPT5M13.5639942S
p3475
sa(dp3476
g47
I4096745987
sg48
(dp3477
g50
VTL Spartan HCS
p3478
sg52
Nssg53
(lp3479
I2758383128
asg41
VWeaponPickup
p3480
sg44
VPT5M13.5639942S
p3481
sa(dp3482
g41
VPlayerSpawn
p3483
sg48
(dp3484
g50
VTL Spartan HCS
p3485
sg52
Nssg44
VPT5M13.5639942S
p3486
sa(dp3487
g47
I313138863
sg41
VWeaponDrop
p3488
sg232
I0
sg53
(lp3489
I1095363701
asg44
VPT5M15.3960397S
p3490
sg235
I0
sg236
VP0DT0H0M1.1500S
p3491
sg48
(dp3492
g50
VTL Spartan HCS
p3493
sg52
Nssa(dp3494
g47
I524558978
sg48
(dp3495
g50
VTL Spartan HCS
p3496
sg52
Nssg53
(lp3497
I2758383128
asg41
VWeaponPickup
p3498
sg44
VPT5M15.3960397S
p3499
sa(dp3500
g47
I313138863
sg41
VWeaponDrop
p3501
sg232
I0
sg53
(lp3502
I1095363701
asg44
VPT5M17.7790678S
p3503
sg235
I0
sg236
VP0DT0H0M1.2500S
p3504
sg48
(dp3505
g50
VTL StelluR
p3506
sg52
Nssa(dp3507
g47
I4108759423
sg48
(dp3508
g50
VTL StelluR
p3509
sg52
Nssg53
(lp3510
I2758383128
asg41
VWeaponPickup
p3511
sg44
VPT5M17.7790678S
p3512
sa(dp3513
g47
I313138863
sg48
(dp3514
g50
VALG RyaNoob
p3515
sg52
Nssg53
(lp3516
I1095363701
asg41
VWeaponPickup
p3517
sg44
VPT5M21.0800904S
p3518
sa(dp3519
g47
I4096745987
sg48
(dp3520
g50
VALG RyaNoob
p3521
sg52
Nssg53
(lp3522
I2758383128
asg41
VWeaponPickup
p3523
sg44
VPT5M21.0811113S
p3524
sa(dp3525
g41
VPlayerSpawn
p3526
sg48
(dp3527
g50
VALG RyaNoob
p3528
sg52
Nssg44
VPT5M21.0811113S
p3529
sa(dp3530
g188
I4096745987
sg189
I00
sg190
I00
sg191
(dp3531
g50
VALG ContrA HCS
p3532
sg52
Nssg194
(lp3533
I2758383128
asg196
I00
sg197
I01
sg198
I1
sg199
I0
sg200
I1
sg201
(dp3534
Vy
F0.37661883200000001
sVx
F-17.082256300000001
sVz
F3.1324527299999998
ssg203
(dp3535
Vy
F1.7202651499999999
sVx
F-4.1231799999999996
sVz
F3.1184590000000001
ssg205
I00
sg206
(dp3536
g50
VTL Eco HCS
p3537
sg52
Nssg209
(lp3538
sg211
(lp3539
sg215
I01
sg44
VPT5M25.9971536S
p3540
sg41
VDeath
p3541
sg218
I1
sa(dp3542
g41
VMedal
p3543
sg48
(dp3544
g50
VALG ContrA HCS
p3545
sg52
Nssg223
I3261908037
sg44
VPT5M26.0001771S
p3546
sa(dp3547
g47
I2650887244
sg41
VWeaponDrop
p3548
sg232
I0
sg53
(lp3549
I2758383128
asg44
VPT5M26.005186S
p3550
sg235
I0
sg236
VP0DT0H0M10.7500S
p3551
sg48
(dp3552
g50
VTL Eco HCS
p3553
sg52
Nssa(dp3554
g47
I4096745987
sg41
VWeaponDrop
p3555
sg232
I24
sg53
(lp3556
I2758383128
asg44
VPT5M26.005186S
p3557
sg235
I6
sg236
VP0DT0H0M49.8167S
p3558
sg48
(dp3559
g50
VTL Eco HCS
p3560
sg52
Nssa(dp3561
g188
I313138863
sg189
I00
sg190
I00
sg191
(dp3562
g50
VTL Danoxide
p3563
sg52
Nssg194
(lp3564
I1095363701
asg196
I00
sg197
I01
sg198
I1
sg199
I0
sg200
I1
sg201
(dp3565
Vy
F3.6515304999999998
sVx
F-18.522937800000001
sVz
F2.77849221
ssg203
(dp3566
Vy
F-0.25030762000000001
sVx
F-20.367818799999998
sVz
F3.5832424199999999
ssg205
I00
sg206
(dp3567
g50
VALG ContrA HCS
p3568
sg52
Nssg209
(lp3569
sg211
(lp3570
(dp3571
g50
VTL StelluR
p3572
sg52
Nsasg215
I00
sg44
VPT5M28.2141831S
p3573
sg41
VDeath
p3574
sg218
I1
sa(dp3575
g47
I313138863
sg41
VWeaponDrop
p3576
sg232
I0
sg53
(lp3577
I1095363701
asg44
VPT5M28.2161997S
p3578
sg235
I0
sg236
VP0DT0H0M3.2167S
p3579
sg48
(dp3580
g50
VALG ContrA HCS
p3581
sg52
Nssa(dp3582
g47
I4096745987
sg41
VWeaponDrop
p3583
sg232
I35
sg53
(lp3584
I2758383128
asg44
VPT5M28.2161997S
p3585
sg235
I20
sg236
VP0DT0H1M27.1667S
p3586
sg48
(dp3587
g50
VALG ContrA HCS
p3588
sg52
Nssa(dp3589
g188
I4108759423
sg189
I00
sg190
I00
sg191
(dp3590
g50
VTL StelluR
p3591
sg52
Nssg194
(lp3592
I2758383128
asg196
I00
sg197
I01
sg198
I1
sg199
I0
sg200
I1
sg201
(dp3593
Vy
F12.425421699999999
sVx
F3.13296127
sVz
F1.5529704099999999
ssg203
(dp3594
Vy
F15.324366599999999
sVx
F-3.7861836000000002
sVz
F2.8782107799999999
ssg205
I00
sg206
(dp3595
g50
VALG RyaNoob
p3596
sg52
Nssg209
(lp3597
sg211
(lp3598
sg215
I01
sg44
VPT5M31.6462486S
p3599
sg41
VDeath
p3600
sg218
I1
sa(dp3601
g41
VImpulse
p3602
sg48
(dp3603
g50
VTL StelluR
p3604
sg52
Nssg1038
I3174430457
sg44
VPT5M31.6472445S
p3605
sa(dp3606
g41
VMedal
p3607
sg48
(dp3608
g50
VTL StelluR
p3609
sg52
Nssg223
I2782465081
sg44
VPT5M31.6482438S
p3610
sa(dp3611
g41
VMedal
p3612
sg48
(dp3613
g50
VTL StelluR
p3614
sg52
Nssg223
I466059351
sg44
VPT5M31.6482438S
p3615
sa(dp3616
g41
VMedal
p3617
sg48
(dp3618
g50
VTL StelluR
p3619
sg52
Nssg223
I3098362934
sg44
VPT5M31.6492437S
p3620
sa(dp3621
g47
I313138863
sg41
VWeaponDrop
p3622
sg232
I0
sg53
(lp3623
I1095363701
asg44
VPT5M31.6492437S
p3624
sg235
I0
sg236
VP0DT0H0M0.7500S
p3625
sg48
(dp3626
g50
VALG RyaNoob
p3627
sg52
Nssa(dp3628
g47
I4096745987
sg41
VWeaponDrop
p3629
sg232
I6
sg53
(lp3630
I2758383128
asg44
VPT5M31.6492437S
p3631
sg235
I4
sg236
VP0DT0H0M9.8167S
p3632
sg48
(dp3633
g50
VALG RyaNoob
p3634
sg52
Nssa(dp3635
g47
I4096745987
sg41
VWeaponDrop
p3636
sg232
I12
sg53
(lp3637
I2758383128
asg44
VPT5M33.5782528S
p3638
sg235
I6
sg236
VP0DT0H0M41.8500S
p3639
sg48
(dp3640
g50
VTL Danoxide
p3641
sg52
Nssa(dp3642
g47
I424645655
sg48
(dp3643
g50
VTL Danoxide
p3644
sg52
Nssg53
(lp3645
I1327094800
asg41
VWeaponPickup
p3646
sg44
VPT5M33.5792743S
p3647
sa(dp3648
g47
I313138863
sg48
(dp3649
g50
VTL Eco HCS
p3650
sg52
Nssg53
(lp3651
I1095363701
asg41
VWeaponPickup
p3652
sg44
VPT5M34.0132567S
p3653
sa(dp3654
g47
I4096745987
sg48
(dp3655
g50
VTL Eco HCS
p3656
sg52
Nssg53
(lp3657
I2758383128
asg41
VWeaponPickup
p3658
sg44
VPT5M34.0142743S
p3659
sa(dp3660
g41
VPlayerSpawn
p3661
sg48
(dp3662
g50
VTL Eco HCS
p3663
sg52
Nssg44
VPT5M34.0142743S
p3664
sa(dp3665
g47
I313138863
sg41
VWeaponDrop
p3666
sg232
I0
sg53
(lp3667
I1095363701
asg44
VPT5M35.345297S
p3668
sg235
I0
sg236
VP0DT0H0M1.3333S
p3669
sg48
(dp3670
g50
VTL Eco HCS
p3671
sg52
Nssa(dp3672
g47
I2133511419
sg48
(dp3673
g50
VTL Eco HCS
p3674
sg52
Nssg53
(lp3675
I2758383128
asg41
VWeaponPickup
p3676
sg44
VPT5M35.345297S
p3677
sa(dp3678
g47
I313138863
sg48
(dp3679
g50
VALG ContrA HCS
p3680
sg52
Nssg53
(lp3681
I1095363701
asg41
VWeaponPickup
p3682
sg44
VPT5M36.2303094S
p3683
sa(dp3684
g47
I4096745987
sg48
(dp3685
g50
VALG ContrA HCS
p3686
sg52
Nssg53
(lp3687
I2758383128
asg41
VWeaponPickup
p3688
sg44
VPT5M36.2313101S
p3689
sa(dp3690
g41
VPlayerSpawn
p3691
sg48
(dp3692
g50
VALG ContrA HCS
p3693
sg52
Nssg44
VPT5M36.2313101S
p3694
sa(dp3695
g188
I424645655
sg189
I00
sg190
I00
sg191
(dp3696
g50
VALG Heinz HCS
p3697
sg52
Nssg194
(lp3698
I1327094800
asg196
I00
sg197
I01
sg198
I1
sg199
I0
sg200
I1
sg201
(dp3699
Vy
F-13.073841099999999
sVx
F-7.2505416900000004
sVz
F2.0006847400000001
ssg203
(dp3700
Vy
F-15.564987199999999
sVx
F-3.4196693900000001
sVz
F2.0006847400000001
ssg205
I00
sg206
(dp3701
g50
VTL Spartan HCS
p3702
sg52
Nssg209
(lp3703
sg211
(lp3704
sg215
I01
sg44
VPT5M36.6793153S
p3705
sg41
VDeath
p3706
sg218
I1
sa(dp3707
g41
VMedal
p3708
sg48
(dp3709
g50
VALG Heinz HCS
p3710
sg52
Nssg223
I3261908037
sg44
VPT5M36.6823172S
p3711
sa(dp3712
g47
I524558978
sg41
VWeaponDrop
p3713
sg232
I1
sg53
(lp3714
I2758383128
asg44
VPT5M36.6833162S
p3715
sg235
I0
sg236
VP0DT0H0M19.5500S
p3716
sg48
(dp3717
g50
VTL Spartan HCS
p3718
sg52
Nssa(dp3719
g47
I4096745987
sg41
VWeaponDrop
p3720
sg232
I0
sg53
(lp3721
I2758383128
asg44
VPT5M36.6833162S
p3722
sg235
I0
sg236
VP0DT0H0M2.4167S
p3723
sg48
(dp3724
g50
VTL Spartan HCS
p3725
sg52
Nssa(dp3726
g188
I4096745987
sg189
I00
sg190
I00
sg191
(dp3727
g50
VALG ContrA HCS
p3728
sg52
Nssg194
(lp3729
I2758383128
asg196
I00
sg197
I01
sg198
I1
sg199
I0
sg200
I1
sg201
(dp3730
Vy
F-4.7423167199999998
sVx
F8.8797639999999998
sVz
F3.1241750000000001
ssg203
(dp3731
Vy
F11.2228317
sVx
F9.0556059999999992
sVz
F3.0635082699999998
ssg205
I00
sg206
(dp3732
g50
VTL StelluR
p3733
sg52
Nssg209
(lp3734
sg211
(lp3735
sg215
I01
sg44
VPT5M39.3793468S
p3736
sg41
VDeath
p3737
sg218
I1
sa(dp3738
g41
VMedal
p3739
sg48
(dp3740
g50
VALG ContrA HCS
p3741
sg52
Nssg223
I3261908037
sg44
VPT5M39.382327S
p3742
sa(dp3743
g47
I4108759423
sg41
VWeaponDrop
p3744
sg232
I17
sg53
(lp3745
I2758383128
asg44
VPT5M39.382327S
p3746
sg235
I10
sg236
VP0DT0H0M20.9500S
p3747
sg48
(dp3748
g50
VTL StelluR
p3749
sg52
Nssa(dp3750
g47
I4096745987
sg41
VWeaponDrop
p3751
sg232
I4
sg53
(lp3752
I2758383128
asg44
VPT5M39.382327S
p3753
sg235
I3
sg236
VP0DT0H0M12.4667S
p3754
sg48
(dp3755
g50
VTL StelluR
p3756
sg52
Nssa(dp3757
g47
I313138863
sg48
(dp3758
g50
VALG RyaNoob
p3759
sg52
Nssg53
(lp3760
I1095363701
asg41
VWeaponPickup
p3761
sg44
VPT5M39.6633358S
p3762
sa(dp3763
g47
I4096745987
sg48
(dp3764
g50
VALG RyaNoob
p3765
sg52
Nssg53
(lp3766
I2758383128
asg41
VWeaponPickup
p3767
sg44
VPT5M39.6643518S
p3768
sa(dp3769
g41
VPlayerSpawn
p3770
sg48
(dp3771
g50
VALG RyaNoob
p3772
sg52
Nssg44
VPT5M39.6643518S
p3773
sa(dp3774
g188
I424645655
sg189
I00
sg190
I00
sg191
(dp3775
g50
VTL Danoxide
p3776
sg52
Nssg194
(lp3777
I1327094800
asg196
I00
sg197
I01
sg198
I1
sg199
I0
sg200
I1
sg201
(dp3778
Vy
F-6.8892264399999998
sVx
F-15.120523499999999
sVz
F0.57643409999999995
ssg203
(dp3779
Vy
F-9.8554329999999997
sVx
F-11.780293500000001
sVz
F0.49455046699999999
ssg205
I00
sg206
(dp3780
g50
VALGPredevonator
p3781
sg52
Nssg209
(lp3782
sg211
(lp3783
sg215
I01
sg44
VPT5M41.2633492S
p3784
sg41
VDeath
p3785
sg218
I1
sa(dp3786
g41
VMedal
p3787
sg48
(dp3788
g50
VTL Danoxide
p3789
sg52
Nssg223
I3261908037
sg44
VPT5M41.266379S
p3790
sa(dp3791
g47
I313138863
sg41
VWeaponDrop
p3792
sg232
I0
sg53
(lp3793
I1095363701
asg44
VPT5M41.2673682S
p3794
sg235
I0
sg236
VP0DT0H0M1.9333S
p3795
sg48
(dp3796
g50
VALGPredevonator
p3797
sg52
Nssa(dp3798
g47
I4096745987
sg41
VWeaponDrop
p3799
sg232
I13
sg53
(lp3800
I2758383128
asg44
VPT5M41.2673682S
p3801
sg235
I12
sg236
VP0DT0H0M45.4167S
p3802
sg48
(dp3803
g50
VALGPredevonator
p3804
sg52
Nssa(dp3805
g47
I4096745987
sg41
VWeaponDrop
p3806
sg232
I6
sg53
(lp3807
I2758383128
asg44
VPT5M42.8453826S
p3808
sg235
I5
sg236
VP0DT0H0M6.1833S
p3809
sg48
(dp3810
g50
VALG ContrA HCS
p3811
sg52
Nssa(dp3812
g47
I4108759423
sg48
(dp3813
g50
VALG ContrA HCS
p3814
sg52
Nssg53
(lp3815
I2758383128
asg41
VWeaponPickup
p3816
sg44
VPT5M42.8453826S
p3817
sa(dp3818
g47
I313138863
sg48
(dp3819
g50
VTL Spartan HCS
p3820
sg52
Nssg53
(lp3821
I1095363701
asg41
VWeaponPickup
p3822
sg44
VPT5M44.6963934S
p3823
sa(dp3824
g47
I4096745987
sg48
(dp3825
g50
VTL Spartan HCS
p3826
sg52
Nssg53
(lp3827
I2758383128
asg41
VWeaponPickup
p3828
sg44
VPT5M44.6974116S
p3829
sa(dp3830
g41
VPlayerSpawn
p3831
sg48
(dp3832
g50
VTL Spartan HCS
p3833
sg52
Nssg44
VPT5M44.6974116S
p3834
sa(dp3835
g47
I313138863
sg48
(dp3836
g50
VTL StelluR
p3837
sg52
Nssg53
(lp3838
I1095363701
asg41
VWeaponPickup
p3839
sg44
VPT5M47.396428S
p3840
sa(dp3841
g47
I4096745987
sg48
(dp3842
g50
VTL StelluR
p3843
sg52
Nssg53
(lp3844
I2758383128
asg41
VWeaponPickup
p3845
sg44
VPT5M47.397452S
p3846
sa(dp3847
g41
VPlayerSpawn
p3848
sg48
(dp3849
g50
VTL StelluR
p3850
sg52
Nssg44
VPT5M47.397452S
p3851
sa(dp3852
g188
I4108759423
sg189
I00
sg190
I00
sg191
(dp3853
g50
VALG ContrA HCS
p3854
sg52
Nssg194
(lp3855
I2758383128
asg196
I00
sg197
I01
sg198
I1
sg199
I0
sg200
I1
sg201
(dp3856
Vy
F-0.532572567
sVx
F-11.423315000000001
sVz
F3.1245718
ssg203
(dp3857
Vy
F-7.3538823100000004
sVx
F-13.7406769
sVz
F0.64561665099999999
ssg205
I00
sg206
(dp3858
g50
VTL Eco HCS
p3859
sg52
Nssg209
(lp3860
sg211
(lp3861
(dp3862
g50
VALG Heinz HCS
p3863
sg52
Nsasg215
I01
sg44
VPT5M49.1964507S
p3864
sg41
VDeath
p3865
sg218
I1
sa(dp3866
g41
VMedal
p3867
sg48
(dp3868
g50
VALG ContrA HCS
p3869
sg52
Nssg223
I3261908037
sg44
VPT5M49.1974736S
p3870
sa(dp3871
g47
I2133511419
sg41
VWeaponDrop
p3872
sg232
I0
sg53
(lp3873
I2758383128
asg44
VPT5M49.1984751S
p3874
sg235
I0
sg236
VP0DT0H0M3.2833S
p3875
sg48
(dp3876
g50
VTL Eco HCS
p3877
sg52
Nssa(dp3878
g47
I4096745987
sg41
VWeaponDrop
p3879
sg232
I6
sg53
(lp3880
I2758383128
asg44
VPT5M49.1984751S
p3881
sg235
I3
sg236
VP0DT0H0M10.5667S
p3882
sg48
(dp3883
g50
VTL Eco HCS
p3884
sg52
Nssa(dp3885
g47
I313138863
sg48
(dp3886
g50
VALGPredevonator
p3887
sg52
Nssg53
(lp3888
I1095363701
asg41
VWeaponPickup
p3889
sg44
VPT5M49.2794523S
p3890
sa(dp3891
g47
I4096745987
sg48
(dp3892
g50
VALGPredevonator
p3893
sg52
Nssg53
(lp3894
I2758383128
asg41
VWeaponPickup
p3895
sg44
VPT5M49.2804754S
p3896
sa(dp3897
g41
VPlayerSpawn
p3898
sg48
(dp3899
g50
VALGPredevonator
p3900
sg52
Nssg44
VPT5M49.2804754S
p3901
sa(dp3902
g188
I424645655
sg189
I00
sg190
I00
sg191
(dp3903
g50
VTL Danoxide
p3904
sg52
Nssg194
(lp3905
I1327094800
asg196
I00
sg197
I01
sg198
I1
sg199
I0
sg200
I1
sg201
(dp3906
Vy
F-9.8851600000000008
sVx
F-7.73254967
sVz
F3.5283069999999999
ssg203
(dp3907
Vy
F-16.571241400000002
sVx
F-2.89054513
sVz
F2.0006847400000001
ssg205
I00
sg206
(dp3908
g50
VALG RyaNoob
p3909
sg52
Nssg209
(lp3910
sg211
(lp3911
(dp3912
g50
VTL Eco HCS
p3913
sg52
Nsasg215
I01
sg44
VPT5M50.162463S
p3914
sg41
VDeath
p3915
sg218
I1
sa(dp3916
g41
VMedal
p3917
sg48
(dp3918
g50
VTL Danoxide
p3919
sg52
Nssg223
I3261908037
sg44
VPT5M50.164495S
p3920
sa(dp3921
g47
I313138863
sg41
VWeaponDrop
p3922
sg232
I0
sg53
(lp3923
I1095363701
asg44
VPT5M50.164495S
p3924
sg235
I0
sg236
VP0DT0H0M1.3167S
p3925
sg48
(dp3926
g50
VALG RyaNoob
p3927
sg52
Nssa(dp3928
g47
I4096745987
sg41
VWeaponDrop
p3929
sg232
I2
sg53
(lp3930
I2758383128
asg44
VPT5M50.164495S
p3931
sg235
I1
sg236
VP0DT0H0M9.1833S
p3932
sg48
(dp3933
g50
VALG RyaNoob
p3934
sg52
Nssa(dp3935
g188
I4096745987
sg189
I00
sg190
I00
sg191
(dp3936
g50
VTL Spartan HCS
p3937
sg52
Nssg194
(lp3938
I2758383128
asg196
I00
sg197
I01
sg198
I1
sg199
I0
sg200
I1
sg201
(dp3939
Vy
F1.4549294699999999
sVx
F3.1568236399999998
sVz
F3.1342120000000002
ssg203
(dp3940
Vy
F0.340993881
sVx
F-12.939541800000001
sVz
F3.1415152499999999
ssg205
I00
sg206
(dp3941
g50
VALG ContrA HCS
p3942
sg52
Nssg209
(lp3943
sg211
(lp3944
sg215
I01
sg44
VPT5M50.2964645S
p3945
sg41
VDeath
p3946
sg218
I1
sa(dp3947
g41
VImpulse
p3948
sg48
(dp3949
g50
VTL Spartan HCS
p3950
sg52
Nssg1038
I3174430457
sg44
VPT5M50.2984886S
p3951
sa(dp3952
g41
VMedal
p3953
sg48
(dp3954
g50
VTL Spartan HCS
p3955
sg52
Nssg223
I3653057799
sg44
VPT5M50.2994872S
p3956
sa(dp3957
g47
I313138863
sg41
VWeaponDrop
p3958
sg232
I0
sg53
(lp3959
I1095363701
asg44
VPT5M50.3004853S
p3960
sg235
I0
sg236
VP0DT0H0M0.4333S
p3961
sg48
(dp3962
g50
VALG ContrA HCS
p3963
sg52
Nssa(dp3964
g47
I4108759423
sg41
VWeaponDrop
p3965
sg232
I7
sg53
(lp3966
I2758383128
asg44
VPT5M50.3004853S
p3967
sg235
I5
sg236
VP0DT0H0M7.4500S
p3968
sg48
(dp3969
g50
VALG ContrA HCS
p3970
sg52
Nssa(dp3971
g47
I313138863
sg41
VWeaponDrop
p3972
sg232
I26
sg53
(lp3973
I1095363701
asg44
VPT5M55.5615513S
p3974
sg235
I11
sg236
VP0DT0H0M13.9500S
p3975
sg48
(dp3976
g50
VTL Danoxide
p3977
sg52
Nssa(dp3978
g47
I2133511419
sg48
(dp3979
g50
VTL Danoxide
p3980
sg52
Nssg53
(lp3981
I2758383128
asg41
VWeaponPickup
p3982
sg44
VPT5M55.5615513S
p3983
sa(dp3984
g47
I313138863
sg48
(dp3985
g50
VTL Eco HCS
p3986
sg52
Nssg53
(lp3987
I1095363701
asg41
VWeaponPickup
p3988
sg44
VPT5M57.2135732S
p3989
sa(dp3990
g47
I4096745987
sg48
(dp3991
g50
VTL Eco HCS
p3992
sg52
Nssg53
(lp3993
I2758383128
asg41
VWeaponPickup
p3994
sg44
VPT5M57.2135732S
p3995
sa(dp3996
g41
VPlayerSpawn
p3997
sg48
(dp3998
g50
VTL Eco HCS
p3999
sg52
Nssg44
VPT5M57.2135732S
p4000
sa(dp4001
g47
I313138863
sg48
(dp4002
g50
VALG RyaNoob
p4003
sg52
Nssg53
(lp4004
I1095363701
asg41
VWeaponPickup
p4005
sg44
VPT5M58.1795661S
p4006
sa(dp4007
g47
I4096745987
sg48
(dp4008
g50
VALG RyaNoob
p4009
sg52
Nssg53
(lp4010
I2758383128
asg41
VWeaponPickup
p4011
sg44
VPT5M58.1805872S
p4012
sa(dp4013
g41
VPlayerSpawn
p4014
sg48
(dp4015
g50
VALG RyaNoob
p4016
sg52
Nssg44
VPT5M58.1805872S
p4017
sa(dp4018
g47
I313138863
sg48
(dp4019
g50
VALG ContrA HCS
p4020
sg52
Nssg53
(lp4021
I1095363701
asg41
VWeaponPickup
p4022
sg44
VPT5M58.3125679S
p4023
sa(dp4024
g47
I4096745987
sg48
(dp4025
g50
VALG ContrA HCS
p4026
sg52
Nssg53
(lp4027
I2758383128
asg41
VWeaponPickup
p4028
sg44
VPT5M58.31359S
p4029
sa(dp4030
g41
VPlayerSpawn
p4031
sg48
(dp4032
g50
VALG ContrA HCS
p4033
sg52
Nssg44
VPT5M58.31359S
p4034
sa(dp4035
g47
I2670072722
sg41
VWeaponDrop
p4036
sg232
I5
sg53
(lp4037
I2758383128
asg44
VPT5M59.26159S
p4038
sg235
I4
sg236
VP0DT0H0M20.5167S
p4039
sg48
(dp4040
g50
VALG Heinz HCS
p4041
sg52
Nssa(dp4042
g47
I2133511419
sg48
(dp4043
g50
VALG Heinz HCS
p4044
sg52
Nssg53
(lp4045
I2758383128
asg41
VWeaponPickup
p4046
sg44
VPT5M59.26159S
p4047
sa(dp4048
g188
I4096745987
sg189
I00
sg190
I00
sg191
(dp4049
g50
VTL Spartan HCS
p4050
sg52
Nssg194
(lp4051
I2758383128
asg196
I00
sg197
I01
sg198
I1
sg199
I0
sg200
I1
sg201
(dp4052
Vy
F16.381440000000001
sVx
F-3.0731830000000002
sVz
F2.3834157
ssg203
(dp4053
Vy
F14.4482822
sVx
F-8.4089899999999993
sVz
F2.18636155
ssg205
I00
sg206
(dp4054
g50
VALGPredevonator
p4055
sg52
Nssg209
(lp4056
sg211
(lp4057
sg215
I01
sg44
VPT5M59.6125837S
p4058
sg41
VDeath
p4059
sg218
I1
sa(dp4060
g41
VMedal
p4061
sg48
(dp4062
g50
VTL Spartan HCS
p4063
sg52
Nssg223
I3261908037
sg44
VPT5M59.6146068S
p4064
sa(dp4065
g47
I313138863
sg41
VWeaponDrop
p4066
sg232
I0
sg53
(lp4067
I1095363701
asg44
VPT5M59.6146068S
p4068
sg235
I0
sg236
VP0DT0H0M0.8000S
p4069
sg48
(dp4070
g50
VALGPredevonator
p4071
sg52
Nssa(dp4072
g47
I4096745987
sg41
VWeaponDrop
p4073
sg232
I8
sg53
(lp4074
I2758383128
asg44
VPT5M59.6146068S
p4075
sg235
I5
sg236
VP0DT0H0M9.5333S
p4076
sg48
(dp4077
g50
VALGPredevonator
p4078
sg52
Nssa(dp4079
g188
I4096745987
sg189
I00
sg190
I00
sg191
(dp4080
g50
VALG ContrA HCS
p4081
sg52
Nssg194
(lp4082
I2758383128
asg196
I00
sg197
I01
sg198
I1
sg199
I0
sg200
I1
sg201
(dp4083
Vy
F12.2600031
sVx
F-13.492523200000001
sVz
F2.0069756500000002
ssg203
(dp4084
Vy
F17.156635300000001
sVx
F-3.3220403200000002
sVz
F2.0006849999999998
ssg205
I00
sg206
(dp4085
g50
VTL Spartan HCS
p4086
sg52
Nssg209
(lp4087
sg211
(lp4088
(dp4089
g50
VALGPredevonator
p4090
sg52
Nsasg215
I01
sg44
VPT6M0.0125883S
p4091
sg41
VDeath
p4092
sg218
I1
sa(dp4093
g41
VMedal
p4094
sg48
(dp4095
g50
VALG ContrA HCS
p4096
sg52
Nssg223
I3261908037
sg44
VPT6M0.01461S
p4097
sa(dp4098
g47
I4096745987
sg41
VWeaponDrop
p4099
sg232
I14
sg53
(lp4100
I2758383128
asg44
VPT6M0.0156131S
p4101
sg235
I10
sg236
VP0DT0H0M14.4667S
p4102
sg48
(dp4103
g50
VTL Spartan HCS
p4104
sg52
Nssa(dp4105
g47
I313138863
sg41
VWeaponDrop
p4106
sg232
I0
sg53
(lp4107
I1095363701
asg44
VPT6M0.0166136S
p4108
sg235
I0
sg236
VP0DT0H0M0.8500S
p4109
sg48
(dp4110
g50
VTL Spartan HCS
p4111
sg52
Nssa(dp4112
g188
I4096745987
sg189
I00
sg190
I00
sg191
(dp4113
g50
VALG RyaNoob
p4114
sg52
Nssg194
(lp4115
I2758383128
asg196
I00
sg197
I01
sg198
I1
sg199
I0
sg200
I1
sg201
(dp4116
Vy
F-3.1392908099999999
sVx
F9.0069289999999995
sVz
F3.1253826600000001
ssg203
(dp4117
Vy
F9.1641639999999995
sVx
F8.8353260000000002
sVz
F2.81600428
ssg205
I00
sg206
(dp4118
g50
VTL Eco HCS
p4119
sg52
Nssg209
(lp4120
sg211
(lp4121
sg215
I01
sg44
VPT6M0.8956008S
p4122
sg41
VDeath
p4123
sg218
I1
sa(dp4124
g41
VImpulse
p4125
sg48
(dp4126
g50
VALG RyaNoob
p4127
sg52
Nssg1038
I3174430457
sg44
VPT6M0.8976225S
p4128
sa(dp4129
g41
VMedal
p4130
sg48
(dp4131
g50
VALG RyaNoob
p4132
sg52
Nssg223
I3653057799
sg44
VPT6M0.8986245S
p4133
sa(dp4134
g47
I313138863
sg41
VWeaponDrop
p4135
sg232
I0
sg53
(lp4136
I1095363701
asg44
VPT6M0.8986245S
p4137
sg235
I0
sg236
VP0DT0H0M0.7500S
p4138
sg48
(dp4139
g50
VTL Eco HCS
p4140
sg52
Nssa(dp4141
g47
I4096745987
sg41
VWeaponDrop
p4142
sg232
I5
sg53
(lp4143
I2758383128
asg44
VPT6M0.8986245S
p4144
sg235
I3
sg236
VP0DT0H0M2.9333S
p4145
sg48
(dp4146
g50
VTL Eco HCS
p4147
sg52
Nssa(dp4148
g188
I4096745987
sg189
I00
sg190
I00
sg191
(dp4149
g50
VTL StelluR
p4150
sg52
Nssg194
(lp4151
I2758383128
asg196
I00
sg197
I01
sg198
I1
sg199
I0
sg200
I1
sg201
(dp4152
Vy
F-15.303599999999999
sVx
F-3.1976823799999998
sVz
F2.0006847400000001
ssg203
(dp4153
Vy
F-2.3388040000000001
sVx
F8.7900159999999996
sVz
F3.1341154599999999
ssg205
I00
sg206
(dp4154
g50
VALG RyaNoob
p4155
sg52
Nssg209
(lp4156
sg211
(lp4157
(dp4158
g50
VTL Eco HCS
p4159
sg52
Nsasg215
I01
sg44
VPT6M2.2126171S
p4160
sg41
VDeath
p4161
sg218
I1
sa(dp4162
g41
VMedal
p4163
sg48
(dp4164
g50
VTL StelluR
p4165
sg52
Nssg223
I3261908037
sg44
VPT6M2.2136424S
p4166
sa(dp4167
g47
I313138863
sg41
VWeaponDrop
p4168
sg232
I0
sg53
(lp4169
I1095363701
asg44
VPT6M2.2146193S
p4170
sg235
I0
sg236
VP0DT0H0M0.7167S
p4171
sg48
(dp4172
g50
VALG RyaNoob
p4173
sg52
Nssa(dp4174
g47
I4096745987
sg41
VWeaponDrop
p4175
sg232
I5
sg53
(lp4176
I2758383128
asg44
VPT6M2.2146193S
p4177
sg235
I5
sg236
VP0DT0H0M3.3167S
p4178
sg48
(dp4179
g50
VALG RyaNoob
p4180
sg52
Nssa(dp4181
g47
I313138863
sg48
(dp4182
g50
VALGPredevonator
p4183
sg52
Nssg53
(lp4184
I1095363701
asg41
VWeaponPickup
p4185
sg44
VPT6M7.6297057S
p4186
sa(dp4187
g47
I4096745987
sg48
(dp4188
g50
VALGPredevonator
p4189
sg52
Nssg53
(lp4190
I2758383128
asg41
VWeaponPickup
p4191
sg44
VPT6M7.6297057S
p4192
sa(dp4193
g41
VPlayerSpawn
p4194
sg48
(dp4195
g50
VALGPredevonator
p4196
sg52
Nssg44
VPT6M7.6297057S
p4197
sa(dp4198
g47
I313138863
sg48
(dp4199
g50
VTL Spartan HCS
p4200
sg52
Nssg53
(lp4201
I1095363701
asg41
VWeaponPickup
p4202
sg44
VPT6M8.0297147S
p4203
sa(dp4204
g47
I4096745987
sg48
(dp4205
g50
VTL Spartan HCS
p4206
sg52
Nssg53
(lp4207
I2758383128
asg41
VWeaponPickup
p4208
sg44
VPT6M8.0297147S
p4209
sa(dp4210
g41
VPlayerSpawn
p4211
sg48
(dp4212
g50
VTL Spartan HCS
p4213
sg52
Nssg44
VPT6M8.0297147S
p4214
sa(dp4215
g188
I2133511419
sg189
I00
sg190
I00
sg191
(dp4216
g50
VTL Danoxide
p4217
sg52
Nssg194
(lp4218
I2758383128
asg196
I00
sg197
I01
sg198
I1
sg199
I0
sg200
I1
sg201
(dp4219
Vy
F-13.1451826
sVx
F-7.6916356099999996
sVz
F-0.11160191899999999
ssg203
(dp4220
Vy
F-16.15652
sVx
F-8.8400820000000007
sVz
F0.41077900000000001
ssg205
I00
sg206
(dp4221
g50
VALG Heinz HCS
p4222
sg52
Nssg209
(lp4223
sg211
(lp4224
(dp4225
g50
VTL StelluR
p4226
sg52
Nsasg215
I00
sg44
VPT6M8.2456952S
p4227
sg41
VDeath
p4228
sg218
I1
sa(dp4229
g41
VMedal
p4230
sg48
(dp4231
g50
VTL Danoxide
p4232
sg52
Nssg223
I2430242797
sg44
VPT6M8.2466967S
p4233
sa(dp4234
g47
I2133511419
sg41
VWeaponDrop
p4235
sg232
I36
sg53
(lp4236
I2758383128
asg44
VPT6M8.247727S
p4237
sg235
I9
sg236
VP0DT0H0M8.9833S
p4238
sg48
(dp4239
g50
VALG Heinz HCS
p4240
sg52
Nssa(dp4241
g47
I424645655
sg41
VWeaponDrop
p4242
sg232
I99
sg53
(lp4243
I1327094800
asg44
VPT6M8.247727S
p4244
sg235
I37
sg236
VP0DT0H1M20.8000S
p4245
sg48
(dp4246
g50
VALG Heinz HCS
p4247
sg52
Nssa(dp4248
g47
I313138863
sg48
(dp4249
g50
VTL Eco HCS
p4250
sg52
Nssg53
(lp4251
I1095363701
asg41
VWeaponPickup
p4252
sg44
VPT6M8.9127036S
p4253
sa(dp4254
g47
I4096745987
sg48
(dp4255
g50
VTL Eco HCS
p4256
sg52
Nssg53
(lp4257
I2758383128
asg41
VWeaponPickup
p4258
sg44
VPT6M8.9127036S
p4259
sa(dp4260
g41
VPlayerSpawn
p4261
sg48
(dp4262
g50
VTL Eco HCS
p4263
sg52
Nssg44
VPT6M8.9127036S
p4264
sa(dp4265
g47
I313138863
sg48
(dp4266
g50
VALG RyaNoob
p4267
sg52
Nssg53
(lp4268
I1095363701
asg41
VWeaponPickup
p4269
sg44
VPT6M10.2297457S
p4270
sa(dp4271
g47
I4096745987
sg48
(dp4272
g50
VALG RyaNoob
p4273
sg52
Nssg53
(lp4274
I2758383128
asg41
VWeaponPickup
p4275
sg44
VPT6M10.2297457S
p4276
sa(dp4277
g41
VPlayerSpawn
p4278
sg48
(dp4279
g50
VALG RyaNoob
p4280
sg52
Nssg44
VPT6M10.2297457S
p4281
sa(dp4282
g41
VMedal
p4283
sg48
(dp4284
g50
VTL Danoxide
p4285
sg52
Nssg223
I3400287617
sg44
VPT6M12.0947436S
p4286
sa(dp4287
g47
I313138863
sg41
VWeaponDrop
p4288
sg232
I22
sg53
(lp4289
I1095363701
asg44
VPT6M13.7777845S
p4290
sg235
I5
sg236
VP0DT0H0M6.9167S
p4291
sg48
(dp4292
g50
VTL StelluR
p4293
sg52
Nssa(dp4294
g47
I2133511419
sg48
(dp4295
g50
VTL StelluR
p4296
sg52
Nssg53
(lp4297
I2758383128
asg41
VWeaponPickup
p4298
sg44
VPT6M13.7777845S
p4299
sa(dp4300
g47
I313138863
sg41
VWeaponDrop
p4301
sg232
I0
sg53
(lp4302
I1095363701
asg44
VPT6M14.0937717S
p4303
sg235
I0
sg236
VP0DT0H0M0.9000S
p4304
sg48
(dp4305
g50
VTL Eco HCS
p4306
sg52
Nssa(dp4307
g47
I2650887244
sg48
(dp4308
g50
VTL Eco HCS
p4309
sg52
Nssg53
(lp4310
I2758383128
asg41
VWeaponPickup
p4311
sg44
VPT6M14.09477S
p4312
sa(dp4313
g188
I2650887244
sg189
I00
sg190
I00
sg191
(dp4314
g50
VTL Eco HCS
p4315
sg52
Nssg194
(lp4316
I2758383128
asg196
I00
sg197
I01
sg198
I1
sg199
I0
sg200
I1
sg201
(dp4317
Vy
F4.2161090000000003
sVx
F5.1228775999999998
sVz
F0.98813754300000001
ssg203
(dp4318
Vy
F4.5223610000000001
sVx
F4.837866
sVz
F0.98139786699999998
ssg205
I00
sg206
(dp4319
g50
VALG ContrA HCS
p4320
sg52
Nssg209
(lp4321
sg211
(lp4322
(dp4323
g50
VTL Spartan HCS
p4324
sg52
Nsasg215
I00
sg44
VPT6M15.7957909S
p4325
sg41
VDeath
p4326
sg218
I1
sa(dp4327
g41
VImpulse
p4328
sg48
(dp4329
g50
VTL Eco HCS
p4330
sg52
Nssg1038
I2556889090
sg44
VPT6M15.7957909S
p4331
sa(dp4332
g41
VMedal
p4333
sg48
(dp4334
g50
VTL Eco HCS
p4335
sg52
Nssg223
I2838259753
sg44
VPT6M15.7957909S
p4336
sa(dp4337
g47
I4096745987
sg41
VWeaponDrop
p4338
sg232
I7
sg53
(lp4339
I2758383128
asg44
VPT6M15.7968149S
p4340
sg235
I5
sg236
VP0DT0H0M16.7000S
p4341
sg48
(dp4342
g50
VALG ContrA HCS
p4343
sg52
Nssa(dp4344
g47
I313138863
sg41
VWeaponDrop
p4345
sg232
I0
sg53
(lp4346
I1095363701
asg44
VPT6M15.7988086S
p4347
sg235
I0
sg236
VP0DT0H0M0.7833S
p4348
sg48
(dp4349
g50
VALG ContrA HCS
p4350
sg52
Nssa(dp4351
g47
I313138863
sg48
(dp4352
g50
VALG Heinz HCS
p4353
sg52
Nssg53
(lp4354
I1095363701
asg41
VWeaponPickup
p4355
sg44
VPT6M16.2628247S
p4356
sa(dp4357
g47
I4096745987
sg48
(dp4358
g50
VALG Heinz HCS
p4359
sg52
Nssg53
(lp4360
I2758383128
asg41
VWeaponPickup
p4361
sg44
VPT6M16.2628247S
p4362
sa(dp4363
g41
VPlayerSpawn
p4364
sg48
(dp4365
g50
VALG Heinz HCS
p4366
sg52
Nssg44
VPT6M16.2628247S
p4367
sa(dp4368
g47
I4096745987
sg41
VWeaponDrop
p4369
sg232
I1
sg53
(lp4370
I2758383128
asg44
VPT6M16.9778063S
p4371
sg235
I0
sg236
VP0DT0H0M6.0167S
p4372
sg48
(dp4373
g50
VALG RyaNoob
p4374
sg52
Nssa(dp4375
g47
I4108759423
sg48
(dp4376
g50
VALG RyaNoob
p4377
sg52
Nssg53
(lp4378
I2758383128
asg41
VWeaponPickup
p4379
sg44
VPT6M16.9778063S
p4380
sa(dp4381
g188
I4108759423
sg189
I00
sg190
I01
sg191
(dp4382
g50
VALG RyaNoob
p4383
sg52
Nssg194
(lp4384
I2758383128
asg196
I00
sg197
I00
sg198
I1
sg199
I0
sg200
I1
sg201
(dp4385
Vy
F-0.89852679999999996
sVx
F5.7069673500000002
sVz
F3.12823319
ssg203
(dp4386
Vy
F-0.54602163999999997
sVx
F5.6383633599999996
sVz
F3.1373035900000001
ssg205
I00
sg206
(dp4387
g50
VTL Spartan HCS
p4388
sg52
Nssg209
(lp4389
sg211
(lp4390
sg215
I00
sg44
VPT6M21.1788599S
p4391
sg41
VDeath
p4392
sg218
I1
sa(dp4393
g41
VMedal
p4394
sg48
(dp4395
g50
VALG RyaNoob
p4396
sg52
Nssg223
I2287626681
sg44
VPT6M21.1798805S
p4397
sa(dp4398
g47
I313138863
sg41
VWeaponDrop
p4399
sg232
I7
sg53
(lp4400
I1095363701
asg44
VPT6M21.1798805S
p4401
sg235
I5
sg236
VP0DT0H0M5.6000S
p4402
sg48
(dp4403
g50
VTL Spartan HCS
p4404
sg52
Nssa(dp4405
g47
I313138863
sg41
VWeaponDrop
p4406
sg232
I0
sg53
(lp4407
I1095363701
asg44
VPT6M21.1798805S
p4408
sg235
I0
sg236
VP0DT0S
p4409
sg48
(dp4410
g50
VTL Spartan HCS
p4411
sg52
Nssa(dp4412
g47
I4096745987
sg41
VWeaponDrop
p4413
sg232
I3
sg53
(lp4414
I2758383128
asg44
VPT6M21.1808784S
p4415
sg235
I2
sg236
VP0DT0H0M7.5500S
p4416
sg48
(dp4417
g50
VTL Spartan HCS
p4418
sg52
Nssa(dp4419
g47
I4096745987
sg41
VWeaponDrop
p4420
sg232
I0
sg53
(lp4421
I2758383128
asg44
VPT6M21.1808784S
p4422
sg235
I1
sg236
VPT0S
p4423
sg48
(dp4424
g50
VTL Spartan HCS
p4425
sg52
Nssa(dp4426
g188
I313138863
sg189
I00
sg190
I01
sg191
(dp4427
g50
VTL Spartan HCS
p4428
sg52
Nssg194
(lp4429
I1095363701
asg196
I00
sg197
I00
sg198
I1
sg199
I0
sg200
I1
sg201
(dp4430
Vy
F-0.54602163999999997
sVx
F5.6383633599999996
sVz
F3.1373035900000001
ssg203
(dp4431
Vy
F-0.89852679999999996
sVx
F5.7069673500000002
sVz
F3.12823319
ssg205
I00
sg206
(dp4432
g50
VALG RyaNoob
p4433
sg52
Nssg209
(lp4434
sg211
(lp4435
(dp4436
g50
VTL StelluR
p4437
sg52
Nsasg215
I00
sg44
VPT6M21.1808784S
p4438
sg41
VDeath
p4439
sg218
I1
sa(dp4440
g41
VMedal
p4441
sg48
(dp4442
g50
VTL Spartan HCS
p4443
sg52
Nssg223
I2287626681
sg44
VPT6M21.1818818S
p4444
sa(dp4445
g47
I4108759423
sg41
VWeaponDrop
p4446
sg232
I9
sg53
(lp4447
I2758383128
asg44
VPT6M21.1828779S
p4448
sg235
I3
sg236
VP0DT0H0M4.2000S
p4449
sg48
(dp4450
g50
VALG RyaNoob
p4451
sg52
Nssa(dp4452
g47
I4108759423
sg41
VWeaponDrop
p4453
sg232
I0
sg53
(lp4454
I2758383128
asg44
VPT6M21.1828779S
p4455
sg235
I0
sg236
VP0DT0S
p4456
sg48
(dp4457
g50
VALG RyaNoob
p4458
sg52
Nssa(dp4459
g47
I313138863
sg41
VWeaponDrop
p4460
sg232
I0
sg53
(lp4461
I1095363701
asg44
VPT6M21.1828779S
p4462
sg235
I0
sg236
VP0DT0H0M0.7333S
p4463
sg48
(dp4464
g50
VALG RyaNoob
p4465
sg52
Nssa(dp4466
g47
I313138863
sg48
(dp4467
g50
VALG ContrA HCS
p4468
sg52
Nssg53
(lp4469
I1095363701
asg41
VWeaponPickup
p4470
sg44
VPT6M23.8118943S
p4471
sa(dp4472
g47
I4096745987
sg48
(dp4473
g50
VALG ContrA HCS
p4474
sg52
Nssg53
(lp4475
I2758383128
asg41
VWeaponPickup
p4476
sg44
VPT6M23.8129151S
p4477
sa(dp4478
g41
VPlayerSpawn
p4479
sg48
(dp4480
g50
VALG ContrA HCS
p4481
sg52
Nssg44
VPT6M23.8129151S
p4482
sa(dp4483
g47
I313138863
sg48
(dp4484
g50
VTL Spartan HCS
p4485
sg52
Nssg53
(lp4486
I1095363701
asg41
VWeaponPickup
p4487
sg44
VPT6M29.1959879S
p4488
sa(dp4489
g47
I4096745987
sg48
(dp4490
g50
VTL Spartan HCS
p4491
sg52
Nssg53
(lp4492
I2758383128
asg41
VWeaponPickup
p4493
sg44
VPT6M29.1959879S
p4494
sa(dp4495
g41
VPlayerSpawn
p4496
sg48
(dp4497
g50
VTL Spartan HCS
p4498
sg52
Nssg44
VPT6M29.1959879S
p4499
sa(dp4500
g47
I313138863
sg48
(dp4501
g50
VALG RyaNoob
p4502
sg52
Nssg53
(lp4503
I1095363701
asg41
VWeaponPickup
p4504
sg44
VPT6M29.2289624S
p4505
sa(dp4506
g47
I4096745987
sg48
(dp4507
g50
VALG RyaNoob
p4508
sg52
Nssg53
(lp4509
I2758383128
asg41
VWeaponPickup
p4510
sg44
VPT6M29.2289624S
p4511
sa(dp4512
g41
VPlayerSpawn
p4513
sg48
(dp4514
g50
VALG RyaNoob
p4515
sg52
Nssg44
VPT6M29.2289624S
p4516
sa(dp4517
g188
I2133511419
sg189
I00
sg190
I00
sg191
(dp4518
g50
VTL StelluR
p4519
sg52
Nssg194
(lp4520
I2758383128
asg196
I00
sg197
I01
sg198
I1
sg199
I0
sg200
I1
sg201
(dp4521
Vy
F1.7237100000000001
sVx
F-19.270616499999999
sVz
F3.1316206499999999
ssg203
(dp4522
Vy
F4.9877934499999999
sVx
F-19.685441999999998
sVz
F2.7742817400000002
ssg205
I00
sg206
(dp4523
g50
VALG ContrA HCS
p4524
sg52
Nssg209
(lp4525
sg211
(lp4526
sg215
I00
sg44
VPT6M29.2449628S
p4527
sg41
VDeath
p4528
sg218
I1
sa(dp4529
g41
VImpulse
p4530
sg48
(dp4531
g50
VTL StelluR
p4532
sg52
Nssg1038
I2556889090
sg44
VPT6M29.2449628S
p4533
sa(dp4534
g41
VMedal
p4535
sg48
(dp4536
g50
VTL StelluR
p4537
sg52
Nssg223
I2838259753
sg44
VPT6M29.2449628S
p4538
sa(dp4539
g41
VMedal
p4540
sg48
(dp4541
g50
VTL Danoxide
p4542
sg52
Nssg223
I824733727
sg44
VPT6M29.2459871S
p4543
sa(dp4544
g47
I313138863
sg41
VWeaponDrop
p4545
sg232
I0
sg53
(lp4546
I1095363701
asg44
VPT6M29.246965S
p4547
sg235
I0
sg236
VP0DT0H0M0.4167S
p4548
sg48
(dp4549
g50
VALG ContrA HCS
p4550
sg52
Nssa(dp4551
g47
I4096745987
sg41
VWeaponDrop
p4552
sg232
I7
sg53
(lp4553
I2758383128
asg44
VPT6M29.246965S
p4554
sg235
I4
sg236
VP0DT0H0M5.0167S
p4555
sg48
(dp4556
g50
VALG ContrA HCS
p4557
sg52
Nssa(dp4558
g188
I4096745987
sg189
I00
sg190
I00
sg191
(dp4559
g50
VTL Eco HCS
p4560
sg52
Nssg194
(lp4561
I2758383128
asg196
I00
sg197
I01
sg198
I1
sg199
I0
sg200
I1
sg201
(dp4562
Vy
F8.6458739999999992
sVx
F7.5110590000000004
sVz
F4.8644129999999999
ssg203
(dp4563
Vy
F-2.4414024400000001
sVx
F-19.205688500000001
sVz
F3.9723290000000002
ssg205
I00
sg206
(dp4564
g50
VALGPredevonator
p4565
sg52
Nssg209
(lp4566
sg211
(lp4567
(dp4568
g50
VTL Danoxide
p4569
sg52
Nsa(dp4570
g50
VTL StelluR
p4571
sg52
Nsasg215
I00
sg44
VPT6M33.1120124S
p4572
sg41
VDeath
p4573
sg218
I1
sa(dp4574
g41
VImpulse
p4575
sg48
(dp4576
g50
VTL Eco HCS
p4577
sg52
Nssg1038
I2556889090
sg44
VPT6M33.1120124S
p4578
sa(dp4579
g41
VMedal
p4580
sg48
(dp4581
g50
VTL Eco HCS
p4582
sg52
Nssg223
I352859864
sg44
VPT6M33.1120124S
p4583
sa(dp4584
g47
I313138863
sg41
VWeaponDrop
p4585
sg232
I7
sg53
(lp4586
I1095363701
asg44
VPT6M33.1140334S
p4587
sg235
I3
sg236
VP0DT0H0M1.6667S
p4588
sg48
(dp4589
g50
VALGPredevonator
p4590
sg52
Nssa(dp4591
g47
I4096745987
sg41
VWeaponDrop
p4592
sg232
I21
sg53
(lp4593
I2758383128
asg44
VPT6M33.1140334S
p4594
sg235
I8
sg236
VP0DT0H0M23.8167S
p4595
sg48
(dp4596
g50
VALGPredevonator
p4597
sg52
Nssa(dp4598
g47
I313138863
sg41
VWeaponDrop
p4599
sg232
I0
sg53
(lp4600
I1095363701
asg44
VPT6M33.9600578S
p4601
sg235
I0
sg236
VP0DT0H0M1.6000S
p4602
sg48
(dp4603
g50
VTL Spartan HCS
p4604
sg52
Nssa(dp4605
g47
I4108759423
sg48
(dp4606
g50
VTL Spartan HCS
p4607
sg52
Nssg53
(lp4608
I2758383128
asg41
VWeaponPickup
p4609
sg44
VPT6M33.961048S
p4610
sa(dp4611
g188
I4106030681
sg189
I00
sg190
I00
sg191
(dp4612
g50
VALG RyaNoob
p4613
sg52
Nssg194
(lp4614
sg196
I00
sg197
I01
sg198
I1
sg199
I0
sg200
I1
sg201
(dp4615
Vy
F4.510675
sVx
F-17.930332199999999
sVz
F3.29660463
ssg203
(dp4616
Vy
F-4.73856258
sVx
F-17.287921900000001
sVz
F3.1670259999999999
ssg205
I00
sg206
(dp4617
g50
VTL Danoxide
p4618
sg52
Nssg209
(lp4619
sg211
(lp4620
(dp4621
g50
VALGPredevonator
p4622
sg52
Nsasg215
I00
sg44
VPT6M36.0780503S
p4623
sg41
VDeath
p4624
sg218
I1
sa(dp4625
g47
I424645655
sg41
VWeaponDrop
p4626
sg232
I82
sg53
(lp4627
I1327094800
asg44
VPT6M36.0790737S
p4628
sg235
I34
sg236
VP0DT0H0M51.2333S
p4629
sg48
(dp4630
g50
VTL Danoxide
p4631
sg52
Nssa(dp4632
g47
I2133511419
sg41
VWeaponDrop
p4633
sg232
I49
sg53
(lp4634
I2758383128
asg44
VPT6M36.080074S
p4635
sg235
I6
sg236
VP0DT0H0M9.6333S
p4636
sg48
(dp4637
g50
VTL Danoxide
p4638
sg52
Nssa(dp4639
g47
I2133511419
sg41
VWeaponDrop
p4640
sg232
I0
sg53
(lp4641
I2758383128
asg44
VPT6M36.080074S
p4642
sg235
I0
sg236
VP0DT0S
p4643
sg48
(dp4644
g50
VTL Danoxide
p4645
sg52
Nssa(dp4646
g47
I4096745987
sg41
VWeaponDrop
p4647
sg232
I22
sg53
(lp4648
I2758383128
asg44
VPT6M36.1600764S
p4649
sg235
I9
sg236
VP0DT0H0M35.7333S
p4650
sg48
(dp4651
g50
VTL StelluR
p4652
sg52
Nssa(dp4653
g47
I424645655
sg48
(dp4654
g50
VTL StelluR
p4655
sg52
Nssg53
(lp4656
I1327094800
asg41
VWeaponPickup
p4657
sg44
VPT6M36.1600764S
p4658
sa(dp4659
g47
I4096745987
sg41
VWeaponDrop
p4660
sg232
I0
sg53
(lp4661
I2758383128
asg44
VPT6M37.1430818S
p4662
sg235
I0
sg236
VP0DT0H0M4.1000S
p4663
sg48
(dp4664
g50
VTL Spartan HCS
p4665
sg52
Nssa(dp4666
g47
I2670072722
sg48
(dp4667
g50
VTL Spartan HCS
p4668
sg52
Nssg53
(lp4669
I2758383128
asg41
VWeaponPickupPad
p4670
sg44
VPT6M37.1440643S
p4671
sa(dp4672
g47
I2670072722
sg48
(dp4673
g50
VTL Spartan HCS
p4674
sg52
Nssg53
(lp4675
I2758383128
asg41
VWeaponPickup
p4676
sg44
VPT6M37.1440643S
p4677
sa(dp4678
g47
I313138863
sg48
(dp4679
g50
VALG ContrA HCS
p4680
sg52
Nssg53
(lp4681
I1095363701
asg41
VWeaponPickup
p4682
sg44
VPT6M37.2620899S
p4683
sa(dp4684
g47
I4096745987
sg48
(dp4685
g50
VALG ContrA HCS
p4686
sg52
Nssg53
(lp4687
I2758383128
asg41
VWeaponPickup
p4688
sg44
VPT6M37.2620899S
p4689
sa(dp4690
g41
VPlayerSpawn
p4691
sg48
(dp4692
g50
VALG ContrA HCS
p4693
sg52
Nssg44
VPT6M37.2620899S
p4694
sa(dp4695
g47
I313138863
sg48
(dp4696
g50
VALGPredevonator
p4697
sg52
Nssg53
(lp4698
I1095363701
asg41
VWeaponPickup
p4699
sg44
VPT6M41.1281158S
p4700
sa(dp4701
g47
I4096745987
sg48
(dp4702
g50
VALGPredevonator
p4703
sg52
Nssg53
(lp4704
I2758383128
asg41
VWeaponPickup
p4705
sg44
VPT6M41.129139S
p4706
sa(dp4707
g41
VPlayerSpawn
p4708
sg48
(dp4709
g50
VALGPredevonator
p4710
sg52
Nssg44
VPT6M41.129139S
p4711
sa(dp4712
g188
I4108759423
sg189
I00
sg190
I00
sg191
(dp4713
g50
VTL Spartan HCS
p4714
sg52
Nssg194
(lp4715
I2758383128
asg196
I00
sg197
I01
sg198
I1
sg199
I0
sg200
I1
sg201
(dp4716
Vy
F3.1644546999999998
sVx
F-6.0602999999999998
sVz
F3.1237080000000002
ssg203
(dp4717
Vy
F8.253145
sVx
F-14.960434899999999
sVz
F1.8367159399999999
ssg205
I00
sg206
(dp4718
g50
VALG RyaNoob
p4719
sg52
Nssg209
(lp4720
sg211
(lp4721
(dp4722
g50
VTL StelluR
p4723
sg52
Nsasg215
I00
sg44
VPT6M41.9941508S
p4724
sg41
VDeath
p4725
sg218
I1
sa(dp4726
g47
I313138863
sg41
VWeaponDrop
p4727
sg232
I0
sg53
(lp4728
I1095363701
asg44
VPT6M41.9961458S
p4729
sg235
I0
sg236
VP0DT0H0M4.0500S
p4730
sg48
(dp4731
g50
VALG RyaNoob
p4732
sg52
Nssa(dp4733
g47
I4096745987
sg41
VWeaponDrop
p4734
sg232
I7
sg53
(lp4735
I2758383128
asg44
VPT6M41.9961458S
p4736
sg235
I2
sg236
VP0DT0H0M8.7167S
p4737
sg48
(dp4738
g50
VALG RyaNoob
p4739
sg52
Nssa(dp4740
g47
I313138863
sg48
(dp4741
g50
VTL Danoxide
p4742
sg52
Nssg53
(lp4743
I1095363701
asg41
VWeaponPickup
p4744
sg44
VPT6M44.0951766S
p4745
sa(dp4746
g47
I4096745987
sg48
(dp4747
g50
VTL Danoxide
p4748
sg52
Nssg53
(lp4749
I2758383128
asg41
VWeaponPickup
p4750
sg44
VPT6M44.0951766S
p4751
sa(dp4752
g41
VPlayerSpawn
p4753
sg48
(dp4754
g50
VTL Danoxide
p4755
sg52
Nssg44
VPT6M44.0951766S
p4756
sa(dp4757
g47
I313138863
sg41
VWeaponDrop
p4758
sg232
I0
sg53
(lp4759
I1095363701
asg44
VPT6M44.3602789S
p4760
sg235
I0
sg236
VP0DT0H0M0.7000S
p4761
sg48
(dp4762
g50
VALGPredevonator
p4763
sg52
Nssa(dp4764
g47
I2133511419
sg48
(dp4765
g50
VALGPredevonator
p4766
sg52
Nssg53
(lp4767
I2758383128
asg41
VWeaponPickup
p4768
sg44
VPT6M44.3602789S
p4769
sa(dp4770
g47
I313138863
sg41
VWeaponDrop
p4771
sg232
I0
sg53
(lp4772
I1095363701
asg44
VPT6M45.2432221S
p4773
sg235
I0
sg236
VP0DT0H0M0.5667S
p4774
sg48
(dp4775
g50
VTL Danoxide
p4776
sg52
Nssa(dp4777
g47
I524558978
sg48
(dp4778
g50
VTL Danoxide
p4779
sg52
Nssg53
(lp4780
I2758383128
asg41
VWeaponPickup
p4781
sg44
VPT6M45.2432221S
p4782
sa(dp4783
g47
I4096745987
sg41
VWeaponDrop
p4784
sg232
I8
sg53
(lp4785
I2758383128
asg44
VPT6M46.2602014S
p4786
sg235
I4
sg236
VP0DT0H0M8.4500S
p4787
sg48
(dp4788
g50
VALG ContrA HCS
p4789
sg52
Nssa(dp4790
g47
I424645655
sg48
(dp4791
g50
VALG ContrA HCS
p4792
sg52
Nssg53
(lp4793
I1327094800
asg41
VWeaponPickup
p4794
sg44
VPT6M46.2602014S
p4795
sa(dp4796
g188
I2650887244
sg189
I00
sg190
I00
sg191
(dp4797
g50
VTL Eco HCS
p4798
sg52
Nssg194
(lp4799
I2758383128
asg196
I00
sg197
I01
sg198
I1
sg199
I0
sg200
I1
sg201
(dp4800
Vy
F10.4531031
sVx
F-3.4358682599999999
sVz
F2.0006849999999998
ssg203
(dp4801
Vy
F10.074878699999999
sVx
F-3.2725753800000001
sVz
F2.0006849999999998
ssg205
I00
sg206
(dp4802
g50
VALG Heinz HCS
p4803
sg52
Nssg209
(lp4804
sg211
(lp4805
(dp4806
g50
VTL Spartan HCS
p4807
sg52
Nsasg215
I00
sg44
VPT6M47.7111993S
p4808
sg41
VDeath
p4809
sg218
I1
sa(dp4810
g47
I4096745987
sg41
VWeaponDrop
p4811
sg232
I14
sg53
(lp4812
I2758383128
asg44
VPT6M47.7132217S
p4813
sg235
I8
sg236
VP0DT0H0M30.2500S
p4814
sg48
(dp4815
g50
VALG Heinz HCS
p4816
sg52
Nssa(dp4817
g47
I313138863
sg41
VWeaponDrop
p4818
sg232
I0
sg53
(lp4819
I1095363701
asg44
VPT6M47.7142247S
p4820
sg235
I0
sg236
VP0DT0H0M1.2000S
p4821
sg48
(dp4822
g50
VALG Heinz HCS
p4823
sg52
Nssa(dp4824
g47
I313138863
sg48
(dp4825
g50
VALG RyaNoob
p4826
sg52
Nssg53
(lp4827
I1095363701
asg41
VWeaponPickup
p4828
sg44
VPT6M50.0112294S
p4829
sa(dp4830
g47
I4096745987
sg48
(dp4831
g50
VALG RyaNoob
p4832
sg52
Nssg53
(lp4833
I2758383128
asg41
VWeaponPickup
p4834
sg44
VPT6M50.0122508S
p4835
sa(dp4836
g41
VPlayerSpawn
p4837
sg48
(dp4838
g50
VALG RyaNoob
p4839
sg52
Nssg44
VPT6M50.0122508S
p4840
sa(dp4841
g47
I313138863
sg48
(dp4842
g50
VALG Heinz HCS
p4843
sg52
Nssg53
(lp4844
I1095363701
asg41
VWeaponPickup
p4845
sg44
VPT6M55.729302S
p4846
sa(dp4847
g47
I4096745987
sg48
(dp4848
g50
VALG Heinz HCS
p4849
sg52
Nssg53
(lp4850
I2758383128
asg41
VWeaponPickup
p4851
sg44
VPT6M55.729302S
p4852
sa(dp4853
g41
VPlayerSpawn
p4854
sg48
(dp4855
g50
VALG Heinz HCS
p4856
sg52
Nssg44
VPT6M55.729302S
p4857
sa(dp4858
g188
I4096745987
sg189
I00
sg190
I00
sg191
(dp4859
g50
VALG RyaNoob
p4860
sg52
Nssg194
(lp4861
I2758383128
asg196
I00
sg197
I01
sg198
I1
sg199
I0
sg200
I1
sg201
(dp4862
Vy
F-5.5812900000000001
sVx
F-19.022308299999999
sVz
F2.6405959999999999
ssg203
(dp4863
Vy
F2.34100223
sVx
F-18.602193799999998
sVz
F3.7885659999999999
ssg205
I00
sg206
(dp4864
g50
VTL StelluR
p4865
sg52
Nssg209
(lp4866
sg211
(lp4867
sg215
I00
sg44
VPT6M57.5113369S
p4868
sg41
VDeath
p4869
sg218
I1
sa(dp4870
g47
I2133511419
sg41
VWeaponDrop
p4871
sg232
I28
sg53
(lp4872
I2758383128
asg44
VPT6M57.5133265S
p4873
sg235
I16
sg236
VP0DT0H0M9.0000S
p4874
sg48
(dp4875
g50
VTL StelluR
p4876
sg52
Nssa(dp4877
g47
I424645655
sg41
VWeaponDrop
p4878
sg232
I21
sg53
(lp4879
I1327094800
asg44
VPT6M57.5133265S
p4880
sg235
I13
sg236
VP0DT0H0M18.4667S
p4881
sg48
(dp4882
g50
VTL StelluR
p4883
sg52
Nssa(dp4884
g188
I4096745987
sg189
I00
sg190
I00
sg191
(dp4885
g50
VTL Danoxide
p4886
sg52
Nssg194
(lp4887
I2758383128
asg196
I00
sg197
I01
sg198
I1
sg199
I0
sg200
I1
sg201
(dp4888
Vy
F-10.2472277
sVx
F-2.7452860000000001
sVz
F3.4281864199999998
ssg203
(dp4889
Vy
F-10.104184200000001
sVx
F-3.54766059
sVz
F2.2845377899999999
ssg205
I00
sg206
(dp4890
g50
VALGPredevonator
p4891
sg52
Nssg209
(lp4892
sg211
(lp4893
sg215
I01
sg44
VPT6M59.5273516S
p4894
sg41
VDeath
p4895
sg218
I1
sa(dp4896
g41
VMedal
p4897
sg48
(dp4898
g50
VTL Danoxide
p4899
sg52
Nssg223
I2683910456
sg44
VPT6M59.529374S
p4900
sa(dp4901
g47
I2133511419
sg41
VWeaponDrop
p4902
sg232
I0
sg53
(lp4903
I2758383128
asg44
VPT6M59.5303759S
p4904
sg235
I0
sg236
VP0DT0H0M1.9500S
p4905
sg48
(dp4906
g50
VALGPredevonator
p4907
sg52
Nssa(dp4908
g47
I4096745987
sg41
VWeaponDrop
p4909
sg232
I0
sg53
(lp4910
I2758383128
asg44
VPT6M59.5303759S
p4911
sg235
I0
sg236
VP0DT0H0M15.7500S
p4912
sg48
(dp4913
g50
VALGPredevonator
p4914
sg52
Nssa(dp4915
g188
I2650887244
sg189
I00
sg190
I00
sg191
(dp4916
g50
VTL Eco HCS
p4917
sg52
Nssg194
(lp4918
I2758383128
asg196
I00
sg197
I01
sg198
I1
sg199
I0
sg200
I1
sg201
(dp4919
Vy
F1.90819848
sVx
F-19.09507
sVz
F3.0814464099999999
ssg203
(dp4920
Vy
F1.4318473300000001
sVx
F-18.914743399999999
sVz
F3.1324791900000002
ssg205
I00
sg206
(dp4921
g50
VALG RyaNoob
p4922
sg52
Nssg209
(lp4923
sg211
(lp4924
sg215
I00
sg44
VPT7M2.0443825S
p4925
sg41
VDeath
p4926
sg218
I1
sa(dp4927
g47
I4096745987
sg41
VWeaponDrop
p4928
sg232
I7
sg53
(lp4929
I2758383128
asg44
VPT7M2.0454096S
p4930
sg235
I4
sg236
VP0DT0H0M11.3000S
p4931
sg48
(dp4932
g50
VALG RyaNoob
p4933
sg52
Nssa(dp4934
g47
I313138863
sg41
VWeaponDrop
p4935
sg232
I0
sg53
(lp4936
I1095363701
asg44
VPT7M2.0464077S
p4937
sg235
I0
sg236
VP0DT0H0M0.7167S
p4938
sg48
(dp4939
g50
VALG RyaNoob
p4940
sg52
Nssa(dp4941
g188
I2670072722
sg189
I00
sg190
I00
sg191
(dp4942
g50
VTL Spartan HCS
p4943
sg52
Nssg194
(lp4944
I2758383128
asg196
I00
sg197
I01
sg198
I1
sg199
I0
sg200
I1
sg201
(dp4945
Vy
F-10.273497600000001
sVx
F-15.441700900000001
sVz
F1.9748904700000001
ssg203
(dp4946
Vy
F-3.3598003400000001
sVx
F-15.587195400000001
sVz
F-0.11806709999999999
ssg205
I00
sg206
(dp4947
g50
VALG ContrA HCS
p4948
sg52
Nssg209
(lp4949
sg211
(lp4950
sg215
I00
sg44
VPT7M4.4434148S
p4951
sg41
VDeath
p4952
sg218
I1
sa(dp4953
g47
I313138863
sg41
VWeaponDrop
p4954
sg232
I0
sg53
(lp4955
I1095363701
asg44
VPT7M4.4454362S
p4956
sg235
I0
sg236
VP0DT0H0M0.5500S
p4957
sg48
(dp4958
g50
VALG ContrA HCS
p4959
sg52
Nssa(dp4960
g47
I424645655
sg41
VWeaponDrop
p4961
sg232
I3
sg53
(lp4962
I1327094800
asg44
VPT7M4.4454362S
p4963
sg235
I3
sg236
VP0DT0H0M18.1667S
p4964
sg48
(dp4965
g50
VALG ContrA HCS
p4966
sg52
Nssa(dp4967
g47
I313138863
sg48
(dp4968
g50
VTL StelluR
p4969
sg52
Nssg53
(lp4970
I1095363701
asg41
VWeaponPickup
p4971
sg44
VPT7M5.5444284S
p4972
sa(dp4973
g47
I4096745987
sg48
(dp4974
g50
VTL StelluR
p4975
sg52
Nssg53
(lp4976
I2758383128
asg41
VWeaponPickup
p4977
sg44
VPT7M5.54543S
p4978
sa(dp4979
g41
VPlayerSpawn
p4980
sg48
(dp4981
g50
VTL StelluR
p4982
sg52
Nssg44
VPT7M5.54543S
p4983
sa(dp4984
g47
I313138863
sg48
(dp4985
g50
VALGPredevonator
p4986
sg52
Nssg53
(lp4987
I1095363701
asg41
VWeaponPickup
p4988
sg44
VPT7M7.5614926S
p4989
sa(dp4990
g47
I4096745987
sg48
(dp4991
g50
VALGPredevonator
p4992
sg52
Nssg53
(lp4993
I2758383128
asg41
VWeaponPickup
p4994
sg44
VPT7M7.5614926S
p4995
sa(dp4996
g41
VPlayerSpawn
p4997
sg48
(dp4998
g50
VALGPredevonator
p4999
sg52
Nssg44
VPT7M7.5614926S
p5000
sa(dp5001
g47
I313138863
sg48
(dp5002
g50
VALG RyaNoob
p5003
sg52
Nssg53
(lp5004
I1095363701
asg41
VWeaponPickup
p5005
sg44
VPT7M10.0615137S
p5006
sa(dp5007
g47
I4096745987
sg48
(dp5008
g50
VALG RyaNoob
p5009
sg52
Nssg53
(lp5010
I2758383128
asg41
VWeaponPickup
p5011
sg44
VPT7M10.0615137S
p5012
sa(dp5013
g41
VPlayerSpawn
p5014
sg48
(dp5015
g50
VALG RyaNoob
p5016
sg52
Nssg44
VPT7M10.0615137S
p5017
sa(dp5018
g41
VMedal
p5019
sg48
(dp5020
g50
VTL Eco HCS
p5021
sg52
Nssg223
I3400287617
sg44
VPT7M11.0264981S
p5022
sa(dp5023
g47
I2492868984
sg48
(dp5024
g50
VTL Spartan HCS
p5025
sg52
Nssg53
(lp5026
I2758383128
asg41
VWeaponPickup
p5027
sg44
VPT7M11.8435083S
p5028
sa(dp5029
g47
I313138863
sg48
(dp5030
g50
VALG ContrA HCS
p5031
sg52
Nssg53
(lp5032
I1095363701
asg41
VWeaponPickup
p5033
sg44
VPT7M12.4605162S
p5034
sa(dp5035
g47
I4096745987
sg48
(dp5036
g50
VALG ContrA HCS
p5037
sg52
Nssg53
(lp5038
I2758383128
asg41
VWeaponPickup
p5039
sg44
VPT7M12.4615407S
p5040
sa(dp5041
g41
VPlayerSpawn
p5042
sg48
(dp5043
g50
VALG ContrA HCS
p5044
sg52
Nssg44
VPT7M12.4615407S
p5045
sa(dp5046
g188
I313138863
sg189
I00
sg190
I00
sg191
(dp5047
g50
VTL StelluR
p5048
sg52
Nssg194
(lp5049
I1095363701
asg196
I00
sg197
I01
sg198
I1
sg199
I0
sg200
I1
sg201
(dp5050
Vy
F11.2766609
sVx
F-13.317172100000001
sVz
F1.3705275100000001
ssg203
(dp5051
Vy
F13.3113279
sVx
F-9.4528750000000006
sVz
F2.0006849999999998
ssg205
I00
sg206
(dp5052
g50
VALG Heinz HCS
p5053
sg52
Nssg209
(lp5054
sg211
(lp5055
sg215
I00
sg44
VPT7M12.5285171S
p5056
sg41
VDeath
p5057
sg218
I1
sa(dp5058
g47
I313138863
sg41
VWeaponDrop
p5059
sg232
I0
sg53
(lp5060
I1095363701
asg44
VPT7M12.5305364S
p5061
sg235
I0
sg236
VP0DT0H0M0.6833S
p5062
sg48
(dp5063
g50
VALG Heinz HCS
p5064
sg52
Nssa(dp5065
g47
I4096745987
sg41
VWeaponDrop
p5066
sg232
I20
sg53
(lp5067
I2758383128
asg44
VPT7M12.5305364S
p5068
sg235
I14
sg236
VP0DT0H0M16.1000S
p5069
sg48
(dp5070
g50
VALG Heinz HCS
p5071
sg52
Nssa(dp5072
g188
I4096745987
sg189
I00
sg190
I00
sg191
(dp5073
g50
VALGPredevonator
p5074
sg52
Nssg194
(lp5075
I2758383128
asg196
I00
sg197
I01
sg198
I1
sg199
I0
sg200
I1
sg201
(dp5076
Vy
F10.4754114
sVx
F-9.5339539999999996
sVz
F0.028440237
ssg203
(dp5077
Vy
F11.3982992
sVx
F-13.284256900000001
sVz
F1.2151840899999999
ssg205
I00
sg206
(dp5078
g50
VTL StelluR
p5079
sg52
Nssg209
(lp5080
sg211
(lp5081
(dp5082
g50
VALG Heinz HCS
p5083
sg52
Nsasg215
I01
sg44
VPT7M12.6275205S
p5084
sg41
VDeath
p5085
sg218
I1
sa(dp5086
g41
VMedal
p5087
sg48
(dp5088
g50
VALGPredevonator
p5089
sg52
Nssg223
I3261908037
sg44
VPT7M12.6285383S
p5090
sa(dp5091
g47
I313138863
sg41
VWeaponDrop
p5092
sg232
I18
sg53
(lp5093
I1095363701
asg44
VPT7M12.6285383S
p5094
sg235
I13
sg236
VP0DT0H0M3.1333S
p5095
sg48
(dp5096
g50
VTL StelluR
p5097
sg52
Nssa(dp5098
g47
I4096745987
sg41
VWeaponDrop
p5099
sg232
I0
sg53
(lp5100
I2758383128
asg44
VPT7M12.6285383S
p5101
sg235
I0
sg236
VP0DT0H0M3.9500S
p5102
sg48
(dp5103
g50
VTL StelluR
p5104
sg52
Nssa(dp5105
g47
I2492868984
sg41
VWeaponDrop
p5106
sg232
I0
sg53
(lp5107
I2758383128
asg44
VPT7M12.994522S
p5108
sg235
I0
sg236
VP0DT0H0M0.9833S
p5109
sg48
(dp5110
g50
VTL Spartan HCS
p5111
sg52
Nssa(dp5112
g47
I4096745987
sg41
VWeaponDrop
p5113
sg232
I4
sg53
(lp5114
I2758383128
asg44
VPT7M16.6755879S
p5115
sg235
I3
sg236
VP0DT0H0M5.9000S
p5116
sg48
(dp5117
g50
VALG RyaNoob
p5118
sg52
Nssa(dp5119
g47
I4108759423
sg48
(dp5120
g50
VALG RyaNoob
p5121
sg52
Nssg53
(lp5122
I2758383128
asg41
VWeaponPickup
p5123
sg44
VPT7M16.6755879S
p5124
sa(dp5125
g188
I4096745987
sg189
I00
sg190
I00
sg191
(dp5126
g50
VALG ContrA HCS
p5127
sg52
Nssg194
(lp5128
I2758383128
asg196
I00
sg197
I01
sg198
I1
sg199
I0
sg200
I1
sg201
(dp5129
Vy
F8.1011500000000005
sVx
F7.50032663
sVz
F3.9151926000000001
ssg203
(dp5130
Vy
F8.1791579999999993
sVx
F-18.587957400000001
sVz
F2.835531
ssg205
I00
sg206
(dp5131
g50
VTL Eco HCS
p5132
sg52
Nssg209
(lp5133
sg211
(lp5134
(dp5135
g50
VALG RyaNoob
p5136
sg52
Nsasg215
I00
sg44
VPT7M16.8105719S
p5137
sg41
VDeath
p5138
sg218
I1
sa(dp5139
g41
VImpulse
p5140
sg48
(dp5141
g50
VALG ContrA HCS
p5142
sg52
Nssg1038
I2556889090
sg44
VPT7M16.8105719S
p5143
sa(dp5144
g41
VMedal
p5145
sg48
(dp5146
g50
VALG ContrA HCS
p5147
sg52
Nssg223
I352859864
sg44
VPT7M16.8105719S
p5148
sa(dp5149
g41
VMedal
p5150
sg48
(dp5151
g50
VALGPredevonator
p5152
sg52
Nssg223
I824733727
sg44
VPT7M16.8116152S
p5153
sa(dp5154
g47
I2650887244
sg41
VWeaponDrop
p5155
sg232
I0
sg53
(lp5156
I2758383128
asg44
VPT7M16.8116152S
p5157
sg235
I0
sg236
VP0DT0H0M9.5333S
p5158
sg48
(dp5159
g50
VTL Eco HCS
p5160
sg52
Nssa(dp5161
g47
I4096745987
sg41
VWeaponDrop
p5162
sg232
I34
sg53
(lp5163
I2758383128
asg44
VPT7M16.8116152S
p5164
sg235
I13
sg236
VP0DT0H0M57.4500S
p5165
sg48
(dp5166
g50
VTL Eco HCS
p5167
sg52
Nssa(dp5168
g47
I313138863
sg48
(dp5169
g50
VALG Heinz HCS
p5170
sg52
Nssg53
(lp5171
I1095363701
asg41
VWeaponPickup
p5172
sg44
VPT7M20.5436205S
p5173
sa(dp5174
g47
I4096745987
sg48
(dp5175
g50
VALG Heinz HCS
p5176
sg52
Nssg53
(lp5177
I2758383128
asg41
VWeaponPickup
p5178
sg44
VPT7M20.5446219S
p5179
sa(dp5180
g41
VPlayerSpawn
p5181
sg48
(dp5182
g50
VALG Heinz HCS
p5183
sg52
Nssg44
VPT7M20.5446219S
p5184
sa(dp5185
g47
I313138863
sg48
(dp5186
g50
VTL StelluR
p5187
sg52
Nssg53
(lp5188
I1095363701
asg41
VWeaponPickup
p5189
sg44
VPT7M20.644646S
p5190
sa(dp5191
g47
I4096745987
sg48
(dp5192
g50
VTL StelluR
p5193
sg52
Nssg53
(lp5194
I2758383128
asg41
VWeaponPickup
p5195
sg44
VPT7M20.644646S
p5196
sa(dp5197
g41
VPlayerSpawn
p5198
sg48
(dp5199
g50
VTL StelluR
p5200
sg52
Nssg44
VPT7M20.644646S
p5201
sa(dp5202
g188
I4106030681
sg189
I00
sg190
I00
sg191
(dp5203
g50
VALG ContrA HCS
p5204
sg52
Nssg194
(lp5205
sg196
I00
sg197
I01
sg198
I1
sg199
I0
sg200
I1
sg201
(dp5206
Vy
F5.8202350000000003
sVx
F5.3817469999999998
sVz
F1.8292207700000001
ssg203
(dp5207
Vy
F-1.5977268200000001
sVx
F-12.1462164
sVz
F0.95336909999999997
ssg205
I00
sg206
(dp5208
g50
VTL Danoxide
p5209
sg52
Nssg209
(lp5210
sg211
(lp5211
(dp5212
g50
VALG RyaNoob
p5213
sg52
Nsasg215
I00
sg44
VPT7M24.7426741S
p5214
sg41
VDeath
p5215
sg218
I1
sa(dp5216
g41
VMedal
p5217
sg48
(dp5218
g50
VALG ContrA HCS
p5219
sg52
Nssg223
I3491849182
sg44
VPT7M24.7446915S
p5220
sa(dp5221
g47
I524558978
sg41
VWeaponDrop
p5222
sg232
I2
sg53
(lp5223
I2758383128
asg44
VPT7M24.7446915S
p5224
sg235
I1
sg236
VP0DT0H0M11.6000S
p5225
sg48
(dp5226
g50
VTL Danoxide
p5227
sg52
Nssa(dp5228
g47
I524558978
sg41
VWeaponDrop
p5229
sg232
I0
sg53
(lp5230
I2758383128
asg44
VPT7M24.7446915S
p5231
sg235
I0
sg236
VP0DT0S
p5232
sg48
(dp5233
g50
VTL Danoxide
p5234
sg52
Nssa(dp5235
g47
I4096745987
sg41
VWeaponDrop
p5236
sg232
I23
sg53
(lp5237
I2758383128
asg44
VPT7M24.7446915S
p5238
sg235
I6
sg236
VP0DT0H0M28.4667S
p5239
sg48
(dp5240
g50
VTL Danoxide
p5241
sg52
Nssa(dp5242
g47
I313138863
sg48
(dp5243
g50
VTL Eco HCS
p5244
sg52
Nssg53
(lp5245
I1095363701
asg41
VWeaponPickup
p5246
sg44
VPT7M24.8276987S
p5247
sa(dp5248
g47
I4096745987
sg48
(dp5249
g50
VTL Eco HCS
p5250
sg52
Nssg53
(lp5251
I2758383128
asg41
VWeaponPickup
p5252
sg44
VPT7M24.8276987S
p5253
sa(dp5254
g41
VPlayerSpawn
p5255
sg48
(dp5256
g50
VTL Eco HCS
p5257
sg52
Nssg44
VPT7M24.8276987S
p5258
sa(dp5259
g47
I313138863
sg41
VWeaponDrop
p5260
sg232
I0
sg53
(lp5261
I1095363701
asg44
VPT7M25.9426892S
p5262
sg235
I0
sg236
VP0DT0H0M0.7000S
p5263
sg48
(dp5264
g50
VALGPredevonator
p5265
sg52
Nssa(dp5266
g47
I2650887244
sg48
(dp5267
g50
VALGPredevonator
p5268
sg52
Nssg53
(lp5269
I2758383128
asg41
VWeaponPickup
p5270
sg44
VPT7M25.9426892S
p5271
sa(dp5272
g47
I313138863
sg41
VWeaponDrop
p5273
sg232
I0
sg53
(lp5274
I1095363701
asg44
VPT7M31.425766S
p5275
sg235
I0
sg236
VP0DT0H0M0.9000S
p5276
sg48
(dp5277
g50
VALG Heinz HCS
p5278
sg52
Nssa(dp5279
g47
I2133511419
sg48
(dp5280
g50
VALG Heinz HCS
p5281
sg52
Nssg53
(lp5282
I2758383128
asg41
VWeaponPickup
p5283
sg44
VPT7M31.425766S
p5284
sa(dp5285
g47
I313138863
sg48
(dp5286
g50
VTL Danoxide
p5287
sg52
Nssg53
(lp5288
I1095363701
asg41
VWeaponPickup
p5289
sg44
VPT7M32.7617785S
p5290
sa(dp5291
g47
I4096745987
sg48
(dp5292
g50
VTL Danoxide
p5293
sg52
Nssg53
(lp5294
I2758383128
asg41
VWeaponPickup
p5295
sg44
VPT7M32.7617785S
p5296
sa(dp5297
g41
VPlayerSpawn
p5298
sg48
(dp5299
g50
VTL Danoxide
p5300
sg52
Nssg44
VPT7M32.7617785S
p5301
sa(dp5302
g188
I4096745987
sg189
I00
sg190
I00
sg191
(dp5303
g50
VALG ContrA HCS
p5304
sg52
Nssg194
(lp5305
I2758383128
asg196
I00
sg197
I01
sg198
I1
sg199
I0
sg200
I1
sg201
(dp5306
Vy
F-2.1688239999999999
sVx
F-1.2636938099999999
sVz
F-0.16695858499999999
ssg203
(dp5307
Vy
F-12.023362199999999
sVx
F-7.2972799999999998
sVz
F0.72377526800000003
ssg205
I00
sg206
(dp5308
g50
VTL StelluR
p5309
sg52
Nssg209
(lp5310
sg211
(lp5311
(dp5312
g50
VALGPredevonator
p5313
sg52
Nsasg215
I01
sg44
VPT7M34.2598029S
p5314
sg41
VDeath
p5315
sg218
I1
sa(dp5316
g41
VMedal
p5317
sg48
(dp5318
g50
VALG ContrA HCS
p5319
sg52
Nssg223
I3261908037
sg44
VPT7M34.2617974S
p5320
sa(dp5321
g47
I313138863
sg41
VWeaponDrop
p5322
sg232
I7
sg53
(lp5323
I1095363701
asg44
VPT7M34.2627989S
p5324
sg235
I0
sg236
VP0DT0H0M3.9667S
p5325
sg48
(dp5326
g50
VTL StelluR
p5327
sg52
Nssa(dp5328
g47
I4096745987
sg41
VWeaponDrop
p5329
sg232
I0
sg53
(lp5330
I2758383128
asg44
VPT7M34.2627989S
p5331
sg235
I0
sg236
VP0DT0H0M9.6500S
p5332
sg48
(dp5333
g50
VTL StelluR
p5334
sg52
Nssa(dp5335
g188
I4106030681
sg189
I00
sg190
I00
sg191
(dp5336
g50
VTL Eco HCS
p5337
sg52
Nssg194
(lp5338
sg196
I00
sg197
I01
sg198
I1
sg199
I0
sg200
I1
sg201
(dp5339
Vy
F-10.883391400000001
sVx
F-1.12828445
sVz
F0.026986300899999999
ssg203
(dp5340
Vy
F-14.449055700000001
sVx
F-3.90538645
sVz
F0.61184939999999999
ssg205
I00
sg206
(dp5341
g50
VALG RyaNoob
p5342
sg52
Nssg209
(lp5343
sg211
(lp5344
sg215
I00
sg44
VPT7M34.2927951S
p5345
sg41
VDeath
p5346
sg218
I1
sa(dp5347
g47
I313138863
sg41
VWeaponDrop
p5348
sg232
I8
sg53
(lp5349
I1095363701
asg44
VPT7M34.2958205S
p5350
sg235
I8
sg236
VP0DT0H0M5.3333S
p5351
sg48
(dp5352
g50
VALG RyaNoob
p5353
sg52
Nssa(dp5354
g47
I4108759423
sg41
VWeaponDrop
p5355
sg232
I10
sg53
(lp5356
I2758383128
asg44
VPT7M34.2958205S
p5357
sg235
I4
sg236
VP0DT0H0M13.0000S
p5358
sg48
(dp5359
g50
VALG RyaNoob
p5360
sg52
Nssa(dp5361
g188
I4096745987
sg189
I00
sg190
I00
sg191
(dp5362
g50
VALGPredevonator
p5363
sg52
Nssg194
(lp5364
I2758383128
asg196
I00
sg197
I01
sg198
I1
sg199
I0
sg200
I1
sg201
(dp5365
Vy
F-10.4657707
sVx
F-12.477666899999999
sVz
F0.60185414599999998
ssg203
(dp5366
Vy
F-10.737349999999999
sVx
F-1.4509339999999999
sVz
F0.01298064
ssg205
I00
sg206
(dp5367
g50
VTL Eco HCS
p5368
sg52
Nssg209
(lp5369
sg211
(lp5370
(dp5371
g50
VALG RyaNoob
p5372
sg52
Nsasg215
I01
sg44
VPT7M35.3948352S
p5373
sg41
VDeath
p5374
sg218
I1
sa(dp5375
g41
VMedal
p5376
sg48
(dp5377
g50
VALGPredevonator
p5378
sg52
Nssg223
I3261908037
sg44
VPT7M35.3958358S
p5379
sa(dp5380
g47
I313138863
sg41
VWeaponDrop
p5381
sg232
I23
sg53
(lp5382
I1095363701
asg44
VPT7M35.3968448S
p5383
sg235
I9
sg236
VP0DT0H0M8.5000S
p5384
sg48
(dp5385
g50
VTL Eco HCS
p5386
sg52
Nssa(dp5387
g47
I4096745987
sg41
VWeaponDrop
p5388
sg232
I0
sg53
(lp5389
I2758383128
asg44
VPT7M35.3968448S
p5390
sg235
I0
sg236
VP0DT0H0M2.0667S
p5391
sg48
(dp5392
g50
VTL Eco HCS
p5393
sg52
Nssa(dp5394
g188
I4108759423
sg189
I00
sg190
I00
sg191
(dp5395
g50
VTL Spartan HCS
p5396
sg52
Nssg194
(lp5397
I2758383128
asg196
I00
sg197
I01
sg198
I1
sg199
I0
sg200
I1
sg201
(dp5398
Vy
F1.62897015
sVx
F-0.6895173
sVz
F-0.17077128599999999
ssg203
(dp5399
Vy
F-7.2844610000000003
sVx
F-3.0168621500000001
sVz
F-0.20044559200000001
ssg205
I00
sg206
(dp5400
g50
VALG ContrA HCS
p5401
sg52
Nssg209
(lp5402
sg211
(lp5403
sg215
I01
sg44
VPT7M37.3268354S
p5404
sg41
VDeath
p5405
sg218
I1
sa(dp5406
g41
VMedal
p5407
sg48
(dp5408
g50
VTL Spartan HCS
p5409
sg52
Nssg223
I3261908037
sg44
VPT7M37.3288572S
p5410
sa(dp5411
g47
I313138863
sg41
VWeaponDrop
p5412
sg232
I0
sg53
(lp5413
I1095363701
asg44
VPT7M37.3288572S
p5414
sg235
I0
sg236
VP0DT0H0M5.2167S
p5415
sg48
(dp5416
g50
VALG ContrA HCS
p5417
sg52
Nssa(dp5418
g47
I4096745987
sg41
VWeaponDrop
p5419
sg232
I12
sg53
(lp5420
I2758383128
asg44
VPT7M37.3288572S
p5421
sg235
I8
sg236
VP0DT0H0M19.6500S
p5422
sg48
(dp5423
g50
VALG ContrA HCS
p5424
sg52
Nssa(dp5425
g47
I313138863
sg48
(dp5426
g50
VTL StelluR
p5427
sg52
Nssg53
(lp5428
I1095363701
asg41
VWeaponPickup
p5429
sg44
VPT7M42.2768994S
p5430
sa(dp5431
g47
I4096745987
sg48
(dp5432
g50
VTL StelluR
p5433
sg52
Nssg53
(lp5434
I2758383128
asg41
VWeaponPickup
p5435
sg44
VPT7M42.2768994S
p5436
sa(dp5437
g41
VPlayerSpawn
p5438
sg48
(dp5439
g50
VTL StelluR
p5440
sg52
Nssg44
VPT7M42.2768994S
p5441
sa(dp5442
g47
I313138863
sg48
(dp5443
g50
VALG RyaNoob
p5444
sg52
Nssg53
(lp5445
I1095363701
asg41
VWeaponPickup
p5446
sg44
VPT7M42.3099134S
p5447
sa(dp5448
g47
I4096745987
sg48
(dp5449
g50
VALG RyaNoob
p5450
sg52
Nssg53
(lp5451
I2758383128
asg41
VWeaponPickup
p5452
sg44
VPT7M42.3099134S
p5453
sa(dp5454
g41
VPlayerSpawn
p5455
sg48
(dp5456
g50
VALG RyaNoob
p5457
sg52
Nssg44
VPT7M42.3099134S
p5458
sa(dp5459
g47
I313138863
sg48
(dp5460
g50
VTL Eco HCS
p5461
sg52
Nssg53
(lp5462
I1095363701
asg41
VWeaponPickup
p5463
sg44
VPT7M43.4109365S
p5464
sa(dp5465
g47
I4096745987
sg48
(dp5466
g50
VTL Eco HCS
p5467
sg52
Nssg53
(lp5468
I2758383128
asg41
VWeaponPickup
p5469
sg44
VPT7M43.4109365S
p5470
sa(dp5471
g41
VPlayerSpawn
p5472
sg48
(dp5473
g50
VTL Eco HCS
p5474
sg52
Nssg44
VPT7M43.4109365S
p5475
sa(dp5476
g47
I313138863
sg41
VWeaponDrop
p5477
sg232
I0
sg53
(lp5478
I1095363701
asg44
VPT7M44.3079261S
p5479
sg235
I0
sg236
VP0DT0H0M0.9333S
p5480
sg48
(dp5481
g50
VALG RyaNoob
p5482
sg52
Nssa(dp5483
g47
I2133511419
sg48
(dp5484
g50
VALG RyaNoob
p5485
sg52
Nssg53
(lp5486
I2758383128
asg41
VWeaponPickup
p5487
sg44
VPT7M44.3089241S
p5488
sa(dp5489
g47
I313138863
sg48
(dp5490
g50
VALG ContrA HCS
p5491
sg52
Nssg53
(lp5492
I1095363701
asg41
VWeaponPickup
p5493
sg44
VPT7M45.3429369S
p5494
sa(dp5495
g47
I4096745987
sg48
(dp5496
g50
VALG ContrA HCS
p5497
sg52
Nssg53
(lp5498
I2758383128
asg41
VWeaponPickup
p5499
sg44
VPT7M45.3439583S
p5500
sa(dp5501
g41
VPlayerSpawn
p5502
sg48
(dp5503
g50
VALG ContrA HCS
p5504
sg52
Nssg44
VPT7M45.3439583S
p5505
sa(dp5506
g47
I4096745987
sg41
VWeaponDrop
p5507
sg232
I17
sg53
(lp5508
I2758383128
asg44
VPT7M45.3749987S
p5509
sg235
I9
sg236
VP0DT0H0M36.7167S
p5510
sg48
(dp5511
g50
VALGPredevonator
p5512
sg52
Nssa(dp5513
g47
I424645655
sg48
(dp5514
g50
VALGPredevonator
p5515
sg52
Nssg53
(lp5516
I1327094800
asg41
VWeaponPickup
p5517
sg44
VPT7M45.3749987S
p5518
sa(dp5519
g188
I2670072722
sg189
I00
sg190
I00
sg191
(dp5520
g50
VTL Spartan HCS
p5521
sg52
Nssg194
(lp5522
I2758383128
asg196
I00
sg197
I01
sg198
I1
sg199
I0
sg200
I1
sg201
(dp5523
Vy
F-6.2954980000000003
sVx
F7.1202969999999999
sVz
F4.2941303299999998
ssg203
(dp5524
Vy
F-5.4248050000000001
sVx
F5.77804041
sVz
F2.0359308700000001
ssg205
I00
sg206
(dp5525
g50
VALG RyaNoob
p5526
sg52
Nssg209
(lp5527
sg211
(lp5528
(dp5529
g50
VTL Danoxide
p5530
sg52
Nsasg215
I00
sg44
VPT7M48.0089715S
p5531
sg41
VDeath
p5532
sg218
I1
sa(dp5533
g41
VMedal
p5534
sg48
(dp5535
g50
VTL Spartan HCS
p5536
sg52
Nssg223
I2430242797
sg44
VPT7M48.0110026S
p5537
sa(dp5538
g47
I2133511419
sg41
VWeaponDrop
p5539
sg232
I0
sg53
(lp5540
I2758383128
asg44
VPT7M48.0110026S
p5541
sg235
I0
sg236
VP0DT0H0M3.7000S
p5542
sg48
(dp5543
g50
VALG RyaNoob
p5544
sg52
Nssa(dp5545
g47
I4096745987
sg41
VWeaponDrop
p5546
sg232
I0
sg53
(lp5547
I2758383128
asg44
VPT7M48.0110026S
p5548
sg235
I0
sg236
VP0DT0H0M1.0667S
p5549
sg48
(dp5550
g50
VALG RyaNoob
p5551
sg52
Nssa(dp5552
g188
I4096745987
sg189
I00
sg190
I00
sg191
(dp5553
g50
VTL StelluR
p5554
sg52
Nssg194
(lp5555
I2758383128
asg196
I00
sg197
I01
sg198
I1
sg199
I0
sg200
I1
sg201
(dp5556
Vy
F11.283124000000001
sVx
F-11.716767300000001
sVz
F1.0100016599999999
ssg203
(dp5557
Vy
F4.3663600000000002
sVx
F-19.2518654
sVz
F2.6319490000000001
ssg205
I00
sg206
(dp5558
g50
VALGPredevonator
p5559
sg52
Nssg209
(lp5560
sg211
(lp5561
sg215
I01
sg44
VPT7M52.5260284S
p5562
sg41
VDeath
p5563
sg218
I1
sa(dp5564
g41
VImpulse
p5565
sg48
(dp5566
g50
VTL StelluR
p5567
sg52
Nssg1038
I3174430457
sg44
VPT7M52.5280475S
p5568
sa(dp5569
g41
VMedal
p5570
sg48
(dp5571
g50
VTL StelluR
p5572
sg52
Nssg223
I3653057799
sg44
VPT7M52.5290526S
p5573
sa(dp5574
g47
I424645655
sg41
VWeaponDrop
p5575
sg232
I15
sg53
(lp5576
I1327094800
asg44
VPT7M52.5290526S
p5577
sg235
I11
sg236
VP0DT0H0M4.6333S
p5578
sg48
(dp5579
g50
VALGPredevonator
p5580
sg52
Nssa(dp5581
g47
I2650887244
sg41
VWeaponDrop
p5582
sg232
I0
sg53
(lp5583
I2758383128
asg44
VPT7M52.5300664S
p5584
sg235
I0
sg236
VP0DT0H0M2.9167S
p5585
sg48
(dp5586
g50
VALGPredevonator
p5587
sg52
Nssa(dp5588
g188
I4096745987
sg189
I00
sg190
I00
sg191
(dp5589
g50
VALG ContrA HCS
p5590
sg52
Nssg194
(lp5591
I2758383128
asg196
I00
sg197
I01
sg198
I1
sg199
I0
sg200
I1
sg201
(dp5592
Vy
F-3.1450905800000002
sVx
F-19.5498981
sVz
F2.9805440000000001
ssg203
(dp5593
Vy
F0.65857243499999996
sVx
F-12.668955800000001
sVz
F3.13428855
ssg205
I00
sg206
(dp5594
g50
VTL Danoxide
p5595
sg52
Nssg209
(lp5596
sg211
(lp5597
(dp5598
g50
VALG Heinz HCS
p5599
sg52
Nsasg215
I01
sg44
VPT7M54.8933091S
p5600
sg41
VDeath
p5601
sg218
I1
sa(dp5602
g41
VMedal
p5603
sg48
(dp5604
g50
VALG ContrA HCS
p5605
sg52
Nssg223
I3261908037
sg44
VPT7M54.8950856S
p5606
sa(dp5607
g47
I313138863
sg41
VWeaponDrop
p5608
sg232
I0
sg53
(lp5609
I1095363701
asg44
VPT7M54.8950856S
p5610
sg235
I0
sg236
VP0DT0H0M0.5500S
p5611
sg48
(dp5612
g50
VTL Danoxide
p5613
sg52
Nssa(dp5614
g47
I4096745987
sg41
VWeaponDrop
p5615
sg232
I12
sg53
(lp5616
I2758383128
asg44
VPT7M54.8950856S
p5617
sg235
I5
sg236
VP0DT0H0M21.5833S
p5618
sg48
(dp5619
g50
VTL Danoxide
p5620
sg52
Nssa(dp5621
g47
I313138863
sg48
(dp5622
g50
VALG RyaNoob
p5623
sg52
Nssg53
(lp5624
I1095363701
asg41
VWeaponPickup
p5625
sg44
VPT7M56.0260748S
p5626
sa(dp5627
g47
I4096745987
sg48
(dp5628
g50
VALG RyaNoob
p5629
sg52
Nssg53
(lp5630
I2758383128
asg41
VWeaponPickup
p5631
sg44
VPT7M56.0270985S
p5632
sa(dp5633
g41
VPlayerSpawn
p5634
sg48
(dp5635
g50
VALG RyaNoob
p5636
sg52
Nssg44
VPT7M56.0270985S
p5637
sa(dp5638
g47
I313138863
sg41
VWeaponDrop
p5639
sg232
I0
sg53
(lp5640
I1095363701
asg44
VPT7M58.5411295S
p5641
sg235
I0
sg236
VP0DT0H0M1.0333S
p5642
sg48
(dp5643
g50
VTL StelluR
p5644
sg52
Nssa(dp5645
g47
I2133511419
sg48
(dp5646
g50
VTL StelluR
p5647
sg52
Nssg53
(lp5648
I2758383128
asg41
VWeaponPickup
p5649
sg44
VPT7M58.5411295S
p5650
sa(dp5651
g188
I4096745987
sg189
I01
sg190
I00
sg191
(dp5652
g50
VALG RyaNoob
p5653
sg52
Nssg194
(lp5654
I2758383128
asg196
I00
sg197
I00
sg198
I1
sg199
I0
sg200
I1
sg201
(dp5655
Vy
F-18.186958300000001
sVx
F-7.1527996099999998
sVz
F2.7146797199999999
ssg203
(dp5656
Vy
F-17.898691199999998
sVx
F-6.9594616900000004
sVz
F3.0849373299999998
ssg205
I00
sg206
(dp5657
g50
VTL Eco HCS
p5658
sg52
Nssg209
(lp5659
sg211
(lp5660
(dp5661
g50
VALG Heinz HCS
p5662
sg52
Nsasg215
I00
sg44
VPT7M59.32612S
p5663
sg41
VDeath
p5664
sg218
I1
sa(dp5665
g41
VImpulse
p5666
sg48
(dp5667
g50
VALG RyaNoob
p5668
sg52
Nssg1038
I2556889090
sg44
VPT7M59.32612S
p5669
sa(dp5670
g41
VMedal
p5671
sg48
(dp5672
g50
VALG RyaNoob
p5673
sg52
Nssg223
I2838259753
sg44
VPT7M59.32612S
p5674
sa(dp5675
g41
VMedal
p5676
sg48
(dp5677
g50
VALG RyaNoob
p5678
sg52
Nssg223
I3270120991
sg44
VPT7M59.3271363S
p5679
sa(dp5680
g47
I313138863
sg41
VWeaponDrop
p5681
sg232
I22
sg53
(lp5682
I1095363701
asg44
VPT7M59.328137S
p5683
sg235
I7
sg236
VP0DT0H0M6.1833S
p5684
sg48
(dp5685
g50
VTL Eco HCS
p5686
sg52
Nssa(dp5687
g47
I4096745987
sg41
VWeaponDrop
p5688
sg232
I2
sg53
(lp5689
I2758383128
asg44
VPT7M59.328137S
p5690
sg235
I0
sg236
VP0DT0H0M9.7333S
p5691
sg48
(dp5692
g50
VTL Eco HCS
p5693
sg52
Nssa(dp5694
g47
I313138863
sg48
(dp5695
g50
VALGPredevonator
p5696
sg52
Nssg53
(lp5697
I1095363701
asg41
VWeaponPickup
p5698
sg44
VPT8M0.5431323S
p5699
sa(dp5700
g47
I4096745987
sg48
(dp5701
g50
VALGPredevonator
p5702
sg52
Nssg53
(lp5703
I2758383128
asg41
VWeaponPickup
p5704
sg44
VPT8M0.5441516S
p5705
sa(dp5706
g41
VPlayerSpawn
p5707
sg48
(dp5708
g50
VALGPredevonator
p5709
sg52
Nssg44
VPT8M0.5441516S
p5710
sa(dp5711
g188
I4108759423
sg189
I00
sg190
I00
sg191
(dp5712
g50
VTL Spartan HCS
p5713
sg52
Nssg194
(lp5714
I2758383128
asg196
I00
sg197
I01
sg198
I1
sg199
I0
sg200
I1
sg201
(dp5715
Vy
F-7.6762943300000002
sVx
F-5.8025219999999997
sVz
F2.8899970000000001
ssg203
(dp5716
Vy
F-11.827076
sVx
F-4.4068245900000003
sVz
F2.1807750000000001
ssg205
I00
sg206
(dp5717
g50
VALG Heinz HCS
p5718
sg52
Nssg209
(lp5719
sg211
(lp5720
(dp5721
g50
VTL Eco HCS
p5722
sg52
Nsasg215
I01
sg44
VPT8M1.3261793S
p5723
sg41
VDeath
p5724
sg218
I1
sa(dp5725
g41
VMedal
p5726
sg48
(dp5727
g50
VTL Spartan HCS
p5728
sg52
Nssg223
I3261908037
sg44
VPT8M1.3271438S
p5729
sa(dp5730
g47
I2133511419
sg41
VWeaponDrop
p5731
sg232
I24
sg53
(lp5732
I2758383128
asg44
VPT8M1.3391653S
p5733
sg235
I8
sg236
VP0DT0H0M4.9500S
p5734
sg48
(dp5735
g50
VALG Heinz HCS
p5736
sg52
Nssa(dp5737
g47
I4096745987
sg41
VWeaponDrop
p5738
sg232
I15
sg53
(lp5739
I2758383128
asg44
VPT8M1.3391653S
p5740
sg235
I5
sg236
VP0DT0H0M34.9333S
p5741
sg48
(dp5742
g50
VALG Heinz HCS
p5743
sg52
Nssa(dp5744
g188
I4096745987
sg189
I00
sg190
I00
sg191
(dp5745
g50
VALG ContrA HCS
p5746
sg52
Nssg194
(lp5747
I2758383128
asg196
I00
sg197
I01
sg198
I1
sg199
I0
sg200
I1
sg201
(dp5748
Vy
F-6.9322476399999999
sVx
F-17.443254499999998
sVz
F1.5985821499999999
ssg203
(dp5749
Vy
F-6.6206829999999997
sVx
F-6.4172725699999997
sVz
F2.356887
ssg205
I00
sg206
(dp5750
g50
VTL Spartan HCS
p5751
sg52
Nssg209
(lp5752
sg211
(lp5753
(dp5754
g50
VALG RyaNoob
p5755
sg52
Nsa(dp5756
g50
VALG Heinz HCS
p5757
sg52
Nsasg215
I01
sg44
VPT8M1.9091492S
p5758
sg41
VDeath
p5759
sg218
I1
sa(dp5760
g41
VMedal
p5761
sg48
(dp5762
g50
VALG ContrA HCS
p5763
sg52
Nssg223
I3261908037
sg44
VPT8M1.910151S
p5764
sa(dp5765
g47
I4108759423
sg41
VWeaponDrop
p5766
sg232
I30
sg53
(lp5767
I2758383128
asg44
VPT8M1.911153S
p5768
sg235
I17
sg236
VP0DT0H0M45.9833S
p5769
sg48
(dp5770
g50
VTL Spartan HCS
p5771
sg52
Nssa(dp5772
g47
I2670072722
sg41
VWeaponDrop
p5773
sg232
I9
sg53
(lp5774
I2758383128
asg44
VPT8M1.911153S
p5775
sg235
I8
sg236
VP0DT0H0M40.0167S
p5776
sg48
(dp5777
g50
VTL Spartan HCS
p5778
sg52
Nssa(dp5779
g47
I313138863
sg48
(dp5780
g50
VTL Danoxide
p5781
sg52
Nssg53
(lp5782
I1095363701
asg41
VWeaponPickup
p5783
sg44
VPT8M2.9091624S
p5784
sa(dp5785
g47
I4096745987
sg48
(dp5786
g50
VTL Danoxide
p5787
sg52
Nssg53
(lp5788
I2758383128
asg41
VWeaponPickup
p5789
sg44
VPT8M2.9101824S
p5790
sa(dp5791
g41
VPlayerSpawn
p5792
sg48
(dp5793
g50
VTL Danoxide
p5794
sg52
Nssg44
VPT8M2.9101824S
p5795
sa(dp5796
g188
I2133511419
sg189
I00
sg190
I00
sg191
(dp5797
g50
VTL StelluR
p5798
sg52
Nssg194
(lp5799
I2758383128
asg196
I00
sg197
I01
sg198
I1
sg199
I0
sg200
I1
sg201
(dp5800
Vy
F3.1632218399999998
sVx
F-19.430465699999999
sVz
F2.9706158600000001
ssg203
(dp5801
Vy
F-4.3841552699999999
sVx
F-19.713577300000001
sVz
F3.3442656999999998
ssg205
I00
sg206
(dp5802
g50
VALG ContrA HCS
p5803
sg52
Nssg209
(lp5804
sg211
(lp5805
sg215
I00
sg44
VPT8M5.09219S
p5806
sg41
VDeath
p5807
sg218
I1
sa(dp5808
g47
I313138863
sg41
VWeaponDrop
p5809
sg232
I0
sg53
(lp5810
I1095363701
asg44
VPT8M5.0942132S
p5811
sg235
I0
sg236
VP0DT0H0M0.4333S
p5812
sg48
(dp5813
g50
VALG ContrA HCS
p5814
sg52
Nssa(dp5815
g47
I4096745987
sg41
VWeaponDrop
p5816
sg232
I13
sg53
(lp5817
I2758383128
asg44
VPT8M5.0942132S
p5818
sg235
I7
sg236
VP0DT0H0M19.3167S
p5819
sg48
(dp5820
g50
VALG ContrA HCS
p5821
sg52
Nssa(dp5822
g41
VRoundEnd
p5823
sg43
I0
sg44
VPT8M5.1081905S
p5824
sassba.