(lp1
cnumpy.core.multiarray
_reconstruct
p2
(cnumpy
ndarray
p3
(I0
tS'b'
tRp4
(I1
(I4
tcnumpy
dtype
p5
(S'U36'
I0
I1
tRp6
(I3
S'<'
NNNI144
I4
I8
tbI00
S'2\x00\x00\x000\x00\x00\x001\x00\x00\x006\x00\x00\x00-\x00\x00\x000\x00\x00\x007\x00\x00\x00-\x00\x00\x000\x00\x00\x002\x00\x00\x00\x00\x00\x00\x00\x00\x00\x00\x00\x00\x00\x00\x00\x00\x00\x00\x00\x00\x00\x00\x00\x00\x00\x00\x00\x00\x00\x00\x00\x00\x00\x00\x00\x00\x00\x00\x00\x00\x00\x00\x00\x00\x00\x00\x00\x00\x00\x00\x00\x00\x00\x00\x00\x00\x00\x00\x00\x00\x00\x00\x00\x00\x00\x00\x00\x00\x00\x00\x00\x00\x00\x00\x00\x00\x00\x00\x00\x00\x00\x00\x00\x00\x00\x00\x00\x00\x00\x00\x00\x00\x00\x00\x00\x00\x00\x00\x00\x00\x00\x00\x00\x00\x00\x00\x00C\x00\x00\x00o\x00\x00\x00l\x00\x00\x00i\x00\x00\x00s\x00\x00\x00e\x00\x00\x00u\x00\x00\x00m\x00\x00\x00\x00\x00\x00\x00\x00\x00\x00\x00\x00\x00\x00\x00\x00\x00\x00\x00\x00\x00\x00\x00\x00\x00\x00\x00\x00\x00\x00\x00\x00\x00\x00\x00\x00\x00\x00\x00\x00\x00\x00\x00\x00\x00\x00\x00\x00\x00\x00\x00\x00\x00\x00\x00\x00\x00\x00\x00\x00\x00\x00\x00\x00\x00\x00\x00\x00\x00\x00\x00\x00\x00\x00\x00\x00\x00\x00\x00\x00\x00\x00\x00\x00\x00\x00\x00\x00\x00\x00\x00\x00\x00\x00\x00\x00\x00\x00\x00\x00\x00\x00\x00\x00\x00\x00\x00\x00\x00\x00\x00\x00\x00\x00\x00S\x00\x00\x00l\x00\x00\x00a\x00\x00\x00y\x00\x00\x00e\x00\x00\x00r\x00\x00\x00\x00\x00\x00\x00\x00\x00\x00\x00\x00\x00\x00\x00\x00\x00\x00\x00\x00\x00\x00\x00\x00\x00\x00\x00\x00\x00\x00\x00\x00\x00\x00\x00\x00\x00\x00\x00\x00\x00\x00\x00\x00\x00\x00\x00\x00\x00\x00\x00\x00\x00\x00\x00\x00\x00\x00\x00\x00\x00\x00\x00\x00\x00\x00\x00\x00\x00\x00\x00\x00\x00\x00\x00\x00\x00\x00\x00\x00\x00\x00\x00\x00\x00\x00\x00\x00\x00\x00\x00\x00\x00\x00\x00\x00\x00\x00\x00\x00\x00\x00\x00\x00\x00\x00\x00\x00\x00\x00\x00\x00\x00\x00\x00\x00\x00\x00\x00\x00\x00\x00\x000\x00\x00\x004\x00\x00\x008\x00\x00\x00c\x00\x00\x000\x00\x00\x00a\x00\x00\x002\x00\x00\x000\x00\x00\x00-\x00\x00\x008\x00\x00\x001\x00\x00\x00d\x00\x00\x005\x00\x00\x00-\x00\x00\x004\x00\x00\x00e\x00\x00\x00a\x00\x00\x009\x00\x00\x00-\x00\x00\x00a\x00\x00\x00b\x00\x00\x00f\x00\x00\x00f\x00\x00\x00-\x00\x00\x006\x00\x00\x000\x00\x00\x00a\x00\x00\x00e\x00\x00\x003\x00\x00\x002\x00\x00\x002\x00\x00\x009\x00\x00\x00f\x00\x00\x003\x00\x00\x00c\x00\x00\x009\x00\x00\x00'
tba(lp7
S'tl'
p8
aS'alg'
p9
aaccopy_reg
_reconstructor
p10
(c__main__
match_breakdown
p11
c__builtin__
object
p12
NtRp13
(dp14
S'details'
p15
(dp16
VIsCompleteSetOfEvents
p17
I01
sVLinks
p18
(dp19
VUgcFilmManifest
p20
(dp21
VAuthenticationLifetimeExtensionSupported
p22
I00
sVQueryString
p23
V?view=film-manifest
p24
sVRetryPolicyId
p25
Vexponentialretry
p26
sVPath
p27
V/h5/films/048c0a20-81d5-4ea9-abff-60ae3229f3c9
p28
sVAcknowledgementTypeId
p29
I0
sVAuthorityId
p30
Vugc
p31
sVTopicName
p32
V
ssVStatsMatchDetails
p33
(dp34
g22
I00
sg23
Nsg25
Vexponentialretry
p35
sg27
Vh5/custom/matches/048c0a20-81d5-4ea9-abff-60ae3229f3c9
p36
sg29
I0
sg30
Vspartanstats
p37
sg32
V
sssVGameEvents
p38
(lp39
(dp40
VEventName
p41
VRoundStart
p42
sVRoundIndex
p43
I0
sVTimeSinceStart
p44
VPT0.026001S
p45
sa(dp46
VWeaponStockId
p47
I313138863
sVPlayer
p48
(dp49
VGamertag
p50
VTL Spartan HCS
p51
sVXuid
p52
NssVWeaponAttachmentIds
p53
(lp54
I1095363701
asg41
VWeaponPickup
p55
sg44
VPT17.1986639S
p56
sa(dp57
g47
I4096745987
sg48
(dp58
g50
VTL Spartan HCS
p59
sg52
Nssg53
(lp60
I2758383128
asg41
VWeaponPickup
p61
sg44
VPT17.1986639S
p62
sa(dp63
g41
VPlayerSpawn
p64
sg48
(dp65
g50
VTL Spartan HCS
p66
sg52
Nssg44
VPT17.1986639S
p67
sa(dp68
g47
I313138863
sg48
(dp69
g50
VALGPredevonator
p70
sg52
Nssg53
(lp71
I1095363701
asg41
VWeaponPickup
p72
sg44
VPT17.2146832S
p73
sa(dp74
g47
I4096745987
sg48
(dp75
g50
VALGPredevonator
p76
sg52
Nssg53
(lp77
I2758383128
asg41
VWeaponPickup
p78
sg44
VPT17.2146832S
p79
sa(dp80
g41
VPlayerSpawn
p81
sg48
(dp82
g50
VALGPredevonator
p83
sg52
Nssg44
VPT17.2146832S
p84
sa(dp85
g47
I313138863
sg48
(dp86
g50
VTL StelluR
p87
sg52
Nssg53
(lp88
I1095363701
asg41
VWeaponPickup
p89
sg44
VPT17.2316971S
p90
sa(dp91
g47
I4096745987
sg48
(dp92
g50
VTL StelluR
p93
sg52
Nssg53
(lp94
I2758383128
asg41
VWeaponPickup
p95
sg44
VPT17.2316971S
p96
sa(dp97
g41
VPlayerSpawn
p98
sg48
(dp99
g50
VTL StelluR
p100
sg52
Nssg44
VPT17.2316971S
p101
sa(dp102
g47
I313138863
sg48
(dp103
g50
VALG Heinz HCS
p104
sg52
Nssg53
(lp105
I1095363701
asg41
VWeaponPickup
p106
sg44
VPT17.247664S
p107
sa(dp108
g47
I4096745987
sg48
(dp109
g50
VALG Heinz HCS
p110
sg52
Nssg53
(lp111
I2758383128
asg41
VWeaponPickup
p112
sg44
VPT17.247664S
p113
sa(dp114
g41
VPlayerSpawn
p115
sg48
(dp116
g50
VALG Heinz HCS
p117
sg52
Nssg44
VPT17.2486653S
p118
sa(dp119
g47
I313138863
sg48
(dp120
g50
VTL Eco HCS
p121
sg52
Nssg53
(lp122
I1095363701
asg41
VWeaponPickup
p123
sg44
VPT17.2646843S
p124
sa(dp125
g47
I4096745987
sg48
(dp126
g50
VTL Eco HCS
p127
sg52
Nssg53
(lp128
I2758383128
asg41
VWeaponPickup
p129
sg44
VPT17.2646843S
p130
sa(dp131
g41
VPlayerSpawn
p132
sg48
(dp133
g50
VTL Eco HCS
p134
sg52
Nssg44
VPT17.2646843S
p135
sa(dp136
g47
I313138863
sg48
(dp137
g50
VTL Danoxide
p138
sg52
Nssg53
(lp139
I1095363701
asg41
VWeaponPickup
p140
sg44
VPT17.2816895S
p141
sa(dp142
g47
I4096745987
sg48
(dp143
g50
VTL Danoxide
p144
sg52
Nssg53
(lp145
I2758383128
asg41
VWeaponPickup
p146
sg44
VPT17.2816895S
p147
sa(dp148
g41
VPlayerSpawn
p149
sg48
(dp150
g50
VTL Danoxide
p151
sg52
Nssg44
VPT17.2816895S
p152
sa(dp153
g47
I313138863
sg48
(dp154
g50
VALG RyaNoob
p155
sg52
Nssg53
(lp156
I1095363701
asg41
VWeaponPickup
p157
sg44
VPT17.2976671S
p158
sa(dp159
g47
I4096745987
sg48
(dp160
g50
VALG RyaNoob
p161
sg52
Nssg53
(lp162
I2758383128
asg41
VWeaponPickup
p163
sg44
VPT17.2986879S
p164
sa(dp165
g41
VPlayerSpawn
p166
sg48
(dp167
g50
VALG RyaNoob
p168
sg52
Nssg44
VPT17.2986879S
p169
sa(dp170
g47
I313138863
sg48
(dp171
g50
VALG ContrA HCS
p172
sg52
Nssg53
(lp173
I1095363701
asg41
VWeaponPickup
p174
sg44
VPT17.3146684S
p175
sa(dp176
g47
I4096745987
sg48
(dp177
g50
VALG ContrA HCS
p178
sg52
Nssg53
(lp179
I2758383128
asg41
VWeaponPickup
p180
sg44
VPT17.3146684S
p181
sa(dp182
g41
VPlayerSpawn
p183
sg48
(dp184
g50
VALG ContrA HCS
p185
sg52
Nssg44
VPT17.3146684S
p186
sa(dp187
g47
I313138863
sg41
VWeaponDrop
p188
sVShotsFired
p189
I0
sg53
(lp190
I1095363701
asg44
VPT25.9130209S
p191
sVShotsLanded
p192
I0
sVTimeWeaponActiveAsPrimary
p193
VP0DT0H0M1.5667S
p194
sg48
(dp195
g50
VALG Heinz HCS
p196
sg52
Nssa(dp197
g47
I3808094875
sg48
(dp198
g50
VALG Heinz HCS
p199
sg52
Nssg53
(lp200
I2758383128
asg41
VWeaponPickup
p201
sg44
VPT25.9130209S
p202
sa(dp203
VKillerWeaponStockId
p204
I4096745987
sVIsAssassination
p205
I00
sVIsMelee
p206
I00
sVKiller
p207
(dp208
g50
VTL Danoxide
p209
sg52
NssVKillerWeaponAttachmentIds
p210
(lp211
I2758383128
asVIsGroundPound
p212
I00
sVIsWeapon
p213
I01
sVDeathDisposition
p214
I1
sVVictimStockId
p215
I0
sVVictimAgent
p216
I1
sVKillerWorldLocation
p217
(dp218
Vy
F-11.361626599999999
sVx
F-3.2612779999999999
sVz
F3.4002013199999999
ssVVictimWorldLocation
p219
(dp220
Vy
F-11.2688951
sVx
F-7.6338944399999997
sVz
F1.43840659
ssVIsShoulderBash
p221
I00
sVVictim
p222
(dp223
g50
VALG ContrA HCS
p224
sg52
NssVVictimAttachmentIds
p225
(lp226
sVAssistants
p227
(lp228
(dp229
g50
VTL StelluR
p230
sg52
NsasVIsHeadshot
p231
I01
sg44
VPT28.350115S
p232
sg41
VDeath
p233
sVKillerAgent
p234
I1
sa(dp235
g41
VImpulse
p236
sg48
(dp237
g50
VTL Danoxide
p238
sg52
NssVImpulseId
p239
I2556889090
sg44
VPT28.351111S
p240
sa(dp241
g41
VMedal
p242
sg48
(dp243
g50
VTL Danoxide
p244
sg52
NssVMedalId
p245
I2838259753
sg44
VPT28.351111S
p246
sa(dp247
g41
VMedal
p248
sg48
(dp249
g50
VTL Danoxide
p250
sg52
Nssg245
I3261908037
sg44
VPT28.3541132S
p251
sa(dp252
g41
VMedal
p253
sg48
(dp254
g50
VTL Danoxide
p255
sg52
Nssg245
I3001183151
sg44
VPT28.3541132S
p256
sa(dp257
g47
I313138863
sg41
VWeaponDrop
p258
sg189
I0
sg53
(lp259
I1095363701
asg44
VPT28.3790945S
p260
sg192
I0
sg193
VP0DT0H0M0.6333S
p261
sg48
(dp262
g50
VALG ContrA HCS
p263
sg52
Nssa(dp264
g47
I4096745987
sg41
VWeaponDrop
p265
sg189
I5
sg53
(lp266
I2758383128
asg44
VPT28.3790945S
p267
sg192
I4
sg193
VP0DT0H0M10.4000S
p268
sg48
(dp269
g50
VALG ContrA HCS
p270
sg52
Nssa(dp271
g47
I313138863
sg41
VWeaponDrop
p272
sg189
I12
sg53
(lp273
I1095363701
asg44
VPT30.5631963S
p274
sg192
I6
sg193
VP0DT0H0M5.6500S
p275
sg48
(dp276
g50
VTL Danoxide
p277
sg52
Nssa(dp278
g47
I723523180
sg48
(dp279
g50
VTL Danoxide
p280
sg52
Nssg53
(lp281
I2758383128
asg41
VWeaponPickupPad
p282
sg44
VPT30.5631963S
p283
sa(dp284
g47
I723523180
sg48
(dp285
g50
VTL Danoxide
p286
sg52
Nssg53
(lp287
I2758383128
asg41
VWeaponPickup
p288
sg44
VPT30.5631963S
p289
sa(dp290
g204
I4096745987
sg205
I00
sg206
I00
sg207
(dp291
g50
VALG Heinz HCS
p292
sg52
Nssg210
(lp293
I2758383128
asg212
I00
sg213
I01
sg214
I1
sg215
I0
sg216
I1
sg217
(dp294
Vy
F-11.1623611
sVx
F11.4022331
sVz
F1.9793245799999999
ssg219
(dp295
Vy
F-7.4775357199999997
sVx
F1.2694145400000001
sVz
F3.9224700000000001
ssg221
I00
sg222
(dp296
g50
VTL Danoxide
p297
sg52
Nssg225
(lp298
sg227
(lp299
(dp300
g50
VALG ContrA HCS
p301
sg52
Nsasg231
I00
sg44
VPT31.0811942S
p302
sg41
VDeath
p303
sg234
I1
sa(dp304
g47
I723523180
sg41
VWeaponDrop
p305
sg189
I0
sg53
(lp306
I2758383128
asg44
VPT31.0842167S
p307
sg192
I0
sg193
VP0DT0H0M0.5167S
p308
sg48
(dp309
g50
VTL Danoxide
p310
sg52
Nssa(dp311
g47
I4096745987
sg41
VWeaponDrop
p312
sg189
I2
sg53
(lp313
I2758383128
asg44
VPT31.0842167S
p314
sg192
I2
sg193
VP0DT0H0M7.6333S
p315
sg48
(dp316
g50
VTL Danoxide
p317
sg52
Nssa(dp318
g204
I313138863
sg205
I01
sg206
I00
sg207
(dp319
g50
VTL Spartan HCS
p320
sg52
Nssg210
(lp321
I1095363701
asg212
I00
sg213
I00
sg214
I1
sg215
I0
sg216
I1
sg217
(dp322
Vy
F14.7655516
sVx
F3.9412720000000001
sVz
F2.9399476099999999
ssg219
(dp323
Vy
F14.574650800000001
sVx
F4.2055530000000001
sVz
F2.9732172499999998
ssg221
I00
sg222
(dp324
g50
VALG RyaNoob
p325
sg52
Nssg225
(lp326
sg227
(lp327
(dp328
g50
VTL Eco HCS
p329
sg52
Nsa(dp330
g50
VTL StelluR
p331
sg52
Nsasg231
I00
sg44
VPT35.6473706S
p332
sg41
VDeath
p333
sg234
I1
sa(dp334
g41
VMedal
p335
sg48
(dp336
g50
VTL Spartan HCS
p337
sg52
Nssg245
I3270120991
sg44
VPT35.6494132S
p338
sa(dp339
g47
I4096745987
sg41
VWeaponDrop
p340
sg189
I0
sg53
(lp341
I2758383128
asg44
VPT35.6494132S
p342
sg192
I0
sg193
VP0DT0H0M10.4667S
p343
sg48
(dp344
g50
VALG RyaNoob
p345
sg52
Nssa(dp346
g47
I313138863
sg41
VWeaponDrop
p347
sg189
I10
sg53
(lp348
I1095363701
asg44
VPT35.6503915S
p349
sg192
I1
sg193
VP0DT0H0M7.8833S
p350
sg48
(dp351
g50
VALG RyaNoob
p352
sg52
Nssa(dp353
g204
I4106030681
sg205
I00
sg206
I00
sg207
(dp354
g50
VALG Heinz HCS
p355
sg52
Nssg210
(lp356
sg212
I00
sg213
I01
sg214
I1
sg215
I0
sg216
I1
sg217
(dp357
Vy
F-7.9608144799999998
sVx
F10.517071700000001
sVz
F-0.40202775600000001
ssg219
(dp358
Vy
F5.8907957099999999
sVx
F12.541535400000001
sVz
F1.02045488
ssg221
I00
sg222
(dp359
g50
VTL Eco HCS
p360
sg52
Nssg225
(lp361
sg227
(lp362
sg231
I00
sg44
VPT35.9473826S
p363
sg41
VDeath
p364
sg234
I1
sa(dp365
g41
VMedal
p366
sg48
(dp367
g50
VALG Heinz HCS
p368
sg52
Nssg245
I2078758684
sg44
VPT35.948414S
p369
sa(dp370
g47
I313138863
sg41
VWeaponDrop
p371
sg189
I0
sg53
(lp372
I1095363701
asg44
VPT35.9494109S
p373
sg192
I0
sg193
VP0DT0H0M2.7333S
p374
sg48
(dp375
g50
VTL Eco HCS
p376
sg52
Nssa(dp377
g47
I4096745987
sg41
VWeaponDrop
p378
sg189
I10
sg53
(lp379
I2758383128
asg44
VPT35.9494109S
p380
sg192
I5
sg193
VP0DT0H0M15.9500S
p381
sg48
(dp382
g50
VTL Eco HCS
p383
sg52
Nssa(dp384
g47
I313138863
sg48
(dp385
g50
VALG ContrA HCS
p386
sg52
Nssg53
(lp387
I1095363701
asg41
VWeaponPickup
p388
sg44
VPT36.3643988S
p389
sa(dp390
g47
I4096745987
sg48
(dp391
g50
VALG ContrA HCS
p392
sg52
Nssg53
(lp393
I2758383128
asg41
VWeaponPickup
p394
sg44
VPT36.3643988S
p395
sa(dp396
g41
VPlayerSpawn
p397
sg48
(dp398
g50
VALG ContrA HCS
p399
sg52
Nssg44
VPT36.3643988S
p400
sa(dp401
g47
I313138863
sg48
(dp402
g50
VTL Danoxide
p403
sg52
Nssg53
(lp404
I1095363701
asg41
VWeaponPickup
p405
sg44
VPT39.0975035S
p406
sa(dp407
g47
I4096745987
sg48
(dp408
g50
VTL Danoxide
p409
sg52
Nssg53
(lp410
I2758383128
asg41
VWeaponPickup
p411
sg44
VPT39.0985257S
p412
sa(dp413
g41
VPlayerSpawn
p414
sg48
(dp415
g50
VTL Danoxide
p416
sg52
Nssg44
VPT39.0985257S
p417
sa(dp418
g47
I313138863
sg41
VWeaponDrop
p419
sg189
I0
sg53
(lp420
I1095363701
asg44
VPT39.513519S
p421
sg192
I0
sg193
VP0DT0H0M7.6167S
p422
sg48
(dp423
g50
VTL Spartan HCS
p424
sg52
Nssa(dp425
g47
I669296699
sg48
(dp426
g50
VTL Spartan HCS
p427
sg52
Nssg53
(lp428
I2758383128
asg41
VWeaponPickup
p429
sg44
VPT39.513519S
p430
sa(dp431
g47
I3808094875
sg41
VWeaponDrop
p432
sg189
I0
sg53
(lp433
I2758383128
asg44
VPT40.8795972S
p434
sg192
I0
sg193
VP0DT0H0M2.4833S
p435
sg48
(dp436
g50
VALG Heinz HCS
p437
sg52
Nssa(dp438
g47
I723523180
sg48
(dp439
g50
VALG Heinz HCS
p440
sg52
Nssg53
(lp441
I2758383128
asg41
VWeaponPickup
p442
sg44
VPT40.8795972S
p443
sa(dp444
g47
I313138863
sg48
(dp445
g50
VALG RyaNoob
p446
sg52
Nssg53
(lp447
I1095363701
asg41
VWeaponPickup
p448
sg44
VPT43.6647066S
p449
sa(dp450
g47
I4096745987
sg48
(dp451
g50
VALG RyaNoob
p452
sg52
Nssg53
(lp453
I2758383128
asg41
VWeaponPickup
p454
sg44
VPT43.6647066S
p455
sa(dp456
g41
VPlayerSpawn
p457
sg48
(dp458
g50
VALG RyaNoob
p459
sg52
Nssg44
VPT43.6657206S
p460
sa(dp461
g47
I313138863
sg41
VWeaponDrop
p462
sg189
I0
sg53
(lp463
I1095363701
asg44
VPT43.8466843S
p464
sg192
I0
sg193
VP0DT0H0M0.9000S
p465
sg48
(dp466
g50
VALG ContrA HCS
p467
sg52
Nssa(dp468
g47
I4153405209
sg48
(dp469
g50
VALG ContrA HCS
p470
sg52
Nssg53
(lp471
I2758383128
asg41
VWeaponPickup
p472
sg44
VPT43.8466843S
p473
sa(dp474
g47
I313138863
sg48
(dp475
g50
VTL Eco HCS
p476
sg52
Nssg53
(lp477
I1095363701
asg41
VWeaponPickup
p478
sg44
VPT43.9647157S
p479
sa(dp480
g47
I4096745987
sg48
(dp481
g50
VTL Eco HCS
p482
sg52
Nssg53
(lp483
I2758383128
asg41
VWeaponPickup
p484
sg44
VPT43.9647157S
p485
sa(dp486
g41
VPlayerSpawn
p487
sg48
(dp488
g50
VTL Eco HCS
p489
sg52
Nssg44
VPT43.9647157S
p490
sa(dp491
g47
I4153405209
sg41
VWeaponDrop
p492
sg189
I0
sg53
(lp493
I2758383128
asg44
VPT44.3967057S
p494
sg192
I0
sg193
VP0DT0H0M0.5500S
p495
sg48
(dp496
g50
VALG ContrA HCS
p497
sg52
Nssa(dp498
g47
I313138863
sg48
(dp499
g50
VALG ContrA HCS
p500
sg52
Nssg53
(lp501
I1095363701
asg41
VWeaponPickup
p502
sg44
VPT44.3967057S
p503
sa(dp504
g47
I4096745987
sg41
VWeaponDrop
p505
sg189
I0
sg53
(lp506
I2758383128
asg44
VPT49.7799377S
p507
sg192
I0
sg193
VP0DT0H0M5.4000S
p508
sg48
(dp509
g50
VALG RyaNoob
p510
sg52
Nssa(dp511
g47
I523953283
sg48
(dp512
g50
VALG RyaNoob
p513
sg52
Nssg53
(lp514
I2208825748
asg41
VWeaponPickup
p515
sg44
VPT49.7799377S
p516
sa(dp517
g47
I313138863
sg41
VWeaponDrop
p518
sg189
I0
sg53
(lp519
I1095363701
asg44
VPT50.7629757S
p520
sg192
I0
sg193
VP0DT0H0M4.0000S
p521
sg48
(dp522
g50
VTL StelluR
p523
sg52
Nssa(dp524
g47
I723388907
sg48
(dp525
g50
VTL StelluR
p526
sg52
Nssg53
(lp527
I89283061
asg41
VWeaponPickup
p528
sg44
VPT50.7629757S
p529
sa(dp530
g204
I723523180
sg205
I00
sg206
I00
sg207
(dp531
g50
VALG Heinz HCS
p532
sg52
Nssg210
(lp533
I2758383128
asg212
I00
sg213
I01
sg214
I1
sg215
I0
sg216
I1
sg217
(dp534
Vy
F5.3291320000000004
sVx
F4.76823
sVz
F0.8996054
ssg219
(dp535
Vy
F9.6887559999999997
sVx
F8.3716279999999994
sVz
F0.25953555099999998
ssg221
I00
sg222
(dp536
g50
VTL Danoxide
p537
sg52
Nssg225
(lp538
sg227
(lp539
(dp540
g50
VALG ContrA HCS
p541
sg52
Nsasg231
I00
sg44
VPT1M17.4809782S
p542
sg41
VDeath
p543
sg234
I1
sa(dp544
g47
I313138863
sg41
VWeaponDrop
p545
sg189
I2
sg53
(lp546
I1095363701
asg44
VPT1M17.4830036S
p547
sg192
I2
sg193
VP0DT0H0M3.5167S
p548
sg48
(dp549
g50
VTL Danoxide
p550
sg52
Nssa(dp551
g47
I4096745987
sg41
VWeaponDrop
p552
sg189
I0
sg53
(lp553
I2758383128
asg44
VPT1M17.4830036S
p554
sg192
I0
sg193
VP0DT0H0M34.8667S
p555
sg48
(dp556
g50
VTL Danoxide
p557
sg52
Nssa(dp558
g47
I313138863
sg41
VWeaponDrop
p559
sg189
I0
sg53
(lp560
I1095363701
asg44
VPT1M18.696025S
p561
sg192
I0
sg193
VP0DT0H0M1.1833S
p562
sg48
(dp563
g50
VALG RyaNoob
p564
sg52
Nssa(dp565
g47
I723388907
sg48
(dp566
g50
VALG RyaNoob
p567
sg52
Nssg53
(lp568
I89283061
asg41
VWeaponPickup
p569
sg44
VPT1M18.6970262S
p570
sa(dp571
g204
I4106030681
sg205
I00
sg206
I00
sg207
(dp572
g50
VALG RyaNoob
p573
sg52
Nssg210
(lp574
sg212
I00
sg213
I01
sg214
I1
sg215
I0
sg216
I1
sg217
(dp575
Vy
F-4.4787435499999999
sVx
F0.29757264300000003
sVz
F1.4297415
ssg219
(dp576
Vy
F-1.0302864300000001
sVx
F8.3350600000000004
sVz
F-0.22574481399999999
ssg221
I00
sg222
(dp577
g50
VTL StelluR
p578
sg52
Nssg225
(lp579
sg227
(lp580
(dp581
g50
VALG ContrA HCS
p582
sg52
Nsasg231
I00
sg44
VPT1M22.6641769S
p583
sg41
VDeath
p584
sg234
I1
sa(dp585
g47
I4096745987
sg41
VWeaponDrop
p586
sg189
I17
sg53
(lp587
I2758383128
asg44
VPT1M22.6662003S
p588
sg192
I3
sg193
VP0DT0H1M0.0167S
p589
sg48
(dp590
g50
VTL StelluR
p591
sg52
Nssa(dp592
g47
I723388907
sg41
VWeaponDrop
p593
sg189
I0
sg53
(lp594
I89283061
asg44
VPT1M22.6662003S
p595
sg192
I0
sg193
VP0DT0H0M1.4167S
p596
sg48
(dp597
g50
VTL StelluR
p598
sg52
Nssa(dp599
g47
I313138863
sg48
(dp600
g50
VTL Danoxide
p601
sg52
Nssg53
(lp602
I1095363701
asg41
VWeaponPickup
p603
sg44
VPT1M25.4983035S
p604
sa(dp605
g47
I4096745987
sg48
(dp606
g50
VTL Danoxide
p607
sg52
Nssg53
(lp608
I2758383128
asg41
VWeaponPickup
p609
sg44
VPT1M25.4983035S
p610
sa(dp611
g41
VPlayerSpawn
p612
sg48
(dp613
g50
VTL Danoxide
p614
sg52
Nssg44
VPT1M25.4983035S
p615
sa(dp616
g204
I4096745987
sg205
I00
sg206
I00
sg207
(dp617
g50
VALGPredevonator
p618
sg52
Nssg210
(lp619
I2758383128
asg212
I00
sg213
I01
sg214
I1
sg215
I0
sg216
I1
sg217
(dp620
Vy
F11.221248599999999
sVx
F11.800846099999999
sVz
F0.80000700000000002
ssg219
(dp621
Vy
F-6.2411212899999997
sVx
F13.9493217
sVz
F2.0939619999999999
ssg221
I00
sg222
(dp622
g50
VTL Spartan HCS
p623
sg52
Nssg225
(lp624
sg227
(lp625
(dp626
g50
VALG ContrA HCS
p627
sg52
Nsasg231
I00
sg44
VPT1M28.0303819S
p628
sg41
VDeath
p629
sg234
I1
sa(dp630
g47
I669296699
sg41
VWeaponDrop
p631
sg189
I3
sg53
(lp632
I2758383128
asg44
VPT1M28.0334024S
p633
sg192
I2
sg193
VP0DT0H0M45.8667S
p634
sg48
(dp635
g50
VTL Spartan HCS
p636
sg52
Nssa(dp637
g47
I4096745987
sg41
VWeaponDrop
p638
sg189
I1
sg53
(lp639
I2758383128
asg44
VPT1M28.0334024S
p640
sg192
I0
sg193
VP0DT0H0M17.3500S
p641
sg48
(dp642
g50
VTL Spartan HCS
p643
sg52
Nssa(dp644
g204
I4096745987
sg205
I00
sg206
I00
sg207
(dp645
g50
VALG ContrA HCS
p646
sg52
Nssg210
(lp647
I2758383128
asg212
I00
sg213
I01
sg214
I1
sg215
I0
sg216
I1
sg217
(dp648
Vy
F10.133276
sVx
F16.873127
sVz
F2.5099875900000002
ssg219
(dp649
Vy
F-9.2347819999999992
sVx
F14.1992607
sVz
F1.63197708
ssg221
I00
sg222
(dp650
g50
VTL Eco HCS
p651
sg52
Nssg225
(lp652
sg227
(lp653
(dp654
g50
VALGPredevonator
p655
sg52
Nsasg231
I00
sg44
VPT1M28.7144094S
p656
sg41
VDeath
p657
sg234
I1
sa(dp658
g47
I313138863
sg41
VWeaponDrop
p659
sg189
I0
sg53
(lp660
I1095363701
asg44
VPT1M28.7164325S
p661
sg192
I0
sg193
VP0DT0H0M5.7667S
p662
sg48
(dp663
g50
VTL Eco HCS
p664
sg52
Nssa(dp665
g47
I4096745987
sg41
VWeaponDrop
p666
sg189
I23
sg53
(lp667
I2758383128
asg44
VPT1M28.7164325S
p668
sg192
I5
sg193
VP0DT0H0M38.9833S
p669
sg48
(dp670
g50
VTL Eco HCS
p671
sg52
Nssa(dp672
g47
I313138863
sg48
(dp673
g50
VTL StelluR
p674
sg52
Nssg53
(lp675
I1095363701
asg41
VWeaponPickup
p676
sg44
VPT1M30.685505S
p677
sa(dp678
g47
I4096745987
sg48
(dp679
g50
VTL StelluR
p680
sg52
Nssg53
(lp681
I2758383128
asg41
VWeaponPickup
p682
sg44
VPT1M30.685505S
p683
sa(dp684
g41
VPlayerSpawn
p685
sg48
(dp686
g50
VTL StelluR
p687
sg52
Nssg44
VPT1M30.685505S
p688
sa(dp689
g47
I723388907
sg41
VWeaponDrop
p690
sg189
I0
sg53
(lp691
I89283061
asg44
VPT1M33.3296098S
p692
sg192
I0
sg193
VP0DT0H0M2.9833S
p693
sg48
(dp694
g50
VALG RyaNoob
p695
sg52
Nssa(dp696
g47
I669296699
sg48
(dp697
g50
VALG RyaNoob
p698
sg52
Nssg53
(lp699
I2758383128
asg41
VWeaponPickup
p700
sg44
VPT1M33.3296098S
p701
sa(dp702
g47
I313138863
sg48
(dp703
g50
VTL Spartan HCS
p704
sg52
Nssg53
(lp705
I1095363701
asg41
VWeaponPickup
p706
sg44
VPT1M36.0476916S
p707
sa(dp708
g47
I4096745987
sg48
(dp709
g50
VTL Spartan HCS
p710
sg52
Nssg53
(lp711
I2758383128
asg41
VWeaponPickup
p712
sg44
VPT1M36.0487122S
p713
sa(dp714
g41
VPlayerSpawn
p715
sg48
(dp716
g50
VTL Spartan HCS
p717
sg52
Nssg44
VPT1M36.0487122S
p718
sa(dp719
g47
I313138863
sg48
(dp720
g50
VTL Eco HCS
p721
sg52
Nssg53
(lp722
I1095363701
asg41
VWeaponPickup
p723
sg44
VPT1M36.731717S
p724
sa(dp725
g47
I4096745987
sg48
(dp726
g50
VTL Eco HCS
p727
sg52
Nssg53
(lp728
I2758383128
asg41
VWeaponPickup
p729
sg44
VPT1M36.731717S
p730
sa(dp731
g41
VPlayerSpawn
p732
sg48
(dp733
g50
VTL Eco HCS
p734
sg52
Nssg44
VPT1M36.731717S
p735
sa(dp736
g204
I2460880172
sg205
I00
sg206
I00
sg207
(dp737
g50
VALGPredevonator
p738
sg52
Nssg210
(lp739
sg212
I00
sg213
I01
sg214
I1
sg215
I0
sg216
I1
sg217
(dp740
Vy
F9.025665
sVx
F-2.5387408699999998
sVz
F0.69378139999999999
ssg219
(dp741
Vy
F5.4486980000000003
sVx
F-3.0710950000000001
sVz
F1.22820628
ssg221
I00
sg222
(dp742
g50
VTL StelluR
p743
sg52
Nssg225
(lp744
sg227
(lp745
sg231
I00
sg44
VPT1M43.5469786S
p746
sg41
VDeath
p747
sg234
I1
sa(dp748
g47
I313138863
sg41
VWeaponDrop
p749
sg189
I4
sg53
(lp750
I1095363701
asg44
VPT1M43.5489972S
p751
sg192
I2
sg193
VP0DT0H0M1.6833S
p752
sg48
(dp753
g50
VTL StelluR
p754
sg52
Nssa(dp755
g47
I4096745987
sg41
VWeaponDrop
p756
sg189
I1
sg53
(lp757
I2758383128
asg44
VPT1M43.5489972S
p758
sg192
I1
sg193
VP0DT0H0M11.1833S
p759
sg48
(dp760
g50
VTL StelluR
p761
sg52
Nssa(dp762
g204
I4096745987
sg205
I00
sg206
I00
sg207
(dp763
g50
VTL Spartan HCS
p764
sg52
Nssg210
(lp765
I2758383128
asg212
I00
sg213
I01
sg214
I1
sg215
I0
sg216
I1
sg217
(dp766
Vy
F2.0622198599999999
sVx
F0.71760094200000002
sVz
F-1.9612593700000001
ssg219
(dp767
Vy
F8.7089149999999993
sVx
F-1.2990618899999999
sVz
F-0.63573384300000002
ssg221
I00
sg222
(dp768
g50
VALGPredevonator
p769
sg52
Nssg225
(lp770
sg227
(lp771
(dp772
g50
VTL Danoxide
p773
sg52
Nsa(dp774
g50
VTL StelluR
p775
sg52
Nsasg231
I01
sg44
VPT1M44.1139993S
p776
sg41
VDeath
p777
sg234
I1
sa(dp778
g41
VMedal
p779
sg48
(dp780
g50
VTL Spartan HCS
p781
sg52
Nssg245
I3261908037
sg44
VPT1M44.1160262S
p782
sa(dp783
g47
I313138863
sg41
VWeaponDrop
p784
sg189
I0
sg53
(lp785
I1095363701
asg44
VPT1M44.117023S
p786
sg192
I0
sg193
VP0DT0H0M9.6000S
p787
sg48
(dp788
g50
VALGPredevonator
p789
sg52
Nssa(dp790
g47
I4096745987
sg41
VWeaponDrop
p791
sg189
I32
sg53
(lp792
I2758383128
asg44
VPT1M44.117023S
p793
sg192
I17
sg193
VP0DT0H1M17.3000S
p794
sg48
(dp795
g50
VALGPredevonator
p796
sg52
Nssa(dp797
g204
I4096745987
sg205
I00
sg206
I00
sg207
(dp798
g50
VTL Danoxide
p799
sg52
Nssg210
(lp800
I2758383128
asg212
I00
sg213
I01
sg214
I1
sg215
I0
sg216
I1
sg217
(dp801
Vy
F15.1024227
sVx
F-2.8364690000000001
sVz
F4.0210676200000002
ssg219
(dp802
Vy
F6.3084535600000002
sVx
F-3.09550619
sVz
F2.82451081
ssg221
I00
sg222
(dp803
g50
VALG Heinz HCS
p804
sg52
Nssg225
(lp805
sg227
(lp806
(dp807
g50
VTL Eco HCS
p808
sg52
Nsa(dp809
g50
VTL Spartan HCS
p810
sg52
Nsasg231
I01
sg44
VPT1M48.6311742S
p811
sg41
VDeath
p812
sg234
I1
sa(dp813
g41
VMedal
p814
sg48
(dp815
g50
VTL Danoxide
p816
sg52
Nssg245
I3261908037
sg44
VPT1M48.6321976S
p817
sa(dp818
g47
I723523180
sg41
VWeaponDrop
p819
sg189
I2
sg53
(lp820
I2758383128
asg44
VPT1M48.6331942S
p821
sg192
I2
sg193
VP0DT0H0M46.6833S
p822
sg48
(dp823
g50
VALG Heinz HCS
p824
sg52
Nssa(dp825
g47
I4096745987
sg41
VWeaponDrop
p826
sg189
I11
sg53
(lp827
I2758383128
asg44
VPT1M48.6331942S
p828
sg192
I5
sg193
VP0DT0H0M40.6500S
p829
sg48
(dp830
g50
VALG Heinz HCS
p831
sg52
Nssa(dp832
g204
I723523180
sg205
I00
sg206
I00
sg207
(dp833
g50
VALG Heinz HCS
p834
sg52
Nssg210
(lp835
I2758383128
asg212
I00
sg213
I01
sg214
I1
sg215
I0
sg216
I1
sg217
(dp836
Vy
F6.2176859999999996
sVx
F-3.2360482199999998
sVz
F1.22679472
ssg219
(dp837
Vy
F9.3894479999999998
sVx
F0.80618780000000001
sVz
F-0.68550719999999998
ssg221
I00
sg222
(dp838
g50
VTL Spartan HCS
p839
sg52
Nssg225
(lp840
sg227
(lp841
sg231
I00
sg44
VPT1M49.1801944S
p842
sg41
VDeath
p843
sg234
I1
sa(dp844
g41
VMedal
p845
sg48
(dp846
g50
VALG Heinz HCS
p847
sg52
Nssg245
I285057226
sg44
VPT1M49.1812149S
p848
sa(dp849
g47
I313138863
sg41
VWeaponDrop
p850
sg189
I0
sg53
(lp851
I1095363701
asg44
VPT1M49.1822376S
p852
sg192
I0
sg193
VP0DT0H0M2.1833S
p853
sg48
(dp854
g50
VTL Spartan HCS
p855
sg52
Nssa(dp856
g47
I4096745987
sg41
VWeaponDrop
p857
sg189
I9
sg53
(lp858
I2758383128
asg44
VPT1M49.1822376S
p859
sg192
I3
sg193
VP0DT0H0M10.9500S
p860
sg48
(dp861
g50
VTL Spartan HCS
p862
sg52
Nssa(dp863
g47
I313138863
sg48
(dp864
g50
VTL StelluR
p865
sg52
Nssg53
(lp866
I1095363701
asg41
VWeaponPickup
p867
sg44
VPT1M51.5642868S
p868
sa(dp869
g47
I4096745987
sg48
(dp870
g50
VTL StelluR
p871
sg52
Nssg53
(lp872
I2758383128
asg41
VWeaponPickup
p873
sg44
VPT1M51.5653098S
p874
sa(dp875
g41
VPlayerSpawn
p876
sg48
(dp877
g50
VTL StelluR
p878
sg52
Nssg44
VPT1M51.5653098S
p879
sa(dp880
g47
I313138863
sg48
(dp881
g50
VALGPredevonator
p882
sg52
Nssg53
(lp883
I1095363701
asg41
VWeaponPickup
p884
sg44
VPT1M52.1313313S
p885
sa(dp886
g47
I4096745987
sg48
(dp887
g50
VALGPredevonator
p888
sg52
Nssg53
(lp889
I2758383128
asg41
VWeaponPickup
p890
sg44
VPT1M52.1313313S
p891
sa(dp892
g41
VPlayerSpawn
p893
sg48
(dp894
g50
VALGPredevonator
p895
sg52
Nssg44
VPT1M52.1313313S
p896
sa(dp897
g204
I313138863
sg205
I00
sg206
I00
sg207
(dp898
g50
VTL Danoxide
p899
sg52
Nssg210
(lp900
I1095363701
asg212
I00
sg213
I01
sg214
I1
sg215
I0
sg216
I1
sg217
(dp901
Vy
F12.704793
sVx
F-5.6188269999999996
sVz
F1.8418164299999999
ssg219
(dp902
Vy
F11.917479999999999
sVx
F-3.2693185800000002
sVz
F5.5101190000000004
ssg221
I00
sg222
(dp903
g50
VALG ContrA HCS
p904
sg52
Nssg225
(lp905
sg227
(lp906
sg231
I00
sg44
VPT1M53.7813703S
p907
sg41
VDeath
p908
sg234
I1
sa(dp909
g47
I313138863
sg41
VWeaponDrop
p910
sg189
I0
sg53
(lp911
I1095363701
asg44
VPT1M53.7833997S
p912
sg192
I0
sg193
VP0DT0H0M4.6500S
p913
sg48
(dp914
g50
VALG ContrA HCS
p915
sg52
Nssa(dp916
g47
I4096745987
sg41
VWeaponDrop
p917
sg189
I17
sg53
(lp918
I2758383128
asg44
VPT1M53.7833997S
p919
sg192
I10
sg193
VP0DT0H1M11.3167S
p920
sg48
(dp921
g50
VALG ContrA HCS
p922
sg52
Nssa(dp923
g204
I4096745987
sg205
I00
sg206
I01
sg207
(dp924
g50
VTL Eco HCS
p925
sg52
Nssg210
(lp926
I2758383128
asg212
I00
sg213
I00
sg214
I1
sg215
I0
sg216
I1
sg217
(dp927
Vy
F-9.1982110000000006
sVx
F15.23892
sVz
F1.851483
ssg219
(dp928
Vy
F-9.0854160000000004
sVx
F14.9469976
sVz
F1.95098913
ssg221
I00
sg222
(dp929
g50
VALG RyaNoob
p930
sg52
Nssg225
(lp931
sg227
(lp932
sg231
I00
sg44
VPT1M54.7644088S
p933
sg41
VDeath
p934
sg234
I1
sa(dp935
g41
VMedal
p936
sg48
(dp937
g50
VTL Eco HCS
p938
sg52
Nssg245
I250435527
sg44
VPT1M54.7654333S
p939
sa(dp940
g47
I669296699
sg41
VWeaponDrop
p941
sg189
I3
sg53
(lp942
I2758383128
asg44
VPT1M54.7664335S
p943
sg192
I0
sg193
VP0DT0H0M21.1667S
p944
sg48
(dp945
g50
VALG RyaNoob
p946
sg52
Nssa(dp947
g47
I523953283
sg41
VWeaponDrop
p948
sg189
I19
sg53
(lp949
I2208825748
asg44
VPT1M54.7664335S
p950
sg192
I3
sg193
VP0DT0H0M40.3667S
p951
sg48
(dp952
g50
VALG RyaNoob
p953
sg52
Nssa(dp954
g47
I313138863
sg41
VWeaponDrop
p955
sg189
I0
sg53
(lp956
I1095363701
asg44
VPT1M55.8794775S
p957
sg192
I0
sg193
VP0DT0H0M1.4667S
p958
sg48
(dp959
g50
VTL Eco HCS
p960
sg52
Nssa(dp961
g47
I669296699
sg48
(dp962
g50
VTL Eco HCS
p963
sg52
Nssg53
(lp964
I2758383128
asg41
VWeaponPickup
p965
sg44
VPT1M55.8794775S
p966
sa(dp967
g47
I313138863
sg48
(dp968
g50
VALG Heinz HCS
p969
sg52
Nssg53
(lp970
I1095363701
asg41
VWeaponPickup
p971
sg44
VPT1M56.6474816S
p972
sa(dp973
g47
I4096745987
sg48
(dp974
g50
VALG Heinz HCS
p975
sg52
Nssg53
(lp976
I2758383128
asg41
VWeaponPickup
p977
sg44
VPT1M56.6485046S
p978
sa(dp979
g41
VPlayerSpawn
p980
sg48
(dp981
g50
VALG Heinz HCS
p982
sg52
Nssg44
VPT1M56.6485046S
p983
sa(dp984
g204
I4096745987
sg205
I00
sg206
I00
sg207
(dp985
g50
VTL Danoxide
p986
sg52
Nssg210
(lp987
I2758383128
asg212
I00
sg213
I01
sg214
I1
sg215
I0
sg216
I1
sg217
(dp988
Vy
F13.6113319
sVx
F-4.4057846100000004
sVz
F2.9832540000000001
ssg219
(dp989
Vy
F12.685549999999999
sVx
F6.0005090000000001
sVz
F1.63564289
ssg221
I00
sg222
(dp990
g50
VALGPredevonator
p991
sg52
Nssg225
(lp992
sg227
(lp993
sg231
I01
sg44
VPT1M56.8304939S
p994
sg41
VDeath
p995
sg234
I1
sa(dp996
g41
VImpulse
p997
sg48
(dp998
g50
VTL Danoxide
p999
sg52
Nssg239
I3174430457
sg44
VPT1M56.8325061S
p1000
sa(dp1001
g41
VMedal
p1002
sg48
(dp1003
g50
VTL Danoxide
p1004
sg52
Nssg245
I3653057799
sg44
VPT1M56.8335147S
p1005
sa(dp1006
g41
VMedal
p1007
sg48
(dp1008
g50
VTL Danoxide
p1009
sg52
Nssg245
I2078758684
sg44
VPT1M56.8335147S
p1010
sa(dp1011
g47
I313138863
sg41
VWeaponDrop
p1012
sg189
I0
sg53
(lp1013
I1095363701
asg44
VPT1M56.8345107S
p1014
sg192
I0
sg193
VP0DT0H0M0.7667S
p1015
sg48
(dp1016
g50
VALGPredevonator
p1017
sg52
Nssa(dp1018
g47
I4096745987
sg41
VWeaponDrop
p1019
sg189
I6
sg53
(lp1020
I2758383128
asg44
VPT1M56.8345107S
p1021
sg192
I4
sg193
VP0DT0H0M3.9333S
p1022
sg48
(dp1023
g50
VALGPredevonator
p1024
sg52
Nssa(dp1025
g47
I313138863
sg48
(dp1026
g50
VTL Spartan HCS
p1027
sg52
Nssg53
(lp1028
I1095363701
asg41
VWeaponPickup
p1029
sg44
VPT1M57.1975027S
p1030
sa(dp1031
g47
I4096745987
sg48
(dp1032
g50
VTL Spartan HCS
p1033
sg52
Nssg53
(lp1034
I2758383128
asg41
VWeaponPickup
p1035
sg44
VPT1M57.1985276S
p1036
sa(dp1037
g41
VPlayerSpawn
p1038
sg48
(dp1039
g50
VTL Spartan HCS
p1040
sg52
Nssg44
VPT1M57.1985276S
p1041
sa(dp1042
g47
I313138863
sg41
VWeaponDrop
p1043
sg189
I0
sg53
(lp1044
I1095363701
asg44
VPT2M1.1296723S
p1045
sg192
I0
sg193
VP0DT0H0M1.4333S
p1046
sg48
(dp1047
g50
VTL StelluR
p1048
sg52
Nssa(dp1049
g47
I723523180
sg48
(dp1050
g50
VTL StelluR
p1051
sg52
Nssg53
(lp1052
I2758383128
asg41
VWeaponPickup
p1053
sg44
VPT2M1.1296723S
p1054
sa(dp1055
g47
I313138863
sg48
(dp1056
g50
VALG ContrA HCS
p1057
sg52
Nssg53
(lp1058
I1095363701
asg41
VWeaponPickup
p1059
sg44
VPT2M1.7976793S
p1060
sa(dp1061
g47
I4096745987
sg48
(dp1062
g50
VALG ContrA HCS
p1063
sg52
Nssg53
(lp1064
I2758383128
asg41
VWeaponPickup
p1065
sg44
VPT2M1.7976793S
p1066
sa(dp1067
g41
VPlayerSpawn
p1068
sg48
(dp1069
g50
VALG ContrA HCS
p1070
sg52
Nssg44
VPT2M1.7986809S
p1071
sa(dp1072
g47
I313138863
sg48
(dp1073
g50
VALG RyaNoob
p1074
sg52
Nssg53
(lp1075
I1095363701
asg41
VWeaponPickup
p1076
sg44
VPT2M2.7807159S
p1077
sa(dp1078
g47
I4096745987
sg48
(dp1079
g50
VALG RyaNoob
p1080
sg52
Nssg53
(lp1081
I2758383128
asg41
VWeaponPickup
p1082
sg44
VPT2M2.7817579S
p1083
sa(dp1084
g41
VPlayerSpawn
p1085
sg48
(dp1086
g50
VALG RyaNoob
p1087
sg52
Nssg44
VPT2M2.7817579S
p1088
sa(dp1089
g47
I313138863
sg48
(dp1090
g50
VALGPredevonator
p1091
sg52
Nssg53
(lp1092
I1095363701
asg41
VWeaponPickup
p1093
sg44
VPT2M4.8478208S
p1094
sa(dp1095
g47
I4096745987
sg48
(dp1096
g50
VALGPredevonator
p1097
sg52
Nssg53
(lp1098
I2758383128
asg41
VWeaponPickup
p1099
sg44
VPT2M4.8478208S
p1100
sa(dp1101
g41
VPlayerSpawn
p1102
sg48
(dp1103
g50
VALGPredevonator
p1104
sg52
Nssg44
VPT2M4.8478208S
p1105
sa(dp1106
g204
I723523180
sg205
I00
sg206
I00
sg207
(dp1107
g50
VTL StelluR
p1108
sg52
Nssg210
(lp1109
I2758383128
asg212
I00
sg213
I01
sg214
I1
sg215
I0
sg216
I1
sg217
(dp1110
Vy
F5.4102499999999996
sVx
F-5.0119509999999998
sVz
F2.4520633200000002
ssg219
(dp1111
Vy
F9.0200980000000008
sVx
F-6.7777886399999998
sVz
F0.214417309
ssg221
I00
sg222
(dp1112
g50
VALG Heinz HCS
p1113
sg52
Nssg225
(lp1114
sg227
(lp1115
sg231
I00
sg44
VPT2M6.0468424S
p1116
sg41
VDeath
p1117
sg234
I1
sa(dp1118
g47
I313138863
sg41
VWeaponDrop
p1119
sg189
I0
sg53
(lp1120
I1095363701
asg44
VPT2M6.0488444S
p1121
sg192
I0
sg193
VP0DT0H0M0.7333S
p1122
sg48
(dp1123
g50
VALG Heinz HCS
p1124
sg52
Nssa(dp1125
g47
I4096745987
sg41
VWeaponDrop
p1126
sg189
I1
sg53
(lp1127
I2758383128
asg44
VPT2M6.0488444S
p1128
sg192
I0
sg193
VP0DT0H0M8.6667S
p1129
sg48
(dp1130
g50
VALG Heinz HCS
p1131
sg52
Nssa(dp1132
g204
I313138863
sg205
I00
sg206
I00
sg207
(dp1133
g50
VTL Spartan HCS
p1134
sg52
Nssg210
(lp1135
I1095363701
asg212
I00
sg213
I01
sg214
I1
sg215
I0
sg216
I1
sg217
(dp1136
Vy
F-9.9337929999999997
sVx
F-2.1114327899999998
sVz
F4.19959068
ssg219
(dp1137
Vy
F-11.660338400000001
sVx
F-8.3687310000000004
sVz
F1.0418757199999999
ssg221
I00
sg222
(dp1138
g50
VALG RyaNoob
p1139
sg52
Nssg225
(lp1140
sg227
(lp1141
sg231
I00
sg44
VPT2M8.4639346S
p1142
sg41
VDeath
p1143
sg234
I1
sa(dp1144
g47
I4096745987
sg41
VWeaponDrop
p1145
sg189
I0
sg53
(lp1146
I2758383128
asg44
VPT2M8.4659592S
p1147
sg192
I0
sg193
VP0DT0H0M4.9333S
p1148
sg48
(dp1149
g50
VALG RyaNoob
p1150
sg52
Nssa(dp1151
g47
I313138863
sg41
VWeaponDrop
p1152
sg189
I0
sg53
(lp1153
I1095363701
asg44
VPT2M8.4669587S
p1154
sg192
I0
sg193
VP0DT0H0M0.7500S
p1155
sg48
(dp1156
g50
VALG RyaNoob
p1157
sg52
Nssa(dp1158
g204
I723523180
sg205
I00
sg206
I00
sg207
(dp1159
g50
VTL StelluR
p1160
sg52
Nssg210
(lp1161
I2758383128
asg212
I00
sg213
I01
sg214
I1
sg215
I0
sg216
I1
sg217
(dp1162
Vy
F0.45095735799999997
sVx
F-7.1418304399999997
sVz
F2.8153239999999999
ssg219
(dp1163
Vy
F-0.231114656
sVx
F-13.250110599999999
sVz
F1.61468816
ssg221
I00
sg222
(dp1164
g50
VALGPredevonator
p1165
sg52
Nssg225
(lp1166
sg227
(lp1167
sg231
I00
sg44
VPT2M11.2810463S
p1168
sg41
VDeath
p1169
sg234
I1
sa(dp1170
g41
VMedal
p1171
sg48
(dp1172
g50
VTL Eco HCS
p1173
sg52
Nssg245
I824733727
sg44
VPT2M11.2820668S
p1174
sa(dp1175
g47
I313138863
sg41
VWeaponDrop
p1176
sg189
I0
sg53
(lp1177
I1095363701
asg44
VPT2M11.2830654S
p1178
sg192
I0
sg193
VP0DT0H0M0.3000S
p1179
sg48
(dp1180
g50
VALGPredevonator
p1181
sg52
Nssa(dp1182
g47
I4096745987
sg41
VWeaponDrop
p1183
sg189
I4
sg53
(lp1184
I2758383128
asg44
VPT2M11.2830654S
p1185
sg192
I3
sg193
VP0DT0H0M6.1333S
p1186
sg48
(dp1187
g50
VALGPredevonator
p1188
sg52
Nssa(dp1189
g47
I313138863
sg48
(dp1190
g50
VALG Heinz HCS
p1191
sg52
Nssg53
(lp1192
I1095363701
asg41
VWeaponPickup
p1193
sg44
VPT2M14.06415S
p1194
sa(dp1195
g47
I4096745987
sg48
(dp1196
g50
VALG Heinz HCS
p1197
sg52
Nssg53
(lp1198
I2758383128
asg41
VWeaponPickup
p1199
sg44
VPT2M14.0653326S
p1200
sa(dp1201
g41
VPlayerSpawn
p1202
sg48
(dp1203
g50
VALG Heinz HCS
p1204
sg52
Nssg44
VPT2M14.0653326S
p1205
sa(dp1206
g47
I4096745987
sg41
VWeaponDrop
p1207
sg189
I4
sg53
(lp1208
I2758383128
asg44
VPT2M15.5632151S
p1209
sg192
I1
sg193
VP0DT0H0M13.8333S
p1210
sg48
(dp1211
g50
VTL StelluR
p1212
sg52
Nssa(dp1213
g47
I523953283
sg48
(dp1214
g50
VTL StelluR
p1215
sg52
Nssg53
(lp1216
I2208825748
asg41
VWeaponPickup
p1217
sg44
VPT2M15.5632151S
p1218
sa(dp1219
g47
I313138863
sg48
(dp1220
g50
VALG RyaNoob
p1221
sg52
Nssg53
(lp1222
I1095363701
asg41
VWeaponPickup
p1223
sg44
VPT2M16.4813128S
p1224
sa(dp1225
g47
I4096745987
sg48
(dp1226
g50
VALG RyaNoob
p1227
sg52
Nssg53
(lp1228
I2758383128
asg41
VWeaponPickup
p1229
sg44
VPT2M16.4813128S
p1230
sa(dp1231
g41
VPlayerSpawn
p1232
sg48
(dp1233
g50
VALG RyaNoob
p1234
sg52
Nssg44
VPT2M16.4813128S
p1235
sa(dp1236
g47
I313138863
sg41
VWeaponDrop
p1237
sg189
I10
sg53
(lp1238
I1095363701
asg44
VPT2M17.9293297S
p1239
sg192
I4
sg193
VP0DT0H0M12.5000S
p1240
sg48
(dp1241
g50
VTL Spartan HCS
p1242
sg52
Nssa(dp1243
g47
I723523180
sg48
(dp1244
g50
VTL Spartan HCS
p1245
sg52
Nssg53
(lp1246
I2758383128
asg41
VWeaponPickupPad
p1247
sg44
VPT2M17.9293297S
p1248
sa(dp1249
g47
I723523180
sg48
(dp1250
g50
VTL Spartan HCS
p1251
sg52
Nssg53
(lp1252
I2758383128
asg41
VWeaponPickup
p1253
sg44
VPT2M17.9302998S
p1254
sa(dp1255
g47
I313138863
sg48
(dp1256
g50
VALGPredevonator
p1257
sg52
Nssg53
(lp1258
I1095363701
asg41
VWeaponPickup
p1259
sg44
VPT2M19.2973505S
p1260
sa(dp1261
g47
I4096745987
sg48
(dp1262
g50
VALGPredevonator
p1263
sg52
Nssg53
(lp1264
I2758383128
asg41
VWeaponPickup
p1265
sg44
VPT2M19.2983919S
p1266
sa(dp1267
g41
VPlayerSpawn
p1268
sg48
(dp1269
g50
VALGPredevonator
p1270
sg52
Nssg44
VPT2M19.2983919S
p1271
sa(dp1272
g47
I723523180
sg41
VWeaponDrop
p1273
sg189
I2
sg53
(lp1274
I2758383128
asg44
VPT2M23.1465315S
p1275
sg192
I2
sg193
VP0DT0H0M10.4500S
p1276
sg48
(dp1277
g50
VTL StelluR
p1278
sg52
Nssa(dp1279
g47
I424645655
sg48
(dp1280
g50
VTL StelluR
p1281
sg52
Nssg53
(lp1282
I1327094800
asg41
VWeaponPickup
p1283
sg44
VPT2M23.1465315S
p1284
sa(dp1285
g47
I4096745987
sg41
VWeaponDrop
p1286
sg189
I0
sg53
(lp1287
I2758383128
asg44
VPT2M23.8125444S
p1288
sg192
I0
sg193
VP0DT0H0M6.6167S
p1289
sg48
(dp1290
g50
VALG RyaNoob
p1291
sg52
Nssa(dp1292
g47
I4108759423
sg48
(dp1293
g50
VALG RyaNoob
p1294
sg52
Nssg53
(lp1295
I2758383128
asg41
VWeaponPickup
p1296
sg44
VPT2M23.8135449S
p1297
sa(dp1298
g204
I669296699
sg205
I00
sg206
I00
sg207
(dp1299
g50
VTL Eco HCS
p1300
sg52
Nssg210
(lp1301
I2758383128
asg212
I00
sg213
I01
sg214
I1
sg215
I0
sg216
I1
sg217
(dp1302
Vy
F-10.71898
sVx
F-14.342317599999999
sVz
F1.071496
ssg219
(dp1303
Vy
F9.4199979999999996
sVx
F-16.177587500000001
sVz
F2.5452745000000001
ssg221
I00
sg222
(dp1304
g50
VALG Heinz HCS
p1305
sg52
Nssg225
(lp1306
sg227
(lp1307
sg231
I01
sg44
VPT2M24.0975348S
p1308
sg41
VDeath
p1309
sg234
I1
sa(dp1310
g41
VMedal
p1311
sg48
(dp1312
g50
VTL Eco HCS
p1313
sg52
Nssg245
I848240062
sg44
VPT2M24.098559S
p1314
sa(dp1315
g47
I313138863
sg41
VWeaponDrop
p1316
sg189
I0
sg53
(lp1317
I1095363701
asg44
VPT2M24.0995374S
p1318
sg192
I0
sg193
VP0DT0H0M0.7167S
p1319
sg48
(dp1320
g50
VALG Heinz HCS
p1321
sg52
Nssa(dp1322
g47
I4096745987
sg41
VWeaponDrop
p1323
sg189
I8
sg53
(lp1324
I2758383128
asg44
VPT2M24.0995374S
p1325
sg192
I5
sg193
VP0DT0H0M9.3167S
p1326
sg48
(dp1327
g50
VALG Heinz HCS
p1328
sg52
Nssa(dp1329
g47
I4096745987
sg41
VWeaponDrop
p1330
sg189
I0
sg53
(lp1331
I2758383128
asg44
VPT2M25.1796014S
p1332
sg192
I0
sg193
VP0DT0H0M5.2667S
p1333
sg48
(dp1334
g50
VALGPredevonator
p1335
sg52
Nssa(dp1336
g47
I523953283
sg48
(dp1337
g50
VALGPredevonator
p1338
sg52
Nssg53
(lp1339
I2208825748
asg41
VWeaponPickup
p1340
sg44
VPT2M25.1796014S
p1341
sa(dp1342
g204
I4108759423
sg205
I00
sg206
I00
sg207
(dp1343
g50
VALG RyaNoob
p1344
sg52
Nssg210
(lp1345
I2758383128
asg212
I00
sg213
I01
sg214
I1
sg215
I0
sg216
I1
sg217
(dp1346
Vy
F-10.7200241
sVx
F-7.5186260000000003
sVz
F3.3224005700000001
ssg219
(dp1347
Vy
F-5.6129230000000003
sVx
F-14.261036900000001
sVz
F2.6325571499999998
ssg221
I00
sg222
(dp1348
g50
VTL Eco HCS
p1349
sg52
Nssg225
(lp1350
sg227
(lp1351
(dp1352
g50
VALG Heinz HCS
p1353
sg52
Nsasg231
I01
sg44
VPT2M26.6476351S
p1354
sg41
VDeath
p1355
sg234
I1
sa(dp1356
g41
VMedal
p1357
sg48
(dp1358
g50
VALG RyaNoob
p1359
sg52
Nssg245
I3261908037
sg44
VPT2M26.6486577S
p1360
sa(dp1361
g47
I669296699
sg41
VWeaponDrop
p1362
sg189
I2
sg53
(lp1363
I2758383128
asg44
VPT2M26.6496585S
p1364
sg192
I1
sg193
VP0DT0H0M16.0667S
p1365
sg48
(dp1366
g50
VTL Eco HCS
p1367
sg52
Nssa(dp1368
g47
I4096745987
sg41
VWeaponDrop
p1369
sg189
I19
sg53
(lp1370
I2758383128
asg44
VPT2M26.6496585S
p1371
sg192
I12
sg193
VP0DT0H0M32.3833S
p1372
sg48
(dp1373
g50
VTL Eco HCS
p1374
sg52
Nssa(dp1375
g47
I4096745987
sg41
VWeaponDrop
p1376
sg189
I0
sg53
(lp1377
I2758383128
asg44
VPT2M26.6496585S
p1378
sg192
I0
sg193
VP0DT0S
p1379
sg48
(dp1380
g50
VTL Eco HCS
p1381
sg52
Nssa(dp1382
g204
I523953283
sg205
I00
sg206
I00
sg207
(dp1383
g50
VALGPredevonator
p1384
sg52
Nssg210
(lp1385
I2208825748
asg212
I00
sg213
I01
sg214
I1
sg215
I0
sg216
I1
sg217
(dp1386
Vy
F8.8667649999999991
sVx
F2.99742723
sVz
F4.0426816900000002
ssg219
(dp1387
Vy
F11.790512100000001
sVx
F-4.0381039999999997
sVz
F2.2896461499999998
ssg221
I00
sg222
(dp1388
g50
VTL StelluR
p1389
sg52
Nssg225
(lp1390
sg227
(lp1391
sg231
I01
sg44
VPT2M29.5137422S
p1392
sg41
VDeath
p1393
sg234
I1
sa(dp1394
g41
VMedal
p1395
sg48
(dp1396
g50
VALGPredevonator
p1397
sg52
Nssg245
I3261908037
sg44
VPT2M29.5157686S
p1398
sa(dp1399
g47
I424645655
sg41
VWeaponDrop
p1400
sg189
I12
sg53
(lp1401
I1327094800
asg44
VPT2M29.5167723S
p1402
sg192
I7
sg193
VP0DT0H0M6.3667S
p1403
sg48
(dp1404
g50
VTL StelluR
p1405
sg52
Nssa(dp1406
g47
I523953283
sg41
VWeaponDrop
p1407
sg189
I2
sg53
(lp1408
I2208825748
asg44
VPT2M29.5167723S
p1409
sg192
I1
sg193
VP0DT0H0M5.8667S
p1410
sg48
(dp1411
g50
VTL StelluR
p1412
sg52
Nssa(dp1413
g204
I4096745987
sg205
I00
sg206
I00
sg207
(dp1414
g50
VALG ContrA HCS
p1415
sg52
Nssg210
(lp1416
I2758383128
asg212
I00
sg213
I01
sg214
I1
sg215
I0
sg216
I1
sg217
(dp1417
Vy
F9.3390149999999998
sVx
F-16.809108699999999
sVz
F1.69907784
ssg219
(dp1418
Vy
F-2.6634957799999999
sVx
F-12.323068599999999
sVz
F1.63293171
ssg221
I00
sg222
(dp1419
g50
VTL Spartan HCS
p1420
sg52
Nssg225
(lp1421
sg227
(lp1422
sg231
I01
sg44
VPT2M29.614748S
p1423
sg41
VDeath
p1424
sg234
I1
sa(dp1425
g41
VMedal
p1426
sg48
(dp1427
g50
VALG ContrA HCS
p1428
sg52
Nssg245
I3261908037
sg44
VPT2M29.6167688S
p1429
sa(dp1430
g47
I723523180
sg41
VWeaponDrop
p1431
sg189
I2
sg53
(lp1432
I2758383128
asg44
VPT2M29.6177703S
p1433
sg192
I2
sg193
VP0DT0H0M11.6833S
p1434
sg48
(dp1435
g50
VTL Spartan HCS
p1436
sg52
Nssa(dp1437
g47
I4096745987
sg41
VWeaponDrop
p1438
sg189
I0
sg53
(lp1439
I2758383128
asg44
VPT2M29.6177703S
p1440
sg192
I0
sg193
VP0DT0H0M8.2333S
p1441
sg48
(dp1442
g50
VTL Spartan HCS
p1443
sg52
Nssa(dp1444
g204
I4096745987
sg205
I00
sg206
I00
sg207
(dp1445
g50
VTL Danoxide
p1446
sg52
Nssg210
(lp1447
I2758383128
asg212
I00
sg213
I01
sg214
I1
sg215
I0
sg216
I1
sg217
(dp1448
Vy
F11.155839
sVx
F1.85848236
sVz
F2.2876219999999998
ssg219
(dp1449
Vy
F6.4802059999999999
sVx
F2.5490370000000002
sVz
F2.8048441400000002
ssg221
I00
sg222
(dp1450
g50
VALGPredevonator
p1451
sg52
Nssg225
(lp1452
sg227
(lp1453
(dp1454
g50
VTL StelluR
p1455
sg52
Nsasg231
I01
sg44
VPT2M30.4638155S
p1456
sg41
VDeath
p1457
sg234
I1
sa(dp1458
g41
VMedal
p1459
sg48
(dp1460
g50
VTL Danoxide
p1461
sg52
Nssg245
I3261908037
sg44
VPT2M30.465798S
p1462
sa(dp1463
g47
I313138863
sg41
VWeaponDrop
p1464
sg189
I0
sg53
(lp1465
I1095363701
asg44
VPT2M30.465798S
p1466
sg192
I0
sg193
VP0DT0H0M0.6167S
p1467
sg48
(dp1468
g50
VALGPredevonator
p1469
sg52
Nssa(dp1470
g47
I523953283
sg41
VWeaponDrop
p1471
sg189
I9
sg53
(lp1472
I2208825748
asg44
VPT2M30.465798S
p1473
sg192
I5
sg193
VP0DT0H0M5.2833S
p1474
sg48
(dp1475
g50
VALGPredevonator
p1476
sg52
Nssa(dp1477
g47
I313138863
sg48
(dp1478
g50
VALG Heinz HCS
p1479
sg52
Nssg53
(lp1480
I1095363701
asg41
VWeaponPickup
p1481
sg44
VPT2M32.1148646S
p1482
sa(dp1483
g47
I4096745987
sg48
(dp1484
g50
VALG Heinz HCS
p1485
sg52
Nssg53
(lp1486
I2758383128
asg41
VWeaponPickup
p1487
sg44
VPT2M32.1148646S
p1488
sa(dp1489
g41
VPlayerSpawn
p1490
sg48
(dp1491
g50
VALG Heinz HCS
p1492
sg52
Nssg44
VPT2M32.1148646S
p1493
sa(dp1494
g47
I313138863
sg41
VWeaponDrop
p1495
sg189
I0
sg53
(lp1496
I1095363701
asg44
VPT2M33.5959367S
p1497
sg192
I0
sg193
VP0DT0H0M1.7667S
p1498
sg48
(dp1499
g50
VALG RyaNoob
p1500
sg52
Nssa(dp1501
g47
I723523180
sg48
(dp1502
g50
VALG RyaNoob
p1503
sg52
Nssg53
(lp1504
I2758383128
asg41
VWeaponPickup
p1505
sg44
VPT2M33.5975666S
p1506
sa(dp1507
g47
I313138863
sg48
(dp1508
g50
VTL Eco HCS
p1509
sg52
Nssg53
(lp1510
I1095363701
asg41
VWeaponPickup
p1511
sg44
VPT2M34.6649651S
p1512
sa(dp1513
g47
I4096745987
sg48
(dp1514
g50
VTL Eco HCS
p1515
sg52
Nssg53
(lp1516
I2758383128
asg41
VWeaponPickup
p1517
sg44
VPT2M34.6649651S
p1518
sa(dp1519
g41
VPlayerSpawn
p1520
sg48
(dp1521
g50
VTL Eco HCS
p1522
sg52
Nssg44
VPT2M34.6649651S
p1523
sa(dp1524
g47
I313138863
sg48
(dp1525
g50
VTL StelluR
p1526
sg52
Nssg53
(lp1527
I1095363701
asg41
VWeaponPickup
p1528
sg44
VPT2M37.531156S
p1529
sa(dp1530
g47
I4096745987
sg48
(dp1531
g50
VTL StelluR
p1532
sg52
Nssg53
(lp1533
I2758383128
asg41
VWeaponPickup
p1534
sg44
VPT2M37.531156S
p1535
sa(dp1536
g41
VPlayerSpawn
p1537
sg48
(dp1538
g50
VTL StelluR
p1539
sg52
Nssg44
VPT2M37.531156S
p1540
sa(dp1541
g47
I313138863
sg41
VWeaponDrop
p1542
sg189
I0
sg53
(lp1543
I1095363701
asg44
VPT2M37.5960798S
p1544
sg192
I0
sg193
VP0DT0H0M1.0167S
p1545
sg48
(dp1546
g50
VALG Heinz HCS
p1547
sg52
Nssa(dp1548
g47
I669296699
sg48
(dp1549
g50
VALG Heinz HCS
p1550
sg52
Nssg53
(lp1551
I2758383128
asg41
VWeaponPickup
p1552
sg44
VPT2M37.5960798S
p1553
sa(dp1554
g47
I313138863
sg48
(dp1555
g50
VTL Spartan HCS
p1556
sg52
Nssg53
(lp1557
I1095363701
asg41
VWeaponPickup
p1558
sg44
VPT2M37.6310742S
p1559
sa(dp1560
g47
I4096745987
sg48
(dp1561
g50
VTL Spartan HCS
p1562
sg52
Nssg53
(lp1563
I2758383128
asg41
VWeaponPickup
p1564
sg44
VPT2M37.6310742S
p1565
sa(dp1566
g41
VPlayerSpawn
p1567
sg48
(dp1568
g50
VTL Spartan HCS
p1569
sg52
Nssg44
VPT2M37.6310742S
p1570
sa(dp1571
g47
I313138863
sg48
(dp1572
g50
VALGPredevonator
p1573
sg52
Nssg53
(lp1574
I1095363701
asg41
VWeaponPickup
p1575
sg44
VPT2M38.4810877S
p1576
sa(dp1577
g47
I4096745987
sg48
(dp1578
g50
VALGPredevonator
p1579
sg52
Nssg53
(lp1580
I2758383128
asg41
VWeaponPickup
p1581
sg44
VPT2M38.4821085S
p1582
sa(dp1583
g41
VPlayerSpawn
p1584
sg48
(dp1585
g50
VALGPredevonator
p1586
sg52
Nssg44
VPT2M38.4821085S
p1587
sa(dp1588
g47
I313138863
sg41
VWeaponDrop
p1589
sg189
I0
sg53
(lp1590
I1095363701
asg44
VPT2M41.6792443S
p1591
sg192
I0
sg193
VP0DT0H0M4.2000S
p1592
sg48
(dp1593
g50
VTL Eco HCS
p1594
sg52
Nssa(dp1595
g47
I3808094875
sg48
(dp1596
g50
VTL Eco HCS
p1597
sg52
Nssg53
(lp1598
I2758383128
asg41
VWeaponPickup
p1599
sg44
VPT2M41.6802321S
p1600
sa(dp1601
g47
I313138863
sg41
VWeaponDrop
p1602
sg189
I0
sg53
(lp1603
I1095363701
asg44
VPT2M42.8792955S
p1604
sg192
I0
sg193
VP0DT0H0M1.0000S
p1605
sg48
(dp1606
g50
VALGPredevonator
p1607
sg52
Nssa(dp1608
g47
I723388907
sg48
(dp1609
g50
VALGPredevonator
p1610
sg52
Nssg53
(lp1611
I89283061
asg41
VWeaponPickup
p1612
sg44
VPT2M42.8792955S
p1613
sa(dp1614
g204
I4096745987
sg205
I00
sg206
I00
sg207
(dp1615
g50
VTL Eco HCS
p1616
sg52
Nssg210
(lp1617
I2758383128
asg212
I00
sg213
I01
sg214
I1
sg215
I0
sg216
I1
sg217
(dp1618
Vy
F-10.271839999999999
sVx
F-14.7919436
sVz
F1.4283270800000001
ssg219
(dp1619
Vy
F-3.0602731699999999
sVx
F-16.803934099999999
sVz
F1.61471093
ssg221
I00
sg222
(dp1620
g50
VALG Heinz HCS
p1621
sg52
Nssg225
(lp1622
sg227
(lp1623
(dp1624
g50
VTL Spartan HCS
p1625
sg52
Nsasg231
I00
sg44
VPT2M51.0475698S
p1626
sg41
VDeath
p1627
sg234
I1
sa(dp1628
g41
VImpulse
p1629
sg48
(dp1630
g50
VTL Eco HCS
p1631
sg52
Nssg239
I2556889090
sg44
VPT2M51.0475698S
p1632
sa(dp1633
g41
VMedal
p1634
sg48
(dp1635
g50
VTL Eco HCS
p1636
sg52
Nssg245
I2838259753
sg44
VPT2M51.0475698S
p1637
sa(dp1638
g47
I669296699
sg41
VWeaponDrop
p1639
sg189
I2
sg53
(lp1640
I2758383128
asg44
VPT2M51.0496021S
p1641
sg192
I0
sg193
VP0DT0H0M8.7500S
p1642
sg48
(dp1643
g50
VALG Heinz HCS
p1644
sg52
Nssa(dp1645
g47
I4096745987
sg41
VWeaponDrop
p1646
sg189
I5
sg53
(lp1647
I2758383128
asg44
VPT2M51.0496021S
p1648
sg192
I4
sg193
VP0DT0H0M9.1667S
p1649
sg48
(dp1650
g50
VALG Heinz HCS
p1651
sg52
Nssa(dp1652
g204
I4096745987
sg205
I00
sg206
I00
sg207
(dp1653
g50
VALGPredevonator
p1654
sg52
Nssg210
(lp1655
I2758383128
asg212
I00
sg213
I01
sg214
I1
sg215
I0
sg216
I1
sg217
(dp1656
Vy
F10.5596371
sVx
F-2.1988835299999998
sVz
F2.2961068199999999
ssg219
(dp1657
Vy
F-0.65383789999999997
sVx
F1.02476883
sVz
F-1.25966358
ssg221
I00
sg222
(dp1658
g50
VTL Danoxide
p1659
sg52
Nssg225
(lp1660
sg227
(lp1661
(dp1662
g50
VALG RyaNoob
p1663
sg52
Nsasg231
I01
sg44
VPT2M57.113803S
p1664
sg41
VDeath
p1665
sg234
I1
sa(dp1666
g41
VMedal
p1667
sg48
(dp1668
g50
VALGPredevonator
p1669
sg52
Nssg245
I3261908037
sg44
VPT2M57.1158278S
p1670
sa(dp1671
g47
I4096745987
sg41
VWeaponDrop
p1672
sg189
I52
sg53
(lp1673
I2758383128
asg44
VPT2M57.1158278S
p1674
sg192
I23
sg193
VP0DT0H1M23.6000S
p1675
sg48
(dp1676
g50
VTL Danoxide
p1677
sg52
Nssa(dp1678
g47
I313138863
sg41
VWeaponDrop
p1679
sg189
I25
sg53
(lp1680
I1095363701
asg44
VPT2M57.1168403S
p1681
sg192
I12
sg193
VP0DT0H0M8.0167S
p1682
sg48
(dp1683
g50
VTL Danoxide
p1684
sg52
Nssa(dp1685
g47
I4096745987
sg41
VWeaponDrop
p1686
sg189
I4
sg53
(lp1687
I2758383128
asg44
VPT2M58.2458626S
p1688
sg192
I2
sg193
VP0DT0H0M11.0333S
p1689
sg48
(dp1690
g50
VTL Eco HCS
p1691
sg52
Nssa(dp1692
g47
I669296699
sg48
(dp1693
g50
VTL Eco HCS
p1694
sg52
Nssg53
(lp1695
I2758383128
asg41
VWeaponPickup
p1696
sg44
VPT2M58.2468676S
p1697
sa(dp1698
g47
I313138863
sg48
(dp1699
g50
VALG Heinz HCS
p1700
sg52
Nssg53
(lp1701
I1095363701
asg41
VWeaponPickup
p1702
sg44
VPT2M59.0648902S
p1703
sa(dp1704
g47
I4096745987
sg48
(dp1705
g50
VALG Heinz HCS
p1706
sg52
Nssg53
(lp1707
I2758383128
asg41
VWeaponPickup
p1708
sg44
VPT2M59.0648902S
p1709
sa(dp1710
g41
VPlayerSpawn
p1711
sg48
(dp1712
g50
VALG Heinz HCS
p1713
sg52
Nssg44
VPT2M59.0648902S
p1714
sa(dp1715
g204
I723523180
sg205
I00
sg206
I00
sg207
(dp1716
g50
VALG RyaNoob
p1717
sg52
Nssg210
(lp1718
I2758383128
asg212
I00
sg213
I01
sg214
I1
sg215
I0
sg216
I1
sg217
(dp1719
Vy
F7.0256999999999996
sVx
F3.4627306500000001
sVz
F0.76208895399999999
ssg219
(dp1720
Vy
F5.9483027499999999
sVx
F-4.2954254199999999
sVz
F0.91733253000000003
ssg221
I00
sg222
(dp1721
g50
VTL Spartan HCS
p1722
sg52
Nssg225
(lp1723
sg227
(lp1724
sg231
I00
sg44
VPT3M0.2469073S
p1725
sg41
VDeath
p1726
sg234
I1
sa(dp1727
g47
I313138863
sg41
VWeaponDrop
p1728
sg189
I0
sg53
(lp1729
I1095363701
asg44
VPT3M0.2489421S
p1730
sg192
I0
sg193
VP0DT0H0M3.0167S
p1731
sg48
(dp1732
g50
VTL Spartan HCS
p1733
sg52
Nssa(dp1734
g47
I4096745987
sg41
VWeaponDrop
p1735
sg189
I9
sg53
(lp1736
I2758383128
asg44
VPT3M0.2489421S
p1737
sg192
I6
sg193
VP0DT0H0M19.6000S
p1738
sg48
(dp1739
g50
VTL Spartan HCS
p1740
sg52
Nssa(dp1741
g47
I4096745987
sg41
VWeaponDrop
p1742
sg189
I0
sg53
(lp1743
I2758383128
asg44
VPT3M3.479038S
p1744
sg192
I0
sg193
VP0DT0H0M3.6333S
p1745
sg48
(dp1746
g50
VALG Heinz HCS
p1747
sg52
Nssa(dp1748
g47
I4108759423
sg48
(dp1749
g50
VALG Heinz HCS
p1750
sg52
Nssg53
(lp1751
I2758383128
asg41
VWeaponPickup
p1752
sg44
VPT3M3.480012S
p1753
sa(dp1754
g47
I313138863
sg48
(dp1755
g50
VTL Danoxide
p1756
sg52
Nssg53
(lp1757
I1095363701
asg41
VWeaponPickup
p1758
sg44
VPT3M5.1310661S
p1759
sa(dp1760
g47
I4096745987
sg48
(dp1761
g50
VTL Danoxide
p1762
sg52
Nssg53
(lp1763
I2758383128
asg41
VWeaponPickup
p1764
sg44
VPT3M5.1310661S
p1765
sa(dp1766
g41
VPlayerSpawn
p1767
sg48
(dp1768
g50
VTL Danoxide
p1769
sg52
Nssg44
VPT3M5.1310661S
p1770
sa(dp1771
g204
I669296699
sg205
I00
sg206
I00
sg207
(dp1772
g50
VTL Eco HCS
p1773
sg52
Nssg210
(lp1774
I2758383128
asg212
I00
sg213
I01
sg214
I1
sg215
I0
sg216
I1
sg217
(dp1775
Vy
F6.6728587199999998
sVx
F-16.7945156
sVz
F2.4621288799999999
ssg219
(dp1776
Vy
F4.837078
sVx
F4.0306906700000003
sVz
F3.6893274800000002
ssg221
I00
sg222
(dp1777
g50
VALGPredevonator
p1778
sg52
Nssg225
(lp1779
sg227
(lp1780
sg231
I01
sg44
VPT3M6.9301223S
p1781
sg41
VDeath
p1782
sg234
I1
sa(dp1783
g41
VMedal
p1784
sg48
(dp1785
g50
VTL Eco HCS
p1786
sg52
Nssg245
I848240062
sg44
VPT3M6.9321771S
p1787
sa(dp1788
g47
I723388907
sg41
VWeaponDrop
p1789
sg189
I0
sg53
(lp1790
I89283061
asg44
VPT3M6.9321771S
p1791
sg192
I0
sg193
VP0DT0H0M2.0667S
p1792
sg48
(dp1793
g50
VALGPredevonator
p1794
sg52
Nssa(dp1795
g47
I4096745987
sg41
VWeaponDrop
p1796
sg189
I3
sg53
(lp1797
I2758383128
asg44
VPT3M6.9321771S
p1798
sg192
I1
sg193
VP0DT0H0M25.3833S
p1799
sg48
(dp1800
g50
VALGPredevonator
p1801
sg52
Nssa(dp1802
g47
I313138863
sg48
(dp1803
g50
VTL Spartan HCS
p1804
sg52
Nssg53
(lp1805
I1095363701
asg41
VWeaponPickup
p1806
sg44
VPT3M8.2641656S
p1807
sa(dp1808
g47
I4096745987
sg48
(dp1809
g50
VTL Spartan HCS
p1810
sg52
Nssg53
(lp1811
I2758383128
asg41
VWeaponPickup
p1812
sg44
VPT3M8.2641656S
p1813
sa(dp1814
g41
VPlayerSpawn
p1815
sg48
(dp1816
g50
VTL Spartan HCS
p1817
sg52
Nssg44
VPT3M8.2641656S
p1818
sa(dp1819
g204
I4096745987
sg205
I00
sg206
I00
sg207
(dp1820
g50
VTL Spartan HCS
p1821
sg52
Nssg210
(lp1822
I2758383128
asg212
I00
sg213
I01
sg214
I1
sg215
I0
sg216
I1
sg217
(dp1823
Vy
F0.23949557499999999
sVx
F-0.20203006300000001
sVz
F-1.4463197000000001
ssg219
(dp1824
Vy
F5.0527434299999996
sVx
F1.3641387199999999
sVz
F-0.83630096899999995
ssg221
I00
sg222
(dp1825
g50
VALG ContrA HCS
p1826
sg52
Nssg225
(lp1827
sg227
(lp1828
(dp1829
g50
VTL StelluR
p1830
sg52
Nsasg231
I00
sg44
VPT3M14.0303549S
p1831
sg41
VDeath
p1832
sg234
I1
sa(dp1833
g47
I313138863
sg41
VWeaponDrop
p1834
sg189
I8
sg53
(lp1835
I1095363701
asg44
VPT3M14.0323572S
p1836
sg192
I1
sg193
VP0DT0H0M5.1667S
p1837
sg48
(dp1838
g50
VALG ContrA HCS
p1839
sg52
Nssa(dp1840
g47
I4096745987
sg41
VWeaponDrop
p1841
sg189
I36
sg53
(lp1842
I2758383128
asg44
VPT3M14.0323572S
p1843
sg192
I17
sg193
VP0DT0H1M7.0667S
p1844
sg48
(dp1845
g50
VALG ContrA HCS
p1846
sg52
Nssa(dp1847
g47
I313138863
sg48
(dp1848
g50
VALGPredevonator
p1849
sg52
Nssg53
(lp1850
I1095363701
asg41
VWeaponPickup
p1851
sg44
VPT3M14.9473859S
p1852
sa(dp1853
g47
I4096745987
sg48
(dp1854
g50
VALGPredevonator
p1855
sg52
Nssg53
(lp1856
I2758383128
asg41
VWeaponPickup
p1857
sg44
VPT3M14.9483849S
p1858
sa(dp1859
g41
VPlayerSpawn
p1860
sg48
(dp1861
g50
VALGPredevonator
p1862
sg52
Nssg44
VPT3M14.9483849S
p1863
sa(dp1864
g47
I4096745987
sg41
VWeaponDrop
p1865
sg189
I3
sg53
(lp1866
I2758383128
asg44
VPT3M16.7794924S
p1867
sg192
I2
sg193
VP0DT0H0M6.1000S
p1868
sg48
(dp1869
g50
VTL Spartan HCS
p1870
sg52
Nssa(dp1871
g47
I424645655
sg48
(dp1872
g50
VTL Spartan HCS
p1873
sg52
Nssg53
(lp1874
I1327094800
asg41
VWeaponPickup
p1875
sg44
VPT3M16.7794924S
p1876
sa(dp1877
g204
I313138863
sg205
I00
sg206
I00
sg207
(dp1878
g50
VALG Heinz HCS
p1879
sg52
Nssg210
(lp1880
I1095363701
asg212
I00
sg213
I01
sg214
I1
sg215
I0
sg216
I1
sg217
(dp1881
Vy
F-3.5957270000000001
sVx
F-14.273646400000001
sVz
F1.63883245
ssg219
(dp1882
Vy
F-4.0702695799999997
sVx
F-12.03885
sVz
F2.0146455799999998
ssg221
I00
sg222
(dp1883
g50
VTL Danoxide
p1884
sg52
Nssg225
(lp1885
sg227
(lp1886
sg231
I00
sg44
VPT3M19.5635633S
p1887
sg41
VDeath
p1888
sg234
I1
sa(dp1889
g47
I4096745987
sg41
VWeaponDrop
p1890
sg189
I8
sg53
(lp1891
I2758383128
asg44
VPT3M19.5655649S
p1892
sg192
I6
sg193
VP0DT0H0M13.9500S
p1893
sg48
(dp1894
g50
VTL Danoxide
p1895
sg52
Nssa(dp1896
g47
I313138863
sg41
VWeaponDrop
p1897
sg189
I0
sg53
(lp1898
I1095363701
asg44
VPT3M19.5665852S
p1899
sg192
I0
sg193
VP0DT0H0M0.4833S
p1900
sg48
(dp1901
g50
VTL Danoxide
p1902
sg52
Nssa(dp1903
g204
I3808094875
sg205
I00
sg206
I00
sg207
(dp1904
g50
VTL Eco HCS
p1905
sg52
Nssg210
(lp1906
I2758383128
asg212
I00
sg213
I01
sg214
I1
sg215
I0
sg216
I1
sg217
(dp1907
Vy
F-2.3950665
sVx
F-15.9729776
sVz
F1.6146666999999999
ssg219
(dp1908
Vy
F-4.4430494300000003
sVx
F-15.3484564
sVz
F1.6294776200000001
ssg221
I00
sg222
(dp1909
g50
VALG Heinz HCS
p1910
sg52
Nssg225
(lp1911
sg227
(lp1912
(dp1913
g50
VTL Danoxide
p1914
sg52
Nsasg231
I00
sg44
VPT3M20.3135917S
p1915
sg41
VDeath
p1916
sg234
I1
sa(dp1917
g47
I313138863
sg41
VWeaponDrop
p1918
sg189
I21
sg53
(lp1919
I1095363701
asg44
VPT3M20.3156121S
p1920
sg192
I11
sg193
VP0DT0H0M5.7833S
p1921
sg48
(dp1922
g50
VALG Heinz HCS
p1923
sg52
Nssa(dp1924
g47
I4108759423
sg41
VWeaponDrop
p1925
sg189
I10
sg53
(lp1926
I2758383128
asg44
VPT3M20.3156121S
p1927
sg192
I7
sg193
VP0DT0H0M11.8333S
p1928
sg48
(dp1929
g50
VALG Heinz HCS
p1930
sg52
Nssa(dp1931
g47
I669296699
sg41
VWeaponDrop
p1932
sg189
I2
sg53
(lp1933
I2758383128
asg44
VPT3M21.6126408S
p1934
sg192
I1
sg193
VP0DT0H0M17.1000S
p1935
sg48
(dp1936
g50
VTL Eco HCS
p1937
sg52
Nssa(dp1938
g47
I4108759423
sg48
(dp1939
g50
VTL Eco HCS
p1940
sg52
Nssg53
(lp1941
I2758383128
asg41
VWeaponPickup
p1942
sg44
VPT3M21.6126408S
p1943
sa(dp1944
g47
I313138863
sg48
(dp1945
g50
VALG ContrA HCS
p1946
sg52
Nssg53
(lp1947
I1095363701
asg41
VWeaponPickup
p1948
sg44
VPT3M22.0476812S
p1949
sa(dp1950
g47
I4096745987
sg48
(dp1951
g50
VALG ContrA HCS
p1952
sg52
Nssg53
(lp1953
I2758383128
asg41
VWeaponPickup
p1954
sg44
VPT3M22.0476812S
p1955
sa(dp1956
g41
VPlayerSpawn
p1957
sg48
(dp1958
g50
VALG ContrA HCS
p1959
sg52
Nssg44
VPT3M22.0476812S
p1960
sa(dp1961
g204
I4096745987
sg205
I00
sg206
I01
sg207
(dp1962
g50
VALGPredevonator
p1963
sg52
Nssg210
(lp1964
I2758383128
asg212
I00
sg213
I00
sg214
I1
sg215
I0
sg216
I1
sg217
(dp1965
Vy
F11.6355743
sVx
F9.7685259999999996
sVz
F0.79700910000000003
ssg219
(dp1966
Vy
F11.770622299999999
sVx
F9.5276870000000002
sVz
F0.80295056099999995
ssg221
I00
sg222
(dp1967
g50
VTL Spartan HCS
p1968
sg52
Nssg225
(lp1969
sg227
(lp1970
sg231
I00
sg44
VPT3M23.4477138S
p1971
sg41
VDeath
p1972
sg234
I1
sa(dp1973
g41
VMedal
p1974
sg48
(dp1975
g50
VALGPredevonator
p1976
sg52
Nssg245
I250435527
sg44
VPT3M23.4487144S
p1977
sa(dp1978
g47
I313138863
sg41
VWeaponDrop
p1979
sg189
I0
sg53
(lp1980
I1095363701
asg44
VPT3M23.4487144S
p1981
sg192
I0
sg193
VP0DT0H0M4.5167S
p1982
sg48
(dp1983
g50
VTL Spartan HCS
p1984
sg52
Nssa(dp1985
g47
I424645655
sg41
VWeaponDrop
p1986
sg189
I9
sg53
(lp1987
I1327094800
asg44
VPT3M23.4497362S
p1988
sg192
I3
sg193
VP0DT0H0M4.5667S
p1989
sg48
(dp1990
g50
VTL Spartan HCS
p1991
sg52
Nssa(dp1992
g204
I313138863
sg205
I00
sg206
I00
sg207
(dp1993
g50
VTL StelluR
p1994
sg52
Nssg210
(lp1995
I1095363701
asg212
I00
sg213
I01
sg214
I1
sg215
I0
sg216
I1
sg217
(dp1996
Vy
F15.1318874
sVx
F6.7961082499999996
sVz
F2.1896204899999998
ssg219
(dp1997
Vy
F15.242446899999999
sVx
F7.9051022499999997
sVz
F2.2273583399999999
ssg221
I00
sg222
(dp1998
g50
VALG RyaNoob
p1999
sg52
Nssg225
(lp2000
sg227
(lp2001
(dp2002
g50
VTL Spartan HCS
p2003
sg52
Nsasg231
I00
sg44
VPT3M25.2807833S
p2004
sg41
VDeath
p2005
sg234
I1
sa(dp2006
g47
I4108759423
sg41
VWeaponDrop
p2007
sg189
I17
sg53
(lp2008
I2758383128
asg44
VPT3M25.2828079S
p2009
sg192
I8
sg193
VP0DT0H0M41.0833S
p2010
sg48
(dp2011
g50
VALG RyaNoob
p2012
sg52
Nssa(dp2013
g47
I723523180
sg41
VWeaponDrop
p2014
sg189
I2
sg53
(lp2015
I2758383128
asg44
VPT3M25.2828079S
p2016
sg192
I2
sg193
VP0DT0H0M19.3333S
p2017
sg48
(dp2018
g50
VALG RyaNoob
p2019
sg52
Nssa(dp2020
g47
I313138863
sg48
(dp2021
g50
VTL Danoxide
p2022
sg52
Nssg53
(lp2023
I1095363701
asg41
VWeaponPickup
p2024
sg44
VPT3M27.5813146S
p2025
sa(dp2026
g47
I4096745987
sg48
(dp2027
g50
VTL Danoxide
p2028
sg52
Nssg53
(lp2029
I2758383128
asg41
VWeaponPickup
p2030
sg44
VPT3M27.5813146S
p2031
sa(dp2032
g41
VPlayerSpawn
p2033
sg48
(dp2034
g50
VTL Danoxide
p2035
sg52
Nssg44
VPT3M27.5813146S
p2036
sa(dp2037
g47
I313138863
sg48
(dp2038
g50
VALG Heinz HCS
p2039
sg52
Nssg53
(lp2040
I1095363701
asg41
VWeaponPickup
p2041
sg44
VPT3M28.3309231S
p2042
sa(dp2043
g47
I4096745987
sg48
(dp2044
g50
VALG Heinz HCS
p2045
sg52
Nssg53
(lp2046
I2758383128
asg41
VWeaponPickup
p2047
sg44
VPT3M28.3309231S
p2048
sa(dp2049
g41
VPlayerSpawn
p2050
sg48
(dp2051
g50
VALG Heinz HCS
p2052
sg52
Nssg44
VPT3M28.3309231S
p2053
sa(dp2054
g47
I313138863
sg41
VWeaponDrop
p2055
sg189
I0
sg53
(lp2056
I1095363701
asg44
VPT3M31.3630159S
p2057
sg192
I0
sg193
VP0DT0H0M4.1667S
p2058
sg48
(dp2059
g50
VALGPredevonator
p2060
sg52
Nssa(dp2061
g47
I669296699
sg48
(dp2062
g50
VALGPredevonator
p2063
sg52
Nssg53
(lp2064
I2758383128
asg41
VWeaponPickup
p2065
sg44
VPT3M31.3630159S
p2066
sa(dp2067
g47
I313138863
sg48
(dp2068
g50
VTL Spartan HCS
p2069
sg52
Nssg53
(lp2070
I1095363701
asg41
VWeaponPickup
p2071
sg44
VPT3M31.4640201S
p2072
sa(dp2073
g47
I4096745987
sg48
(dp2074
g50
VTL Spartan HCS
p2075
sg52
Nssg53
(lp2076
I2758383128
asg41
VWeaponPickup
p2077
sg44
VPT3M31.4640201S
p2078
sa(dp2079
g41
VPlayerSpawn
p2080
sg48
(dp2081
g50
VTL Spartan HCS
p2082
sg52
Nssg44
VPT3M31.4640201S
p2083
sa(dp2084
g47
I313138863
sg48
(dp2085
g50
VALG RyaNoob
p2086
sg52
Nssg53
(lp2087
I1095363701
asg41
VWeaponPickup
p2088
sg44
VPT3M33.2981126S
p2089
sa(dp2090
g47
I4096745987
sg48
(dp2091
g50
VALG RyaNoob
p2092
sg52
Nssg53
(lp2093
I2758383128
asg41
VWeaponPickup
p2094
sg44
VPT3M33.2981126S
p2095
sa(dp2096
g41
VPlayerSpawn
p2097
sg48
(dp2098
g50
VALG RyaNoob
p2099
sg52
Nssg44
VPT3M33.2981126S
p2100
sa(dp2101
g47
I313138863
sg41
VWeaponDrop
p2102
sg189
I0
sg53
(lp2103
I1095363701
asg44
VPT3M36.2962244S
p2104
sg192
I0
sg193
VP0DT0H0M3.3667S
p2105
sg48
(dp2106
g50
VTL Spartan HCS
p2107
sg52
Nssa(dp2108
g47
I723388907
sg48
(dp2109
g50
VTL Spartan HCS
p2110
sg52
Nssg53
(lp2111
I89283061
asg41
VWeaponPickup
p2112
sg44
VPT3M36.2962244S
p2113
sa(dp2114
g204
I4096745987
sg205
I00
sg206
I00
sg207
(dp2115
g50
VTL StelluR
p2116
sg52
Nssg210
(lp2117
I2758383128
asg212
I00
sg213
I01
sg214
I1
sg215
I0
sg216
I1
sg217
(dp2118
Vy
F14.3162327
sVx
F11.5685568
sVz
F1.68108726
ssg219
(dp2119
Vy
F9.0166509999999995
sVx
F6.4613310000000004
sVz
F0.23482910000000001
ssg221
I00
sg222
(dp2120
g50
VALG ContrA HCS
p2121
sg52
Nssg225
(lp2122
sg227
(lp2123
(dp2124
g50
VTL Danoxide
p2125
sg52
Nsasg231
I01
sg44
VPT3M37.0802361S
p2126
sg41
VDeath
p2127
sg234
I1
sa(dp2128
g41
VImpulse
p2129
sg48
(dp2130
g50
VTL StelluR
p2131
sg52
Nssg239
I2556889090
sg44
VPT3M37.0812588S
p2132
sa(dp2133
g41
VMedal
p2134
sg48
(dp2135
g50
VTL StelluR
p2136
sg52
Nssg245
I2838259753
sg44
VPT3M37.0812588S
p2137
sa(dp2138
g41
VMedal
p2139
sg48
(dp2140
g50
VTL Eco HCS
p2141
sg52
Nssg245
I824733727
sg44
VPT3M37.0822608S
p2142
sa(dp2143
g41
VMedal
p2144
sg48
(dp2145
g50
VTL StelluR
p2146
sg52
Nssg245
I3261908037
sg44
VPT3M37.0822608S
p2147
sa(dp2148
g47
I313138863
sg41
VWeaponDrop
p2149
sg189
I0
sg53
(lp2150
I1095363701
asg44
VPT3M37.0832596S
p2151
sg192
I0
sg193
VP0DT0H0M0.3167S
p2152
sg48
(dp2153
g50
VALG ContrA HCS
p2154
sg52
Nssa(dp2155
g47
I4096745987
sg41
VWeaponDrop
p2156
sg189
I7
sg53
(lp2157
I2758383128
asg44
VPT3M37.0832596S
p2158
sg192
I3
sg193
VP0DT0H0M14.7167S
p2159
sg48
(dp2160
g50
VALG ContrA HCS
p2161
sg52
Nssa(dp2162
g204
I669296699
sg205
I00
sg206
I00
sg207
(dp2163
g50
VALGPredevonator
p2164
sg52
Nssg210
(lp2165
I2758383128
asg212
I00
sg213
I01
sg214
I1
sg215
I0
sg216
I1
sg217
(dp2166
Vy
F2.7348919999999999
sVx
F13.4929972
sVz
F1.6363488399999999
ssg219
(dp2167
Vy
F14.1830854
sVx
F11.627124800000001
sVz
F1.1937842400000001
ssg221
I00
sg222
(dp2168
g50
VTL StelluR
p2169
sg52
Nssg225
(lp2170
sg227
(lp2171
(dp2172
g50
VALG Heinz HCS
p2173
sg52
Nsasg231
I01
sg44
VPT3M37.2142414S
p2174
sg41
VDeath
p2175
sg234
I1
sa(dp2176
g41
VMedal
p2177
sg48
(dp2178
g50
VALGPredevonator
p2179
sg52
Nssg245
I848240062
sg44
VPT3M37.2152649S
p2180
sa(dp2181
g47
I313138863
sg41
VWeaponDrop
p2182
sg189
I43
sg53
(lp2183
I1095363701
asg44
VPT3M37.2152649S
p2184
sg192
I13
sg193
VP0DT0H0M20.8000S
p2185
sg48
(dp2186
g50
VTL StelluR
p2187
sg52
Nssa(dp2188
g47
I4096745987
sg41
VWeaponDrop
p2189
sg189
I19
sg53
(lp2190
I2758383128
asg44
VPT3M37.2152649S
p2191
sg192
I8
sg193
VP0DT0H0M38.8833S
p2192
sg48
(dp2193
g50
VTL StelluR
p2194
sg52
Nssa(dp2195
g47
I313138863
sg48
(dp2196
g50
VALG ContrA HCS
p2197
sg52
Nssg53
(lp2198
I1095363701
asg41
VWeaponPickup
p2199
sg44
VPT3M45.0975428S
p2200
sa(dp2201
g47
I4096745987
sg48
(dp2202
g50
VALG ContrA HCS
p2203
sg52
Nssg53
(lp2204
I2758383128
asg41
VWeaponPickup
p2205
sg44
VPT3M45.0985508S
p2206
sa(dp2207
g41
VPlayerSpawn
p2208
sg48
(dp2209
g50
VALG ContrA HCS
p2210
sg52
Nssg44
VPT3M45.0985508S
p2211
sa(dp2212
g47
I313138863
sg48
(dp2213
g50
VTL StelluR
p2214
sg52
Nssg53
(lp2215
I1095363701
asg41
VWeaponPickup
p2216
sg44
VPT3M45.2305469S
p2217
sa(dp2218
g47
I4096745987
sg48
(dp2219
g50
VTL StelluR
p2220
sg52
Nssg53
(lp2221
I2758383128
asg41
VWeaponPickup
p2222
sg44
VPT3M45.2315515S
p2223
sa(dp2224
g41
VPlayerSpawn
p2225
sg48
(dp2226
g50
VTL StelluR
p2227
sg52
Nssg44
VPT3M45.2315515S
p2228
sa(dp2229
g204
I669296699
sg205
I00
sg206
I00
sg207
(dp2230
g50
VALGPredevonator
p2231
sg52
Nssg210
(lp2232
I2758383128
asg212
I00
sg213
I01
sg214
I1
sg215
I0
sg216
I1
sg217
(dp2233
Vy
F-5.6229367300000002
sVx
F14.5135326
sVz
F1.61465645
ssg219
(dp2234
Vy
F-8.3119545000000006
sVx
F13.391693099999999
sVz
F1.2297223799999999
ssg221
I00
sg222
(dp2235
g50
VTL Spartan HCS
p2236
sg52
Nssg225
(lp2237
sg227
(lp2238
sg231
I00
sg44
VPT3M48.9966938S
p2239
sg41
VDeath
p2240
sg234
I1
sa(dp2241
g41
VMedal
p2242
sg48
(dp2243
g50
VALGPredevonator
p2244
sg52
Nssg245
I1986137636
sg44
VPT3M48.9976937S
p2245
sa(dp2246
g47
I723388907
sg41
VWeaponDrop
p2247
sg189
I22
sg53
(lp2248
I89283061
asg44
VPT3M48.9987132S
p2249
sg192
I13
sg193
VP0DT0H0M9.2333S
p2250
sg48
(dp2251
g50
VTL Spartan HCS
p2252
sg52
Nssa(dp2253
g47
I4096745987
sg41
VWeaponDrop
p2254
sg189
I0
sg53
(lp2255
I2758383128
asg44
VPT3M48.9997108S
p2256
sg192
I0
sg193
VP0DT0H0M4.9333S
p2257
sg48
(dp2258
g50
VTL Spartan HCS
p2259
sg52
Nssa(dp2260
g47
I313138863
sg41
VWeaponDrop
p2261
sg189
I0
sg53
(lp2262
I1095363701
asg44
VPT3M49.045697S
p2263
sg192
I0
sg193
VP0DT0H0M1.2000S
p2264
sg48
(dp2265
g50
VTL StelluR
p2266
sg52
Nssa(dp2267
g47
I424645655
sg48
(dp2268
g50
VTL StelluR
p2269
sg52
Nssg53
(lp2270
I1327094800
asg41
VWeaponPickup
p2271
sg44
VPT3M49.045697S
p2272
sa(dp2273
g204
I4096745987
sg205
I00
sg206
I00
sg207
(dp2274
g50
VALG ContrA HCS
p2275
sg52
Nssg210
(lp2276
I2758383128
asg212
I00
sg213
I01
sg214
I1
sg215
I0
sg216
I1
sg217
(dp2277
Vy
F-0.70118910000000001
sVx
F-5.9975620000000003
sVz
F2.4184190000000001
ssg219
(dp2278
Vy
F4.1836650000000004
sVx
F6.3166710000000004
sVz
F2.4512740000000002
ssg221
I00
sg222
(dp2279
g50
VTL Eco HCS
p2280
sg52
Nssg225
(lp2281
sg227
(lp2282
sg231
I01
sg44
VPT3M52.9468452S
p2283
sg41
VDeath
p2284
sg234
I1
sa(dp2285
g41
VMedal
p2286
sg48
(dp2287
g50
VALG RyaNoob
p2288
sg52
Nssg245
I824733727
sg44
VPT3M52.9488645S
p2289
sa(dp2290
g41
VMedal
p2291
sg48
(dp2292
g50
VALG ContrA HCS
p2293
sg52
Nssg245
I3261908037
sg44
VPT3M52.9498696S
p2294
sa(dp2295
g47
I3808094875
sg41
VWeaponDrop
p2296
sg189
I40
sg53
(lp2297
I2758383128
asg44
VPT3M52.9498696S
p2298
sg192
I10
sg193
VP0DT0H0M25.4333S
p2299
sg48
(dp2300
g50
VTL Eco HCS
p2301
sg52
Nssa(dp2302
g47
I4108759423
sg41
VWeaponDrop
p2303
sg189
I7
sg53
(lp2304
I2758383128
asg44
VPT3M52.9498696S
p2305
sg192
I2
sg193
VP0DT0H0M20.5167S
p2306
sg48
(dp2307
g50
VTL Eco HCS
p2308
sg52
Nssa(dp2309
g41
VMedal
p2310
sg48
(dp2311
g50
VALGPredevonator
p2312
sg52
Nssg245
I3400287617
sg44
VPT3M52.9798449S
p2313
sa(dp2314
g204
I4096745987
sg205
I00
sg206
I00
sg207
(dp2315
g50
VALG RyaNoob
p2316
sg52
Nssg210
(lp2317
I2758383128
asg212
I00
sg213
I01
sg214
I1
sg215
I0
sg216
I1
sg217
(dp2318
Vy
F0.1322159
sVx
F12.200122800000001
sVz
F3.1162169999999998
ssg219
(dp2319
Vy
F0.40503522800000002
sVx
F-4.9595840000000004
sVz
F2.43150377
ssg221
I00
sg222
(dp2320
g50
VTL StelluR
p2321
sg52
Nssg225
(lp2322
sg227
(lp2323
(dp2324
g50
VALG ContrA HCS
p2325
sg52
Nsasg231
I01
sg44
VPT3M54.1338897S
p2326
sg41
VDeath
p2327
sg234
I1
sa(dp2328
g41
VImpulse
p2329
sg48
(dp2330
g50
VALG RyaNoob
p2331
sg52
Nssg239
I2556889090
sg44
VPT3M54.1338897S
p2332
sa(dp2333
g41
VMedal
p2334
sg48
(dp2335
g50
VALG RyaNoob
p2336
sg52
Nssg245
I352859864
sg44
VPT3M54.1338897S
p2337
sa(dp2338
g41
VMedal
p2339
sg48
(dp2340
g50
VALG RyaNoob
p2341
sg52
Nssg245
I3261908037
sg44
VPT3M54.1349087S
p2342
sa(dp2343
g47
I424645655
sg41
VWeaponDrop
p2344
sg189
I1
sg53
(lp2345
I1327094800
asg44
VPT3M54.1359291S
p2346
sg192
I1
sg193
VP0DT0H0M5.0833S
p2347
sg48
(dp2348
g50
VTL StelluR
p2349
sg52
Nssa(dp2350
g47
I424645655
sg41
VWeaponDrop
p2351
sg189
I0
sg53
(lp2352
I1327094800
asg44
VPT3M54.1359291S
p2353
sg192
I0
sg193
VP0DT0S
p2354
sg48
(dp2355
g50
VTL StelluR
p2356
sg52
Nssa(dp2357
g47
I4096745987
sg41
VWeaponDrop
p2358
sg189
I0
sg53
(lp2359
I2758383128
asg44
VPT3M54.1359291S
p2360
sg192
I0
sg193
VP0DT0H0M2.6167S
p2361
sg48
(dp2362
g50
VTL StelluR
p2363
sg52
Nssa(dp2364
g47
I313138863
sg48
(dp2365
g50
VTL Spartan HCS
p2366
sg52
Nssg53
(lp2367
I1095363701
asg41
VWeaponPickup
p2368
sg44
VPT3M57.0140015S
p2369
sa(dp2370
g47
I4096745987
sg48
(dp2371
g50
VTL Spartan HCS
p2372
sg52
Nssg53
(lp2373
I2758383128
asg41
VWeaponPickup
p2374
sg44
VPT3M57.0140015S
p2375
sa(dp2376
g41
VPlayerSpawn
p2377
sg48
(dp2378
g50
VTL Spartan HCS
p2379
sg52
Nssg44
VPT3M57.0140015S
p2380
sa(dp2381
g47
I4096745987
sg41
VWeaponDrop
p2382
sg189
I6
sg53
(lp2383
I2758383128
asg44
VPT3M57.1630063S
p2384
sg192
I4
sg193
VP0DT0H0M20.5167S
p2385
sg48
(dp2386
g50
VALG RyaNoob
p2387
sg52
Nssa(dp2388
g47
I523953283
sg48
(dp2389
g50
VALG RyaNoob
p2390
sg52
Nssg53
(lp2391
I2208825748
asg41
VWeaponPickup
p2392
sg44
VPT3M57.1630063S
p2393
sa(dp2394
g47
I313138863
sg48
(dp2395
g50
VTL Eco HCS
p2396
sg52
Nssg53
(lp2397
I1095363701
asg41
VWeaponPickup
p2398
sg44
VPT4M0.9641519S
p2399
sa(dp2400
g47
I4096745987
sg48
(dp2401
g50
VTL Eco HCS
p2402
sg52
Nssg53
(lp2403
I2758383128
asg41
VWeaponPickup
p2404
sg44
VPT4M0.9651733S
p2405
sa(dp2406
g41
VPlayerSpawn
p2407
sg48
(dp2408
g50
VTL Eco HCS
p2409
sg52
Nssg44
VPT4M0.9651733S
p2410
sa(dp2411
g47
I313138863
sg48
(dp2412
g50
VTL StelluR
p2413
sg52
Nssg53
(lp2414
I1095363701
asg41
VWeaponPickup
p2415
sg44
VPT4M2.1471987S
p2416
sa(dp2417
g47
I4096745987
sg48
(dp2418
g50
VTL StelluR
p2419
sg52
Nssg53
(lp2420
I2758383128
asg41
VWeaponPickup
p2421
sg44
VPT4M2.1482213S
p2422
sa(dp2423
g41
VPlayerSpawn
p2424
sg48
(dp2425
g50
VTL StelluR
p2426
sg52
Nssg44
VPT4M2.1482213S
p2427
sa(dp2428
g204
I669296699
sg205
I00
sg206
I00
sg207
(dp2429
g50
VALGPredevonator
p2430
sg52
Nssg210
(lp2431
I2758383128
asg212
I00
sg213
I01
sg214
I1
sg215
I0
sg216
I1
sg217
(dp2432
Vy
F-8.5812950000000008
sVx
F11.112841599999999
sVz
F2.3540800000000002
ssg219
(dp2433
Vy
F1.7624719099999999
sVx
F-2.1483478499999999
sVz
F0.86166846799999997
ssg221
I00
sg222
(dp2434
g50
VTL Danoxide
p2435
sg52
Nssg225
(lp2436
sg227
(lp2437
(dp2438
g50
VALG ContrA HCS
p2439
sg52
Nsa(dp2440
g50
VALG Heinz HCS
p2441
sg52
Nsasg231
I01
sg44
VPT4M4.6802951S
p2442
sg41
VDeath
p2443
sg234
I1
sa(dp2444
g41
VMedal
p2445
sg48
(dp2446
g50
VALGPredevonator
p2447
sg52
Nssg245
I848240062
sg44
VPT4M4.6823221S
p2448
sa(dp2449
g47
I313138863
sg41
VWeaponDrop
p2450
sg189
I0
sg53
(lp2451
I1095363701
asg44
VPT4M4.6823221S
p2452
sg192
I0
sg193
VP0DT0H0M2.2833S
p2453
sg48
(dp2454
g50
VTL Danoxide
p2455
sg52
Nssa(dp2456
g47
I4096745987
sg41
VWeaponDrop
p2457
sg189
I15
sg53
(lp2458
I2758383128
asg44
VPT4M4.6823221S
p2459
sg192
I8
sg193
VP0DT0H0M34.8167S
p2460
sg48
(dp2461
g50
VTL Danoxide
p2462
sg52
Nssa(dp2463
g47
I313138863
sg41
VWeaponDrop
p2464
sg189
I0
sg53
(lp2465
I1095363701
asg44
VPT4M6.4293867S
p2466
sg192
I0
sg193
VP0DT0H0M1.1500S
p2467
sg48
(dp2468
g50
VALG Heinz HCS
p2469
sg52
Nssa(dp2470
g47
I4108759423
sg48
(dp2471
g50
VALG Heinz HCS
p2472
sg52
Nssg53
(lp2473
I2758383128
asg41
VWeaponPickup
p2474
sg44
VPT4M6.4293867S
p2475
sa(dp2476
g204
I313138863
sg205
I00
sg206
I00
sg207
(dp2477
g50
VTL Eco HCS
p2478
sg52
Nssg210
(lp2479
I1095363701
asg212
I00
sg213
I01
sg214
I1
sg215
I0
sg216
I1
sg217
(dp2480
Vy
F7.51286364
sVx
F-3.4049522900000002
sVz
F0.93151070000000002
ssg219
(dp2481
Vy
F8.8460339999999995
sVx
F-0.81741726400000003
sVz
F-0.69790010000000002
ssg221
I00
sg222
(dp2482
g50
VALG ContrA HCS
p2483
sg52
Nssg225
(lp2484
sg227
(lp2485
(dp2486
g50
VTL Spartan HCS
p2487
sg52
Nsasg231
I00
sg44
VPT4M8.1304261S
p2488
sg41
VDeath
p2489
sg234
I1
sa(dp2490
g47
I313138863
sg41
VWeaponDrop
p2491
sg189
I15
sg53
(lp2492
I1095363701
asg44
VPT4M8.1334528S
p2493
sg192
I4
sg193
VP0DT0H0M5.7167S
p2494
sg48
(dp2495
g50
VALG ContrA HCS
p2496
sg52
Nssa(dp2497
g47
I4096745987
sg41
VWeaponDrop
p2498
sg189
I11
sg53
(lp2499
I2758383128
asg44
VPT4M8.1334528S
p2500
sg192
I5
sg193
VP0DT0H0M17.3167S
p2501
sg48
(dp2502
g50
VALG ContrA HCS
p2503
sg52
Nssa(dp2504
g47
I4096745987
sg41
VWeaponDrop
p2505
sg189
I0
sg53
(lp2506
I2758383128
asg44
VPT4M8.1334528S
p2507
sg192
I0
sg193
VP0DT0S
p2508
sg48
(dp2509
g50
VALG ContrA HCS
p2510
sg52
Nssa(dp2511
g47
I313138863
sg41
VWeaponDrop
p2512
sg189
I11
sg53
(lp2513
I1095363701
asg44
VPT4M9.5954846S
p2514
sg192
I1
sg193
VP0DT0H0M10.2000S
p2515
sg48
(dp2516
g50
VALG RyaNoob
p2517
sg52
Nssa(dp2518
g47
I3808094875
sg48
(dp2519
g50
VALG RyaNoob
p2520
sg52
Nssg53
(lp2521
I2758383128
asg41
VWeaponPickup
p2522
sg44
VPT4M9.5964832S
p2523
sa(dp2524
g47
I313138863
sg48
(dp2525
g50
VTL Danoxide
p2526
sg52
Nssg53
(lp2527
I1095363701
asg41
VWeaponPickup
p2528
sg44
VPT4M12.698603S
p2529
sa(dp2530
g47
I4096745987
sg48
(dp2531
g50
VTL Danoxide
p2532
sg52
Nssg53
(lp2533
I2758383128
asg41
VWeaponPickup
p2534
sg44
VPT4M12.6996042S
p2535
sa(dp2536
g41
VPlayerSpawn
p2537
sg48
(dp2538
g50
VTL Danoxide
p2539
sg52
Nssg44
VPT4M12.6996042S
p2540
sa(dp2541
g204
I523953283
sg205
I00
sg206
I00
sg207
(dp2542
g50
VALG RyaNoob
p2543
sg52
Nssg210
(lp2544
I2208825748
asg212
I00
sg213
I01
sg214
I1
sg215
I0
sg216
I1
sg217
(dp2545
Vy
F11.631297099999999
sVx
F4.5635199999999996
sVz
F2.3160812900000001
ssg219
(dp2546
Vy
F6.5008497199999997
sVx
F-2.9513669999999999
sVz
F0.82042369999999998
ssg221
I00
sg222
(dp2547
g50
VTL Eco HCS
p2548
sg52
Nssg225
(lp2549
sg227
(lp2550
(dp2551
g50
VALG Heinz HCS
p2552
sg52
Nsasg231
I01
sg44
VPT4M14.4966729S
p2553
sg41
VDeath
p2554
sg234
I1
sa(dp2555
g41
VImpulse
p2556
sg48
(dp2557
g50
VALG RyaNoob
p2558
sg52
Nssg239
I2556889090
sg44
VPT4M14.4976724S
p2559
sa(dp2560
g41
VMedal
p2561
sg48
(dp2562
g50
VALG RyaNoob
p2563
sg52
Nssg245
I2838259753
sg44
VPT4M14.4976724S
p2564
sa(dp2565
g41
VMedal
p2566
sg48
(dp2567
g50
VALG RyaNoob
p2568
sg52
Nssg245
I3261908037
sg44
VPT4M14.4986975S
p2569
sa(dp2570
g47
I313138863
sg41
VWeaponDrop
p2571
sg189
I13
sg53
(lp2572
I1095363701
asg44
VPT4M14.4986975S
p2573
sg192
I4
sg193
VP0DT0H0M7.3167S
p2574
sg48
(dp2575
g50
VTL Eco HCS
p2576
sg52
Nssa(dp2577
g47
I313138863
sg41
VWeaponDrop
p2578
sg189
I0
sg53
(lp2579
I1095363701
asg44
VPT4M14.4986975S
p2580
sg192
I0
sg193
VP0DT0S
p2581
sg48
(dp2582
g50
VTL Eco HCS
p2583
sg52
Nssa(dp2584
g47
I4096745987
sg41
VWeaponDrop
p2585
sg189
I0
sg53
(lp2586
I2758383128
asg44
VPT4M14.4986975S
p2587
sg192
I0
sg193
VP0DT0H0M6.2167S
p2588
sg48
(dp2589
g50
VTL Eco HCS
p2590
sg52
Nssa(dp2591
g204
I3168248199
sg205
I00
sg206
I00
sg207
(dp2592
g50
VTL Spartan HCS
p2593
sg52
Nssg210
(lp2594
sg212
I01
sg213
I00
sg214
I1
sg215
I0
sg216
I1
sg217
(dp2595
Vy
F11.649208099999999
sVx
F4.7810220000000001
sVz
F2.3019919999999998
ssg219
(dp2596
Vy
F11.8358679
sVx
F5.3841886499999996
sVz
F2.53103042
ssg221
I00
sg222
(dp2597
g50
VALG RyaNoob
p2598
sg52
Nssg225
(lp2599
sg227
(lp2600
sg231
I00
sg44
VPT4M15.0966985S
p2601
sg41
VDeath
p2602
sg234
I1
sa(dp2603
g41
VMedal
p2604
sg48
(dp2605
g50
VTL Spartan HCS
p2606
sg52
Nssg245
I492192256
sg44
VPT4M15.0977181S
p2607
sa(dp2608
g47
I523953283
sg41
VWeaponDrop
p2609
sg189
I1
sg53
(lp2610
I2208825748
asg44
VPT4M15.0987154S
p2611
sg192
I1
sg193
VP0DT0H0M10.4167S
p2612
sg48
(dp2613
g50
VALG RyaNoob
p2614
sg52
Nssa(dp2615
g47
I3808094875
sg41
VWeaponDrop
p2616
sg189
I0
sg53
(lp2617
I2758383128
asg44
VPT4M15.0987154S
p2618
sg192
I0
sg193
VP0DT0H0M0.6667S
p2619
sg48
(dp2620
g50
VALG RyaNoob
p2621
sg52
Nssa(dp2622
g47
I313138863
sg48
(dp2623
g50
VALG ContrA HCS
p2624
sg52
Nssg53
(lp2625
I1095363701
asg41
VWeaponPickup
p2626
sg44
VPT4M16.1477878S
p2627
sa(dp2628
g47
I4096745987
sg48
(dp2629
g50
VALG ContrA HCS
p2630
sg52
Nssg53
(lp2631
I2758383128
asg41
VWeaponPickup
p2632
sg44
VPT4M16.1477878S
p2633
sa(dp2634
g41
VPlayerSpawn
p2635
sg48
(dp2636
g50
VALG ContrA HCS
p2637
sg52
Nssg44
VPT4M16.1477878S
p2638
sa(dp2639
g204
I4106030681
sg205
I00
sg206
I00
sg207
(dp2640
g50
VTL Danoxide
p2641
sg52
Nssg210
(lp2642
sg212
I00
sg213
I01
sg214
I1
sg215
I0
sg216
I1
sg217
(dp2643
Vy
F-1.2578744900000001
sVx
F-13.0018034
sVz
F1.61771858
ssg219
(dp2644
Vy
F2.2298405200000002
sVx
F12.9798183
sVz
F1.61465657
ssg221
I00
sg222
(dp2645
g50
VALG Heinz HCS
p2646
sg52
Nssg225
(lp2647
sg227
(lp2648
(dp2649
g50
VTL StelluR
p2650
sg52
Nsa(dp2651
g50
VTL Eco HCS
p2652
sg52
Nsasg231
I00
sg44
VPT4M16.6967672S
p2653
sg41
VDeath
p2654
sg234
I1
sa(dp2655
g41
VMedal
p2656
sg48
(dp2657
g50
VTL Danoxide
p2658
sg52
Nssg245
I3491849182
sg44
VPT4M16.6987641S
p2659
sa(dp2660
g47
I4108759423
sg41
VWeaponDrop
p2661
sg189
I12
sg53
(lp2662
I2758383128
asg44
VPT4M16.7007586S
p2663
sg192
I2
sg193
VP0DT0H0M7.6167S
p2664
sg48
(dp2665
g50
VALG Heinz HCS
p2666
sg52
Nssa(dp2667
g47
I4096745987
sg41
VWeaponDrop
p2668
sg189
I17
sg53
(lp2669
I2758383128
asg44
VPT4M16.7007586S
p2670
sg192
I10
sg193
VP0DT0H0M39.6000S
p2671
sg48
(dp2672
g50
VALG Heinz HCS
p2673
sg52
Nssa(dp2674
g47
I4096745987
sg41
VWeaponDrop
p2675
sg189
I2
sg53
(lp2676
I2758383128
asg44
VPT4M19.4958892S
p2677
sg192
I1
sg193
VP0DT0H0M14.0500S
p2678
sg48
(dp2679
g50
VTL Spartan HCS
p2680
sg52
Nssa(dp2681
g47
I523953283
sg48
(dp2682
g50
VTL Spartan HCS
p2683
sg52
Nssg53
(lp2684
I2208825748
asg41
VWeaponPickup
p2685
sg44
VPT4M19.4958892S
p2686
sa(dp2687
g204
I4096745987
sg205
I00
sg206
I00
sg207
(dp2688
g50
VALG ContrA HCS
p2689
sg52
Nssg210
(lp2690
I2758383128
asg212
I00
sg213
I01
sg214
I1
sg215
I0
sg216
I1
sg217
(dp2691
Vy
F12.2590036
sVx
F14.7306528
sVz
F1.04471684
ssg219
(dp2692
Vy
F11.683495499999999
sVx
F6.2078023
sVz
F1.9549541500000001
ssg221
I00
sg222
(dp2693
g50
VTL Spartan HCS
p2694
sg52
Nssg225
(lp2695
sg227
(lp2696
sg231
I01
sg44
VPT4M21.4139372S
p2697
sg41
VDeath
p2698
sg234
I1
sa(dp2699
g41
VMedal
p2700
sg48
(dp2701
g50
VALG ContrA HCS
p2702
sg52
Nssg245
I3261908037
sg44
VPT4M21.4169639S
p2703
sa(dp2704
g47
I313138863
sg41
VWeaponDrop
p2705
sg189
I0
sg53
(lp2706
I1095363701
asg44
VPT4M21.41794S
p2707
sg192
I0
sg193
VP0DT0H0M8.4333S
p2708
sg48
(dp2709
g50
VTL Spartan HCS
p2710
sg52
Nssa(dp2711
g47
I523953283
sg41
VWeaponDrop
p2712
sg189
I4
sg53
(lp2713
I2208825748
asg44
VPT4M21.41794S
p2714
sg192
I3
sg193
VP0DT0H0M1.9167S
p2715
sg48
(dp2716
g50
VTL Spartan HCS
p2717
sg52
Nssa(dp2718
g47
I313138863
sg41
VWeaponDrop
p2719
sg189
I0
sg53
(lp2720
I1095363701
asg44
VPT4M21.4289635S
p2721
sg192
I0
sg193
VP0DT0H0M1.4500S
p2722
sg48
(dp2723
g50
VTL StelluR
p2724
sg52
Nssa(dp2725
g47
I723523180
sg48
(dp2726
g50
VTL StelluR
p2727
sg52
Nssg53
(lp2728
I2758383128
asg41
VWeaponPickupPad
p2729
sg44
VPT4M21.4289635S
p2730
sa(dp2731
g47
I723523180
sg48
(dp2732
g50
VTL StelluR
p2733
sg52
Nssg53
(lp2734
I2758383128
asg41
VWeaponPickup
p2735
sg44
VPT4M21.4299748S
p2736
sa(dp2737
g47
I313138863
sg48
(dp2738
g50
VTL Eco HCS
p2739
sg52
Nssg53
(lp2740
I1095363701
asg41
VWeaponPickup
p2741
sg44
VPT4M22.5139804S
p2742
sa(dp2743
g47
I4096745987
sg48
(dp2744
g50
VTL Eco HCS
p2745
sg52
Nssg53
(lp2746
I2758383128
asg41
VWeaponPickup
p2747
sg44
VPT4M22.5150052S
p2748
sa(dp2749
g41
VPlayerSpawn
p2750
sg48
(dp2751
g50
VTL Eco HCS
p2752
sg52
Nssg44
VPT4M22.5150052S
p2753
sa(dp2754
g47
I313138863
sg48
(dp2755
g50
VALG RyaNoob
p2756
sg52
Nssg53
(lp2757
I1095363701
asg41
VWeaponPickup
p2758
sg44
VPT4M23.1140157S
p2759
sa(dp2760
g47
I4096745987
sg48
(dp2761
g50
VALG RyaNoob
p2762
sg52
Nssg53
(lp2763
I2758383128
asg41
VWeaponPickup
p2764
sg44
VPT4M23.115025S
p2765
sa(dp2766
g41
VPlayerSpawn
p2767
sg48
(dp2768
g50
VALG RyaNoob
p2769
sg52
Nssg44
VPT4M23.115025S
p2770
sa(dp2771
g47
I4096745987
sg41
VWeaponDrop
p2772
sg189
I0
sg53
(lp2773
I2758383128
asg44
VPT4M23.8960553S
p2774
sg192
I0
sg193
VP0DT0H0M10.8167S
p2775
sg48
(dp2776
g50
VTL Danoxide
p2777
sg52
Nssa(dp2778
g47
I4108759423
sg48
(dp2779
g50
VTL Danoxide
p2780
sg52
Nssg53
(lp2781
I2758383128
asg41
VWeaponPickup
p2782
sg44
VPT4M23.8960553S
p2783
sa(dp2784
g47
I313138863
sg48
(dp2785
g50
VALG Heinz HCS
p2786
sg52
Nssg53
(lp2787
I1095363701
asg41
VWeaponPickup
p2788
sg44
VPT4M24.7141027S
p2789
sa(dp2790
g47
I4096745987
sg48
(dp2791
g50
VALG Heinz HCS
p2792
sg52
Nssg53
(lp2793
I2758383128
asg41
VWeaponPickup
p2794
sg44
VPT4M24.7141027S
p2795
sa(dp2796
g41
VPlayerSpawn
p2797
sg48
(dp2798
g50
VALG Heinz HCS
p2799
sg52
Nssg44
VPT4M24.7141027S
p2800
sa(dp2801
g47
I4108759423
sg41
VWeaponDrop
p2802
sg189
I0
sg53
(lp2803
I2758383128
asg44
VPT4M25.3961086S
p2804
sg192
I0
sg193
VP0DT0H0M1.5000S
p2805
sg48
(dp2806
g50
VTL Danoxide
p2807
sg52
Nssa(dp2808
g47
I4096745987
sg48
(dp2809
g50
VTL Danoxide
p2810
sg52
Nssg53
(lp2811
I2758383128
asg41
VWeaponPickup
p2812
sg44
VPT4M25.3961086S
p2813
sa(dp2814
g47
I4096745987
sg41
VWeaponDrop
p2815
sg189
I0
sg53
(lp2816
I2758383128
asg44
VPT4M25.646137S
p2817
sg192
I0
sg193
VP0DT0H0M1.8500S
p2818
sg48
(dp2819
g50
VALG RyaNoob
p2820
sg52
Nssa(dp2821
g47
I4108759423
sg48
(dp2822
g50
VALG RyaNoob
p2823
sg52
Nssg53
(lp2824
I2758383128
asg41
VWeaponPickup
p2825
sg44
VPT4M25.646137S
p2826
sa(dp2827
g47
I4096745987
sg41
VWeaponDrop
p2828
sg189
I0
sg53
(lp2829
I2758383128
asg44
VPT4M26.362147S
p2830
sg192
I0
sg193
VP0DT0H0M0.9667S
p2831
sg48
(dp2832
g50
VTL Danoxide
p2833
sg52
Nssa(dp2834
g47
I4108759423
sg48
(dp2835
g50
VTL Danoxide
p2836
sg52
Nssg53
(lp2837
I2758383128
asg41
VWeaponPickup
p2838
sg44
VPT4M26.3631278S
p2839
sa(dp2840
g47
I313138863
sg41
VWeaponDrop
p2841
sg189
I0
sg53
(lp2842
I1095363701
asg44
VPT4M28.2622238S
p2843
sg192
I0
sg193
VP0DT0H0M0.7500S
p2844
sg48
(dp2845
g50
VALG ContrA HCS
p2846
sg52
Nssa(dp2847
g47
I3808094875
sg48
(dp2848
g50
VALG ContrA HCS
p2849
sg52
Nssg53
(lp2850
I2758383128
asg41
VWeaponPickup
p2851
sg44
VPT4M28.2632015S
p2852
sa(dp2853
g47
I4096745987
sg41
VWeaponDrop
p2854
sg189
I0
sg53
(lp2855
I2758383128
asg44
VPT4M28.7462182S
p2856
sg192
I0
sg193
VP0DT0H0M3.6000S
p2857
sg48
(dp2858
g50
VALG Heinz HCS
p2859
sg52
Nssa(dp2860
g47
I523953283
sg48
(dp2861
g50
VALG Heinz HCS
p2862
sg52
Nssg53
(lp2863
I2208825748
asg41
VWeaponPickup
p2864
sg44
VPT4M28.7462182S
p2865
sa(dp2866
g47
I313138863
sg48
(dp2867
g50
VTL Spartan HCS
p2868
sg52
Nssg53
(lp2869
I1095363701
asg41
VWeaponPickup
p2870
sg44
VPT4M29.4302454S
p2871
sa(dp2872
g47
I4096745987
sg48
(dp2873
g50
VTL Spartan HCS
p2874
sg52
Nssg53
(lp2875
I2758383128
asg41
VWeaponPickup
p2876
sg44
VPT4M29.431264S
p2877
sa(dp2878
g41
VPlayerSpawn
p2879
sg48
(dp2880
g50
VTL Spartan HCS
p2881
sg52
Nssg44
VPT4M29.431264S
p2882
sa(dp2883
g47
I4096745987
sg41
VWeaponDrop
p2884
sg189
I1
sg53
(lp2885
I2758383128
asg44
VPT4M45.2128809S
p2886
sg192
I0
sg193
VP0DT0H0M13.4667S
p2887
sg48
(dp2888
g50
VTL Spartan HCS
p2889
sg52
Nssa(dp2890
g47
I424645655
sg48
(dp2891
g50
VTL Spartan HCS
p2892
sg52
Nssg53
(lp2893
I1327094800
asg41
VWeaponPickup
p2894
sg44
VPT4M45.2128809S
p2895
sa(dp2896
g204
I4096745987
sg205
I00
sg206
I00
sg207
(dp2897
g50
VTL Eco HCS
p2898
sg52
Nssg210
(lp2899
I2758383128
asg212
I00
sg213
I01
sg214
I1
sg215
I0
sg216
I1
sg217
(dp2900
Vy
F16.0960541
sVx
F-0.276258171
sVz
F5.1516989999999998
ssg219
(dp2901
Vy
F15.1341906
sVx
F8.7563069999999996
sVz
F2.22594213
ssg221
I00
sg222
(dp2902
g50
VALG ContrA HCS
p2903
sg52
Nssg225
(lp2904
sg227
(lp2905
(dp2906
g50
VTL Danoxide
p2907
sg52
Nsasg231
I01
sg44
VPT4M45.4968694S
p2908
sg41
VDeath
p2909
sg234
I1
sa(dp2910
g41
VMedal
p2911
sg48
(dp2912
g50
VTL Eco HCS
p2913
sg52
Nssg245
I3261908037
sg44
VPT4M45.4988634S
p2914
sa(dp2915
g47
I4096745987
sg41
VWeaponDrop
p2916
sg189
I8
sg53
(lp2917
I2758383128
asg44
VPT4M45.4988634S
p2918
sg192
I6
sg193
VP0DT0H0M28.2000S
p2919
sg48
(dp2920
g50
VALG ContrA HCS
p2921
sg52
Nssa(dp2922
g47
I3808094875
sg41
VWeaponDrop
p2923
sg189
I0
sg53
(lp2924
I2758383128
asg44
VPT4M45.5008632S
p2925
sg192
I0
sg193
VP0DT0H0M0.4000S
p2926
sg48
(dp2927
g50
VALG ContrA HCS
p2928
sg52
Nssa(dp2929
g204
I723523180
sg205
I00
sg206
I00
sg207
(dp2930
g50
VTL StelluR
p2931
sg52
Nssg210
(lp2932
I2758383128
asg212
I00
sg213
I01
sg214
I1
sg215
I0
sg216
I1
sg217
(dp2933
Vy
F11.2381849
sVx
F4.1079179999999997
sVz
F2.2876219999999998
ssg219
(dp2934
Vy
F14.028762800000001
sVx
F12.197843600000001
sVz
F1.18155766
ssg221
I00
sg222
(dp2935
g50
VALG RyaNoob
p2936
sg52
Nssg225
(lp2937
sg227
(lp2938
sg231
I00
sg44
VPT4M51.7801035S
p2939
sg41
VDeath
p2940
sg234
I1
sa(dp2941
g47
I313138863
sg41
VWeaponDrop
p2942
sg189
I0
sg53
(lp2943
I1095363701
asg44
VPT4M51.7821285S
p2944
sg192
I0
sg193
VP0DT0H0M0.6833S
p2945
sg48
(dp2946
g50
VALG RyaNoob
p2947
sg52
Nssa(dp2948
g47
I4108759423
sg41
VWeaponDrop
p2949
sg189
I14
sg53
(lp2950
I2758383128
asg44
VPT4M51.7821285S
p2951
sg192
I5
sg193
VP0DT0H0M26.1333S
p2952
sg48
(dp2953
g50
VALG RyaNoob
p2954
sg52
Nssa(dp2955
g47
I313138863
sg48
(dp2956
g50
VALG ContrA HCS
p2957
sg52
Nssg53
(lp2958
I1095363701
asg41
VWeaponPickup
p2959
sg44
VPT4M53.5151899S
p2960
sa(dp2961
g47
I4096745987
sg48
(dp2962
g50
VALG ContrA HCS
p2963
sg52
Nssg53
(lp2964
I2758383128
asg41
VWeaponPickup
p2965
sg44
VPT4M53.5151899S
p2966
sa(dp2967
g41
VPlayerSpawn
p2968
sg48
(dp2969
g50
VALG ContrA HCS
p2970
sg52
Nssg44
VPT4M53.5151899S
p2971
sa(dp2972
g204
I523953283
sg205
I00
sg206
I00
sg207
(dp2973
g50
VALG Heinz HCS
p2974
sg52
Nssg210
(lp2975
I2208825748
asg212
I00
sg213
I01
sg214
I1
sg215
I0
sg216
I1
sg217
(dp2976
Vy
F-0.76709824800000004
sVx
F9.8837840000000003
sVz
F3.2269322900000001
ssg219
(dp2977
Vy
F-0.52339369999999996
sVx
F5.9648513799999998
sVz
F2.615021
ssg221
I00
sg222
(dp2978
g50
VTL Spartan HCS
p2979
sg52
Nssg225
(lp2980
sg227
(lp2981
(dp2982
g50
VALG ContrA HCS
p2983
sg52
Nsasg231
I01
sg44
VPT4M56.6972922S
p2984
sg41
VDeath
p2985
sg234
I1
sa(dp2986
g41
VMedal
p2987
sg48
(dp2988
g50
VALG Heinz HCS
p2989
sg52
Nssg245
I3261908037
sg44
VPT4M56.6982975S
p2990
sa(dp2991
g47
I313138863
sg41
VWeaponDrop
p2992
sg189
I2
sg53
(lp2993
I1095363701
asg44
VPT4M56.6993184S
p2994
sg192
I0
sg193
VP0DT0H0M2.3167S
p2995
sg48
(dp2996
g50
VTL Spartan HCS
p2997
sg52
Nssa(dp2998
g47
I424645655
sg41
VWeaponDrop
p2999
sg189
I9
sg53
(lp3000
I1327094800
asg44
VPT4M56.6993184S
p3001
sg192
I9
sg193
VP0DT0H0M11.4833S
p3002
sg48
(dp3003
g50
VTL Spartan HCS
p3004
sg52
Nssa(dp3005
g47
I4096745987
sg41
VWeaponDrop
p3006
sg189
I12
sg53
(lp3007
I2758383128
asg44
VPT4M57.8623813S
p3008
sg192
I6
sg193
VP0DT0H0M25.0333S
p3009
sg48
(dp3010
g50
VTL StelluR
p3011
sg52
Nssa(dp3012
g47
I523953283
sg48
(dp3013
g50
VTL StelluR
p3014
sg52
Nssg53
(lp3015
I2208825748
asg41
VWeaponPickup
p3016
sg44
VPT4M57.8623813S
p3017
sa(dp3018
g47
I4096745987
sg41
VWeaponDrop
p3019
sg189
I4
sg53
(lp3020
I2758383128
asg44
VPT4M59.4454232S
p3021
sg192
I3
sg193
VP0DT0H0M5.1833S
p3022
sg48
(dp3023
g50
VALG ContrA HCS
p3024
sg52
Nssa(dp3025
g47
I523953283
sg48
(dp3026
g50
VALG ContrA HCS
p3027
sg52
Nssg53
(lp3028
I2208825748
asg41
VWeaponPickup
p3029
sg44
VPT4M59.4463985S
p3030
sa(dp3031
g47
I313138863
sg48
(dp3032
g50
VALG RyaNoob
p3033
sg52
Nssg53
(lp3034
I1095363701
asg41
VWeaponPickup
p3035
sg44
VPT4M59.7974298S
p3036
sa(dp3037
g47
I4096745987
sg48
(dp3038
g50
VALG RyaNoob
p3039
sg52
Nssg53
(lp3040
I2758383128
asg41
VWeaponPickup
p3041
sg44
VPT4M59.7974298S
p3042
sa(dp3043
g41
VPlayerSpawn
p3044
sg48
(dp3045
g50
VALG RyaNoob
p3046
sg52
Nssg44
VPT4M59.7974298S
p3047
sa(dp3048
g204
I523953283
sg205
I00
sg206
I00
sg207
(dp3049
g50
VTL StelluR
p3050
sg52
Nssg210
(lp3051
I2208825748
asg212
I00
sg213
I01
sg214
I1
sg215
I0
sg216
I1
sg217
(dp3052
Vy
F-1.1319477600000001
sVx
F9.1243239999999997
sVz
F2.4388269999999999
ssg219
(dp3053
Vy
F0.12026944000000001
sVx
F9.6760269999999995
sVz
F2.4183993300000002
ssg221
I00
sg222
(dp3054
g50
VALG Heinz HCS
p3055
sg52
Nssg225
(lp3056
sg227
(lp3057
(dp3058
g50
VTL Spartan HCS
p3059
sg52
Nsasg231
I00
sg44
VPT5M1.8634913S
p3060
sg41
VDeath
p3061
sg234
I1
sa(dp3062
g47
I313138863
sg41
VWeaponDrop
p3063
sg189
I0
sg53
(lp3064
I1095363701
asg44
VPT5M1.8665098S
p3065
sg192
I0
sg193
VP0DT0H0M0.4333S
p3066
sg48
(dp3067
g50
VALG Heinz HCS
p3068
sg52
Nssa(dp3069
g47
I523953283
sg41
VWeaponDrop
p3070
sg189
I14
sg53
(lp3071
I2208825748
asg44
VPT5M1.8665098S
p3072
sg192
I9
sg193
VP0DT0H0M33.1167S
p3073
sg48
(dp3074
g50
VALG Heinz HCS
p3075
sg52
Nssa(dp3076
g47
I4096745987
sg41
VWeaponDrop
p3077
sg189
I1
sg53
(lp3078
I2758383128
asg44
VPT5M3.6125799S
p3079
sg192
I0
sg193
VP0DT0H0M3.1333S
p3080
sg48
(dp3081
g50
VALG RyaNoob
p3082
sg52
Nssa(dp3083
g47
I4108759423
sg48
(dp3084
g50
VALG RyaNoob
p3085
sg52
Nssg53
(lp3086
I2758383128
asg41
VWeaponPickup
p3087
sg44
VPT5M3.6125799S
p3088
sa(dp3089
g204
I4096745987
sg205
I00
sg206
I00
sg207
(dp3090
g50
VALGPredevonator
p3091
sg52
Nssg210
(lp3092
I2758383128
asg212
I00
sg213
I01
sg214
I1
sg215
I0
sg216
I1
sg217
(dp3093
Vy
F-8.2096540000000005
sVx
F9.3471820000000001
sVz
F-0.39933252299999999
ssg219
(dp3094
Vy
F-9.0217220000000005
sVx
F6.5997779999999997
sVz
F2.74695563
ssg221
I00
sg222
(dp3095
g50
VTL Danoxide
p3096
sg52
Nssg225
(lp3097
sg227
(lp3098
sg231
I00
sg44
VPT5M3.8465676S
p3099
sg41
VDeath
p3100
sg234
I1
sa(dp3101
g41
VMedal
p3102
sg48
(dp3103
g50
VALGPredevonator
p3104
sg52
Nssg245
I2430242797
sg44
VPT5M3.8485905S
p3105
sa(dp3106
g47
I313138863
sg41
VWeaponDrop
p3107
sg189
I0
sg53
(lp3108
I1095363701
asg44
VPT5M3.8485905S
p3109
sg192
I0
sg193
VP0DT0H0M0.3833S
p3110
sg48
(dp3111
g50
VTL Danoxide
p3112
sg52
Nssa(dp3113
g47
I4108759423
sg41
VWeaponDrop
p3114
sg189
I51
sg53
(lp3115
I2758383128
asg44
VPT5M3.8485905S
p3116
sg192
I16
sg193
VP0DT0H0M37.4833S
p3117
sg48
(dp3118
g50
VTL Danoxide
p3119
sg52
Nssa(dp3120
g47
I313138863
sg48
(dp3121
g50
VTL Spartan HCS
p3122
sg52
Nssg53
(lp3123
I1095363701
asg41
VWeaponPickup
p3124
sg44
VPT5M4.7135995S
p3125
sa(dp3126
g47
I4096745987
sg48
(dp3127
g50
VTL Spartan HCS
p3128
sg52
Nssg53
(lp3129
I2758383128
asg41
VWeaponPickup
p3130
sg44
VPT5M4.7146382S
p3131
sa(dp3132
g41
VPlayerSpawn
p3133
sg48
(dp3134
g50
VTL Spartan HCS
p3135
sg52
Nssg44
VPT5M4.7146382S
p3136
sa(dp3137
g204
I669296699
sg205
I00
sg206
I00
sg207
(dp3138
g50
VALGPredevonator
p3139
sg52
Nssg210
(lp3140
I2758383128
asg212
I00
sg213
I01
sg214
I1
sg215
I0
sg216
I1
sg217
(dp3141
Vy
F-8.2206700000000001
sVx
F10.209671999999999
sVz
F-0.401696622
ssg219
(dp3142
Vy
F5.3476242999999997
sVx
F10.524937599999999
sVz
F0.20192992700000001
ssg221
I00
sg222
(dp3143
g50
VTL Spartan HCS
p3144
sg52
Nssg225
(lp3145
sg227
(lp3146
(dp3147
g50
VALG ContrA HCS
p3148
sg52
Nsasg231
I01
sg44
VPT5M8.0807303S
p3149
sg41
VDeath
p3150
sg234
I1
sa(dp3151
g41
VMedal
p3152
sg48
(dp3153
g50
VALGPredevonator
p3154
sg52
Nssg245
I466059351
sg44
VPT5M8.0817615S
p3155
sa(dp3156
g41
VMedal
p3157
sg48
(dp3158
g50
VALGPredevonator
p3159
sg52
Nssg245
I848240062
sg44
VPT5M8.0817615S
p3160
sa(dp3161
g41
VMedal
p3162
sg48
(dp3163
g50
VALGPredevonator
p3164
sg52
Nssg245
I2078758684
sg44
VPT5M8.0817615S
p3165
sa(dp3166
g47
I313138863
sg41
VWeaponDrop
p3167
sg189
I0
sg53
(lp3168
I1095363701
asg44
VPT5M8.082749S
p3169
sg192
I0
sg193
VP0DT0H0M0.9167S
p3170
sg48
(dp3171
g50
VTL Spartan HCS
p3172
sg52
Nssa(dp3173
g47
I4096745987
sg41
VWeaponDrop
p3174
sg189
I0
sg53
(lp3175
I2758383128
asg44
VPT5M8.082749S
p3176
sg192
I0
sg193
VP0DT0H0M2.4500S
p3177
sg48
(dp3178
g50
VTL Spartan HCS
p3179
sg52
Nssa(dp3180
g47
I313138863
sg48
(dp3181
g50
VALG Heinz HCS
p3182
sg52
Nssg53
(lp3183
I1095363701
asg41
VWeaponPickup
p3184
sg44
VPT5M9.8808233S
p3185
sa(dp3186
g47
I4096745987
sg48
(dp3187
g50
VALG Heinz HCS
p3188
sg52
Nssg53
(lp3189
I2758383128
asg41
VWeaponPickup
p3190
sg44
VPT5M9.8808233S
p3191
sa(dp3192
g41
VPlayerSpawn
p3193
sg48
(dp3194
g50
VALG Heinz HCS
p3195
sg52
Nssg44
VPT5M9.8808233S
p3196
sa(dp3197
g204
I523953283
sg205
I00
sg206
I01
sg207
(dp3198
g50
VTL StelluR
p3199
sg52
Nssg210
(lp3200
I2208825748
asg212
I00
sg213
I00
sg214
I1
sg215
I0
sg216
I1
sg217
(dp3201
Vy
F-7.8405750000000003
sVx
F12.965006799999999
sVz
F1.0164546999999999
ssg219
(dp3202
Vy
F-7.9904169999999999
sVx
F12.652253200000001
sVz
F0.73914139999999995
ssg221
I00
sg222
(dp3203
g50
VALGPredevonator
p3204
sg52
Nssg225
(lp3205
sg227
(lp3206
sg231
I00
sg44
VPT5M10.063806S
p3207
sg41
VDeath
p3208
sg234
I1
sa(dp3209
g41
VMedal
p3210
sg48
(dp3211
g50
VTL StelluR
p3212
sg52
Nssg245
I2287626681
sg44
VPT5M10.0648322S
p3213
sa(dp3214
g47
I669296699
sg41
VWeaponDrop
p3215
sg189
I11
sg53
(lp3216
I2758383128
asg44
VPT5M10.065826S
p3217
sg192
I9
sg193
VP0DT0H1M30.4000S
p3218
sg48
(dp3219
g50
VALGPredevonator
p3220
sg52
Nssa(dp3221
g47
I4096745987
sg41
VWeaponDrop
p3222
sg189
I11
sg53
(lp3223
I2758383128
asg44
VPT5M10.065826S
p3224
sg192
I5
sg193
VP0DT0H0M20.5500S
p3225
sg48
(dp3226
g50
VALGPredevonator
p3227
sg52
Nssa(dp3228
g47
I4096745987
sg41
VWeaponDrop
p3229
sg189
I0
sg53
(lp3230
I2758383128
asg44
VPT5M10.065826S
p3231
sg192
I0
sg193
VP0DT0S
p3232
sg48
(dp3233
g50
VALGPredevonator
p3234
sg52
Nssa(dp3235
g47
I313138863
sg48
(dp3236
g50
VTL Danoxide
p3237
sg52
Nssg53
(lp3238
I1095363701
asg41
VWeaponPickup
p3239
sg44
VPT5M11.8638825S
p3240
sa(dp3241
g47
I4096745987
sg48
(dp3242
g50
VTL Danoxide
p3243
sg52
Nssg53
(lp3244
I2758383128
asg41
VWeaponPickup
p3245
sg44
VPT5M11.8638825S
p3246
sa(dp3247
g41
VPlayerSpawn
p3248
sg48
(dp3249
g50
VTL Danoxide
p3250
sg52
Nssg44
VPT5M11.8649016S
p3251
sa(dp3252
g204
I4096745987
sg205
I00
sg206
I00
sg207
(dp3253
g50
VALG Heinz HCS
p3254
sg52
Nssg210
(lp3255
I2758383128
asg212
I00
sg213
I01
sg214
I1
sg215
I0
sg216
I1
sg217
(dp3256
Vy
F7.3992795899999999
sVx
F17.395286599999999
sVz
F2.0155744599999998
ssg219
(dp3257
Vy
F-4.7153080000000003
sVx
F13.252246899999999
sVz
F1.6329996600000001
ssg221
I00
sg222
(dp3258
g50
VTL StelluR
p3259
sg52
Nssg225
(lp3260
sg227
(lp3261
(dp3262
g50
VALGPredevonator
p3263
sg52
Nsasg231
I01
sg44
VPT5M13.2639283S
p3264
sg41
VDeath
p3265
sg234
I1
sa(dp3266
g41
VMedal
p3267
sg48
(dp3268
g50
VALG Heinz HCS
p3269
sg52
Nssg245
I3261908037
sg44
VPT5M13.2649498S
p3270
sa(dp3271
g47
I723523180
sg41
VWeaponDrop
p3272
sg189
I4
sg53
(lp3273
I2758383128
asg44
VPT5M13.2659522S
p3274
sg192
I3
sg193
VP0DT0H0M31.7333S
p3275
sg48
(dp3276
g50
VTL StelluR
p3277
sg52
Nssa(dp3278
g47
I523953283
sg41
VWeaponDrop
p3279
sg189
I8
sg53
(lp3280
I2208825748
asg44
VPT5M13.2659522S
p3281
sg192
I5
sg193
VP0DT0H0M12.9000S
p3282
sg48
(dp3283
g50
VTL StelluR
p3284
sg52
Nssa(dp3285
g47
I523953283
sg41
VWeaponDrop
p3286
sg189
I0
sg53
(lp3287
I2208825748
asg44
VPT5M13.2659522S
p3288
sg192
I0
sg193
VP0DT0S
p3289
sg48
(dp3290
g50
VTL StelluR
p3291
sg52
Nssa(dp3292
g47
I313138863
sg48
(dp3293
g50
VTL Spartan HCS
p3294
sg52
Nssg53
(lp3295
I1095363701
asg41
VWeaponPickup
p3296
sg44
VPT5M16.0980588S
p3297
sa(dp3298
g47
I4096745987
sg48
(dp3299
g50
VTL Spartan HCS
p3300
sg52
Nssg53
(lp3301
I2758383128
asg41
VWeaponPickup
p3302
sg44
VPT5M16.0980588S
p3303
sa(dp3304
g41
VPlayerSpawn
p3305
sg48
(dp3306
g50
VTL Spartan HCS
p3307
sg52
Nssg44
VPT5M16.0980588S
p3308
sa(dp3309
g47
I313138863
sg48
(dp3310
g50
VALGPredevonator
p3311
sg52
Nssg53
(lp3312
I1095363701
asg41
VWeaponPickup
p3313
sg44
VPT5M18.0811156S
p3314
sa(dp3315
g47
I4096745987
sg48
(dp3316
g50
VALGPredevonator
p3317
sg52
Nssg53
(lp3318
I2758383128
asg41
VWeaponPickup
p3319
sg44
VPT5M18.0811156S
p3320
sa(dp3321
g41
VPlayerSpawn
p3322
sg48
(dp3323
g50
VALGPredevonator
p3324
sg52
Nssg44
VPT5M18.0811156S
p3325
sa(dp3326
g47
I4096745987
sg41
VWeaponDrop
p3327
sg189
I4
sg53
(lp3328
I2758383128
asg44
VPT5M18.9461488S
p3329
sg192
I2
sg193
VP0DT0H0M8.2833S
p3330
sg48
(dp3331
g50
VALG Heinz HCS
p3332
sg52
Nssa(dp3333
g47
I523953283
sg48
(dp3334
g50
VALG Heinz HCS
p3335
sg52
Nssg53
(lp3336
I2208825748
asg41
VWeaponPickup
p3337
sg44
VPT5M18.9461488S
p3338
sa(dp3339
g204
I4096745987
sg205
I00
sg206
I00
sg207
(dp3340
g50
VTL Eco HCS
p3341
sg52
Nssg210
(lp3342
I2758383128
asg212
I00
sg213
I01
sg214
I1
sg215
I0
sg216
I1
sg217
(dp3343
Vy
F-2.7954650000000001
sVx
F-2.863667
sVz
F0.20091640899999999
ssg219
(dp3344
Vy
F-7.3875975599999997
sVx
F14.438385
sVz
F1.61743426
ssg221
I00
sg222
(dp3345
g50
VALG RyaNoob
p3346
sg52
Nssg225
(lp3347
sg227
(lp3348
sg231
I01
sg44
VPT5M18.9971482S
p3349
sg41
VDeath
p3350
sg234
I1
sa(dp3351
g41
VMedal
p3352
sg48
(dp3353
g50
VTL Eco HCS
p3354
sg52
Nssg245
I3261908037
sg44
VPT5M19.0001707S
p3355
sa(dp3356
g47
I313138863
sg41
VWeaponDrop
p3357
sg189
I0
sg53
(lp3358
I1095363701
asg44
VPT5M19.0001707S
p3359
sg192
I0
sg193
VP0DT0H0M0.6833S
p3360
sg48
(dp3361
g50
VALG RyaNoob
p3362
sg52
Nssa(dp3363
g47
I4108759423
sg41
VWeaponDrop
p3364
sg189
I7
sg53
(lp3365
I2758383128
asg44
VPT5M19.0001707S
p3366
sg192
I5
sg193
VP0DT0H0M15.3833S
p3367
sg48
(dp3368
g50
VALG RyaNoob
p3369
sg52
Nssa(dp3370
g47
I313138863
sg48
(dp3371
g50
VTL StelluR
p3372
sg52
Nssg53
(lp3373
I1095363701
asg41
VWeaponPickup
p3374
sg44
VPT5M21.2812679S
p3375
sa(dp3376
g47
I4096745987
sg48
(dp3377
g50
VTL StelluR
p3378
sg52
Nssg53
(lp3379
I2758383128
asg41
VWeaponPickup
p3380
sg44
VPT5M21.2812679S
p3381
sa(dp3382
g41
VPlayerSpawn
p3383
sg48
(dp3384
g50
VTL StelluR
p3385
sg52
Nssg44
VPT5M21.2812679S
p3386
sa(dp3387
g47
I523953283
sg41
VWeaponDrop
p3388
sg189
I0
sg53
(lp3389
I2208825748
asg44
VPT5M22.6123072S
p3390
sg192
I0
sg193
VP0DT0H0M3.6667S
p3391
sg48
(dp3392
g50
VALG Heinz HCS
p3393
sg52
Nssa(dp3394
g47
I4108759423
sg48
(dp3395
g50
VALG Heinz HCS
p3396
sg52
Nssg53
(lp3397
I2758383128
asg41
VWeaponPickup
p3398
sg44
VPT5M22.6123072S
p3399
sa(dp3400
g47
I313138863
sg41
VWeaponDrop
p3401
sg189
I0
sg53
(lp3402
I1095363701
asg44
VPT5M22.9293237S
p3403
sg192
I0
sg193
VP0DT0H0M1.2500S
p3404
sg48
(dp3405
g50
VTL StelluR
p3406
sg52
Nssa(dp3407
g47
I723388907
sg48
(dp3408
g50
VTL StelluR
p3409
sg52
Nssg53
(lp3410
I89283061
asg41
VWeaponPickup
p3411
sg44
VPT5M22.9293237S
p3412
sa(dp3413
g204
I523953283
sg205
I00
sg206
I00
sg207
(dp3414
g50
VALG ContrA HCS
p3415
sg52
Nssg210
(lp3416
I2208825748
asg212
I00
sg213
I01
sg214
I1
sg215
I0
sg216
I1
sg217
(dp3417
Vy
F13.720094700000001
sVx
F11.5663023
sVz
F0.78108024600000003
ssg219
(dp3418
Vy
F10.303596499999999
sVx
F-2.0092847300000001
sVz
F2.9515876799999998
ssg221
I00
sg222
(dp3419
g50
VTL Spartan HCS
p3420
sg52
Nssg225
(lp3421
sg227
(lp3422
sg231
I01
sg44
VPT5M23.297314S
p3423
sg41
VDeath
p3424
sg234
I1
sa(dp3425
g41
VMedal
p3426
sg48
(dp3427
g50
VALG ContrA HCS
p3428
sg52
Nssg245
I3261908037
sg44
VPT5M23.2983148S
p3429
sa(dp3430
g47
I313138863
sg41
VWeaponDrop
p3431
sg189
I0
sg53
(lp3432
I1095363701
asg44
VPT5M23.2993161S
p3433
sg192
I0
sg193
VP0DT0H0M0.7500S
p3434
sg48
(dp3435
g50
VTL Spartan HCS
p3436
sg52
Nssa(dp3437
g47
I4096745987
sg41
VWeaponDrop
p3438
sg189
I3
sg53
(lp3439
I2758383128
asg44
VPT5M23.2993161S
p3440
sg192
I1
sg193
VP0DT0H0M6.4500S
p3441
sg48
(dp3442
g50
VTL Spartan HCS
p3443
sg52
Nssa(dp3444
g47
I313138863
sg48
(dp3445
g50
VALG RyaNoob
p3446
sg52
Nssg53
(lp3447
I1095363701
asg41
VWeaponPickup
p3448
sg44
VPT5M27.0144834S
p3449
sa(dp3450
g47
I4096745987
sg48
(dp3451
g50
VALG RyaNoob
p3452
sg52
Nssg53
(lp3453
I2758383128
asg41
VWeaponPickup
p3454
sg44
VPT5M27.0144834S
p3455
sa(dp3456
g41
VPlayerSpawn
p3457
sg48
(dp3458
g50
VALG RyaNoob
p3459
sg52
Nssg44
VPT5M27.0144834S
p3460
sa(dp3461
g47
I313138863
sg48
(dp3462
g50
VTL Spartan HCS
p3463
sg52
Nssg53
(lp3464
I1095363701
asg41
VWeaponPickup
p3465
sg44
VPT5M31.3136222S
p3466
sa(dp3467
g47
I4096745987
sg48
(dp3468
g50
VTL Spartan HCS
p3469
sg52
Nssg53
(lp3470
I2758383128
asg41
VWeaponPickup
p3471
sg44
VPT5M31.3146549S
p3472
sa(dp3473
g41
VPlayerSpawn
p3474
sg48
(dp3475
g50
VTL Spartan HCS
p3476
sg52
Nssg44
VPT5M31.3146549S
p3477
sa(dp3478
g47
I4108759423
sg41
VWeaponDrop
p3479
sg189
I7
sg53
(lp3480
I2758383128
asg44
VPT5M32.5626715S
p3481
sg192
I3
sg193
VP0DT0H0M9.9500S
p3482
sg48
(dp3483
g50
VALG Heinz HCS
p3484
sg52
Nssa(dp3485
g47
I523953283
sg48
(dp3486
g50
VALG Heinz HCS
p3487
sg52
Nssg53
(lp3488
I2208825748
asg41
VWeaponPickup
p3489
sg44
VPT5M32.5626715S
p3490
sa(dp3491
g204
I313138863
sg205
I00
sg206
I00
sg207
(dp3492
g50
VALGPredevonator
p3493
sg52
Nssg210
(lp3494
I1095363701
asg212
I00
sg213
I01
sg214
I1
sg215
I0
sg216
I1
sg217
(dp3495
Vy
F5.6386885600000003
sVx
F3.05405712
sVz
F0.91318560000000004
ssg219
(dp3496
Vy
F9.6232570000000006
sVx
F3.3644893200000001
sVz
F1.81273818
ssg221
I00
sg222
(dp3497
g50
VTL Eco HCS
p3498
sg52
Nssg225
(lp3499
sg227
(lp3500
(dp3501
g50
VALG ContrA HCS
p3502
sg52
Nsasg231
I00
sg44
VPT5M33.0466932S
p3503
sg41
VDeath
p3504
sg234
I1
sa(dp3505
g47
I313138863
sg41
VWeaponDrop
p3506
sg189
I18
sg53
(lp3507
I1095363701
asg44
VPT5M33.0487109S
p3508
sg192
I12
sg193
VP0DT0H0M22.5667S
p3509
sg48
(dp3510
g50
VTL Eco HCS
p3511
sg52
Nssa(dp3512
g47
I313138863
sg41
VWeaponDrop
p3513
sg189
I0
sg53
(lp3514
I1095363701
asg44
VPT5M33.0487109S
p3515
sg192
I0
sg193
VP0DT0S
p3516
sg48
(dp3517
g50
VTL Eco HCS
p3518
sg52
Nssa(dp3519
g47
I4096745987
sg41
VWeaponDrop
p3520
sg189
I25
sg53
(lp3521
I2758383128
asg44
VPT5M33.0487109S
p3522
sg192
I13
sg193
VP0DT0H0M47.9667S
p3523
sg48
(dp3524
g50
VTL Eco HCS
p3525
sg52
Nssa(dp3526
g204
I4096745987
sg205
I00
sg206
I00
sg207
(dp3527
g50
VTL Danoxide
p3528
sg52
Nssg210
(lp3529
I2758383128
asg212
I00
sg213
I01
sg214
I1
sg215
I0
sg216
I1
sg217
(dp3530
Vy
F10.105054900000001
sVx
F2.0215997699999999
sVz
F-0.134661108
ssg219
(dp3531
Vy
F6.8864035599999998
sVx
F1.9209255000000001
sVz
F0.135154366
ssg221
I00
sg222
(dp3532
g50
VALGPredevonator
p3533
sg52
Nssg225
(lp3534
sg227
(lp3535
(dp3536
g50
VTL StelluR
p3537
sg52
Nsasg231
I00
sg44
VPT5M35.846796S
p3538
sg41
VDeath
p3539
sg234
I1
sa(dp3540
g47
I313138863
sg41
VWeaponDrop
p3541
sg189
I25
sg53
(lp3542
I1095363701
asg44
VPT5M35.8488157S
p3543
sg192
I13
sg193
VP0DT0H0M7.7667S
p3544
sg48
(dp3545
g50
VALGPredevonator
p3546
sg52
Nssa(dp3547
g47
I4096745987
sg41
VWeaponDrop
p3548
sg189
I1
sg53
(lp3549
I2758383128
asg44
VPT5M35.8488157S
p3550
sg192
I0
sg193
VP0DT0H0M10.0000S
p3551
sg48
(dp3552
g50
VALGPredevonator
p3553
sg52
Nssa(dp3554
g204
I723388907
sg205
I00
sg206
I00
sg207
(dp3555
g50
VTL StelluR
p3556
sg52
Nssg210
(lp3557
I89283061
asg212
I00
sg213
I01
sg214
I1
sg215
I0
sg216
I1
sg217
(dp3558
Vy
F17.252924
sVx
F0.32468113300000001
sVz
F5.2657439999999998
ssg219
(dp3559
Vy
F15.687473300000001
sVx
F3.1184789999999998
sVz
F2.9732167700000001
ssg221
I00
sg222
(dp3560
g50
VALG ContrA HCS
p3561
sg52
Nssg225
(lp3562
sg227
(lp3563
(dp3564
g50
VTL Eco HCS
p3565
sg52
Nsa(dp3566
g50
VTL Spartan HCS
p3567
sg52
Nsasg231
I00
sg44
VPT5M37.3638537S
p3568
sg41
VDeath
p3569
sg234
I1
sa(dp3570
g47
I523953283
sg41
VWeaponDrop
p3571
sg189
I17
sg53
(lp3572
I2208825748
asg44
VPT5M37.3658797S
p3573
sg192
I8
sg193
VP0DT0H0M37.9167S
p3574
sg48
(dp3575
g50
VALG ContrA HCS
p3576
sg52
Nssa(dp3577
g47
I523953283
sg41
VWeaponDrop
p3578
sg189
I0
sg53
(lp3579
I2208825748
asg44
VPT5M37.3658797S
p3580
sg192
I0
sg193
VP0DT0S
p3581
sg48
(dp3582
g50
VALG ContrA HCS
p3583
sg52
Nssa(dp3584
g47
I313138863
sg41
VWeaponDrop
p3585
sg189
I0
sg53
(lp3586
I1095363701
asg44
VPT5M37.3668974S
p3587
sg192
I0
sg193
VP0DT0H0M0.7500S
p3588
sg48
(dp3589
g50
VALG ContrA HCS
p3590
sg52
Nssa(dp3591
g204
I4096745987
sg205
I00
sg206
I00
sg207
(dp3592
g50
VALG RyaNoob
p3593
sg52
Nssg210
(lp3594
I2758383128
asg212
I00
sg213
I01
sg214
I1
sg215
I0
sg216
I1
sg217
(dp3595
Vy
F5.6954950000000002
sVx
F3.37156463
sVz
F3.8128669999999998
ssg219
(dp3596
Vy
F17.353694900000001
sVx
F0.84267619999999999
sVz
F4.6349539999999996
ssg221
I00
sg222
(dp3597
g50
VTL StelluR
p3598
sg52
Nssg225
(lp3599
sg227
(lp3600
sg231
I01
sg44
VPT5M37.6138634S
p3601
sg41
VDeath
p3602
sg234
I1
sa(dp3603
g41
VMedal
p3604
sg48
(dp3605
g50
VALG RyaNoob
p3606
sg52
Nssg245
I3261908037
sg44
VPT5M37.6158876S
p3607
sa(dp3608
g47
I723388907
sg41
VWeaponDrop
p3609
sg189
I8
sg53
(lp3610
I89283061
asg44
VPT5M37.6168833S
p3611
sg192
I2
sg193
VP0DT0H0M3.3500S
p3612
sg48
(dp3613
g50
VTL StelluR
p3614
sg52
Nssa(dp3615
g47
I4096745987
sg41
VWeaponDrop
p3616
sg189
I2
sg53
(lp3617
I2758383128
asg44
VPT5M37.6168833S
p3618
sg192
I1
sg193
VP0DT0H0M11.7333S
p3619
sg48
(dp3620
g50
VTL StelluR
p3621
sg52
Nssa(dp3622
g41
VMedal
p3623
sg48
(dp3624
g50
VTL Danoxide
p3625
sg52
Nssg245
I3400287617
sg44
VPT5M39.4629348S
p3626
sa(dp3627
g47
I313138863
sg48
(dp3628
g50
VTL Eco HCS
p3629
sg52
Nssg53
(lp3630
I1095363701
asg41
VWeaponPickup
p3631
sg44
VPT5M41.0639968S
p3632
sa(dp3633
g47
I4096745987
sg48
(dp3634
g50
VTL Eco HCS
p3635
sg52
Nssg53
(lp3636
I2758383128
asg41
VWeaponPickup
p3637
sg44
VPT5M41.065019S
p3638
sa(dp3639
g41
VPlayerSpawn
p3640
sg48
(dp3641
g50
VTL Eco HCS
p3642
sg52
Nssg44
VPT5M41.065019S
p3643
sa(dp3644
g47
I313138863
sg48
(dp3645
g50
VALGPredevonator
p3646
sg52
Nssg53
(lp3647
I1095363701
asg41
VWeaponPickup
p3648
sg44
VPT5M43.864137S
p3649
sa(dp3650
g47
I4096745987
sg48
(dp3651
g50
VALGPredevonator
p3652
sg52
Nssg53
(lp3653
I2758383128
asg41
VWeaponPickup
p3654
sg44
VPT5M43.864137S
p3655
sa(dp3656
g41
VPlayerSpawn
p3657
sg48
(dp3658
g50
VALGPredevonator
p3659
sg52
Nssg44
VPT5M43.864137S
p3660
sa(dp3661
g204
I313138863
sg205
I00
sg206
I00
sg207
(dp3662
g50
VTL Danoxide
p3663
sg52
Nssg210
(lp3664
I1095363701
asg212
I00
sg213
I01
sg214
I1
sg215
I0
sg216
I1
sg217
(dp3665
Vy
F1.8264724000000001
sVx
F8.6090590000000002
sVz
F-0.24800503300000001
ssg219
(dp3666
Vy
F1.2114633299999999
sVx
F10.553245499999999
sVz
F-0.34921714700000001
ssg221
I00
sg222
(dp3667
g50
VALG RyaNoob
p3668
sg52
Nssg225
(lp3669
sg227
(lp3670
sg231
I00
sg44
VPT5M45.163154S
p3671
sg41
VDeath
p3672
sg234
I1
sa(dp3673
g47
I313138863
sg41
VWeaponDrop
p3674
sg189
I3
sg53
(lp3675
I1095363701
asg44
VPT5M45.1651756S
p3676
sg192
I0
sg193
VP0DT0H0M2.5000S
p3677
sg48
(dp3678
g50
VALG RyaNoob
p3679
sg52
Nssa(dp3680
g47
I4096745987
sg41
VWeaponDrop
p3681
sg189
I9
sg53
(lp3682
I2758383128
asg44
VPT5M45.1651756S
p3683
sg192
I6
sg193
VP0DT0H0M15.6500S
p3684
sg48
(dp3685
g50
VALG RyaNoob
p3686
sg52
Nssa(dp3687
g47
I313138863
sg48
(dp3688
g50
VALG ContrA HCS
p3689
sg52
Nssg53
(lp3690
I1095363701
asg41
VWeaponPickup
p3691
sg44
VPT5M45.3811631S
p3692
sa(dp3693
g47
I4096745987
sg48
(dp3694
g50
VALG ContrA HCS
p3695
sg52
Nssg53
(lp3696
I2758383128
asg41
VWeaponPickup
p3697
sg44
VPT5M45.3811631S
p3698
sa(dp3699
g41
VPlayerSpawn
p3700
sg48
(dp3701
g50
VALG ContrA HCS
p3702
sg52
Nssg44
VPT5M45.3811631S
p3703
sa(dp3704
g47
I313138863
sg48
(dp3705
g50
VTL StelluR
p3706
sg52
Nssg53
(lp3707
I1095363701
asg41
VWeaponPickup
p3708
sg44
VPT5M45.6321721S
p3709
sa(dp3710
g47
I4096745987
sg48
(dp3711
g50
VTL StelluR
p3712
sg52
Nssg53
(lp3713
I2758383128
asg41
VWeaponPickup
p3714
sg44
VPT5M45.6332541S
p3715
sa(dp3716
g41
VPlayerSpawn
p3717
sg48
(dp3718
g50
VTL StelluR
p3719
sg52
Nssg44
VPT5M45.6332541S
p3720
sa(dp3721
g204
I4106030681
sg205
I00
sg206
I00
sg207
(dp3722
g50
VALG Heinz HCS
p3723
sg52
Nssg210
(lp3724
sg212
I00
sg213
I01
sg214
I1
sg215
I0
sg216
I1
sg217
(dp3725
Vy
F4.9684896500000004
sVx
F4.28072739
sVz
F1.2312578000000001
ssg219
(dp3726
Vy
F0.54922170000000003
sVx
F9.0765510000000003
sVz
F-0.35132786599999999
ssg221
I00
sg222
(dp3727
g50
VTL Danoxide
p3728
sg52
Nssg225
(lp3729
sg227
(lp3730
(dp3731
g50
VALG RyaNoob
p3732
sg52
Nsa(dp3733
g50
VALGPredevonator
p3734
sg52
Nsasg231
I00
sg44
VPT5M48.2302707S
p3735
sg41
VDeath
p3736
sg234
I1
sa(dp3737
g47
I313138863
sg41
VWeaponDrop
p3738
sg189
I25
sg53
(lp3739
I1095363701
asg44
VPT5M48.232294S
p3740
sg192
I6
sg193
VP0DT0H0M7.2500S
p3741
sg48
(dp3742
g50
VTL Danoxide
p3743
sg52
Nssa(dp3744
g47
I4096745987
sg41
VWeaponDrop
p3745
sg189
I17
sg53
(lp3746
I2758383128
asg44
VPT5M48.2333565S
p3747
sg192
I8
sg193
VP0DT0H0M29.1167S
p3748
sg48
(dp3749
g50
VTL Danoxide
p3750
sg52
Nssa(dp3751
g204
I4096745987
sg205
I00
sg206
I00
sg207
(dp3752
g50
VALG ContrA HCS
p3753
sg52
Nssg210
(lp3754
I2758383128
asg212
I00
sg213
I01
sg214
I1
sg215
I0
sg216
I1
sg217
(dp3755
Vy
F0.449202359
sVx
F-16.7524567
sVz
F1.61465657
ssg219
(dp3756
Vy
F4.5698299999999996
sVx
F-15.323093399999999
sVz
F2.5541
ssg221
I00
sg222
(dp3757
g50
VTL StelluR
p3758
sg52
Nssg225
(lp3759
sg227
(lp3760
sg231
I01
sg44
VPT5M50.9973786S
p3761
sg41
VDeath
p3762
sg234
I1
sa(dp3763
g41
VImpulse
p3764
sg48
(dp3765
g50
VALG ContrA HCS
p3766
sg52
Nssg239
I3174430457
sg44
VPT5M50.99838S
p3767
sa(dp3768
g41
VMedal
p3769
sg48
(dp3770
g50
VALG ContrA HCS
p3771
sg52
Nssg245
I2782465081
sg44
VPT5M50.9993799S
p3772
sa(dp3773
g41
VMedal
p3774
sg48
(dp3775
g50
VALG ContrA HCS
p3776
sg52
Nssg245
I3653057799
sg44
VPT5M50.9993799S
p3777
sa(dp3778
g47
I313138863
sg41
VWeaponDrop
p3779
sg189
I0
sg53
(lp3780
I1095363701
asg44
VPT5M51.0004032S
p3781
sg192
I0
sg193
VP0DT0H0M0.7333S
p3782
sg48
(dp3783
g50
VTL StelluR
p3784
sg52
Nssa(dp3785
g47
I4096745987
sg41
VWeaponDrop
p3786
sg189
I7
sg53
(lp3787
I2758383128
asg44
VPT5M51.0004032S
p3788
sg192
I5
sg193
VP0DT0H0M4.6333S
p3789
sg48
(dp3790
g50
VTL StelluR
p3791
sg52
Nssa(dp3792
g47
I313138863
sg48
(dp3793
g50
VALG RyaNoob
p3794
sg52
Nssg53
(lp3795
I1095363701
asg41
VWeaponPickup
p3796
sg44
VPT5M53.1804623S
p3797
sa(dp3798
g47
I4096745987
sg48
(dp3799
g50
VALG RyaNoob
p3800
sg52
Nssg53
(lp3801
I2758383128
asg41
VWeaponPickup
p3802
sg44
VPT5M53.181484S
p3803
sa(dp3804
g41
VPlayerSpawn
p3805
sg48
(dp3806
g50
VALG RyaNoob
p3807
sg52
Nssg44
VPT5M53.181484S
p3808
sa(dp3809
g47
I313138863
sg48
(dp3810
g50
VTL Danoxide
p3811
sg52
Nssg53
(lp3812
I1095363701
asg41
VWeaponPickup
p3813
sg44
VPT5M56.2476013S
p3814
sa(dp3815
g47
I4096745987
sg48
(dp3816
g50
VTL Danoxide
p3817
sg52
Nssg53
(lp3818
I2758383128
asg41
VWeaponPickup
p3819
sg44
VPT5M56.2476013S
p3820
sa(dp3821
g41
VPlayerSpawn
p3822
sg48
(dp3823
g50
VTL Danoxide
p3824
sg52
Nssg44
VPT5M56.2476013S
p3825
sa(dp3826
g47
I313138863
sg48
(dp3827
g50
VTL StelluR
p3828
sg52
Nssg53
(lp3829
I1095363701
asg41
VWeaponPickup
p3830
sg44
VPT5M59.0136859S
p3831
sa(dp3832
g47
I4096745987
sg48
(dp3833
g50
VTL StelluR
p3834
sg52
Nssg53
(lp3835
I2758383128
asg41
VWeaponPickup
p3836
sg44
VPT5M59.0147391S
p3837
sa(dp3838
g41
VPlayerSpawn
p3839
sg48
(dp3840
g50
VTL StelluR
p3841
sg52
Nssg44
VPT5M59.0147391S
p3842
sa(dp3843
g47
I4096745987
sg41
VWeaponDrop
p3844
sg189
I0
sg53
(lp3845
I2758383128
asg44
VPT5M59.3957244S
p3846
sg192
I0
sg193
VP0DT0H0M2.4167S
p3847
sg48
(dp3848
g50
VTL Danoxide
p3849
sg52
Nssa(dp3850
g47
I4108759423
sg48
(dp3851
g50
VTL Danoxide
p3852
sg52
Nssg53
(lp3853
I2758383128
asg41
VWeaponPickup
p3854
sg44
VPT5M59.3957244S
p3855
sa(dp3856
g47
I4096745987
sg41
VWeaponDrop
p3857
sg189
I3
sg53
(lp3858
I2758383128
asg44
VPT6M1.1287856S
p3859
sg192
I3
sg193
VP0DT0H0M7.2500S
p3860
sg48
(dp3861
g50
VALG RyaNoob
p3862
sg52
Nssa(dp3863
g47
I4108759423
sg48
(dp3864
g50
VALG RyaNoob
p3865
sg52
Nssg53
(lp3866
I2758383128
asg41
VWeaponPickup
p3867
sg44
VPT6M1.1297861S
p3868
sa(dp3869
g204
I523953283
sg205
I00
sg206
I00
sg207
(dp3870
g50
VALG Heinz HCS
p3871
sg52
Nssg210
(lp3872
I2208825748
asg212
I00
sg213
I01
sg214
I1
sg215
I0
sg216
I1
sg217
(dp3873
Vy
F13.3083344
sVx
F-5.5998034499999996
sVz
F1.8545022
ssg219
(dp3874
Vy
F5.6697382899999997
sVx
F3.3414760000000001
sVz
F1.5338107299999999
ssg221
I00
sg222
(dp3875
g50
VTL Spartan HCS
p3876
sg52
Nssg225
(lp3877
sg227
(lp3878
(dp3879
g50
VALG RyaNoob
p3880
sg52
Nsasg231
I01
sg44
VPT6M1.3637757S
p3881
sg41
VDeath
p3882
sg234
I1
sa(dp3883
g41
VMedal
p3884
sg48
(dp3885
g50
VALG Heinz HCS
p3886
sg52
Nssg245
I3261908037
sg44
VPT6M1.3707977S
p3887
sa(dp3888
g47
I313138863
sg41
VWeaponDrop
p3889
sg189
I10
sg53
(lp3890
I1095363701
asg44
VPT6M1.3717973S
p3891
sg192
I6
sg193
VP0DT0H0M4.1833S
p3892
sg48
(dp3893
g50
VTL Spartan HCS
p3894
sg52
Nssa(dp3895
g47
I4096745987
sg41
VWeaponDrop
p3896
sg189
I9
sg53
(lp3897
I2758383128
asg44
VPT6M1.3717973S
p3898
sg192
I3
sg193
VP0DT0H0M25.8667S
p3899
sg48
(dp3900
g50
VTL Spartan HCS
p3901
sg52
Nssa(dp3902
g47
I4108759423
sg41
VWeaponDrop
p3903
sg189
I0
sg53
(lp3904
I2758383128
asg44
VPT6M3.0128393S
p3905
sg192
I0
sg193
VP0DT0H0M3.6167S
p3906
sg48
(dp3907
g50
VTL Danoxide
p3908
sg52
Nssa(dp3909
g47
I523953283
sg48
(dp3910
g50
VTL Danoxide
p3911
sg52
Nssg53
(lp3912
I2208825748
asg41
VWeaponPickup
p3913
sg44
VPT6M3.0128393S
p3914
sa(dp3915
g204
I313138863
sg205
I00
sg206
I00
sg207
(dp3916
g50
VTL Eco HCS
p3917
sg52
Nssg210
(lp3918
I1095363701
asg212
I00
sg213
I01
sg214
I1
sg215
I0
sg216
I1
sg217
(dp3919
Vy
F11.116630000000001
sVx
F-3.4467697099999999
sVz
F2.2912616699999999
ssg219
(dp3920
Vy
F11.9697227
sVx
F-6.03460646
sVz
F2.5221079999999998
ssg221
I00
sg222
(dp3921
g50
VALG Heinz HCS
p3922
sg52
Nssg225
(lp3923
sg227
(lp3924
(dp3925
g50
VTL Spartan HCS
p3926
sg52
Nsasg231
I00
sg44
VPT6M4.847935S
p3927
sg41
VDeath
p3928
sg234
I1
sa(dp3929
g47
I313138863
sg41
VWeaponDrop
p3930
sg189
I23
sg53
(lp3931
I1095363701
asg44
VPT6M4.8519292S
p3932
sg192
I3
sg193
VP0DT0H0M8.5500S
p3933
sg48
(dp3934
g50
VALG Heinz HCS
p3935
sg52
Nssa(dp3936
g47
I523953283
sg41
VWeaponDrop
p3937
sg189
I9
sg53
(lp3938
I2208825748
asg44
VPT6M4.8519292S
p3939
sg192
I5
sg193
VP0DT0H0M24.5167S
p3940
sg48
(dp3941
g50
VALG Heinz HCS
p3942
sg52
Nssa(dp3943
g204
I4096745987
sg205
I00
sg206
I00
sg207
(dp3944
g50
VTL StelluR
p3945
sg52
Nssg210
(lp3946
I2758383128
asg212
I00
sg213
I01
sg214
I1
sg215
I0
sg216
I1
sg217
(dp3947
Vy
F14.1336279
sVx
F4.2797994600000004
sVz
F2.9732172499999998
ssg219
(dp3948
Vy
F6.0299124700000002
sVx
F-3.4733941599999998
sVz
F0.91545546099999997
ssg221
I00
sg222
(dp3949
g50
VALG ContrA HCS
p3950
sg52
Nssg225
(lp3951
sg227
(lp3952
(dp3953
g50
VTL Eco HCS
p3954
sg52
Nsasg231
I01
sg44
VPT6M7.7630216S
p3955
sg41
VDeath
p3956
sg234
I1
sa(dp3957
g41
VImpulse
p3958
sg48
(dp3959
g50
VTL StelluR
p3960
sg52
Nssg239
I2556889090
sg44
VPT6M7.7640228S
p3961
sa(dp3962
g41
VMedal
p3963
sg48
(dp3964
g50
VTL StelluR
p3965
sg52
Nssg245
I2838259753
sg44
VPT6M7.7640228S
p3966
sa(dp3967
g41
VMedal
p3968
sg48
(dp3969
g50
VTL StelluR
p3970
sg52
Nssg245
I3261908037
sg44
VPT6M7.7660427S
p3971
sa(dp3972
g47
I313138863
sg41
VWeaponDrop
p3973
sg189
I0
sg53
(lp3974
I1095363701
asg44
VPT6M7.7670731S
p3975
sg192
I0
sg193
VP0DT0H0M0.5500S
p3976
sg48
(dp3977
g50
VALG ContrA HCS
p3978
sg52
Nssa(dp3979
g47
I4096745987
sg41
VWeaponDrop
p3980
sg189
I11
sg53
(lp3981
I2758383128
asg44
VPT6M7.7670731S
p3982
sg192
I8
sg193
VP0DT0H0M21.8333S
p3983
sg48
(dp3984
g50
VALG ContrA HCS
p3985
sg52
Nssa(dp3986
g47
I313138863
sg48
(dp3987
g50
VTL Spartan HCS
p3988
sg52
Nssg53
(lp3989
I1095363701
asg41
VWeaponPickup
p3990
sg44
VPT6M9.3811102S
p3991
sa(dp3992
g47
I4096745987
sg48
(dp3993
g50
VTL Spartan HCS
p3994
sg52
Nssg53
(lp3995
I2758383128
asg41
VWeaponPickup
p3996
sg44
VPT6M9.3811102S
p3997
sa(dp3998
g41
VPlayerSpawn
p3999
sg48
(dp4000
g50
VTL Spartan HCS
p4001
sg52
Nssg44
VPT6M9.3811102S
p4002
sa(dp4003
g47
I523953283
sg41
VWeaponDrop
p4004
sg189
I3
sg53
(lp4005
I2208825748
asg44
VPT6M9.9791267S
p4006
sg192
I0
sg193
VP0DT0H0M6.9667S
p4007
sg48
(dp4008
g50
VTL Danoxide
p4009
sg52
Nssa(dp4010
g47
I4096745987
sg48
(dp4011
g50
VTL Danoxide
p4012
sg52
Nssg53
(lp4013
I2758383128
asg41
VWeaponPickup
p4014
sg44
VPT6M9.9791267S
p4015
sa(dp4016
g47
I4096745987
sg41
VWeaponDrop
p4017
sg189
I0
sg53
(lp4018
I2758383128
asg44
VPT6M11.2791817S
p4019
sg192
I0
sg193
VP0DT0H0M1.3000S
p4020
sg48
(dp4021
g50
VTL Danoxide
p4022
sg52
Nssa(dp4023
g47
I4108759423
sg48
(dp4024
g50
VTL Danoxide
p4025
sg52
Nssg53
(lp4026
I2758383128
asg41
VWeaponPickup
p4027
sg44
VPT6M11.2791817S
p4028
sa(dp4029
g41
VMedal
p4030
sg48
(dp4031
g50
VTL Eco HCS
p4032
sg52
Nssg245
I3400287617
sg44
VPT6M11.3961611S
p4033
sa(dp4034
g204
I4096745987
sg205
I00
sg206
I00
sg207
(dp4035
g50
VALGPredevonator
p4036
sg52
Nssg210
(lp4037
I2758383128
asg212
I00
sg213
I01
sg214
I1
sg215
I0
sg216
I1
sg217
(dp4038
Vy
F14.1099224
sVx
F-4.4140095700000002
sVz
F2.9736211300000002
ssg219
(dp4039
Vy
F5.6695919999999997
sVx
F3.517709
sVz
F3.81291461
ssg221
I00
sg222
(dp4040
g50
VTL StelluR
p4041
sg52
Nssg225
(lp4042
sg227
(lp4043
sg231
I01
sg44
VPT6M12.6472102S
p4044
sg41
VDeath
p4045
sg234
I1
sa(dp4046
g41
VMedal
p4047
sg48
(dp4048
g50
VALGPredevonator
p4049
sg52
Nssg245
I3261908037
sg44
VPT6M12.6502327S
p4050
sa(dp4051
g47
I313138863
sg41
VWeaponDrop
p4052
sg189
I0
sg53
(lp4053
I1095363701
asg44
VPT6M12.6512123S
p4054
sg192
I0
sg193
VP0DT0H0M0.3667S
p4055
sg48
(dp4056
g50
VTL StelluR
p4057
sg52
Nssa(dp4058
g47
I4096745987
sg41
VWeaponDrop
p4059
sg189
I2
sg53
(lp4060
I2758383128
asg44
VPT6M12.6512123S
p4061
sg192
I2
sg193
VP0DT0H0M13.2667S
p4062
sg48
(dp4063
g50
VTL StelluR
p4064
sg52
Nssa(dp4065
g47
I313138863
sg48
(dp4066
g50
VALG Heinz HCS
p4067
sg52
Nssg53
(lp4068
I1095363701
asg41
VWeaponPickup
p4069
sg44
VPT6M12.8642196S
p4070
sa(dp4071
g47
I4096745987
sg48
(dp4072
g50
VALG Heinz HCS
p4073
sg52
Nssg53
(lp4074
I2758383128
asg41
VWeaponPickup
p4075
sg44
VPT6M12.8642196S
p4076
sa(dp4077
g41
VPlayerSpawn
p4078
sg48
(dp4079
g50
VALG Heinz HCS
p4080
sg52
Nssg44
VPT6M12.8642196S
p4081
sa(dp4082
g47
I313138863
sg41
VWeaponDrop
p4083
sg189
I0
sg53
(lp4084
I1095363701
asg44
VPT6M14.2622735S
p4085
sg192
I0
sg193
VP0DT0H0M1.0500S
p4086
sg48
(dp4087
g50
VALG RyaNoob
p4088
sg52
Nssa(dp4089
g47
I3808094875
sg48
(dp4090
g50
VALG RyaNoob
p4091
sg52
Nssg53
(lp4092
I2758383128
asg41
VWeaponPickup
p4093
sg44
VPT6M14.2622735S
p4094
sa(dp4095
g47
I313138863
sg48
(dp4096
g50
VALG ContrA HCS
p4097
sg52
Nssg53
(lp4098
I1095363701
asg41
VWeaponPickup
p4099
sg44
VPT6M15.7803299S
p4100
sa(dp4101
g47
I4096745987
sg48
(dp4102
g50
VALG ContrA HCS
p4103
sg52
Nssg53
(lp4104
I2758383128
asg41
VWeaponPickup
p4105
sg44
VPT6M15.7813321S
p4106
sa(dp4107
g41
VPlayerSpawn
p4108
sg48
(dp4109
g50
VALG ContrA HCS
p4110
sg52
Nssg44
VPT6M15.7813321S
p4111
sa(dp4112
g204
I3190813201
sg205
I00
sg206
I00
sg207
(dp4113
g50
VALGPredevonator
p4114
sg52
Nssg210
(lp4115
sg212
I00
sg213
I01
sg214
I1
sg215
I0
sg216
I1
sg217
(dp4116
Vy
F7.3793179999999996
sVx
F-2.0843829999999999
sVz
F1.57045686
ssg219
(dp4117
Vy
F5.3966320000000003
sVx
F-3.3847253300000002
sVz
F1.12957525
ssg221
I00
sg222
(dp4118
g50
VTL Eco HCS
p4119
sg52
Nssg225
(lp4120
sg227
(lp4121
sg231
I00
sg44
VPT6M16.2653768S
p4122
sg41
VDeath
p4123
sg234
I1
sa(dp4124
g41
VMedal
p4125
sg48
(dp4126
g50
VALGPredevonator
p4127
sg52
Nssg245
I2782465081
sg44
VPT6M16.2673756S
p4128
sa(dp4129
g41
VMedal
p4130
sg48
(dp4131
g50
VALGPredevonator
p4132
sg52
Nssg245
I2078758684
sg44
VPT6M16.2683749S
p4133
sa(dp4134
g47
I313138863
sg41
VWeaponDrop
p4135
sg189
I36
sg53
(lp4136
I1095363701
asg44
VPT6M16.2683749S
p4137
sg192
I22
sg193
VP0DT0H0M15.0000S
p4138
sg48
(dp4139
g50
VTL Eco HCS
p4140
sg52
Nssa(dp4141
g47
I4096745987
sg41
VWeaponDrop
p4142
sg189
I9
sg53
(lp4143
I2758383128
asg44
VPT6M16.2683749S
p4144
sg192
I6
sg193
VP0DT0H0M20.2000S
p4145
sg48
(dp4146
g50
VTL Eco HCS
p4147
sg52
Nssa(dp4148
g47
I313138863
sg48
(dp4149
g50
VTL StelluR
p4150
sg52
Nssg53
(lp4151
I1095363701
asg41
VWeaponPickup
p4152
sg44
VPT6M20.6645421S
p4153
sa(dp4154
g47
I4096745987
sg48
(dp4155
g50
VTL StelluR
p4156
sg52
Nssg53
(lp4157
I2758383128
asg41
VWeaponPickup
p4158
sg44
VPT6M20.6645421S
p4159
sa(dp4160
g41
VPlayerSpawn
p4161
sg48
(dp4162
g50
VTL StelluR
p4163
sg52
Nssg44
VPT6M20.6645421S
p4164
sa(dp4165
g47
I313138863
sg41
VWeaponDrop
p4166
sg189
I0
sg53
(lp4167
I1095363701
asg44
VPT6M22.2285986S
p4168
sg192
I0
sg193
VP0DT0H0M2.8000S
p4169
sg48
(dp4170
g50
VTL Danoxide
p4171
sg52
Nssa(dp4172
g47
I723523180
sg48
(dp4173
g50
VTL Danoxide
p4174
sg52
Nssg53
(lp4175
I2758383128
asg41
VWeaponPickupPad
p4176
sg44
VPT6M22.2295771S
p4177
sa(dp4178
g47
I723523180
sg48
(dp4179
g50
VTL Danoxide
p4180
sg52
Nssg53
(lp4181
I2758383128
asg41
VWeaponPickup
p4182
sg44
VPT6M22.2295771S
p4183
sa(dp4184
g204
I4096745987
sg205
I00
sg206
I00
sg207
(dp4185
g50
VALGPredevonator
p4186
sg52
Nssg210
(lp4187
I2758383128
asg212
I00
sg213
I01
sg214
I1
sg215
I0
sg216
I1
sg217
(dp4188
Vy
F12.794857
sVx
F-0.45209329999999998
sVz
F2.3342917000000001
ssg219
(dp4189
Vy
F11.4402218
sVx
F-10.748570000000001
sVz
F0.79955100000000001
ssg221
I00
sg222
(dp4190
g50
VTL Spartan HCS
p4191
sg52
Nssg225
(lp4192
sg227
(lp4193
(dp4194
g50
VALG Heinz HCS
p4195
sg52
Nsasg231
I01
sg44
VPT6M23.5146263S
p4196
sg41
VDeath
p4197
sg234
I1
sa(dp4198
g41
VImpulse
p4199
sg48
(dp4200
g50
VALGPredevonator
p4201
sg52
Nssg239
I2556889090
sg44
VPT6M23.5146263S
p4202
sa(dp4203
g41
VMedal
p4204
sg48
(dp4205
g50
VALGPredevonator
p4206
sg52
Nssg245
I2838259753
sg44
VPT6M23.5146263S
p4207
sa(dp4208
g41
VMedal
p4209
sg48
(dp4210
g50
VALGPredevonator
p4211
sg52
Nssg245
I3261908037
sg44
VPT6M23.5156275S
p4212
sa(dp4213
g47
I313138863
sg41
VWeaponDrop
p4214
sg189
I0
sg53
(lp4215
I1095363701
asg44
VPT6M23.5166272S
p4216
sg192
I0
sg193
VP0DT0H0M3.1333S
p4217
sg48
(dp4218
g50
VTL Spartan HCS
p4219
sg52
Nssa(dp4220
g47
I4096745987
sg41
VWeaponDrop
p4221
sg189
I6
sg53
(lp4222
I2758383128
asg44
VPT6M23.5166272S
p4223
sg192
I5
sg193
VP0DT0H0M11.0000S
p4224
sg48
(dp4225
g50
VTL Spartan HCS
p4226
sg52
Nssa(dp4227
g47
I313138863
sg48
(dp4228
g50
VTL Eco HCS
p4229
sg52
Nssg53
(lp4230
I1095363701
asg41
VWeaponPickup
p4231
sg44
VPT6M24.280678S
p4232
sa(dp4233
g47
I4096745987
sg48
(dp4234
g50
VTL Eco HCS
p4235
sg52
Nssg53
(lp4236
I2758383128
asg41
VWeaponPickup
p4237
sg44
VPT6M24.280678S
p4238
sa(dp4239
g41
VPlayerSpawn
p4240
sg48
(dp4241
g50
VTL Eco HCS
p4242
sg52
Nssg44
VPT6M24.281658S
p4243
sa(dp4244
g47
I313138863
sg41
VWeaponDrop
p4245
sg189
I4
sg53
(lp4246
I1095363701
asg44
VPT6M24.5286853S
p4247
sg192
I0
sg193
VP0DT0H0M2.9000S
p4248
sg48
(dp4249
g50
VALGPredevonator
p4250
sg52
Nssa(dp4251
g47
I669296699
sg48
(dp4252
g50
VALGPredevonator
p4253
sg52
Nssg53
(lp4254
I2758383128
asg41
VWeaponPickupPad
p4255
sg44
VPT6M24.5296661S
p4256
sa(dp4257
g47
I669296699
sg48
(dp4258
g50
VALGPredevonator
p4259
sg52
Nssg53
(lp4260
I2758383128
asg41
VWeaponPickup
p4261
sg44
VPT6M24.5296661S
p4262
sa(dp4263
g204
I4096745987
sg205
I00
sg206
I00
sg207
(dp4264
g50
VALG Heinz HCS
p4265
sg52
Nssg210
(lp4266
I2758383128
asg212
I00
sg213
I01
sg214
I1
sg215
I0
sg216
I1
sg217
(dp4267
Vy
F13.0192537
sVx
F3.1905994400000002
sVz
F3.04944134
ssg219
(dp4268
Vy
F12.381797799999999
sVx
F-5.2978069999999997
sVz
F2.0194547200000001
ssg221
I00
sg222
(dp4269
g50
VTL StelluR
p4270
sg52
Nssg225
(lp4271
sg227
(lp4272
(dp4273
g50
VALGPredevonator
p4274
sg52
Nsasg231
I01
sg44
VPT6M26.2967334S
p4275
sg41
VDeath
p4276
sg234
I1
sa(dp4277
g41
VImpulse
p4278
sg48
(dp4279
g50
VALG Heinz HCS
p4280
sg52
Nssg239
I2556889090
sg44
VPT6M26.2977564S
p4281
sa(dp4282
g41
VMedal
p4283
sg48
(dp4284
g50
VALG Heinz HCS
p4285
sg52
Nssg245
I2838259753
sg44
VPT6M26.2977564S
p4286
sa(dp4287
g41
VMedal
p4288
sg48
(dp4289
g50
VALG Heinz HCS
p4290
sg52
Nssg245
I3261908037
sg44
VPT6M26.2997579S
p4291
sa(dp4292
g47
I4096745987
sg41
VWeaponDrop
p4293
sg189
I6
sg53
(lp4294
I2758383128
asg44
VPT6M26.2997579S
p4295
sg192
I4
sg193
VP0DT0H0M5.0000S
p4296
sg48
(dp4297
g50
VTL StelluR
p4298
sg52
Nssa(dp4299
g47
I313138863
sg41
VWeaponDrop
p4300
sg189
I0
sg53
(lp4301
I1095363701
asg44
VPT6M26.3007569S
p4302
sg192
I0
sg193
VP0DT0H0M0.6333S
p4303
sg48
(dp4304
g50
VTL StelluR
p4305
sg52
Nssa(dp4306
g41
VMedal
p4307
sg48
(dp4308
g50
VALGPredevonator
p4309
sg52
Nssg245
I3400287617
sg44
VPT6M29.6798629S
p4310
sa(dp4311
g47
I313138863
sg48
(dp4312
g50
VTL Spartan HCS
p4313
sg52
Nssg53
(lp4314
I1095363701
asg41
VWeaponPickup
p4315
sg44
VPT6M31.5309537S
p4316
sa(dp4317
g47
I4096745987
sg48
(dp4318
g50
VTL Spartan HCS
p4319
sg52
Nssg53
(lp4320
I2758383128
asg41
VWeaponPickup
p4321
sg44
VPT6M31.5319722S
p4322
sa(dp4323
g41
VPlayerSpawn
p4324
sg48
(dp4325
g50
VTL Spartan HCS
p4326
sg52
Nssg44
VPT6M31.5319722S
p4327
sa(dp4328
g204
I3808094875
sg205
I00
sg206
I00
sg207
(dp4329
g50
VALG RyaNoob
p4330
sg52
Nssg210
(lp4331
I2758383128
asg212
I00
sg213
I01
sg214
I1
sg215
I0
sg216
I1
sg217
(dp4332
Vy
F-1.35777247
sVx
F-14.539073
sVz
F2.5582482799999999
ssg219
(dp4333
Vy
F-3.9980266100000001
sVx
F-15.1736746
sVz
F2.4743621299999998
ssg221
I00
sg222
(dp4334
g50
VTL Danoxide
p4335
sg52
Nssg225
(lp4336
sg227
(lp4337
sg231
I00
sg44
VPT6M32.05098S
p4338
sg41
VDeath
p4339
sg234
I1
sa(dp4340
g47
I723523180
sg41
VWeaponDrop
p4341
sg189
I1
sg53
(lp4342
I2758383128
asg44
VPT6M32.0529724S
p4343
sg192
I0
sg193
VP0DT0H0M9.8167S
p4344
sg48
(dp4345
g50
VTL Danoxide
p4346
sg52
Nssa(dp4347
g47
I4108759423
sg41
VWeaponDrop
p4348
sg189
I0
sg53
(lp4349
I2758383128
asg44
VPT6M32.0529724S
p4350
sg192
I0
sg193
VP0DT0H0M8.8833S
p4351
sg48
(dp4352
g50
VTL Danoxide
p4353
sg52
Nssa(dp4354
g204
I4096745987
sg205
I00
sg206
I00
sg207
(dp4355
g50
VTL Eco HCS
p4356
sg52
Nssg210
(lp4357
I2758383128
asg212
I00
sg213
I01
sg214
I1
sg215
I0
sg216
I1
sg217
(dp4358
Vy
F-10.138783500000001
sVx
F-13.6771774
sVz
F1.0399204500000001
ssg219
(dp4359
Vy
F-1.82646084
sVx
F-17.695852299999999
sVz
F2.1056287299999998
ssg221
I00
sg222
(dp4360
g50
VALG RyaNoob
p4361
sg52
Nssg225
(lp4362
sg227
(lp4363
sg231
I01
sg44
VPT6M33.5300093S
p4364
sg41
VDeath
p4365
sg234
I1
sa(dp4366
g41
VImpulse
p4367
sg48
(dp4368
g50
VTL Eco HCS
p4369
sg52
Nssg239
I3174430457
sg44
VPT6M33.5320119S
p4370
sa(dp4371
g41
VMedal
p4372
sg48
(dp4373
g50
VTL Eco HCS
p4374
sg52
Nssg245
I3653057799
sg44
VPT6M33.5330118S
p4375
sa(dp4376
g47
I3808094875
sg41
VWeaponDrop
p4377
sg189
I16
sg53
(lp4378
I2758383128
asg44
VPT6M33.5330118S
p4379
sg192
I10
sg193
VP0DT0H0M9.5667S
p4380
sg48
(dp4381
g50
VALG RyaNoob
p4382
sg52
Nssa(dp4383
g47
I4108759423
sg41
VWeaponDrop
p4384
sg189
I13
sg53
(lp4385
I2758383128
asg44
VPT6M33.5330118S
p4386
sg192
I4
sg193
VP0DT0H0M22.4833S
p4387
sg48
(dp4388
g50
VALG RyaNoob
p4389
sg52
Nssa(dp4390
g47
I313138863
sg48
(dp4391
g50
VTL StelluR
p4392
sg52
Nssg53
(lp4393
I1095363701
asg41
VWeaponPickup
p4394
sg44
VPT6M34.3170661S
p4395
sa(dp4396
g47
I4096745987
sg48
(dp4397
g50
VTL StelluR
p4398
sg52
Nssg53
(lp4399
I2758383128
asg41
VWeaponPickup
p4400
sg44
VPT6M34.3170661S
p4401
sa(dp4402
g41
VPlayerSpawn
p4403
sg48
(dp4404
g50
VTL StelluR
p4405
sg52
Nssg44
VPT6M34.3170661S
p4406
sa(dp4407
g204
I313138863
sg205
I00
sg206
I00
sg207
(dp4408
g50
VALG ContrA HCS
p4409
sg52
Nssg210
(lp4410
I1095363701
asg212
I00
sg213
I01
sg214
I1
sg215
I0
sg216
I1
sg217
(dp4411
Vy
F-11.783054399999999
sVx
F-11.4079351
sVz
F1.0407002000000001
ssg219
(dp4412
Vy
F-11.402276000000001
sVx
F-12.630766899999999
sVz
F1.04022729
ssg221
I00
sg222
(dp4413
g50
VTL Eco HCS
p4414
sg52
Nssg225
(lp4415
sg227
(lp4416
(dp4417
g50
VALG Heinz HCS
p4418
sg52
Nsasg231
I00
sg44
VPT6M39.0182198S
p4419
sg41
VDeath
p4420
sg234
I1
sa(dp4421
g47
I313138863
sg41
VWeaponDrop
p4422
sg189
I0
sg53
(lp4423
I1095363701
asg44
VPT6M39.0212417S
p4424
sg192
I0
sg193
VP0DT0H0M1.5000S
p4425
sg48
(dp4426
g50
VTL Eco HCS
p4427
sg52
Nssa(dp4428
g47
I4096745987
sg41
VWeaponDrop
p4429
sg189
I11
sg53
(lp4430
I2758383128
asg44
VPT6M39.0212417S
p4431
sg192
I7
sg193
VP0DT0H0M13.2333S
p4432
sg48
(dp4433
g50
VTL Eco HCS
p4434
sg52
Nssa(dp4435
g47
I313138863
sg48
(dp4436
g50
VTL Danoxide
p4437
sg52
Nssg53
(lp4438
I1095363701
asg41
VWeaponPickup
p4439
sg44
VPT6M40.0642801S
p4440
sa(dp4441
g47
I4096745987
sg48
(dp4442
g50
VTL Danoxide
p4443
sg52
Nssg53
(lp4444
I2758383128
asg41
VWeaponPickup
p4445
sg44
VPT6M40.0642801S
p4446
sa(dp4447
g41
VPlayerSpawn
p4448
sg48
(dp4449
g50
VTL Danoxide
p4450
sg52
Nssg44
VPT6M40.0642801S
p4451
sa(dp4452
g47
I4096745987
sg41
VWeaponDrop
p4453
sg189
I6
sg53
(lp4454
I2758383128
asg44
VPT6M40.1792895S
p4455
sg192
I1
sg193
VP0DT0H0M26.5500S
p4456
sg48
(dp4457
g50
VALG Heinz HCS
p4458
sg52
Nssa(dp4459
g47
I523953283
sg48
(dp4460
g50
VALG Heinz HCS
p4461
sg52
Nssg53
(lp4462
I2208825748
asg41
VWeaponPickup
p4463
sg44
VPT6M40.1792895S
p4464
sa(dp4465
g47
I313138863
sg48
(dp4466
g50
VALG RyaNoob
p4467
sg52
Nssg53
(lp4468
I1095363701
asg41
VWeaponPickup
p4469
sg44
VPT6M41.5473437S
p4470
sa(dp4471
g47
I4096745987
sg48
(dp4472
g50
VALG RyaNoob
p4473
sg52
Nssg53
(lp4474
I2758383128
asg41
VWeaponPickup
p4475
sg44
VPT6M41.5473437S
p4476
sa(dp4477
g41
VPlayerSpawn
p4478
sg48
(dp4479
g50
VALG RyaNoob
p4480
sg52
Nssg44
VPT6M41.5473437S
p4481
sa(dp4482
g47
I313138863
sg41
VWeaponDrop
p4483
sg189
I14
sg53
(lp4484
I1095363701
asg44
VPT6M41.9793444S
p4485
sg192
I7
sg193
VP0DT0H0M5.5500S
p4486
sg48
(dp4487
g50
VALG ContrA HCS
p4488
sg52
Nssa(dp4489
g47
I723523180
sg48
(dp4490
g50
VALG ContrA HCS
p4491
sg52
Nssg53
(lp4492
I2758383128
asg41
VWeaponPickup
p4493
sg44
VPT6M41.9793444S
p4494
sa(dp4495
g47
I313138863
sg48
(dp4496
g50
VTL Eco HCS
p4497
sg52
Nssg53
(lp4498
I1095363701
asg41
VWeaponPickup
p4499
sg44
VPT6M47.0305346S
p4500
sa(dp4501
g47
I4096745987
sg48
(dp4502
g50
VTL Eco HCS
p4503
sg52
Nssg53
(lp4504
I2758383128
asg41
VWeaponPickup
p4505
sg44
VPT6M47.0305346S
p4506
sa(dp4507
g41
VPlayerSpawn
p4508
sg48
(dp4509
g50
VTL Eco HCS
p4510
sg52
Nssg44
VPT6M47.0305346S
p4511
sa(dp4512
g204
I4096745987
sg205
I00
sg206
I00
sg207
(dp4513
g50
VTL StelluR
p4514
sg52
Nssg210
(lp4515
I2758383128
asg212
I00
sg213
I01
sg214
I1
sg215
I0
sg216
I1
sg217
(dp4516
Vy
F17.489108999999999
sVx
F0.57990026500000003
sVz
F4.9951410000000003
ssg219
(dp4517
Vy
F14.360344899999999
sVx
F-10.8243647
sVz
F1.4747062900000001
ssg221
I00
sg222
(dp4518
g50
VALG Heinz HCS
p4519
sg52
Nssg225
(lp4520
sg227
(lp4521
sg231
I01
sg44
VPT6M53.5967808S
p4522
sg41
VDeath
p4523
sg234
I1
sa(dp4524
g41
VMedal
p4525
sg48
(dp4526
g50
VTL StelluR
p4527
sg52
Nssg245
I3261908037
sg44
VPT6M53.599807S
p4528
sa(dp4529
g47
I313138863
sg41
VWeaponDrop
p4530
sg189
I0
sg53
(lp4531
I1095363701
asg44
VPT6M53.6008034S
p4532
sg192
I0
sg193
VP0DT0H0M0.7667S
p4533
sg48
(dp4534
g50
VALG Heinz HCS
p4535
sg52
Nssa(dp4536
g47
I523953283
sg41
VWeaponDrop
p4537
sg189
I2
sg53
(lp4538
I2208825748
asg44
VPT6M53.6008034S
p4539
sg192
I2
sg193
VP0DT0H0M13.4167S
p4540
sg48
(dp4541
g50
VALG Heinz HCS
p4542
sg52
Nssa(dp4543
g204
I4096745987
sg205
I00
sg206
I00
sg207
(dp4544
g50
VTL StelluR
p4545
sg52
Nssg210
(lp4546
I2758383128
asg212
I00
sg213
I01
sg214
I1
sg215
I0
sg216
I1
sg217
(dp4547
Vy
F14.4423542
sVx
F3.9471244799999998
sVz
F2.973217
ssg219
(dp4548
Vy
F5.2019553199999997
sVx
F-4.36333942
sVz
F3.7802470000000001
ssg221
I00
sg222
(dp4549
g50
VALG RyaNoob
p4550
sg52
Nssg225
(lp4551
sg227
(lp4552
(dp4553
g50
VTL Eco HCS
p4554
sg52
Nsasg231
I01
sg44
VPT6M55.379851S
p4555
sg41
VDeath
p4556
sg234
I1
sa(dp4557
g41
VMedal
p4558
sg48
(dp4559
g50
VTL StelluR
p4560
sg52
Nssg245
I3261908037
sg44
VPT6M55.3821552S
p4561
sa(dp4562
g41
VMedal
p4563
sg48
(dp4564
g50
VTL StelluR
p4565
sg52
Nssg245
I2078758684
sg44
VPT6M55.3821552S
p4566
sa(dp4567
g47
I313138863
sg41
VWeaponDrop
p4568
sg189
I0
sg53
(lp4569
I1095363701
asg44
VPT6M55.3828738S
p4570
sg192
I0
sg193
VP0DT0H0M0.7167S
p4571
sg48
(dp4572
g50
VALG RyaNoob
p4573
sg52
Nssa(dp4574
g47
I4096745987
sg41
VWeaponDrop
p4575
sg189
I3
sg53
(lp4576
I2758383128
asg44
VPT6M55.3828738S
p4577
sg192
I2
sg193
VP0DT0H0M13.1167S
p4578
sg48
(dp4579
g50
VALG RyaNoob
p4580
sg52
Nssa(dp4581
g204
I669296699
sg205
I00
sg206
I00
sg207
(dp4582
g50
VALGPredevonator
p4583
sg52
Nssg210
(lp4584
I2758383128
asg212
I00
sg213
I01
sg214
I1
sg215
I0
sg216
I1
sg217
(dp4585
Vy
F4.8577050000000002
sVx
F-5.0825452799999997
sVz
F2.4518208499999998
ssg219
(dp4586
Vy
F12.6440725
sVx
F5.9277815800000004
sVz
F1.6753668799999999
ssg221
I00
sg222
(dp4587
g50
VTL Eco HCS
p4588
sg52
Nssg225
(lp4589
sg227
(lp4590
sg231
I01
sg44
VPT6M56.0968775S
p4591
sg41
VDeath
p4592
sg234
I1
sa(dp4593
g41
VMedal
p4594
sg48
(dp4595
g50
VALGPredevonator
p4596
sg52
Nssg245
I1986137636
sg44
VPT6M56.0979035S
p4597
sa(dp4598
g47
I4096745987
sg41
VWeaponDrop
p4599
sg189
I5
sg53
(lp4600
I2758383128
asg44
VPT6M56.0988988S
p4601
sg192
I4
sg193
VP0DT0H0M6.9500S
p4602
sg48
(dp4603
g50
VTL Eco HCS
p4604
sg52
Nssa(dp4605
g47
I313138863
sg41
VWeaponDrop
p4606
sg189
I0
sg53
(lp4607
I1095363701
asg44
VPT6M56.0998797S
p4608
sg192
I0
sg193
VP0DT0H0M2.1167S
p4609
sg48
(dp4610
g50
VTL Eco HCS
p4611
sg52
Nssa(dp4612
g204
I313138863
sg205
I00
sg206
I00
sg207
(dp4613
g50
VTL Spartan HCS
p4614
sg52
Nssg210
(lp4615
I1095363701
asg212
I00
sg213
I01
sg214
I1
sg215
I0
sg216
I1
sg217
(dp4616
Vy
F5.0408499999999998
sVx
F-5.7492766399999997
sVz
F2.45164728
ssg219
(dp4617
Vy
F9.1528200000000002
sVx
F-6.6124505999999998
sVz
F0.25407200000000002
ssg221
I00
sg222
(dp4618
g50
VALGPredevonator
p4619
sg52
Nssg225
(lp4620
sg227
(lp4621
(dp4622
g50
VTL Eco HCS
p4623
sg52
Nsa(dp4624
g50
VTL Danoxide
p4625
sg52
Nsasg231
I00
sg44
VPT6M58.9969884S
p4626
sg41
VDeath
p4627
sg234
I1
sa(dp4628
g47
I669296699
sg41
VWeaponDrop
p4629
sg189
I5
sg53
(lp4630
I2758383128
asg44
VPT6M58.9980088S
p4631
sg192
I3
sg193
VP0DT0H0M34.4667S
p4632
sg48
(dp4633
g50
VALGPredevonator
p4634
sg52
Nssa(dp4635
g47
I4096745987
sg41
VWeaponDrop
p4636
sg189
I18
sg53
(lp4637
I2758383128
asg44
VPT6M58.9980088S
p4638
sg192
I12
sg193
VP0DT0H0M37.7667S
p4639
sg48
(dp4640
g50
VALGPredevonator
p4641
sg52
Nssa(dp4642
g47
I313138863
sg41
VWeaponDrop
p4643
sg189
I19
sg53
(lp4644
I1095363701
asg44
VPT7M0.6460524S
p4645
sg192
I10
sg193
VP0DT0H0M12.7000S
p4646
sg48
(dp4647
g50
VTL Spartan HCS
p4648
sg52
Nssa(dp4649
g47
I669296699
sg48
(dp4650
g50
VTL Spartan HCS
p4651
sg52
Nssg53
(lp4652
I2758383128
asg41
VWeaponPickup
p4653
sg44
VPT7M0.6460524S
p4654
sa(dp4655
g47
I313138863
sg48
(dp4656
g50
VALG Heinz HCS
p4657
sg52
Nssg53
(lp4658
I1095363701
asg41
VWeaponPickup
p4659
sg44
VPT7M1.6141265S
p4660
sa(dp4661
g47
I4096745987
sg48
(dp4662
g50
VALG Heinz HCS
p4663
sg52
Nssg53
(lp4664
I2758383128
asg41
VWeaponPickup
p4665
sg44
VPT7M1.6141265S
p4666
sa(dp4667
g41
VPlayerSpawn
p4668
sg48
(dp4669
g50
VALG Heinz HCS
p4670
sg52
Nssg44
VPT7M1.6141265S
p4671
sa(dp4672
g47
I313138863
sg48
(dp4673
g50
VALG RyaNoob
p4674
sg52
Nssg53
(lp4675
I1095363701
asg41
VWeaponPickup
p4676
sg44
VPT7M3.414182S
p4677
sa(dp4678
g47
I4096745987
sg48
(dp4679
g50
VALG RyaNoob
p4680
sg52
Nssg53
(lp4681
I2758383128
asg41
VWeaponPickup
p4682
sg44
VPT7M3.414182S
p4683
sa(dp4684
g41
VPlayerSpawn
p4685
sg48
(dp4686
g50
VALG RyaNoob
p4687
sg52
Nssg44
VPT7M3.414182S
p4688
sa(dp4689
g47
I313138863
sg48
(dp4690
g50
VTL Eco HCS
p4691
sg52
Nssg53
(lp4692
I1095363701
asg41
VWeaponPickup
p4693
sg44
VPT7M4.131189S
p4694
sa(dp4695
g47
I4096745987
sg48
(dp4696
g50
VTL Eco HCS
p4697
sg52
Nssg53
(lp4698
I2758383128
asg41
VWeaponPickup
p4699
sg44
VPT7M4.131189S
p4700
sa(dp4701
g41
VPlayerSpawn
p4702
sg48
(dp4703
g50
VTL Eco HCS
p4704
sg52
Nssg44
VPT7M4.131189S
p4705
sa(dp4706
g47
I313138863
sg48
(dp4707
g50
VALGPredevonator
p4708
sg52
Nssg53
(lp4709
I1095363701
asg41
VWeaponPickup
p4710
sg44
VPT7M7.0302979S
p4711
sa(dp4712
g47
I4096745987
sg48
(dp4713
g50
VALGPredevonator
p4714
sg52
Nssg53
(lp4715
I2758383128
asg41
VWeaponPickup
p4716
sg44
VPT7M7.0313176S
p4717
sa(dp4718
g41
VPlayerSpawn
p4719
sg48
(dp4720
g50
VALGPredevonator
p4721
sg52
Nssg44
VPT7M7.0313176S
p4722
sa(dp4723
g47
I313138863
sg41
VWeaponDrop
p4724
sg189
I0
sg53
(lp4725
I1095363701
asg44
VPT7M10.1624387S
p4726
sg192
I0
sg193
VP0DT0H0M1.7333S
p4727
sg48
(dp4728
g50
VTL StelluR
p4729
sg52
Nssa(dp4730
g47
I523953283
sg48
(dp4731
g50
VTL StelluR
p4732
sg52
Nssg53
(lp4733
I2208825748
asg41
VWeaponPickup
p4734
sg44
VPT7M10.1624387S
p4735
sa(dp4736
g204
I723523180
sg205
I00
sg206
I00
sg207
(dp4737
g50
VALG ContrA HCS
p4738
sg52
Nssg210
(lp4739
I2758383128
asg212
I00
sg213
I01
sg214
I1
sg215
I0
sg216
I1
sg217
(dp4740
Vy
F5.3870849999999999
sVx
F-3.5947637600000002
sVz
F0.91738679999999995
ssg219
(dp4741
Vy
F8.0428300000000004
sVx
F-8.5970089999999999
sVz
F1.03140831
ssg221
I00
sg222
(dp4742
g50
VTL StelluR
p4743
sg52
Nssg225
(lp4744
sg227
(lp4745
sg231
I00
sg44
VPT7M16.329655S
p4746
sg41
VDeath
p4747
sg234
I1
sa(dp4748
g47
I523953283
sg41
VWeaponDrop
p4749
sg189
I1
sg53
(lp4750
I2208825748
asg44
VPT7M16.331691S
p4751
sg192
I1
sg193
VP0DT0H0M6.1667S
p4752
sg48
(dp4753
g50
VTL StelluR
p4754
sg52
Nssa(dp4755
g47
I4096745987
sg41
VWeaponDrop
p4756
sg189
I9
sg53
(lp4757
I2758383128
asg44
VPT7M16.331691S
p4758
sg192
I7
sg193
VP0DT0H0M34.1000S
p4759
sg48
(dp4760
g50
VTL StelluR
p4761
sg52
Nssa(dp4762
g204
I4096745987
sg205
I00
sg206
I00
sg207
(dp4763
g50
VALG RyaNoob
p4764
sg52
Nssg210
(lp4765
I2758383128
asg212
I00
sg213
I01
sg214
I1
sg215
I0
sg216
I1
sg217
(dp4766
Vy
F11.237559299999999
sVx
F4.0028843900000002
sVz
F2.2876219999999998
ssg219
(dp4767
Vy
F15.659443899999999
sVx
F-2.4475169999999999
sVz
F3.6664962800000001
ssg221
I00
sg222
(dp4768
g50
VTL Danoxide
p4769
sg52
Nssg225
(lp4770
sg227
(lp4771
(dp4772
g50
VALG Heinz HCS
p4773
sg52
Nsasg231
I01
sg44
VPT7M18.4967379S
p4774
sg41
VDeath
p4775
sg234
I1
sa(dp4776
g41
VMedal
p4777
sg48
(dp4778
g50
VALG RyaNoob
p4779
sg52
Nssg245
I3261908037
sg44
VPT7M18.4987457S
p4780
sa(dp4781
g47
I313138863
sg41
VWeaponDrop
p4782
sg189
I0
sg53
(lp4783
I1095363701
asg44
VPT7M18.4987457S
p4784
sg192
I0
sg193
VP0DT0H0M0.2833S
p4785
sg48
(dp4786
g50
VTL Danoxide
p4787
sg52
Nssa(dp4788
g47
I4096745987
sg41
VWeaponDrop
p4789
sg189
I4
sg53
(lp4790
I2758383128
asg44
VPT7M18.4987457S
p4791
sg192
I1
sg193
VP0DT0H0M38.1333S
p4792
sg48
(dp4793
g50
VTL Danoxide
p4794
sg52
Nssa(dp4795
g204
I4096745987
sg205
I00
sg206
I00
sg207
(dp4796
g50
VALGPredevonator
p4797
sg52
Nssg210
(lp4798
I2758383128
asg212
I00
sg213
I01
sg214
I1
sg215
I0
sg216
I1
sg217
(dp4799
Vy
F-6.1843185399999996
sVx
F0.32071143400000002
sVz
F-1.9878413699999999
ssg219
(dp4800
Vy
F-0.44875147900000001
sVx
F-3.7566199999999998
sVz
F-1.62526488
ssg221
I00
sg222
(dp4801
g50
VTL Eco HCS
p4802
sg52
Nssg225
(lp4803
sg227
(lp4804
(dp4805
g50
VALG ContrA HCS
p4806
sg52
Nsa(dp4807
g50
VALG RyaNoob
p4808
sg52
Nsasg231
I01
sg44
VPT7M21.1638403S
p4809
sg41
VDeath
p4810
sg234
I1
sa(dp4811
g41
VImpulse
p4812
sg48
(dp4813
g50
VALGPredevonator
p4814
sg52
Nssg239
I2556889090
sg44
VPT7M21.1648593S
p4815
sa(dp4816
g41
VMedal
p4817
sg48
(dp4818
g50
VALGPredevonator
p4819
sg52
Nssg245
I2838259753
sg44
VPT7M21.1648593S
p4820
sa(dp4821
g41
VMedal
p4822
sg48
(dp4823
g50
VALGPredevonator
p4824
sg52
Nssg245
I3261908037
sg44
VPT7M21.1658422S
p4825
sa(dp4826
g47
I313138863
sg41
VWeaponDrop
p4827
sg189
I0
sg53
(lp4828
I1095363701
asg44
VPT7M21.1668427S
p4829
sg192
I0
sg193
VP0DT0H0M12.4333S
p4830
sg48
(dp4831
g50
VTL Eco HCS
p4832
sg52
Nssa(dp4833
g47
I4096745987
sg41
VWeaponDrop
p4834
sg189
I4
sg53
(lp4835
I2758383128
asg44
VPT7M21.1668427S
p4836
sg192
I4
sg193
VP0DT0H0M4.6000S
p4837
sg48
(dp4838
g50
VTL Eco HCS
p4839
sg52
Nssa(dp4840
g47
I313138863
sg41
VWeaponDrop
p4841
sg189
I0
sg53
(lp4842
I1095363701
asg44
VPT7M21.8458906S
p4843
sg192
I0
sg193
VP0DT0H0M0.9500S
p4844
sg48
(dp4845
g50
VALGPredevonator
p4846
sg52
Nssa(dp4847
g47
I3808094875
sg48
(dp4848
g50
VALGPredevonator
p4849
sg52
Nssg53
(lp4850
I2758383128
asg41
VWeaponPickup
p4851
sg44
VPT7M21.8458906S
p4852
sa(dp4853
g47
I4096745987
sg41
VWeaponDrop
p4854
sg189
I5
sg53
(lp4855
I2758383128
asg44
VPT7M22.5289174S
p4856
sg192
I3
sg193
VP0DT0H0M18.3833S
p4857
sg48
(dp4858
g50
VALG RyaNoob
p4859
sg52
Nssa(dp4860
g47
I424645655
sg48
(dp4861
g50
VALG RyaNoob
p4862
sg52
Nssg53
(lp4863
I1327094800
asg41
VWeaponPickup
p4864
sg44
VPT7M22.5289174S
p4865
sa(dp4866
g47
I313138863
sg48
(dp4867
g50
VTL StelluR
p4868
sg52
Nssg53
(lp4869
I1095363701
asg41
VWeaponPickup
p4870
sg44
VPT7M24.3469628S
p4871
sa(dp4872
g47
I4096745987
sg48
(dp4873
g50
VTL StelluR
p4874
sg52
Nssg53
(lp4875
I2758383128
asg41
VWeaponPickup
p4876
sg44
VPT7M24.3479848S
p4877
sa(dp4878
g41
VPlayerSpawn
p4879
sg48
(dp4880
g50
VTL StelluR
p4881
sg52
Nssg44
VPT7M24.3479848S
p4882
sa(dp4883
g47
I313138863
sg48
(dp4884
g50
VTL Danoxide
p4885
sg52
Nssg53
(lp4886
I1095363701
asg41
VWeaponPickup
p4887
sg44
VPT7M26.5140688S
p4888
sa(dp4889
g47
I4096745987
sg48
(dp4890
g50
VTL Danoxide
p4891
sg52
Nssg53
(lp4892
I2758383128
asg41
VWeaponPickup
p4893
sg44
VPT7M26.5150475S
p4894
sa(dp4895
g41
VPlayerSpawn
p4896
sg48
(dp4897
g50
VTL Danoxide
p4898
sg52
Nssg44
VPT7M26.5150475S
p4899
sa(dp4900
g47
I313138863
sg48
(dp4901
g50
VTL Eco HCS
p4902
sg52
Nssg53
(lp4903
I1095363701
asg41
VWeaponPickup
p4904
sg44
VPT7M29.1801478S
p4905
sa(dp4906
g47
I4096745987
sg48
(dp4907
g50
VTL Eco HCS
p4908
sg52
Nssg53
(lp4909
I2758383128
asg41
VWeaponPickup
p4910
sg44
VPT7M29.1811718S
p4911
sa(dp4912
g41
VPlayerSpawn
p4913
sg48
(dp4914
g50
VTL Eco HCS
p4915
sg52
Nssg44
VPT7M29.1811718S
p4916
sa(dp4917
g204
I4096745987
sg205
I00
sg206
I00
sg207
(dp4918
g50
VTL Danoxide
p4919
sg52
Nssg210
(lp4920
I2758383128
asg212
I00
sg213
I01
sg214
I1
sg215
I0
sg216
I1
sg217
(dp4921
Vy
F-7.7986240000000002
sVx
F8.3028549999999992
sVz
F2.1443553
ssg219
(dp4922
Vy
F2.6703350000000001
sVx
F-8.2408389999999994
sVz
F1.1593631499999999
ssg221
I00
sg222
(dp4923
g50
VALGPredevonator
p4924
sg52
Nssg225
(lp4925
sg227
(lp4926
(dp4927
g50
VTL StelluR
p4928
sg52
Nsasg231
I00
sg44
VPT7M30.6462042S
p4929
sg41
VDeath
p4930
sg234
I1
sa(dp4931
g47
I3808094875
sg41
VWeaponDrop
p4932
sg189
I0
sg53
(lp4933
I2758383128
asg44
VPT7M30.6482361S
p4934
sg192
I0
sg193
VP0DT0H0M3.3833S
p4935
sg48
(dp4936
g50
VALGPredevonator
p4937
sg52
Nssa(dp4938
g47
I4096745987
sg41
VWeaponDrop
p4939
sg189
I5
sg53
(lp4940
I2758383128
asg44
VPT7M30.6482361S
p4941
sg192
I4
sg193
VP0DT0H0M19.2833S
p4942
sg48
(dp4943
g50
VALGPredevonator
p4944
sg52
Nssa(dp4945
g47
I313138863
sg41
VWeaponDrop
p4946
sg189
I0
sg53
(lp4947
I1095363701
asg44
VPT7M35.0123928S
p4948
sg192
I0
sg193
VP0DT0H0M1.2500S
p4949
sg48
(dp4950
g50
VTL Danoxide
p4951
sg52
Nssa(dp4952
g47
I723388907
sg48
(dp4953
g50
VTL Danoxide
p4954
sg52
Nssg53
(lp4955
I89283061
asg41
VWeaponPickup
p4956
sg44
VPT7M35.0123928S
p4957
sa(dp4958
g204
I4096745987
sg205
I00
sg206
I00
sg207
(dp4959
g50
VTL StelluR
p4960
sg52
Nssg210
(lp4961
I2758383128
asg212
I00
sg213
I01
sg214
I1
sg215
I0
sg216
I1
sg217
(dp4962
Vy
F0.014387012500000001
sVx
F13.5245371
sVz
F1.61465657
ssg219
(dp4963
Vy
F11.020838700000001
sVx
F16.877288799999999
sVz
F1.6546707199999999
ssg221
I00
sg222
(dp4964
g50
VALG RyaNoob
p4965
sg52
Nssg225
(lp4966
sg227
(lp4967
(dp4968
g50
VTL Danoxide
p4969
sg52
Nsa(dp4970
g50
VTL Eco HCS
p4971
sg52
Nsasg231
I01
sg44
VPT7M36.2634196S
p4972
sg41
VDeath
p4973
sg234
I1
sa(dp4974
g41
VImpulse
p4975
sg48
(dp4976
g50
VTL StelluR
p4977
sg52
Nssg239
I2556889090
sg44
VPT7M36.2644445S
p4978
sa(dp4979
g41
VMedal
p4980
sg48
(dp4981
g50
VTL StelluR
p4982
sg52
Nssg245
I2838259753
sg44
VPT7M36.2644445S
p4983
sa(dp4984
g41
VMedal
p4985
sg48
(dp4986
g50
VTL StelluR
p4987
sg52
Nssg245
I3261908037
sg44
VPT7M36.2654225S
p4988
sa(dp4989
g47
I313138863
sg41
VWeaponDrop
p4990
sg189
I0
sg53
(lp4991
I1095363701
asg44
VPT7M36.2664451S
p4992
sg192
I0
sg193
VP0DT0H0M0.7333S
p4993
sg48
(dp4994
g50
VALG RyaNoob
p4995
sg52
Nssa(dp4996
g47
I424645655
sg41
VWeaponDrop
p4997
sg189
I15
sg53
(lp4998
I1327094800
asg44
VPT7M36.2664451S
p4999
sg192
I12
sg193
VP0DT0H0M13.7333S
p5000
sg48
(dp5001
g50
VALG RyaNoob
p5002
sg52
Nssa(dp5003
g47
I313138863
sg41
VWeaponDrop
p5004
sg189
I1
sg53
(lp5005
I1095363701
asg44
VPT7M36.3454477S
p5006
sg192
I1
sg193
VPT0S
p5007
sg48
(dp5008
g50
VALG RyaNoob
p5009
sg52
Nssa(dp5010
g47
I313138863
sg48
(dp5011
g50
VALGPredevonator
p5012
sg52
Nssg53
(lp5013
I1095363701
asg41
VWeaponPickup
p5014
sg44
VPT7M38.6635127S
p5015
sa(dp5016
g47
I4096745987
sg48
(dp5017
g50
VALGPredevonator
p5018
sg52
Nssg53
(lp5019
I2758383128
asg41
VWeaponPickup
p5020
sg44
VPT7M38.6645326S
p5021
sa(dp5022
g41
VPlayerSpawn
p5023
sg48
(dp5024
g50
VALGPredevonator
p5025
sg52
Nssg44
VPT7M38.6645326S
p5026
sa(dp5027
g47
I313138863
sg48
(dp5028
g50
VALG RyaNoob
p5029
sg52
Nssg53
(lp5030
I1095363701
asg41
VWeaponPickup
p5031
sg44
VPT7M44.2807539S
p5032
sa(dp5033
g47
I4096745987
sg48
(dp5034
g50
VALG RyaNoob
p5035
sg52
Nssg53
(lp5036
I2758383128
asg41
VWeaponPickup
p5037
sg44
VPT7M44.2807539S
p5038
sa(dp5039
g41
VPlayerSpawn
p5040
sg48
(dp5041
g50
VALG RyaNoob
p5042
sg52
Nssg44
VPT7M44.2807539S
p5043
sa(dp5044
g47
I313138863
sg41
VWeaponDrop
p5045
sg189
I0
sg53
(lp5046
I1095363701
asg44
VPT7M49.3449555S
p5047
sg192
I0
sg193
VP0DT0H0M2.1667S
p5048
sg48
(dp5049
g50
VTL StelluR
p5050
sg52
Nssa(dp5051
g47
I523953283
sg48
(dp5052
g50
VTL StelluR
p5053
sg52
Nssg53
(lp5054
I2208825748
asg41
VWeaponPickup
p5055
sg44
VPT7M49.3461683S
p5056
sa(dp5057
g47
I4096745987
sg41
VWeaponDrop
p5058
sg189
I10
sg53
(lp5059
I2758383128
asg44
VPT7M54.7291502S
p5060
sg192
I3
sg193
VP0DT0H0M26.4500S
p5061
sg48
(dp5062
g50
VTL Danoxide
p5063
sg52
Nssa(dp5064
g47
I424645655
sg48
(dp5065
g50
VTL Danoxide
p5066
sg52
Nssg53
(lp5067
I1327094800
asg41
VWeaponPickup
p5068
sg44
VPT7M54.7291502S
p5069
sa(dp5070
g204
I4096745987
sg205
I00
sg206
I00
sg207
(dp5071
g50
VALGPredevonator
p5072
sg52
Nssg210
(lp5073
I2758383128
asg212
I00
sg213
I01
sg214
I1
sg215
I0
sg216
I1
sg217
(dp5074
Vy
F15.444763200000001
sVx
F-0.515450835
sVz
F4.373742
ssg219
(dp5075
Vy
F15.8734217
sVx
F2.86591744
sVz
F2.9732167700000001
ssg221
I00
sg222
(dp5076
g50
VTL Eco HCS
p5077
sg52
Nssg225
(lp5078
sg227
(lp5079
(dp5080
g50
VALG Heinz HCS
p5081
sg52
Nsasg231
I01
sg44
VPT7M58.3972708S
p5082
sg41
VDeath
p5083
sg234
I1
sa(dp5084
g41
VMedal
p5085
sg48
(dp5086
g50
VALGPredevonator
p5087
sg52
Nssg245
I3261908037
sg44
VPT7M58.3982894S
p5088
sa(dp5089
g47
I4096745987
sg41
VWeaponDrop
p5090
sg189
I8
sg53
(lp5091
I2758383128
asg44
VPT7M58.3992907S
p5092
sg192
I5
sg193
VP0DT0H0M28.4167S
p5093
sg48
(dp5094
g50
VTL Eco HCS
p5095
sg52
Nssa(dp5096
g47
I313138863
sg41
VWeaponDrop
p5097
sg189
I0
sg53
(lp5098
I1095363701
asg44
VPT7M58.4002893S
p5099
sg192
I0
sg193
VP0DT0H0M0.8000S
p5100
sg48
(dp5101
g50
VTL Eco HCS
p5102
sg52
Nssa(dp5103
g204
I723388907
sg205
I00
sg206
I01
sg207
(dp5104
g50
VTL Danoxide
p5105
sg52
Nssg210
(lp5106
I89283061
asg212
I00
sg213
I00
sg214
I1
sg215
I0
sg216
I1
sg217
(dp5107
Vy
F5.1087984999999998
sVx
F-4.9097730000000004
sVz
F0.85091890000000003
ssg219
(dp5108
Vy
F4.78002357
sVx
F-5.3796239999999997
sVz
F0.85557879999999997
ssg221
I00
sg222
(dp5109
g50
VALG Heinz HCS
p5110
sg52
Nssg225
(lp5111
sg227
(lp5112
(dp5113
g50
VTL Eco HCS
p5114
sg52
Nsasg231
I00
sg44
VPT7M59.4633103S
p5115
sg41
VDeath
p5116
sg234
I1
sa(dp5117
g41
VMedal
p5118
sg48
(dp5119
g50
VTL Danoxide
p5120
sg52
Nssg245
I2287626681
sg44
VPT7M59.4653123S
p5121
sa(dp5122
g47
I4096745987
sg41
VWeaponDrop
p5123
sg189
I4
sg53
(lp5124
I2758383128
asg44
VPT7M59.4653123S
p5125
sg192
I1
sg193
VP0DT0H0M52.7167S
p5126
sg48
(dp5127
g50
VALG Heinz HCS
p5128
sg52
Nssa(dp5129
g47
I313138863
sg41
VWeaponDrop
p5130
sg189
I0
sg53
(lp5131
I1095363701
asg44
VPT7M59.4663119S
p5132
sg192
I0
sg193
VP0DT0H0M5.1167S
p5133
sg48
(dp5134
g50
VALG Heinz HCS
p5135
sg52
Nssa(dp5136
g47
I723523180
sg41
VWeaponDrop
p5137
sg189
I3
sg53
(lp5138
I2758383128
asg44
VPT8M4.9285473S
p5139
sg192
I2
sg193
VP0DT0H0M38.1833S
p5140
sg48
(dp5141
g50
VALG ContrA HCS
p5142
sg52
Nssa(dp5143
g47
I4108759423
sg48
(dp5144
g50
VALG ContrA HCS
p5145
sg52
Nssg53
(lp5146
I2758383128
asg41
VWeaponPickup
p5147
sg44
VPT8M4.9295452S
p5148
sa(dp5149
g47
I723388907
sg41
VWeaponDrop
p5150
sg189
I8
sg53
(lp5151
I89283061
asg44
VPT8M5.0788037S
p5152
sg192
I1
sg193
VP0DT0H0M7.5167S
p5153
sg48
(dp5154
g50
VTL Danoxide
p5155
sg52
Nssa(dp5156
g47
I723388907
sg41
VWeaponDrop
p5157
sg189
I0
sg53
(lp5158
I89283061
asg44
VPT8M5.0788037S
p5159
sg192
I0
sg193
VP0DT0S
p5160
sg48
(dp5161
g50
VTL Danoxide
p5162
sg52
Nssa(dp5163
g47
I3808094875
sg48
(dp5164
g50
VTL Danoxide
p5165
sg52
Nssg53
(lp5166
I2758383128
asg41
VWeaponPickup
p5167
sg44
VPT8M5.0788037S
p5168
sa(dp5169
g47
I313138863
sg48
(dp5170
g50
VTL Eco HCS
p5171
sg52
Nssg53
(lp5172
I1095363701
asg41
VWeaponPickup
p5173
sg44
VPT8M6.4145969S
p5174
sa(dp5175
g47
I4096745987
sg48
(dp5176
g50
VTL Eco HCS
p5177
sg52
Nssg53
(lp5178
I2758383128
asg41
VWeaponPickup
p5179
sg44
VPT8M6.4145969S
p5180
sa(dp5181
g41
VPlayerSpawn
p5182
sg48
(dp5183
g50
VTL Eco HCS
p5184
sg52
Nssg44
VPT8M6.4145969S
p5185
sa(dp5186
g47
I313138863
sg48
(dp5187
g50
VALG Heinz HCS
p5188
sg52
Nssg53
(lp5189
I1095363701
asg41
VWeaponPickup
p5190
sg44
VPT8M7.4806187S
p5191
sa(dp5192
g47
I4096745987
sg48
(dp5193
g50
VALG Heinz HCS
p5194
sg52
Nssg53
(lp5195
I2758383128
asg41
VWeaponPickup
p5196
sg44
VPT8M7.4816382S
p5197
sa(dp5198
g41
VPlayerSpawn
p5199
sg48
(dp5200
g50
VALG Heinz HCS
p5201
sg52
Nssg44
VPT8M7.4816382S
p5202
sa(dp5203
g204
I4096745987
sg205
I00
sg206
I00
sg207
(dp5204
g50
VTL Eco HCS
p5205
sg52
Nssg210
(lp5206
I2758383128
asg212
I00
sg213
I01
sg214
I1
sg215
I0
sg216
I1
sg217
(dp5207
Vy
F3.40242529
sVx
F-6.8993063000000001
sVz
F2.4496500000000001
ssg219
(dp5208
Vy
F-11.803303700000001
sVx
F-2.1634168599999999
sVz
F3.3989940000000001
ssg221
I00
sg222
(dp5209
g50
VALG ContrA HCS
p5210
sg52
Nssg225
(lp5211
sg227
(lp5212
(dp5213
g50
VTL Spartan HCS
p5214
sg52
Nsasg231
I00
sg44
VPT8M12.5798148S
p5215
sg41
VDeath
p5216
sg234
I1
sa(dp5217
g47
I4108759423
sg41
VWeaponDrop
p5218
sg189
I14
sg53
(lp5219
I2758383128
asg44
VPT8M12.5828354S
p5220
sg192
I3
sg193
VP0DT0H0M7.1667S
p5221
sg48
(dp5222
g50
VALG ContrA HCS
p5223
sg52
Nssa(dp5224
g47
I4096745987
sg41
VWeaponDrop
p5225
sg189
I15
sg53
(lp5226
I2758383128
asg44
VPT8M12.5848369S
p5227
sg192
I6
sg193
VP0DT0H1M5.8833S
p5228
sg48
(dp5229
g50
VALG ContrA HCS
p5230
sg52
Nssa(dp5231
g47
I4096745987
sg41
VWeaponDrop
p5232
sg189
I4
sg53
(lp5233
I2758383128
asg44
VPT8M14.1288984S
p5234
sg192
I2
sg193
VP0DT0H0M7.2167S
p5235
sg48
(dp5236
g50
VTL Eco HCS
p5237
sg52
Nssa(dp5238
g47
I523953283
sg48
(dp5239
g50
VTL Eco HCS
p5240
sg52
Nssg53
(lp5241
I2208825748
asg41
VWeaponPickup
p5242
sg44
VPT8M14.1288984S
p5243
sa(dp5244
g204
I4096745987
sg205
I00
sg206
I00
sg207
(dp5245
g50
VALG RyaNoob
p5246
sg52
Nssg210
(lp5247
I2758383128
asg212
I00
sg213
I01
sg214
I1
sg215
I0
sg216
I1
sg217
(dp5248
Vy
F12.8889294
sVx
F3.28500462
sVz
F2.2876219999999998
ssg219
(dp5249
Vy
F6.7096014000000004
sVx
F3.438107
sVz
F4.0893040000000003
ssg221
I00
sg222
(dp5250
g50
VTL Danoxide
p5251
sg52
Nssg225
(lp5252
sg227
(lp5253
sg231
I01
sg44
VPT8M14.9299052S
p5254
sg41
VDeath
p5255
sg234
I1
sa(dp5256
g41
VMedal
p5257
sg48
(dp5258
g50
VALG RyaNoob
p5259
sg52
Nssg245
I3261908037
sg44
VPT8M14.932923S
p5260
sa(dp5261
g47
I3808094875
sg41
VWeaponDrop
p5262
sg189
I0
sg53
(lp5263
I2758383128
asg44
VPT8M14.932923S
p5264
sg192
I0
sg193
VP0DT0H0M1.5667S
p5265
sg48
(dp5266
g50
VTL Danoxide
p5267
sg52
Nssa(dp5268
g47
I424645655
sg41
VWeaponDrop
p5269
sg189
I21
sg53
(lp5270
I1327094800
asg44
VPT8M14.932923S
p5271
sg192
I7
sg193
VP0DT0H0M11.6333S
p5272
sg48
(dp5273
g50
VTL Danoxide
p5274
sg52
Nssa(dp5275
g204
I523953283
sg205
I00
sg206
I00
sg207
(dp5276
g50
VTL StelluR
p5277
sg52
Nssg210
(lp5278
I2208825748
asg212
I00
sg213
I01
sg214
I1
sg215
I0
sg216
I1
sg217
(dp5279
Vy
F11.0342693
sVx
F3.3920815000000002
sVz
F2.2876219999999998
ssg219
(dp5280
Vy
F11.622948600000001
sVx
F3.8419988200000001
sVz
F2.2876219999999998
ssg221
I00
sg222
(dp5281
g50
VALG RyaNoob
p5282
sg52
Nssg225
(lp5283
sg227
(lp5284
(dp5285
g50
VTL Danoxide
p5286
sg52
Nsasg231
I01
sg44
VPT8M15.7799371S
p5287
sg41
VDeath
p5288
sg234
I1
sa(dp5289
g41
VMedal
p5290
sg48
(dp5291
g50
VTL StelluR
p5292
sg52
Nssg245
I3261908037
sg44
VPT8M15.7809399S
p5293
sa(dp5294
g47
I313138863
sg41
VWeaponDrop
p5295
sg189
I0
sg53
(lp5296
I1095363701
asg44
VPT8M15.7819603S
p5297
sg192
I0
sg193
VP0DT0H0M4.4000S
p5298
sg48
(dp5299
g50
VALG RyaNoob
p5300
sg52
Nssa(dp5301
g47
I4096745987
sg41
VWeaponDrop
p5302
sg189
I8
sg53
(lp5303
I2758383128
asg44
VPT8M15.7819603S
p5304
sg192
I5
sg193
VP0DT0H0M27.1000S
p5305
sg48
(dp5306
g50
VALG RyaNoob
p5307
sg52
Nssa(dp5308
g204
I523953283
sg205
I00
sg206
I00
sg207
(dp5309
g50
VTL Eco HCS
p5310
sg52
Nssg210
(lp5311
I2208825748
asg212
I00
sg213
I01
sg214
I1
sg215
I0
sg216
I1
sg217
(dp5312
Vy
F8.6358859999999993
sVx
F-3.2614734200000002
sVz
F1.32039452
ssg219
(dp5313
Vy
F7.3900942799999996
sVx
F2.86492944
sVz
F0.74889799999999995
ssg221
I00
sg222
(dp5314
g50
VALGPredevonator
p5315
sg52
Nssg225
(lp5316
sg227
(lp5317
sg231
I01
sg44
VPT8M20.1801063S
p5318
sg41
VDeath
p5319
sg234
I1
sa(dp5320
g41
VMedal
p5321
sg48
(dp5322
g50
VTL StelluR
p5323
sg52
Nssg245
I824733727
sg44
VPT8M20.182129S
p5324
sa(dp5325
g41
VMedal
p5326
sg48
(dp5327
g50
VTL Eco HCS
p5328
sg52
Nssg245
I3261908037
sg44
VPT8M20.182129S
p5329
sa(dp5330
g47
I313138863
sg41
VWeaponDrop
p5331
sg189
I0
sg53
(lp5332
I1095363701
asg44
VPT8M20.1831347S
p5333
sg192
I0
sg193
VP0DT0H0M3.9167S
p5334
sg48
(dp5335
g50
VALGPredevonator
p5336
sg52
Nssa(dp5337
g47
I4096745987
sg41
VWeaponDrop
p5338
sg189
I16
sg53
(lp5339
I2758383128
asg44
VPT8M20.1831347S
p5340
sg192
I8
sg193
VP0DT0H0M37.6000S
p5341
sg48
(dp5342
g50
VALGPredevonator
p5343
sg52
Nssa(dp5344
g47
I313138863
sg41
VWeaponDrop
p5345
sg189
I0
sg53
(lp5346
I1095363701
asg44
VPT8M20.3291474S
p5347
sg192
I0
sg193
VP0DT0H0M4.9833S
p5348
sg48
(dp5349
g50
VALG Heinz HCS
p5350
sg52
Nssa(dp5351
g47
I723523180
sg48
(dp5352
g50
VALG Heinz HCS
p5353
sg52
Nssg53
(lp5354
I2758383128
asg41
VWeaponPickupPad
p5355
sg44
VPT8M20.3291474S
p5356
sa(dp5357
g47
I723523180
sg48
(dp5358
g50
VALG Heinz HCS
p5359
sg52
Nssg53
(lp5360
I2758383128
asg41
VWeaponPickup
p5361
sg44
VPT8M20.3291474S
p5362
sa(dp5363
g47
I313138863
sg48
(dp5364
g50
VALG ContrA HCS
p5365
sg52
Nssg53
(lp5366
I1095363701
asg41
VWeaponPickup
p5367
sg44
VPT8M20.597148S
p5368
sa(dp5369
g47
I4096745987
sg48
(dp5370
g50
VALG ContrA HCS
p5371
sg52
Nssg53
(lp5372
I2758383128
asg41
VWeaponPickup
p5373
sg44
VPT8M20.597148S
p5374
sa(dp5375
g41
VPlayerSpawn
p5376
sg48
(dp5377
g50
VALG ContrA HCS
p5378
sg52
Nssg44
VPT8M20.597148S
p5379
sa(dp5380
g204
I723523180
sg205
I00
sg206
I00
sg207
(dp5381
g50
VALG Heinz HCS
p5382
sg52
Nssg210
(lp5383
I2758383128
asg212
I00
sg213
I01
sg214
I1
sg215
I0
sg216
I1
sg217
(dp5384
Vy
F-6.9581039999999996
sVx
F-1.4077782599999999
sVz
F-1.4971635299999999
ssg219
(dp5385
Vy
F-8.0647990000000007
sVx
F-0.90858839999999996
sVz
F-1.98313355
ssg221
I00
sg222
(dp5386
g50
VTL Spartan HCS
p5387
sg52
Nssg225
(lp5388
sg227
(lp5389
sg231
I00
sg44
VPT8M21.7961686S
p5390
sg41
VDeath
p5391
sg234
I1
sa(dp5392
g47
I669296699
sg41
VWeaponDrop
p5393
sg189
I3
sg53
(lp5394
I2758383128
asg44
VPT8M21.798188S
p5395
sg192
I1
sg193
VP0DT0H1M17.2500S
p5396
sg48
(dp5397
g50
VTL Spartan HCS
p5398
sg52
Nssa(dp5399
g47
I4096745987
sg41
VWeaponDrop
p5400
sg189
I2
sg53
(lp5401
I2758383128
asg44
VPT8M21.798188S
p5402
sg192
I0
sg193
VP0DT0H0M20.3000S
p5403
sg48
(dp5404
g50
VTL Spartan HCS
p5405
sg52
Nssa(dp5406
g47
I4096745987
sg41
VWeaponDrop
p5407
sg189
I15
sg53
(lp5408
I2758383128
asg44
VPT8M22.6792051S
p5409
sg192
I6
sg193
VP0DT0H0M27.1500S
p5410
sg48
(dp5411
g50
VTL StelluR
p5412
sg52
Nssa(dp5413
g47
I3808094875
sg48
(dp5414
g50
VTL StelluR
p5415
sg52
Nssg53
(lp5416
I2758383128
asg41
VWeaponPickup
p5417
sg44
VPT8M22.6792051S
p5418
sa(dp5419
g47
I313138863
sg48
(dp5420
g50
VTL Danoxide
p5421
sg52
Nssg53
(lp5422
I1095363701
asg41
VWeaponPickup
p5423
sg44
VPT8M22.9472351S
p5424
sa(dp5425
g47
I4096745987
sg48
(dp5426
g50
VTL Danoxide
p5427
sg52
Nssg53
(lp5428
I2758383128
asg41
VWeaponPickup
p5429
sg44
VPT8M22.9472351S
p5430
sa(dp5431
g41
VPlayerSpawn
p5432
sg48
(dp5433
g50
VTL Danoxide
p5434
sg52
Nssg44
VPT8M22.9472351S
p5435
sa(dp5436
g47
I313138863
sg48
(dp5437
g50
VALG RyaNoob
p5438
sg52
Nssg53
(lp5439
I1095363701
asg41
VWeaponPickup
p5440
sg44
VPT8M23.797245S
p5441
sa(dp5442
g47
I4096745987
sg48
(dp5443
g50
VALG RyaNoob
p5444
sg52
Nssg53
(lp5445
I2758383128
asg41
VWeaponPickup
p5446
sg44
VPT8M23.7982704S
p5447
sa(dp5448
g41
VPlayerSpawn
p5449
sg48
(dp5450
g50
VALG RyaNoob
p5451
sg52
Nssg44
VPT8M23.7982704S
p5452
sa(dp5453
g47
I313138863
sg41
VWeaponDrop
p5454
sg189
I0
sg53
(lp5455
I1095363701
asg44
VPT8M25.7793215S
p5456
sg192
I0
sg193
VP0DT0H0M0.6500S
p5457
sg48
(dp5458
g50
VALG ContrA HCS
p5459
sg52
Nssa(dp5460
g47
I723388907
sg48
(dp5461
g50
VALG ContrA HCS
p5462
sg52
Nssg53
(lp5463
I89283061
asg41
VWeaponPickup
p5464
sg44
VPT8M25.7793215S
p5465
sa(dp5466
g47
I313138863
sg48
(dp5467
g50
VALGPredevonator
p5468
sg52
Nssg53
(lp5469
I1095363701
asg41
VWeaponPickup
p5470
sg44
VPT8M28.1974514S
p5471
sa(dp5472
g47
I4096745987
sg48
(dp5473
g50
VALGPredevonator
p5474
sg52
Nssg53
(lp5475
I2758383128
asg41
VWeaponPickup
p5476
sg44
VPT8M28.1984388S
p5477
sa(dp5478
g41
VPlayerSpawn
p5479
sg48
(dp5480
g50
VALGPredevonator
p5481
sg52
Nssg44
VPT8M28.1984388S
p5482
sa(dp5483
g47
I313138863
sg48
(dp5484
g50
VTL Spartan HCS
p5485
sg52
Nssg53
(lp5486
I1095363701
asg41
VWeaponPickup
p5487
sg44
VPT8M29.8134768S
p5488
sa(dp5489
g47
I4096745987
sg48
(dp5490
g50
VTL Spartan HCS
p5491
sg52
Nssg53
(lp5492
I2758383128
asg41
VWeaponPickup
p5493
sg44
VPT8M29.8144783S
p5494
sa(dp5495
g41
VPlayerSpawn
p5496
sg48
(dp5497
g50
VTL Spartan HCS
p5498
sg52
Nssg44
VPT8M29.8144783S
p5499
sa(dp5500
g204
I723388907
sg205
I00
sg206
I00
sg207
(dp5501
g50
VALG ContrA HCS
p5502
sg52
Nssg210
(lp5503
I89283061
asg212
I00
sg213
I01
sg214
I1
sg215
I0
sg216
I1
sg217
(dp5504
Vy
F4.4453760000000004
sVx
F-0.081398189999999995
sVz
F-1.29405725
ssg219
(dp5505
Vy
F-1.60381913
sVx
F-0.32162049999999998
sVz
F0.62095529999999999
ssg221
I00
sg222
(dp5506
g50
VTL Eco HCS
p5507
sg52
Nssg225
(lp5508
sg227
(lp5509
sg231
I00
sg44
VPT8M34.1976447S
p5510
sg41
VDeath
p5511
sg234
I1
sa(dp5512
g47
I313138863
sg41
VWeaponDrop
p5513
sg189
I0
sg53
(lp5514
I1095363701
asg44
VPT8M34.1996454S
p5515
sg192
I0
sg193
VP0DT0H0M0.5000S
p5516
sg48
(dp5517
g50
VTL Eco HCS
p5518
sg52
Nssa(dp5519
g47
I523953283
sg41
VWeaponDrop
p5520
sg189
I15
sg53
(lp5521
I2208825748
asg44
VPT8M34.1996454S
p5522
sg192
I9
sg193
VP0DT0H0M20.0667S
p5523
sg48
(dp5524
g50
VTL Eco HCS
p5525
sg52
Nssa(dp5526
g47
I313138863
sg41
VWeaponDrop
p5527
sg189
I0
sg53
(lp5528
I1095363701
asg44
VPT8M35.1957054S
p5529
sg192
I0
sg193
VP0DT0H0M2.0833S
p5530
sg48
(dp5531
g50
VTL Spartan HCS
p5532
sg52
Nssa(dp5533
g47
I669296699
sg48
(dp5534
g50
VTL Spartan HCS
p5535
sg52
Nssg53
(lp5536
I2758383128
asg41
VWeaponPickup
p5537
sg44
VPT8M35.1957054S
p5538
sa(dp5539
g47
I4096745987
sg41
VWeaponDrop
p5540
sg189
I5
sg53
(lp5541
I2758383128
asg44
VPT8M37.0957832S
p5542
sg192
I1
sg193
VP0DT0H0M12.3833S
p5543
sg48
(dp5544
g50
VALG RyaNoob
p5545
sg52
Nssa(dp5546
g47
I523953283
sg48
(dp5547
g50
VALG RyaNoob
p5548
sg52
Nssg53
(lp5549
I2208825748
asg41
VWeaponPickup
p5550
sg44
VPT8M37.0957832S
p5551
sa(dp5552
g204
I523953283
sg205
I00
sg206
I00
sg207
(dp5553
g50
VTL StelluR
p5554
sg52
Nssg210
(lp5555
I2208825748
asg212
I00
sg213
I01
sg214
I1
sg215
I0
sg216
I1
sg217
(dp5556
Vy
F3.6815730000000002
sVx
F0.51877176800000002
sVz
F-1.69705617
ssg219
(dp5557
Vy
F-0.15560005599999999
sVx
F-3.3463096600000002
sVz
F-1.4540109999999999
ssg221
I00
sg222
(dp5558
g50
VALG ContrA HCS
p5559
sg52
Nssg225
(lp5560
sg227
(lp5561
(dp5562
g50
VTL Eco HCS
p5563
sg52
Nsasg231
I00
sg44
VPT8M38.3798039S
p5564
sg41
VDeath
p5565
sg234
I1
sa(dp5566
g41
VMedal
p5567
sg48
(dp5568
g50
VTL Spartan HCS
p5569
sg52
Nssg245
I824733727
sg44
VPT8M38.3808264S
p5570
sa(dp5571
g47
I723388907
sg41
VWeaponDrop
p5572
sg189
I25
sg53
(lp5573
I89283061
asg44
VPT8M38.3819585S
p5574
sg192
I16
sg193
VP0DT0H0M9.0167S
p5575
sg48
(dp5576
g50
VALG ContrA HCS
p5577
sg52
Nssa(dp5578
g47
I4096745987
sg41
VWeaponDrop
p5579
sg189
I1
sg53
(lp5580
I2758383128
asg44
VPT8M38.3819585S
p5581
sg192
I0
sg193
VP0DT0H0M8.1167S
p5582
sg48
(dp5583
g50
VALG ContrA HCS
p5584
sg52
Nssa(dp5585
g47
I313138863
sg48
(dp5586
g50
VTL Eco HCS
p5587
sg52
Nssg53
(lp5588
I1095363701
asg41
VWeaponPickup
p5589
sg44
VPT8M42.2179522S
p5590
sa(dp5591
g47
I4096745987
sg48
(dp5592
g50
VTL Eco HCS
p5593
sg52
Nssg53
(lp5594
I2758383128
asg41
VWeaponPickup
p5595
sg44
VPT8M42.2189805S
p5596
sa(dp5597
g41
VPlayerSpawn
p5598
sg48
(dp5599
g50
VTL Eco HCS
p5600
sg52
Nssg44
VPT8M42.2189805S
p5601
sa(dp5602
g204
I523953283
sg205
I00
sg206
I00
sg207
(dp5603
g50
VALG RyaNoob
p5604
sg52
Nssg210
(lp5605
I2208825748
asg212
I00
sg213
I01
sg214
I1
sg215
I0
sg216
I1
sg217
(dp5606
Vy
F4.1568212500000001
sVx
F-2.25116038
sVz
F3.7776925600000002
ssg219
(dp5607
Vy
F-1.2073295100000001
sVx
F15.423864399999999
sVz
F1.61475587
ssg221
I00
sg222
(dp5608
g50
VTL Spartan HCS
p5609
sg52
Nssg225
(lp5610
sg227
(lp5611
sg231
I01
sg44
VPT8M43.9970216S
p5612
sg41
VDeath
p5613
sg234
I1
sa(dp5614
g41
VMedal
p5615
sg48
(dp5616
g50
VALG RyaNoob
p5617
sg52
Nssg245
I3261908037
sg44
VPT8M43.9980463S
p5618
sa(dp5619
g47
I669296699
sg41
VWeaponDrop
p5620
sg189
I0
sg53
(lp5621
I2758383128
asg44
VPT8M43.9990467S
p5622
sg192
I0
sg193
VP0DT0H0M6.8500S
p5623
sg48
(dp5624
g50
VTL Spartan HCS
p5625
sg52
Nssa(dp5626
g47
I4096745987
sg41
VWeaponDrop
p5627
sg189
I0
sg53
(lp5628
I2758383128
asg44
VPT8M43.9990467S
p5629
sg192
I0
sg193
VP0DT0H0M5.2500S
p5630
sg48
(dp5631
g50
VTL Spartan HCS
p5632
sg52
Nssa(dp5633
g204
I3808094875
sg205
I00
sg206
I00
sg207
(dp5634
g50
VTL StelluR
p5635
sg52
Nssg210
(lp5636
I2758383128
asg212
I00
sg213
I01
sg214
I1
sg215
I0
sg216
I1
sg217
(dp5637
Vy
F-8.7251460000000005
sVx
F-7.5205159999999998
sVz
F-0.86119806799999998
ssg219
(dp5638
Vy
F-8.9664999999999999
sVx
F-8.4763339999999996
sVz
F-0.3998485
ssg221
I00
sg222
(dp5639
g50
VALGPredevonator
p5640
sg52
Nssg225
(lp5641
sg227
(lp5642
sg231
I00
sg44
VPT8M46.1301028S
p5643
sg41
VDeath
p5644
sg234
I1
sa(dp5645
g47
I313138863
sg41
VWeaponDrop
p5646
sg189
I6
sg53
(lp5647
I1095363701
asg44
VPT8M46.132147S
p5648
sg192
I4
sg193
VP0DT0H0M1.5000S
p5649
sg48
(dp5650
g50
VALGPredevonator
p5651
sg52
Nssa(dp5652
g47
I4096745987
sg41
VWeaponDrop
p5653
sg189
I0
sg53
(lp5654
I2758383128
asg44
VPT8M46.132147S
p5655
sg192
I0
sg193
VP0DT0H0M16.4333S
p5656
sg48
(dp5657
g50
VALGPredevonator
p5658
sg52
Nssa(dp5659
g47
I313138863
sg48
(dp5660
g50
VALG ContrA HCS
p5661
sg52
Nssg53
(lp5662
I1095363701
asg41
VWeaponPickup
p5663
sg44
VPT8M46.3991141S
p5664
sa(dp5665
g47
I4096745987
sg48
(dp5666
g50
VALG ContrA HCS
p5667
sg52
Nssg53
(lp5668
I2758383128
asg41
VWeaponPickup
p5669
sg44
VPT8M46.3991141S
p5670
sa(dp5671
g41
VPlayerSpawn
p5672
sg48
(dp5673
g50
VALG ContrA HCS
p5674
sg52
Nssg44
VPT8M46.3991141S
p5675
sa(dp5676
g204
I3190813201
sg205
I00
sg206
I00
sg207
(dp5677
g50
VALGPredevonator
p5678
sg52
Nssg210
(lp5679
sg212
I00
sg213
I01
sg214
I1
sg215
I0
sg216
I1
sg217
(dp5680
Vy
F-9.1841910000000002
sVx
F-9.0738730000000007
sVz
F-0.52912130000000002
ssg219
(dp5681
Vy
F-8.5144110000000008
sVx
F-7.2691540000000003
sVz
F-0.7389076
ssg221
I00
sg222
(dp5682
g50
VTL StelluR
p5683
sg52
Nssg225
(lp5684
sg227
(lp5685
sg231
I00
sg44
VPT8M46.6801248S
p5686
sg41
VDeath
p5687
sg234
I1
sa(dp5688
g41
VMedal
p5689
sg48
(dp5690
g50
VALGPredevonator
p5691
sg52
Nssg245
I285057226
sg44
VPT8M46.682149S
p5692
sa(dp5693
g47
I523953283
sg41
VWeaponDrop
p5694
sg189
I28
sg53
(lp5695
I2208825748
asg44
VPT8M46.6831505S
p5696
sg192
I14
sg193
VP0DT0H0M42.5500S
p5697
sg48
(dp5698
g50
VTL StelluR
p5699
sg52
Nssa(dp5700
g47
I523953283
sg41
VWeaponDrop
p5701
sg189
I0
sg53
(lp5702
I2208825748
asg44
VPT8M46.6831505S
p5703
sg192
I0
sg193
VP0DT0S
p5704
sg48
(dp5705
g50
VTL StelluR
p5706
sg52
Nssa(dp5707
g47
I3808094875
sg41
VWeaponDrop
p5708
sg189
I16
sg53
(lp5709
I2758383128
asg44
VPT8M46.6831505S
p5710
sg192
I7
sg193
VP0DT0H0M10.4667S
p5711
sg48
(dp5712
g50
VTL StelluR
p5713
sg52
Nssa(dp5714
g204
I523953283
sg205
I00
sg206
I00
sg207
(dp5715
g50
VALG RyaNoob
p5716
sg52
Nssg210
(lp5717
I2208825748
asg212
I00
sg213
I01
sg214
I1
sg215
I0
sg216
I1
sg217
(dp5718
Vy
F-0.68659029999999999
sVx
F7.9261093100000002
sVz
F3.3486585600000001
ssg219
(dp5719
Vy
F1.27825689
sVx
F20.731817199999998
sVz
F3.0346099999999998
ssg221
I00
sg222
(dp5720
g50
VTL Eco HCS
p5721
sg52
Nssg225
(lp5722
sg227
(lp5723
sg231
I01
sg44
VPT8M50.5132698S
p5724
sg41
VDeath
p5725
sg234
I1
sa(dp5726
g41
VMedal
p5727
sg48
(dp5728
g50
VALG RyaNoob
p5729
sg52
Nssg245
I3261908037
sg44
VPT8M50.5152956S
p5730
sa(dp5731
g47
I313138863
sg41
VWeaponDrop
p5732
sg189
I0
sg53
(lp5733
I1095363701
asg44
VPT8M50.527299S
p5734
sg192
I0
sg193
VP0DT0H0M0.5833S
p5735
sg48
(dp5736
g50
VTL Eco HCS
p5737
sg52
Nssa(dp5738
g47
I4096745987
sg41
VWeaponDrop
p5739
sg189
I7
sg53
(lp5740
I2758383128
asg44
VPT8M50.527299S
p5741
sg192
I5
sg193
VP0DT0H0M7.7167S
p5742
sg48
(dp5743
g50
VTL Eco HCS
p5744
sg52
Nssa(dp5745
g47
I313138863
sg48
(dp5746
g50
VTL Spartan HCS
p5747
sg52
Nssg53
(lp5748
I1095363701
asg41
VWeaponPickup
p5749
sg44
VPT8M52.0133287S
p5750
sa(dp5751
g47
I4096745987
sg48
(dp5752
g50
VTL Spartan HCS
p5753
sg52
Nssg53
(lp5754
I2758383128
asg41
VWeaponPickup
p5755
sg44
VPT8M52.014348S
p5756
sa(dp5757
g41
VPlayerSpawn
p5758
sg48
(dp5759
g50
VTL Spartan HCS
p5760
sg52
Nssg44
VPT8M52.014348S
p5761
sa(dp5762
g47
I313138863
sg41
VWeaponDrop
p5763
sg189
I0
sg53
(lp5764
I1095363701
asg44
VPT8M52.9623851S
p5765
sg192
I0
sg193
VP0DT0H0M0.5500S
p5766
sg48
(dp5767
g50
VTL Danoxide
p5768
sg52
Nssa(dp5769
g47
I669296699
sg48
(dp5770
g50
VTL Danoxide
p5771
sg52
Nssg53
(lp5772
I2758383128
asg41
VWeaponPickup
p5773
sg44
VPT8M52.9623851S
p5774
sa(dp5775
g47
I313138863
sg48
(dp5776
g50
VALGPredevonator
p5777
sg52
Nssg53
(lp5778
I1095363701
asg41
VWeaponPickup
p5779
sg44
VPT8M54.1474343S
p5780
sa(dp5781
g47
I4096745987
sg48
(dp5782
g50
VALGPredevonator
p5783
sg52
Nssg53
(lp5784
I2758383128
asg41
VWeaponPickup
p5785
sg44
VPT8M54.1474343S
p5786
sa(dp5787
g41
VPlayerSpawn
p5788
sg48
(dp5789
g50
VALGPredevonator
p5790
sg52
Nssg44
VPT8M54.1474343S
p5791
sa(dp5792
g204
I669296699
sg205
I00
sg206
I00
sg207
(dp5793
g50
VTL Danoxide
p5794
sg52
Nssg210
(lp5795
I2758383128
asg212
I00
sg213
I01
sg214
I1
sg215
I0
sg216
I1
sg217
(dp5796
Vy
F-3.2504170000000001
sVx
F15.2672338
sVz
F1.61465645
ssg219
(dp5797
Vy
F-0.18745772499999999
sVx
F12.5588465
sVz
F1.629157
ssg221
I00
sg222
(dp5798
g50
VALG Heinz HCS
p5799
sg52
Nssg225
(lp5800
sg227
(lp5801
sg231
I01
sg44
VPT8M54.2464153S
p5802
sg41
VDeath
p5803
sg234
I1
sa(dp5804
g41
VMedal
p5805
sg48
(dp5806
g50
VTL Danoxide
p5807
sg52
Nssg245
I1986137636
sg44
VPT8M54.2474444S
p5808
sa(dp5809
g47
I723523180
sg41
VWeaponDrop
p5810
sg189
I3
sg53
(lp5811
I2758383128
asg44
VPT8M54.248448S
p5812
sg192
I3
sg193
VP0DT0H0M23.9667S
p5813
sg48
(dp5814
g50
VALG Heinz HCS
p5815
sg52
Nssa(dp5816
g47
I4096745987
sg41
VWeaponDrop
p5817
sg189
I1
sg53
(lp5818
I2758383128
asg44
VPT8M54.248448S
p5819
sg192
I1
sg193
VP0DT0H0M17.8167S
p5820
sg48
(dp5821
g50
VALG Heinz HCS
p5822
sg52
Nssa(dp5823
g47
I313138863
sg48
(dp5824
g50
VTL StelluR
p5825
sg52
Nssg53
(lp5826
I1095363701
asg41
VWeaponPickup
p5827
sg44
VPT8M54.6974563S
p5828
sa(dp5829
g47
I4096745987
sg48
(dp5830
g50
VTL StelluR
p5831
sg52
Nssg53
(lp5832
I2758383128
asg41
VWeaponPickup
p5833
sg44
VPT8M54.6974563S
p5834
sa(dp5835
g41
VPlayerSpawn
p5836
sg48
(dp5837
g50
VTL StelluR
p5838
sg52
Nssg44
VPT8M54.6974563S
p5839
sa(dp5840
g204
I669296699
sg205
I00
sg206
I00
sg207
(dp5841
g50
VTL Danoxide
p5842
sg52
Nssg210
(lp5843
I2758383128
asg212
I00
sg213
I01
sg214
I1
sg215
I0
sg216
I1
sg217
(dp5844
Vy
F-3.6009795699999998
sVx
F16.1741867
sVz
F2.24571013
ssg219
(dp5845
Vy
F0.85334670000000001
sVx
F17.113937400000001
sVz
F1.62915421
ssg221
I00
sg222
(dp5846
g50
VALG ContrA HCS
p5847
sg52
Nssg225
(lp5848
sg227
(lp5849
sg231
I01
sg44
VPT8M55.2964588S
p5850
sg41
VDeath
p5851
sg234
I1
sa(dp5852
g41
VMedal
p5853
sg48
(dp5854
g50
VTL Danoxide
p5855
sg52
Nssg245
I3486286344
sg44
VPT8M55.297474S
p5856
sa(dp5857
g41
VMedal
p5858
sg48
(dp5859
g50
VTL Danoxide
p5860
sg52
Nssg245
I2078758684
sg44
VPT8M55.2984933S
p5861
sa(dp5862
g47
I313138863
sg41
VWeaponDrop
p5863
sg189
I0
sg53
(lp5864
I1095363701
asg44
VPT8M55.2984933S
p5865
sg192
I0
sg193
VP0DT0H0M0.4167S
p5866
sg48
(dp5867
g50
VALG ContrA HCS
p5868
sg52
Nssa(dp5869
g47
I4096745987
sg41
VWeaponDrop
p5870
sg189
I1
sg53
(lp5871
I2758383128
asg44
VPT8M55.2984933S
p5872
sg192
I0
sg193
VP0DT0H0M8.4833S
p5873
sg48
(dp5874
g50
VALG ContrA HCS
p5875
sg52
Nssa(dp5876
g41
VMedal
p5877
sg48
(dp5878
g50
VALG RyaNoob
p5879
sg52
Nssg245
I3400287617
sg44
VPT8M56.2294939S
p5880
sa(dp5881
g204
I523953283
sg205
I00
sg206
I00
sg207
(dp5882
g50
VALG RyaNoob
p5883
sg52
Nssg210
(lp5884
I2208825748
asg212
I00
sg213
I01
sg214
I1
sg215
I0
sg216
I1
sg217
(dp5885
Vy
F-7.2066144899999998
sVx
F13.813879999999999
sVz
F1.5092858099999999
ssg219
(dp5886
Vy
F-1.9495041399999999
sVx
F17.779922500000001
sVz
F1.6154662399999999
ssg221
I00
sg222
(dp5887
g50
VTL Danoxide
p5888
sg52
Nssg225
(lp5889
sg227
(lp5890
(dp5891
g50
VALG Heinz HCS
p5892
sg52
Nsasg231
I01
sg44
VPT8M56.4135351S
p5893
sg41
VDeath
p5894
sg234
I1
sa(dp5895
g41
VMedal
p5896
sg48
(dp5897
g50
VALG RyaNoob
p5898
sg52
Nssg245
I3261908037
sg44
VPT8M56.4145207S
p5899
sa(dp5900
g47
I669296699
sg41
VWeaponDrop
p5901
sg189
I2
sg53
(lp5902
I2758383128
asg44
VPT8M56.4155214S
p5903
sg192
I2
sg193
VP0DT0H0M2.7000S
p5904
sg48
(dp5905
g50
VTL Danoxide
p5906
sg52
Nssa(dp5907
g47
I4096745987
sg41
VWeaponDrop
p5908
sg189
I14
sg53
(lp5909
I2758383128
asg44
VPT8M56.4155214S
p5910
sg192
I6
sg193
VP0DT0H0M30.2167S
p5911
sg48
(dp5912
g50
VTL Danoxide
p5913
sg52
Nssa(dp5914
g41
VRoundEnd
p5915
sg43
I0
sg44
VPT8M56.4294989S
p5916
sassba.