ccopy_reg
_reconstructor
p1
(c__main__
match_breakdown
p2
c__builtin__
object
p3
NtRp4
(dp5
S'details'
p6
(dp7
VIsCompleteSetOfEvents
p8
I01
sVLinks
p9
(dp10
VUgcFilmManifest
p11
(dp12
VAuthenticationLifetimeExtensionSupported
p13
I00
sVQueryString
p14
V?view=film-manifest
p15
sVRetryPolicyId
p16
Vexponentialretry
p17
sVPath
p18
V/h5/films/e08dfd1d-fce0-43c0-b5d3-32b8b711bc94
p19
sVAcknowledgementTypeId
p20
I0
sVAuthorityId
p21
Vugc
p22
sVTopicName
p23
V
ssVStatsMatchDetails
p24
(dp25
g13
I00
sg14
Nsg16
Vexponentialretry
p26
sg18
Vh5/custom/matches/e08dfd1d-fce0-43c0-b5d3-32b8b711bc94
p27
sg20
I0
sg21
Vspartanstats
p28
sg23
V
sssVGameEvents
p29
(lp30
(dp31
VEventName
p32
VRoundStart
p33
sVRoundIndex
p34
I0
sVTimeSinceStart
p35
VPT0.0270037S
p36
sa(dp37
VWeaponStockId
p38
I313138863
sVPlayer
p39
(dp40
VGamertag
p41
VE6 Shooter
p42
sVXuid
p43
NssVWeaponAttachmentIds
p44
(lp45
I1095363701
asg32
VWeaponPickup
p46
sg35
VPT18.8178759S
p47
sa(dp48
g38
I4096745987
sg39
(dp49
g41
VE6 Shooter
p50
sg43
Nssg44
(lp51
I2758383128
asg32
VWeaponPickup
p52
sg35
VPT18.8188779S
p53
sa(dp54
g32
VPlayerSpawn
p55
sg39
(dp56
g41
VE6 Shooter
p57
sg43
Nssg35
VPT18.8188779S
p58
sa(dp59
g38
I313138863
sg39
(dp60
g41
VOG ACE HCS
p61
sg43
Nssg44
(lp62
I1095363701
asg32
VWeaponPickup
p63
sg35
VPT18.8338559S
p64
sa(dp65
g38
I4096745987
sg39
(dp66
g41
VOG ACE HCS
p67
sg43
Nssg44
(lp68
I2758383128
asg32
VWeaponPickup
p69
sg35
VPT18.8348796S
p70
sa(dp71
g32
VPlayerSpawn
p72
sg39
(dp73
g41
VOG ACE HCS
p74
sg43
Nssg35
VPT18.8348796S
p75
sa(dp76
g38
I313138863
sg39
(dp77
g41
VE6 Huke HCS
p78
sg43
Nssg44
(lp79
I1095363701
asg32
VWeaponPickup
p80
sg35
VPT18.8508795S
p81
sa(dp82
g38
I4096745987
sg39
(dp83
g41
VE6 Huke HCS
p84
sg43
Nssg44
(lp85
I2758383128
asg32
VWeaponPickup
p86
sg35
VPT18.8508795S
p87
sa(dp88
g32
VPlayerSpawn
p89
sg39
(dp90
g41
VE6 Huke HCS
p91
sg43
Nssg35
VPT18.8508795S
p92
sa(dp93
g38
I313138863
sg39
(dp94
g41
VE6 Cratos HCS
p95
sg43
Nssg44
(lp96
I1095363701
asg32
VWeaponPickup
p97
sg35
VPT18.8678793S
p98
sa(dp99
g38
I4096745987
sg39
(dp100
g41
VE6 Cratos HCS
p101
sg43
Nssg44
(lp102
I2758383128
asg32
VWeaponPickup
p103
sg35
VPT18.8678793S
p104
sa(dp105
g32
VPlayerSpawn
p106
sg39
(dp107
g41
VE6 Cratos HCS
p108
sg43
Nssg35
VPT18.8678793S
p109
sa(dp110
g38
I313138863
sg39
(dp111
g41
VOG Str8 SickHCS
p112
sg43
Nssg44
(lp113
I1095363701
asg32
VWeaponPickup
p114
sg35
VPT18.8838562S
p115
sa(dp116
g38
I4096745987
sg39
(dp117
g41
VOG Str8 SickHCS
p118
sg43
Nssg44
(lp119
I2758383128
asg32
VWeaponPickup
p120
sg35
VPT18.8848805S
p121
sa(dp122
g32
VPlayerSpawn
p123
sg39
(dp124
g41
VOG Str8 SickHCS
p125
sg43
Nssg35
VPT18.8848805S
p126
sa(dp127
g38
I313138863
sg39
(dp128
g41
VOG Maniac HCS
p129
sg43
Nssg44
(lp130
I1095363701
asg32
VWeaponPickup
p131
sg35
VPT18.9008785S
p132
sa(dp133
g38
I4096745987
sg39
(dp134
g41
VOG Maniac HCS
p135
sg43
Nssg44
(lp136
I2758383128
asg32
VWeaponPickup
p137
sg35
VPT18.9008785S
p138
sa(dp139
g32
VPlayerSpawn
p140
sg39
(dp141
g41
VOG Maniac HCS
p142
sg43
Nssg35
VPT18.9008785S
p143
sa(dp144
g38
I313138863
sg39
(dp145
g41
VOG APG HCS
p146
sg43
Nssg44
(lp147
I1095363701
asg32
VWeaponPickup
p148
sg35
VPT18.9178787S
p149
sa(dp150
g38
I4096745987
sg39
(dp151
g41
VOG APG HCS
p152
sg43
Nssg44
(lp153
I2758383128
asg32
VWeaponPickup
p154
sg35
VPT18.9178787S
p155
sa(dp156
g32
VPlayerSpawn
p157
sg39
(dp158
g41
VOG APG HCS
p159
sg43
Nssg35
VPT18.9178787S
p160
sa(dp161
g38
I313138863
sg39
(dp162
g41
VE6 bubu dubu
p163
sg43
Nssg44
(lp164
I1095363701
asg32
VWeaponPickup
p165
sg35
VPT18.9338558S
p166
sa(dp167
g38
I4096745987
sg39
(dp168
g41
VE6 bubu dubu
p169
sg43
Nssg44
(lp170
I2758383128
asg32
VWeaponPickup
p171
sg35
VPT18.9348749S
p172
sa(dp173
g32
VPlayerSpawn
p174
sg39
(dp175
g41
VE6 bubu dubu
p176
sg43
Nssg35
VPT18.9348749S
p177
sa(dp178
VKillerWeaponStockId
p179
I4096745987
sVIsAssassination
p180
I00
sVIsMelee
p181
I00
sVKiller
p182
(dp183
g41
VE6 bubu dubu
p184
sg43
NssVKillerWeaponAttachmentIds
p185
(lp186
I2758383128
asVIsGroundPound
p187
I00
sVIsWeapon
p188
I01
sVDeathDisposition
p189
I1
sVVictimStockId
p190
I0
sVVictimAgent
p191
I1
sVKillerWorldLocation
p192
(dp193
Vy
F5.3466699999999996
sVx
F-1.2733421300000001
sVz
F3.8123881800000001
ssVVictimWorldLocation
p194
(dp195
Vy
F15.8915329
sVx
F-0.7709009
sVz
F4.5015650000000003
ssVIsShoulderBash
p196
I00
sVVictim
p197
(dp198
g41
VOG Str8 SickHCS
p199
sg43
NssVVictimAttachmentIds
p200
(lp201
sVAssistants
p202
(lp203
(dp204
g41
VE6 Shooter
p205
sg43
NsasVIsHeadshot
p206
I01
sg35
VPT29.2688111S
p207
sg32
VDeath
p208
sVKillerAgent
p209
I1
sa(dp210
g32
VMedal
p211
sg39
(dp212
g41
VE6 bubu dubu
p213
sg43
NssVMedalId
p214
I3261908037
sg35
VPT29.2718128S
p215
sa(dp216
g32
VMedal
p217
sg39
(dp218
g41
VE6 bubu dubu
p219
sg43
Nssg214
I3001183151
sg35
VPT29.2718128S
p220
sa(dp221
g38
I313138863
sg32
VWeaponDrop
p222
sVShotsFired
p223
I0
sg44
(lp224
I1095363701
asg35
VPT29.2957941S
p225
sVShotsLanded
p226
I0
sVTimeWeaponActiveAsPrimary
p227
VP0DT0H0M3.4000S
p228
sg39
(dp229
g41
VOG Str8 SickHCS
p230
sg43
Nssa(dp231
g38
I4096745987
sg32
VWeaponDrop
p232
sg223
I0
sg44
(lp233
I2758383128
asg35
VPT29.2957941S
p234
sg226
I0
sg227
VP0DT0H0M6.9833S
p235
sg39
(dp236
g41
VOG Str8 SickHCS
p237
sg43
Nssa(dp238
g179
I4096745987
sg180
I00
sg181
I00
sg182
(dp239
g41
VE6 Shooter
p240
sg43
Nssg185
(lp241
I2758383128
asg187
I00
sg188
I01
sg189
I1
sg190
I0
sg191
I1
sg192
(dp242
Vy
F12.45063
sVx
F3.7033212199999999
sVz
F2.2876219999999998
ssg194
(dp243
Vy
F5.7354803099999998
sVx
F2.6740059999999999
sVz
F3.81275845
ssg196
I00
sg197
(dp244
g41
VOG ACE HCS
p245
sg43
Nssg200
(lp246
sg202
(lp247
(dp248
g41
VE6 Huke HCS
p249
sg43
Nsasg206
I01
sg35
VPT31.4997792S
p250
sg32
VDeath
p251
sg209
I1
sa(dp252
g32
VMedal
p253
sg39
(dp254
g41
VE6 bubu dubu
p255
sg43
Nssg214
I824733727
sg35
VPT31.5007957S
p256
sa(dp257
g32
VMedal
p258
sg39
(dp259
g41
VE6 Shooter
p260
sg43
Nssg214
I3261908037
sg35
VPT31.5017939S
p261
sa(dp262
g38
I313138863
sg32
VWeaponDrop
p263
sg223
I0
sg44
(lp264
I1095363701
asg35
VPT31.5017939S
p265
sg226
I0
sg227
VP0DT0H0M2.6167S
p266
sg39
(dp267
g41
VOG ACE HCS
p268
sg43
Nssa(dp269
g38
I4096745987
sg32
VWeaponDrop
p270
sg223
I5
sg44
(lp271
I2758383128
asg35
VPT31.5017939S
p272
sg226
I3
sg227
VP0DT0H0M10.0500S
p273
sg39
(dp274
g41
VOG ACE HCS
p275
sg43
Nssa(dp276
g38
I313138863
sg32
VWeaponDrop
p277
sg223
I0
sg44
(lp278
I1095363701
asg35
VPT32.7817894S
p279
sg226
I0
sg227
VP0DT0H0M2.6667S
p280
sg39
(dp281
g41
VE6 Huke HCS
p282
sg43
Nssa(dp283
g38
I669296699
sg39
(dp284
g41
VE6 Huke HCS
p285
sg43
Nssg44
(lp286
I2758383128
asg32
VWeaponPickupPad
p287
sg35
VPT32.7817894S
p288
sa(dp289
g38
I669296699
sg39
(dp290
g41
VE6 Huke HCS
p291
sg43
Nssg44
(lp292
I2758383128
asg32
VWeaponPickup
p293
sg35
VPT32.7837902S
p294
sa(dp295
g179
I4096745987
sg180
I00
sg181
I00
sg182
(dp296
g41
VOG Maniac HCS
p297
sg43
Nssg185
(lp298
I2758383128
asg187
I00
sg188
I01
sg189
I1
sg190
I0
sg191
I1
sg192
(dp299
Vy
F5.0787463199999996
sVx
F-4.7351937299999998
sVz
F1.16117132
ssg194
(dp300
Vy
F10.5457611
sVx
F1.4607735900000001
sVz
F2.2963106600000001
ssg196
I00
sg197
(dp301
g41
VE6 Shooter
p302
sg43
Nssg200
(lp303
sg202
(lp304
sg206
I01
sg35
VPT33.6497612S
p305
sg32
VDeath
p306
sg209
I1
sa(dp307
g32
VMedal
p308
sg39
(dp309
g41
VOG Maniac HCS
p310
sg43
Nssg214
I3261908037
sg35
VPT33.6517808S
p311
sa(dp312
g38
I4096745987
sg32
VWeaponDrop
p313
sg223
I8
sg44
(lp314
I2758383128
asg35
VPT33.6527804S
p315
sg226
I5
sg227
VP0DT0H0M13.4833S
p316
sg39
(dp317
g41
VE6 Shooter
p318
sg43
Nssa(dp319
g38
I313138863
sg32
VWeaponDrop
p320
sg223
I0
sg44
(lp321
I1095363701
asg35
VPT33.6527804S
p322
sg226
I0
sg227
VP0DT0H0M1.3500S
p323
sg39
(dp324
g41
VE6 Shooter
p325
sg43
Nssa(dp326
g179
I313138863
sg180
I00
sg181
I00
sg182
(dp327
g41
VE6 bubu dubu
p328
sg43
Nssg185
(lp329
I1095363701
asg187
I00
sg188
I01
sg189
I1
sg190
I0
sg191
I1
sg192
(dp330
Vy
F5.3261459999999996
sVx
F-5.2421069999999999
sVz
F2.4519453000000002
ssg194
(dp331
Vy
F6.2763879999999999
sVx
F-6.7954626100000004
sVz
F0.24255454500000001
ssg196
I00
sg197
(dp332
g41
VOG Maniac HCS
p333
sg43
Nssg200
(lp334
sg202
(lp335
(dp336
g41
VE6 Shooter
p337
sg43
Nsasg206
I00
sg35
VPT37.0497398S
p338
sg32
VDeath
p339
sg209
I1
sa(dp340
g38
I313138863
sg32
VWeaponDrop
p341
sg223
I12
sg44
(lp342
I1095363701
asg35
VPT37.0527595S
p343
sg226
I6
sg227
VP0DT0H0M4.6833S
p344
sg39
(dp345
g41
VOG Maniac HCS
p346
sg43
Nssa(dp347
g38
I4096745987
sg32
VWeaponDrop
p348
sg223
I9
sg44
(lp349
I2758383128
asg35
VPT37.0527595S
p350
sg226
I7
sg227
VP0DT0H0M13.4667S
p351
sg39
(dp352
g41
VOG Maniac HCS
p353
sg43
Nssa(dp354
g38
I313138863
sg39
(dp355
g41
VOG Str8 SickHCS
p356
sg43
Nssg44
(lp357
I1095363701
asg32
VWeaponPickup
p358
sg35
VPT37.2837617S
p359
sa(dp360
g38
I4096745987
sg39
(dp361
g41
VOG Str8 SickHCS
p362
sg43
Nssg44
(lp363
I2758383128
asg32
VWeaponPickup
p364
sg35
VPT37.2837617S
p365
sa(dp366
g32
VPlayerSpawn
p367
sg39
(dp368
g41
VOG Str8 SickHCS
p369
sg43
Nssg35
VPT37.2837617S
p370
sa(dp371
g38
I4096745987
sg32
VWeaponDrop
p372
sg223
I4
sg44
(lp373
I2758383128
asg35
VPT38.9487275S
p374
sg226
I2
sg227
VP0DT0H0M10.3167S
p375
sg39
(dp376
g41
VE6 bubu dubu
p377
sg43
Nssa(dp378
g38
I523953283
sg39
(dp379
g41
VE6 bubu dubu
p380
sg43
Nssg44
(lp381
I2208825748
asg32
VWeaponPickup
p382
sg35
VPT38.9487275S
p383
sa(dp384
g38
I313138863
sg39
(dp385
g41
VOG ACE HCS
p386
sg43
Nssg44
(lp387
I1095363701
asg32
VWeaponPickup
p388
sg35
VPT39.5177432S
p389
sa(dp390
g38
I4096745987
sg39
(dp391
g41
VOG ACE HCS
p392
sg43
Nssg44
(lp393
I2758383128
asg32
VWeaponPickup
p394
sg35
VPT39.5177432S
p395
sa(dp396
g32
VPlayerSpawn
p397
sg39
(dp398
g41
VOG ACE HCS
p399
sg43
Nssg35
VPT39.5177432S
p400
sa(dp401
g179
I669296699
sg180
I00
sg181
I00
sg182
(dp402
g41
VE6 Huke HCS
p403
sg43
Nssg185
(lp404
I2758383128
asg187
I00
sg188
I01
sg189
I1
sg190
I0
sg191
I1
sg192
(dp405
Vy
F13.081835699999999
sVx
F-11.5165834
sVz
F1.54017735
ssg194
(dp406
Vy
F-4.7523350000000004
sVx
F-14.392312
sVz
F1.6428014
ssg196
I00
sg197
(dp407
g41
VOG Str8 SickHCS
p408
sg43
Nssg200
(lp409
sg202
(lp410
sg206
I01
sg35
VPT39.7997214S
p411
sg32
VDeath
p412
sg209
I1
sa(dp413
g32
VMedal
p414
sg39
(dp415
g41
VE6 Huke HCS
p416
sg43
Nssg214
I848240062
sg35
VPT39.8007454S
p417
sa(dp418
g38
I313138863
sg32
VWeaponDrop
p419
sg223
I0
sg44
(lp420
I1095363701
asg35
VPT39.8017473S
p421
sg226
I0
sg227
VP0DT0H0M0.7333S
p422
sg39
(dp423
g41
VOG Str8 SickHCS
p424
sg43
Nssa(dp425
g38
I4096745987
sg32
VWeaponDrop
p426
sg223
I0
sg44
(lp427
I2758383128
asg35
VPT39.8017473S
p428
sg226
I0
sg227
VP0DT0H0M1.7833S
p429
sg39
(dp430
g41
VOG Str8 SickHCS
p431
sg43
Nssa(dp432
g32
VMedal
p433
sg39
(dp434
g41
VE6 bubu dubu
p435
sg43
Nssg214
I3400287617
sg35
VPT40.4657177S
p436
sa(dp437
g38
I313138863
sg39
(dp438
g41
VE6 Shooter
p439
sg43
Nssg44
(lp440
I1095363701
asg32
VWeaponPickup
p441
sg35
VPT41.6667112S
p442
sa(dp443
g38
I4096745987
sg39
(dp444
g41
VE6 Shooter
p445
sg43
Nssg44
(lp446
I2758383128
asg32
VWeaponPickup
p447
sg35
VPT41.6667112S
p448
sa(dp449
g32
VPlayerSpawn
p450
sg39
(dp451
g41
VE6 Shooter
p452
sg43
Nssg35
VPT41.6667112S
p453
sa(dp454
g38
I313138863
sg39
(dp455
g41
VOG Maniac HCS
p456
sg43
Nssg44
(lp457
I1095363701
asg32
VWeaponPickup
p458
sg35
VPT45.0667083S
p459
sa(dp460
g38
I4096745987
sg39
(dp461
g41
VOG Maniac HCS
p462
sg43
Nssg44
(lp463
I2758383128
asg32
VWeaponPickup
p464
sg35
VPT45.0667083S
p465
sa(dp466
g32
VPlayerSpawn
p467
sg39
(dp468
g41
VOG Maniac HCS
p469
sg43
Nssg35
VPT45.0667083S
p470
sa(dp471
g179
I523953283
sg180
I00
sg181
I00
sg182
(dp472
g41
VE6 bubu dubu
p473
sg43
Nssg185
(lp474
I2208825748
asg187
I00
sg188
I01
sg189
I1
sg190
I0
sg191
I1
sg192
(dp475
Vy
F-0.11515423700000001
sVx
F-11.5786333
sVz
F1.9726922499999999
ssg194
(dp476
Vy
F-2.1965515600000001
sVx
F-15.9590654
sVz
F2.26203632
ssg196
I00
sg197
(dp477
g41
VOG ACE HCS
p478
sg43
Nssg200
(lp479
sg202
(lp480
sg206
I01
sg35
VPT46.9326761S
p481
sg32
VDeath
p482
sg209
I1
sa(dp483
g32
VMedal
p484
sg39
(dp485
g41
VE6 bubu dubu
p486
sg43
Nssg214
I2782465081
sg35
VPT46.9326761S
p487
sa(dp488
g32
VMedal
p489
sg39
(dp490
g41
VE6 bubu dubu
p491
sg43
Nssg214
I3261908037
sg35
VPT46.9346966S
p492
sa(dp493
g38
I313138863
sg32
VWeaponDrop
p494
sg223
I0
sg44
(lp495
I1095363701
asg35
VPT46.9356984S
p496
sg226
I0
sg227
VP0DT0H0M0.9000S
p497
sg39
(dp498
g41
VOG ACE HCS
p499
sg43
Nssa(dp500
g38
I4096745987
sg32
VWeaponDrop
p501
sg223
I7
sg44
(lp502
I2758383128
asg35
VPT46.9356984S
p503
sg226
I6
sg227
VP0DT0H0M6.5167S
p504
sg39
(dp505
g41
VOG ACE HCS
p506
sg43
Nssa(dp507
g179
I4096745987
sg180
I00
sg181
I00
sg182
(dp508
g41
VOG ACE HCS
p509
sg43
Nssg185
(lp510
I2758383128
asg187
I00
sg188
I01
sg189
I1
sg190
I0
sg191
I1
sg192
(dp511
Vy
F-1.92202067
sVx
F-16.146423299999999
sVz
F1.9936914400000001
ssg194
(dp512
Vy
F-0.0038846507699999999
sVx
F-11.613429099999999
sVz
F2.1228604299999998
ssg196
I00
sg197
(dp513
g41
VE6 bubu dubu
p514
sg43
Nssg200
(lp515
sg202
(lp516
sg206
I01
sg35
VPT46.9826755S
p517
sg32
VDeath
p518
sg209
I1
sa(dp519
g32
VMedal
p520
sg39
(dp521
g41
VOG ACE HCS
p522
sg43
Nssg214
I3261908037
sg35
VPT46.9857008S
p523
sa(dp524
g38
I313138863
sg32
VWeaponDrop
p525
sg223
I21
sg44
(lp526
I1095363701
asg35
VPT46.9857008S
p527
sg226
I11
sg227
VP0DT0H0M9.7000S
p528
sg39
(dp529
g41
VE6 bubu dubu
p530
sg43
Nssa(dp531
g38
I523953283
sg32
VWeaponDrop
p532
sg223
I7
sg44
(lp533
I2208825748
asg35
VPT46.9857008S
p534
sg226
I5
sg227
VP0DT0H0M8.0333S
p535
sg39
(dp536
g41
VE6 bubu dubu
p537
sg43
Nssa(dp538
g38
I313138863
sg39
(dp539
g41
VOG Str8 SickHCS
p540
sg43
Nssg44
(lp541
I1095363701
asg32
VWeaponPickup
p542
sg35
VPT47.816695S
p543
sa(dp544
g38
I4096745987
sg39
(dp545
g41
VOG Str8 SickHCS
p546
sg43
Nssg44
(lp547
I2758383128
asg32
VWeaponPickup
p548
sg35
VPT47.816695S
p549
sa(dp550
g32
VPlayerSpawn
p551
sg39
(dp552
g41
VOG Str8 SickHCS
p553
sg43
Nssg35
VPT47.816695S
p554
sa(dp555
g38
I4096745987
sg32
VWeaponDrop
p556
sg223
I7
sg44
(lp557
I2758383128
asg35
VPT51.3976708S
p558
sg226
I2
sg227
VP0DT0H0M8.4333S
p559
sg39
(dp560
g41
VE6 Shooter
p561
sg43
Nssa(dp562
g38
I523953283
sg39
(dp563
g41
VE6 Shooter
p564
sg43
Nssg44
(lp565
I2208825748
asg32
VWeaponPickup
p566
sg35
VPT51.3976708S
p567
sa(dp568
g179
I4096745987
sg180
I00
sg181
I00
sg182
(dp569
g41
VOG Maniac HCS
p570
sg43
Nssg185
(lp571
I2758383128
asg187
I00
sg188
I01
sg189
I1
sg190
I0
sg191
I1
sg192
(dp572
Vy
F11.548944499999999
sVx
F8.8345990000000008
sVz
F0.79955100000000001
ssg194
(dp573
Vy
F3.8421409999999998
sVx
F6.0562829999999996
sVz
F0.32889723799999998
ssg196
I00
sg197
(dp574
g41
VE6 Shooter
p575
sg43
Nssg200
(lp576
sg202
(lp577
sg206
I01
sg35
VPT54.1326296S
p578
sg32
VDeath
p579
sg209
I1
sa(dp580
g32
VMedal
p581
sg39
(dp582
g41
VOG Maniac HCS
p583
sg43
Nssg214
I3261908037
sg35
VPT54.1336324S
p584
sa(dp585
g38
I313138863
sg32
VWeaponDrop
p586
sg223
I0
sg44
(lp587
I1095363701
asg35
VPT54.1346425S
p588
sg226
I0
sg227
VP0DT0H0M1.3000S
p589
sg39
(dp590
g41
VE6 Shooter
p591
sg43
Nssa(dp592
g38
I523953283
sg32
VWeaponDrop
p593
sg223
I6
sg44
(lp594
I2208825748
asg35
VPT54.1346425S
p595
sg226
I2
sg227
VP0DT0H0M2.7333S
p596
sg39
(dp597
g41
VE6 Shooter
p598
sg43
Nssa(dp599
g38
I313138863
sg39
(dp600
g41
VOG ACE HCS
p601
sg43
Nssg44
(lp602
I1095363701
asg32
VWeaponPickup
p603
sg35
VPT54.9496535S
p604
sa(dp605
g38
I4096745987
sg39
(dp606
g41
VOG ACE HCS
p607
sg43
Nssg44
(lp608
I2758383128
asg32
VWeaponPickup
p609
sg35
VPT54.9496535S
p610
sa(dp611
g32
VPlayerSpawn
p612
sg39
(dp613
g41
VOG ACE HCS
p614
sg43
Nssg35
VPT54.9496535S
p615
sa(dp616
g38
I313138863
sg39
(dp617
g41
VE6 bubu dubu
p618
sg43
Nssg44
(lp619
I1095363701
asg32
VWeaponPickup
p620
sg35
VPT54.9996256S
p621
sa(dp622
g38
I4096745987
sg39
(dp623
g41
VE6 bubu dubu
p624
sg43
Nssg44
(lp625
I2758383128
asg32
VWeaponPickup
p626
sg35
VPT54.9996256S
p627
sa(dp628
g32
VPlayerSpawn
p629
sg39
(dp630
g41
VE6 bubu dubu
p631
sg43
Nssg35
VPT54.9996256S
p632
sa(dp633
g179
I4096745987
sg180
I00
sg181
I00
sg182
(dp634
g41
VE6 bubu dubu
p635
sg43
Nssg185
(lp636
I2758383128
asg187
I00
sg188
I01
sg189
I1
sg190
I0
sg191
I1
sg192
(dp637
Vy
F-1.7548319999999999
sVx
F14.0168915
sVz
F1.61538863
ssg194
(dp638
Vy
F14.941280000000001
sVx
F9.67516
sVz
F1.48778689
ssg196
I00
sg197
(dp639
g41
VOG Maniac HCS
p640
sg43
Nssg200
(lp641
sg202
(lp642
(dp643
g41
VE6 Shooter
p644
sg43
Nsasg206
I01
sg35
VPT58.7996012S
p645
sg32
VDeath
p646
sg209
I1
sa(dp647
g32
VMedal
p648
sg39
(dp649
g41
VE6 bubu dubu
p650
sg43
Nssg214
I3698887726
sg35
VPT58.7996012S
p651
sa(dp652
g32
VMedal
p653
sg39
(dp654
g41
VE6 bubu dubu
p655
sg43
Nssg214
I3261908037
sg35
VPT58.8006234S
p656
sa(dp657
g38
I4096745987
sg32
VWeaponDrop
p658
sg223
I7
sg44
(lp659
I2758383128
asg35
VPT58.8006234S
p660
sg226
I4
sg227
VP0DT0H0M12.7833S
p661
sg39
(dp662
g41
VOG Maniac HCS
p663
sg43
Nssa(dp664
g38
I313138863
sg32
VWeaponDrop
p665
sg223
I0
sg44
(lp666
I1095363701
asg35
VPT58.8016237S
p667
sg226
I0
sg227
VP0DT0H0M0.9500S
p668
sg39
(dp669
g41
VOG Maniac HCS
p670
sg43
Nssa(dp671
g179
I4096745987
sg180
I00
sg181
I01
sg182
(dp672
g41
VOG ACE HCS
p673
sg43
Nssg185
(lp674
I2758383128
asg187
I00
sg188
I00
sg189
I1
sg190
I0
sg191
I1
sg192
(dp675
Vy
F12.134381299999999
sVx
F5.03423452
sVz
F2.9317483900000001
ssg194
(dp676
Vy
F12.452201799999999
sVx
F4.8814506499999997
sVz
F2.9075169999999999
ssg196
I00
sg197
(dp677
g41
VE6 Huke HCS
p678
sg43
Nssg200
(lp679
sg202
(lp680
sg206
I00
sg35
VPT1M0.6985883S
p681
sg32
VDeath
p682
sg209
I1
sa(dp683
g32
VMedal
p684
sg39
(dp685
g41
VOG ACE HCS
p686
sg43
Nssg214
I2287626681
sg35
VPT1M0.6996081S
p687
sa(dp688
g38
I4096745987
sg32
VWeaponDrop
p689
sg223
I8
sg44
(lp690
I2758383128
asg35
VPT1M0.7006088S
p691
sg226
I4
sg227
VP0DT0H0M18.9333S
p692
sg39
(dp693
g41
VE6 Huke HCS
p694
sg43
Nssa(dp695
g38
I669296699
sg32
VWeaponDrop
p696
sg223
I2
sg44
(lp697
I2758383128
asg35
VPT1M0.7006088S
p698
sg226
I1
sg227
VP0DT0H0M20.2500S
p699
sg39
(dp700
g41
VE6 Huke HCS
p701
sg43
Nssa(dp702
g179
I313138863
sg180
I00
sg181
I00
sg182
(dp703
g41
VOG APG HCS
p704
sg43
Nssg185
(lp705
I1095363701
asg187
I00
sg188
I01
sg189
I1
sg190
I0
sg191
I1
sg192
(dp706
Vy
F-12.0741034
sVx
F4.8107166299999999
sVz
F4.5011910000000004
ssg194
(dp707
Vy
F-10.644683799999999
sVx
F9.8203940000000003
sVz
F1.231814
ssg196
I00
sg197
(dp708
g41
VE6 Cratos HCS
p709
sg43
Nssg200
(lp710
sg202
(lp711
(dp712
g41
VOG Str8 SickHCS
p713
sg43
Nsasg206
I00
sg35
VPT1M0.8155875S
p714
sg32
VDeath
p715
sg209
I1
sa(dp716
g38
I313138863
sg32
VWeaponDrop
p717
sg223
I0
sg44
(lp718
I1095363701
asg35
VPT1M0.8166068S
p719
sg226
I0
sg227
VP0DT0H0M2.7667S
p720
sg39
(dp721
g41
VE6 Cratos HCS
p722
sg43
Nssa(dp723
g38
I4096745987
sg32
VWeaponDrop
p724
sg223
I16
sg44
(lp725
I2758383128
asg35
VPT1M0.8166068S
p726
sg226
I8
sg227
VP0DT0H0M39.1833S
p727
sg39
(dp728
g41
VE6 Cratos HCS
p729
sg43
Nssa(dp730
g38
I313138863
sg39
(dp731
g41
VE6 Shooter
p732
sg43
Nssg44
(lp733
I1095363701
asg32
VWeaponPickup
p734
sg35
VPT1M2.1506031S
p735
sa(dp736
g38
I4096745987
sg39
(dp737
g41
VE6 Shooter
p738
sg43
Nssg44
(lp739
I2758383128
asg32
VWeaponPickup
p740
sg35
VPT1M2.1506031S
p741
sa(dp742
g32
VPlayerSpawn
p743
sg39
(dp744
g41
VE6 Shooter
p745
sg43
Nssg35
VPT1M2.1506031S
p746
sa(dp747
g38
I313138863
sg32
VWeaponDrop
p748
sg223
I0
sg44
(lp749
I1095363701
asg35
VPT1M2.3636013S
p750
sg226
I0
sg227
VP0DT0H0M2.0833S
p751
sg39
(dp752
g41
VOG Str8 SickHCS
p753
sg43
Nssa(dp754
g38
I723523180
sg39
(dp755
g41
VOG Str8 SickHCS
p756
sg43
Nssg44
(lp757
I2758383128
asg32
VWeaponPickupPad
p758
sg35
VPT1M2.3645974S
p759
sa(dp760
g38
I723523180
sg39
(dp761
g41
VOG Str8 SickHCS
p762
sg43
Nssg44
(lp763
I2758383128
asg32
VWeaponPickup
p764
sg35
VPT1M2.3645974S
p765
sa(dp766
g179
I313138863
sg180
I00
sg181
I00
sg182
(dp767
g41
VOG ACE HCS
p768
sg43
Nssg185
(lp769
I1095363701
asg187
I00
sg188
I01
sg189
I1
sg190
I0
sg191
I1
sg192
(dp770
Vy
F12.9975471
sVx
F3.52622247
sVz
F2.2876219999999998
ssg194
(dp771
Vy
F11.161641100000001
sVx
F4.5620469999999997
sVz
F2.2876219999999998
ssg196
I00
sg197
(dp772
g41
VE6 bubu dubu
p773
sg43
Nssg200
(lp774
sg202
(lp775
(dp776
g41
VOG APG HCS
p777
sg43
Nsasg206
I00
sg35
VPT1M6.6325498S
p778
sg32
VDeath
p779
sg209
I1
sa(dp780
g38
I313138863
sg32
VWeaponDrop
p781
sg223
I0
sg44
(lp782
I1095363701
asg35
VPT1M6.6345729S
p783
sg226
I0
sg227
VP0DT0H0M3.2500S
p784
sg39
(dp785
g41
VE6 bubu dubu
p786
sg43
Nssa(dp787
g38
I4096745987
sg32
VWeaponDrop
p788
sg223
I4
sg44
(lp789
I2758383128
asg35
VPT1M6.6355717S
p790
sg226
I4
sg227
VP0DT0H0M8.3833S
p791
sg39
(dp792
g41
VE6 bubu dubu
p793
sg43
Nssa(dp794
g38
I313138863
sg39
(dp795
g41
VOG Maniac HCS
p796
sg43
Nssg44
(lp797
I1095363701
asg32
VWeaponPickup
p798
sg35
VPT1M6.815574S
p799
sa(dp800
g38
I4096745987
sg39
(dp801
g41
VOG Maniac HCS
p802
sg43
Nssg44
(lp803
I2758383128
asg32
VWeaponPickup
p804
sg35
VPT1M6.815574S
p805
sa(dp806
g32
VPlayerSpawn
p807
sg39
(dp808
g41
VOG Maniac HCS
p809
sg43
Nssg35
VPT1M6.815574S
p810
sa(dp811
g38
I313138863
sg32
VWeaponDrop
p812
sg223
I20
sg44
(lp813
I1095363701
asg35
VPT1M8.1805595S
p814
sg226
I9
sg227
VP0DT0H0M5.3500S
p815
sg39
(dp816
g41
VOG APG HCS
p817
sg43
Nssa(dp818
g38
I723388907
sg39
(dp819
g41
VOG APG HCS
p820
sg43
Nssg44
(lp821
I89283061
asg32
VWeaponPickup
p822
sg35
VPT1M8.1805595S
p823
sa(dp824
g38
I313138863
sg32
VWeaponDrop
p825
sg223
I14
sg44
(lp826
I1095363701
asg35
VPT1M8.3305615S
p827
sg226
I5
sg227
VP0DT0H0M6.6500S
p828
sg39
(dp829
g41
VOG ACE HCS
p830
sg43
Nssa(dp831
g38
I669296699
sg39
(dp832
g41
VOG ACE HCS
p833
sg43
Nssg44
(lp834
I2758383128
asg32
VWeaponPickup
p835
sg35
VPT1M8.3305615S
p836
sa(dp837
g38
I313138863
sg39
(dp838
g41
VE6 Huke HCS
p839
sg43
Nssg44
(lp840
I1095363701
asg32
VWeaponPickup
p841
sg35
VPT1M8.7155574S
p842
sa(dp843
g38
I4096745987
sg39
(dp844
g41
VE6 Huke HCS
p845
sg43
Nssg44
(lp846
I2758383128
asg32
VWeaponPickup
p847
sg35
VPT1M8.7155574S
p848
sa(dp849
g32
VPlayerSpawn
p850
sg39
(dp851
g41
VE6 Huke HCS
p852
sg43
Nssg35
VPT1M8.7155574S
p853
sa(dp854
g38
I313138863
sg39
(dp855
g41
VE6 Cratos HCS
p856
sg43
Nssg44
(lp857
I1095363701
asg32
VWeaponPickup
p858
sg35
VPT1M8.8315365S
p859
sa(dp860
g38
I4096745987
sg39
(dp861
g41
VE6 Cratos HCS
p862
sg43
Nssg44
(lp863
I2758383128
asg32
VWeaponPickup
p864
sg35
VPT1M8.8325618S
p865
sa(dp866
g32
VPlayerSpawn
p867
sg39
(dp868
g41
VE6 Cratos HCS
p869
sg43
Nssg35
VPT1M8.8325618S
p870
sa(dp871
g38
I313138863
sg39
(dp872
g41
VE6 bubu dubu
p873
sg43
Nssg44
(lp874
I1095363701
asg32
VWeaponPickup
p875
sg35
VPT1M14.6485227S
p876
sa(dp877
g38
I4096745987
sg39
(dp878
g41
VE6 bubu dubu
p879
sg43
Nssg44
(lp880
I2758383128
asg32
VWeaponPickup
p881
sg35
VPT1M14.6485227S
p882
sa(dp883
g32
VPlayerSpawn
p884
sg39
(dp885
g41
VE6 bubu dubu
p886
sg43
Nssg35
VPT1M14.6485227S
p887
sa(dp888
g38
I4096745987
sg32
VWeaponDrop
p889
sg223
I0
sg44
(lp890
I2758383128
asg35
VPT1M16.5795134S
p891
sg226
I0
sg227
VP0DT0H0M6.9333S
p892
sg39
(dp893
g41
VE6 Huke HCS
p894
sg43
Nssa(dp895
g38
I523953283
sg39
(dp896
g41
VE6 Huke HCS
p897
sg43
Nssg44
(lp898
I2208825748
asg32
VWeaponPickup
p899
sg35
VPT1M16.5804867S
p900
sa(dp901
g38
I4096745987
sg32
VWeaponDrop
p902
sg223
I0
sg44
(lp903
I2758383128
asg35
VPT1M20.2964634S
p904
sg226
I0
sg227
VP0DT0H0M12.3500S
p905
sg39
(dp906
g41
VOG Maniac HCS
p907
sg43
Nssa(dp908
g38
I4108759423
sg39
(dp909
g41
VOG Maniac HCS
p910
sg43
Nssg44
(lp911
I2758383128
asg32
VWeaponPickup
p912
sg35
VPT1M20.2964634S
p913
sa(dp914
g38
I313138863
sg32
VWeaponDrop
p915
sg223
I0
sg44
(lp916
I1095363701
asg35
VPT1M31.0294156S
p917
sg226
I0
sg227
VP0DT0H0M1.4667S
p918
sg39
(dp919
g41
VE6 bubu dubu
p920
sg43
Nssa(dp921
g38
I723388907
sg39
(dp922
g41
VE6 bubu dubu
p923
sg43
Nssg44
(lp924
I89283061
asg32
VWeaponPickup
p925
sg35
VPT1M31.0294156S
p926
sa(dp927
g179
I4106030681
sg180
I00
sg181
I00
sg182
(dp928
g41
VE6 Cratos HCS
p929
sg43
Nssg185
(lp930
sg187
I00
sg188
I01
sg189
I1
sg190
I0
sg191
I1
sg192
(dp931
Vy
F-10.3572807
sVx
F-1.9938210000000001
sVz
F3.4027872100000001
ssg194
(dp932
Vy
F-11.7716932
sVx
F8.1188280000000006
sVz
F1.40607679
ssg196
I00
sg197
(dp933
g41
VOG Maniac HCS
p934
sg43
Nssg200
(lp935
sg202
(lp936
(dp937
g41
VE6 Huke HCS
p938
sg43
Nsasg206
I00
sg35
VPT1M41.5463261S
p939
sg32
VDeath
p940
sg209
I1
sa(dp941
g38
I313138863
sg32
VWeaponDrop
p942
sg223
I0
sg44
(lp943
I1095363701
asg35
VPT1M41.5483469S
p944
sg226
I0
sg227
VP0DT0H0M1.1333S
p945
sg39
(dp946
g41
VOG Maniac HCS
p947
sg43
Nssa(dp948
g38
I4108759423
sg32
VWeaponDrop
p949
sg223
I12
sg44
(lp950
I2758383128
asg35
VPT1M41.5483469S
p951
sg226
I7
sg227
VP0DT0H0M21.2500S
p952
sg39
(dp953
g41
VOG Maniac HCS
p954
sg43
Nssa(dp955
g38
I723388907
sg32
VWeaponDrop
p956
sg223
I0
sg44
(lp957
I89283061
asg35
VPT1M44.1123091S
p958
sg226
I0
sg227
VP0DT0H0M1.2500S
p959
sg39
(dp960
g41
VE6 bubu dubu
p961
sg43
Nssa(dp962
g38
I3808094875
sg39
(dp963
g41
VE6 bubu dubu
p964
sg43
Nssg44
(lp965
I2758383128
asg32
VWeaponPickup
p966
sg35
VPT1M44.1123091S
p967
sa(dp968
g38
I313138863
sg39
(dp969
g41
VOG Maniac HCS
p970
sg43
Nssg44
(lp971
I1095363701
asg32
VWeaponPickup
p972
sg35
VPT1M49.5632758S
p973
sa(dp974
g38
I4096745987
sg39
(dp975
g41
VOG Maniac HCS
p976
sg43
Nssg44
(lp977
I2758383128
asg32
VWeaponPickup
p978
sg35
VPT1M49.5642984S
p979
sa(dp980
g32
VPlayerSpawn
p981
sg39
(dp982
g41
VOG Maniac HCS
p983
sg43
Nssg35
VPT1M49.5642984S
p984
sa(dp985
g179
I3808094875
sg180
I00
sg181
I00
sg182
(dp986
g41
VE6 bubu dubu
p987
sg43
Nssg185
(lp988
I2758383128
asg187
I00
sg188
I01
sg189
I1
sg190
I0
sg191
I1
sg192
(dp989
Vy
F2.9437162899999998
sVx
F5.1995230000000001
sVz
F0.080987244799999997
ssg194
(dp990
Vy
F8.5974989999999991
sVx
F8.0462050000000005
sVz
F0.95235896099999995
ssg196
I00
sg197
(dp991
g41
VOG Str8 SickHCS
p992
sg43
Nssg200
(lp993
sg202
(lp994
(dp995
g41
VE6 Huke HCS
p996
sg43
Nsasg206
I00
sg35
VPT1M51.296264S
p997
sg32
VDeath
p998
sg209
I1
sa(dp999
g38
I723523180
sg32
VWeaponDrop
p1000
sg223
I2
sg44
(lp1001
I2758383128
asg35
VPT1M51.297285S
p1002
sg226
I2
sg227
VP0DT0H0M42.9333S
p1003
sg39
(dp1004
g41
VOG Str8 SickHCS
p1005
sg43
Nssa(dp1006
g38
I4096745987
sg32
VWeaponDrop
p1007
sg223
I10
sg44
(lp1008
I2758383128
asg35
VPT1M51.297285S
p1009
sg226
I5
sg227
VP0DT0H0M18.4667S
p1010
sg39
(dp1011
g41
VOG Str8 SickHCS
p1012
sg43
Nssa(dp1013
g179
I523953283
sg180
I00
sg181
I00
sg182
(dp1014
g41
VE6 Huke HCS
p1015
sg43
Nssg185
(lp1016
I2208825748
asg187
I00
sg188
I01
sg189
I1
sg190
I0
sg191
I1
sg192
(dp1017
Vy
F11.723040599999999
sVx
F2.3279573899999999
sVz
F2.2876219999999998
ssg194
(dp1018
Vy
F11.655998200000001
sVx
F12.387946100000001
sVz
F1.6473934699999999
ssg196
I00
sg197
(dp1019
g41
VOG APG HCS
p1020
sg43
Nssg200
(lp1021
sg202
(lp1022
(dp1023
g41
VE6 Shooter
p1024
sg43
Nsasg206
I01
sg35
VPT1M53.3292518S
p1025
sg32
VDeath
p1026
sg209
I1
sa(dp1027
g32
VMedal
p1028
sg39
(dp1029
g41
VE6 Huke HCS
p1030
sg43
Nssg214
I2838259753
sg35
VPT1M53.3302537S
p1031
sa(dp1032
g32
VImpulse
p1033
sg39
(dp1034
g41
VE6 Huke HCS
p1035
sg43
NssVImpulseId
p1036
I2556889090
sg35
VPT1M53.3302537S
p1037
sa(dp1038
g32
VMedal
p1039
sg39
(dp1040
g41
VE6 bubu dubu
p1041
sg43
Nssg214
I824733727
sg35
VPT1M53.3312735S
p1042
sa(dp1043
g32
VMedal
p1044
sg39
(dp1045
g41
VE6 Huke HCS
p1046
sg43
Nssg214
I3261908037
sg35
VPT1M53.333277S
p1047
sa(dp1048
g38
I723388907
sg32
VWeaponDrop
p1049
sg223
I6
sg44
(lp1050
I89283061
asg35
VPT1M53.333277S
p1051
sg226
I4
sg227
VP0DT0H0M4.9167S
p1052
sg39
(dp1053
g41
VOG APG HCS
p1054
sg43
Nssa(dp1055
g38
I4096745987
sg32
VWeaponDrop
p1056
sg223
I33
sg44
(lp1057
I2758383128
asg35
VPT1M53.333277S
p1058
sg226
I10
sg227
VP0DT0H1M24.1500S
p1059
sg39
(dp1060
g41
VOG APG HCS
p1061
sg43
Nssa(dp1062
g179
I313138863
sg180
I00
sg181
I00
sg182
(dp1063
g41
VE6 Cratos HCS
p1064
sg43
Nssg185
(lp1065
I1095363701
asg187
I00
sg188
I01
sg189
I1
sg190
I0
sg191
I1
sg192
(dp1066
Vy
F-0.21936914299999999
sVx
F17.157138799999998
sVz
F1.6121807100000001
ssg194
(dp1067
Vy
F-2.8162281500000002
sVx
F19.2291031
sVz
F2.06331372
ssg196
I00
sg197
(dp1068
g41
VOG ACE HCS
p1069
sg43
Nssg200
(lp1070
sg202
(lp1071
(dp1072
g41
VE6 Shooter
p1073
sg43
Nsasg206
I00
sg35
VPT1M56.4462305S
p1074
sg32
VDeath
p1075
sg209
I1
sa(dp1076
g32
VMedal
p1077
sg39
(dp1078
g41
VE6 Cratos HCS
p1079
sg43
Nssg214
I2838259753
sg35
VPT1M56.4462305S
p1080
sa(dp1081
g32
VImpulse
p1082
sg39
(dp1083
g41
VE6 Cratos HCS
p1084
sg43
Nssg1036
I2556889090
sg35
VPT1M56.4462305S
p1085
sa(dp1086
g38
I669296699
sg32
VWeaponDrop
p1087
sg223
I6
sg44
(lp1088
I2758383128
asg35
VPT1M56.4482505S
p1089
sg226
I2
sg227
VP0DT0H0M47.8000S
p1090
sg39
(dp1091
g41
VOG ACE HCS
p1092
sg43
Nssa(dp1093
g38
I4096745987
sg32
VWeaponDrop
p1094
sg223
I5
sg44
(lp1095
I2758383128
asg35
VPT1M56.4482505S
p1096
sg226
I4
sg227
VP0DT0H0M7.0500S
p1097
sg39
(dp1098
g41
VOG ACE HCS
p1099
sg43
Nssa(dp1100
g38
I4096745987
sg32
VWeaponDrop
p1101
sg223
I0
sg44
(lp1102
I2758383128
asg35
VPT1M56.4482505S
p1103
sg226
I0
sg227
VP0DT0S
p1104
sg39
(dp1105
g41
VOG ACE HCS
p1106
sg43
Nssa(dp1107
g38
I313138863
sg32
VWeaponDrop
p1108
sg223
I31
sg44
(lp1109
I1095363701
asg35
VPT1M57.2782469S
p1110
sg226
I13
sg227
VP0DT0H0M5.7500S
p1111
sg39
(dp1112
g41
VE6 Cratos HCS
p1113
sg43
Nssa(dp1114
g38
I669296699
sg39
(dp1115
g41
VE6 Cratos HCS
p1116
sg43
Nssg44
(lp1117
I2758383128
asg32
VWeaponPickup
p1118
sg35
VPT1M57.2782469S
p1119
sa(dp1120
g38
I313138863
sg39
(dp1121
g41
VOG Str8 SickHCS
p1122
sg43
Nssg44
(lp1123
I1095363701
asg32
VWeaponPickup
p1124
sg35
VPT1M59.3132142S
p1125
sa(dp1126
g38
I4096745987
sg39
(dp1127
g41
VOG Str8 SickHCS
p1128
sg43
Nssg44
(lp1129
I2758383128
asg32
VWeaponPickup
p1130
sg35
VPT1M59.3132142S
p1131
sa(dp1132
g32
VPlayerSpawn
p1133
sg39
(dp1134
g41
VOG Str8 SickHCS
p1135
sg43
Nssg35
VPT1M59.3132142S
p1136
sa(dp1137
g38
I313138863
sg32
VWeaponDrop
p1138
sg223
I0
sg44
(lp1139
I1095363701
asg35
VPT2M0.44423S
p1140
sg226
I0
sg227
VP0DT0H0M4.7500S
p1141
sg39
(dp1142
g41
VE6 Shooter
p1143
sg43
Nssa(dp1144
g38
I723523180
sg39
(dp1145
g41
VE6 Shooter
p1146
sg43
Nssg44
(lp1147
I2758383128
asg32
VWeaponPickup
p1148
sg35
VPT2M0.4452328S
p1149
sa(dp1150
g38
I313138863
sg39
(dp1151
g41
VOG APG HCS
p1152
sg43
Nssg44
(lp1153
I1095363701
asg32
VWeaponPickup
p1154
sg35
VPT2M1.3462236S
p1155
sa(dp1156
g38
I4096745987
sg39
(dp1157
g41
VOG APG HCS
p1158
sg43
Nssg44
(lp1159
I2758383128
asg32
VWeaponPickup
p1160
sg35
VPT2M1.3462236S
p1161
sa(dp1162
g32
VPlayerSpawn
p1163
sg39
(dp1164
g41
VOG APG HCS
p1165
sg43
Nssg35
VPT2M1.3462236S
p1166
sa(dp1167
g179
I4096745987
sg180
I00
sg181
I00
sg182
(dp1168
g41
VOG Maniac HCS
p1169
sg43
Nssg185
(lp1170
I2758383128
asg187
I00
sg188
I01
sg189
I1
sg190
I0
sg191
I1
sg192
(dp1171
Vy
F4.8363370000000003
sVx
F5.3862705200000001
sVz
F4.4700189999999997
ssg194
(dp1172
Vy
F8.6025770000000001
sVx
F9.4359500000000001
sVz
F1.15942729
ssg196
I00
sg197
(dp1173
g41
VE6 Shooter
p1174
sg43
Nssg200
(lp1175
sg202
(lp1176
sg206
I00
sg35
VPT2M1.8791967S
p1177
sg32
VDeath
p1178
sg209
I1
sa(dp1179
g38
I723523180
sg32
VWeaponDrop
p1180
sg223
I1
sg44
(lp1181
I2758383128
asg35
VPT2M1.8812156S
p1182
sg226
I0
sg227
VP0DT0H0M1.4333S
p1183
sg39
(dp1184
g41
VE6 Shooter
p1185
sg43
Nssa(dp1186
g38
I4096745987
sg32
VWeaponDrop
p1187
sg223
I8
sg44
(lp1188
I2758383128
asg35
VPT2M1.8812156S
p1189
sg226
I5
sg227
VP0DT0H0M53.5500S
p1190
sg39
(dp1191
g41
VE6 Shooter
p1192
sg43
Nssa(dp1193
g179
I723523180
sg180
I00
sg181
I00
sg182
(dp1194
g41
VE6 Shooter
p1195
sg43
Nssg185
(lp1196
I2758383128
asg187
I00
sg188
I01
sg189
I1
sg190
I0
sg191
I1
sg192
(dp1197
Vy
F8.1554149999999996
sVx
F9.7724489999999999
sVz
F1.2911833500000001
ssg194
(dp1198
Vy
F4.8361716299999999
sVx
F6.1066979999999997
sVz
F3.8051499999999998
ssg196
I00
sg197
(dp1199
g41
VOG Maniac HCS
p1200
sg43
Nssg200
(lp1201
sg202
(lp1202
sg206
I00
sg35
VPT2M2.1951947S
p1203
sg32
VDeath
p1204
sg209
I1
sa(dp1205
g32
VMedal
p1206
sg39
(dp1207
g41
VE6 Shooter
p1208
sg43
Nssg214
I2838259753
sg35
VPT2M2.1951947S
p1209
sa(dp1210
g32
VImpulse
p1211
sg39
(dp1212
g41
VE6 Shooter
p1213
sg43
Nssg1036
I2556889090
sg35
VPT2M2.1951947S
p1214
sa(dp1215
g32
VMedal
p1216
sg39
(dp1217
g41
VE6 Huke HCS
p1218
sg43
Nssg214
I824733727
sg35
VPT2M2.1962142S
p1219
sa(dp1220
g32
VMedal
p1221
sg39
(dp1222
g41
VE6 Shooter
p1223
sg43
Nssg214
I285057226
sg35
VPT2M2.197219S
p1224
sa(dp1225
g38
I313138863
sg32
VWeaponDrop
p1226
sg223
I0
sg44
(lp1227
I1095363701
asg35
VPT2M2.197219S
p1228
sg226
I0
sg227
VP0DT0H0M1.0167S
p1229
sg39
(dp1230
g41
VOG Maniac HCS
p1231
sg43
Nssa(dp1232
g38
I4096745987
sg32
VWeaponDrop
p1233
sg223
I2
sg44
(lp1234
I2758383128
asg35
VPT2M2.197219S
p1235
sg226
I2
sg227
VP0DT0H0M11.6167S
p1236
sg39
(dp1237
g41
VOG Maniac HCS
p1238
sg43
Nssa(dp1239
g38
I313138863
sg39
(dp1240
g41
VOG ACE HCS
p1241
sg43
Nssg44
(lp1242
I1095363701
asg32
VWeaponPickup
p1243
sg35
VPT2M4.4621805S
p1244
sa(dp1245
g38
I4096745987
sg39
(dp1246
g41
VOG ACE HCS
p1247
sg43
Nssg44
(lp1248
I2758383128
asg32
VWeaponPickup
p1249
sg35
VPT2M4.4632054S
p1250
sa(dp1251
g32
VPlayerSpawn
p1252
sg39
(dp1253
g41
VOG ACE HCS
p1254
sg43
Nssg35
VPT2M4.4632054S
p1255
sa(dp1256
g38
I313138863
sg32
VWeaponDrop
p1257
sg223
I0
sg44
(lp1258
I1095363701
asg35
VPT2M4.7612028S
p1259
sg226
I0
sg227
VP0DT0H0M2.0500S
p1260
sg39
(dp1261
g41
VE6 Huke HCS
p1262
sg43
Nssa(dp1263
g38
I723523180
sg39
(dp1264
g41
VE6 Huke HCS
p1265
sg43
Nssg44
(lp1266
I2758383128
asg32
VWeaponPickup
p1267
sg35
VPT2M4.7612028S
p1268
sa(dp1269
g38
I313138863
sg39
(dp1270
g41
VE6 Shooter
p1271
sg43
Nssg44
(lp1272
I1095363701
asg32
VWeaponPickup
p1273
sg35
VPT2M9.8961465S
p1274
sa(dp1275
g38
I4096745987
sg39
(dp1276
g41
VE6 Shooter
p1277
sg43
Nssg44
(lp1278
I2758383128
asg32
VWeaponPickup
p1279
sg35
VPT2M9.8961465S
p1280
sa(dp1281
g32
VPlayerSpawn
p1282
sg39
(dp1283
g41
VE6 Shooter
p1284
sg43
Nssg35
VPT2M9.8961465S
p1285
sa(dp1286
g38
I313138863
sg32
VWeaponDrop
p1287
sg223
I0
sg44
(lp1288
I1095363701
asg35
VPT2M10.1441449S
p1289
sg226
I0
sg227
VP0DT0H0M0.8500S
p1290
sg39
(dp1291
g41
VOG ACE HCS
p1292
sg43
Nssa(dp1293
g38
I723388907
sg39
(dp1294
g41
VOG ACE HCS
p1295
sg43
Nssg44
(lp1296
I89283061
asg32
VWeaponPickup
p1297
sg35
VPT2M10.1441449S
p1298
sa(dp1299
g38
I313138863
sg39
(dp1300
g41
VOG Maniac HCS
p1301
sg43
Nssg44
(lp1302
I1095363701
asg32
VWeaponPickup
p1303
sg35
VPT2M10.2121429S
p1304
sa(dp1305
g38
I4096745987
sg39
(dp1306
g41
VOG Maniac HCS
p1307
sg43
Nssg44
(lp1308
I2758383128
asg32
VWeaponPickup
p1309
sg35
VPT2M10.2131417S
p1310
sa(dp1311
g32
VPlayerSpawn
p1312
sg39
(dp1313
g41
VOG Maniac HCS
p1314
sg43
Nssg35
VPT2M10.2131417S
p1315
sa(dp1316
g179
I669296699
sg180
I00
sg181
I00
sg182
(dp1317
g41
VE6 Cratos HCS
p1318
sg43
Nssg185
(lp1319
I2758383128
asg187
I00
sg188
I01
sg189
I1
sg190
I0
sg191
I1
sg192
(dp1320
Vy
F11.873952900000001
sVx
F14.7339039
sVz
F1.13407254
ssg194
(dp1321
Vy
F11.987635600000001
sVx
F-6.0487349999999998
sVz
F3.5284089999999999
ssg196
I00
sg197
(dp1322
g41
VOG APG HCS
p1323
sg43
Nssg200
(lp1324
sg202
(lp1325
sg206
I01
sg35
VPT2M13.3451234S
p1326
sg32
VDeath
p1327
sg209
I1
sa(dp1328
g32
VMedal
p1329
sg39
(dp1330
g41
VE6 Cratos HCS
p1331
sg43
Nssg214
I848240062
sg35
VPT2M13.347149S
p1332
sa(dp1333
g38
I313138863
sg32
VWeaponDrop
p1334
sg223
I0
sg44
(lp1335
I1095363701
asg35
VPT2M13.347149S
p1336
sg226
I0
sg227
VP0DT0H0M1.0833S
p1337
sg39
(dp1338
g41
VOG APG HCS
p1339
sg43
Nssa(dp1340
g38
I4096745987
sg32
VWeaponDrop
p1341
sg223
I0
sg44
(lp1342
I2758383128
asg35
VPT2M13.347149S
p1343
sg226
I0
sg227
VP0DT0H0M10.9167S
p1344
sg39
(dp1345
g41
VOG APG HCS
p1346
sg43
Nssa(dp1347
g38
I4096745987
sg32
VWeaponDrop
p1348
sg223
I0
sg44
(lp1349
I2758383128
asg35
VPT2M16.9440982S
p1350
sg226
I0
sg227
VP0DT0H0M10.2833S
p1351
sg39
(dp1352
g41
VOG ACE HCS
p1353
sg43
Nssa(dp1354
g38
I4108759423
sg39
(dp1355
g41
VOG ACE HCS
p1356
sg43
Nssg44
(lp1357
I2758383128
asg32
VWeaponPickup
p1358
sg35
VPT2M16.9440982S
p1359
sa(dp1360
g38
I4096745987
sg32
VWeaponDrop
p1361
sg223
I3
sg44
(lp1362
I2758383128
asg35
VPT2M18.2440921S
p1363
sg226
I0
sg227
VP0DT0H0M55.1000S
p1364
sg39
(dp1365
g41
VE6 bubu dubu
p1366
sg43
Nssa(dp1367
g38
I523953283
sg39
(dp1368
g41
VE6 bubu dubu
p1369
sg43
Nssg44
(lp1370
I2208825748
asg32
VWeaponPickup
p1371
sg35
VPT2M18.2440921S
p1372
sa(dp1373
g38
I723388907
sg32
VWeaponDrop
p1374
sg223
I0
sg44
(lp1375
I89283061
asg35
VPT2M20.8100757S
p1376
sg226
I0
sg227
VP0DT0H0M1.8000S
p1377
sg39
(dp1378
g41
VOG ACE HCS
p1379
sg43
Nssa(dp1380
g38
I723523180
sg39
(dp1381
g41
VOG ACE HCS
p1382
sg43
Nssg44
(lp1383
I2758383128
asg32
VWeaponPickupPad
p1384
sg35
VPT2M20.8110757S
p1385
sa(dp1386
g38
I723523180
sg39
(dp1387
g41
VOG ACE HCS
p1388
sg43
Nssg44
(lp1389
I2758383128
asg32
VWeaponPickup
p1390
sg35
VPT2M20.8110757S
p1391
sa(dp1392
g38
I313138863
sg39
(dp1393
g41
VOG APG HCS
p1394
sg43
Nssg44
(lp1395
I1095363701
asg32
VWeaponPickup
p1396
sg35
VPT2M21.3620926S
p1397
sa(dp1398
g38
I4096745987
sg39
(dp1399
g41
VOG APG HCS
p1400
sg43
Nssg44
(lp1401
I2758383128
asg32
VWeaponPickup
p1402
sg35
VPT2M21.3620926S
p1403
sa(dp1404
g32
VPlayerSpawn
p1405
sg39
(dp1406
g41
VOG APG HCS
p1407
sg43
Nssg35
VPT2M21.3620926S
p1408
sa(dp1409
g179
I4096745987
sg180
I00
sg181
I01
sg182
(dp1410
g41
VE6 Cratos HCS
p1411
sg43
Nssg185
(lp1412
I2758383128
asg187
I00
sg188
I00
sg189
I1
sg190
I0
sg191
I1
sg192
(dp1413
Vy
F15.1659994
sVx
F7.0571346300000002
sVz
F2.8225180000000001
ssg194
(dp1414
Vy
F15.044138
sVx
F7.4278259999999996
sVz
F2.87207246
ssg196
I00
sg197
(dp1415
g41
VOG Str8 SickHCS
p1416
sg43
Nssg200
(lp1417
sg202
(lp1418
sg206
I00
sg35
VPT2M27.0450355S
p1419
sg32
VDeath
p1420
sg209
I1
sa(dp1421
g32
VMedal
p1422
sg39
(dp1423
g41
VE6 Cratos HCS
p1424
sg43
Nssg214
I2287626681
sg35
VPT2M27.0460625S
p1425
sa(dp1426
g38
I313138863
sg32
VWeaponDrop
p1427
sg223
I28
sg44
(lp1428
I1095363701
asg35
VPT2M27.0460625S
p1429
sg226
I21
sg227
VP0DT0H0M19.7833S
p1430
sg39
(dp1431
g41
VOG Str8 SickHCS
p1432
sg43
Nssa(dp1433
g38
I4096745987
sg32
VWeaponDrop
p1434
sg223
I0
sg44
(lp1435
I2758383128
asg35
VPT2M27.0470583S
p1436
sg226
I0
sg227
VP0DT0H0M7.9500S
p1437
sg39
(dp1438
g41
VOG Str8 SickHCS
p1439
sg43
Nssa(dp1440
g38
I669296699
sg32
VWeaponDrop
p1441
sg223
I4
sg44
(lp1442
I2758383128
asg35
VPT2M32.8760005S
p1443
sg226
I1
sg227
VP0DT0H0M25.0833S
p1444
sg39
(dp1445
g41
VE6 Cratos HCS
p1446
sg43
Nssa(dp1447
g38
I313138863
sg39
(dp1448
g41
VE6 Cratos HCS
p1449
sg43
Nssg44
(lp1450
I1095363701
asg32
VWeaponPickup
p1451
sg35
VPT2M32.8769992S
p1452
sa(dp1453
g38
I313138863
sg39
(dp1454
g41
VOG Str8 SickHCS
p1455
sg43
Nssg44
(lp1456
I1095363701
asg32
VWeaponPickup
p1457
sg35
VPT2M35.060985S
p1458
sa(dp1459
g38
I4096745987
sg39
(dp1460
g41
VOG Str8 SickHCS
p1461
sg43
Nssg44
(lp1462
I2758383128
asg32
VWeaponPickup
p1463
sg35
VPT2M35.0620078S
p1464
sa(dp1465
g32
VPlayerSpawn
p1466
sg39
(dp1467
g41
VOG Str8 SickHCS
p1468
sg43
Nssg35
VPT2M35.0620078S
p1469
sa(dp1470
g179
I523953283
sg180
I00
sg181
I00
sg182
(dp1471
g41
VE6 bubu dubu
p1472
sg43
Nssg185
(lp1473
I2208825748
asg187
I00
sg188
I01
sg189
I1
sg190
I0
sg191
I1
sg192
(dp1474
Vy
F1.3949456200000001
sVx
F10.7077618
sVz
F-0.40108969999999999
ssg194
(dp1475
Vy
F4.3245509999999996
sVx
F7.0588283499999998
sVz
F1.19387233
ssg196
I00
sg197
(dp1476
g41
VOG APG HCS
p1477
sg43
Nssg200
(lp1478
sg202
(lp1479
sg206
I01
sg35
VPT2M36.2609764S
p1480
sg32
VDeath
p1481
sg209
I1
sa(dp1482
g32
VMedal
p1483
sg39
(dp1484
g41
VE6 bubu dubu
p1485
sg43
Nssg214
I3261908037
sg35
VPT2M36.2629994S
p1486
sa(dp1487
g38
I313138863
sg32
VWeaponDrop
p1488
sg223
I11
sg44
(lp1489
I1095363701
asg35
VPT2M36.2629994S
p1490
sg226
I7
sg227
VP0DT0H0M3.2000S
p1491
sg39
(dp1492
g41
VOG APG HCS
p1493
sg43
Nssa(dp1494
g38
I4096745987
sg32
VWeaponDrop
p1495
sg223
I2
sg44
(lp1496
I2758383128
asg35
VPT2M36.2629994S
p1497
sg226
I0
sg227
VP0DT0H0M11.7000S
p1498
sg39
(dp1499
g41
VOG APG HCS
p1500
sg43
Nssa(dp1501
g179
I4096745987
sg180
I00
sg181
I00
sg182
(dp1502
g41
VOG Str8 SickHCS
p1503
sg43
Nssg185
(lp1504
I2758383128
asg187
I00
sg188
I01
sg189
I1
sg190
I0
sg191
I1
sg192
(dp1505
Vy
F-9.9539329999999993
sVx
F-7.0902200000000004
sVz
F2.1163509999999999
ssg194
(dp1506
Vy
F0.49758717400000002
sVx
F9.9798220000000004
sVz
F-0.3988641
ssg196
I00
sg197
(dp1507
g41
VE6 bubu dubu
p1508
sg43
Nssg200
(lp1509
sg202
(lp1510
(dp1511
g41
VOG APG HCS
p1512
sg43
Nsa(dp1513
g41
VOG Maniac HCS
p1514
sg43
Nsasg206
I01
sg35
VPT2M39.4269801S
p1515
sg32
VDeath
p1516
sg209
I1
sa(dp1517
g32
VMedal
p1518
sg39
(dp1519
g41
VOG Str8 SickHCS
p1520
sg43
Nssg214
I352859864
sg35
VPT2M39.4269801S
p1521
sa(dp1522
g32
VImpulse
p1523
sg39
(dp1524
g41
VOG Str8 SickHCS
p1525
sg43
Nssg1036
I2556889090
sg35
VPT2M39.4269801S
p1526
sa(dp1527
g32
VMedal
p1528
sg39
(dp1529
g41
VOG Str8 SickHCS
p1530
sg43
Nssg214
I3261908037
sg35
VPT2M39.4289798S
p1531
sa(dp1532
g38
I3808094875
sg32
VWeaponDrop
p1533
sg223
I8
sg44
(lp1534
I2758383128
asg35
VPT2M39.4289798S
p1535
sg226
I4
sg227
VP0DT0H0M5.7833S
p1536
sg39
(dp1537
g41
VE6 bubu dubu
p1538
sg43
Nssa(dp1539
g38
I523953283
sg32
VWeaponDrop
p1540
sg223
I11
sg44
(lp1541
I2208825748
asg35
VPT2M39.4289798S
p1542
sg226
I9
sg227
VP0DT0H0M21.1833S
p1543
sg39
(dp1544
g41
VE6 bubu dubu
p1545
sg43
Nssa(dp1546
g179
I723523180
sg180
I00
sg181
I00
sg182
(dp1547
g41
VOG ACE HCS
p1548
sg43
Nssg185
(lp1549
I2758383128
asg187
I00
sg188
I01
sg189
I1
sg190
I0
sg191
I1
sg192
(dp1550
Vy
F2.7038154599999999
sVx
F12.728430700000001
sVz
F1.62383842
ssg194
(dp1551
Vy
F11.662733100000001
sVx
F6.3390829999999996
sVz
F1.4507116099999999
ssg196
I00
sg197
(dp1552
g41
VE6 Cratos HCS
p1553
sg43
Nssg200
(lp1554
sg202
(lp1555
sg206
I00
sg35
VPT2M44.1269268S
p1556
sg32
VDeath
p1557
sg209
I1
sa(dp1558
g32
VMedal
p1559
sg39
(dp1560
g41
VOG Maniac HCS
p1561
sg43
Nssg214
I824733727
sg35
VPT2M44.1269268S
p1562
sa(dp1563
g38
I313138863
sg32
VWeaponDrop
p1564
sg223
I0
sg44
(lp1565
I1095363701
asg35
VPT2M44.1289497S
p1566
sg226
I0
sg227
VP0DT0H0M2.2500S
p1567
sg39
(dp1568
g41
VE6 Cratos HCS
p1569
sg43
Nssa(dp1570
g38
I4096745987
sg32
VWeaponDrop
p1571
sg223
I22
sg44
(lp1572
I2758383128
asg35
VPT2M44.1289497S
p1573
sg226
I14
sg227
VP0DT0H1M2.2167S
p1574
sg39
(dp1575
g41
VE6 Cratos HCS
p1576
sg43
Nssa(dp1577
g38
I4096745987
sg32
VWeaponDrop
p1578
sg223
I0
sg44
(lp1579
I2758383128
asg35
VPT2M44.1289497S
p1580
sg226
I0
sg227
VP0DT0S
p1581
sg39
(dp1582
g41
VE6 Cratos HCS
p1583
sg43
Nssa(dp1584
g38
I313138863
sg39
(dp1585
g41
VOG APG HCS
p1586
sg43
Nssg44
(lp1587
I1095363701
asg32
VWeaponPickup
p1588
sg35
VPT2M44.2779735S
p1589
sa(dp1590
g38
I4096745987
sg39
(dp1591
g41
VOG APG HCS
p1592
sg43
Nssg44
(lp1593
I2758383128
asg32
VWeaponPickup
p1594
sg35
VPT2M44.2779735S
p1595
sa(dp1596
g32
VPlayerSpawn
p1597
sg39
(dp1598
g41
VOG APG HCS
p1599
sg43
Nssg35
VPT2M44.2779735S
p1600
sa(dp1601
g38
I313138863
sg39
(dp1602
g41
VE6 bubu dubu
p1603
sg43
Nssg44
(lp1604
I1095363701
asg32
VWeaponPickup
p1605
sg35
VPT2M47.4439072S
p1606
sa(dp1607
g38
I4096745987
sg39
(dp1608
g41
VE6 bubu dubu
p1609
sg43
Nssg44
(lp1610
I2758383128
asg32
VWeaponPickup
p1611
sg35
VPT2M47.4439072S
p1612
sa(dp1613
g32
VPlayerSpawn
p1614
sg39
(dp1615
g41
VE6 bubu dubu
p1616
sg43
Nssg35
VPT2M47.4439072S
p1617
sa(dp1618
g38
I313138863
sg32
VWeaponDrop
p1619
sg223
I0
sg44
(lp1620
I1095363701
asg35
VPT2M47.9259391S
p1621
sg226
I0
sg227
VP0DT0H0M1.5000S
p1622
sg39
(dp1623
g41
VOG Maniac HCS
p1624
sg43
Nssa(dp1625
g38
I3808094875
sg39
(dp1626
g41
VOG Maniac HCS
p1627
sg43
Nssg44
(lp1628
I2758383128
asg32
VWeaponPickup
p1629
sg35
VPT2M47.9259391S
p1630
sa(dp1631
g38
I4096745987
sg32
VWeaponDrop
p1632
sg223
I6
sg44
(lp1633
I2758383128
asg35
VPT2M50.2089119S
p1634
sg226
I1
sg227
VP0DT0H0M12.5667S
p1635
sg39
(dp1636
g41
VOG Str8 SickHCS
p1637
sg43
Nssa(dp1638
g38
I424645655
sg39
(dp1639
g41
VOG Str8 SickHCS
p1640
sg43
Nssg44
(lp1641
I1327094800
asg32
VWeaponPickup
p1642
sg35
VPT2M50.2089119S
p1643
sa(dp1644
g38
I313138863
sg39
(dp1645
g41
VE6 Cratos HCS
p1646
sg43
Nssg44
(lp1647
I1095363701
asg32
VWeaponPickup
p1648
sg35
VPT2M52.1439006S
p1649
sa(dp1650
g38
I4096745987
sg39
(dp1651
g41
VE6 Cratos HCS
p1652
sg43
Nssg44
(lp1653
I2758383128
asg32
VWeaponPickup
p1654
sg35
VPT2M52.1439006S
p1655
sa(dp1656
g32
VPlayerSpawn
p1657
sg39
(dp1658
g41
VE6 Cratos HCS
p1659
sg43
Nssg35
VPT2M52.1439006S
p1660
sa(dp1661
g179
I723523180
sg180
I00
sg181
I00
sg182
(dp1662
g41
VOG ACE HCS
p1663
sg43
Nssg185
(lp1664
I2758383128
asg187
I00
sg188
I01
sg189
I1
sg190
I0
sg191
I1
sg192
(dp1665
Vy
F5.2220399999999998
sVx
F4.7853539999999999
sVz
F1.0536067499999999
ssg194
(dp1666
Vy
F8.961627
sVx
F15.7479019
sVz
F1.60995471
ssg196
I00
sg197
(dp1667
g41
VE6 Huke HCS
p1668
sg43
Nssg200
(lp1669
sg202
(lp1670
(dp1671
g41
VOG Maniac HCS
p1672
sg43
Nsa(dp1673
g41
VOG Str8 SickHCS
p1674
sg43
Nsasg206
I00
sg35
VPT2M59.1598309S
p1675
sg32
VDeath
p1676
sg209
I1
sa(dp1677
g38
I723523180
sg32
VWeaponDrop
p1678
sg223
I1
sg44
(lp1679
I2758383128
asg35
VPT2M59.1618536S
p1680
sg226
I1
sg227
VP0DT0H0M13.2833S
p1681
sg39
(dp1682
g41
VE6 Huke HCS
p1683
sg43
Nssa(dp1684
g38
I523953283
sg32
VWeaponDrop
p1685
sg223
I32
sg44
(lp1686
I2208825748
asg35
VPT2M59.1618536S
p1687
sg226
I15
sg227
VP0DT0H1M28.1833S
p1688
sg39
(dp1689
g41
VE6 Huke HCS
p1690
sg43
Nssa(dp1691
g38
I313138863
sg32
VWeaponDrop
p1692
sg223
I0
sg44
(lp1693
I1095363701
asg35
VPT2M59.6248483S
p1694
sg226
I0
sg227
VP0DT0H0M1.7667S
p1695
sg39
(dp1696
g41
VE6 bubu dubu
p1697
sg43
Nssa(dp1698
g38
I723388907
sg39
(dp1699
g41
VE6 bubu dubu
p1700
sg43
Nssg44
(lp1701
I89283061
asg32
VWeaponPickup
p1702
sg35
VPT2M59.6258511S
p1703
sa(dp1704
g179
I4106030681
sg180
I00
sg181
I00
sg182
(dp1705
g41
VE6 bubu dubu
p1706
sg43
Nssg185
(lp1707
sg187
I00
sg188
I01
sg189
I1
sg190
I0
sg191
I1
sg192
(dp1708
Vy
F-1.9215778100000001
sVx
F3.34422088
sVz
F-1.9897213
ssg194
(dp1709
Vy
F6.8996605899999999
sVx
F-1.9349494
sVz
F0.29010838300000003
ssg196
I00
sg197
(dp1710
g41
VOG ACE HCS
p1711
sg43
Nssg200
(lp1712
sg202
(lp1713
sg206
I00
sg35
VPT3M5.9097878S
p1714
sg32
VDeath
p1715
sg209
I1
sa(dp1716
g38
I723523180
sg32
VWeaponDrop
p1717
sg223
I4
sg44
(lp1718
I2758383128
asg35
VPT3M5.9108077S
p1719
sg226
I4
sg227
VP0DT0H0M28.9000S
p1720
sg39
(dp1721
g41
VOG ACE HCS
p1722
sg43
Nssa(dp1723
g38
I4108759423
sg32
VWeaponDrop
p1724
sg223
I9
sg44
(lp1725
I2758383128
asg35
VPT3M5.9108077S
p1726
sg226
I2
sg227
VP0DT0H0M19.6167S
p1727
sg39
(dp1728
g41
VOG ACE HCS
p1729
sg43
Nssa(dp1730
g179
I3808094875
sg180
I00
sg181
I00
sg182
(dp1731
g41
VOG Maniac HCS
p1732
sg43
Nssg185
(lp1733
I2758383128
asg187
I00
sg188
I01
sg189
I1
sg190
I0
sg191
I1
sg192
(dp1734
Vy
F10.5416384
sVx
F-2.68740654
sVz
F2.2961068199999999
ssg194
(dp1735
Vy
F11.3124895
sVx
F-3.8204349999999998
sVz
F2.2902407600000001
ssg196
I00
sg197
(dp1736
g41
VE6 Shooter
p1737
sg43
Nssg200
(lp1738
sg202
(lp1739
(dp1740
g41
VOG ACE HCS
p1741
sg43
Nsasg206
I00
sg35
VPT3M6.0107848S
p1742
sg32
VDeath
p1743
sg209
I1
sa(dp1744
g38
I313138863
sg32
VWeaponDrop
p1745
sg223
I2
sg44
(lp1746
I1095363701
asg35
VPT3M6.01381S
p1747
sg226
I2
sg227
VP0DT0H0M9.0333S
p1748
sg39
(dp1749
g41
VE6 Shooter
p1750
sg43
Nssa(dp1751
g38
I4096745987
sg32
VWeaponDrop
p1752
sg223
I7
sg44
(lp1753
I2758383128
asg35
VPT3M6.01381S
p1754
sg226
I2
sg227
VP0DT0H0M47.0833S
p1755
sg39
(dp1756
g41
VE6 Shooter
p1757
sg43
Nssa(dp1758
g38
I313138863
sg39
(dp1759
g41
VE6 Huke HCS
p1760
sg43
Nssg44
(lp1761
I1095363701
asg32
VWeaponPickup
p1762
sg35
VPT3M7.1768033S
p1763
sa(dp1764
g38
I4096745987
sg39
(dp1765
g41
VE6 Huke HCS
p1766
sg43
Nssg44
(lp1767
I2758383128
asg32
VWeaponPickup
p1768
sg35
VPT3M7.1768033S
p1769
sa(dp1770
g32
VPlayerSpawn
p1771
sg39
(dp1772
g41
VE6 Huke HCS
p1773
sg43
Nssg35
VPT3M7.1768033S
p1774
sa(dp1775
g38
I313138863
sg32
VWeaponDrop
p1776
sg223
I0
sg44
(lp1777
I1095363701
asg35
VPT3M8.7577878S
p1778
sg226
I0
sg227
VP0DT0H0M1.4167S
p1779
sg39
(dp1780
g41
VE6 Cratos HCS
p1781
sg43
Nssa(dp1782
g38
I4108759423
sg39
(dp1783
g41
VE6 Cratos HCS
p1784
sg43
Nssg44
(lp1785
I2758383128
asg32
VWeaponPickup
p1786
sg35
VPT3M8.7587892S
p1787
sa(dp1788
g38
I313138863
sg39
(dp1789
g41
VOG ACE HCS
p1790
sg43
Nssg44
(lp1791
I1095363701
asg32
VWeaponPickup
p1792
sg35
VPT3M13.9257359S
p1793
sa(dp1794
g38
I4096745987
sg39
(dp1795
g41
VOG ACE HCS
p1796
sg43
Nssg44
(lp1797
I2758383128
asg32
VWeaponPickup
p1798
sg35
VPT3M13.9267594S
p1799
sa(dp1800
g32
VPlayerSpawn
p1801
sg39
(dp1802
g41
VOG ACE HCS
p1803
sg43
Nssg35
VPT3M13.9267594S
p1804
sa(dp1805
g38
I313138863
sg39
(dp1806
g41
VE6 Shooter
p1807
sg43
Nssg44
(lp1808
I1095363701
asg32
VWeaponPickup
p1809
sg35
VPT3M14.026757S
p1810
sa(dp1811
g38
I4096745987
sg39
(dp1812
g41
VE6 Shooter
p1813
sg43
Nssg44
(lp1814
I2758383128
asg32
VWeaponPickup
p1815
sg35
VPT3M14.026757S
p1816
sa(dp1817
g32
VPlayerSpawn
p1818
sg39
(dp1819
g41
VE6 Shooter
p1820
sg43
Nssg35
VPT3M14.026757S
p1821
sa(dp1822
g38
I4096745987
sg32
VWeaponDrop
p1823
sg223
I20
sg44
(lp1824
I2758383128
asg35
VPT3M15.6907486S
p1825
sg226
I9
sg227
VP0DT0H0M43.1667S
p1826
sg39
(dp1827
g41
VOG Maniac HCS
p1828
sg43
Nssa(dp1829
g38
I523953283
sg39
(dp1830
g41
VOG Maniac HCS
p1831
sg43
Nssg44
(lp1832
I2208825748
asg32
VWeaponPickup
p1833
sg35
VPT3M15.6917475S
p1834
sa(dp1835
g179
I4106030681
sg180
I00
sg181
I00
sg182
(dp1836
g41
VOG APG HCS
p1837
sg43
Nssg185
(lp1838
sg187
I00
sg188
I01
sg189
I1
sg190
I0
sg191
I1
sg192
(dp1839
Vy
F5.4374756800000004
sVx
F0.21318000000000001
sVz
F-0.67751539999999999
ssg194
(dp1840
Vy
F3.0132500000000002
sVx
F8.3271420000000003
sVz
F0.092728379999999999
ssg196
I00
sg197
(dp1841
g41
VE6 bubu dubu
p1842
sg43
Nssg200
(lp1843
sg202
(lp1844
(dp1845
g41
VOG Maniac HCS
p1846
sg43
Nsasg206
I00
sg35
VPT3M22.1086825S
p1847
sg32
VDeath
p1848
sg209
I1
sa(dp1849
g38
I4096745987
sg32
VWeaponDrop
p1850
sg223
I12
sg44
(lp1851
I2758383128
asg35
VPT3M22.1107038S
p1852
sg226
I7
sg227
VP0DT0H0M30.5333S
p1853
sg39
(dp1854
g41
VE6 bubu dubu
p1855
sg43
Nssa(dp1856
g38
I723388907
sg32
VWeaponDrop
p1857
sg223
I9
sg44
(lp1858
I89283061
asg35
VPT3M22.1117033S
p1859
sg226
I2
sg227
VP0DT0H0M2.3667S
p1860
sg39
(dp1861
g41
VE6 bubu dubu
p1862
sg43
Nssa(dp1863
g179
I313138863
sg180
I00
sg181
I00
sg182
(dp1864
g41
VE6 Huke HCS
p1865
sg43
Nssg185
(lp1866
I1095363701
asg187
I00
sg188
I01
sg189
I1
sg190
I0
sg191
I1
sg192
(dp1867
Vy
F4.8367276199999996
sVx
F2.9865226699999998
sVz
F0.89504373100000001
ssg194
(dp1868
Vy
F9.1665759999999992
sVx
F3.4384527199999999
sVz
F1.7205646000000001
ssg196
I00
sg197
(dp1869
g41
VOG APG HCS
p1870
sg43
Nssg200
(lp1871
sg202
(lp1872
(dp1873
g41
VE6 Shooter
p1874
sg43
Nsasg206
I00
sg35
VPT3M29.7256649S
p1875
sg32
VDeath
p1876
sg209
I1
sa(dp1877
g38
I313138863
sg32
VWeaponDrop
p1878
sg223
I7
sg44
(lp1879
I1095363701
asg35
VPT3M29.7276849S
p1880
sg226
I1
sg227
VP0DT0H0M14.9667S
p1881
sg39
(dp1882
g41
VOG APG HCS
p1883
sg43
Nssa(dp1884
g38
I4096745987
sg32
VWeaponDrop
p1885
sg223
I7
sg44
(lp1886
I2758383128
asg35
VPT3M29.7276849S
p1887
sg226
I3
sg227
VP0DT0H0M30.4833S
p1888
sg39
(dp1889
g41
VOG APG HCS
p1890
sg43
Nssa(dp1891
g38
I313138863
sg39
(dp1892
g41
VE6 bubu dubu
p1893
sg43
Nssg44
(lp1894
I1095363701
asg32
VWeaponPickup
p1895
sg35
VPT3M30.1256884S
p1896
sa(dp1897
g38
I4096745987
sg39
(dp1898
g41
VE6 bubu dubu
p1899
sg43
Nssg44
(lp1900
I2758383128
asg32
VWeaponPickup
p1901
sg35
VPT3M30.1256884S
p1902
sa(dp1903
g32
VPlayerSpawn
p1904
sg39
(dp1905
g41
VE6 bubu dubu
p1906
sg43
Nssg35
VPT3M30.1256884S
p1907
sa(dp1908
g38
I4108759423
sg32
VWeaponDrop
p1909
sg223
I1
sg44
(lp1910
I2758383128
asg35
VPT3M30.6746648S
p1911
sg226
I1
sg227
VPT0S
p1912
sg39
(dp1913
g41
VOG ACE HCS
p1914
sg43
Nssa(dp1915
g38
I4096745987
sg32
VWeaponDrop
p1916
sg223
I4
sg44
(lp1917
I2758383128
asg35
VPT3M31.2567024S
p1918
sg226
I0
sg227
VP0DT0H0M16.7000S
p1919
sg39
(dp1920
g41
VOG ACE HCS
p1921
sg43
Nssa(dp1922
g38
I4108759423
sg39
(dp1923
g41
VOG ACE HCS
p1924
sg43
Nssg44
(lp1925
I2758383128
asg32
VWeaponPickup
p1926
sg35
VPT3M31.2576661S
p1927
sa(dp1928
g179
I313138863
sg180
I00
sg181
I01
sg182
(dp1929
g41
VOG Str8 SickHCS
p1930
sg43
Nssg185
(lp1931
I1095363701
asg187
I00
sg188
I00
sg189
I1
sg190
I0
sg191
I1
sg192
(dp1932
Vy
F5.5195527100000001
sVx
F4.3657684300000001
sVz
F0.97692250000000003
ssg194
(dp1933
Vy
F5.6116857500000004
sVx
F4.7006779999999999
sVz
F1.1542414400000001
ssg196
I00
sg197
(dp1934
g41
VE6 Huke HCS
p1935
sg43
Nssg200
(lp1936
sg202
(lp1937
(dp1938
g41
VOG APG HCS
p1939
sg43
Nsa(dp1940
g41
VOG Maniac HCS
p1941
sg43
Nsasg206
I00
sg35
VPT3M32.4746858S
p1942
sg32
VDeath
p1943
sg209
I1
sa(dp1944
g32
VMedal
p1945
sg39
(dp1946
g41
VOG Str8 SickHCS
p1947
sg43
Nssg214
I2287626681
sg35
VPT3M32.4766888S
p1948
sa(dp1949
g38
I313138863
sg32
VWeaponDrop
p1950
sg223
I34
sg44
(lp1951
I1095363701
asg35
VPT3M32.4766888S
p1952
sg226
I11
sg227
VP0DT0H0M16.3833S
p1953
sg39
(dp1954
g41
VE6 Huke HCS
p1955
sg43
Nssa(dp1956
g38
I313138863
sg32
VWeaponDrop
p1957
sg223
I0
sg44
(lp1958
I1095363701
asg35
VPT3M32.4766888S
p1959
sg226
I0
sg227
VP0DT0S
p1960
sg39
(dp1961
g41
VE6 Huke HCS
p1962
sg43
Nssa(dp1963
g38
I4096745987
sg32
VWeaponDrop
p1964
sg223
I0
sg44
(lp1965
I2758383128
asg35
VPT3M32.4776878S
p1966
sg226
I0
sg227
VP0DT0H0M8.9167S
p1967
sg39
(dp1968
g41
VE6 Huke HCS
p1969
sg43
Nssa(dp1970
g179
I4108759423
sg180
I00
sg181
I00
sg182
(dp1971
g41
VOG ACE HCS
p1972
sg43
Nssg185
(lp1973
I2758383128
asg187
I00
sg188
I01
sg189
I1
sg190
I0
sg191
I1
sg192
(dp1974
Vy
F-9.6957740000000001
sVx
F1.4182084800000001
sVz
F4.505261
ssg194
(dp1975
Vy
F-8.1162530000000004
sVx
F6.5765967400000003
sVz
F0.96270263199999995
ssg196
I00
sg197
(dp1976
g41
VE6 Cratos HCS
p1977
sg43
Nssg200
(lp1978
sg202
(lp1979
(dp1980
g41
VOG Str8 SickHCS
p1981
sg43
Nsasg206
I01
sg35
VPT3M34.3746667S
p1982
sg32
VDeath
p1983
sg209
I1
sa(dp1984
g32
VMedal
p1985
sg39
(dp1986
g41
VOG ACE HCS
p1987
sg43
Nssg214
I3261908037
sg35
VPT3M34.3756922S
p1988
sa(dp1989
g38
I4108759423
sg32
VWeaponDrop
p1990
sg223
I31
sg44
(lp1991
I2758383128
asg35
VPT3M34.3766929S
p1992
sg226
I16
sg227
VP0DT0H0M25.6167S
p1993
sg39
(dp1994
g41
VE6 Cratos HCS
p1995
sg43
Nssa(dp1996
g38
I4096745987
sg32
VWeaponDrop
p1997
sg223
I4
sg44
(lp1998
I2758383128
asg35
VPT3M34.3766929S
p1999
sg226
I2
sg227
VP0DT0H0M15.2000S
p2000
sg39
(dp2001
g41
VE6 Cratos HCS
p2002
sg43
Nssa(dp2003
g38
I313138863
sg39
(dp2004
g41
VOG APG HCS
p2005
sg43
Nssg44
(lp2006
I1095363701
asg32
VWeaponPickup
p2007
sg35
VPT3M37.7416647S
p2008
sa(dp2009
g38
I4096745987
sg39
(dp2010
g41
VOG APG HCS
p2011
sg43
Nssg44
(lp2012
I2758383128
asg32
VWeaponPickup
p2013
sg35
VPT3M37.7426871S
p2014
sa(dp2015
g32
VPlayerSpawn
p2016
sg39
(dp2017
g41
VOG APG HCS
p2018
sg43
Nssg35
VPT3M37.7426871S
p2019
sa(dp2020
g179
I3808094875
sg180
I00
sg181
I00
sg182
(dp2021
g41
VOG Maniac HCS
p2022
sg43
Nssg185
(lp2023
I2758383128
asg187
I00
sg188
I01
sg189
I1
sg190
I0
sg191
I1
sg192
(dp2024
Vy
F5.1174645400000003
sVx
F5.5030922899999997
sVz
F0.28729159999999998
ssg194
(dp2025
Vy
F4.6101503399999997
sVx
F6.2209060000000003
sVz
F0.20124378800000001
ssg196
I00
sg197
(dp2026
g41
VE6 Shooter
p2027
sg43
Nssg200
(lp2028
sg202
(lp2029
(dp2030
g41
VOG Str8 SickHCS
p2031
sg43
Nsasg206
I00
sg35
VPT3M39.508665S
p2032
sg32
VDeath
p2033
sg209
I1
sa(dp2034
g38
I313138863
sg32
VWeaponDrop
p2035
sg223
I24
sg44
(lp2036
I1095363701
asg35
VPT3M39.5106692S
p2037
sg226
I13
sg227
VP0DT0H0M6.8667S
p2038
sg39
(dp2039
g41
VE6 Shooter
p2040
sg43
Nssa(dp2041
g38
I4096745987
sg32
VWeaponDrop
p2042
sg223
I13
sg44
(lp2043
I2758383128
asg35
VPT3M39.5106692S
p2044
sg226
I5
sg227
VP0DT0H0M18.6167S
p2045
sg39
(dp2046
g41
VE6 Shooter
p2047
sg43
Nssa(dp2048
g38
I313138863
sg39
(dp2049
g41
VE6 Huke HCS
p2050
sg43
Nssg44
(lp2051
I1095363701
asg32
VWeaponPickup
p2052
sg35
VPT3M40.4916888S
p2053
sa(dp2054
g38
I4096745987
sg39
(dp2055
g41
VE6 Huke HCS
p2056
sg43
Nssg44
(lp2057
I2758383128
asg32
VWeaponPickup
p2058
sg35
VPT3M40.4916888S
p2059
sa(dp2060
g32
VPlayerSpawn
p2061
sg39
(dp2062
g41
VE6 Huke HCS
p2063
sg43
Nssg35
VPT3M40.4916888S
p2064
sa(dp2065
g32
VMedal
p2066
sg39
(dp2067
g41
VOG Str8 SickHCS
p2068
sg43
Nssg214
I3400287617
sg35
VPT3M40.7076652S
p2069
sa(dp2070
g38
I313138863
sg32
VWeaponDrop
p2071
sg223
I0
sg44
(lp2072
I1095363701
asg35
VPT3M41.1066642S
p2073
sg226
I0
sg227
VP0DT0H0M1.7333S
p2074
sg39
(dp2075
g41
VE6 bubu dubu
p2076
sg43
Nssa(dp2077
g38
I669296699
sg39
(dp2078
g41
VE6 bubu dubu
p2079
sg43
Nssg44
(lp2080
I2758383128
asg32
VWeaponPickupPad
p2081
sg35
VPT3M41.1066642S
p2082
sa(dp2083
g38
I669296699
sg39
(dp2084
g41
VE6 bubu dubu
p2085
sg43
Nssg44
(lp2086
I2758383128
asg32
VWeaponPickup
p2087
sg35
VPT3M41.1076707S
p2088
sa(dp2089
g38
I313138863
sg39
(dp2090
g41
VE6 Cratos HCS
p2091
sg43
Nssg44
(lp2092
I1095363701
asg32
VWeaponPickup
p2093
sg35
VPT3M42.3936753S
p2094
sa(dp2095
g38
I4096745987
sg39
(dp2096
g41
VE6 Cratos HCS
p2097
sg43
Nssg44
(lp2098
I2758383128
asg32
VWeaponPickup
p2099
sg35
VPT3M42.3936753S
p2100
sa(dp2101
g32
VPlayerSpawn
p2102
sg39
(dp2103
g41
VE6 Cratos HCS
p2104
sg43
Nssg35
VPT3M42.3936753S
p2105
sa(dp2106
g38
I313138863
sg32
VWeaponDrop
p2107
sg223
I0
sg44
(lp2108
I1095363701
asg35
VPT3M44.6236415S
p2109
sg226
I0
sg227
VP0DT0H0M0.9000S
p2110
sg39
(dp2111
g41
VOG ACE HCS
p2112
sg43
Nssa(dp2113
g38
I723388907
sg39
(dp2114
g41
VOG ACE HCS
p2115
sg43
Nssg44
(lp2116
I89283061
asg32
VWeaponPickup
p2117
sg35
VPT3M44.6236415S
p2118
sa(dp2119
g38
I313138863
sg39
(dp2120
g41
VE6 Shooter
p2121
sg43
Nssg44
(lp2122
I1095363701
asg32
VWeaponPickup
p2123
sg35
VPT3M47.5246232S
p2124
sa(dp2125
g38
I4096745987
sg39
(dp2126
g41
VE6 Shooter
p2127
sg43
Nssg44
(lp2128
I2758383128
asg32
VWeaponPickup
p2129
sg35
VPT3M47.5256438S
p2130
sa(dp2131
g32
VPlayerSpawn
p2132
sg39
(dp2133
g41
VE6 Shooter
p2134
sg43
Nssg35
VPT3M47.5256438S
p2135
sa(dp2136
g179
I523953283
sg180
I00
sg181
I00
sg182
(dp2137
g41
VOG Maniac HCS
p2138
sg43
Nssg185
(lp2139
I2208825748
asg187
I00
sg188
I01
sg189
I1
sg190
I0
sg191
I1
sg192
(dp2140
Vy
F6.1286860000000001
sVx
F-7.1377959999999998
sVz
F0.21768426900000001
ssg194
(dp2141
Vy
F8.8603319999999997
sVx
F-10.99417
sVz
F0.63418410000000003
ssg196
I00
sg197
(dp2142
g41
VE6 Cratos HCS
p2143
sg43
Nssg200
(lp2144
sg202
(lp2145
(dp2146
g41
VOG ACE HCS
p2147
sg43
Nsa(dp2148
g41
VOG APG HCS
p2149
sg43
Nsasg206
I01
sg35
VPT3M47.9076194S
p2150
sg32
VDeath
p2151
sg209
I1
sa(dp2152
g32
VMedal
p2153
sg39
(dp2154
g41
VOG Maniac HCS
p2155
sg43
Nssg214
I2838259753
sg35
VPT3M47.9076194S
p2156
sa(dp2157
g32
VImpulse
p2158
sg39
(dp2159
g41
VOG Maniac HCS
p2160
sg43
Nssg1036
I2556889090
sg35
VPT3M47.9076194S
p2161
sa(dp2162
g32
VMedal
p2163
sg39
(dp2164
g41
VOG Maniac HCS
p2165
sg43
Nssg214
I3261908037
sg35
VPT3M47.9086458S
p2166
sa(dp2167
g38
I313138863
sg32
VWeaponDrop
p2168
sg223
I0
sg44
(lp2169
I1095363701
asg35
VPT3M47.9096478S
p2170
sg226
I0
sg227
VP0DT0H0M1.5000S
p2171
sg39
(dp2172
g41
VE6 Cratos HCS
p2173
sg43
Nssa(dp2174
g38
I4096745987
sg32
VWeaponDrop
p2175
sg223
I6
sg44
(lp2176
I2758383128
asg35
VPT3M47.9096478S
p2177
sg226
I4
sg227
VP0DT0H0M4.0167S
p2178
sg39
(dp2179
g41
VE6 Cratos HCS
p2180
sg43
Nssa(dp2181
g179
I669296699
sg180
I00
sg181
I00
sg182
(dp2182
g41
VE6 bubu dubu
p2183
sg43
Nssg185
(lp2184
I2758383128
asg187
I00
sg188
I01
sg189
I1
sg190
I0
sg191
I1
sg192
(dp2185
Vy
F11.093833
sVx
F-15.8317385
sVz
F1.6348198700000001
ssg194
(dp2186
Vy
F13.1826344
sVx
F-14.7717581
sVz
F0.95005345299999999
ssg196
I00
sg197
(dp2187
g41
VOG Str8 SickHCS
p2188
sg43
Nssg200
(lp2189
sg202
(lp2190
(dp2191
g41
VE6 Huke HCS
p2192
sg43
Nsasg206
I00
sg35
VPT3M52.2575922S
p2193
sg32
VDeath
p2194
sg209
I1
sa(dp2195
g32
VMedal
p2196
sg39
(dp2197
g41
VE6 bubu dubu
p2198
sg43
Nssg214
I1986137636
sg35
VPT3M52.2586163S
p2199
sa(dp2200
g38
I313138863
sg32
VWeaponDrop
p2201
sg223
I32
sg44
(lp2202
I1095363701
asg35
VPT3M52.2586163S
p2203
sg226
I9
sg227
VP0DT0H0M23.8667S
p2204
sg39
(dp2205
g41
VOG Str8 SickHCS
p2206
sg43
Nssa(dp2207
g38
I313138863
sg32
VWeaponDrop
p2208
sg223
I0
sg44
(lp2209
I1095363701
asg35
VPT3M52.2586163S
p2210
sg226
I0
sg227
VP0DT0S
p2211
sg39
(dp2212
g41
VOG Str8 SickHCS
p2213
sg43
Nssa(dp2214
g38
I424645655
sg32
VWeaponDrop
p2215
sg223
I60
sg44
(lp2216
I1327094800
asg35
VPT3M52.2586163S
p2217
sg226
I15
sg227
VP0DT0H0M40.7667S
p2218
sg39
(dp2219
g41
VOG Str8 SickHCS
p2220
sg43
Nssa(dp2221
g179
I4096745987
sg180
I00
sg181
I00
sg182
(dp2222
g41
VE6 Shooter
p2223
sg43
Nssg185
(lp2224
I2758383128
asg187
I00
sg188
I01
sg189
I1
sg190
I0
sg191
I1
sg192
(dp2225
Vy
F12.1626253
sVx
F-2.50708771
sVz
F2.2929944999999998
ssg194
(dp2226
Vy
F13.426318200000001
sVx
F-5.4886249999999999
sVz
F1.9152288399999999
ssg196
I00
sg197
(dp2227
g41
VOG Maniac HCS
p2228
sg43
Nssg200
(lp2229
sg202
(lp2230
(dp2231
g41
VE6 Huke HCS
p2232
sg43
Nsasg206
I00
sg35
VPT3M54.2236058S
p2233
sg32
VDeath
p2234
sg209
I1
sa(dp2235
g38
I3808094875
sg32
VWeaponDrop
p2236
sg223
I24
sg44
(lp2237
I2758383128
asg35
VPT3M54.226601S
p2238
sg226
I11
sg227
VP0DT0H0M32.6667S
p2239
sg39
(dp2240
g41
VOG Maniac HCS
p2241
sg43
Nssa(dp2242
g38
I523953283
sg32
VWeaponDrop
p2243
sg223
I13
sg44
(lp2244
I2208825748
asg35
VPT3M54.226601S
p2245
sg226
I7
sg227
VP0DT0H0M26.6833S
p2246
sg39
(dp2247
g41
VOG Maniac HCS
p2248
sg43
Nssa(dp2249
g38
I313138863
sg39
(dp2250
g41
VE6 Cratos HCS
p2251
sg43
Nssg44
(lp2252
I1095363701
asg32
VWeaponPickup
p2253
sg35
VPT3M55.9245717S
p2254
sa(dp2255
g38
I4096745987
sg39
(dp2256
g41
VE6 Cratos HCS
p2257
sg43
Nssg44
(lp2258
I2758383128
asg32
VWeaponPickup
p2259
sg35
VPT3M55.9245717S
p2260
sa(dp2261
g32
VPlayerSpawn
p2262
sg39
(dp2263
g41
VE6 Cratos HCS
p2264
sg43
Nssg35
VPT3M55.9245717S
p2265
sa(dp2266
g38
I313138863
sg32
VWeaponDrop
p2267
sg223
I0
sg44
(lp2268
I1095363701
asg35
VPT3M58.0225781S
p2269
sg226
I0
sg227
VP0DT0H0M1.0833S
p2270
sg39
(dp2271
g41
VE6 Huke HCS
p2272
sg43
Nssa(dp2273
g38
I3808094875
sg39
(dp2274
g41
VE6 Huke HCS
p2275
sg43
Nssg44
(lp2276
I2758383128
asg32
VWeaponPickup
p2277
sg35
VPT3M58.0225781S
p2278
sa(dp2279
g38
I313138863
sg39
(dp2280
g41
VOG Str8 SickHCS
p2281
sg43
Nssg44
(lp2282
I1095363701
asg32
VWeaponPickup
p2283
sg35
VPT4M0.2745611S
p2284
sa(dp2285
g38
I4096745987
sg39
(dp2286
g41
VOG Str8 SickHCS
p2287
sg43
Nssg44
(lp2288
I2758383128
asg32
VWeaponPickup
p2289
sg35
VPT4M0.2745611S
p2290
sa(dp2291
g32
VPlayerSpawn
p2292
sg39
(dp2293
g41
VOG Str8 SickHCS
p2294
sg43
Nssg35
VPT4M0.2745611S
p2295
sa(dp2296
g38
I313138863
sg39
(dp2297
g41
VOG Maniac HCS
p2298
sg43
Nssg44
(lp2299
I1095363701
asg32
VWeaponPickup
p2300
sg35
VPT4M2.2405534S
p2301
sa(dp2302
g38
I4096745987
sg39
(dp2303
g41
VOG Maniac HCS
p2304
sg43
Nssg44
(lp2305
I2758383128
asg32
VWeaponPickup
p2306
sg35
VPT4M2.2405534S
p2307
sa(dp2308
g32
VPlayerSpawn
p2309
sg39
(dp2310
g41
VOG Maniac HCS
p2311
sg43
Nssg35
VPT4M2.2405534S
p2312
sa(dp2313
g179
I3808094875
sg180
I00
sg181
I00
sg182
(dp2314
g41
VE6 Huke HCS
p2315
sg43
Nssg185
(lp2316
I2758383128
asg187
I00
sg188
I01
sg189
I1
sg190
I0
sg191
I1
sg192
(dp2317
Vy
F5.5693409999999997
sVx
F-4.0592350000000001
sVz
F1.32954752
ssg194
(dp2318
Vy
F5.12197733
sVx
F-5.1764616999999999
sVz
F0.23138925399999999
ssg196
I00
sg197
(dp2319
g41
VOG ACE HCS
p2320
sg43
Nssg200
(lp2321
sg202
(lp2322
(dp2323
g41
VE6 Cratos HCS
p2324
sg43
Nsasg206
I00
sg35
VPT4M3.6075187S
p2325
sg32
VDeath
p2326
sg209
I1
sa(dp2327
g38
I723388907
sg32
VWeaponDrop
p2328
sg223
I30
sg44
(lp2329
I89283061
asg35
VPT4M3.6095448S
p2330
sg226
I14
sg227
VP0DT0H0M6.3667S
p2331
sg39
(dp2332
g41
VOG ACE HCS
p2333
sg43
Nssa(dp2334
g38
I4108759423
sg32
VWeaponDrop
p2335
sg223
I36
sg44
(lp2336
I2758383128
asg35
VPT4M3.6105434S
p2337
sg226
I19
sg227
VP0DT0H0M25.7167S
p2338
sg39
(dp2339
g41
VOG ACE HCS
p2340
sg43
Nssa(dp2341
g179
I669296699
sg180
I00
sg181
I00
sg182
(dp2342
g41
VE6 bubu dubu
p2343
sg43
Nssg185
(lp2344
I2758383128
asg187
I00
sg188
I01
sg189
I1
sg190
I0
sg191
I1
sg192
(dp2345
Vy
F13.225424800000001
sVx
F-6.3162474599999996
sVz
F1.4612639999999999
ssg194
(dp2346
Vy
F0.97389000000000003
sVx
F-19.079124499999999
sVz
F1.67258263
ssg196
I00
sg197
(dp2347
g41
VOG Str8 SickHCS
p2348
sg43
Nssg200
(lp2349
sg202
(lp2350
sg206
I01
sg35
VPT4M4.3735139S
p2351
sg32
VDeath
p2352
sg209
I1
sa(dp2353
g32
VMedal
p2354
sg39
(dp2355
g41
VE6 bubu dubu
p2356
sg43
Nssg214
I848240062
sg35
VPT4M4.3755344S
p2357
sa(dp2358
g38
I313138863
sg32
VWeaponDrop
p2359
sg223
I0
sg44
(lp2360
I1095363701
asg35
VPT4M4.3755344S
p2361
sg226
I0
sg227
VP0DT0H0M0.7667S
p2362
sg39
(dp2363
g41
VOG Str8 SickHCS
p2364
sg43
Nssa(dp2365
g38
I4096745987
sg32
VWeaponDrop
p2366
sg223
I0
sg44
(lp2367
I2758383128
asg35
VPT4M4.3755344S
p2368
sg226
I0
sg227
VP0DT0H0M3.3333S
p2369
sg39
(dp2370
g41
VOG Str8 SickHCS
p2371
sg43
Nssa(dp2372
g179
I3808094875
sg180
I00
sg181
I00
sg182
(dp2373
g41
VE6 Huke HCS
p2374
sg43
Nssg185
(lp2375
I2758383128
asg187
I00
sg188
I01
sg189
I1
sg190
I0
sg191
I1
sg192
(dp2376
Vy
F6.8113756199999997
sVx
F-2.2709281400000001
sVz
F1.63158655
ssg194
(dp2377
Vy
F5.6683539999999999
sVx
F-4.0438866600000001
sVz
F0.91755759999999997
ssg196
I00
sg197
(dp2378
g41
VOG APG HCS
p2379
sg43
Nssg200
(lp2380
sg202
(lp2381
sg206
I00
sg35
VPT4M7.6564938S
p2382
sg32
VDeath
p2383
sg209
I1
sa(dp2384
g32
VMedal
p2385
sg39
(dp2386
g41
VE6 Huke HCS
p2387
sg43
Nssg214
I2078758684
sg35
VPT4M7.6575177S
p2388
sa(dp2389
g38
I313138863
sg32
VWeaponDrop
p2390
sg223
I11
sg44
(lp2391
I1095363701
asg35
VPT4M7.6575177S
p2392
sg226
I3
sg227
VP0DT0H0M5.8500S
p2393
sg39
(dp2394
g41
VOG APG HCS
p2395
sg43
Nssa(dp2396
g38
I4096745987
sg32
VWeaponDrop
p2397
sg223
I9
sg44
(lp2398
I2758383128
asg35
VPT4M7.6575177S
p2399
sg226
I2
sg227
VP0DT0H0M24.0667S
p2400
sg39
(dp2401
g41
VOG APG HCS
p2402
sg43
Nssa(dp2403
g38
I313138863
sg39
(dp2404
g41
VOG ACE HCS
p2405
sg43
Nssg44
(lp2406
I1095363701
asg32
VWeaponPickup
p2407
sg35
VPT4M11.6234691S
p2408
sa(dp2409
g38
I4096745987
sg39
(dp2410
g41
VOG ACE HCS
p2411
sg43
Nssg44
(lp2412
I2758383128
asg32
VWeaponPickup
p2413
sg35
VPT4M11.6234691S
p2414
sa(dp2415
g32
VPlayerSpawn
p2416
sg39
(dp2417
g41
VOG ACE HCS
p2418
sg43
Nssg35
VPT4M11.6234691S
p2419
sa(dp2420
g38
I4096745987
sg32
VWeaponDrop
p2421
sg223
I7
sg44
(lp2422
I2758383128
asg35
VPT4M11.855498S
p2423
sg226
I4
sg227
VP0DT0H0M16.8000S
p2424
sg39
(dp2425
g41
VE6 bubu dubu
p2426
sg43
Nssa(dp2427
g38
I523953283
sg39
(dp2428
g41
VE6 bubu dubu
p2429
sg43
Nssg44
(lp2430
I2208825748
asg32
VWeaponPickup
p2431
sg35
VPT4M11.855498S
p2432
sa(dp2433
g38
I313138863
sg39
(dp2434
g41
VOG Str8 SickHCS
p2435
sg43
Nssg44
(lp2436
I1095363701
asg32
VWeaponPickup
p2437
sg35
VPT4M12.390488S
p2438
sa(dp2439
g38
I4096745987
sg39
(dp2440
g41
VOG Str8 SickHCS
p2441
sg43
Nssg44
(lp2442
I2758383128
asg32
VWeaponPickup
p2443
sg35
VPT4M12.390488S
p2444
sa(dp2445
g32
VPlayerSpawn
p2446
sg39
(dp2447
g41
VOG Str8 SickHCS
p2448
sg43
Nssg35
VPT4M12.390488S
p2449
sa(dp2450
g38
I4096745987
sg32
VWeaponDrop
p2451
sg223
I4
sg44
(lp2452
I2758383128
asg35
VPT4M14.5214621S
p2453
sg226
I1
sg227
VP0DT0H0M14.8333S
p2454
sg39
(dp2455
g41
VE6 Shooter
p2456
sg43
Nssa(dp2457
g38
I523953283
sg39
(dp2458
g41
VE6 Shooter
p2459
sg43
Nssg44
(lp2460
I2208825748
asg32
VWeaponPickup
p2461
sg35
VPT4M14.5224838S
p2462
sa(dp2463
g38
I313138863
sg32
VWeaponDrop
p2464
sg223
I0
sg44
(lp2465
I1095363701
asg35
VPT4M15.4884821S
p2466
sg226
I0
sg227
VP0DT0H0M2.2333S
p2467
sg39
(dp2468
g41
VE6 Cratos HCS
p2469
sg43
Nssa(dp2470
g38
I4108759423
sg39
(dp2471
g41
VE6 Cratos HCS
p2472
sg43
Nssg44
(lp2473
I2758383128
asg32
VWeaponPickup
p2474
sg35
VPT4M15.4884821S
p2475
sa(dp2476
g38
I313138863
sg39
(dp2477
g41
VOG APG HCS
p2478
sg43
Nssg44
(lp2479
I1095363701
asg32
VWeaponPickup
p2480
sg35
VPT4M15.6744803S
p2481
sa(dp2482
g38
I4096745987
sg39
(dp2483
g41
VOG APG HCS
p2484
sg43
Nssg44
(lp2485
I2758383128
asg32
VWeaponPickup
p2486
sg35
VPT4M15.6744803S
p2487
sa(dp2488
g32
VPlayerSpawn
p2489
sg39
(dp2490
g41
VOG APG HCS
p2491
sg43
Nssg35
VPT4M15.6744803S
p2492
sa(dp2493
g38
I4096745987
sg32
VWeaponDrop
p2494
sg223
I10
sg44
(lp2495
I2758383128
asg35
VPT4M17.5054605S
p2496
sg226
I5
sg227
VP0DT0H0M22.9500S
p2497
sg39
(dp2498
g41
VE6 Huke HCS
p2499
sg43
Nssa(dp2500
g38
I424645655
sg39
(dp2501
g41
VE6 Huke HCS
p2502
sg43
Nssg44
(lp2503
I1327094800
asg32
VWeaponPickup
p2504
sg35
VPT4M17.5054605S
p2505
sa(dp2506
g179
I4108759423
sg180
I00
sg181
I00
sg182
(dp2507
g41
VE6 Cratos HCS
p2508
sg43
Nssg185
(lp2509
I2758383128
asg187
I00
sg188
I01
sg189
I1
sg190
I0
sg191
I1
sg192
(dp2510
Vy
F-11.5331621
sVx
F5.3127265000000001
sVz
F4.1308879999999997
ssg194
(dp2511
Vy
F-10.5549135
sVx
F-6.3760194800000001
sVz
F3.8055794199999999
ssg196
I00
sg197
(dp2512
g41
VOG Maniac HCS
p2513
sg43
Nssg200
(lp2514
sg202
(lp2515
sg206
I01
sg35
VPT4M25.5564602S
p2516
sg32
VDeath
p2517
sg209
I1
sa(dp2518
g32
VMedal
p2519
sg39
(dp2520
g41
VE6 Cratos HCS
p2521
sg43
Nssg214
I3261908037
sg35
VPT4M25.5584814S
p2522
sa(dp2523
g38
I313138863
sg32
VWeaponDrop
p2524
sg223
I0
sg44
(lp2525
I1095363701
asg35
VPT4M25.5584814S
p2526
sg226
I0
sg227
VP0DT0H0M2.9167S
p2527
sg39
(dp2528
g41
VOG Maniac HCS
p2529
sg43
Nssa(dp2530
g38
I4096745987
sg32
VWeaponDrop
p2531
sg223
I4
sg44
(lp2532
I2758383128
asg35
VPT4M25.5584814S
p2533
sg226
I4
sg227
VP0DT0H0M20.4000S
p2534
sg39
(dp2535
g41
VOG Maniac HCS
p2536
sg43
Nssa(dp2537
g179
I523953283
sg180
I00
sg181
I00
sg182
(dp2538
g41
VE6 Shooter
p2539
sg43
Nssg185
(lp2540
I2208825748
asg187
I00
sg188
I01
sg189
I1
sg190
I0
sg191
I1
sg192
(dp2541
Vy
F-11.32795
sVx
F5.3179354700000001
sVz
F2.70739317
ssg194
(dp2542
Vy
F-11.052025799999999
sVx
F-0.96554739999999994
sVz
F4.4465456000000003
ssg196
I00
sg197
(dp2543
g41
VOG ACE HCS
p2544
sg43
Nssg200
(lp2545
sg202
(lp2546
(dp2547
g41
VE6 Cratos HCS
p2548
sg43
Nsasg206
I01
sg35
VPT4M30.7394495S
p2549
sg32
VDeath
p2550
sg209
I1
sa(dp2551
g32
VMedal
p2552
sg39
(dp2553
g41
VE6 Shooter
p2554
sg43
Nssg214
I3261908037
sg35
VPT4M30.7404706S
p2555
sa(dp2556
g38
I313138863
sg32
VWeaponDrop
p2557
sg223
I0
sg44
(lp2558
I1095363701
asg35
VPT4M30.7404706S
p2559
sg226
I0
sg227
VP0DT0H0M0.7000S
p2560
sg39
(dp2561
g41
VOG ACE HCS
p2562
sg43
Nssa(dp2563
g38
I4096745987
sg32
VWeaponDrop
p2564
sg223
I6
sg44
(lp2565
I2758383128
asg35
VPT4M30.7404706S
p2566
sg226
I3
sg227
VP0DT0H0M18.4167S
p2567
sg39
(dp2568
g41
VOG ACE HCS
p2569
sg43
Nssa(dp2570
g38
I313138863
sg39
(dp2571
g41
VOG Maniac HCS
p2572
sg43
Nssg44
(lp2573
I1095363701
asg32
VWeaponPickup
p2574
sg35
VPT4M33.5724309S
p2575
sa(dp2576
g38
I4096745987
sg39
(dp2577
g41
VOG Maniac HCS
p2578
sg43
Nssg44
(lp2579
I2758383128
asg32
VWeaponPickup
p2580
sg35
VPT4M33.5724309S
p2581
sa(dp2582
g32
VPlayerSpawn
p2583
sg39
(dp2584
g41
VOG Maniac HCS
p2585
sg43
Nssg35
VPT4M33.5734533S
p2586
sa(dp2587
g179
I523953283
sg180
I00
sg181
I00
sg182
(dp2588
g41
VE6 bubu dubu
p2589
sg43
Nssg185
(lp2590
I2208825748
asg187
I00
sg188
I01
sg189
I1
sg190
I0
sg191
I1
sg192
(dp2591
Vy
F13.1321478
sVx
F-5.6921114900000003
sVz
F4.0497129999999997
ssg194
(dp2592
Vy
F7.5561556799999998
sVx
F-10.478097
sVz
F0.26209056400000003
ssg196
I00
sg197
(dp2593
g41
VOG Str8 SickHCS
p2594
sg43
Nssg200
(lp2595
sg202
(lp2596
sg206
I01
sg35
VPT4M38.6553979S
p2597
sg32
VDeath
p2598
sg209
I1
sa(dp2599
g32
VMedal
p2600
sg39
(dp2601
g41
VE6 bubu dubu
p2602
sg43
Nssg214
I466059351
sg35
VPT4M38.6564201S
p2603
sa(dp2604
g32
VMedal
p2605
sg39
(dp2606
g41
VE6 bubu dubu
p2607
sg43
Nssg214
I3261908037
sg35
VPT4M38.6564201S
p2608
sa(dp2609
g38
I313138863
sg32
VWeaponDrop
p2610
sg223
I0
sg44
(lp2611
I1095363701
asg35
VPT4M38.6574215S
p2612
sg226
I0
sg227
VP0DT0H0M0.9333S
p2613
sg39
(dp2614
g41
VOG Str8 SickHCS
p2615
sg43
Nssa(dp2616
g38
I4096745987
sg32
VWeaponDrop
p2617
sg223
I5
sg44
(lp2618
I2758383128
asg35
VPT4M38.6574215S
p2619
sg226
I1
sg227
VP0DT0H0M25.3333S
p2620
sg39
(dp2621
g41
VOG Str8 SickHCS
p2622
sg43
Nssa(dp2623
g38
I313138863
sg39
(dp2624
g41
VOG ACE HCS
p2625
sg43
Nssg44
(lp2626
I1095363701
asg32
VWeaponPickup
p2627
sg35
VPT4M38.7553978S
p2628
sa(dp2629
g38
I4096745987
sg39
(dp2630
g41
VOG ACE HCS
p2631
sg43
Nssg44
(lp2632
I2758383128
asg32
VWeaponPickup
p2633
sg35
VPT4M38.7564174S
p2634
sa(dp2635
g32
VPlayerSpawn
p2636
sg39
(dp2637
g41
VOG ACE HCS
p2638
sg43
Nssg35
VPT4M38.7564174S
p2639
sa(dp2640
g179
I3808094875
sg180
I00
sg181
I00
sg182
(dp2641
g41
VE6 Huke HCS
p2642
sg43
Nssg185
(lp2643
I2758383128
asg187
I00
sg188
I01
sg189
I1
sg190
I0
sg191
I1
sg192
(dp2644
Vy
F5.6519180000000002
sVx
F-5.0543856600000003
sVz
F1.0277404800000001
ssg194
(dp2645
Vy
F8.7761279999999999
sVx
F-6.6162557599999996
sVz
F0.21441721899999999
ssg196
I00
sg197
(dp2646
g41
VOG APG HCS
p2647
sg43
Nssg200
(lp2648
sg202
(lp2649
sg206
I00
sg35
VPT4M40.6223863S
p2650
sg32
VDeath
p2651
sg209
I1
sa(dp2652
g38
I313138863
sg32
VWeaponDrop
p2653
sg223
I0
sg44
(lp2654
I1095363701
asg35
VPT4M40.6233875S
p2655
sg226
I0
sg227
VP0DT0H0M1.1167S
p2656
sg39
(dp2657
g41
VOG APG HCS
p2658
sg43
Nssa(dp2659
g38
I4096745987
sg32
VWeaponDrop
p2660
sg223
I8
sg44
(lp2661
I2758383128
asg35
VPT4M40.6233875S
p2662
sg226
I2
sg227
VP0DT0H0M23.8333S
p2663
sg39
(dp2664
g41
VOG APG HCS
p2665
sg43
Nssa(dp2666
g38
I4096745987
sg32
VWeaponDrop
p2667
sg223
I6
sg44
(lp2668
I2758383128
asg35
VPT4M44.3703809S
p2669
sg226
I4
sg227
VP0DT0H0M18.1000S
p2670
sg39
(dp2671
g41
VE6 Cratos HCS
p2672
sg43
Nssa(dp2673
g38
I723523180
sg39
(dp2674
g41
VE6 Cratos HCS
p2675
sg43
Nssg44
(lp2676
I2758383128
asg32
VWeaponPickupPad
p2677
sg35
VPT4M44.3713807S
p2678
sa(dp2679
g38
I723523180
sg39
(dp2680
g41
VE6 Cratos HCS
p2681
sg43
Nssg44
(lp2682
I2758383128
asg32
VWeaponPickup
p2683
sg35
VPT4M44.3713807S
p2684
sa(dp2685
g179
I4096745987
sg180
I00
sg181
I00
sg182
(dp2686
g41
VOG ACE HCS
p2687
sg43
Nssg185
(lp2688
I2758383128
asg187
I00
sg188
I01
sg189
I1
sg190
I0
sg191
I1
sg192
(dp2689
Vy
F12.6135378
sVx
F-3.8156712100000001
sVz
F2.2902443400000001
ssg194
(dp2690
Vy
F12.393105500000001
sVx
F-13.604150799999999
sVz
F0.88796339999999996
ssg196
I00
sg197
(dp2691
g41
VE6 bubu dubu
p2692
sg43
Nssg200
(lp2693
sg202
(lp2694
sg206
I01
sg35
VPT4M46.4053484S
p2695
sg32
VDeath
p2696
sg209
I1
sa(dp2697
g32
VMedal
p2698
sg39
(dp2699
g41
VOG ACE HCS
p2700
sg43
Nssg214
I3261908037
sg35
VPT4M46.4073719S
p2701
sa(dp2702
g38
I669296699
sg32
VWeaponDrop
p2703
sg223
I8
sg44
(lp2704
I2758383128
asg35
VPT4M46.4083698S
p2705
sg226
I4
sg227
VP0DT0H0M55.2167S
p2706
sg39
(dp2707
g41
VE6 bubu dubu
p2708
sg43
Nssa(dp2709
g38
I523953283
sg32
VWeaponDrop
p2710
sg223
I1
sg44
(lp2711
I2208825748
asg35
VPT4M46.4083698S
p2712
sg226
I1
sg227
VP0DT0H0M2.5333S
p2713
sg39
(dp2714
g41
VE6 bubu dubu
p2715
sg43
Nssa(dp2716
g38
I313138863
sg39
(dp2717
g41
VOG Str8 SickHCS
p2718
sg43
Nssg44
(lp2719
I1095363701
asg32
VWeaponPickup
p2720
sg35
VPT4M46.6723724S
p2721
sa(dp2722
g38
I4096745987
sg39
(dp2723
g41
VOG Str8 SickHCS
p2724
sg43
Nssg44
(lp2725
I2758383128
asg32
VWeaponPickup
p2726
sg35
VPT4M46.6723724S
p2727
sa(dp2728
g32
VPlayerSpawn
p2729
sg39
(dp2730
g41
VOG Str8 SickHCS
p2731
sg43
Nssg35
VPT4M46.6723724S
p2732
sa(dp2733
g38
I313138863
sg39
(dp2734
g41
VOG APG HCS
p2735
sg43
Nssg44
(lp2736
I1095363701
asg32
VWeaponPickup
p2737
sg35
VPT4M48.6383344S
p2738
sa(dp2739
g38
I4096745987
sg39
(dp2740
g41
VOG APG HCS
p2741
sg43
Nssg44
(lp2742
I2758383128
asg32
VWeaponPickup
p2743
sg35
VPT4M48.6393542S
p2744
sa(dp2745
g32
VPlayerSpawn
p2746
sg39
(dp2747
g41
VOG APG HCS
p2748
sg43
Nssg35
VPT4M48.6393542S
p2749
sa(dp2750
g179
I313138863
sg180
I00
sg181
I00
sg182
(dp2751
g41
VOG Maniac HCS
p2752
sg43
Nssg185
(lp2753
I1095363701
asg187
I00
sg188
I01
sg189
I1
sg190
I0
sg191
I1
sg192
(dp2754
Vy
F12.676771199999999
sVx
F-13.2043581
sVz
F0.87969980000000003
ssg194
(dp2755
Vy
F10.5434427
sVx
F-8.1771150000000006
sVz
F1.3959003699999999
ssg196
I00
sg197
(dp2756
g41
VE6 Huke HCS
p2757
sg43
Nssg200
(lp2758
sg202
(lp2759
(dp2760
g41
VOG ACE HCS
p2761
sg43
Nsasg206
I00
sg35
VPT4M53.5213025S
p2762
sg32
VDeath
p2763
sg209
I1
sa(dp2764
g38
I3808094875
sg32
VWeaponDrop
p2765
sg223
I40
sg44
(lp2766
I2758383128
asg35
VPT4M53.523323S
p2767
sg226
I15
sg227
VP0DT0H0M25.2167S
p2768
sg39
(dp2769
g41
VE6 Huke HCS
p2770
sg43
Nssa(dp2771
g38
I424645655
sg32
VWeaponDrop
p2772
sg223
I0
sg44
(lp2773
I1327094800
asg35
VPT4M53.523323S
p2774
sg226
I0
sg227
VP0DT0H0M23.7833S
p2775
sg39
(dp2776
g41
VE6 Huke HCS
p2777
sg43
Nssa(dp2778
g38
I313138863
sg39
(dp2779
g41
VE6 bubu dubu
p2780
sg43
Nssg44
(lp2781
I1095363701
asg32
VWeaponPickup
p2782
sg35
VPT4M54.4223182S
p2783
sa(dp2784
g38
I4096745987
sg39
(dp2785
g41
VE6 bubu dubu
p2786
sg43
Nssg44
(lp2787
I2758383128
asg32
VWeaponPickup
p2788
sg35
VPT4M54.4223182S
p2789
sa(dp2790
g32
VPlayerSpawn
p2791
sg39
(dp2792
g41
VE6 bubu dubu
p2793
sg43
Nssg35
VPT4M54.4223182S
p2794
sa(dp2795
g38
I313138863
sg32
VWeaponDrop
p2796
sg223
I8
sg44
(lp2797
I1095363701
asg35
VPT4M55.0363187S
p2798
sg226
I4
sg227
VP0DT0H0M4.5500S
p2799
sg39
(dp2800
g41
VOG Maniac HCS
p2801
sg43
Nssa(dp2802
g38
I669296699
sg39
(dp2803
g41
VOG Maniac HCS
p2804
sg43
Nssg44
(lp2805
I2758383128
asg32
VWeaponPickup
p2806
sg35
VPT4M55.0372943S
p2807
sa(dp2808
g38
I313138863
sg39
(dp2809
g41
VE6 Huke HCS
p2810
sg43
Nssg44
(lp2811
I1095363701
asg32
VWeaponPickup
p2812
sg35
VPT5M1.5382717S
p2813
sa(dp2814
g38
I4096745987
sg39
(dp2815
g41
VE6 Huke HCS
p2816
sg43
Nssg44
(lp2817
I2758383128
asg32
VWeaponPickup
p2818
sg35
VPT5M1.5382717S
p2819
sa(dp2820
g32
VPlayerSpawn
p2821
sg39
(dp2822
g41
VE6 Huke HCS
p2823
sg43
Nssg35
VPT5M1.5382717S
p2824
sa(dp2825
g179
I4096745987
sg180
I00
sg181
I00
sg182
(dp2826
g41
VOG APG HCS
p2827
sg43
Nssg185
(lp2828
I2758383128
asg187
I00
sg188
I01
sg189
I1
sg190
I0
sg191
I1
sg192
(dp2829
Vy
F9.1128940000000007
sVx
F0.95136403999999997
sVz
F-0.69093300000000002
ssg194
(dp2830
Vy
F-8.7529170000000001
sVx
F-5.5387253799999998
sVz
F-1.45603967
ssg196
I00
sg197
(dp2831
g41
VE6 Shooter
p2832
sg43
Nssg200
(lp2833
sg202
(lp2834
sg206
I01
sg35
VPT5M9.0202058S
p2835
sg32
VDeath
p2836
sg209
I1
sa(dp2837
g32
VMedal
p2838
sg39
(dp2839
g41
VOG APG HCS
p2840
sg43
Nssg214
I3261908037
sg35
VPT5M9.0222286S
p2841
sa(dp2842
g38
I313138863
sg32
VWeaponDrop
p2843
sg223
I25
sg44
(lp2844
I1095363701
asg35
VPT5M9.0232055S
p2845
sg226
I1
sg227
VP0DT0H0M12.1667S
p2846
sg39
(dp2847
g41
VE6 Shooter
p2848
sg43
Nssa(dp2849
g38
I523953283
sg32
VWeaponDrop
p2850
sg223
I14
sg44
(lp2851
I2208825748
asg35
VPT5M9.0232055S
p2852
sg226
I7
sg227
VP0DT0H0M54.5000S
p2853
sg39
(dp2854
g41
VE6 Shooter
p2855
sg43
Nssa(dp2856
g38
I4096745987
sg32
VWeaponDrop
p2857
sg223
I10
sg44
(lp2858
I2758383128
asg35
VPT5M12.0361939S
p2859
sg226
I6
sg227
VP0DT0H0M26.0500S
p2860
sg39
(dp2861
g41
VOG ACE HCS
p2862
sg43
Nssa(dp2863
g38
I523953283
sg39
(dp2864
g41
VOG ACE HCS
p2865
sg43
Nssg44
(lp2866
I2208825748
asg32
VWeaponPickup
p2867
sg35
VPT5M12.0361939S
p2868
sa(dp2869
g38
I313138863
sg39
(dp2870
g41
VE6 Shooter
p2871
sg43
Nssg44
(lp2872
I1095363701
asg32
VWeaponPickup
p2873
sg35
VPT5M17.037153S
p2874
sa(dp2875
g38
I4096745987
sg39
(dp2876
g41
VE6 Shooter
p2877
sg43
Nssg44
(lp2878
I2758383128
asg32
VWeaponPickup
p2879
sg35
VPT5M17.0381775S
p2880
sa(dp2881
g32
VPlayerSpawn
p2882
sg39
(dp2883
g41
VE6 Shooter
p2884
sg43
Nssg35
VPT5M17.0381775S
p2885
sa(dp2886
g38
I4096745987
sg32
VWeaponDrop
p2887
sg223
I7
sg44
(lp2888
I2758383128
asg35
VPT5M19.002165S
p2889
sg226
I1
sg227
VP0DT0H0M23.8500S
p2890
sg39
(dp2891
g41
VE6 bubu dubu
p2892
sg43
Nssa(dp2893
g38
I523953283
sg39
(dp2894
g41
VE6 bubu dubu
p2895
sg43
Nssg44
(lp2896
I2208825748
asg32
VWeaponPickup
p2897
sg35
VPT5M19.002165S
p2898
sa(dp2899
g179
I669296699
sg180
I00
sg181
I00
sg182
(dp2900
g41
VOG Maniac HCS
p2901
sg43
Nssg185
(lp2902
I2758383128
asg187
I00
sg188
I01
sg189
I1
sg190
I0
sg191
I1
sg192
(dp2903
Vy
F16.835647600000001
sVx
F-0.58336250000000001
sVz
F5.2963389999999997
ssg194
(dp2904
Vy
F6.0549910000000002
sVx
F16.390529999999998
sVz
F1.6142566199999999
ssg196
I00
sg197
(dp2905
g41
VE6 Huke HCS
p2906
sg43
Nssg200
(lp2907
sg202
(lp2908
sg206
I01
sg35
VPT5M21.0531256S
p2909
sg32
VDeath
p2910
sg209
I1
sa(dp2911
g32
VMedal
p2912
sg39
(dp2913
g41
VOG Maniac HCS
p2914
sg43
Nssg214
I848240062
sg35
VPT5M21.0541562S
p2915
sa(dp2916
g38
I313138863
sg32
VWeaponDrop
p2917
sg223
I0
sg44
(lp2918
I1095363701
asg35
VPT5M21.0551506S
p2919
sg226
I0
sg227
VP0DT0H0M1.0333S
p2920
sg39
(dp2921
g41
VE6 Huke HCS
p2922
sg43
Nssa(dp2923
g38
I4096745987
sg32
VWeaponDrop
p2924
sg223
I5
sg44
(lp2925
I2758383128
asg35
VPT5M21.0551506S
p2926
sg226
I1
sg227
VP0DT0H0M18.4833S
p2927
sg39
(dp2928
g41
VE6 Huke HCS
p2929
sg43
Nssa(dp2930
g38
I4108759423
sg32
VWeaponDrop
p2931
sg223
I18
sg44
(lp2932
I2758383128
asg35
VPT5M27.3351073S
p2933
sg226
I10
sg227
VP0DT0H0M37.2000S
p2934
sg39
(dp2935
g41
VE6 Cratos HCS
p2936
sg43
Nssa(dp2937
g38
I523953283
sg39
(dp2938
g41
VE6 Cratos HCS
p2939
sg43
Nssg44
(lp2940
I2208825748
asg32
VWeaponPickup
p2941
sg35
VPT5M27.3361074S
p2942
sa(dp2943
g38
I313138863
sg39
(dp2944
g41
VE6 Huke HCS
p2945
sg43
Nssg44
(lp2946
I1095363701
asg32
VWeaponPickup
p2947
sg35
VPT5M29.0700759S
p2948
sa(dp2949
g38
I4096745987
sg39
(dp2950
g41
VE6 Huke HCS
p2951
sg43
Nssg44
(lp2952
I2758383128
asg32
VWeaponPickup
p2953
sg35
VPT5M29.0710991S
p2954
sa(dp2955
g32
VPlayerSpawn
p2956
sg39
(dp2957
g41
VE6 Huke HCS
p2958
sg43
Nssg35
VPT5M29.0710991S
p2959
sa(dp2960
g38
I313138863
sg32
VWeaponDrop
p2961
sg223
I0
sg44
(lp2962
I1095363701
asg35
VPT5M30.9180873S
p2963
sg226
I0
sg227
VP0DT0H0M1.8500S
p2964
sg39
(dp2965
g41
VE6 Shooter
p2966
sg43
Nssa(dp2967
g38
I723388907
sg39
(dp2968
g41
VE6 Shooter
p2969
sg43
Nssg44
(lp2970
I89283061
asg32
VWeaponPickup
p2971
sg35
VPT5M30.9190878S
p2972
sa(dp2973
g38
I313138863
sg32
VWeaponDrop
p2974
sg223
I3
sg44
(lp2975
I1095363701
asg35
VPT5M32.018077S
p2976
sg226
I0
sg227
VP0DT0H0M7.4167S
p2977
sg39
(dp2978
g41
VOG ACE HCS
p2979
sg43
Nssa(dp2980
g38
I424645655
sg39
(dp2981
g41
VOG ACE HCS
p2982
sg43
Nssg44
(lp2983
I1327094800
asg32
VWeaponPickup
p2984
sg35
VPT5M32.0190755S
p2985
sa(dp2986
g38
I313138863
sg32
VWeaponDrop
p2987
sg223
I0
sg44
(lp2988
I1095363701
asg35
VPT5M33.4020477S
p2989
sg226
I0
sg227
VP0DT0H0M0.9167S
p2990
sg39
(dp2991
g41
VE6 bubu dubu
p2992
sg43
Nssa(dp2993
g38
I723388907
sg39
(dp2994
g41
VE6 bubu dubu
p2995
sg43
Nssg44
(lp2996
I89283061
asg32
VWeaponPickup
p2997
sg35
VPT5M33.4020477S
p2998
sa(dp2999
g179
I723388907
sg180
I00
sg181
I00
sg182
(dp3000
g41
VE6 Shooter
p3001
sg43
Nssg185
(lp3002
I89283061
asg187
I00
sg188
I01
sg189
I1
sg190
I0
sg191
I1
sg192
(dp3003
Vy
F5.0930285499999997
sVx
F3.4868531200000001
sVz
F0.91062509999999997
ssg194
(dp3004
Vy
F9.8059279999999998
sVx
F3.38031769
sVz
F0.76802159999999997
ssg196
I00
sg197
(dp3005
g41
VOG APG HCS
p3006
sg43
Nssg200
(lp3007
sg202
(lp3008
sg206
I00
sg35
VPT5M37.2860221S
p3009
sg32
VDeath
p3010
sg209
I1
sa(dp3011
g38
I313138863
sg32
VWeaponDrop
p3012
sg223
I3
sg44
(lp3013
I1095363701
asg35
VPT5M37.2880421S
p3014
sg226
I0
sg227
VP0DT0H0M8.2333S
p3015
sg39
(dp3016
g41
VOG APG HCS
p3017
sg43
Nssa(dp3018
g38
I4096745987
sg32
VWeaponDrop
p3019
sg223
I13
sg44
(lp3020
I2758383128
asg35
VPT5M37.2880421S
p3021
sg226
I8
sg227
VP0DT0H0M40.4167S
p3022
sg39
(dp3023
g41
VOG APG HCS
p3024
sg43
Nssa(dp3025
g179
I723523180
sg180
I00
sg181
I00
sg182
(dp3026
g41
VE6 Cratos HCS
p3027
sg43
Nssg185
(lp3028
I2758383128
asg187
I00
sg188
I01
sg189
I1
sg190
I0
sg191
I1
sg192
(dp3029
Vy
F3.6250984700000002
sVx
F1.4785543699999999
sVz
F0.16552978800000001
ssg194
(dp3030
Vy
F6.9214935300000002
sVx
F-3.1424973
sVz
F1.6858519300000001
ssg196
I00
sg197
(dp3031
g41
VOG ACE HCS
p3032
sg43
Nssg200
(lp3033
sg202
(lp3034
(dp3035
g41
VE6 bubu dubu
p3036
sg43
Nsasg206
I00
sg35
VPT5M40.2690035S
p3037
sg32
VDeath
p3038
sg209
I1
sa(dp3039
g32
VMedal
p3040
sg39
(dp3041
g41
VE6 Cratos HCS
p3042
sg43
Nssg214
I2838259753
sg35
VPT5M40.2690035S
p3043
sa(dp3044
g32
VImpulse
p3045
sg39
(dp3046
g41
VE6 Cratos HCS
p3047
sg43
Nssg1036
I2556889090
sg35
VPT5M40.2690035S
p3048
sa(dp3049
g38
I424645655
sg32
VWeaponDrop
p3050
sg223
I15
sg44
(lp3051
I1327094800
asg35
VPT5M40.2710271S
p3052
sg226
I5
sg227
VP0DT0H0M8.2500S
p3053
sg39
(dp3054
g41
VOG ACE HCS
p3055
sg43
Nssa(dp3056
g38
I523953283
sg32
VWeaponDrop
p3057
sg223
I4
sg44
(lp3058
I2208825748
asg35
VPT5M40.2710271S
p3059
sg226
I3
sg227
VP0DT0H0M19.8000S
p3060
sg39
(dp3061
g41
VOG ACE HCS
p3062
sg43
Nssa(dp3063
g38
I4096745987
sg32
VWeaponDrop
p3064
sg223
I1
sg44
(lp3065
I2758383128
asg35
VPT5M43.8180055S
p3066
sg226
I0
sg227
VP0DT0H0M7.7500S
p3067
sg39
(dp3068
g41
VE6 Huke HCS
p3069
sg43
Nssa(dp3070
g38
I523953283
sg39
(dp3071
g41
VE6 Huke HCS
p3072
sg43
Nssg44
(lp3073
I2208825748
asg32
VWeaponPickup
p3074
sg35
VPT5M43.8180055S
p3075
sa(dp3076
g38
I313138863
sg39
(dp3077
g41
VOG APG HCS
p3078
sg43
Nssg44
(lp3079
I1095363701
asg32
VWeaponPickup
p3080
sg35
VPT5M45.3029967S
p3081
sa(dp3082
g38
I4096745987
sg39
(dp3083
g41
VOG APG HCS
p3084
sg43
Nssg44
(lp3085
I2758383128
asg32
VWeaponPickup
p3086
sg35
VPT5M45.3029967S
p3087
sa(dp3088
g32
VPlayerSpawn
p3089
sg39
(dp3090
g41
VOG APG HCS
p3091
sg43
Nssg35
VPT5M45.3029967S
p3092
sa(dp3093
g179
I523953283
sg180
I00
sg181
I00
sg182
(dp3094
g41
VE6 Cratos HCS
p3095
sg43
Nssg185
(lp3096
I2208825748
asg187
I00
sg188
I01
sg189
I1
sg190
I0
sg191
I1
sg192
(dp3097
Vy
F5.9950757000000001
sVx
F-4.126125
sVz
F1.43717468
ssg194
(dp3098
Vy
F6.2936100000000001
sVx
F-15.9964561
sVz
F1.64969122
ssg196
I00
sg197
(dp3099
g41
VOG Maniac HCS
p3100
sg43
Nssg200
(lp3101
sg202
(lp3102
(dp3103
g41
VE6 bubu dubu
p3104
sg43
Nsa(dp3105
g41
VE6 Huke HCS
p3106
sg43
Nsasg206
I01
sg35
VPT5M47.4189578S
p3107
sg32
VDeath
p3108
sg209
I1
sa(dp3109
g32
VMedal
p3110
sg39
(dp3111
g41
VE6 Cratos HCS
p3112
sg43
Nssg214
I3261908037
sg35
VPT5M47.4199913S
p3113
sa(dp3114
g38
I669296699
sg32
VWeaponDrop
p3115
sg223
I4
sg44
(lp3116
I2758383128
asg35
VPT5M47.4209817S
p3117
sg226
I1
sg227
VP0DT0H0M51.1833S
p3118
sg39
(dp3119
g41
VOG Maniac HCS
p3120
sg43
Nssa(dp3121
g38
I4096745987
sg32
VWeaponDrop
p3122
sg223
I0
sg44
(lp3123
I2758383128
asg35
VPT5M47.4209817S
p3124
sg226
I0
sg227
VP0DT0H0M18.1167S
p3125
sg39
(dp3126
g41
VOG Maniac HCS
p3127
sg43
Nssa(dp3128
g38
I313138863
sg39
(dp3129
g41
VOG ACE HCS
p3130
sg43
Nssg44
(lp3131
I1095363701
asg32
VWeaponPickup
p3132
sg35
VPT5M48.285976S
p3133
sa(dp3134
g38
I4096745987
sg39
(dp3135
g41
VOG ACE HCS
p3136
sg43
Nssg44
(lp3137
I2758383128
asg32
VWeaponPickup
p3138
sg35
VPT5M48.285976S
p3139
sa(dp3140
g32
VPlayerSpawn
p3141
sg39
(dp3142
g41
VOG ACE HCS
p3143
sg43
Nssg35
VPT5M48.285976S
p3144
sa(dp3145
g179
I4096745987
sg180
I00
sg181
I00
sg182
(dp3146
g41
VE6 Shooter
p3147
sg43
Nssg185
(lp3148
I2758383128
asg187
I00
sg188
I01
sg189
I1
sg190
I0
sg191
I1
sg192
(dp3149
Vy
F14.470319999999999
sVx
F-10.3238544
sVz
F0.79898670000000005
ssg194
(dp3150
Vy
F13.618476899999999
sVx
F-14.651968999999999
sVz
F2.1750579999999999
ssg196
I00
sg197
(dp3151
g41
VOG Str8 SickHCS
p3152
sg43
Nssg200
(lp3153
sg202
(lp3154
(dp3155
g41
VE6 Huke HCS
p3156
sg43
Nsasg206
I00
sg35
VPT5M52.2519272S
p3157
sg32
VDeath
p3158
sg209
I1
sa(dp3159
g38
I313138863
sg32
VWeaponDrop
p3160
sg223
I4
sg44
(lp3161
I1095363701
asg35
VPT5M52.2539465S
p3162
sg226
I0
sg227
VP0DT0H0M21.5667S
p3163
sg39
(dp3164
g41
VOG Str8 SickHCS
p3165
sg43
Nssa(dp3166
g38
I4096745987
sg32
VWeaponDrop
p3167
sg223
I9
sg44
(lp3168
I2758383128
asg35
VPT5M52.2539465S
p3169
sg226
I2
sg227
VP0DT0H0M44.0167S
p3170
sg39
(dp3171
g41
VOG Str8 SickHCS
p3172
sg43
Nssa(dp3173
g38
I313138863
sg39
(dp3174
g41
VOG Maniac HCS
p3175
sg43
Nssg44
(lp3176
I1095363701
asg32
VWeaponPickup
p3177
sg35
VPT5M55.4359313S
p3178
sa(dp3179
g38
I4096745987
sg39
(dp3180
g41
VOG Maniac HCS
p3181
sg43
Nssg44
(lp3182
I2758383128
asg32
VWeaponPickup
p3183
sg35
VPT5M55.4359313S
p3184
sa(dp3185
g32
VPlayerSpawn
p3186
sg39
(dp3187
g41
VOG Maniac HCS
p3188
sg43
Nssg35
VPT5M55.4359313S
p3189
sa(dp3190
g38
I313138863
sg39
(dp3191
g41
VOG Str8 SickHCS
p3192
sg43
Nssg44
(lp3193
I1095363701
asg32
VWeaponPickup
p3194
sg35
VPT6M0.2689026S
p3195
sa(dp3196
g38
I4096745987
sg39
(dp3197
g41
VOG Str8 SickHCS
p3198
sg43
Nssg44
(lp3199
I2758383128
asg32
VWeaponPickup
p3200
sg35
VPT6M0.2689026S
p3201
sa(dp3202
g32
VPlayerSpawn
p3203
sg39
(dp3204
g41
VOG Str8 SickHCS
p3205
sg43
Nssg35
VPT6M0.2689026S
p3206
sa(dp3207
g179
I723523180
sg180
I00
sg181
I00
sg182
(dp3208
g41
VE6 Cratos HCS
p3209
sg43
Nssg185
(lp3210
I2758383128
asg187
I00
sg188
I01
sg189
I1
sg190
I0
sg191
I1
sg192
(dp3211
Vy
F11.200056999999999
sVx
F4.2299329999999999
sVz
F2.2876219999999998
ssg194
(dp3212
Vy
F14.5759621
sVx
F10.9698782
sVz
F0.93131434899999999
ssg196
I00
sg197
(dp3213
g41
VOG ACE HCS
p3214
sg43
Nssg200
(lp3215
sg202
(lp3216
sg206
I00
sg35
VPT6M3.8848522S
p3217
sg32
VDeath
p3218
sg209
I1
sa(dp3219
g38
I313138863
sg32
VWeaponDrop
p3220
sg223
I0
sg44
(lp3221
I1095363701
asg35
VPT6M3.8858546S
p3222
sg226
I0
sg227
VP0DT0H0M0.3000S
p3223
sg39
(dp3224
g41
VOG ACE HCS
p3225
sg43
Nssa(dp3226
g38
I4096745987
sg32
VWeaponDrop
p3227
sg223
I7
sg44
(lp3228
I2758383128
asg35
VPT6M3.8858546S
p3229
sg226
I1
sg227
VP0DT0H0M15.3000S
p3230
sg39
(dp3231
g41
VOG ACE HCS
p3232
sg43
Nssa(dp3233
g38
I313138863
sg39
(dp3234
g41
VOG ACE HCS
p3235
sg43
Nssg44
(lp3236
I1095363701
asg32
VWeaponPickup
p3237
sg35
VPT6M11.9020968S
p3238
sa(dp3239
g38
I4096745987
sg39
(dp3240
g41
VOG ACE HCS
p3241
sg43
Nssg44
(lp3242
I2758383128
asg32
VWeaponPickup
p3243
sg35
VPT6M11.9024294S
p3244
sa(dp3245
g32
VPlayerSpawn
p3246
sg39
(dp3247
g41
VOG ACE HCS
p3248
sg43
Nssg35
VPT6M11.9024294S
p3249
sa(dp3250
g179
I523953283
sg180
I00
sg181
I00
sg182
(dp3251
g41
VE6 bubu dubu
p3252
sg43
Nssg185
(lp3253
I2208825748
asg187
I00
sg188
I01
sg189
I1
sg190
I0
sg191
I1
sg192
(dp3254
Vy
F-9.5117930000000008
sVx
F1.44544184
sVz
F4.1668430000000001
ssg194
(dp3255
Vy
F-9.9633269999999996
sVx
F12.8422079
sVz
F1.0409092900000001
ssg196
I00
sg197
(dp3256
g41
VOG Str8 SickHCS
p3257
sg43
Nssg200
(lp3258
sg202
(lp3259
(dp3260
g41
VE6 Cratos HCS
p3261
sg43
Nsasg206
I01
sg35
VPT6M15.5847775S
p3262
sg32
VDeath
p3263
sg209
I1
sa(dp3264
g32
VMedal
p3265
sg39
(dp3266
g41
VE6 bubu dubu
p3267
sg43
Nssg214
I3261908037
sg35
VPT6M15.5867781S
p3268
sa(dp3269
g38
I313138863
sg32
VWeaponDrop
p3270
sg223
I0
sg44
(lp3271
I1095363701
asg35
VPT6M15.5867781S
p3272
sg226
I0
sg227
VP0DT0H0M0.7833S
p3273
sg39
(dp3274
g41
VOG Str8 SickHCS
p3275
sg43
Nssa(dp3276
g38
I4096745987
sg32
VWeaponDrop
p3277
sg223
I8
sg44
(lp3278
I2758383128
asg35
VPT6M15.5867781S
p3279
sg226
I3
sg227
VP0DT0H0M14.5333S
p3280
sg39
(dp3281
g41
VOG Str8 SickHCS
p3282
sg43
Nssa(dp3283
g179
I523953283
sg180
I00
sg181
I00
sg182
(dp3284
g41
VE6 Cratos HCS
p3285
sg43
Nssg185
(lp3286
I2208825748
asg187
I00
sg188
I01
sg189
I1
sg190
I0
sg191
I1
sg192
(dp3287
Vy
F1.9532427800000001
sVx
F2.37842727
sVz
F4.5819919999999996
ssg194
(dp3288
Vy
F0.26772560000000001
sVx
F10.4807386
sVz
F2.9003109999999999
ssg196
I00
sg197
(dp3289
g41
VOG Maniac HCS
p3290
sg43
Nssg200
(lp3291
sg202
(lp3292
sg206
I01
sg35
VPT6M19.7847514S
p3293
sg32
VDeath
p3294
sg209
I1
sa(dp3295
g32
VMedal
p3296
sg39
(dp3297
g41
VE6 Cratos HCS
p3298
sg43
Nssg214
I2838259753
sg35
VPT6M19.7847514S
p3299
sa(dp3300
g32
VImpulse
p3301
sg39
(dp3302
g41
VE6 Cratos HCS
p3303
sg43
Nssg1036
I2556889090
sg35
VPT6M19.7847514S
p3304
sa(dp3305
g32
VMedal
p3306
sg39
(dp3307
g41
VE6 bubu dubu
p3308
sg43
Nssg214
I824733727
sg35
VPT6M19.7847514S
p3309
sa(dp3310
g32
VImpulse
p3311
sg39
(dp3312
g41
VE6 Cratos HCS
p3313
sg43
Nssg1036
I3174430457
sg35
VPT6M19.7867733S
p3314
sa(dp3315
g32
VMedal
p3316
sg39
(dp3317
g41
VE6 Cratos HCS
p3318
sg43
Nssg214
I370413844
sg35
VPT6M19.7877723S
p3319
sa(dp3320
g32
VMedal
p3321
sg39
(dp3322
g41
VE6 Cratos HCS
p3323
sg43
Nssg214
I2430242797
sg35
VPT6M19.7877723S
p3324
sa(dp3325
g38
I313138863
sg32
VWeaponDrop
p3326
sg223
I0
sg44
(lp3327
I1095363701
asg35
VPT6M19.7877723S
p3328
sg226
I0
sg227
VP0DT0H0M1.0167S
p3329
sg39
(dp3330
g41
VOG Maniac HCS
p3331
sg43
Nssa(dp3332
g38
I4096745987
sg32
VWeaponDrop
p3333
sg223
I18
sg44
(lp3334
I2758383128
asg35
VPT6M19.7877723S
p3335
sg226
I6
sg227
VP0DT0H0M23.3333S
p3336
sg39
(dp3337
g41
VOG Maniac HCS
p3338
sg43
Nssa(dp3339
g38
I723388907
sg32
VWeaponDrop
p3340
sg223
I0
sg44
(lp3341
I89283061
asg35
VPT6M23.482748S
p3342
sg226
I0
sg227
VP0DT0H0M2.6833S
p3343
sg39
(dp3344
g41
VE6 bubu dubu
p3345
sg43
Nssa(dp3346
g38
I723523180
sg39
(dp3347
g41
VE6 bubu dubu
p3348
sg43
Nssg44
(lp3349
I2758383128
asg32
VWeaponPickupPad
p3350
sg35
VPT6M23.482748S
p3351
sa(dp3352
g38
I723523180
sg39
(dp3353
g41
VE6 bubu dubu
p3354
sg43
Nssg44
(lp3355
I2758383128
asg32
VWeaponPickup
p3356
sg35
VPT6M23.482748S
p3357
sa(dp3358
g38
I313138863
sg39
(dp3359
g41
VOG Str8 SickHCS
p3360
sg43
Nssg44
(lp3361
I1095363701
asg32
VWeaponPickup
p3362
sg35
VPT6M23.6007267S
p3363
sa(dp3364
g38
I4096745987
sg39
(dp3365
g41
VOG Str8 SickHCS
p3366
sg43
Nssg44
(lp3367
I2758383128
asg32
VWeaponPickup
p3368
sg35
VPT6M23.6017513S
p3369
sa(dp3370
g32
VPlayerSpawn
p3371
sg39
(dp3372
g41
VOG Str8 SickHCS
p3373
sg43
Nssg35
VPT6M23.6017513S
p3374
sa(dp3375
g38
I313138863
sg39
(dp3376
g41
VOG Maniac HCS
p3377
sg43
Nssg44
(lp3378
I1095363701
asg32
VWeaponPickup
p3379
sg35
VPT6M27.8006998S
p3380
sa(dp3381
g38
I4096745987
sg39
(dp3382
g41
VOG Maniac HCS
p3383
sg43
Nssg44
(lp3384
I2758383128
asg32
VWeaponPickup
p3385
sg35
VPT6M27.8017202S
p3386
sa(dp3387
g32
VPlayerSpawn
p3388
sg39
(dp3389
g41
VOG Maniac HCS
p3390
sg43
Nssg35
VPT6M27.8017202S
p3391
sa(dp3392
g179
I4096745987
sg180
I00
sg181
I00
sg182
(dp3393
g41
VOG ACE HCS
p3394
sg43
Nssg185
(lp3395
I2758383128
asg187
I00
sg188
I01
sg189
I1
sg190
I0
sg191
I1
sg192
(dp3396
Vy
F-4.93341064
sVx
F4.6281905200000004
sVz
F-1.9897213
ssg194
(dp3397
Vy
F4.5461535499999997
sVx
F-0.99817889999999998
sVz
F-0.76132509999999998
ssg196
I00
sg197
(dp3398
g41
VE6 bubu dubu
p3399
sg43
Nssg200
(lp3400
sg202
(lp3401
sg206
I00
sg35
VPT6M28.1506973S
p3402
sg32
VDeath
p3403
sg209
I1
sa(dp3404
g38
I723523180
sg32
VWeaponDrop
p3405
sg223
I1
sg44
(lp3406
I2758383128
asg35
VPT6M28.1517226S
p3407
sg226
I0
sg227
VP0DT0H0M4.6667S
p3408
sg39
(dp3409
g41
VE6 bubu dubu
p3410
sg43
Nssa(dp3411
g38
I523953283
sg32
VWeaponDrop
p3412
sg223
I32
sg44
(lp3413
I2208825748
asg35
VPT6M28.1517226S
p3414
sg226
I20
sg227
VP0DT0H1M1.6167S
p3415
sg39
(dp3416
g41
VE6 bubu dubu
p3417
sg43
Nssa(dp3418
g179
I523953283
sg180
I00
sg181
I00
sg182
(dp3419
g41
VE6 Cratos HCS
p3420
sg43
Nssg185
(lp3421
I2208825748
asg187
I00
sg188
I01
sg189
I1
sg190
I0
sg191
I1
sg192
(dp3422
Vy
F-8.7452439999999996
sVx
F2.7776890000000001
sVz
F-1.9897213
ssg194
(dp3423
Vy
F-7.7628159999999999
sVx
F4.6648899999999998
sVz
F-1.9897213
ssg196
I00
sg197
(dp3424
g41
VOG ACE HCS
p3425
sg43
Nssg200
(lp3426
sg202
(lp3427
sg206
I01
sg35
VPT6M30.366683S
p3428
sg32
VDeath
p3429
sg209
I1
sa(dp3430
g32
VMedal
p3431
sg39
(dp3432
g41
VE6 Cratos HCS
p3433
sg43
Nssg214
I3261908037
sg35
VPT6M30.3687071S
p3434
sa(dp3435
g38
I313138863
sg32
VWeaponDrop
p3436
sg223
I2
sg44
(lp3437
I1095363701
asg35
VPT6M30.3697086S
p3438
sg226
I0
sg227
VP0DT0H0M2.5500S
p3439
sg39
(dp3440
g41
VOG ACE HCS
p3441
sg43
Nssa(dp3442
g38
I4096745987
sg32
VWeaponDrop
p3443
sg223
I14
sg44
(lp3444
I2758383128
asg35
VPT6M30.3697086S
p3445
sg226
I6
sg227
VP0DT0H0M15.9167S
p3446
sg39
(dp3447
g41
VOG ACE HCS
p3448
sg43
Nssa(dp3449
g38
I3190813201
sg32
VWeaponDrop
p3450
sg223
I22
sg44
(lp3451
sg35
VPT6M30.3987036S
p3452
sg226
I0
sg227
VPT0S
p3453
sg39
(dp3454
g41
VOG ACE HCS
p3455
sg43
Nssa(dp3456
g38
I313138863
sg32
VWeaponDrop
p3457
sg223
I0
sg44
(lp3458
I1095363701
asg35
VPT6M30.5326822S
p3459
sg226
I0
sg227
VP0DT0H0M8.8000S
p3460
sg39
(dp3461
g41
VOG APG HCS
p3462
sg43
Nssa(dp3463
g38
I723523180
sg39
(dp3464
g41
VOG APG HCS
p3465
sg43
Nssg44
(lp3466
I2758383128
asg32
VWeaponPickup
p3467
sg35
VPT6M30.5326822S
p3468
sa(dp3469
g38
I723523180
sg32
VWeaponDrop
p3470
sg223
I4
sg44
(lp3471
I2758383128
asg35
VPT6M33.0316977S
p3472
sg226
I4
sg227
VP0DT0H1M4.2167S
p3473
sg39
(dp3474
g41
VE6 Cratos HCS
p3475
sg43
Nssa(dp3476
g38
I3808094875
sg39
(dp3477
g41
VE6 Cratos HCS
p3478
sg43
Nssg44
(lp3479
I2758383128
asg32
VWeaponPickup
p3480
sg35
VPT6M33.0326662S
p3481
sa(dp3482
g38
I313138863
sg39
(dp3483
g41
VE6 bubu dubu
p3484
sg43
Nssg44
(lp3485
I1095363701
asg32
VWeaponPickup
p3486
sg35
VPT6M36.1676723S
p3487
sa(dp3488
g38
I4096745987
sg39
(dp3489
g41
VE6 bubu dubu
p3490
sg43
Nssg44
(lp3491
I2758383128
asg32
VWeaponPickup
p3492
sg35
VPT6M36.1676723S
p3493
sa(dp3494
g32
VPlayerSpawn
p3495
sg39
(dp3496
g41
VE6 bubu dubu
p3497
sg43
Nssg35
VPT6M36.1676723S
p3498
sa(dp3499
g38
I313138863
sg39
(dp3500
g41
VOG ACE HCS
p3501
sg43
Nssg44
(lp3502
I1095363701
asg32
VWeaponPickup
p3503
sg35
VPT6M38.3836317S
p3504
sa(dp3505
g38
I4096745987
sg39
(dp3506
g41
VOG ACE HCS
p3507
sg43
Nssg44
(lp3508
I2758383128
asg32
VWeaponPickup
p3509
sg35
VPT6M38.384656S
p3510
sa(dp3511
g32
VPlayerSpawn
p3512
sg39
(dp3513
g41
VOG ACE HCS
p3514
sg43
Nssg35
VPT6M38.384656S
p3515
sa(dp3516
g38
I4096745987
sg32
VWeaponDrop
p3517
sg223
I0
sg44
(lp3518
I2758383128
asg35
VPT6M42.6486261S
p3519
sg226
I0
sg227
VP0DT0H0M5.4667S
p3520
sg39
(dp3521
g41
VE6 bubu dubu
p3522
sg43
Nssa(dp3523
g38
I4108759423
sg39
(dp3524
g41
VE6 bubu dubu
p3525
sg43
Nssg44
(lp3526
I2758383128
asg32
VWeaponPickup
p3527
sg35
VPT6M42.6486261S
p3528
sa(dp3529
g179
I3190813201
sg180
I00
sg181
I00
sg182
(dp3530
g41
VE6 Huke HCS
p3531
sg43
Nssg185
(lp3532
sg187
I00
sg188
I01
sg189
I1
sg190
I0
sg191
I1
sg192
(dp3533
Vy
F15.4733143
sVx
F2.099011
sVz
F4.6116604800000003
ssg194
(dp3534
Vy
F12.561017
sVx
F-5.9389859999999999
sVz
F1.6695387399999999
ssg196
I00
sg197
(dp3535
g41
VOG Str8 SickHCS
p3536
sg43
Nssg200
(lp3537
sg202
(lp3538
(dp3539
g41
VE6 Shooter
p3540
sg43
Nsasg206
I00
sg35
VPT6M48.1655694S
p3541
sg32
VDeath
p3542
sg209
I1
sa(dp3543
g38
I313138863
sg32
VWeaponDrop
p3544
sg223
I0
sg44
(lp3545
I1095363701
asg35
VPT6M48.1675942S
p3546
sg226
I0
sg227
VP0DT0H0M2.9167S
p3547
sg39
(dp3548
g41
VOG Str8 SickHCS
p3549
sg43
Nssa(dp3550
g38
I4096745987
sg32
VWeaponDrop
p3551
sg223
I5
sg44
(lp3552
I2758383128
asg35
VPT6M48.1675942S
p3553
sg226
I3
sg227
VP0DT0H0M21.6500S
p3554
sg39
(dp3555
g41
VOG Str8 SickHCS
p3556
sg43
Nssa(dp3557
g179
I313138863
sg180
I00
sg181
I00
sg182
(dp3558
g41
VOG ACE HCS
p3559
sg43
Nssg185
(lp3560
I1095363701
asg187
I00
sg188
I01
sg189
I1
sg190
I0
sg191
I1
sg192
(dp3561
Vy
F-10.991087
sVx
F-5.9160747499999999
sVz
F2.3808858399999999
ssg194
(dp3562
Vy
F-10.1180305
sVx
F-10.3391523
sVz
F1.0411135
ssg196
I00
sg197
(dp3563
g41
VE6 Cratos HCS
p3564
sg43
Nssg200
(lp3565
sg202
(lp3566
(dp3567
g41
VOG APG HCS
p3568
sg43
Nsasg206
I00
sg35
VPT6M48.366567S
p3569
sg32
VDeath
p3570
sg209
I1
sa(dp3571
g38
I523953283
sg32
VWeaponDrop
p3572
sg223
I31
sg44
(lp3573
I2208825748
asg35
VPT6M48.3685937S
p3574
sg226
I21
sg227
VP0DT0H0M41.2000S
p3575
sg39
(dp3576
g41
VE6 Cratos HCS
p3577
sg43
Nssa(dp3578
g38
I3808094875
sg32
VWeaponDrop
p3579
sg223
I16
sg44
(lp3580
I2758383128
asg35
VPT6M48.3685937S
p3581
sg226
I7
sg227
VP0DT0H0M9.5000S
p3582
sg39
(dp3583
g41
VE6 Cratos HCS
p3584
sg43
Nssa(dp3585
g179
I4096745987
sg180
I00
sg181
I00
sg182
(dp3586
g41
VOG Maniac HCS
p3587
sg43
Nssg185
(lp3588
I2758383128
asg187
I00
sg188
I01
sg189
I1
sg190
I0
sg191
I1
sg192
(dp3589
Vy
F11.804083800000001
sVx
F7.68281174
sVz
F2.1709158400000002
ssg194
(dp3590
Vy
F11.916752799999999
sVx
F10.435517300000001
sVz
F1.891429
ssg196
I00
sg197
(dp3591
g41
VE6 Shooter
p3592
sg43
Nssg200
(lp3593
sg202
(lp3594
sg206
I01
sg35
VPT6M50.5995708S
p3595
sg32
VDeath
p3596
sg209
I1
sa(dp3597
g32
VMedal
p3598
sg39
(dp3599
g41
VOG Maniac HCS
p3600
sg43
Nssg214
I3261908037
sg35
VPT6M50.6015775S
p3601
sa(dp3602
g38
I723388907
sg32
VWeaponDrop
p3603
sg223
I33
sg44
(lp3604
I89283061
asg35
VPT6M50.6025785S
p3605
sg226
I15
sg227
VP0DT0H0M10.9000S
p3606
sg39
(dp3607
g41
VE6 Shooter
p3608
sg43
Nssa(dp3609
g38
I4096745987
sg32
VWeaponDrop
p3610
sg223
I45
sg44
(lp3611
I2758383128
asg35
VPT6M50.6025785S
p3612
sg226
I25
sg227
VP0DT0H1M20.8167S
p3613
sg39
(dp3614
g41
VE6 Shooter
p3615
sg43
Nssa(dp3616
g179
I4108759423
sg180
I00
sg181
I00
sg182
(dp3617
g41
VE6 bubu dubu
p3618
sg43
Nssg185
(lp3619
I2758383128
asg187
I00
sg188
I01
sg189
I1
sg190
I0
sg191
I1
sg192
(dp3620
Vy
F-11.7320356
sVx
F-2.8144264200000002
sVz
F3.3991873300000002
ssg194
(dp3621
Vy
F-10.8528824
sVx
F-10.2495861
sVz
F1.0411481899999999
ssg196
I00
sg197
(dp3622
g41
VOG ACE HCS
p3623
sg43
Nssg200
(lp3624
sg202
(lp3625
(dp3626
g41
VE6 Cratos HCS
p3627
sg43
Nsasg206
I01
sg35
VPT6M51.4825479S
p3628
sg32
VDeath
p3629
sg209
I1
sa(dp3630
g32
VMedal
p3631
sg39
(dp3632
g41
VE6 bubu dubu
p3633
sg43
Nssg214
I3261908037
sg35
VPT6M51.4835733S
p3634
sa(dp3635
g38
I313138863
sg32
VWeaponDrop
p3636
sg223
I14
sg44
(lp3637
I1095363701
asg35
VPT6M51.4845726S
p3638
sg226
I7
sg227
VP0DT0H0M3.2000S
p3639
sg39
(dp3640
g41
VOG ACE HCS
p3641
sg43
Nssa(dp3642
g38
I4096745987
sg32
VWeaponDrop
p3643
sg223
I7
sg44
(lp3644
I2758383128
asg35
VPT6M51.4845726S
p3645
sg226
I5
sg227
VP0DT0H0M9.9000S
p3646
sg39
(dp3647
g41
VOG ACE HCS
p3648
sg43
Nssa(dp3649
g179
I523953283
sg180
I00
sg181
I00
sg182
(dp3650
g41
VE6 Huke HCS
p3651
sg43
Nssg185
(lp3652
I2208825748
asg187
I00
sg188
I01
sg189
I1
sg190
I0
sg191
I1
sg192
(dp3653
Vy
F11.222256700000001
sVx
F7.89800024
sVz
F1.7311153399999999
ssg194
(dp3654
Vy
F11.9417171
sVx
F10.965199500000001
sVz
F0.905616164
ssg196
I00
sg197
(dp3655
g41
VOG Maniac HCS
p3656
sg43
Nssg200
(lp3657
sg202
(lp3658
(dp3659
g41
VE6 Shooter
p3660
sg43
Nsasg206
I00
sg35
VPT6M52.6985408S
p3661
sg32
VDeath
p3662
sg209
I1
sa(dp3663
g32
VMedal
p3664
sg39
(dp3665
g41
VE6 Huke HCS
p3666
sg43
Nssg214
I2078758684
sg35
VPT6M52.6995409S
p3667
sa(dp3668
g38
I313138863
sg32
VWeaponDrop
p3669
sg223
I0
sg44
(lp3670
I1095363701
asg35
VPT6M52.7005641S
p3671
sg226
I0
sg227
VP0DT0H0M1.1167S
p3672
sg39
(dp3673
g41
VOG Maniac HCS
p3674
sg43
Nssa(dp3675
g38
I4096745987
sg32
VWeaponDrop
p3676
sg223
I17
sg44
(lp3677
I2758383128
asg35
VPT6M52.7005641S
p3678
sg226
I11
sg227
VP0DT0H0M23.7833S
p3679
sg39
(dp3680
g41
VOG Maniac HCS
p3681
sg43
Nssa(dp3682
g32
VMedal
p3683
sg39
(dp3684
g41
VE6 bubu dubu
p3685
sg43
Nssg214
I3400287617
sg35
VPT6M55.2145608S
p3686
sa(dp3687
g38
I313138863
sg39
(dp3688
g41
VOG Str8 SickHCS
p3689
sg43
Nssg44
(lp3690
I1095363701
asg32
VWeaponPickup
p3691
sg35
VPT6M56.1825385S
p3692
sa(dp3693
g38
I4096745987
sg39
(dp3694
g41
VOG Str8 SickHCS
p3695
sg43
Nssg44
(lp3696
I2758383128
asg32
VWeaponPickup
p3697
sg35
VPT6M56.1825385S
p3698
sa(dp3699
g32
VPlayerSpawn
p3700
sg39
(dp3701
g41
VOG Str8 SickHCS
p3702
sg43
Nssg35
VPT6M56.1825385S
p3703
sa(dp3704
g38
I313138863
sg39
(dp3705
g41
VE6 Cratos HCS
p3706
sg43
Nssg44
(lp3707
I1095363701
asg32
VWeaponPickup
p3708
sg35
VPT6M56.382517S
p3709
sa(dp3710
g38
I4096745987
sg39
(dp3711
g41
VE6 Cratos HCS
p3712
sg43
Nssg44
(lp3713
I2758383128
asg32
VWeaponPickup
p3714
sg35
VPT6M56.3835368S
p3715
sa(dp3716
g32
VPlayerSpawn
p3717
sg39
(dp3718
g41
VE6 Cratos HCS
p3719
sg43
Nssg35
VPT6M56.3835368S
p3720
sa(dp3721
g32
VMedal
p3722
sg39
(dp3723
g41
VE6 Huke HCS
p3724
sg43
Nssg214
I3400287617
sg35
VPT6M56.481516S
p3725
sa(dp3726
g38
I313138863
sg39
(dp3727
g41
VE6 Shooter
p3728
sg43
Nssg44
(lp3729
I1095363701
asg32
VWeaponPickup
p3730
sg35
VPT6M58.6155026S
p3731
sa(dp3732
g38
I4096745987
sg39
(dp3733
g41
VE6 Shooter
p3734
sg43
Nssg44
(lp3735
I2758383128
asg32
VWeaponPickup
p3736
sg35
VPT6M58.6165233S
p3737
sa(dp3738
g32
VPlayerSpawn
p3739
sg39
(dp3740
g41
VE6 Shooter
p3741
sg43
Nssg35
VPT6M58.6165233S
p3742
sa(dp3743
g38
I313138863
sg39
(dp3744
g41
VOG ACE HCS
p3745
sg43
Nssg44
(lp3746
I1095363701
asg32
VWeaponPickup
p3747
sg35
VPT6M59.499516S
p3748
sa(dp3749
g38
I4096745987
sg39
(dp3750
g41
VOG ACE HCS
p3751
sg43
Nssg44
(lp3752
I2758383128
asg32
VWeaponPickup
p3753
sg35
VPT6M59.499516S
p3754
sa(dp3755
g32
VPlayerSpawn
p3756
sg39
(dp3757
g41
VOG ACE HCS
p3758
sg43
Nssg35
VPT6M59.499516S
p3759
sa(dp3760
g38
I313138863
sg39
(dp3761
g41
VOG Maniac HCS
p3762
sg43
Nssg44
(lp3763
I1095363701
asg32
VWeaponPickup
p3764
sg35
VPT7M0.7165121S
p3765
sa(dp3766
g38
I4096745987
sg39
(dp3767
g41
VOG Maniac HCS
p3768
sg43
Nssg44
(lp3769
I2758383128
asg32
VWeaponPickup
p3770
sg35
VPT7M0.7165121S
p3771
sa(dp3772
g32
VPlayerSpawn
p3773
sg39
(dp3774
g41
VOG Maniac HCS
p3775
sg43
Nssg35
VPT7M0.7165121S
p3776
sa(dp3777
g179
I723523180
sg180
I00
sg181
I00
sg182
(dp3778
g41
VOG APG HCS
p3779
sg43
Nssg185
(lp3780
I2758383128
asg187
I00
sg188
I01
sg189
I1
sg190
I0
sg191
I1
sg192
(dp3781
Vy
F12.6103878
sVx
F-3.3993642300000002
sVz
F2.71961641
ssg194
(dp3782
Vy
F9.6027280000000008
sVx
F1.80938971
sVz
F2.9196979999999999
ssg196
I00
sg197
(dp3783
g41
VE6 Huke HCS
p3784
sg43
Nssg200
(lp3785
sg202
(lp3786
sg206
I00
sg35
VPT7M0.9484874S
p3787
sg32
VDeath
p3788
sg209
I1
sa(dp3789
g38
I313138863
sg32
VWeaponDrop
p3790
sg223
I6
sg44
(lp3791
I1095363701
asg35
VPT7M0.9505065S
p3792
sg226
I0
sg227
VP0DT0H0M8.1833S
p3793
sg39
(dp3794
g41
VE6 Huke HCS
p3795
sg43
Nssa(dp3796
g38
I523953283
sg32
VWeaponDrop
p3797
sg223
I28
sg44
(lp3798
I2208825748
asg35
VPT7M0.9505065S
p3799
sg226
I14
sg227
VP0DT0H1M15.9500S
p3800
sg39
(dp3801
g41
VE6 Huke HCS
p3802
sg43
Nssa(dp3803
g38
I313138863
sg32
VWeaponDrop
p3804
sg223
I0
sg44
(lp3805
I1095363701
asg35
VPT7M8.8134562S
p3806
sg226
I0
sg227
VP0DT0H0M1.4500S
p3807
sg39
(dp3808
g41
VE6 bubu dubu
p3809
sg43
Nssa(dp3810
g38
I669296699
sg39
(dp3811
g41
VE6 bubu dubu
p3812
sg43
Nssg44
(lp3813
I2758383128
asg32
VWeaponPickup
p3814
sg35
VPT7M8.8144578S
p3815
sa(dp3816
g32
VMedal
p3817
sg39
(dp3818
g41
VE6 bubu dubu
p3819
sg43
Nssg214
I2462002800
sg35
VPT7M8.8144578S
p3820
sa(dp3821
g38
I313138863
sg39
(dp3822
g41
VE6 Huke HCS
p3823
sg43
Nssg44
(lp3824
I1095363701
asg32
VWeaponPickup
p3825
sg35
VPT7M8.9824383S
p3826
sa(dp3827
g38
I4096745987
sg39
(dp3828
g41
VE6 Huke HCS
p3829
sg43
Nssg44
(lp3830
I2758383128
asg32
VWeaponPickup
p3831
sg35
VPT7M8.9824383S
p3832
sa(dp3833
g32
VPlayerSpawn
p3834
sg39
(dp3835
g41
VE6 Huke HCS
p3836
sg43
Nssg35
VPT7M8.9824383S
p3837
sa(dp3838
g179
I4096745987
sg180
I00
sg181
I00
sg182
(dp3839
g41
VOG Maniac HCS
p3840
sg43
Nssg185
(lp3841
I2758383128
asg187
I00
sg188
I01
sg189
I1
sg190
I0
sg191
I1
sg192
(dp3842
Vy
F-1.66716039
sVx
F-0.31556129999999999
sVz
F-0.32082500000000003
ssg194
(dp3843
Vy
F-7.0051459999999999
sVx
F2.5023434199999999
sVz
F-1.9897213
ssg196
I00
sg197
(dp3844
g41
VE6 bubu dubu
p3845
sg43
Nssg200
(lp3846
sg202
(lp3847
(dp3848
g41
VOG APG HCS
p3849
sg43
Nsa(dp3850
g41
VOG ACE HCS
p3851
sg43
Nsasg206
I00
sg35
VPT7M11.7984363S
p3852
sg32
VDeath
p3853
sg209
I1
sa(dp3854
g38
I669296699
sg32
VWeaponDrop
p3855
sg223
I2
sg44
(lp3856
I2758383128
asg35
VPT7M11.8004564S
p3857
sg226
I0
sg227
VP0DT0H0M2.9833S
p3858
sg39
(dp3859
g41
VE6 bubu dubu
p3860
sg43
Nssa(dp3861
g38
I4108759423
sg32
VWeaponDrop
p3862
sg223
I8
sg44
(lp3863
I2758383128
asg35
VPT7M11.8004564S
p3864
sg226
I2
sg227
VP0DT0H0M25.7167S
p3865
sg39
(dp3866
g41
VE6 bubu dubu
p3867
sg43
Nssa(dp3868
g38
I4096745987
sg32
VWeaponDrop
p3869
sg223
I2
sg44
(lp3870
I2758383128
asg35
VPT7M12.6134557S
p3871
sg226
I1
sg227
VP0DT0H0M12.2333S
p3872
sg39
(dp3873
g41
VOG ACE HCS
p3874
sg43
Nssa(dp3875
g38
I424645655
sg39
(dp3876
g41
VOG ACE HCS
p3877
sg43
Nssg44
(lp3878
I1327094800
asg32
VWeaponPickup
p3879
sg35
VPT7M12.6134557S
p3880
sa(dp3881
g38
I313138863
sg32
VWeaponDrop
p3882
sg223
I0
sg44
(lp3883
I1095363701
asg35
VPT7M14.2634764S
p3884
sg226
I0
sg227
VP0DT0H0M2.4833S
p3885
sg39
(dp3886
g41
VOG Maniac HCS
p3887
sg43
Nssa(dp3888
g38
I669296699
sg39
(dp3889
g41
VOG Maniac HCS
p3890
sg43
Nssg44
(lp3891
I2758383128
asg32
VWeaponPickup
p3892
sg35
VPT7M14.2634764S
p3893
sa(dp3894
g38
I313138863
sg39
(dp3895
g41
VE6 bubu dubu
p3896
sg43
Nssg44
(lp3897
I1095363701
asg32
VWeaponPickup
p3898
sg35
VPT7M19.8154574S
p3899
sa(dp3900
g38
I4096745987
sg39
(dp3901
g41
VE6 bubu dubu
p3902
sg43
Nssg44
(lp3903
I2758383128
asg32
VWeaponPickup
p3904
sg35
VPT7M19.8154574S
p3905
sa(dp3906
g32
VPlayerSpawn
p3907
sg39
(dp3908
g41
VE6 bubu dubu
p3909
sg43
Nssg35
VPT7M19.8154574S
p3910
sa(dp3911
g38
I4096745987
sg32
VWeaponDrop
p3912
sg223
I35
sg44
(lp3913
I2758383128
asg35
VPT7M20.5304366S
p3914
sg226
I13
sg227
VP0DT0H1M6.7500S
p3915
sg39
(dp3916
g41
VOG APG HCS
p3917
sg43
Nssa(dp3918
g38
I523953283
sg39
(dp3919
g41
VOG APG HCS
p3920
sg43
Nssg44
(lp3921
I2208825748
asg32
VWeaponPickup
p3922
sg35
VPT7M20.5304366S
p3923
sa(dp3924
g38
I4096745987
sg32
VWeaponDrop
p3925
sg223
I0
sg44
(lp3926
I2758383128
asg35
VPT7M23.7294556S
p3927
sg226
I0
sg227
VP0DT0H0M3.2667S
p3928
sg39
(dp3929
g41
VE6 bubu dubu
p3930
sg43
Nssa(dp3931
g38
I4108759423
sg39
(dp3932
g41
VE6 bubu dubu
p3933
sg43
Nssg44
(lp3934
I2758383128
asg32
VWeaponPickup
p3935
sg35
VPT7M23.7304365S
p3936
sa(dp3937
g38
I313138863
sg32
VWeaponDrop
p3938
sg223
I0
sg44
(lp3939
I1095363701
asg35
VPT7M28.7794384S
p3940
sg226
I0
sg227
VP0DT0H0M0.8833S
p3941
sg39
(dp3942
g41
VE6 bubu dubu
p3943
sg43
Nssa(dp3944
g38
I723388907
sg39
(dp3945
g41
VE6 bubu dubu
p3946
sg43
Nssg44
(lp3947
I89283061
asg32
VWeaponPickup
p3948
sg35
VPT7M28.7794384S
p3949
sa(dp3950
g38
I313138863
sg32
VWeaponDrop
p3951
sg223
I0
sg44
(lp3952
I1095363701
asg35
VPT7M33.3624613S
p3953
sg226
I0
sg227
VP0DT0H0M1.7333S
p3954
sg39
(dp3955
g41
VOG ACE HCS
p3956
sg43
Nssa(dp3957
g38
I723388907
sg39
(dp3958
g41
VOG ACE HCS
p3959
sg43
Nssg44
(lp3960
I89283061
asg32
VWeaponPickup
p3961
sg35
VPT7M33.363437S
p3962
sa(dp3963
g38
I4096745987
sg32
VWeaponDrop
p3964
sg223
I3
sg44
(lp3965
I2758383128
asg35
VPT7M34.0794383S
p3966
sg226
I1
sg227
VP0DT0H0M36.9000S
p3967
sg39
(dp3968
g41
VE6 Cratos HCS
p3969
sg43
Nssa(dp3970
g38
I424645655
sg39
(dp3971
g41
VE6 Cratos HCS
p3972
sg43
Nssg44
(lp3973
I1327094800
asg32
VWeaponPickup
p3974
sg35
VPT7M34.0794383S
p3975
sa(dp3976
g179
I424645655
sg180
I00
sg181
I00
sg182
(dp3977
g41
VE6 Cratos HCS
p3978
sg43
Nssg185
(lp3979
I1327094800
asg187
I00
sg188
I01
sg189
I1
sg190
I0
sg191
I1
sg192
(dp3980
Vy
F0.97821015099999997
sVx
F-5.5406230000000001
sVz
F0.87030464399999996
ssg194
(dp3981
Vy
F7.2461070000000003
sVx
F-5.4087386100000003
sVz
F1.39567924
ssg196
I00
sg197
(dp3982
g41
VOG APG HCS
p3983
sg43
Nssg200
(lp3984
sg202
(lp3985
(dp3986
g41
VE6 Shooter
p3987
sg43
Nsa(dp3988
g41
VE6 bubu dubu
p3989
sg43
Nsasg206
I01
sg35
VPT7M37.914437S
p3990
sg32
VDeath
p3991
sg209
I1
sa(dp3992
g32
VMedal
p3993
sg39
(dp3994
g41
VE6 Cratos HCS
p3995
sg43
Nssg214
I3261908037
sg35
VPT7M37.91546S
p3996
sa(dp3997
g38
I723523180
sg32
VWeaponDrop
p3998
sg223
I3
sg44
(lp3999
I2758383128
asg35
VPT7M37.9164561S
p4000
sg226
I2
sg227
VP0DT0H0M19.6667S
p4001
sg39
(dp4002
g41
VOG APG HCS
p4003
sg43
Nssa(dp4004
g38
I523953283
sg32
VWeaponDrop
p4005
sg223
I3
sg44
(lp4006
I2208825748
asg35
VPT7M37.9164561S
p4007
sg226
I1
sg227
VP0DT0H0M17.3833S
p4008
sg39
(dp4009
g41
VOG APG HCS
p4010
sg43
Nssa(dp4011
g179
I424645655
sg180
I00
sg181
I00
sg182
(dp4012
g41
VOG ACE HCS
p4013
sg43
Nssg185
(lp4014
I1327094800
asg187
I00
sg188
I01
sg189
I1
sg190
I0
sg191
I1
sg192
(dp4015
Vy
F9.1229829999999996
sVx
F-6.6532406799999997
sVz
F0.222941637
ssg194
(dp4016
Vy
F3.6799182899999998
sVx
F-9.1042570000000005
sVz
F0.27014422399999999
ssg196
I00
sg197
(dp4017
g41
VE6 Cratos HCS
p4018
sg43
Nssg200
(lp4019
sg202
(lp4020
(dp4021
g41
VOG Str8 SickHCS
p4022
sg43
Nsasg206
I00
sg35
VPT7M41.3804333S
p4023
sg32
VDeath
p4024
sg209
I1
sa(dp4025
g38
I313138863
sg32
VWeaponDrop
p4026
sg223
I0
sg44
(lp4027
I1095363701
asg35
VPT7M41.3824572S
p4028
sg226
I0
sg227
VP0DT0H0M0.7833S
p4029
sg39
(dp4030
g41
VE6 Cratos HCS
p4031
sg43
Nssa(dp4032
g38
I424645655
sg32
VWeaponDrop
p4033
sg223
I14
sg44
(lp4034
I1327094800
asg35
VPT7M41.3824572S
p4035
sg226
I7
sg227
VP0DT0H0M7.3000S
p4036
sg39
(dp4037
g41
VE6 Cratos HCS
p4038
sg43
Nssa(dp4039
g179
I723388907
sg180
I00
sg181
I00
sg182
(dp4040
g41
VE6 bubu dubu
p4041
sg43
Nssg185
(lp4042
I89283061
asg187
I00
sg188
I01
sg189
I1
sg190
I0
sg191
I1
sg192
(dp4043
Vy
F10.1938581
sVx
F-10.5537043
sVz
F1.3648807999999999
ssg194
(dp4044
Vy
F4.2838583000000003
sVx
F-5.5335739999999998
sVz
F0.22421511999999999
ssg196
I00
sg197
(dp4045
g41
VOG ACE HCS
p4046
sg43
Nssg200
(lp4047
sg202
(lp4048
(dp4049
g41
VE6 Cratos HCS
p4050
sg43
Nsa(dp4051
g41
VE6 Shooter
p4052
sg43
Nsasg206
I00
sg35
VPT7M43.9974165S
p4053
sg32
VDeath
p4054
sg209
I1
sa(dp4055
g38
I723388907
sg32
VWeaponDrop
p4056
sg223
I2
sg44
(lp4057
I89283061
asg35
VPT7M43.9994375S
p4058
sg226
I0
sg227
VP0DT0H0M2.7000S
p4059
sg39
(dp4060
g41
VOG ACE HCS
p4061
sg43
Nssa(dp4062
g38
I424645655
sg32
VWeaponDrop
p4063
sg223
I21
sg44
(lp4064
I1327094800
asg35
VPT7M43.9994375S
p4065
sg226
I9
sg227
VP0DT0H0M27.8167S
p4066
sg39
(dp4067
g41
VOG ACE HCS
p4068
sg43
Nssa(dp4069
g38
I313138863
sg39
(dp4070
g41
VOG APG HCS
p4071
sg43
Nssg44
(lp4072
I1095363701
asg32
VWeaponPickup
p4073
sg35
VPT7M45.9304055S
p4074
sa(dp4075
g38
I4096745987
sg39
(dp4076
g41
VOG APG HCS
p4077
sg43
Nssg44
(lp4078
I2758383128
asg32
VWeaponPickup
p4079
sg35
VPT7M45.9304055S
p4080
sa(dp4081
g32
VPlayerSpawn
p4082
sg39
(dp4083
g41
VOG APG HCS
p4084
sg43
Nssg35
VPT7M45.9304055S
p4085
sa(dp4086
g38
I313138863
sg39
(dp4087
g41
VE6 Cratos HCS
p4088
sg43
Nssg44
(lp4089
I1095363701
asg32
VWeaponPickup
p4090
sg35
VPT7M49.3974071S
p4091
sa(dp4092
g38
I4096745987
sg39
(dp4093
g41
VE6 Cratos HCS
p4094
sg43
Nssg44
(lp4095
I2758383128
asg32
VWeaponPickup
p4096
sg35
VPT7M49.3974071S
p4097
sa(dp4098
g32
VPlayerSpawn
p4099
sg39
(dp4100
g41
VE6 Cratos HCS
p4101
sg43
Nssg35
VPT7M49.3974071S
p4102
sa(dp4103
g38
I313138863
sg39
(dp4104
g41
VOG ACE HCS
p4105
sg43
Nssg44
(lp4106
I1095363701
asg32
VWeaponPickup
p4107
sg35
VPT7M52.0133657S
p4108
sa(dp4109
g38
I4096745987
sg39
(dp4110
g41
VOG ACE HCS
p4111
sg43
Nssg44
(lp4112
I2758383128
asg32
VWeaponPickup
p4113
sg35
VPT7M52.0143862S
p4114
sa(dp4115
g32
VPlayerSpawn
p4116
sg39
(dp4117
g41
VOG ACE HCS
p4118
sg43
Nssg35
VPT7M52.0143862S
p4119
sa(dp4120
g179
I669296699
sg180
I00
sg181
I00
sg182
(dp4121
g41
VOG Maniac HCS
p4122
sg43
Nssg185
(lp4123
I2758383128
asg187
I00
sg188
I01
sg189
I1
sg190
I0
sg191
I1
sg192
(dp4124
Vy
F-0.33321627999999998
sVx
F-17.174936299999999
sVz
F1.61465645
ssg194
(dp4125
Vy
F11.5871868
sVx
F-7.34727
sVz
F1.6729130699999999
ssg196
I00
sg197
(dp4126
g41
VE6 Cratos HCS
p4127
sg43
Nssg200
(lp4128
sg202
(lp4129
(dp4130
g41
VOG Str8 SickHCS
p4131
sg43
Nsasg206
I00
sg35
VPT7M53.9963527S
p4132
sg32
VDeath
p4133
sg209
I1
sa(dp4134
g38
I313138863
sg32
VWeaponDrop
p4135
sg223
I0
sg44
(lp4136
I1095363701
asg35
VPT7M53.9983801S
p4137
sg226
I0
sg227
VP0DT0H0M0.4167S
p4138
sg39
(dp4139
g41
VE6 Cratos HCS
p4140
sg43
Nssa(dp4141
g38
I4096745987
sg32
VWeaponDrop
p4142
sg223
I4
sg44
(lp4143
I2758383128
asg35
VPT7M53.9983801S
p4144
sg226
I3
sg227
VP0DT0H0M4.1833S
p4145
sg39
(dp4146
g41
VE6 Cratos HCS
p4147
sg43
Nssa(dp4148
g179
I4096745987
sg180
I00
sg181
I00
sg182
(dp4149
g41
VOG APG HCS
p4150
sg43
Nssg185
(lp4151
I2758383128
asg187
I00
sg188
I01
sg189
I1
sg190
I0
sg191
I1
sg192
(dp4152
Vy
F8.9557710000000004
sVx
F3.4677007199999998
sVz
F0.76104490000000002
ssg194
(dp4153
Vy
F9.0986790000000006
sVx
F3.1266989999999999
sVz
F0.75155615799999997
ssg196
I00
sg197
(dp4154
g41
VE6 Shooter
p4155
sg43
Nssg200
(lp4156
sg202
(lp4157
sg206
I01
sg35
VPT7M55.8293663S
p4158
sg32
VDeath
p4159
sg209
I1
sa(dp4160
g32
VMedal
p4161
sg39
(dp4162
g41
VOG APG HCS
p4163
sg43
Nssg214
I3261908037
sg35
VPT7M55.8313655S
p4164
sa(dp4165
g38
I313138863
sg32
VWeaponDrop
p4166
sg223
I1
sg44
(lp4167
I1095363701
asg35
VPT7M55.8323665S
p4168
sg226
I1
sg227
VP0DT0H0M4.4833S
p4169
sg39
(dp4170
g41
VE6 Shooter
p4171
sg43
Nssa(dp4172
g38
I4096745987
sg32
VWeaponDrop
p4173
sg223
I25
sg44
(lp4174
I2758383128
asg35
VPT7M55.8323665S
p4175
sg226
I9
sg227
VP0DT0H0M52.7167S
p4176
sg39
(dp4177
g41
VE6 Shooter
p4178
sg43
Nssa(dp4179
g38
I723388907
sg32
VWeaponDrop
p4180
sg223
I16
sg44
(lp4181
I89283061
asg35
VPT7M56.7453557S
p4182
sg226
I6
sg227
VP0DT0H0M10.9667S
p4183
sg39
(dp4184
g41
VE6 bubu dubu
p4185
sg43
Nssa(dp4186
g38
I3808094875
sg39
(dp4187
g41
VE6 bubu dubu
p4188
sg43
Nssg44
(lp4189
I2758383128
asg32
VWeaponPickup
p4190
sg35
VPT7M56.7453557S
p4191
sa(dp4192
g179
I313138863
sg180
I00
sg181
I00
sg182
(dp4193
g41
VE6 Huke HCS
p4194
sg43
Nssg185
(lp4195
I1095363701
asg187
I00
sg188
I01
sg189
I1
sg190
I0
sg191
I1
sg192
(dp4196
Vy
F9.7945499999999992
sVx
F-0.556813
sVz
F0.072225269999999994
ssg194
(dp4197
Vy
F7.5508923499999998
sVx
F3.2862415299999999
sVz
F1.35654092
ssg196
I00
sg197
(dp4198
g41
VOG APG HCS
p4199
sg43
Nssg200
(lp4200
sg202
(lp4201
(dp4202
g41
VE6 Shooter
p4203
sg43
Nsasg206
I00
sg35
VPT7M57.7633275S
p4204
sg32
VDeath
p4205
sg209
I1
sa(dp4206
g38
I313138863
sg32
VWeaponDrop
p4207
sg223
I0
sg44
(lp4208
I1095363701
asg35
VPT7M57.7653522S
p4209
sg226
I0
sg227
VP0DT0H0M0.8000S
p4210
sg39
(dp4211
g41
VOG APG HCS
p4212
sg43
Nssa(dp4213
g38
I4096745987
sg32
VWeaponDrop
p4214
sg223
I10
sg44
(lp4215
I2758383128
asg35
VPT7M57.7653522S
p4216
sg226
I6
sg227
VP0DT0H0M11.0333S
p4217
sg39
(dp4218
g41
VOG APG HCS
p4219
sg43
Nssa(dp4220
g38
I4096745987
sg32
VWeaponDrop
p4221
sg223
I0
sg44
(lp4222
I2758383128
asg35
VPT7M57.7653522S
p4223
sg226
I0
sg227
VP0DT0S
p4224
sg39
(dp4225
g41
VOG APG HCS
p4226
sg43
Nssa(dp4227
g179
I4096745987
sg180
I00
sg181
I00
sg182
(dp4228
g41
VOG ACE HCS
p4229
sg43
Nssg185
(lp4230
I2758383128
asg187
I00
sg188
I01
sg189
I1
sg190
I0
sg191
I1
sg192
(dp4231
Vy
F8.7803459999999998
sVx
F2.7839965800000002
sVz
F1.5866434599999999
ssg194
(dp4232
Vy
F4.5660030000000003
sVx
F-0.55542590000000003
sVz
F-1.0749673799999999
ssg196
I00
sg197
(dp4233
g41
VE6 Huke HCS
p4234
sg43
Nssg200
(lp4235
sg202
(lp4236
(dp4237
g41
VOG APG HCS
p4238
sg43
Nsasg206
I01
sg35
VPT8M0.479314S
p4239
sg32
VDeath
p4240
sg209
I1
sa(dp4241
g32
VMedal
p4242
sg39
(dp4243
g41
VOG ACE HCS
p4244
sg43
Nssg214
I3261908037
sg35
VPT8M0.481336S
p4245
sa(dp4246
g38
I313138863
sg32
VWeaponDrop
p4247
sg223
I34
sg44
(lp4248
I1095363701
asg35
VPT8M0.481336S
p4249
sg226
I13
sg227
VP0DT0H0M8.7167S
p4250
sg39
(dp4251
g41
VE6 Huke HCS
p4252
sg43
Nssa(dp4253
g38
I4096745987
sg32
VWeaponDrop
p4254
sg223
I11
sg44
(lp4255
I2758383128
asg35
VPT8M0.481336S
p4256
sg226
I7
sg227
VP0DT0H0M42.7833S
p4257
sg39
(dp4258
g41
VE6 Huke HCS
p4259
sg43
Nssa(dp4260
g38
I313138863
sg39
(dp4261
g41
VE6 Cratos HCS
p4262
sg43
Nssg44
(lp4263
I1095363701
asg32
VWeaponPickup
p4264
sg35
VPT8M2.0143215S
p4265
sa(dp4266
g38
I4096745987
sg39
(dp4267
g41
VE6 Cratos HCS
p4268
sg43
Nssg44
(lp4269
I2758383128
asg32
VWeaponPickup
p4270
sg35
VPT8M2.0143215S
p4271
sa(dp4272
g32
VPlayerSpawn
p4273
sg39
(dp4274
g41
VE6 Cratos HCS
p4275
sg43
Nssg35
VPT8M2.0143215S
p4276
sa(dp4277
g38
I313138863
sg39
(dp4278
g41
VE6 Shooter
p4279
sg43
Nssg44
(lp4280
I1095363701
asg32
VWeaponPickup
p4281
sg35
VPT8M3.8462901S
p4282
sa(dp4283
g38
I4096745987
sg39
(dp4284
g41
VE6 Shooter
p4285
sg43
Nssg44
(lp4286
I2758383128
asg32
VWeaponPickup
p4287
sg35
VPT8M3.8473149S
p4288
sa(dp4289
g32
VPlayerSpawn
p4290
sg39
(dp4291
g41
VE6 Shooter
p4292
sg43
Nssg35
VPT8M3.8473149S
p4293
sa(dp4294
g38
I313138863
sg39
(dp4295
g41
VOG APG HCS
p4296
sg43
Nssg44
(lp4297
I1095363701
asg32
VWeaponPickup
p4298
sg35
VPT8M5.7792864S
p4299
sa(dp4300
g38
I4096745987
sg39
(dp4301
g41
VOG APG HCS
p4302
sg43
Nssg44
(lp4303
I2758383128
asg32
VWeaponPickup
p4304
sg35
VPT8M5.7803026S
p4305
sa(dp4306
g32
VPlayerSpawn
p4307
sg39
(dp4308
g41
VOG APG HCS
p4309
sg43
Nssg35
VPT8M5.7803026S
p4310
sa(dp4311
g38
I4096745987
sg32
VWeaponDrop
p4312
sg223
I7
sg44
(lp4313
I2758383128
asg35
VPT8M8.0782625S
p4314
sg226
I4
sg227
VP0DT0H0M15.3667S
p4315
sg39
(dp4316
g41
VOG ACE HCS
p4317
sg43
Nssa(dp4318
g38
I424645655
sg39
(dp4319
g41
VOG ACE HCS
p4320
sg43
Nssg44
(lp4321
I1327094800
asg32
VWeaponPickup
p4322
sg35
VPT8M8.0782625S
p4323
sa(dp4324
g38
I313138863
sg39
(dp4325
g41
VE6 Huke HCS
p4326
sg43
Nssg44
(lp4327
I1095363701
asg32
VWeaponPickup
p4328
sg35
VPT8M8.4962604S
p4329
sa(dp4330
g38
I4096745987
sg39
(dp4331
g41
VE6 Huke HCS
p4332
sg43
Nssg44
(lp4333
I2758383128
asg32
VWeaponPickup
p4334
sg35
VPT8M8.49728S
p4335
sa(dp4336
g32
VPlayerSpawn
p4337
sg39
(dp4338
g41
VE6 Huke HCS
p4339
sg43
Nssg35
VPT8M8.49728S
p4340
sa(dp4341
g38
I4096745987
sg32
VWeaponDrop
p4342
sg223
I22
sg44
(lp4343
I2758383128
asg35
VPT8M13.6772463S
p4344
sg226
I14
sg227
VP0DT0H1M2.6500S
p4345
sg39
(dp4346
g41
VOG Str8 SickHCS
p4347
sg43
Nssa(dp4348
g38
I523953283
sg39
(dp4349
g41
VOG Str8 SickHCS
p4350
sg43
Nssg44
(lp4351
I2208825748
asg32
VWeaponPickup
p4352
sg35
VPT8M13.6782273S
p4353
sa(dp4354
g179
I4096745987
sg180
I00
sg181
I00
sg182
(dp4355
g41
VE6 Huke HCS
p4356
sg43
Nssg185
(lp4357
I2758383128
asg187
I00
sg188
I01
sg189
I1
sg190
I0
sg191
I1
sg192
(dp4358
Vy
F-11.3691969
sVx
F8.7901699999999998
sVz
F1.0417124
ssg194
(dp4359
Vy
F5.1849637
sVx
F-6.5595889999999999
sVz
F2.450812
ssg196
I00
sg197
(dp4360
g41
VOG Str8 SickHCS
p4361
sg43
Nssg200
(lp4362
sg202
(lp4363
(dp4364
g41
VE6 bubu dubu
p4365
sg43
Nsasg206
I00
sg35
VPT8M14.379223S
p4366
sg32
VDeath
p4367
sg209
I1
sa(dp4368
g38
I313138863
sg32
VWeaponDrop
p4369
sg223
I0
sg44
(lp4370
I1095363701
asg35
VPT8M14.3812472S
p4371
sg226
I0
sg227
VP0DT0H0M14.8333S
p4372
sg39
(dp4373
g41
VOG Str8 SickHCS
p4374
sg43
Nssa(dp4375
g38
I523953283
sg32
VWeaponDrop
p4376
sg223
I0
sg44
(lp4377
I2208825748
asg35
VPT8M14.3812472S
p4378
sg226
I0
sg227
VP0DT0H0M0.7000S
p4379
sg39
(dp4380
g41
VOG Str8 SickHCS
p4381
sg43
Nssa(dp4382
g38
I313138863
sg39
(dp4383
g41
VOG Str8 SickHCS
p4384
sg43
Nssg44
(lp4385
I1095363701
asg32
VWeaponPickup
p4386
sg35
VPT8M22.3961944S
p4387
sa(dp4388
g38
I4096745987
sg39
(dp4389
g41
VOG Str8 SickHCS
p4390
sg43
Nssg44
(lp4391
I2758383128
asg32
VWeaponPickup
p4392
sg35
VPT8M22.3961944S
p4393
sa(dp4394
g32
VPlayerSpawn
p4395
sg39
(dp4396
g41
VOG Str8 SickHCS
p4397
sg43
Nssg35
VPT8M22.3961944S
p4398
sa(dp4399
g179
I4108759423
sg180
I00
sg181
I00
sg182
(dp4400
g41
VE6 bubu dubu
p4401
sg43
Nssg185
(lp4402
I2758383128
asg187
I00
sg188
I01
sg189
I1
sg190
I0
sg191
I1
sg192
(dp4403
Vy
F-7.98546362
sVx
F-12.8329048
sVz
F2.5477116099999999
ssg194
(dp4404
Vy
F2.3161290000000001
sVx
F-20.838197699999998
sVz
F2.13073063
ssg196
I00
sg197
(dp4405
g41
VOG Maniac HCS
p4406
sg43
Nssg200
(lp4407
sg202
(lp4408
(dp4409
g41
VE6 Cratos HCS
p4410
sg43
Nsasg206
I01
sg35
VPT8M23.1621674S
p4411
sg32
VDeath
p4412
sg209
I1
sa(dp4413
g32
VMedal
p4414
sg39
(dp4415
g41
VE6 bubu dubu
p4416
sg43
Nssg214
I3261908037
sg35
VPT8M23.163185S
p4417
sa(dp4418
g38
I669296699
sg32
VWeaponDrop
p4419
sg223
I4
sg44
(lp4420
I2758383128
asg35
VPT8M23.163185S
p4421
sg226
I2
sg227
VP0DT0H1M5.0833S
p4422
sg39
(dp4423
g41
VOG Maniac HCS
p4424
sg43
Nssa(dp4425
g38
I4096745987
sg32
VWeaponDrop
p4426
sg223
I9
sg44
(lp4427
I2758383128
asg35
VPT8M23.1641849S
p4428
sg226
I7
sg227
VP0DT0H0M14.8667S
p4429
sg39
(dp4430
g41
VOG Maniac HCS
p4431
sg43
Nssa(dp4432
g38
I313138863
sg32
VWeaponDrop
p4433
sg223
I0
sg44
(lp4434
I1095363701
asg35
VPT8M23.9941592S
p4435
sg226
I0
sg227
VP0DT0H0M1.9667S
p4436
sg39
(dp4437
g41
VE6 Huke HCS
p4438
sg43
Nssa(dp4439
g38
I723523180
sg39
(dp4440
g41
VE6 Huke HCS
p4441
sg43
Nssg44
(lp4442
I2758383128
asg32
VWeaponPickupPad
p4443
sg35
VPT8M23.9941592S
p4444
sa(dp4445
g38
I723523180
sg39
(dp4446
g41
VE6 Huke HCS
p4447
sg43
Nssg44
(lp4448
I2758383128
asg32
VWeaponPickup
p4449
sg35
VPT8M23.9941592S
p4450
sa(dp4451
g179
I4096745987
sg180
I00
sg181
I00
sg182
(dp4452
g41
VE6 Cratos HCS
p4453
sg43
Nssg185
(lp4454
I2758383128
asg187
I00
sg188
I01
sg189
I1
sg190
I0
sg191
I1
sg192
(dp4455
Vy
F12.020343799999999
sVx
F-11.5361929
sVz
F0.79955100000000001
ssg194
(dp4456
Vy
F6.5258474299999998
sVx
F-8.5657379999999996
sVz
F0.225746214
ssg196
I00
sg197
(dp4457
g41
VOG ACE HCS
p4458
sg43
Nssg200
(lp4459
sg202
(lp4460
(dp4461
g41
VE6 Huke HCS
p4462
sg43
Nsa(dp4463
g41
VE6 Shooter
p4464
sg43
Nsasg206
I01
sg35
VPT8M24.8451553S
p4465
sg32
VDeath
p4466
sg209
I1
sa(dp4467
g32
VMedal
p4468
sg39
(dp4469
g41
VE6 Cratos HCS
p4470
sg43
Nssg214
I3261908037
sg35
VPT8M24.8461788S
p4471
sa(dp4472
g38
I424645655
sg32
VWeaponDrop
p4473
sg223
I17
sg44
(lp4474
I1327094800
asg35
VPT8M24.8471785S
p4475
sg226
I5
sg227
VP0DT0H0M16.7667S
p4476
sg39
(dp4477
g41
VOG ACE HCS
p4478
sg43
Nssa(dp4479
g38
I313138863
sg32
VWeaponDrop
p4480
sg223
I0
sg44
(lp4481
I1095363701
asg35
VPT8M24.848178S
p4482
sg226
I0
sg227
VP0DT0H0M0.7000S
p4483
sg39
(dp4484
g41
VOG ACE HCS
p4485
sg43
Nssa(dp4486
g38
I313138863
sg32
VWeaponDrop
p4487
sg223
I1
sg44
(lp4488
I1095363701
asg35
VPT8M24.848178S
p4489
sg226
I1
sg227
VPT0S
p4490
sg39
(dp4491
g41
VOG ACE HCS
p4492
sg43
Nssa(dp4493
g179
I4108759423
sg180
I00
sg181
I00
sg182
(dp4494
g41
VE6 bubu dubu
p4495
sg43
Nssg185
(lp4496
I2758383128
asg187
I00
sg188
I01
sg189
I1
sg190
I0
sg191
I1
sg192
(dp4497
Vy
F-4.148415
sVx
F-15.0572166
sVz
F2.1779341699999999
ssg194
(dp4498
Vy
F1.23692453
sVx
F-13.3310595
sVz
F2.7376937899999998
ssg196
I00
sg197
(dp4499
g41
VOG APG HCS
p4500
sg43
Nssg200
(lp4501
sg202
(lp4502
sg206
I01
sg35
VPT8M25.6121509S
p4503
sg32
VDeath
p4504
sg209
I1
sa(dp4505
g32
VMedal
p4506
sg39
(dp4507
g41
VE6 bubu dubu
p4508
sg43
Nssg214
I3261908037
sg35
VPT8M25.6131749S
p4509
sa(dp4510
g32
VMedal
p4511
sg39
(dp4512
g41
VE6 bubu dubu
p4513
sg43
Nssg214
I2078758684
sg35
VPT8M25.6131749S
p4514
sa(dp4515
g38
I313138863
sg32
VWeaponDrop
p4516
sg223
I0
sg44
(lp4517
I1095363701
asg35
VPT8M25.614176S
p4518
sg226
I0
sg227
VP0DT0H0M1.4167S
p4519
sg39
(dp4520
g41
VOG APG HCS
p4521
sg43
Nssa(dp4522
g38
I4096745987
sg32
VWeaponDrop
p4523
sg223
I9
sg44
(lp4524
I2758383128
asg35
VPT8M25.614176S
p4525
sg226
I4
sg227
VP0DT0H0M18.4167S
p4526
sg39
(dp4527
g41
VOG APG HCS
p4528
sg43
Nssa(dp4529
g38
I3808094875
sg32
VWeaponDrop
p4530
sg223
I8
sg44
(lp4531
I2758383128
asg35
VPT8M28.8271495S
p4532
sg226
I0
sg227
VP0DT0H0M3.2667S
p4533
sg39
(dp4534
g41
VE6 bubu dubu
p4535
sg43
Nssa(dp4536
g38
I669296699
sg39
(dp4537
g41
VE6 bubu dubu
p4538
sg43
Nssg44
(lp4539
I2758383128
asg32
VWeaponPickup
p4540
sg35
VPT8M28.8271495S
p4541
sa(dp4542
g38
I4108759423
sg32
VWeaponDrop
p4543
sg223
I43
sg44
(lp4544
I2758383128
asg35
VPT8M29.8271434S
p4545
sg226
I19
sg227
VP0DT0H0M50.7833S
p4546
sg39
(dp4547
g41
VE6 bubu dubu
p4548
sg43
Nssa(dp4549
g38
I3808094875
sg39
(dp4550
g41
VE6 bubu dubu
p4551
sg43
Nssg44
(lp4552
I2758383128
asg32
VWeaponPickup
p4553
sg35
VPT8M29.8271434S
p4554
sa(dp4555
g38
I313138863
sg39
(dp4556
g41
VOG Maniac HCS
p4557
sg43
Nssg44
(lp4558
I1095363701
asg32
VWeaponPickup
p4559
sg35
VPT8M31.1781153S
p4560
sa(dp4561
g38
I4096745987
sg39
(dp4562
g41
VOG Maniac HCS
p4563
sg43
Nssg44
(lp4564
I2758383128
asg32
VWeaponPickup
p4565
sg35
VPT8M31.1791367S
p4566
sa(dp4567
g32
VPlayerSpawn
p4568
sg39
(dp4569
g41
VOG Maniac HCS
p4570
sg43
Nssg35
VPT8M31.1791367S
p4571
sa(dp4572
g38
I313138863
sg32
VWeaponDrop
p4573
sg223
I9
sg44
(lp4574
I1095363701
asg35
VPT8M31.4931367S
p4575
sg226
I5
sg227
VP0DT0H0M6.5500S
p4576
sg39
(dp4577
g41
VE6 Shooter
p4578
sg43
Nssa(dp4579
g38
I723388907
sg39
(dp4580
g41
VE6 Shooter
p4581
sg43
Nssg44
(lp4582
I89283061
asg32
VWeaponPickup
p4583
sg35
VPT8M31.4941235S
p4584
sa(dp4585
g38
I313138863
sg39
(dp4586
g41
VOG ACE HCS
p4587
sg43
Nssg44
(lp4588
I1095363701
asg32
VWeaponPickup
p4589
sg35
VPT8M32.862126S
p4590
sa(dp4591
g38
I4096745987
sg39
(dp4592
g41
VOG ACE HCS
p4593
sg43
Nssg44
(lp4594
I2758383128
asg32
VWeaponPickup
p4595
sg35
VPT8M32.862126S
p4596
sa(dp4597
g32
VPlayerSpawn
p4598
sg39
(dp4599
g41
VOG ACE HCS
p4600
sg43
Nssg35
VPT8M32.862126S
p4601
sa(dp4602
g38
I313138863
sg39
(dp4603
g41
VOG APG HCS
p4604
sg43
Nssg44
(lp4605
I1095363701
asg32
VWeaponPickup
p4606
sg35
VPT8M33.6280995S
p4607
sa(dp4608
g38
I4096745987
sg39
(dp4609
g41
VOG APG HCS
p4610
sg43
Nssg44
(lp4611
I2758383128
asg32
VWeaponPickup
p4612
sg35
VPT8M33.6291171S
p4613
sa(dp4614
g32
VPlayerSpawn
p4615
sg39
(dp4616
g41
VOG APG HCS
p4617
sg43
Nssg35
VPT8M33.6291171S
p4618
sa(dp4619
g38
I4096745987
sg32
VWeaponDrop
p4620
sg223
I0
sg44
(lp4621
I2758383128
asg35
VPT8M37.2600992S
p4622
sg226
I0
sg227
VP0DT0H0M13.9167S
p4623
sg39
(dp4624
g41
VOG Str8 SickHCS
p4625
sg43
Nssa(dp4626
g38
I4108759423
sg39
(dp4627
g41
VOG Str8 SickHCS
p4628
sg43
Nssg44
(lp4629
I2758383128
asg32
VWeaponPickup
p4630
sg35
VPT8M37.2600992S
p4631
sa(dp4632
g179
I4096745987
sg180
I00
sg181
I00
sg182
(dp4633
g41
VE6 Shooter
p4634
sg43
Nssg185
(lp4635
I2758383128
asg187
I00
sg188
I01
sg189
I1
sg190
I0
sg191
I1
sg192
(dp4636
Vy
F-9.2558159999999994
sVx
F-9.6550229999999999
sVz
F0.0127108395
ssg194
(dp4637
Vy
F-9.0238720000000008
sVx
F-5.5943059999999996
sVz
F-1.91235065
ssg196
I00
sg197
(dp4638
g41
VOG Maniac HCS
p4639
sg43
Nssg200
(lp4640
sg202
(lp4641
sg206
I01
sg35
VPT8M37.8440732S
p4642
sg32
VDeath
p4643
sg209
I1
sa(dp4644
g32
VImpulse
p4645
sg39
(dp4646
g41
VE6 Shooter
p4647
sg43
Nssg1036
I3174430457
sg35
VPT8M37.8460958S
p4648
sa(dp4649
g32
VMedal
p4650
sg39
(dp4651
g41
VE6 Shooter
p4652
sg43
Nssg214
I3653057799
sg35
VPT8M37.8460958S
p4653
sa(dp4654
g38
I313138863
sg32
VWeaponDrop
p4655
sg223
I0
sg44
(lp4656
I1095363701
asg35
VPT8M37.847074S
p4657
sg226
I0
sg227
VP0DT0H0M0.8167S
p4658
sg39
(dp4659
g41
VOG Maniac HCS
p4660
sg43
Nssa(dp4661
g38
I4096745987
sg32
VWeaponDrop
p4662
sg223
I4
sg44
(lp4663
I2758383128
asg35
VPT8M37.847074S
p4664
sg226
I3
sg227
VP0DT0H0M5.8500S
p4665
sg39
(dp4666
g41
VOG Maniac HCS
p4667
sg43
Nssa(dp4668
g179
I4096745987
sg180
I00
sg181
I00
sg182
(dp4669
g41
VE6 Cratos HCS
p4670
sg43
Nssg185
(lp4671
I2758383128
asg187
I00
sg188
I01
sg189
I1
sg190
I0
sg191
I1
sg192
(dp4672
Vy
F6.216386
sVx
F17.053981799999999
sVz
F1.8890776600000001
ssg194
(dp4673
Vy
F-4.6834009999999999
sVx
F14.9668036
sVz
F1.61465645
ssg196
I00
sg197
(dp4674
g41
VOG APG HCS
p4675
sg43
Nssg200
(lp4676
sg202
(lp4677
sg206
I01
sg35
VPT8M39.3780623S
p4678
sg32
VDeath
p4679
sg209
I1
sa(dp4680
g32
VImpulse
p4681
sg39
(dp4682
g41
VE6 Cratos HCS
p4683
sg43
Nssg1036
I3174430457
sg35
VPT8M39.3800859S
p4684
sa(dp4685
g32
VMedal
p4686
sg39
(dp4687
g41
VE6 Cratos HCS
p4688
sg43
Nssg214
I3653057799
sg35
VPT8M39.3810816S
p4689
sa(dp4690
g38
I313138863
sg32
VWeaponDrop
p4691
sg223
I0
sg44
(lp4692
I1095363701
asg35
VPT8M39.3820863S
p4693
sg226
I0
sg227
VP0DT0H0M1.0333S
p4694
sg39
(dp4695
g41
VOG APG HCS
p4696
sg43
Nssa(dp4697
g38
I4096745987
sg32
VWeaponDrop
p4698
sg223
I2
sg44
(lp4699
I2758383128
asg35
VPT8M39.3820863S
p4700
sg226
I1
sg227
VP0DT0H0M4.7167S
p4701
sg39
(dp4702
g41
VOG APG HCS
p4703
sg43
Nssa(dp4704
g179
I4108759423
sg180
I00
sg181
I00
sg182
(dp4705
g41
VOG Str8 SickHCS
p4706
sg43
Nssg185
(lp4707
I2758383128
asg187
I00
sg188
I01
sg189
I1
sg190
I0
sg191
I1
sg192
(dp4708
Vy
F-11.201435999999999
sVx
F-5.3204710000000004
sVz
F4.2420169999999997
ssg194
(dp4709
Vy
F-7.1700763700000003
sVx
F-11.8757524
sVz
F0.220814288
ssg196
I00
sg197
(dp4710
g41
VE6 Shooter
p4711
sg43
Nssg200
(lp4712
sg202
(lp4713
(dp4714
g41
VOG Maniac HCS
p4715
sg43
Nsasg206
I01
sg35
VPT8M39.8440592S
p4716
sg32
VDeath
p4717
sg209
I1
sa(dp4718
g32
VMedal
p4719
sg39
(dp4720
g41
VOG Str8 SickHCS
p4721
sg43
Nssg214
I3261908037
sg35
VPT8M39.8460944S
p4722
sa(dp4723
g38
I4096745987
sg32
VWeaponDrop
p4724
sg223
I6
sg44
(lp4725
I2758383128
asg35
VPT8M39.8460944S
p4726
sg226
I5
sg227
VP0DT0H0M28.0000S
p4727
sg39
(dp4728
g41
VE6 Shooter
p4729
sg43
Nssa(dp4730
g38
I723388907
sg32
VWeaponDrop
p4731
sg223
I0
sg44
(lp4732
I89283061
asg35
VPT8M39.8470856S
p4733
sg226
I0
sg227
VP0DT0H0M1.4500S
p4734
sg39
(dp4735
g41
VE6 Shooter
p4736
sg43
Nssa(dp4737
g179
I723523180
sg180
I00
sg181
I00
sg182
(dp4738
g41
VE6 Huke HCS
p4739
sg43
Nssg185
(lp4740
I2758383128
asg187
I00
sg188
I01
sg189
I1
sg190
I0
sg191
I1
sg192
(dp4741
Vy
F0.14229862400000001
sVx
F8.5765670000000007
sVz
F3.2662334400000002
ssg194
(dp4742
Vy
F-0.049577019999999999
sVx
F11.851717000000001
sVz
F1.8411797299999999
ssg196
I00
sg197
(dp4743
g41
VOG ACE HCS
p4744
sg43
Nssg200
(lp4745
sg202
(lp4746
(dp4747
g41
VE6 Cratos HCS
p4748
sg43
Nsasg206
I00
sg35
VPT8M40.1610579S
p4749
sg32
VDeath
p4750
sg209
I1
sa(dp4751
g38
I4096745987
sg32
VWeaponDrop
p4752
sg223
I2
sg44
(lp4753
I2758383128
asg35
VPT8M40.1620778S
p4754
sg226
I0
sg227
VP0DT0H0M6.5167S
p4755
sg39
(dp4756
g41
VOG ACE HCS
p4757
sg43
Nssa(dp4758
g38
I313138863
sg32
VWeaponDrop
p4759
sg223
I0
sg44
(lp4760
I1095363701
asg35
VPT8M40.1630829S
p4761
sg226
I0
sg227
VP0DT0H0M0.7833S
p4762
sg39
(dp4763
g41
VOG ACE HCS
p4764
sg43
Nssa(dp4765
g179
I3808094875
sg180
I00
sg181
I00
sg182
(dp4766
g41
VE6 bubu dubu
p4767
sg43
Nssg185
(lp4768
I2758383128
asg187
I00
sg188
I01
sg189
I1
sg190
I0
sg191
I1
sg192
(dp4769
Vy
F-9.350752
sVx
F-12.1430235
sVz
F2.3540785299999998
ssg194
(dp4770
Vy
F-10.372092200000001
sVx
F-12.795560800000001
sVz
F1.0403523400000001
ssg196
I00
sg197
(dp4771
g41
VOG Str8 SickHCS
p4772
sg43
Nssg200
(lp4773
sg202
(lp4774
sg206
I00
sg35
VPT8M43.2950363S
p4775
sg32
VDeath
p4776
sg209
I1
sa(dp4777
g38
I313138863
sg32
VWeaponDrop
p4778
sg223
I0
sg44
(lp4779
I1095363701
asg35
VPT8M43.2970606S
p4780
sg226
I0
sg227
VP0DT0H0M0.9500S
p4781
sg39
(dp4782
g41
VOG Str8 SickHCS
p4783
sg43
Nssa(dp4784
g38
I4108759423
sg32
VWeaponDrop
p4785
sg223
I11
sg44
(lp4786
I2758383128
asg35
VPT8M43.2970606S
p4787
sg226
I6
sg227
VP0DT0H0M6.0333S
p4788
sg39
(dp4789
g41
VOG Str8 SickHCS
p4790
sg43
Nssa(dp4791
g38
I313138863
sg39
(dp4792
g41
VOG Maniac HCS
p4793
sg43
Nssg44
(lp4794
I1095363701
asg32
VWeaponPickup
p4795
sg35
VPT8M45.8610219S
p4796
sa(dp4797
g38
I4096745987
sg39
(dp4798
g41
VOG Maniac HCS
p4799
sg43
Nssg44
(lp4800
I2758383128
asg32
VWeaponPickup
p4801
sg35
VPT8M45.862041S
p4802
sa(dp4803
g32
VPlayerSpawn
p4804
sg39
(dp4805
g41
VOG Maniac HCS
p4806
sg43
Nssg35
VPT8M45.862041S
p4807
sa(dp4808
g38
I313138863
sg39
(dp4809
g41
VOG APG HCS
p4810
sg43
Nssg44
(lp4811
I1095363701
asg32
VWeaponPickup
p4812
sg35
VPT8M47.3940115S
p4813
sa(dp4814
g38
I4096745987
sg39
(dp4815
g41
VOG APG HCS
p4816
sg43
Nssg44
(lp4817
I2758383128
asg32
VWeaponPickup
p4818
sg35
VPT8M47.3950352S
p4819
sa(dp4820
g32
VPlayerSpawn
p4821
sg39
(dp4822
g41
VOG APG HCS
p4823
sg43
Nssg35
VPT8M47.3950352S
p4824
sa(dp4825
g38
I313138863
sg39
(dp4826
g41
VE6 Shooter
p4827
sg43
Nssg44
(lp4828
I1095363701
asg32
VWeaponPickup
p4829
sg35
VPT8M47.8610308S
p4830
sa(dp4831
g38
I4096745987
sg39
(dp4832
g41
VE6 Shooter
p4833
sg43
Nssg44
(lp4834
I2758383128
asg32
VWeaponPickup
p4835
sg35
VPT8M47.8610308S
p4836
sa(dp4837
g32
VPlayerSpawn
p4838
sg39
(dp4839
g41
VE6 Shooter
p4840
sg43
Nssg35
VPT8M47.8610308S
p4841
sa(dp4842
g38
I313138863
sg39
(dp4843
g41
VOG ACE HCS
p4844
sg43
Nssg44
(lp4845
I1095363701
asg32
VWeaponPickup
p4846
sg35
VPT8M48.1780286S
p4847
sa(dp4848
g38
I4096745987
sg39
(dp4849
g41
VOG ACE HCS
p4850
sg43
Nssg44
(lp4851
I2758383128
asg32
VWeaponPickup
p4852
sg35
VPT8M48.1780286S
p4853
sa(dp4854
g32
VPlayerSpawn
p4855
sg39
(dp4856
g41
VOG ACE HCS
p4857
sg43
Nssg35
VPT8M48.1780286S
p4858
sa(dp4859
g38
I313138863
sg39
(dp4860
g41
VOG Str8 SickHCS
p4861
sg43
Nssg44
(lp4862
I1095363701
asg32
VWeaponPickup
p4863
sg35
VPT8M51.311008S
p4864
sa(dp4865
g38
I4096745987
sg39
(dp4866
g41
VOG Str8 SickHCS
p4867
sg43
Nssg44
(lp4868
I2758383128
asg32
VWeaponPickup
p4869
sg35
VPT8M51.311008S
p4870
sa(dp4871
g32
VPlayerSpawn
p4872
sg39
(dp4873
g41
VOG Str8 SickHCS
p4874
sg43
Nssg35
VPT8M51.311008S
p4875
sa(dp4876
g179
I723523180
sg180
I00
sg181
I00
sg182
(dp4877
g41
VE6 Huke HCS
p4878
sg43
Nssg185
(lp4879
I2758383128
asg187
I00
sg188
I01
sg189
I1
sg190
I0
sg191
I1
sg192
(dp4880
Vy
F5.3185243599999996
sVx
F-4.7490329999999998
sVz
F4.5834293400000004
ssg194
(dp4881
Vy
F8.8755664799999998
sVx
F-16.722660000000001
sVz
F2.0915386699999998
ssg196
I00
sg197
(dp4882
g41
VOG APG HCS
p4883
sg43
Nssg200
(lp4884
sg202
(lp4885
sg206
I00
sg35
VPT8M51.3599858S
p4886
sg32
VDeath
p4887
sg209
I1
sa(dp4888
g38
I313138863
sg32
VWeaponDrop
p4889
sg223
I0
sg44
(lp4890
I1095363701
asg35
VPT8M51.3620096S
p4891
sg226
I0
sg227
VP0DT0H0M0.9333S
p4892
sg39
(dp4893
g41
VOG APG HCS
p4894
sg43
Nssa(dp4895
g38
I4096745987
sg32
VWeaponDrop
p4896
sg223
I5
sg44
(lp4897
I2758383128
asg35
VPT8M51.3620096S
p4898
sg226
I1
sg227
VP0DT0H0M3.0333S
p4899
sg39
(dp4900
g41
VOG APG HCS
p4901
sg43
Nssa(dp4902
g179
I313138863
sg180
I00
sg181
I00
sg182
(dp4903
g41
VOG Maniac HCS
p4904
sg43
Nssg185
(lp4905
I1095363701
asg187
I00
sg188
I01
sg189
I1
sg190
I0
sg191
I1
sg192
(dp4906
Vy
F1.9811335800000001
sVx
F-7.6711879999999999
sVz
F0.058888196900000002
ssg194
(dp4907
Vy
F1.7919374699999999
sVx
F-8.8515149999999991
sVz
F-0.190159827
ssg196
I00
sg197
(dp4908
g41
VE6 Shooter
p4909
sg43
Nssg200
(lp4910
sg202
(lp4911
(dp4912
g41
VOG Str8 SickHCS
p4913
sg43
Nsasg206
I00
sg35
VPT8M57.8269437S
p4914
sg32
VDeath
p4915
sg209
I1
sa(dp4916
g38
I313138863
sg32
VWeaponDrop
p4917
sg223
I0
sg44
(lp4918
I1095363701
asg35
VPT8M57.8289682S
p4919
sg226
I0
sg227
VP0DT0H0M1.2333S
p4920
sg39
(dp4921
g41
VE6 Shooter
p4922
sg43
Nssa(dp4923
g38
I4096745987
sg32
VWeaponDrop
p4924
sg223
I0
sg44
(lp4925
I2758383128
asg35
VPT8M57.8289682S
p4926
sg226
I0
sg227
VP0DT0H0M8.7333S
p4927
sg39
(dp4928
g41
VE6 Shooter
p4929
sg43
Nssa(dp4930
g38
I313138863
sg39
(dp4931
g41
VOG APG HCS
p4932
sg43
Nssg44
(lp4933
I1095363701
asg32
VWeaponPickup
p4934
sg35
VPT8M59.3769347S
p4935
sa(dp4936
g38
I4096745987
sg39
(dp4937
g41
VOG APG HCS
p4938
sg43
Nssg44
(lp4939
I2758383128
asg32
VWeaponPickup
p4940
sg35
VPT8M59.3779544S
p4941
sa(dp4942
g32
VPlayerSpawn
p4943
sg39
(dp4944
g41
VOG APG HCS
p4945
sg43
Nssg35
VPT8M59.3779544S
p4946
sa(dp4947
g179
I313138863
sg180
I00
sg181
I00
sg182
(dp4948
g41
VOG ACE HCS
p4949
sg43
Nssg185
(lp4950
I1095363701
asg187
I00
sg188
I01
sg189
I1
sg190
I0
sg191
I1
sg192
(dp4951
Vy
F6.6910239999999996
sVx
F-16.823192599999999
sVz
F1.7055306400000001
ssg194
(dp4952
Vy
F10.8805408
sVx
F-16.297643699999998
sVz
F2.5043329999999999
ssg196
I00
sg197
(dp4953
g41
VE6 Cratos HCS
p4954
sg43
Nssg200
(lp4955
sg202
(lp4956
sg206
I00
sg35
VPT9M0.5269268S
p4957
sg32
VDeath
p4958
sg209
I1
sa(dp4959
g32
VMedal
p4960
sg39
(dp4961
g41
VOG ACE HCS
p4962
sg43
Nssg214
I2782465081
sg35
VPT9M0.5269268S
p4963
sa(dp4964
g38
I313138863
sg32
VWeaponDrop
p4965
sg223
I5
sg44
(lp4966
I1095363701
asg35
VPT9M0.5279449S
p4967
sg226
I0
sg227
VP0DT0H0M5.3500S
p4968
sg39
(dp4969
g41
VE6 Cratos HCS
p4970
sg43
Nssa(dp4971
g38
I4096745987
sg32
VWeaponDrop
p4972
sg223
I28
sg44
(lp4973
I2758383128
asg35
VPT9M0.5279449S
p4974
sg226
I15
sg227
VP0DT0H0M53.1667S
p4975
sg39
(dp4976
g41
VE6 Cratos HCS
p4977
sg43
Nssa(dp4978
g179
I669296699
sg180
I00
sg181
I00
sg182
(dp4979
g41
VE6 bubu dubu
p4980
sg43
Nssg185
(lp4981
I2758383128
asg187
I00
sg188
I01
sg189
I1
sg190
I0
sg191
I1
sg192
(dp4982
Vy
F-5.6530685399999996
sVx
F-14.750770599999999
sVz
F2.5036835700000002
ssg194
(dp4983
Vy
F8.1675710000000006
sVx
F-16.188381199999998
sVz
F1.6753835699999999
ssg196
I00
sg197
(dp4984
g41
VOG ACE HCS
p4985
sg43
Nssg200
(lp4986
sg202
(lp4987
(dp4988
g41
VE6 Cratos HCS
p4989
sg43
Nsasg206
I00
sg35
VPT9M2.8429681S
p4990
sg32
VDeath
p4991
sg209
I1
sa(dp4992
g32
VMedal
p4993
sg39
(dp4994
g41
VE6 bubu dubu
p4995
sg43
Nssg214
I2430242797
sg35
VPT9M2.8439501S
p4996
sa(dp4997
g38
I313138863
sg32
VWeaponDrop
p4998
sg223
I14
sg44
(lp4999
I1095363701
asg35
VPT9M2.8549429S
p5000
sg226
I6
sg227
VP0DT0H0M6.2167S
p5001
sg39
(dp5002
g41
VOG ACE HCS
p5003
sg43
Nssa(dp5004
g38
I313138863
sg32
VWeaponDrop
p5005
sg223
I0
sg44
(lp5006
I1095363701
asg35
VPT9M2.8549429S
p5007
sg226
I0
sg227
VP0DT0S
p5008
sg39
(dp5009
g41
VOG ACE HCS
p5010
sg43
Nssa(dp5011
g38
I4096745987
sg32
VWeaponDrop
p5012
sg223
I2
sg44
(lp5013
I2758383128
asg35
VPT9M2.8549429S
p5014
sg226
I0
sg227
VP0DT0H0M8.4500S
p5015
sg39
(dp5016
g41
VOG ACE HCS
p5017
sg43
Nssa(dp5018
g38
I4096745987
sg32
VWeaponDrop
p5019
sg223
I8
sg44
(lp5020
I2758383128
asg35
VPT9M4.8089424S
p5021
sg226
I6
sg227
VP0DT0H0M12.6833S
p5022
sg39
(dp5023
g41
VOG Str8 SickHCS
p5024
sg43
Nssa(dp5025
g38
I4108759423
sg39
(dp5026
g41
VOG Str8 SickHCS
p5027
sg43
Nssg44
(lp5028
I2758383128
asg32
VWeaponPickup
p5029
sg35
VPT9M4.8089424S
p5030
sa(dp5031
g179
I723523180
sg180
I00
sg181
I01
sg182
(dp5032
g41
VE6 Huke HCS
p5033
sg43
Nssg185
(lp5034
I2758383128
asg187
I00
sg188
I00
sg189
I1
sg190
I0
sg191
I1
sg192
(dp5035
Vy
F2.4846710000000001
sVx
F-4.1305074700000004
sVz
F0.69569669999999995
ssg194
(dp5036
Vy
F2.0931804199999999
sVx
F-3.8923146700000002
sVz
F0.84612030000000005
ssg196
I00
sg197
(dp5037
g41
VOG Maniac HCS
p5038
sg43
Nssg200
(lp5039
sg202
(lp5040
sg206
I00
sg35
VPT9M5.2929489S
p5041
sg32
VDeath
p5042
sg209
I1
sa(dp5043
g32
VMedal
p5044
sg39
(dp5045
g41
VE6 Huke HCS
p5046
sg43
Nssg214
I2287626681
sg35
VPT9M5.2939248S
p5047
sa(dp5048
g38
I4096745987
sg32
VWeaponDrop
p5049
sg223
I10
sg44
(lp5050
I2758383128
asg35
VPT9M5.2949266S
p5051
sg226
I5
sg227
VP0DT0H0M13.0000S
p5052
sg39
(dp5053
g41
VOG Maniac HCS
p5054
sg43
Nssa(dp5055
g38
I313138863
sg32
VWeaponDrop
p5056
sg223
I9
sg44
(lp5057
I1095363701
asg35
VPT9M5.2949266S
p5058
sg226
I2
sg227
VP0DT0H0M6.4333S
p5059
sg39
(dp5060
g41
VOG Maniac HCS
p5061
sg43
Nssa(dp5062
g32
VRoundEnd
p5063
sg34
I0
sg35
VPT9M5.3099262S
p5064
sassb.