ccopy_reg
_reconstructor
p1
(c__main__
match_breakdown
p2
c__builtin__
object
p3
NtRp4
(dp5
S'details'
p6
(dp7
VIsCompleteSetOfEvents
p8
I01
sVLinks
p9
(dp10
VUgcFilmManifest
p11
(dp12
VAuthenticationLifetimeExtensionSupported
p13
I00
sVQueryString
p14
V?view=film-manifest
p15
sVRetryPolicyId
p16
Vexponentialretry
p17
sVPath
p18
V/h5/films/5869df37-e0e2-4c36-9f5b-7d6b58d533da
p19
sVAcknowledgementTypeId
p20
I0
sVAuthorityId
p21
Vugc
p22
sVTopicName
p23
V
ssVStatsMatchDetails
p24
(dp25
g13
I00
sg14
Nsg16
Vexponentialretry
p26
sg18
Vh5/custom/matches/5869df37-e0e2-4c36-9f5b-7d6b58d533da
p27
sg20
I0
sg21
Vspartanstats
p28
sg23
V
sssVGameEvents
p29
(lp30
(dp31
VEventName
p32
VRoundStart
p33
sVRoundIndex
p34
I0
sVTimeSinceStart
p35
VPT0.0280005S
p36
sa(dp37
VWeaponStockId
p38
I313138863
sVPlayer
p39
(dp40
VGamertag
p41
VRNG Ninja HCS
p42
sVXuid
p43
NssVWeaponAttachmentIds
p44
(lp45
I1095363701
asg32
VWeaponPickup
p46
sg35
VPT17.6860007S
p47
sa(dp48
g38
I4096745987
sg39
(dp49
g41
VRNG Ninja HCS
p50
sg43
Nssg44
(lp51
I2758383128
asg32
VWeaponPickup
p52
sg35
VPT17.6860007S
p53
sa(dp54
g32
VPlayerSpawn
p55
sg39
(dp56
g41
VRNG Ninja HCS
p57
sg43
Nssg35
VPT17.6860007S
p58
sa(dp59
g38
I313138863
sg39
(dp60
g41
VRNG Penguin HCS
p61
sg43
Nssg44
(lp62
I1095363701
asg32
VWeaponPickup
p63
sg35
VPT17.702001S
p64
sa(dp65
g38
I4096745987
sg39
(dp66
g41
VRNG Penguin HCS
p67
sg43
Nssg44
(lp68
I2758383128
asg32
VWeaponPickup
p69
sg35
VPT17.702001S
p70
sa(dp71
g32
VPlayerSpawn
p72
sg39
(dp73
g41
VRNG Penguin HCS
p74
sg43
Nssg35
VPT17.702001S
p75
sa(dp76
g38
I313138863
sg39
(dp77
g41
VRammyy
p78
sg43
Nssg44
(lp79
I1095363701
asg32
VWeaponPickup
p80
sg35
VPT17.719001S
p81
sa(dp82
g38
I4096745987
sg39
(dp83
g41
VRammyy
p84
sg43
Nssg44
(lp85
I2758383128
asg32
VWeaponPickup
p86
sg35
VPT17.719001S
p87
sa(dp88
g32
VPlayerSpawn
p89
sg39
(dp90
g41
VRammyy
p91
sg43
Nssg35
VPT17.719001S
p92
sa(dp93
g38
I313138863
sg39
(dp94
g41
VCLG Frosty HCS
p95
sg43
Nssg44
(lp96
I1095363701
asg32
VWeaponPickup
p97
sg35
VPT17.7349999S
p98
sa(dp99
g38
I4096745987
sg39
(dp100
g41
VCLG Frosty HCS
p101
sg43
Nssg44
(lp102
I2758383128
asg32
VWeaponPickup
p103
sg35
VPT17.736001S
p104
sa(dp105
g32
VPlayerSpawn
p106
sg39
(dp107
g41
VCLG Frosty HCS
p108
sg43
Nssg35
VPT17.736001S
p109
sa(dp110
g38
I313138863
sg39
(dp111
g41
VRNG Commonly
p112
sg43
Nssg44
(lp113
I1095363701
asg32
VWeaponPickup
p114
sg35
VPT17.7520004S
p115
sa(dp116
g38
I4096745987
sg39
(dp117
g41
VRNG Commonly
p118
sg43
Nssg44
(lp119
I2758383128
asg32
VWeaponPickup
p120
sg35
VPT17.7520004S
p121
sa(dp122
g32
VPlayerSpawn
p123
sg39
(dp124
g41
VRNG Commonly
p125
sg43
Nssg35
VPT17.7520004S
p126
sa(dp127
g38
I313138863
sg39
(dp128
g41
VRNG Victory X
p129
sg43
Nssg44
(lp130
I1095363701
asg32
VWeaponPickup
p131
sg35
VPT17.7690008S
p132
sa(dp133
g38
I4096745987
sg39
(dp134
g41
VRNG Victory X
p135
sg43
Nssg44
(lp136
I2758383128
asg32
VWeaponPickup
p137
sg35
VPT17.7690008S
p138
sa(dp139
g32
VPlayerSpawn
p140
sg39
(dp141
g41
VRNG Victory X
p142
sg43
Nssg35
VPT17.7690008S
p143
sa(dp144
g38
I313138863
sg39
(dp145
g41
VCLG Snake Bite
p146
sg43
Nssg44
(lp147
I1095363701
asg32
VWeaponPickup
p148
sg35
VPT17.7850005S
p149
sa(dp150
g38
I4096745987
sg39
(dp151
g41
VCLG Snake Bite
p152
sg43
Nssg44
(lp153
I2758383128
asg32
VWeaponPickup
p154
sg35
VPT17.7860009S
p155
sa(dp156
g32
VPlayerSpawn
p157
sg39
(dp158
g41
VCLG Snake Bite
p159
sg43
Nssg35
VPT17.7860009S
p160
sa(dp161
g38
I313138863
sg39
(dp162
g41
VCLG LethuL HCS
p163
sg43
Nssg44
(lp164
I1095363701
asg32
VWeaponPickup
p165
sg35
VPT17.8020008S
p166
sa(dp167
g38
I4096745987
sg39
(dp168
g41
VCLG LethuL HCS
p169
sg43
Nssg44
(lp170
I2758383128
asg32
VWeaponPickup
p171
sg35
VPT17.8020008S
p172
sa(dp173
g32
VPlayerSpawn
p174
sg39
(dp175
g41
VCLG LethuL HCS
p176
sg43
Nssg35
VPT17.8020008S
p177
sa(dp178
g38
I4096745987
sg32
VWeaponDrop
p179
sVShotsFired
p180
I0
sg44
(lp181
I2758383128
asg35
VPT18.8169991S
p182
sVShotsLanded
p183
I0
sVTimeWeaponActiveAsPrimary
p184
VP0DT0H0M0.3333S
p185
sg39
(dp186
g41
VRNG Victory X
p187
sg43
Nssa(dp188
g38
I4108759423
sg39
(dp189
g41
VRNG Victory X
p190
sg43
Nssg44
(lp191
I2758383128
asg32
VWeaponPickup
p192
sg35
VPT18.8169991S
p193
sa(dp194
VKillerWeaponStockId
p195
I3168248199
sVIsAssassination
p196
I00
sVIsMelee
p197
I00
sVKiller
p198
(dp199
g41
VRNG Penguin HCS
p200
sg43
NssVKillerWeaponAttachmentIds
p201
(lp202
sVIsGroundPound
p203
I00
sVIsWeapon
p204
I00
sVDeathDisposition
p205
I2
sVVictimStockId
p206
I0
sVVictimAgent
p207
I0
sVKillerWorldLocation
p208
(dp209
Vy
F14.5908394
sVx
F-5.0731134400000002
sVz
F-2.6168515700000001
ssVVictimWorldLocation
p210
(dp211
Vy
F15.644762999999999
sVx
F-5.7096020000000003
sVz
F-3.120072
ssVIsShoulderBash
p212
I00
sVVictim
p213
(dp214
S'Gamertag'
p215
S'None'
p216
ssVVictimAttachmentIds
p217
(lp218
sVAssistants
p219
(lp220
sVIsHeadshot
p221
I00
sg35
VPT22.5200006S
p222
sg32
VDeath
p223
sVKillerAgent
p224
I1
sa(dp225
g195
I3168248199
sg196
I00
sg197
I00
sg198
(dp226
g41
VRNG Penguin HCS
p227
sg43
Nssg201
(lp228
sg203
I00
sg204
I00
sg205
I2
sg206
I0
sg207
I0
sg208
(dp229
Vy
F14.5908394
sVx
F-5.0731134400000002
sVz
F-2.6168515700000001
ssg210
(dp230
Vy
F15.906265299999999
sVx
F-5.3621299999999996
sVz
F-3.1720762300000001
ssg212
I00
sg213
(dp231
g215
g216
ssg217
(lp232
sg219
(lp233
sg221
I00
sg35
VPT22.5260005S
p234
sg32
VDeath
p235
sg224
I1
sa(dp236
g195
I3168248199
sg196
I00
sg197
I00
sg198
(dp237
g41
VRNG Penguin HCS
p238
sg43
Nssg201
(lp239
sg203
I00
sg204
I00
sg205
I2
sg206
I0
sg207
I0
sg208
(dp240
Vy
F14.5908394
sVx
F-5.0731134400000002
sVz
F-2.6168515700000001
ssg210
(dp241
Vy
F15.9062681
sVx
F-6.0570750000000002
sVz
F-3.1720771800000001
ssg212
I00
sg213
(dp242
g215
g216
ssg217
(lp243
sg219
(lp244
sg221
I00
sg35
VPT22.5270008S
p245
sg32
VDeath
p246
sg224
I1
sa(dp247
g38
I2492868984
sg39
(dp248
g41
VRNG Penguin HCS
p249
sg43
Nssg44
(lp250
I2758383128
asg32
VWeaponPickup
p251
sg35
VPT24.1010002S
p252
sa(dp253
g38
I313138863
sg32
VWeaponDrop
p254
sg180
I0
sg44
(lp255
I1095363701
asg35
VPT25.0499994S
p256
sg183
I0
sg184
VP0DT0H0M5.0833S
p257
sg39
(dp258
g41
VCLG Frosty HCS
p259
sg43
Nssa(dp260
g38
I669296699
sg39
(dp261
g41
VCLG Frosty HCS
p262
sg43
Nssg44
(lp263
I2758383128
asg32
VWeaponPickupPad
p264
sg35
VPT25.0499994S
p265
sa(dp266
g38
I669296699
sg39
(dp267
g41
VCLG Frosty HCS
p268
sg43
Nssg44
(lp269
I2758383128
asg32
VWeaponPickup
p270
sg35
VPT25.0520003S
p271
sa(dp272
g38
I313138863
sg32
VWeaponDrop
p273
sg180
I0
sg44
(lp274
I1095363701
asg35
VPT25.0829992S
p275
sg183
I0
sg184
VP0DT0H0M1.1500S
p276
sg39
(dp277
g41
VRNG Ninja HCS
p278
sg43
Nssa(dp279
g38
I3808094875
sg39
(dp280
g41
VRNG Ninja HCS
p281
sg43
Nssg44
(lp282
I2758383128
asg32
VWeaponPickup
p283
sg35
VPT25.0840009S
p284
sa(dp285
g38
I2492868984
sg32
VWeaponDrop
p286
sg180
I0
sg44
(lp287
I2758383128
asg35
VPT25.2350231S
p288
sg183
I0
sg184
VP0DT0H0M0.9833S
p289
sg39
(dp290
g41
VRNG Penguin HCS
p291
sg43
Nssa(dp292
g38
I313138863
sg32
VWeaponDrop
p293
sg180
I0
sg44
(lp294
I1095363701
asg35
VPT27.0499989S
p295
sg183
I0
sg184
VP0DT0H0M6.6000S
p296
sg39
(dp297
g41
VRNG Commonly
p298
sg43
Nssa(dp299
g38
I723388907
sg39
(dp300
g41
VRNG Commonly
p301
sg43
Nssg44
(lp302
I89283061
asg32
VWeaponPickup
p303
sg35
VPT27.0499989S
p304
sa(dp305
g195
I4096745987
sg196
I00
sg197
I00
sg198
(dp306
g41
VCLG Snake Bite
p307
sg43
Nssg201
(lp308
I2758383128
asg203
I00
sg204
I01
sg205
I1
sg206
I0
sg207
I1
sg208
(dp309
Vy
F7.9139514000000002
sVx
F-5.9954980000000004
sVz
F0.17759898299999999
ssg210
(dp310
Vy
F15.110568000000001
sVx
F-3.8703784899999998
sVz
F-5.1202120000000004
ssg212
I00
sg213
(dp311
g41
VRNG Penguin HCS
p312
sg43
Nssg217
(lp313
sg219
(lp314
sg221
I00
sg35
VPT27.468001S
p315
sg32
VDeath
p316
sg224
I1
sa(dp317
g32
VMedal
p318
sg39
(dp319
g41
VCLG Snake Bite
p320
sg43
NssVMedalId
p321
I3001183151
sg35
VPT27.4700006S
p322
sa(dp323
g38
I313138863
sg32
VWeaponDrop
p324
sg180
I0
sg44
(lp325
I1095363701
asg35
VPT27.4890003S
p326
sg183
I0
sg184
VP0DT0H0M0.9500S
p327
sg39
(dp328
g41
VRNG Penguin HCS
p329
sg43
Nssa(dp330
g38
I4096745987
sg32
VWeaponDrop
p331
sg180
I0
sg44
(lp332
I2758383128
asg35
VPT27.4890003S
p333
sg183
I0
sg184
VP0DT0H0M7.8167S
p334
sg39
(dp335
g41
VRNG Penguin HCS
p336
sg43
Nssa(dp337
g195
I723388907
sg196
I00
sg197
I00
sg198
(dp338
g41
VRNG Commonly
p339
sg43
Nssg201
(lp340
I89283061
asg203
I00
sg204
I01
sg205
I1
sg206
I0
sg207
I1
sg208
(dp341
Vy
F12.0315733
sVx
F-14.6401758
sVz
F2.5977821400000001
ssg210
(dp342
Vy
F7.5250060000000003
sVx
F-16.527118699999999
sVz
F1.509091
ssg212
I00
sg213
(dp343
g41
VRammyy
p344
sg43
Nssg217
(lp345
sg219
(lp346
(dp347
g41
VRNG Ninja HCS
p348
sg43
Nsasg221
I00
sg35
VPT30.4520008S
p349
sg32
VDeath
p350
sg224
I1
sa(dp351
g38
I4096745987
sg32
VWeaponDrop
p352
sg180
I10
sg44
(lp353
I2758383128
asg35
VPT30.453S
p354
sg183
I4
sg184
VP0DT0H0M11.8333S
p355
sg39
(dp356
g41
VRammyy
p357
sg43
Nssa(dp358
g38
I313138863
sg32
VWeaponDrop
p359
sg180
I0
sg44
(lp360
I1095363701
asg35
VPT30.4540008S
p361
sg183
I0
sg184
VP0DT0H0M0.9000S
p362
sg39
(dp363
g41
VRammyy
p364
sg43
Nssa(dp365
g195
I4096745987
sg196
I00
sg197
I00
sg198
(dp366
g41
VCLG LethuL HCS
p367
sg43
Nssg201
(lp368
I2758383128
asg203
I00
sg204
I00
sg205
I2
sg206
I0
sg207
I0
sg208
(dp369
Vy
F1.4954085399999999
sVx
F-1.0121907000000001
sVz
F0.30554962200000002
ssg210
(dp370
Vy
F0.099263770000000001
sVx
F8.0122160000000004
sVz
F0.71333765999999998
ssg212
I00
sg213
(dp371
g215
g216
ssg217
(lp372
sg219
(lp373
sg221
I00
sg35
VPT31.5350009S
p374
sg32
VDeath
p375
sg224
I1
sa(dp376
g195
I47178948
sg196
I00
sg197
I00
sg198
(dp377
g41
VCLG LethuL HCS
p378
sg43
Nssg201
(lp379
sg203
I00
sg204
I00
sg205
I2
sg206
I0
sg207
I0
sg208
(dp380
Vy
F1.4954085399999999
sVx
F-1.0121907000000001
sVz
F0.30554962200000002
ssg210
(dp381
Vy
F0.10924162
sVx
F8.0052920000000007
sVz
F0.30533176699999998
ssg212
I00
sg213
(dp382
g215
g216
ssg217
(lp383
sg219
(lp384
sg221
I00
sg35
VPT31.5350009S
p385
sg32
VDeath
p386
sg224
I1
sa(dp387
g38
I313138863
sg39
(dp388
g41
VRNG Penguin HCS
p389
sg43
Nssg44
(lp390
I1095363701
asg32
VWeaponPickup
p391
sg35
VPT35.4850007S
p392
sa(dp393
g38
I4096745987
sg39
(dp394
g41
VRNG Penguin HCS
p395
sg43
Nssg44
(lp396
I2758383128
asg32
VWeaponPickup
p397
sg35
VPT35.4850007S
p398
sa(dp399
g32
VPlayerSpawn
p400
sg39
(dp401
g41
VRNG Penguin HCS
p402
sg43
Nssg35
VPT35.4850007S
p403
sa(dp404
g38
I313138863
sg39
(dp405
g41
VRammyy
p406
sg43
Nssg44
(lp407
I1095363701
asg32
VWeaponPickup
p408
sg35
VPT38.4680012S
p409
sa(dp410
g38
I4096745987
sg39
(dp411
g41
VRammyy
p412
sg43
Nssg44
(lp413
I2758383128
asg32
VWeaponPickup
p414
sg35
VPT38.4680012S
p415
sa(dp416
g32
VPlayerSpawn
p417
sg39
(dp418
g41
VRammyy
p419
sg43
Nssg35
VPT38.4680012S
p420
sa(dp421
g38
I313138863
sg32
VWeaponDrop
p422
sg180
I0
sg44
(lp423
I1095363701
asg35
VPT40.3989986S
p424
sg183
I0
sg184
VP0DT0H0M1.7333S
p425
sg39
(dp426
g41
VRNG Penguin HCS
p427
sg43
Nssa(dp428
g38
I4054937266
sg39
(dp429
g41
VRNG Penguin HCS
p430
sg43
Nssg44
(lp431
I2758383128
asg32
VWeaponPickupPad
p432
sg35
VPT40.3989986S
p433
sa(dp434
g38
I4054937266
sg39
(dp435
g41
VRNG Penguin HCS
p436
sg43
Nssg44
(lp437
I2758383128
asg32
VWeaponPickup
p438
sg35
VPT40.4000007S
p439
sa(dp440
g195
I723388907
sg196
I00
sg197
I00
sg198
(dp441
g41
VRNG Commonly
p442
sg43
Nssg201
(lp443
I89283061
asg203
I00
sg204
I01
sg205
I1
sg206
I0
sg207
I1
sg208
(dp444
Vy
F3.9529714600000001
sVx
F-2.2271754700000002
sVz
F3.1842248400000002
ssg210
(dp445
Vy
F0.75416934499999999
sVx
F-4.81032276
sVz
F3.76232481
ssg212
I00
sg213
(dp446
g41
VCLG LethuL HCS
p447
sg43
Nssg217
(lp448
sg219
(lp449
(dp450
g41
VRNG Ninja HCS
p451
sg43
Nsasg221
I00
sg35
VPT42.5340014S
p452
sg32
VDeath
p453
sg224
I1
sa(dp454
g38
I313138863
sg32
VWeaponDrop
p455
sg180
I0
sg44
(lp456
I1095363701
asg35
VPT42.5360004S
p457
sg183
I0
sg184
VP0DT0H0M3.3667S
p458
sg39
(dp459
g41
VCLG LethuL HCS
p460
sg43
Nssa(dp461
g38
I4096745987
sg32
VWeaponDrop
p462
sg180
I10
sg44
(lp463
I2758383128
asg35
VPT42.5360004S
p464
sg183
I1
sg184
VP0DT0H0M21.3667S
p465
sg39
(dp466
g41
VCLG LethuL HCS
p467
sg43
Nssa(dp468
g195
I723388907
sg196
I00
sg197
I00
sg198
(dp469
g41
VRNG Commonly
p470
sg43
Nssg201
(lp471
I89283061
asg203
I00
sg204
I01
sg205
I1
sg206
I0
sg207
I1
sg208
(dp472
Vy
F-0.75149333500000004
sVx
F0.051833547700000003
sVz
F1.28162336
ssg210
(dp473
Vy
F1.00774634
sVx
F-5.1912250000000002
sVz
F1.15583134
ssg212
I00
sg213
(dp474
g41
VCLG Snake Bite
p475
sg43
Nssg217
(lp476
sg219
(lp477
(dp478
g41
VRNG Ninja HCS
p479
sg43
Nsasg221
I00
sg35
VPT47.3510004S
p480
sg32
VDeath
p481
sg224
I1
sa(dp482
g32
VImpulse
p483
sg39
(dp484
g41
VRNG Commonly
p485
sg43
NssVImpulseId
p486
I2556889090
sg35
VPT47.3510004S
p487
sa(dp488
g32
VMedal
p489
sg39
(dp490
g41
VRNG Commonly
p491
sg43
Nssg321
I2838259753
sg35
VPT47.3510004S
p492
sa(dp493
g32
VMedal
p494
sg39
(dp495
g41
VRNG Commonly
p496
sg43
Nssg321
I2078758684
sg35
VPT47.3540006S
p497
sa(dp498
g38
I313138863
sg32
VWeaponDrop
p499
sg180
I19
sg44
(lp500
I1095363701
asg35
VPT47.3540006S
p501
sg183
I9
sg184
VP0DT0H0M11.1000S
p502
sg39
(dp503
g41
VCLG Snake Bite
p504
sg43
Nssa(dp505
g38
I4096745987
sg32
VWeaponDrop
p506
sg180
I14
sg44
(lp507
I2758383128
asg35
VPT47.3540006S
p508
sg183
I5
sg184
VP0DT0H0M18.4667S
p509
sg39
(dp510
g41
VCLG Snake Bite
p511
sg43
Nssa(dp512
g38
I313138863
sg39
(dp513
g41
VCLG LethuL HCS
p514
sg43
Nssg44
(lp515
I1095363701
asg32
VWeaponPickup
p516
sg35
VPT50.551001S
p517
sa(dp518
g38
I4096745987
sg39
(dp519
g41
VCLG LethuL HCS
p520
sg43
Nssg44
(lp521
I2758383128
asg32
VWeaponPickup
p522
sg35
VPT50.551001S
p523
sa(dp524
g32
VPlayerSpawn
p525
sg39
(dp526
g41
VCLG LethuL HCS
p527
sg43
Nssg35
VPT50.551001S
p528
sa(dp529
g195
I4054937266
sg196
I00
sg197
I00
sg198
(dp530
g41
VRNG Penguin HCS
p531
sg43
Nssg201
(lp532
I2758383128
asg203
I00
sg204
I01
sg205
I1
sg206
I0
sg207
I1
sg208
(dp533
Vy
F7.0402464900000004
sVx
F-11.621993099999999
sVz
F1.50913393
ssg210
(dp534
Vy
F0.88288100000000003
sVx
F-18.254621499999999
sVz
F1.5045990899999999
ssg212
I00
sg213
(dp535
g41
VRammyy
p536
sg43
Nssg217
(lp537
sg219
(lp538
sg221
I00
sg35
VPT51.2830002S
p539
sg32
VDeath
p540
sg224
I1
sa(dp541
g32
VMedal
p542
sg39
(dp543
g41
VRNG Commonly
p544
sg43
Nssg321
I824733727
sg35
VPT51.2840003S
p545
sa(dp546
g38
I313138863
sg32
VWeaponDrop
p547
sg180
I0
sg44
(lp548
I1095363701
asg35
VPT51.2850004S
p549
sg183
I0
sg184
VP0DT0H0M0.7000S
p550
sg39
(dp551
g41
VRammyy
p552
sg43
Nssa(dp553
g38
I4096745987
sg32
VWeaponDrop
p554
sg180
I7
sg44
(lp555
I2758383128
asg35
VPT51.2850004S
p556
sg183
I3
sg184
VP0DT0H0M12.1167S
p557
sg39
(dp558
g41
VRammyy
p559
sg43
Nssa(dp560
g38
I313138863
sg32
VWeaponDrop
p561
sg180
I0
sg44
(lp562
I1095363701
asg35
VPT55.0149995S
p563
sg183
I0
sg184
VP0DT0H0M5.1500S
p564
sg39
(dp565
g41
VRNG Victory X
p566
sg43
Nssa(dp567
g38
I723388907
sg39
(dp568
g41
VRNG Victory X
p569
sg43
Nssg44
(lp570
I89283061
asg32
VWeaponPickup
p571
sg35
VPT55.0160008S
p572
sa(dp573
g38
I313138863
sg39
(dp574
g41
VCLG Snake Bite
p575
sg43
Nssg44
(lp576
I1095363701
asg32
VWeaponPickup
p577
sg35
VPT55.367001S
p578
sa(dp579
g38
I4096745987
sg39
(dp580
g41
VCLG Snake Bite
p581
sg43
Nssg44
(lp582
I2758383128
asg32
VWeaponPickup
p583
sg35
VPT55.367001S
p584
sa(dp585
g32
VPlayerSpawn
p586
sg39
(dp587
g41
VCLG Snake Bite
p588
sg43
Nssg35
VPT55.367001S
p589
sa(dp590
g38
I313138863
sg39
(dp591
g41
VRammyy
p592
sg43
Nssg44
(lp593
I1095363701
asg32
VWeaponPickup
p594
sg35
VPT59.3010003S
p595
sa(dp596
g38
I4096745987
sg39
(dp597
g41
VRammyy
p598
sg43
Nssg44
(lp599
I2758383128
asg32
VWeaponPickup
p600
sg35
VPT59.3010003S
p601
sa(dp602
g32
VPlayerSpawn
p603
sg39
(dp604
g41
VRammyy
p605
sg43
Nssg35
VPT59.3010003S
p606
sa(dp607
g195
I4108759423
sg196
I00
sg197
I00
sg198
(dp608
g41
VRNG Victory X
p609
sg43
Nssg201
(lp610
I2758383128
asg203
I00
sg204
I01
sg205
I1
sg206
I0
sg207
I1
sg208
(dp611
Vy
F16.806652100000001
sVx
F-10.078624700000001
sVz
F1.50039744
ssg210
(dp612
Vy
F22.382217399999998
sVx
F-3.8107570000000002
sVz
F2.6030218600000001
ssg212
I00
sg213
(dp613
g41
VCLG LethuL HCS
p614
sg43
Nssg217
(lp615
sg219
(lp616
(dp617
g41
VRNG Ninja HCS
p618
sg43
Nsasg221
I01
sg35
VPT1M1.4500005S
p619
sg32
VDeath
p620
sg224
I1
sa(dp621
g32
VImpulse
p622
sg39
(dp623
g41
VRNG Victory X
p624
sg43
Nssg486
I2556889090
sg35
VPT1M1.4510006S
p625
sa(dp626
g32
VMedal
p627
sg39
(dp628
g41
VRNG Victory X
p629
sg43
Nssg321
I2838259753
sg35
VPT1M1.4510006S
p630
sa(dp631
g32
VMedal
p632
sg39
(dp633
g41
VRNG Commonly
p634
sg43
Nssg321
I824733727
sg35
VPT1M1.4520006S
p635
sa(dp636
g32
VMedal
p637
sg39
(dp638
g41
VRNG Victory X
p639
sg43
Nssg321
I3261908037
sg35
VPT1M1.4520006S
p640
sa(dp641
g38
I313138863
sg32
VWeaponDrop
p642
sg180
I0
sg44
(lp643
I1095363701
asg35
VPT1M1.4530001S
p644
sg183
I0
sg184
VP0DT0H0M0.8333S
p645
sg39
(dp646
g41
VCLG LethuL HCS
p647
sg43
Nssa(dp648
g38
I4096745987
sg32
VWeaponDrop
p649
sg180
I10
sg44
(lp650
I2758383128
asg35
VPT1M1.4530001S
p651
sg183
I7
sg184
VP0DT0H0M10.0667S
p652
sg39
(dp653
g41
VCLG LethuL HCS
p654
sg43
Nssa(dp655
g195
I4096745987
sg196
I00
sg197
I00
sg198
(dp656
g41
VCLG Snake Bite
p657
sg43
Nssg201
(lp658
I2758383128
asg203
I00
sg204
I01
sg205
I1
sg206
I0
sg207
I1
sg208
(dp659
Vy
F10.069251100000001
sVx
F2.417564
sVz
F1.4982089999999999
ssg210
(dp660
Vy
F7.1900300000000001
sVx
F-3.3685522099999998
sVz
F1.4976973499999999
ssg212
I00
sg213
(dp661
g41
VRNG Ninja HCS
p662
sg43
Nssg217
(lp663
sg219
(lp664
(dp665
g41
VCLG LethuL HCS
p666
sg43
Nsasg221
I01
sg35
VPT1M2.6000005S
p667
sg32
VDeath
p668
sg224
I1
sa(dp669
g32
VMedal
p670
sg39
(dp671
g41
VCLG Snake Bite
p672
sg43
Nssg321
I3261908037
sg35
VPT1M2.6010006S
p673
sa(dp674
g38
I3808094875
sg32
VWeaponDrop
p675
sg180
I16
sg44
(lp676
I2758383128
asg35
VPT1M2.6020002S
p677
sg183
I11
sg184
VP0DT0H0M13.7500S
p678
sg39
(dp679
g41
VRNG Ninja HCS
p680
sg43
Nssa(dp681
g38
I4096745987
sg32
VWeaponDrop
p682
sg180
I22
sg44
(lp683
I2758383128
asg35
VPT1M2.6020002S
p684
sg183
I9
sg184
VP0DT0H0M30.0167S
p685
sg39
(dp686
g41
VRNG Ninja HCS
p687
sg43
Nssa(dp688
g195
I4096745987
sg196
I00
sg197
I00
sg198
(dp689
g41
VRNG Penguin HCS
p690
sg43
Nssg201
(lp691
I2758383128
asg203
I00
sg204
I01
sg205
I1
sg206
I0
sg207
I1
sg208
(dp692
Vy
F-0.0150403753
sVx
F-17.355501199999999
sVz
F2.2541769999999999
ssg210
(dp693
Vy
F-1.5644035300000001
sVx
F-13.464002600000001
sVz
F2.90027452
ssg212
I00
sg213
(dp694
g41
VCLG Frosty HCS
p695
sg43
Nssg217
(lp696
sg219
(lp697
sg221
I01
sg35
VPT1M4.8000064S
p698
sg32
VDeath
p699
sg224
I1
sa(dp700
g32
VMedal
p701
sg39
(dp702
g41
VRNG Penguin HCS
p703
sg43
Nssg321
I3261908037
sg35
VPT1M4.8010003S
p704
sa(dp705
g38
I669296699
sg32
VWeaponDrop
p706
sg180
I2
sg44
(lp707
I2758383128
asg35
VPT1M4.8020007S
p708
sg183
I0
sg184
VP0DT0H0M33.7833S
p709
sg39
(dp710
g41
VCLG Frosty HCS
p711
sg43
Nssa(dp712
g38
I4096745987
sg32
VWeaponDrop
p713
sg180
I1
sg44
(lp714
I2758383128
asg35
VPT1M4.8020007S
p715
sg183
I1
sg184
VP0DT0H0M8.2000S
p716
sg39
(dp717
g41
VCLG Frosty HCS
p718
sg43
Nssa(dp719
g38
I4096745987
sg32
VWeaponDrop
p720
sg180
I12
sg44
(lp721
I2758383128
asg35
VPT1M7.5479994S
p722
sg183
I8
sg184
VP0DT0H0M16.5000S
p723
sg39
(dp724
g41
VRNG Penguin HCS
p725
sg43
Nssa(dp726
g38
I669296699
sg39
(dp727
g41
VRNG Penguin HCS
p728
sg43
Nssg44
(lp729
I2758383128
asg32
VWeaponPickup
p730
sg35
VPT1M7.5490006S
p731
sa(dp732
g38
I313138863
sg39
(dp733
g41
VCLG LethuL HCS
p734
sg43
Nssg44
(lp735
I1095363701
asg32
VWeaponPickup
p736
sg35
VPT1M9.4670009S
p737
sa(dp738
g38
I4096745987
sg39
(dp739
g41
VCLG LethuL HCS
p740
sg43
Nssg44
(lp741
I2758383128
asg32
VWeaponPickup
p742
sg35
VPT1M9.4670009S
p743
sa(dp744
g32
VPlayerSpawn
p745
sg39
(dp746
g41
VCLG LethuL HCS
p747
sg43
Nssg35
VPT1M9.4670009S
p748
sa(dp749
g38
I313138863
sg39
(dp750
g41
VRNG Ninja HCS
p751
sg43
Nssg44
(lp752
I1095363701
asg32
VWeaponPickup
p753
sg35
VPT1M10.6160009S
p754
sa(dp755
g38
I4096745987
sg39
(dp756
g41
VRNG Ninja HCS
p757
sg43
Nssg44
(lp758
I2758383128
asg32
VWeaponPickup
p759
sg35
VPT1M10.6170012S
p760
sa(dp761
g32
VPlayerSpawn
p762
sg39
(dp763
g41
VRNG Ninja HCS
p764
sg43
Nssg35
VPT1M10.6170012S
p765
sa(dp766
g38
I313138863
sg39
(dp767
g41
VCLG Frosty HCS
p768
sg43
Nssg44
(lp769
I1095363701
asg32
VWeaponPickup
p770
sg35
VPT1M12.8160012S
p771
sa(dp772
g38
I4096745987
sg39
(dp773
g41
VCLG Frosty HCS
p774
sg43
Nssg44
(lp775
I2758383128
asg32
VWeaponPickup
p776
sg35
VPT1M12.8170013S
p777
sa(dp778
g32
VPlayerSpawn
p779
sg39
(dp780
g41
VCLG Frosty HCS
p781
sg43
Nssg35
VPT1M12.8170013S
p782
sa(dp783
g195
I4096745987
sg196
I00
sg197
I00
sg198
(dp784
g41
VRNG Commonly
p785
sg43
Nssg201
(lp786
I2758383128
asg203
I00
sg204
I01
sg205
I1
sg206
I0
sg207
I1
sg208
(dp787
Vy
F14.171760000000001
sVx
F-4.1289600000000002
sVz
F1.4995212600000001
ssg210
(dp788
Vy
F23.803161599999999
sVx
F-2.6652429999999998
sVz
F2.54194546
ssg212
I00
sg213
(dp789
g41
VCLG LethuL HCS
p790
sg43
Nssg217
(lp791
sg219
(lp792
sg221
I01
sg35
VPT1M19.0660005S
p793
sg32
VDeath
p794
sg224
I1
sa(dp795
g32
VMedal
p796
sg39
(dp797
g41
VRNG Ninja HCS
p798
sg43
Nssg321
I824733727
sg35
VPT1M19.0679998S
p799
sa(dp800
g32
VMedal
p801
sg39
(dp802
g41
VRNG Commonly
p803
sg43
Nssg321
I3261908037
sg35
VPT1M19.069S
p804
sa(dp805
g38
I313138863
sg32
VWeaponDrop
p806
sg180
I6
sg44
(lp807
I1095363701
asg35
VPT1M19.069S
p808
sg183
I2
sg184
VP0DT0H0M2.2667S
p809
sg39
(dp810
g41
VCLG LethuL HCS
p811
sg43
Nssa(dp812
g38
I4096745987
sg32
VWeaponDrop
p813
sg180
I1
sg44
(lp814
I2758383128
asg35
VPT1M19.069S
p815
sg183
I1
sg184
VP0DT0H0M7.3333S
p816
sg39
(dp817
g41
VCLG LethuL HCS
p818
sg43
Nssa(dp819
g195
I4054937266
sg196
I00
sg197
I00
sg198
(dp820
g41
VRNG Penguin HCS
p821
sg43
Nssg201
(lp822
I2758383128
asg203
I00
sg204
I01
sg205
I1
sg206
I0
sg207
I1
sg208
(dp823
Vy
F12.5897121
sVx
F-12.488728500000001
sVz
F1.5086544799999999
ssg210
(dp824
Vy
F13.6773539
sVx
F-5.9805149999999996
sVz
F1.4995212600000001
ssg212
I00
sg213
(dp825
g41
VCLG Frosty HCS
p826
sg43
Nssg217
(lp827
sg219
(lp828
sg221
I00
sg35
VPT1M20.9820005S
p829
sg32
VDeath
p830
sg224
I1
sa(dp831
g32
VImpulse
p832
sg39
(dp833
g41
VRNG Penguin HCS
p834
sg43
Nssg486
I2556889090
sg35
VPT1M20.9820005S
p835
sa(dp836
g32
VMedal
p837
sg39
(dp838
g41
VRNG Penguin HCS
p839
sg43
Nssg321
I2838259753
sg35
VPT1M20.9820005S
p840
sa(dp841
g32
VMedal
p842
sg39
(dp843
g41
VRNG Commonly
p844
sg43
Nssg321
I824733727
sg35
VPT1M20.9830009S
p845
sa(dp846
g38
I313138863
sg32
VWeaponDrop
p847
sg180
I13
sg44
(lp848
I1095363701
asg35
VPT1M20.9840046S
p849
sg183
I7
sg184
VP0DT0H0M4.0500S
p850
sg39
(dp851
g41
VCLG Frosty HCS
p852
sg43
Nssa(dp853
g38
I4096745987
sg32
VWeaponDrop
p854
sg180
I2
sg44
(lp855
I2758383128
asg35
VPT1M20.9840046S
p856
sg183
I1
sg184
VP0DT0H0M4.1167S
p857
sg39
(dp858
g41
VCLG Frosty HCS
p859
sg43
Nssa(dp860
g195
I313138863
sg196
I00
sg197
I00
sg198
(dp861
g41
VRNG Ninja HCS
p862
sg43
Nssg201
(lp863
I1095363701
asg203
I00
sg204
I01
sg205
I1
sg206
I0
sg207
I1
sg208
(dp864
Vy
F9.3296989999999997
sVx
F-0.14839330000000001
sVz
F1.4982089999999999
ssg210
(dp865
Vy
F7.7057533300000003
sVx
F-1.13877213
sVz
F1.4980066999999999
ssg212
I00
sg213
(dp866
g41
VRammyy
p867
sg43
Nssg217
(lp868
sg219
(lp869
sg221
I00
sg35
VPT1M23.0820007S
p870
sg32
VDeath
p871
sg224
I1
sa(dp872
g38
I313138863
sg32
VWeaponDrop
p873
sg180
I12
sg44
(lp874
I1095363701
asg35
VPT1M23.0840014S
p875
sg183
I0
sg184
VP0DT0H0M6.2333S
p876
sg39
(dp877
g41
VRammyy
p878
sg43
Nssa(dp879
g38
I4096745987
sg32
VWeaponDrop
p880
sg180
I7
sg44
(lp881
I2758383128
asg35
VPT1M23.0840014S
p882
sg183
I4
sg184
VP0DT0H0M17.5500S
p883
sg39
(dp884
g41
VRammyy
p885
sg43
Nssa(dp886
g32
VMedal
p887
sg39
(dp888
g41
VRNG Commonly
p889
sg43
Nssg321
I3400287617
sg35
VPT1M23.6150005S
p890
sa(dp891
g38
I313138863
sg39
(dp892
g41
VCLG LethuL HCS
p893
sg43
Nssg44
(lp894
I1095363701
asg32
VWeaponPickup
p895
sg35
VPT1M27.0820012S
p896
sa(dp897
g38
I4096745987
sg39
(dp898
g41
VCLG LethuL HCS
p899
sg43
Nssg44
(lp900
I2758383128
asg32
VWeaponPickup
p901
sg35
VPT1M27.0830011S
p902
sa(dp903
g32
VPlayerSpawn
p904
sg39
(dp905
g41
VCLG LethuL HCS
p906
sg43
Nssg35
VPT1M27.0830011S
p907
sa(dp908
g195
I4096745987
sg196
I00
sg197
I00
sg198
(dp909
g41
VRNG Ninja HCS
p910
sg43
Nssg201
(lp911
I2758383128
asg203
I00
sg204
I01
sg205
I1
sg206
I0
sg207
I1
sg208
(dp912
Vy
F11.3598976
sVx
F-1.5729343899999999
sVz
F-0.86868749999999995
ssg210
(dp913
Vy
F17.977370000000001
sVx
F5.7486069999999998
sVz
F-0.49406325800000001
ssg212
I00
sg213
(dp914
g41
VCLG Snake Bite
p915
sg43
Nssg217
(lp916
sg219
(lp917
(dp918
g41
VRNG Commonly
p919
sg43
Nsasg221
I01
sg35
VPT1M28.0650024S
p920
sg32
VDeath
p921
sg224
I1
sa(dp922
g32
VMedal
p923
sg39
(dp924
g41
VRNG Ninja HCS
p925
sg43
Nssg321
I3261908037
sg35
VPT1M28.0670005S
p926
sa(dp927
g32
VMedal
p928
sg39
(dp929
g41
VRNG Ninja HCS
p930
sg43
Nssg321
I2078758684
sg35
VPT1M28.0670005S
p931
sa(dp932
g38
I4096745987
sg32
VWeaponDrop
p933
sg180
I7
sg44
(lp934
I2758383128
asg35
VPT1M28.0680006S
p935
sg183
I3
sg184
VP0DT0H0M19.3000S
p936
sg39
(dp937
g41
VCLG Snake Bite
p938
sg43
Nssa(dp939
g38
I313138863
sg32
VWeaponDrop
p940
sg180
I24
sg44
(lp941
I1095363701
asg35
VPT1M28.0689999S
p942
sg183
I2
sg184
VP0DT0H0M13.4000S
p943
sg39
(dp944
g41
VCLG Snake Bite
p945
sg43
Nssa(dp946
g38
I313138863
sg39
(dp947
g41
VCLG Frosty HCS
p948
sg43
Nssg44
(lp949
I1095363701
asg32
VWeaponPickup
p950
sg35
VPT1M28.9990008S
p951
sa(dp952
g38
I4096745987
sg39
(dp953
g41
VCLG Frosty HCS
p954
sg43
Nssg44
(lp955
I2758383128
asg32
VWeaponPickup
p956
sg35
VPT1M28.9990008S
p957
sa(dp958
g32
VPlayerSpawn
p959
sg39
(dp960
g41
VCLG Frosty HCS
p961
sg43
Nssg35
VPT1M28.9990008S
p962
sa(dp963
g195
I4096745987
sg196
I00
sg197
I00
sg198
(dp964
g41
VCLG LethuL HCS
p965
sg43
Nssg201
(lp966
I2758383128
asg203
I00
sg204
I01
sg205
I1
sg206
I0
sg207
I1
sg208
(dp967
Vy
F-0.52065530000000004
sVx
F-16.255565600000001
sVz
F1.49932277
ssg210
(dp968
Vy
F12.0800743
sVx
F-2.5712320000000002
sVz
F-0.85605895499999995
ssg212
I00
sg213
(dp969
g41
VRNG Ninja HCS
p970
sg43
Nssg217
(lp971
sg219
(lp972
(dp973
g41
VCLG Snake Bite
p974
sg43
Nsasg221
I01
sg35
VPT1M29.0820005S
p975
sg32
VDeath
p976
sg224
I1
sa(dp977
g32
VMedal
p978
sg39
(dp979
g41
VCLG LethuL HCS
p980
sg43
Nssg321
I3261908037
sg35
VPT1M29.0840405S
p981
sa(dp982
g38
I313138863
sg32
VWeaponDrop
p983
sg180
I13
sg44
(lp984
I1095363701
asg35
VPT1M29.0850005S
p985
sg183
I5
sg184
VP0DT0H0M5.7500S
p986
sg39
(dp987
g41
VRNG Ninja HCS
p988
sg43
Nssa(dp989
g38
I313138863
sg32
VWeaponDrop
p990
sg180
I0
sg44
(lp991
I1095363701
asg35
VPT1M29.0850005S
p992
sg183
I0
sg184
VP0DT0S
p993
sg39
(dp994
g41
VRNG Ninja HCS
p995
sg43
Nssa(dp996
g38
I4096745987
sg32
VWeaponDrop
p997
sg180
I12
sg44
(lp998
I2758383128
asg35
VPT1M29.0850005S
p999
sg183
I3
sg184
VP0DT0H0M12.7167S
p1000
sg39
(dp1001
g41
VRNG Ninja HCS
p1002
sg43
Nssa(dp1003
g195
I2457457776
sg196
I00
sg197
I00
sg198
(dp1004
g41
VRNG Commonly
p1005
sg43
Nssg201
(lp1006
sg203
I00
sg204
I00
sg205
I0
sg206
I0
sg207
I1
sg208
(dp1007
Vy
F16.466270000000002
sVx
F-6.7448344200000001
sVz
F-5.0771369999999996
ssg210
(dp1008
Vy
F16.466270000000002
sVx
F-6.7448344200000001
sVz
F-5.0771369999999996
ssg212
I00
sg213
(dp1009
g41
VRNG Commonly
p1010
sg43
Nssg217
(lp1011
sg219
(lp1012
sg221
I00
sg35
VPT1M29.9650007S
p1013
sg32
VDeath
p1014
sg224
I1
sa(dp1015
g32
VImpulse
p1016
sg39
(dp1017
g41
VRNG Commonly
p1018
sg43
Nssg486
I1408036107
sg35
VPT1M29.9650007S
p1019
sa(dp1020
g38
I723388907
sg32
VWeaponDrop
p1021
sg180
I96
sg44
(lp1022
I89283061
asg35
VPT1M29.9660001S
p1023
sg183
I34
sg184
VP0DT0H0M37.1167S
p1024
sg39
(dp1025
g41
VRNG Commonly
p1026
sg43
Nssa(dp1027
g38
I4096745987
sg32
VWeaponDrop
p1028
sg180
I11
sg44
(lp1029
I2758383128
asg35
VPT1M29.9660001S
p1030
sg183
I8
sg184
VP0DT0H0M28.5000S
p1031
sg39
(dp1032
g41
VRNG Commonly
p1033
sg43
Nssa(dp1034
g38
I313138863
sg39
(dp1035
g41
VRammyy
p1036
sg43
Nssg44
(lp1037
I1095363701
asg32
VWeaponPickup
p1038
sg35
VPT1M31.0990229S
p1039
sa(dp1040
g38
I4096745987
sg39
(dp1041
g41
VRammyy
p1042
sg43
Nssg44
(lp1043
I2758383128
asg32
VWeaponPickup
p1044
sg35
VPT1M31.0990229S
p1045
sa(dp1046
g32
VPlayerSpawn
p1047
sg39
(dp1048
g41
VRammyy
p1049
sg43
Nssg35
VPT1M31.0990229S
p1050
sa(dp1051
g195
I723388907
sg196
I00
sg197
I01
sg198
(dp1052
g41
VRNG Victory X
p1053
sg43
Nssg201
(lp1054
I89283061
asg203
I00
sg204
I00
sg205
I1
sg206
I0
sg207
I1
sg208
(dp1055
Vy
F1.8566486799999999
sVx
F-18.88447
sVz
F1.5583717800000001
ssg210
(dp1056
Vy
F1.953646
sVx
F-18.547709999999999
sVz
F1.6399617200000001
ssg212
I00
sg213
(dp1057
g41
VCLG LethuL HCS
p1058
sg43
Nssg217
(lp1059
sg219
(lp1060
sg221
I00
sg35
VPT1M34.4820006S
p1061
sg32
VDeath
p1062
sg224
I1
sa(dp1063
g32
VMedal
p1064
sg39
(dp1065
g41
VRNG Victory X
p1066
sg43
Nssg321
I2287626681
sg35
VPT1M34.4830008S
p1067
sa(dp1068
g38
I4096745987
sg32
VWeaponDrop
p1069
sg180
I2
sg44
(lp1070
I2758383128
asg35
VPT1M34.484001S
p1071
sg183
I1
sg184
VP0DT0H0M6.5833S
p1072
sg39
(dp1073
g41
VCLG LethuL HCS
p1074
sg43
Nssa(dp1075
g38
I313138863
sg32
VWeaponDrop
p1076
sg180
I0
sg44
(lp1077
I1095363701
asg35
VPT1M34.484001S
p1078
sg183
I0
sg184
VP0DT0H0M0.8167S
p1079
sg39
(dp1080
g41
VCLG LethuL HCS
p1081
sg43
Nssa(dp1082
g38
I313138863
sg39
(dp1083
g41
VCLG Snake Bite
p1084
sg43
Nssg44
(lp1085
I1095363701
asg32
VWeaponPickup
p1086
sg35
VPT1M36.0830011S
p1087
sa(dp1088
g38
I4096745987
sg39
(dp1089
g41
VCLG Snake Bite
p1090
sg43
Nssg44
(lp1091
I2758383128
asg32
VWeaponPickup
p1092
sg35
VPT1M36.0830011S
p1093
sa(dp1094
g32
VPlayerSpawn
p1095
sg39
(dp1096
g41
VCLG Snake Bite
p1097
sg43
Nssg35
VPT1M36.0830011S
p1098
sa(dp1099
g38
I313138863
sg39
(dp1100
g41
VRNG Ninja HCS
p1101
sg43
Nssg44
(lp1102
I1095363701
asg32
VWeaponPickup
p1103
sg35
VPT1M37.099006S
p1104
sa(dp1105
g38
I4096745987
sg39
(dp1106
g41
VRNG Ninja HCS
p1107
sg43
Nssg44
(lp1108
I2758383128
asg32
VWeaponPickup
p1109
sg35
VPT1M37.099006S
p1110
sa(dp1111
g32
VPlayerSpawn
p1112
sg39
(dp1113
g41
VRNG Ninja HCS
p1114
sg43
Nssg35
VPT1M37.099006S
p1115
sa(dp1116
g38
I313138863
sg39
(dp1117
g41
VRNG Commonly
p1118
sg43
Nssg44
(lp1119
I1095363701
asg32
VWeaponPickup
p1120
sg35
VPT1M37.9820012S
p1121
sa(dp1122
g38
I4096745987
sg39
(dp1123
g41
VRNG Commonly
p1124
sg43
Nssg44
(lp1125
I2758383128
asg32
VWeaponPickup
p1126
sg35
VPT1M37.9820012S
p1127
sa(dp1128
g32
VPlayerSpawn
p1129
sg39
(dp1130
g41
VRNG Commonly
p1131
sg43
Nssg35
VPT1M37.9830007S
p1132
sa(dp1133
g195
I4096745987
sg196
I00
sg197
I00
sg198
(dp1134
g41
VCLG Frosty HCS
p1135
sg43
Nssg201
(lp1136
I2758383128
asg203
I00
sg204
I01
sg205
I1
sg206
I0
sg207
I1
sg208
(dp1137
Vy
F11.092438700000001
sVx
F-9.9088940000000001
sVz
F3.2293641599999998
ssg210
(dp1138
Vy
F2.67359686
sVx
F-7.4352936700000001
sVz
F2.6801986699999998
ssg212
I00
sg213
(dp1139
g41
VRNG Penguin HCS
p1140
sg43
Nssg217
(lp1141
sg219
(lp1142
(dp1143
g41
VRammyy
p1144
sg43
Nsasg221
I01
sg35
VPT1M40.2480013S
p1145
sg32
VDeath
p1146
sg224
I1
sa(dp1147
g32
VMedal
p1148
sg39
(dp1149
g41
VCLG Frosty HCS
p1150
sg43
Nssg321
I3261908037
sg35
VPT1M40.2500002S
p1151
sa(dp1152
g38
I4054937266
sg32
VWeaponDrop
p1153
sg180
I10
sg44
(lp1154
I2758383128
asg35
VPT1M40.2510006S
p1155
sg183
I7
sg184
VP0DT0H0M29.0500S
p1156
sg39
(dp1157
g41
VRNG Penguin HCS
p1158
sg43
Nssa(dp1159
g38
I669296699
sg32
VWeaponDrop
p1160
sg180
I2
sg44
(lp1161
I2758383128
asg35
VPT1M40.2510006S
p1162
sg183
I0
sg184
VP0DT0H0M17.4833S
p1163
sg39
(dp1164
g41
VRNG Penguin HCS
p1165
sg43
Nssa(dp1166
g38
I313138863
sg39
(dp1167
g41
VCLG LethuL HCS
p1168
sg43
Nssg44
(lp1169
I1095363701
asg32
VWeaponPickup
p1170
sg35
VPT1M42.499S
p1171
sa(dp1172
g38
I4096745987
sg39
(dp1173
g41
VCLG LethuL HCS
p1174
sg43
Nssg44
(lp1175
I2758383128
asg32
VWeaponPickup
p1176
sg35
VPT1M42.499S
p1177
sa(dp1178
g32
VPlayerSpawn
p1179
sg39
(dp1180
g41
VCLG LethuL HCS
p1181
sg43
Nssg35
VPT1M42.499S
p1182
sa(dp1183
g195
I4108759423
sg196
I00
sg197
I00
sg198
(dp1184
g41
VRNG Victory X
p1185
sg43
Nssg201
(lp1186
I2758383128
asg203
I00
sg204
I01
sg205
I1
sg206
I0
sg207
I1
sg208
(dp1187
Vy
F-1.2241466000000001
sVx
F-11.3562517
sVz
F1.78939
ssg210
(dp1188
Vy
F9.9137319999999995
sVx
F-10.586160700000001
sVz
F1.15731227
ssg212
I00
sg213
(dp1189
g41
VCLG Frosty HCS
p1190
sg43
Nssg217
(lp1191
sg219
(lp1192
(dp1193
g41
VRNG Ninja HCS
p1194
sg43
Nsa(dp1195
g41
VRNG Commonly
p1196
sg43
Nsasg221
I01
sg35
VPT1M46.8810004S
p1197
sg32
VDeath
p1198
sg224
I1
sa(dp1199
g32
VMedal
p1200
sg39
(dp1201
g41
VRNG Victory X
p1202
sg43
Nssg321
I3261908037
sg35
VPT1M46.8830001S
p1203
sa(dp1204
g38
I313138863
sg32
VWeaponDrop
p1205
sg180
I0
sg44
(lp1206
I1095363701
asg35
VPT1M46.8839999S
p1207
sg183
I0
sg184
VP0DT0H0M0.9167S
p1208
sg39
(dp1209
g41
VCLG Frosty HCS
p1210
sg43
Nssa(dp1211
g38
I4096745987
sg32
VWeaponDrop
p1212
sg180
I10
sg44
(lp1213
I2758383128
asg35
VPT1M46.8839999S
p1214
sg183
I5
sg184
VP0DT0H0M16.9667S
p1215
sg39
(dp1216
g41
VCLG Frosty HCS
p1217
sg43
Nssa(dp1218
g38
I313138863
sg39
(dp1219
g41
VRNG Penguin HCS
p1220
sg43
Nssg44
(lp1221
I1095363701
asg32
VWeaponPickup
p1222
sg35
VPT1M48.265001S
p1223
sa(dp1224
g38
I4096745987
sg39
(dp1225
g41
VRNG Penguin HCS
p1226
sg43
Nssg44
(lp1227
I2758383128
asg32
VWeaponPickup
p1228
sg35
VPT1M48.265001S
p1229
sa(dp1230
g32
VPlayerSpawn
p1231
sg39
(dp1232
g41
VRNG Penguin HCS
p1233
sg43
Nssg35
VPT1M48.265001S
p1234
sa(dp1235
g38
I723388907
sg32
VWeaponDrop
p1236
sg180
I20
sg44
(lp1237
I89283061
asg35
VPT1M52.5470004S
p1238
sg183
I5
sg184
VP0DT0H0M8.2000S
p1239
sg39
(dp1240
g41
VRNG Victory X
p1241
sg43
Nssa(dp1242
g38
I723388907
sg32
VWeaponDrop
p1243
sg180
I0
sg44
(lp1244
I89283061
asg35
VPT1M52.5470004S
p1245
sg183
I0
sg184
VP0DT0S
p1246
sg39
(dp1247
g41
VRNG Victory X
p1248
sg43
Nssa(dp1249
g38
I4054937266
sg39
(dp1250
g41
VRNG Victory X
p1251
sg43
Nssg44
(lp1252
I2758383128
asg32
VWeaponPickup
p1253
sg35
VPT1M52.5470004S
p1254
sa(dp1255
g195
I4096745987
sg196
I00
sg197
I00
sg198
(dp1256
g41
VCLG LethuL HCS
p1257
sg43
Nssg201
(lp1258
I2758383128
asg203
I00
sg204
I01
sg205
I1
sg206
I0
sg207
I1
sg208
(dp1259
Vy
F10.8083019
sVx
F-9.4555600000000002
sVz
F3.2293605799999998
ssg210
(dp1260
Vy
F2.4168374500000001
sVx
F-9.5065299999999997
sVz
F2.5852427499999999
ssg212
I00
sg213
(dp1261
g41
VRNG Penguin HCS
p1262
sg43
Nssg217
(lp1263
sg219
(lp1264
sg221
I01
sg35
VPT1M52.7310002S
p1265
sg32
VDeath
p1266
sg224
I1
sa(dp1267
g32
VMedal
p1268
sg39
(dp1269
g41
VCLG LethuL HCS
p1270
sg43
Nssg321
I3261908037
sg35
VPT1M52.7329997S
p1271
sa(dp1272
g38
I313138863
sg32
VWeaponDrop
p1273
sg180
I0
sg44
(lp1274
I1095363701
asg35
VPT1M52.7329997S
p1275
sg183
I0
sg184
VP0DT0H0M1.1000S
p1276
sg39
(dp1277
g41
VRNG Penguin HCS
p1278
sg43
Nssa(dp1279
g38
I4096745987
sg32
VWeaponDrop
p1280
sg180
I0
sg44
(lp1281
I2758383128
asg35
VPT1M52.7329997S
p1282
sg183
I0
sg184
VP0DT0H0M3.3667S
p1283
sg39
(dp1284
g41
VRNG Penguin HCS
p1285
sg43
Nssa(dp1286
g195
I3190813201
sg196
I00
sg197
I00
sg198
(dp1287
g41
VCLG Snake Bite
p1288
sg43
Nssg201
(lp1289
sg203
I00
sg204
I01
sg205
I1
sg206
I0
sg207
I1
sg208
(dp1290
Vy
F0.388662428
sVx
F-4.3823059999999998
sVz
F0.30554962200000002
ssg210
(dp1291
Vy
F1.7070304199999999
sVx
F-7.09925461
sVz
F2.6818900000000001
ssg212
I00
sg213
(dp1292
g41
VRNG Victory X
p1293
sg43
Nssg217
(lp1294
sg219
(lp1295
sg221
I00
sg35
VPT1M53.5640005S
p1296
sg32
VDeath
p1297
sg224
I1
sa(dp1298
g38
I4054937266
sg32
VWeaponDrop
p1299
sg180
I0
sg44
(lp1300
I2758383128
asg35
VPT1M53.5660002S
p1301
sg183
I0
sg184
VP0DT0H0M0.4667S
p1302
sg39
(dp1303
g41
VRNG Victory X
p1304
sg43
Nssa(dp1305
g38
I4108759423
sg32
VWeaponDrop
p1306
sg180
I20
sg44
(lp1307
I2758383128
asg35
VPT1M53.5660002S
p1308
sg183
I8
sg184
VP0DT0H1M21.6500S
p1309
sg39
(dp1310
g41
VRNG Victory X
p1311
sg43
Nssa(dp1312
g38
I313138863
sg39
(dp1313
g41
VCLG Frosty HCS
p1314
sg43
Nssg44
(lp1315
I1095363701
asg32
VWeaponPickup
p1316
sg35
VPT1M54.8990009S
p1317
sa(dp1318
g38
I4096745987
sg39
(dp1319
g41
VCLG Frosty HCS
p1320
sg43
Nssg44
(lp1321
I2758383128
asg32
VWeaponPickup
p1322
sg35
VPT1M54.8990009S
p1323
sa(dp1324
g32
VPlayerSpawn
p1325
sg39
(dp1326
g41
VCLG Frosty HCS
p1327
sg43
Nssg35
VPT1M54.8990009S
p1328
sa(dp1329
g195
I313138863
sg196
I00
sg197
I00
sg198
(dp1330
g41
VRammyy
p1331
sg43
Nssg201
(lp1332
I1095363701
asg203
I00
sg204
I01
sg205
I1
sg206
I0
sg207
I1
sg208
(dp1333
Vy
F14.6876669
sVx
F-14.885372200000001
sVz
F-0.017080292100000002
ssg210
(dp1334
Vy
F12.563361199999999
sVx
F-17.519094500000001
sVz
F0.16859787700000001
ssg212
I00
sg213
(dp1335
g41
VRNG Commonly
p1336
sg43
Nssg217
(lp1337
sg219
(lp1338
(dp1339
g41
VCLG Snake Bite
p1340
sg43
Nsa(dp1341
g41
VCLG LethuL HCS
p1342
sg43
Nsasg221
I00
sg35
VPT1M57.5479997S
p1343
sg32
VDeath
p1344
sg224
I1
sa(dp1345
g38
I313138863
sg32
VWeaponDrop
p1346
sg180
I0
sg44
(lp1347
I1095363701
asg35
VPT1M57.5500001S
p1348
sg183
I0
sg184
VP0DT0H0M0.9667S
p1349
sg39
(dp1350
g41
VRNG Commonly
p1351
sg43
Nssa(dp1352
g38
I4096745987
sg32
VWeaponDrop
p1353
sg180
I11
sg44
(lp1354
I2758383128
asg35
VPT1M57.5500001S
p1355
sg183
I3
sg184
VP0DT0H0M18.6000S
p1356
sg39
(dp1357
g41
VRNG Commonly
p1358
sg43
Nssa(dp1359
g195
I4096745987
sg196
I00
sg197
I00
sg198
(dp1360
g41
VCLG Snake Bite
p1361
sg43
Nssg201
(lp1362
I2758383128
asg203
I00
sg204
I01
sg205
I1
sg206
I0
sg207
I1
sg208
(dp1363
Vy
F6.7044472700000002
sVx
F-18.408149999999999
sVz
F-0.89672739999999995
ssg210
(dp1364
Vy
F13.2800274
sVx
F-17.265582999999999
sVz
F-0.89670145499999998
ssg212
I00
sg213
(dp1365
g41
VRNG Ninja HCS
p1366
sg43
Nssg217
(lp1367
sg219
(lp1368
(dp1369
g41
VCLG LethuL HCS
p1370
sg43
Nsasg221
I00
sg35
VPT1M59.1140009S
p1371
sg32
VDeath
p1372
sg224
I1
sa(dp1373
g32
VImpulse
p1374
sg39
(dp1375
g41
VCLG Snake Bite
p1376
sg43
Nssg486
I2556889090
sg35
VPT1M59.1150007S
p1377
sa(dp1378
g32
VMedal
p1379
sg39
(dp1380
g41
VCLG Snake Bite
p1381
sg43
Nssg321
I2838259753
sg35
VPT1M59.1150007S
p1382
sa(dp1383
g38
I313138863
sg32
VWeaponDrop
p1384
sg180
I23
sg44
(lp1385
I1095363701
asg35
VPT1M59.1160002S
p1386
sg183
I7
sg184
VP0DT0H0M4.3167S
p1387
sg39
(dp1388
g41
VRNG Ninja HCS
p1389
sg43
Nssa(dp1390
g38
I4096745987
sg32
VWeaponDrop
p1391
sg180
I9
sg44
(lp1392
I2758383128
asg35
VPT1M59.1160002S
p1393
sg183
I4
sg184
VP0DT0H0M17.7000S
p1394
sg39
(dp1395
g41
VRNG Ninja HCS
p1396
sg43
Nssa(dp1397
g38
I313138863
sg32
VWeaponDrop
p1398
sg180
I15
sg44
(lp1399
I1095363701
asg35
VPT2M0.2959994S
p1400
sg183
I9
sg184
VP0DT0H0M6.6333S
p1401
sg39
(dp1402
g41
VRammyy
p1403
sg43
Nssa(dp1404
g38
I723388907
sg39
(dp1405
g41
VRammyy
p1406
sg43
Nssg44
(lp1407
I89283061
asg32
VWeaponPickup
p1408
sg35
VPT2M0.2959994S
p1409
sa(dp1410
g38
I313138863
sg39
(dp1411
g41
VRNG Penguin HCS
p1412
sg43
Nssg44
(lp1413
I1095363701
asg32
VWeaponPickup
p1414
sg35
VPT2M0.7480008S
p1415
sa(dp1416
g38
I4096745987
sg39
(dp1417
g41
VRNG Penguin HCS
p1418
sg43
Nssg44
(lp1419
I2758383128
asg32
VWeaponPickup
p1420
sg35
VPT2M0.7480008S
p1421
sa(dp1422
g32
VPlayerSpawn
p1423
sg39
(dp1424
g41
VRNG Penguin HCS
p1425
sg43
Nssg35
VPT2M0.7480008S
p1426
sa(dp1427
g38
I313138863
sg39
(dp1428
g41
VRNG Victory X
p1429
sg43
Nssg44
(lp1430
I1095363701
asg32
VWeaponPickup
p1431
sg35
VPT2M1.5810012S
p1432
sa(dp1433
g38
I4096745987
sg39
(dp1434
g41
VRNG Victory X
p1435
sg43
Nssg44
(lp1436
I2758383128
asg32
VWeaponPickup
p1437
sg35
VPT2M1.5810012S
p1438
sa(dp1439
g32
VPlayerSpawn
p1440
sg39
(dp1441
g41
VRNG Victory X
p1442
sg43
Nssg35
VPT2M1.5810012S
p1443
sa(dp1444
g38
I313138863
sg39
(dp1445
g41
VRNG Commonly
p1446
sg43
Nssg44
(lp1447
I1095363701
asg32
VWeaponPickup
p1448
sg35
VPT2M5.5640004S
p1449
sa(dp1450
g38
I4096745987
sg39
(dp1451
g41
VRNG Commonly
p1452
sg43
Nssg44
(lp1453
I2758383128
asg32
VWeaponPickup
p1454
sg35
VPT2M5.5650009S
p1455
sa(dp1456
g32
VPlayerSpawn
p1457
sg39
(dp1458
g41
VRNG Commonly
p1459
sg43
Nssg35
VPT2M5.5650009S
p1460
sa(dp1461
g38
I313138863
sg32
VWeaponDrop
p1462
sg180
I0
sg44
(lp1463
I1095363701
asg35
VPT2M6.1130008S
p1464
sg183
I0
sg184
VP0DT0H0M2.2500S
p1465
sg39
(dp1466
g41
VRNG Victory X
p1467
sg43
Nssa(dp1468
g38
I3808094875
sg39
(dp1469
g41
VRNG Victory X
p1470
sg43
Nssg44
(lp1471
I2758383128
asg32
VWeaponPickup
p1472
sg35
VPT2M6.1130008S
p1473
sa(dp1474
g38
I313138863
sg39
(dp1475
g41
VRNG Ninja HCS
p1476
sg43
Nssg44
(lp1477
I1095363701
asg32
VWeaponPickup
p1478
sg35
VPT2M7.1310005S
p1479
sa(dp1480
g38
I4096745987
sg39
(dp1481
g41
VRNG Ninja HCS
p1482
sg43
Nssg44
(lp1483
I2758383128
asg32
VWeaponPickup
p1484
sg35
VPT2M7.1310005S
p1485
sa(dp1486
g32
VPlayerSpawn
p1487
sg39
(dp1488
g41
VRNG Ninja HCS
p1489
sg43
Nssg35
VPT2M7.1310005S
p1490
sa(dp1491
g38
I313138863
sg32
VWeaponDrop
p1492
sg180
I25
sg44
(lp1493
I1095363701
asg35
VPT2M11.2119992S
p1494
sg183
I9
sg184
VP0DT0H0M8.4833S
p1495
sg39
(dp1496
g41
VCLG Snake Bite
p1497
sg43
Nssa(dp1498
g38
I4054937266
sg39
(dp1499
g41
VCLG Snake Bite
p1500
sg43
Nssg44
(lp1501
I2758383128
asg32
VWeaponPickup
p1502
sg35
VPT2M11.213001S
p1503
sa(dp1504
g38
I4054937266
sg32
VWeaponDrop
p1505
sg180
I0
sg44
(lp1506
I2758383128
asg35
VPT2M12.0960003S
p1507
sg183
I0
sg184
VP0DT0H0M0.8833S
p1508
sg39
(dp1509
g41
VCLG Snake Bite
p1510
sg43
Nssa(dp1511
g38
I313138863
sg39
(dp1512
g41
VCLG Snake Bite
p1513
sg43
Nssg44
(lp1514
I1095363701
asg32
VWeaponPickup
p1515
sg35
VPT2M12.0960003S
p1516
sa(dp1517
g195
I3808094875
sg196
I00
sg197
I00
sg198
(dp1518
g41
VRNG Victory X
p1519
sg43
Nssg201
(lp1520
I2758383128
asg203
I00
sg204
I01
sg205
I1
sg206
I0
sg207
I1
sg208
(dp1521
Vy
F10.590159999999999
sVx
F-0.96413760000000004
sVz
F1.4982091200000001
ssg210
(dp1522
Vy
F10.9535389
sVx
F-1.46032882
sVz
F1.4982091200000001
ssg212
I00
sg213
(dp1523
g41
VRammyy
p1524
sg43
Nssg217
(lp1525
sg219
(lp1526
sg221
I00
sg35
VPT2M13.2480008S
p1527
sg32
VDeath
p1528
sg224
I1
sa(dp1529
g38
I723388907
sg32
VWeaponDrop
p1530
sg180
I5
sg44
(lp1531
I89283061
asg35
VPT2M13.2490004S
p1532
sg183
I0
sg184
VP0DT0H0M2.8500S
p1533
sg39
(dp1534
g41
VRammyy
p1535
sg43
Nssa(dp1536
g38
I4096745987
sg32
VWeaponDrop
p1537
sg180
I17
sg44
(lp1538
I2758383128
asg35
VPT2M13.2490004S
p1539
sg183
I7
sg184
VP0DT0H0M32.6667S
p1540
sg39
(dp1541
g41
VRammyy
p1542
sg43
Nssa(dp1543
g38
I313138863
sg32
VWeaponDrop
p1544
sg180
I0
sg44
(lp1545
I1095363701
asg35
VPT2M13.5960008S
p1546
sg183
I0
sg184
VP0DT0H0M1.5000S
p1547
sg39
(dp1548
g41
VCLG Snake Bite
p1549
sg43
Nssa(dp1550
g38
I669296699
sg39
(dp1551
g41
VCLG Snake Bite
p1552
sg43
Nssg44
(lp1553
I2758383128
asg32
VWeaponPickup
p1554
sg35
VPT2M13.5960008S
p1555
sa(dp1556
g195
I313138863
sg196
I00
sg197
I00
sg198
(dp1557
g41
VRNG Commonly
p1558
sg43
Nssg201
(lp1559
I1095363701
asg203
I00
sg204
I01
sg205
I1
sg206
I0
sg207
I1
sg208
(dp1560
Vy
F4.5804452900000001
sVx
F-7.3051495600000003
sVz
F-0.89676789999999995
ssg210
(dp1561
Vy
F5.8161120000000004
sVx
F-8.8305100000000003
sVz
F-0.3649636
ssg212
I00
sg213
(dp1562
g41
VCLG Frosty HCS
p1563
sg43
Nssg217
(lp1564
sg219
(lp1565
(dp1566
g41
VRNG Victory X
p1567
sg43
Nsasg221
I00
sg35
VPT2M19.7480007S
p1568
sg32
VDeath
p1569
sg224
I1
sa(dp1570
g38
I313138863
sg32
VWeaponDrop
p1571
sg180
I19
sg44
(lp1572
I1095363701
asg35
VPT2M19.7500001S
p1573
sg183
I2
sg184
VP0DT0H0M7.9333S
p1574
sg39
(dp1575
g41
VCLG Frosty HCS
p1576
sg43
Nssa(dp1577
g38
I4096745987
sg32
VWeaponDrop
p1578
sg180
I3
sg44
(lp1579
I2758383128
asg35
VPT2M19.7500001S
p1580
sg183
I2
sg184
VP0DT0H0M16.9167S
p1581
sg39
(dp1582
g41
VCLG Frosty HCS
p1583
sg43
Nssa(dp1584
g38
I313138863
sg39
(dp1585
g41
VRammyy
p1586
sg43
Nssg44
(lp1587
I1095363701
asg32
VWeaponPickup
p1588
sg35
VPT2M21.2640013S
p1589
sa(dp1590
g38
I4096745987
sg39
(dp1591
g41
VRammyy
p1592
sg43
Nssg44
(lp1593
I2758383128
asg32
VWeaponPickup
p1594
sg35
VPT2M21.2640013S
p1595
sa(dp1596
g32
VPlayerSpawn
p1597
sg39
(dp1598
g41
VRammyy
p1599
sg43
Nssg35
VPT2M21.2640013S
p1600
sa(dp1601
g38
I2492868984
sg39
(dp1602
g41
VRNG Ninja HCS
p1603
sg43
Nssg44
(lp1604
I2758383128
asg32
VWeaponPickup
p1605
sg35
VPT2M25.8630005S
p1606
sa(dp1607
g195
I313138863
sg196
I00
sg197
I00
sg198
(dp1608
g41
VRNG Penguin HCS
p1609
sg43
Nssg201
(lp1610
I1095363701
asg203
I00
sg204
I01
sg205
I1
sg206
I0
sg207
I1
sg208
(dp1611
Vy
F-4.0655250000000001
sVx
F-5.3318057100000003
sVz
F4.7678084399999996
ssg210
(dp1612
Vy
F-2.05230713
sVx
F-2.5482168199999999
sVz
F1.2470079999999999
ssg212
I00
sg213
(dp1613
g41
VCLG Snake Bite
p1614
sg43
Nssg217
(lp1615
sg219
(lp1616
(dp1617
g41
VRNG Commonly
p1618
sg43
Nsasg221
I00
sg35
VPT2M25.8630005S
p1619
sg32
VDeath
p1620
sg224
I1
sa(dp1621
g38
I669296699
sg32
VWeaponDrop
p1622
sg180
I1
sg44
(lp1623
I2758383128
asg35
VPT2M25.8650001S
p1624
sg183
I0
sg184
VP0DT0H0M11.5667S
p1625
sg39
(dp1626
g41
VCLG Snake Bite
p1627
sg43
Nssa(dp1628
g38
I4096745987
sg32
VWeaponDrop
p1629
sg180
I5
sg44
(lp1630
I2758383128
asg35
VPT2M25.8650001S
p1631
sg183
I3
sg184
VP0DT0H0M27.3500S
p1632
sg39
(dp1633
g41
VCLG Snake Bite
p1634
sg43
Nssa(dp1635
g195
I313138863
sg196
I00
sg197
I00
sg198
(dp1636
g41
VCLG LethuL HCS
p1637
sg43
Nssg201
(lp1638
I1095363701
asg203
I00
sg204
I01
sg205
I1
sg206
I0
sg207
I1
sg208
(dp1639
Vy
F3.2334117899999999
sVx
F-14.941179999999999
sVz
F-0.89674010000000004
ssg210
(dp1640
Vy
F5.5837435700000002
sVx
F-11.9194593
sVz
F-0.49433612799999999
ssg212
I00
sg213
(dp1641
g41
VRNG Commonly
p1642
sg43
Nssg217
(lp1643
sg219
(lp1644
sg221
I00
sg35
VPT2M26.8310002S
p1645
sg32
VDeath
p1646
sg224
I1
sa(dp1647
g38
I313138863
sg32
VWeaponDrop
p1648
sg180
I41
sg44
(lp1649
I1095363701
asg35
VPT2M26.8330007S
p1650
sg183
I14
sg184
VP0DT0H0M12.2500S
p1651
sg39
(dp1652
g41
VRNG Commonly
p1653
sg43
Nssa(dp1654
g38
I4096745987
sg32
VWeaponDrop
p1655
sg180
I0
sg44
(lp1656
I2758383128
asg35
VPT2M26.8330007S
p1657
sg183
I0
sg184
VP0DT0H0M9.0167S
p1658
sg39
(dp1659
g41
VRNG Commonly
p1660
sg43
Nssa(dp1661
g38
I313138863
sg32
VWeaponDrop
p1662
sg180
I0
sg44
(lp1663
I1095363701
asg35
VPT2M26.9949986S
p1664
sg183
I0
sg184
VP0DT0H0M3.1833S
p1665
sg39
(dp1666
g41
VRammyy
p1667
sg43
Nssa(dp1668
g38
I4054937266
sg39
(dp1669
g41
VRammyy
p1670
sg43
Nssg44
(lp1671
I2758383128
asg32
VWeaponPickupPad
p1672
sg35
VPT2M26.9949986S
p1673
sa(dp1674
g38
I4054937266
sg39
(dp1675
g41
VRammyy
p1676
sg43
Nssg44
(lp1677
I2758383128
asg32
VWeaponPickup
p1678
sg35
VPT2M26.9949986S
p1679
sa(dp1680
g38
I2492868984
sg32
VWeaponDrop
p1681
sg180
I0
sg44
(lp1682
I2758383128
asg35
VPT2M26.9980009S
p1683
sg183
I0
sg184
VP0DT0H0M0.9833S
p1684
sg39
(dp1685
g41
VRNG Ninja HCS
p1686
sg43
Nssa(dp1687
g38
I313138863
sg39
(dp1688
g41
VCLG Frosty HCS
p1689
sg43
Nssg44
(lp1690
I1095363701
asg32
VWeaponPickup
p1691
sg35
VPT2M27.764001S
p1692
sa(dp1693
g38
I4096745987
sg39
(dp1694
g41
VCLG Frosty HCS
p1695
sg43
Nssg44
(lp1696
I2758383128
asg32
VWeaponPickup
p1697
sg35
VPT2M27.764001S
p1698
sa(dp1699
g32
VPlayerSpawn
p1700
sg39
(dp1701
g41
VCLG Frosty HCS
p1702
sg43
Nssg35
VPT2M27.764001S
p1703
sa(dp1704
g38
I4096745987
sg32
VWeaponDrop
p1705
sg180
I17
sg44
(lp1706
I2758383128
asg35
VPT2M27.8119994S
p1707
sg183
I9
sg184
VP0DT0H0M36.9833S
p1708
sg39
(dp1709
g41
VCLG LethuL HCS
p1710
sg43
Nssa(dp1711
g38
I424645655
sg39
(dp1712
g41
VCLG LethuL HCS
p1713
sg43
Nssg44
(lp1714
I1327094800
asg32
VWeaponPickup
p1715
sg35
VPT2M27.8119994S
p1716
sa(dp1717
g195
I424645655
sg196
I00
sg197
I00
sg198
(dp1718
g41
VCLG LethuL HCS
p1719
sg43
Nssg201
(lp1720
I1327094800
asg203
I00
sg204
I01
sg205
I1
sg206
I0
sg207
I1
sg208
(dp1721
Vy
F2.87544632
sVx
F-11.5245771
sVz
F-0.89676016599999997
ssg210
(dp1722
Vy
F0.89640653100000001
sVx
F-4.9086150000000002
sVz
F0.30116844199999998
ssg212
I00
sg213
(dp1723
g41
VRNG Penguin HCS
p1724
sg43
Nssg217
(lp1725
sg219
(lp1726
sg221
I01
sg35
VPT2M28.9960005S
p1727
sg32
VDeath
p1728
sg224
I1
sa(dp1729
g32
VMedal
p1730
sg39
(dp1731
g41
VCLG LethuL HCS
p1732
sg43
Nssg321
I3261908037
sg35
VPT2M28.9980005S
p1733
sa(dp1734
g32
VMedal
p1735
sg39
(dp1736
g41
VCLG LethuL HCS
p1737
sg43
Nssg321
I2078758684
sg35
VPT2M28.9980005S
p1738
sa(dp1739
g38
I313138863
sg32
VWeaponDrop
p1740
sg180
I6
sg44
(lp1741
I1095363701
asg35
VPT2M28.9990008S
p1742
sg183
I1
sg184
VP0DT0H0M12.3167S
p1743
sg39
(dp1744
g41
VRNG Penguin HCS
p1745
sg43
Nssa(dp1746
g38
I4096745987
sg32
VWeaponDrop
p1747
sg180
I4
sg44
(lp1748
I2758383128
asg35
VPT2M28.9990008S
p1749
sg183
I2
sg184
VP0DT0H0M15.9333S
p1750
sg39
(dp1751
g41
VRNG Penguin HCS
p1752
sg43
Nssa(dp1753
g38
I313138863
sg32
VWeaponDrop
p1754
sg180
I0
sg44
(lp1755
I1095363701
asg35
VPT2M33.1609988S
p1756
sg183
I0
sg184
VP0DT0H0M0.9500S
p1757
sg39
(dp1758
g41
VRNG Ninja HCS
p1759
sg43
Nssa(dp1760
g38
I2133511419
sg39
(dp1761
g41
VRNG Ninja HCS
p1762
sg43
Nssg44
(lp1763
I2758383128
asg32
VWeaponPickup
p1764
sg35
VPT2M33.162007S
p1765
sa(dp1766
g38
I313138863
sg39
(dp1767
g41
VCLG Snake Bite
p1768
sg43
Nssg44
(lp1769
I1095363701
asg32
VWeaponPickup
p1770
sg35
VPT2M33.8800012S
p1771
sa(dp1772
g38
I4096745987
sg39
(dp1773
g41
VCLG Snake Bite
p1774
sg43
Nssg44
(lp1775
I2758383128
asg32
VWeaponPickup
p1776
sg35
VPT2M33.8800012S
p1777
sa(dp1778
g32
VPlayerSpawn
p1779
sg39
(dp1780
g41
VCLG Snake Bite
p1781
sg43
Nssg35
VPT2M33.8800012S
p1782
sa(dp1783
g195
I424645655
sg196
I00
sg197
I00
sg198
(dp1784
g41
VCLG LethuL HCS
p1785
sg43
Nssg201
(lp1786
I1327094800
asg203
I00
sg204
I01
sg205
I1
sg206
I0
sg207
I1
sg208
(dp1787
Vy
F7.9138545999999996
sVx
F-8.0999879999999997
sVz
F-0.84670089999999998
ssg210
(dp1788
Vy
F17.026451099999999
sVx
F-7.8779287299999998
sVz
F-2.8966171699999999
ssg212
I00
sg213
(dp1789
g41
VRNG Ninja HCS
p1790
sg43
Nssg217
(lp1791
sg219
(lp1792
(dp1793
g41
VRammyy
p1794
sg43
Nsasg221
I01
sg35
VPT2M34.3630007S
p1795
sg32
VDeath
p1796
sg224
I1
sa(dp1797
g32
VMedal
p1798
sg39
(dp1799
g41
VCLG LethuL HCS
p1800
sg43
Nssg321
I3261908037
sg35
VPT2M34.3650005S
p1801
sa(dp1802
g38
I2133511419
sg32
VWeaponDrop
p1803
sg180
I0
sg44
(lp1804
I2758383128
asg35
VPT2M34.3660003S
p1805
sg183
I0
sg184
VP0DT0H0M1.2000S
p1806
sg39
(dp1807
g41
VRNG Ninja HCS
p1808
sg43
Nssa(dp1809
g38
I4096745987
sg32
VWeaponDrop
p1810
sg180
I16
sg44
(lp1811
I2758383128
asg35
VPT2M34.3660003S
p1812
sg183
I7
sg184
VP0DT0H0M24.0833S
p1813
sg39
(dp1814
g41
VRNG Ninja HCS
p1815
sg43
Nssa(dp1816
g38
I313138863
sg39
(dp1817
g41
VRNG Commonly
p1818
sg43
Nssg44
(lp1819
I1095363701
asg32
VWeaponPickup
p1820
sg35
VPT2M34.8460009S
p1821
sa(dp1822
g38
I4096745987
sg39
(dp1823
g41
VRNG Commonly
p1824
sg43
Nssg44
(lp1825
I2758383128
asg32
VWeaponPickup
p1826
sg35
VPT2M34.8470009S
p1827
sa(dp1828
g32
VPlayerSpawn
p1829
sg39
(dp1830
g41
VRNG Commonly
p1831
sg43
Nssg35
VPT2M34.8470009S
p1832
sa(dp1833
g38
I313138863
sg39
(dp1834
g41
VRNG Penguin HCS
p1835
sg43
Nssg44
(lp1836
I1095363701
asg32
VWeaponPickup
p1837
sg35
VPT2M37.0130003S
p1838
sa(dp1839
g38
I4096745987
sg39
(dp1840
g41
VRNG Penguin HCS
p1841
sg43
Nssg44
(lp1842
I2758383128
asg32
VWeaponPickup
p1843
sg35
VPT2M37.0130003S
p1844
sa(dp1845
g32
VPlayerSpawn
p1846
sg39
(dp1847
g41
VRNG Penguin HCS
p1848
sg43
Nssg35
VPT2M37.0130003S
p1849
sa(dp1850
g195
I424645655
sg196
I00
sg197
I00
sg198
(dp1851
g41
VCLG LethuL HCS
p1852
sg43
Nssg201
(lp1853
I1327094800
asg203
I00
sg204
I00
sg205
I2
sg206
I0
sg207
I0
sg208
(dp1854
Vy
F-0.039356450000000001
sVx
F-4.8469540000000002
sVz
F0.30554962200000002
ssg210
(dp1855
Vy
F0.099496589999999996
sVx
F8.0067090000000007
sVz
F0.71337079999999997
ssg212
I00
sg213
(dp1856
g215
g216
ssg217
(lp1857
sg219
(lp1858
sg221
I00
sg35
VPT2M40.5460002S
p1859
sg32
VDeath
p1860
sg224
I1
sa(dp1861
g195
I47178948
sg196
I00
sg197
I00
sg198
(dp1862
g41
VCLG LethuL HCS
p1863
sg43
Nssg201
(lp1864
sg203
I00
sg204
I00
sg205
I2
sg206
I0
sg207
I0
sg208
(dp1865
Vy
F-0.039356450000000001
sVx
F-4.8469540000000002
sVz
F0.30554962200000002
ssg210
(dp1866
Vy
F0.10923155399999999
sVx
F8.0052839999999996
sVz
F0.305445731
ssg212
I00
sg213
(dp1867
g215
g216
ssg217
(lp1868
sg219
(lp1869
sg221
I00
sg35
VPT2M40.5460002S
p1870
sg32
VDeath
p1871
sg224
I1
sa(dp1872
g38
I313138863
sg39
(dp1873
g41
VRNG Ninja HCS
p1874
sg43
Nssg44
(lp1875
I1095363701
asg32
VWeaponPickup
p1876
sg35
VPT2M42.3790008S
p1877
sa(dp1878
g38
I4096745987
sg39
(dp1879
g41
VRNG Ninja HCS
p1880
sg43
Nssg44
(lp1881
I2758383128
asg32
VWeaponPickup
p1882
sg35
VPT2M42.3800009S
p1883
sa(dp1884
g32
VPlayerSpawn
p1885
sg39
(dp1886
g41
VRNG Ninja HCS
p1887
sg43
Nssg35
VPT2M42.3800009S
p1888
sa(dp1889
g195
I3808094875
sg196
I00
sg197
I00
sg198
(dp1890
g41
VRNG Victory X
p1891
sg43
Nssg201
(lp1892
I2758383128
asg203
I00
sg204
I01
sg205
I1
sg206
I0
sg207
I1
sg208
(dp1893
Vy
F0.202366292
sVx
F-1.34608471
sVz
F2.2578332400000001
ssg210
(dp1894
Vy
F-0.30071377799999999
sVx
F0.54466859999999995
sVz
F1.3494749100000001
ssg212
I00
sg213
(dp1895
g41
VCLG LethuL HCS
p1896
sg43
Nssg217
(lp1897
sg219
(lp1898
sg221
I00
sg35
VPT2M43.1130009S
p1899
sg32
VDeath
p1900
sg224
I1
sa(dp1901
g32
VMedal
p1902
sg39
(dp1903
g41
VRNG Victory X
p1904
sg43
Nssg321
I3698887726
sg35
VPT2M43.1130009S
p1905
sa(dp1906
g38
I424645655
sg32
VWeaponDrop
p1907
sg180
I30
sg44
(lp1908
I1327094800
asg35
VPT2M43.1140003S
p1909
sg183
I11
sg184
VP0DT0H0M15.3000S
p1910
sg39
(dp1911
g41
VCLG LethuL HCS
p1912
sg43
Nssa(dp1913
g38
I313138863
sg32
VWeaponDrop
p1914
sg180
I25
sg44
(lp1915
I1095363701
asg35
VPT2M43.1150012S
p1916
sg183
I10
sg184
VP0DT0H0M8.3333S
p1917
sg39
(dp1918
g41
VCLG LethuL HCS
p1919
sg43
Nssa(dp1920
g195
I4096745987
sg196
I00
sg197
I00
sg198
(dp1921
g41
VRNG Commonly
p1922
sg43
Nssg201
(lp1923
I2758383128
asg203
I00
sg204
I01
sg205
I1
sg206
I0
sg207
I1
sg208
(dp1924
Vy
F0.10887445499999999
sVx
F-4.9552060000000004
sVz
F0.30555927799999999
ssg210
(dp1925
Vy
F-0.53818619999999995
sVx
F1.7793933200000001
sVz
F1.6833168300000001
ssg212
I00
sg213
(dp1926
g41
VCLG Snake Bite
p1927
sg43
Nssg217
(lp1928
sg219
(lp1929
(dp1930
g41
VRNG Victory X
p1931
sg43
Nsasg221
I00
sg35
VPT2M44.2790003S
p1932
sg32
VDeath
p1933
sg224
I1
sa(dp1934
g32
VImpulse
p1935
sg39
(dp1936
g41
VRNG Commonly
p1937
sg43
Nssg486
I2556889090
sg35
VPT2M44.280001S
p1938
sa(dp1939
g32
VMedal
p1940
sg39
(dp1941
g41
VRNG Commonly
p1942
sg43
Nssg321
I2838259753
sg35
VPT2M44.280001S
p1943
sa(dp1944
g38
I313138863
sg32
VWeaponDrop
p1945
sg180
I0
sg44
(lp1946
I1095363701
asg35
VPT2M44.2809998S
p1947
sg183
I0
sg184
VP0DT0H0M0.7167S
p1948
sg39
(dp1949
g41
VCLG Snake Bite
p1950
sg43
Nssa(dp1951
g38
I4096745987
sg32
VWeaponDrop
p1952
sg180
I6
sg44
(lp1953
I2758383128
asg35
VPT2M44.2809998S
p1954
sg183
I4
sg184
VP0DT0H0M9.6833S
p1955
sg39
(dp1956
g41
VCLG Snake Bite
p1957
sg43
Nssa(dp1958
g195
I4096745987
sg196
I00
sg197
I00
sg198
(dp1959
g41
VCLG Frosty HCS
p1960
sg43
Nssg201
(lp1961
I2758383128
asg203
I00
sg204
I01
sg205
I1
sg206
I0
sg207
I1
sg208
(dp1962
Vy
F7.4384822799999997
sVx
F-2.0969276400000001
sVz
F3.0453709999999998
ssg210
(dp1963
Vy
F-0.71133506300000005
sVx
F0.51816099999999998
sVz
F1.35102415
ssg212
I00
sg213
(dp1964
g41
VRNG Victory X
p1965
sg43
Nssg217
(lp1966
sg219
(lp1967
(dp1968
g41
VCLG Snake Bite
p1969
sg43
Nsasg221
I00
sg35
VPT2M44.4290146S
p1970
sg32
VDeath
p1971
sg224
I1
sa(dp1972
g38
I3808094875
sg32
VWeaponDrop
p1973
sg180
I32
sg44
(lp1974
I2758383128
asg35
VPT2M44.4309999S
p1975
sg183
I26
sg184
VP0DT0H0M29.2167S
p1976
sg39
(dp1977
g41
VRNG Victory X
p1978
sg43
Nssa(dp1979
g38
I4096745987
sg32
VWeaponDrop
p1980
sg180
I3
sg44
(lp1981
I2758383128
asg35
VPT2M44.4309999S
p1982
sg183
I0
sg184
VP0DT0H0M11.3833S
p1983
sg39
(dp1984
g41
VRNG Victory X
p1985
sg43
Nssa(dp1986
g38
I313138863
sg39
(dp1987
g41
VCLG LethuL HCS
p1988
sg43
Nssg44
(lp1989
I1095363701
asg32
VWeaponPickup
p1990
sg35
VPT2M51.1290008S
p1991
sa(dp1992
g38
I4096745987
sg39
(dp1993
g41
VCLG LethuL HCS
p1994
sg43
Nssg44
(lp1995
I2758383128
asg32
VWeaponPickup
p1996
sg35
VPT2M51.1290008S
p1997
sa(dp1998
g32
VPlayerSpawn
p1999
sg39
(dp2000
g41
VCLG LethuL HCS
p2001
sg43
Nssg35
VPT2M51.1290008S
p2002
sa(dp2003
g38
I313138863
sg39
(dp2004
g41
VCLG Snake Bite
p2005
sg43
Nssg44
(lp2006
I1095363701
asg32
VWeaponPickup
p2007
sg35
VPT2M52.2960009S
p2008
sa(dp2009
g38
I4096745987
sg39
(dp2010
g41
VCLG Snake Bite
p2011
sg43
Nssg44
(lp2012
I2758383128
asg32
VWeaponPickup
p2013
sg35
VPT2M52.2970001S
p2014
sa(dp2015
g32
VPlayerSpawn
p2016
sg39
(dp2017
g41
VCLG Snake Bite
p2018
sg43
Nssg35
VPT2M52.2970001S
p2019
sa(dp2020
g38
I313138863
sg39
(dp2021
g41
VRNG Victory X
p2022
sg43
Nssg44
(lp2023
I1095363701
asg32
VWeaponPickup
p2024
sg35
VPT2M52.4460005S
p2025
sa(dp2026
g38
I4096745987
sg39
(dp2027
g41
VRNG Victory X
p2028
sg43
Nssg44
(lp2029
I2758383128
asg32
VWeaponPickup
p2030
sg35
VPT2M52.4460005S
p2031
sa(dp2032
g32
VPlayerSpawn
p2033
sg39
(dp2034
g41
VRNG Victory X
p2035
sg43
Nssg35
VPT2M52.4460005S
p2036
sa(dp2037
g195
I313138863
sg196
I00
sg197
I00
sg198
(dp2038
g41
VRNG Commonly
p2039
sg43
Nssg201
(lp2040
I1095363701
asg203
I00
sg204
I01
sg205
I1
sg206
I0
sg207
I1
sg208
(dp2041
Vy
F1.31681585
sVx
F1.9970650700000001
sVz
F0.87063599999999997
ssg210
(dp2042
Vy
F2.67653322
sVx
F-0.83208543099999999
sVz
F0.0239233077
ssg212
I00
sg213
(dp2043
g41
VCLG Frosty HCS
p2044
sg43
Nssg217
(lp2045
sg219
(lp2046
(dp2047
g41
VRNG Ninja HCS
p2048
sg43
Nsa(dp2049
g41
VRNG Penguin HCS
p2050
sg43
Nsasg221
I00
sg35
VPT2M53.0290012S
p2051
sg32
VDeath
p2052
sg224
I1
sa(dp2053
g38
I313138863
sg32
VWeaponDrop
p2054
sg180
I5
sg44
(lp2055
I1095363701
asg35
VPT2M53.0310001S
p2056
sg183
I1
sg184
VP0DT0H0M10.0333S
p2057
sg39
(dp2058
g41
VCLG Frosty HCS
p2059
sg43
Nssa(dp2060
g38
I4096745987
sg32
VWeaponDrop
p2061
sg180
I2
sg44
(lp2062
I2758383128
asg35
VPT2M53.0320007S
p2063
sg183
I1
sg184
VP0DT0H0M15.2333S
p2064
sg39
(dp2065
g41
VCLG Frosty HCS
p2066
sg43
Nssa(dp2067
g38
I4096745987
sg32
VWeaponDrop
p2068
sg180
I0
sg44
(lp2069
I2758383128
asg35
VPT2M53.4939992S
p2070
sg183
I0
sg184
VP0DT0H0M0.4500S
p2071
sg39
(dp2072
g41
VCLG Snake Bite
p2073
sg43
Nssa(dp2074
g38
I4108759423
sg39
(dp2075
g41
VCLG Snake Bite
p2076
sg43
Nssg44
(lp2077
I2758383128
asg32
VWeaponPickup
p2078
sg35
VPT2M53.4939992S
p2079
sa(dp2080
g195
I2460880172
sg196
I00
sg197
I00
sg198
(dp2081
g41
VCLG Frosty HCS
p2082
sg43
Nssg201
(lp2083
sg203
I00
sg204
I01
sg205
I1
sg206
I0
sg207
I1
sg208
(dp2084
Vy
F4.0294449999999999
sVx
F-0.67651689999999998
sVz
F-0.18845255699999999
ssg210
(dp2085
Vy
F-0.49429070000000003
sVx
F-0.42311853199999999
sVz
F0.30554962200000002
ssg212
I00
sg213
(dp2086
g41
VRNG Ninja HCS
p2087
sg43
Nssg217
(lp2088
sg219
(lp2089
sg221
I00
sg35
VPT2M53.6780005S
p2090
sg32
VDeath
p2091
sg224
I1
sa(dp2092
g32
VMedal
p2093
sg39
(dp2094
g41
VCLG Frosty HCS
p2095
sg43
Nssg321
I285057226
sg35
VPT2M53.6800005S
p2096
sa(dp2097
g38
I313138863
sg32
VWeaponDrop
p2098
sg180
I19
sg44
(lp2099
I1095363701
asg35
VPT2M53.6810005S
p2100
sg183
I2
sg184
VP0DT0H0M5.1000S
p2101
sg39
(dp2102
g41
VRNG Ninja HCS
p2103
sg43
Nssa(dp2104
g38
I4096745987
sg32
VWeaponDrop
p2105
sg180
I2
sg44
(lp2106
I2758383128
asg35
VPT2M53.6810005S
p2107
sg183
I0
sg184
VP0DT0H0M6.2000S
p2108
sg39
(dp2109
g41
VRNG Ninja HCS
p2110
sg43
Nssa(dp2111
g195
I4096745987
sg196
I00
sg197
I00
sg198
(dp2112
g41
VRNG Victory X
p2113
sg43
Nssg201
(lp2114
I2758383128
asg203
I00
sg204
I01
sg205
I1
sg206
I0
sg207
I1
sg208
(dp2115
Vy
F4.7756360000000004
sVx
F-17.441377599999999
sVz
F1.5012302399999999
ssg210
(dp2116
Vy
F11.5865793
sVx
F-14.066171600000001
sVz
F2.5524606699999999
ssg212
I00
sg213
(dp2117
g41
VRammyy
p2118
sg43
Nssg217
(lp2119
sg219
(lp2120
(dp2121
g41
VRNG Penguin HCS
p2122
sg43
Nsasg221
I00
sg35
VPT2M56.3280002S
p2123
sg32
VDeath
p2124
sg224
I1
sa(dp2125
g32
VImpulse
p2126
sg39
(dp2127
g41
VRNG Victory X
p2128
sg43
Nssg486
I2556889090
sg35
VPT2M56.3290009S
p2129
sa(dp2130
g32
VMedal
p2131
sg39
(dp2132
g41
VRNG Victory X
p2133
sg43
Nssg321
I2838259753
sg35
VPT2M56.3290009S
p2134
sa(dp2135
g38
I4054937266
sg32
VWeaponDrop
p2136
sg180
I8
sg44
(lp2137
I2758383128
asg35
VPT2M56.3300004S
p2138
sg183
I7
sg184
VP0DT0H0M24.6000S
p2139
sg39
(dp2140
g41
VRammyy
p2141
sg43
Nssa(dp2142
g38
I4096745987
sg32
VWeaponDrop
p2143
sg180
I5
sg44
(lp2144
I2758383128
asg35
VPT2M56.3300004S
p2145
sg183
I4
sg184
VP0DT0H0M7.2833S
p2146
sg39
(dp2147
g41
VRammyy
p2148
sg43
Nssa(dp2149
g38
I4096745987
sg32
VWeaponDrop
p2150
sg180
I14
sg44
(lp2151
I2758383128
asg35
VPT2M57.4099985S
p2152
sg183
I8
sg184
VP0DT0H0M16.8333S
p2153
sg39
(dp2154
g41
VRNG Penguin HCS
p2155
sg43
Nssa(dp2156
g38
I424645655
sg39
(dp2157
g41
VRNG Penguin HCS
p2158
sg43
Nssg44
(lp2159
I1327094800
asg32
VWeaponPickup
p2160
sg35
VPT2M57.4110007S
p2161
sa(dp2162
g38
I313138863
sg32
VWeaponDrop
p2163
sg180
I0
sg44
(lp2164
I1095363701
asg35
VPT3M0.1600024S
p2165
sg183
I0
sg184
VP0DT0H0M0.9833S
p2166
sg39
(dp2167
g41
VRNG Victory X
p2168
sg43
Nssa(dp2169
g38
I4054937266
sg39
(dp2170
g41
VRNG Victory X
p2171
sg43
Nssg44
(lp2172
I2758383128
asg32
VWeaponPickup
p2173
sg35
VPT3M0.1610114S
p2174
sa(dp2175
g38
I313138863
sg39
(dp2176
g41
VCLG Frosty HCS
p2177
sg43
Nssg44
(lp2178
I1095363701
asg32
VWeaponPickup
p2179
sg35
VPT3M1.0460179S
p2180
sa(dp2181
g38
I4096745987
sg39
(dp2182
g41
VCLG Frosty HCS
p2183
sg43
Nssg44
(lp2184
I2758383128
asg32
VWeaponPickup
p2185
sg35
VPT3M1.0460179S
p2186
sa(dp2187
g32
VPlayerSpawn
p2188
sg39
(dp2189
g41
VCLG Frosty HCS
p2190
sg43
Nssg35
VPT3M1.0460179S
p2191
sa(dp2192
g38
I313138863
sg39
(dp2193
g41
VRNG Ninja HCS
p2194
sg43
Nssg44
(lp2195
I1095363701
asg32
VWeaponPickup
p2196
sg35
VPT3M1.6950009S
p2197
sa(dp2198
g38
I4096745987
sg39
(dp2199
g41
VRNG Ninja HCS
p2200
sg43
Nssg44
(lp2201
I2758383128
asg32
VWeaponPickup
p2202
sg35
VPT3M1.6960011S
p2203
sa(dp2204
g32
VPlayerSpawn
p2205
sg39
(dp2206
g41
VRNG Ninja HCS
p2207
sg43
Nssg35
VPT3M1.6960011S
p2208
sa(dp2209
g195
I4106030681
sg196
I00
sg197
I00
sg198
(dp2210
g41
VCLG LethuL HCS
p2211
sg43
Nssg201
(lp2212
sg203
I00
sg204
I01
sg205
I1
sg206
I0
sg207
I1
sg208
(dp2213
Vy
F22.574007000000002
sVx
F3.2361812599999999
sVz
F-0.8966385
ssg210
(dp2214
Vy
F12.3837051
sVx
F-2.8874692899999999
sVz
F1.1432599999999999
ssg212
I00
sg213
(dp2215
g41
VRNG Commonly
p2216
sg43
Nssg217
(lp2217
sg219
(lp2218
(dp2219
g41
VCLG Snake Bite
p2220
sg43
Nsasg221
I00
sg35
VPT3M2.0620008S
p2221
sg32
VDeath
p2222
sg224
I1
sa(dp2223
g38
I313138863
sg32
VWeaponDrop
p2224
sg180
I12
sg44
(lp2225
I1095363701
asg35
VPT3M2.0630002S
p2226
sg183
I1
sg184
VP0DT0H0M15.5167S
p2227
sg39
(dp2228
g41
VRNG Commonly
p2229
sg43
Nssa(dp2230
g38
I4096745987
sg32
VWeaponDrop
p2231
sg180
I2
sg44
(lp2232
I2758383128
asg35
VPT3M2.0630002S
p2233
sg183
I1
sg184
VP0DT0H0M11.7000S
p2234
sg39
(dp2235
g41
VRNG Commonly
p2236
sg43
Nssa(dp2237
g38
I313138863
sg32
VWeaponDrop
p2238
sg180
I0
sg44
(lp2239
I1095363701
asg35
VPT3M2.9099988S
p2240
sg183
I0
sg184
VP0DT0H0M0.9000S
p2241
sg39
(dp2242
g41
VRNG Ninja HCS
p2243
sg43
Nssa(dp2244
g38
I723388907
sg39
(dp2245
g41
VRNG Ninja HCS
p2246
sg43
Nssg44
(lp2247
I89283061
asg32
VWeaponPickup
p2248
sg35
VPT3M2.9099988S
p2249
sa(dp2250
g38
I313138863
sg39
(dp2251
g41
VRammyy
p2252
sg43
Nssg44
(lp2253
I1095363701
asg32
VWeaponPickup
p2254
sg35
VPT3M4.3450005S
p2255
sa(dp2256
g38
I4096745987
sg39
(dp2257
g41
VRammyy
p2258
sg43
Nssg44
(lp2259
I2758383128
asg32
VWeaponPickup
p2260
sg35
VPT3M4.3460006S
p2261
sa(dp2262
g32
VPlayerSpawn
p2263
sg39
(dp2264
g41
VRammyy
p2265
sg43
Nssg35
VPT3M4.3460006S
p2266
sa(dp2267
g195
I424645655
sg196
I00
sg197
I00
sg198
(dp2268
g41
VRNG Penguin HCS
p2269
sg43
Nssg201
(lp2270
I1327094800
asg203
I00
sg204
I01
sg205
I1
sg206
I0
sg207
I1
sg208
(dp2271
Vy
F2.2496912500000001
sVx
F2.5750176900000001
sVz
F1.6517388799999999
ssg210
(dp2272
Vy
F-2.2367224700000001
sVx
F5.9293899999999997
sVz
F1.9378150000000001
ssg212
I00
sg213
(dp2273
g41
VCLG Snake Bite
p2274
sg43
Nssg217
(lp2275
sg219
(lp2276
sg221
I01
sg35
VPT3M5.461S
p2277
sg32
VDeath
p2278
sg224
I1
sa(dp2279
g32
VMedal
p2280
sg39
(dp2281
g41
VRNG Penguin HCS
p2282
sg43
Nssg321
I3261908037
sg35
VPT3M5.4640002S
p2283
sa(dp2284
g38
I313138863
sg32
VWeaponDrop
p2285
sg180
I2
sg44
(lp2286
I1095363701
asg35
VPT3M5.4640002S
p2287
sg183
I0
sg184
VP0DT0H0M3.1333S
p2288
sg39
(dp2289
g41
VCLG Snake Bite
p2290
sg43
Nssa(dp2291
g38
I4108759423
sg32
VWeaponDrop
p2292
sg180
I7
sg44
(lp2293
I2758383128
asg35
VPT3M5.4640002S
p2294
sg183
I3
sg184
VP0DT0H0M9.5833S
p2295
sg39
(dp2296
g41
VCLG Snake Bite
p2297
sg43
Nssa(dp2298
g38
I313138863
sg39
(dp2299
g41
VRNG Commonly
p2300
sg43
Nssg44
(lp2301
I1095363701
asg32
VWeaponPickup
p2302
sg35
VPT3M10.0780006S
p2303
sa(dp2304
g38
I4096745987
sg39
(dp2305
g41
VRNG Commonly
p2306
sg43
Nssg44
(lp2307
I2758383128
asg32
VWeaponPickup
p2308
sg35
VPT3M10.0790009S
p2309
sa(dp2310
g32
VPlayerSpawn
p2311
sg39
(dp2312
g41
VRNG Commonly
p2313
sg43
Nssg35
VPT3M10.0790009S
p2314
sa(dp2315
g195
I4096745987
sg196
I00
sg197
I00
sg198
(dp2316
g41
VRNG Victory X
p2317
sg43
Nssg201
(lp2318
I2758383128
asg203
I00
sg204
I01
sg205
I1
sg206
I0
sg207
I1
sg208
(dp2319
Vy
F10.5093231
sVx
F-9.6332120000000003
sVz
F2.83422017
ssg210
(dp2320
Vy
F26.473541300000001
sVx
F-9.0053300000000007
sVz
F1.503374
ssg212
I00
sg213
(dp2321
g41
VCLG LethuL HCS
p2322
sg43
Nssg217
(lp2323
sg219
(lp2324
sg221
I01
sg35
VPT3M11.2949999S
p2325
sg32
VDeath
p2326
sg224
I1
sa(dp2327
g32
VImpulse
p2328
sg39
(dp2329
g41
VRNG Victory X
p2330
sg43
Nssg486
I3174430457
sg35
VPT3M11.2960004S
p2331
sa(dp2332
g32
VMedal
p2333
sg39
(dp2334
g41
VRNG Victory X
p2335
sg43
Nssg321
I3653057799
sg35
VPT3M11.2969999S
p2336
sa(dp2337
g38
I313138863
sg32
VWeaponDrop
p2338
sg180
I0
sg44
(lp2339
I1095363701
asg35
VPT3M11.298S
p2340
sg183
I0
sg184
VP0DT0H0M0.7333S
p2341
sg39
(dp2342
g41
VCLG LethuL HCS
p2343
sg43
Nssa(dp2344
g38
I4096745987
sg32
VWeaponDrop
p2345
sg180
I9
sg44
(lp2346
I2758383128
asg35
VPT3M11.298S
p2347
sg183
I5
sg184
VP0DT0H0M19.4333S
p2348
sg39
(dp2349
g41
VCLG LethuL HCS
p2350
sg43
Nssa(dp2351
g38
I313138863
sg39
(dp2352
g41
VCLG Snake Bite
p2353
sg43
Nssg44
(lp2354
I1095363701
asg32
VWeaponPickup
p2355
sg35
VPT3M13.4780013S
p2356
sa(dp2357
g38
I4096745987
sg39
(dp2358
g41
VCLG Snake Bite
p2359
sg43
Nssg44
(lp2360
I2758383128
asg32
VWeaponPickup
p2361
sg35
VPT3M13.4780013S
p2362
sa(dp2363
g32
VPlayerSpawn
p2364
sg39
(dp2365
g41
VCLG Snake Bite
p2366
sg43
Nssg35
VPT3M13.479001S
p2367
sa(dp2368
g195
I4106030681
sg196
I00
sg197
I00
sg198
(dp2369
g41
VRNG Victory X
p2370
sg43
Nssg201
(lp2371
sg203
I00
sg204
I00
sg205
I2
sg206
I0
sg207
I0
sg208
(dp2372
Vy
F10.3686924
sVx
F-9.206664
sVz
F2.8343095800000002
ssg210
(dp2373
Vy
F27.5284519
sVx
F-11.616913800000001
sVz
F1.50311935
ssg212
I00
sg213
(dp2374
g215
g216
ssg217
(lp2375
sg219
(lp2376
sg221
I00
sg35
VPT3M14.4440002S
p2377
sg32
VDeath
p2378
sg224
I1
sa(dp2379
g195
I4096745987
sg196
I00
sg197
I00
sg198
(dp2380
g41
VCLG Frosty HCS
p2381
sg43
Nssg201
(lp2382
I2758383128
asg203
I00
sg204
I01
sg205
I1
sg206
I0
sg207
I1
sg208
(dp2383
Vy
F8.9073840000000004
sVx
F1.3060309999999999
sVz
F2.4842858300000001
ssg210
(dp2384
Vy
F5.4855539999999996
sVx
F-10.75135
sVz
F1.52820516
ssg212
I00
sg213
(dp2385
g41
VRNG Victory X
p2386
sg43
Nssg217
(lp2387
sg219
(lp2388
sg221
I01
sg35
VPT3M17.4780007S
p2389
sg32
VDeath
p2390
sg224
I1
sa(dp2391
g32
VMedal
p2392
sg39
(dp2393
g41
VCLG Frosty HCS
p2394
sg43
Nssg321
I3261908037
sg35
VPT3M17.4800001S
p2395
sa(dp2396
g38
I4054937266
sg32
VWeaponDrop
p2397
sg180
I0
sg44
(lp2398
I2758383128
asg35
VPT3M17.4800001S
p2399
sg183
I0
sg184
VP0DT0H0M3.6833S
p2400
sg39
(dp2401
g41
VRNG Victory X
p2402
sg43
Nssa(dp2403
g38
I4096745987
sg32
VWeaponDrop
p2404
sg180
I13
sg44
(lp2405
I2758383128
asg35
VPT3M17.4800001S
p2406
sg183
I10
sg184
VP0DT0H0M20.3667S
p2407
sg39
(dp2408
g41
VRNG Victory X
p2409
sg43
Nssa(dp2410
g195
I424645655
sg196
I00
sg197
I00
sg198
(dp2411
g41
VRNG Penguin HCS
p2412
sg43
Nssg201
(lp2413
I1327094800
asg203
I00
sg204
I01
sg205
I1
sg206
I0
sg207
I1
sg208
(dp2414
Vy
F7.4102499999999996
sVx
F-2.2283406299999999
sVz
F1.49790621
ssg210
(dp2415
Vy
F10.948474900000001
sVx
F3.6904807100000001
sVz
F1.4982309300000001
ssg212
I00
sg213
(dp2416
g41
VCLG Frosty HCS
p2417
sg43
Nssg217
(lp2418
sg219
(lp2419
(dp2420
g41
VRNG Ninja HCS
p2421
sg43
Nsasg221
I01
sg35
VPT3M19.0610004S
p2422
sg32
VDeath
p2423
sg224
I1
sa(dp2424
g32
VMedal
p2425
sg39
(dp2426
g41
VRNG Penguin HCS
p2427
sg43
Nssg321
I3261908037
sg35
VPT3M19.063S
p2428
sa(dp2429
g38
I313138863
sg32
VWeaponDrop
p2430
sg180
I0
sg44
(lp2431
I1095363701
asg35
VPT3M19.063S
p2432
sg183
I0
sg184
VP0DT0H0M1.2667S
p2433
sg39
(dp2434
g41
VCLG Frosty HCS
p2435
sg43
Nssa(dp2436
g38
I4096745987
sg32
VWeaponDrop
p2437
sg180
I11
sg44
(lp2438
I2758383128
asg35
VPT3M19.063S
p2439
sg183
I9
sg184
VP0DT0H0M16.7500S
p2440
sg39
(dp2441
g41
VCLG Frosty HCS
p2442
sg43
Nssa(dp2443
g38
I313138863
sg39
(dp2444
g41
VCLG LethuL HCS
p2445
sg43
Nssg44
(lp2446
I1095363701
asg32
VWeaponPickup
p2447
sg35
VPT3M19.3110004S
p2448
sa(dp2449
g38
I4096745987
sg39
(dp2450
g41
VCLG LethuL HCS
p2451
sg43
Nssg44
(lp2452
I2758383128
asg32
VWeaponPickup
p2453
sg35
VPT3M19.3120008S
p2454
sa(dp2455
g32
VPlayerSpawn
p2456
sg39
(dp2457
g41
VCLG LethuL HCS
p2458
sg43
Nssg35
VPT3M19.3120008S
p2459
sa(dp2460
g38
I313138863
sg32
VWeaponDrop
p2461
sg180
I9
sg44
(lp2462
I1095363701
asg35
VPT3M19.6100005S
p2463
sg183
I1
sg184
VP0DT0H0M3.7167S
p2464
sg39
(dp2465
g41
VRNG Penguin HCS
p2466
sg43
Nssa(dp2467
g38
I669296699
sg39
(dp2468
g41
VRNG Penguin HCS
p2469
sg43
Nssg44
(lp2470
I2758383128
asg32
VWeaponPickupPad
p2471
sg35
VPT3M19.6100005S
p2472
sa(dp2473
g38
I669296699
sg39
(dp2474
g41
VRNG Penguin HCS
p2475
sg43
Nssg44
(lp2476
I2758383128
asg32
VWeaponPickup
p2477
sg35
VPT3M19.6100005S
p2478
sa(dp2479
g195
I4096745987
sg196
I00
sg197
I00
sg198
(dp2480
g41
VRammyy
p2481
sg43
Nssg201
(lp2482
I2758383128
asg203
I00
sg204
I01
sg205
I1
sg206
I0
sg207
I1
sg208
(dp2483
Vy
F12.76586
sVx
F4.2793364499999997
sVz
F1.7978909000000001
ssg210
(dp2484
Vy
F10.706827199999999
sVx
F2.9959895599999999
sVz
F1.498219
ssg212
I00
sg213
(dp2485
g41
VRNG Ninja HCS
p2486
sg43
Nssg217
(lp2487
sg219
(lp2488
(dp2489
g41
VCLG Snake Bite
p2490
sg43
Nsasg221
I01
sg35
VPT3M20.9770008S
p2491
sg32
VDeath
p2492
sg224
I1
sa(dp2493
g32
VMedal
p2494
sg39
(dp2495
g41
VRammyy
p2496
sg43
Nssg321
I3261908037
sg35
VPT3M20.9790004S
p2497
sa(dp2498
g38
I723388907
sg32
VWeaponDrop
p2499
sg180
I30
sg44
(lp2500
I89283061
asg35
VPT3M20.9800008S
p2501
sg183
I16
sg184
VP0DT0H0M11.6667S
p2502
sg39
(dp2503
g41
VRNG Ninja HCS
p2504
sg43
Nssa(dp2505
g38
I4096745987
sg32
VWeaponDrop
p2506
sg180
I0
sg44
(lp2507
I2758383128
asg35
VPT3M20.9800008S
p2508
sg183
I0
sg184
VP0DT0H0M6.7167S
p2509
sg39
(dp2510
g41
VRNG Ninja HCS
p2511
sg43
Nssa(dp2512
g195
I4096745987
sg196
I00
sg197
I00
sg198
(dp2513
g41
VRNG Commonly
p2514
sg43
Nssg201
(lp2515
I2758383128
asg203
I00
sg204
I01
sg205
I1
sg206
I0
sg207
I1
sg208
(dp2516
Vy
F-1.1189041099999999
sVx
F1.5732896300000001
sVz
F1.3165093699999999
ssg210
(dp2517
Vy
F12.9633436
sVx
F4.1367789999999998
sVz
F1.8148403200000001
ssg212
I00
sg213
(dp2518
g41
VRammyy
p2519
sg43
Nssg217
(lp2520
sg219
(lp2521
(dp2522
g41
VRNG Ninja HCS
p2523
sg43
Nsasg221
I00
sg35
VPT3M21.0940004S
p2524
sg32
VDeath
p2525
sg224
I1
sa(dp2526
g38
I313138863
sg32
VWeaponDrop
p2527
sg180
I0
sg44
(lp2528
I1095363701
asg35
VPT3M21.0959999S
p2529
sg183
I0
sg184
VP0DT0H0M1.4333S
p2530
sg39
(dp2531
g41
VRammyy
p2532
sg43
Nssa(dp2533
g38
I4096745987
sg32
VWeaponDrop
p2534
sg180
I4
sg44
(lp2535
I2758383128
asg35
VPT3M21.0959999S
p2536
sg183
I3
sg184
VP0DT0H0M15.3167S
p2537
sg39
(dp2538
g41
VRammyy
p2539
sg43
Nssa(dp2540
g38
I313138863
sg39
(dp2541
g41
VRNG Victory X
p2542
sg43
Nssg44
(lp2543
I1095363701
asg32
VWeaponPickup
p2544
sg35
VPT3M25.4950054S
p2545
sa(dp2546
g38
I4096745987
sg39
(dp2547
g41
VRNG Victory X
p2548
sg43
Nssg44
(lp2549
I2758383128
asg32
VWeaponPickup
p2550
sg35
VPT3M25.4950054S
p2551
sa(dp2552
g32
VPlayerSpawn
p2553
sg39
(dp2554
g41
VRNG Victory X
p2555
sg43
Nssg35
VPT3M25.4950054S
p2556
sa(dp2557
g38
I313138863
sg39
(dp2558
g41
VCLG Frosty HCS
p2559
sg43
Nssg44
(lp2560
I1095363701
asg32
VWeaponPickup
p2561
sg35
VPT3M27.0770009S
p2562
sa(dp2563
g38
I4096745987
sg39
(dp2564
g41
VCLG Frosty HCS
p2565
sg43
Nssg44
(lp2566
I2758383128
asg32
VWeaponPickup
p2567
sg35
VPT3M27.0780055S
p2568
sa(dp2569
g32
VPlayerSpawn
p2570
sg39
(dp2571
g41
VCLG Frosty HCS
p2572
sg43
Nssg35
VPT3M27.0780055S
p2573
sa(dp2574
g38
I313138863
sg39
(dp2575
g41
VRNG Ninja HCS
p2576
sg43
Nssg44
(lp2577
I1095363701
asg32
VWeaponPickup
p2578
sg35
VPT3M28.9940005S
p2579
sa(dp2580
g38
I4096745987
sg39
(dp2581
g41
VRNG Ninja HCS
p2582
sg43
Nssg44
(lp2583
I2758383128
asg32
VWeaponPickup
p2584
sg35
VPT3M28.9940005S
p2585
sa(dp2586
g32
VPlayerSpawn
p2587
sg39
(dp2588
g41
VRNG Ninja HCS
p2589
sg43
Nssg35
VPT3M28.9940005S
p2590
sa(dp2591
g38
I313138863
sg39
(dp2592
g41
VRammyy
p2593
sg43
Nssg44
(lp2594
I1095363701
asg32
VWeaponPickup
p2595
sg35
VPT3M29.1110013S
p2596
sa(dp2597
g38
I4096745987
sg39
(dp2598
g41
VRammyy
p2599
sg43
Nssg44
(lp2600
I2758383128
asg32
VWeaponPickup
p2601
sg35
VPT3M29.1110013S
p2602
sa(dp2603
g32
VPlayerSpawn
p2604
sg39
(dp2605
g41
VRammyy
p2606
sg43
Nssg35
VPT3M29.1110013S
p2607
sa(dp2608
g195
I4106030681
sg196
I00
sg197
I00
sg198
(dp2609
g41
VCLG LethuL HCS
p2610
sg43
Nssg201
(lp2611
sg203
I00
sg204
I01
sg205
I1
sg206
I0
sg207
I1
sg208
(dp2612
Vy
F-0.87677510000000003
sVx
F1.9135673
sVz
F1.3165093699999999
ssg210
(dp2613
Vy
F6.4294370000000001
sVx
F3.49795532
sVz
F1.69470191
ssg212
I00
sg213
(dp2614
g41
VRNG Penguin HCS
p2615
sg43
Nssg217
(lp2616
sg219
(lp2617
(dp2618
g41
VCLG Snake Bite
p2619
sg43
Nsasg221
I00
sg35
VPT3M29.1600002S
p2620
sg32
VDeath
p2621
sg224
I1
sa(dp2622
g38
I669296699
sg32
VWeaponDrop
p2623
sg180
I0
sg44
(lp2624
I2758383128
asg35
VPT3M29.162S
p2625
sg183
I0
sg184
VP0DT0H0M1.2333S
p2626
sg39
(dp2627
g41
VRNG Penguin HCS
p2628
sg43
Nssa(dp2629
g38
I424645655
sg32
VWeaponDrop
p2630
sg180
I48
sg44
(lp2631
I1327094800
asg35
VPT3M29.162S
p2632
sg183
I26
sg184
VP0DT0H0M30.3667S
p2633
sg39
(dp2634
g41
VRNG Penguin HCS
p2635
sg43
Nssa(dp2636
g195
I4096745987
sg196
I00
sg197
I00
sg198
(dp2637
g41
VCLG LethuL HCS
p2638
sg43
Nssg201
(lp2639
I2758383128
asg203
I00
sg204
I01
sg205
I1
sg206
I0
sg207
I1
sg208
(dp2640
Vy
F0.21384377800000001
sVx
F2.1540575
sVz
F1.4789920999999999
ssg210
(dp2641
Vy
F9.6859470000000005
sVx
F3.1231217400000002
sVz
F1.4982211599999999
ssg212
I00
sg213
(dp2642
g41
VRNG Commonly
p2643
sg43
Nssg217
(lp2644
sg219
(lp2645
sg221
I00
sg35
VPT3M30.1940005S
p2646
sg32
VDeath
p2647
sg224
I1
sa(dp2648
g32
VImpulse
p2649
sg39
(dp2650
g41
VCLG LethuL HCS
p2651
sg43
Nssg486
I2556889090
sg35
VPT3M30.1940005S
p2652
sa(dp2653
g32
VMedal
p2654
sg39
(dp2655
g41
VCLG LethuL HCS
p2656
sg43
Nssg321
I2838259753
sg35
VPT3M30.1940005S
p2657
sa(dp2658
g32
VMedal
p2659
sg39
(dp2660
g41
VCLG Snake Bite
p2661
sg43
Nssg321
I824733727
sg35
VPT3M30.1949999S
p2662
sa(dp2663
g32
VMedal
p2664
sg39
(dp2665
g41
VCLG LethuL HCS
p2666
sg43
Nssg321
I2078758684
sg35
VPT3M30.1949999S
p2667
sa(dp2668
g38
I313138863
sg32
VWeaponDrop
p2669
sg180
I0
sg44
(lp2670
I1095363701
asg35
VPT3M30.1960002S
p2671
sg183
I0
sg184
VP0DT0H0M8.0833S
p2672
sg39
(dp2673
g41
VRNG Commonly
p2674
sg43
Nssa(dp2675
g38
I4096745987
sg32
VWeaponDrop
p2676
sg180
I11
sg44
(lp2677
I2758383128
asg35
VPT3M30.1960002S
p2678
sg183
I8
sg184
VP0DT0H0M12.0333S
p2679
sg39
(dp2680
g41
VRNG Commonly
p2681
sg43
Nssa(dp2682
g195
I4106030681
sg196
I00
sg197
I00
sg198
(dp2683
g41
VRNG Commonly
p2684
sg43
Nssg201
(lp2685
sg203
I00
sg204
I01
sg205
I1
sg206
I0
sg207
I1
sg208
(dp2686
Vy
F9.6445900000000009
sVx
F2.8455312300000002
sVz
F1.4399757399999999
ssg210
(dp2687
Vy
F13.4741278
sVx
F4.0238046599999997
sVz
F2.4338176300000001
ssg212
I00
sg213
(dp2688
g41
VCLG Snake Bite
p2689
sg43
Nssg217
(lp2690
sg219
(lp2691
(dp2692
g41
VRNG Penguin HCS
p2693
sg43
Nsasg221
I00
sg35
VPT3M30.293S
p2694
sg32
VDeath
p2695
sg224
I1
sa(dp2696
g38
I313138863
sg32
VWeaponDrop
p2697
sg180
I0
sg44
(lp2698
I1095363701
asg35
VPT3M30.2950005S
p2699
sg183
I0
sg184
VP0DT0H0M0.9333S
p2700
sg39
(dp2701
g41
VCLG Snake Bite
p2702
sg43
Nssa(dp2703
g38
I4096745987
sg32
VWeaponDrop
p2704
sg180
I12
sg44
(lp2705
I2758383128
asg35
VPT3M30.2950005S
p2706
sg183
I6
sg184
VP0DT0H0M15.8833S
p2707
sg39
(dp2708
g41
VCLG Snake Bite
p2709
sg43
Nssa(dp2710
g38
I313138863
sg32
VWeaponDrop
p2711
sg180
I0
sg44
(lp2712
I1095363701
asg35
VPT3M31.5420089S
p2713
sg183
I0
sg184
VP0DT0H0M1.5667S
p2714
sg39
(dp2715
g41
VCLG Frosty HCS
p2716
sg43
Nssa(dp2717
g38
I3808094875
sg39
(dp2718
g41
VCLG Frosty HCS
p2719
sg43
Nssg44
(lp2720
I2758383128
asg32
VWeaponPickup
p2721
sg35
VPT3M31.5420089S
p2722
sa(dp2723
g38
I4096745987
sg32
VWeaponDrop
p2724
sg180
I0
sg44
(lp2725
I2758383128
asg35
VPT3M31.9259994S
p2726
sg183
I0
sg184
VP0DT0H0M2.1333S
p2727
sg39
(dp2728
g41
VRNG Ninja HCS
p2729
sg43
Nssa(dp2730
g38
I424645655
sg39
(dp2731
g41
VRNG Ninja HCS
p2732
sg43
Nssg44
(lp2733
I1327094800
asg32
VWeaponPickup
p2734
sg35
VPT3M31.9259994S
p2735
sa(dp2736
g38
I313138863
sg32
VWeaponDrop
p2737
sg180
I0
sg44
(lp2738
I1095363701
asg35
VPT3M32.8760001S
p2739
sg183
I0
sg184
VP0DT0H0M1.8333S
p2740
sg39
(dp2741
g41
VCLG LethuL HCS
p2742
sg43
Nssa(dp2743
g38
I669296699
sg39
(dp2744
g41
VCLG LethuL HCS
p2745
sg43
Nssg44
(lp2746
I2758383128
asg32
VWeaponPickup
p2747
sg35
VPT3M32.8760001S
p2748
sa(dp2749
g38
I313138863
sg39
(dp2750
g41
VRNG Penguin HCS
p2751
sg43
Nssg44
(lp2752
I1095363701
asg32
VWeaponPickup
p2753
sg35
VPT3M37.1770009S
p2754
sa(dp2755
g38
I4096745987
sg39
(dp2756
g41
VRNG Penguin HCS
p2757
sg43
Nssg44
(lp2758
I2758383128
asg32
VWeaponPickup
p2759
sg35
VPT3M37.1770009S
p2760
sa(dp2761
g32
VPlayerSpawn
p2762
sg39
(dp2763
g41
VRNG Penguin HCS
p2764
sg43
Nssg35
VPT3M37.1770009S
p2765
sa(dp2766
g38
I313138863
sg39
(dp2767
g41
VRNG Commonly
p2768
sg43
Nssg44
(lp2769
I1095363701
asg32
VWeaponPickup
p2770
sg35
VPT3M38.2100009S
p2771
sa(dp2772
g38
I4096745987
sg39
(dp2773
g41
VRNG Commonly
p2774
sg43
Nssg44
(lp2775
I2758383128
asg32
VWeaponPickup
p2776
sg35
VPT3M38.2110003S
p2777
sa(dp2778
g32
VPlayerSpawn
p2779
sg39
(dp2780
g41
VRNG Commonly
p2781
sg43
Nssg35
VPT3M38.2110003S
p2782
sa(dp2783
g38
I313138863
sg39
(dp2784
g41
VCLG Snake Bite
p2785
sg43
Nssg44
(lp2786
I1095363701
asg32
VWeaponPickup
p2787
sg35
VPT3M38.310001S
p2788
sa(dp2789
g38
I4096745987
sg39
(dp2790
g41
VCLG Snake Bite
p2791
sg43
Nssg44
(lp2792
I2758383128
asg32
VWeaponPickup
p2793
sg35
VPT3M38.310001S
p2794
sa(dp2795
g32
VPlayerSpawn
p2796
sg39
(dp2797
g41
VCLG Snake Bite
p2798
sg43
Nssg35
VPT3M38.310001S
p2799
sa(dp2800
g38
I313138863
sg32
VWeaponDrop
p2801
sg180
I0
sg44
(lp2802
I1095363701
asg35
VPT3M41.4250005S
p2803
sg183
I0
sg184
VP0DT0H0M1.7833S
p2804
sg39
(dp2805
g41
VRNG Penguin HCS
p2806
sg43
Nssa(dp2807
g38
I4054937266
sg39
(dp2808
g41
VRNG Penguin HCS
p2809
sg43
Nssg44
(lp2810
I2758383128
asg32
VWeaponPickup
p2811
sg35
VPT3M41.4260013S
p2812
sa(dp2813
g38
I313138863
sg32
VWeaponDrop
p2814
sg180
I0
sg44
(lp2815
I1095363701
asg35
VPT3M43.6419988S
p2816
sg183
I0
sg184
VP0DT0H0M1.0667S
p2817
sg39
(dp2818
g41
VRNG Commonly
p2819
sg43
Nssa(dp2820
g38
I723388907
sg39
(dp2821
g41
VRNG Commonly
p2822
sg43
Nssg44
(lp2823
I89283061
asg32
VWeaponPickup
p2824
sg35
VPT3M43.6419988S
p2825
sa(dp2826
g195
I4054937266
sg196
I00
sg197
I00
sg198
(dp2827
g41
VRNG Penguin HCS
p2828
sg43
Nssg201
(lp2829
I2758383128
asg203
I00
sg204
I01
sg205
I1
sg206
I0
sg207
I1
sg208
(dp2830
Vy
F4.3431699999999998
sVx
F-2.7805573899999998
sVz
F3.46086574
ssg210
(dp2831
Vy
F1.6639272000000001
sVx
F-2.952013
sVz
F2.6818909999999998
ssg212
I00
sg213
(dp2832
g41
VCLG Frosty HCS
p2833
sg43
Nssg217
(lp2834
sg219
(lp2835
(dp2836
g41
VRNG Ninja HCS
p2837
sg43
Nsasg221
I00
sg35
VPT3M50.0760005S
p2838
sg32
VDeath
p2839
sg224
I1
sa(dp2840
g32
VImpulse
p2841
sg39
(dp2842
g41
VRNG Penguin HCS
p2843
sg43
Nssg486
I2556889090
sg35
VPT3M50.0770009S
p2844
sa(dp2845
g32
VMedal
p2846
sg39
(dp2847
g41
VRNG Penguin HCS
p2848
sg43
Nssg321
I2838259753
sg35
VPT3M50.0770009S
p2849
sa(dp2850
g38
I3808094875
sg32
VWeaponDrop
p2851
sg180
I8
sg44
(lp2852
I2758383128
asg35
VPT3M50.0780004S
p2853
sg183
I6
sg184
VP0DT0H0M8.1833S
p2854
sg39
(dp2855
g41
VCLG Frosty HCS
p2856
sg43
Nssa(dp2857
g38
I4096745987
sg32
VWeaponDrop
p2858
sg180
I3
sg44
(lp2859
I2758383128
asg35
VPT3M50.0800006S
p2860
sg183
I2
sg184
VP0DT0H0M13.2500S
p2861
sg39
(dp2862
g41
VCLG Frosty HCS
p2863
sg43
Nssa(dp2864
g195
I4054937266
sg196
I00
sg197
I00
sg198
(dp2865
g41
VRNG Penguin HCS
p2866
sg43
Nssg201
(lp2867
I2758383128
asg203
I00
sg204
I01
sg205
I1
sg206
I0
sg207
I1
sg208
(dp2868
Vy
F8.872852
sVx
F-0.37076930000000002
sVz
F2.0043799999999998
ssg210
(dp2869
Vy
F10.258240000000001
sVx
F3.6772418
sVz
F1.4982306999999999
ssg212
I00
sg213
(dp2870
g41
VCLG LethuL HCS
p2871
sg43
Nssg217
(lp2872
sg219
(lp2873
(dp2874
g41
VRNG Victory X
p2875
sg43
Nsasg221
I00
sg35
VPT3M54.9760006S
p2876
sg32
VDeath
p2877
sg224
I1
sa(dp2878
g32
VMedal
p2879
sg39
(dp2880
g41
VRNG Penguin HCS
p2881
sg43
Nssg321
I2078758684
sg35
VPT3M54.9780003S
p2882
sa(dp2883
g38
I669296699
sg32
VWeaponDrop
p2884
sg180
I2
sg44
(lp2885
I2758383128
asg35
VPT3M54.9790013S
p2886
sg183
I0
sg184
VP0DT0H0M20.8000S
p2887
sg39
(dp2888
g41
VCLG LethuL HCS
p2889
sg43
Nssa(dp2890
g38
I4096745987
sg32
VWeaponDrop
p2891
sg180
I9
sg44
(lp2892
I2758383128
asg35
VPT3M54.9790013S
p2893
sg183
I3
sg184
VP0DT0H0M13.0333S
p2894
sg39
(dp2895
g41
VCLG LethuL HCS
p2896
sg43
Nssa(dp2897
g38
I313138863
sg39
(dp2898
g41
VCLG Frosty HCS
p2899
sg43
Nssg44
(lp2900
I1095363701
asg32
VWeaponPickup
p2901
sg35
VPT3M58.0930007S
p2902
sa(dp2903
g38
I4096745987
sg39
(dp2904
g41
VCLG Frosty HCS
p2905
sg43
Nssg44
(lp2906
I2758383128
asg32
VWeaponPickup
p2907
sg35
VPT3M58.0930007S
p2908
sa(dp2909
g32
VPlayerSpawn
p2910
sg39
(dp2911
g41
VCLG Frosty HCS
p2912
sg43
Nssg35
VPT3M58.0930007S
p2913
sa(dp2914
g195
I424645655
sg196
I00
sg197
I00
sg198
(dp2915
g41
VRNG Ninja HCS
p2916
sg43
Nssg201
(lp2917
I1327094800
asg203
I00
sg204
I01
sg205
I1
sg206
I0
sg207
I1
sg208
(dp2918
Vy
F2.9019341500000002
sVx
F0.197792947
sVz
F0.43120217300000002
ssg210
(dp2919
Vy
F1.37580955
sVx
F5.1223125500000002
sVz
F2.3573081500000002
ssg212
I00
sg213
(dp2920
g41
VRammyy
p2921
sg43
Nssg217
(lp2922
sg219
(lp2923
(dp2924
g41
VRNG Penguin HCS
p2925
sg43
Nsasg221
I01
sg35
VPT3M58.5760007S
p2926
sg32
VDeath
p2927
sg224
I1
sa(dp2928
g32
VImpulse
p2929
sg39
(dp2930
g41
VRNG Ninja HCS
p2931
sg43
Nssg486
I2556889090
sg35
VPT3M58.5760007S
p2932
sa(dp2933
g32
VMedal
p2934
sg39
(dp2935
g41
VRNG Ninja HCS
p2936
sg43
Nssg321
I2838259753
sg35
VPT3M58.5760007S
p2937
sa(dp2938
g32
VMedal
p2939
sg39
(dp2940
g41
VRNG Commonly
p2941
sg43
Nssg321
I824733727
sg35
VPT3M58.5770009S
p2942
sa(dp2943
g32
VMedal
p2944
sg39
(dp2945
g41
VRNG Ninja HCS
p2946
sg43
Nssg321
I3261908037
sg35
VPT3M58.578S
p2947
sa(dp2948
g38
I313138863
sg32
VWeaponDrop
p2949
sg180
I4
sg44
(lp2950
I1095363701
asg35
VPT3M58.5790006S
p2951
sg183
I2
sg184
VP0DT0H0M3.1333S
p2952
sg39
(dp2953
g41
VRammyy
p2954
sg43
Nssa(dp2955
g38
I4096745987
sg32
VWeaponDrop
p2956
sg180
I5
sg44
(lp2957
I2758383128
asg35
VPT3M58.5790006S
p2958
sg183
I2
sg184
VP0DT0H0M26.3333S
p2959
sg39
(dp2960
g41
VRammyy
p2961
sg43
Nssa(dp2962
g38
I4096745987
sg32
VWeaponDrop
p2963
sg180
I7
sg44
(lp2964
I2758383128
asg35
VPT3M59.3749997S
p2965
sg183
I4
sg184
VP0DT0H0M7.3167S
p2966
sg39
(dp2967
g41
VRNG Penguin HCS
p2968
sg43
Nssa(dp2969
g38
I669296699
sg39
(dp2970
g41
VRNG Penguin HCS
p2971
sg43
Nssg44
(lp2972
I2758383128
asg32
VWeaponPickup
p2973
sg35
VPT3M59.3749997S
p2974
sa(dp2975
g195
I3190813201
sg196
I00
sg197
I00
sg198
(dp2976
g41
VCLG Snake Bite
p2977
sg43
Nssg201
(lp2978
sg203
I00
sg204
I01
sg205
I1
sg206
I0
sg207
I1
sg208
(dp2979
Vy
F21.482904399999999
sVx
F-10.632013300000001
sVz
F-0.89641190000000004
ssg210
(dp2980
Vy
F15.461504
sVx
F-7.8353440000000001
sVz
F1.4995212600000001
ssg212
I00
sg213
(dp2981
g41
VRNG Commonly
p2982
sg43
Nssg217
(lp2983
sg219
(lp2984
sg221
I00
sg35
VPT4M0.9590006S
p2985
sg32
VDeath
p2986
sg224
I1
sa(dp2987
g38
I723388907
sg32
VWeaponDrop
p2988
sg180
I25
sg44
(lp2989
I89283061
asg35
VPT4M0.9610007S
p2990
sg183
I8
sg184
VP0DT0H0M9.5167S
p2991
sg39
(dp2992
g41
VRNG Commonly
p2993
sg43
Nssa(dp2994
g38
I4096745987
sg32
VWeaponDrop
p2995
sg180
I6
sg44
(lp2996
I2758383128
asg35
VPT4M0.9619998S
p2997
sg183
I2
sg184
VP0DT0H0M12.1667S
p2998
sg39
(dp2999
g41
VRNG Commonly
p3000
sg43
Nssa(dp3001
g38
I313138863
sg32
VWeaponDrop
p3002
sg180
I2
sg44
(lp3003
I1095363701
asg35
VPT4M1.8579987S
p3004
sg183
I0
sg184
VP0DT0H0M2.8000S
p3005
sg39
(dp3006
g41
VRNG Victory X
p3007
sg43
Nssa(dp3008
g38
I2133511419
sg39
(dp3009
g41
VRNG Victory X
p3010
sg43
Nssg44
(lp3011
I2758383128
asg32
VWeaponPickup
p3012
sg35
VPT4M1.8579987S
p3013
sa(dp3014
g38
I313138863
sg39
(dp3015
g41
VCLG LethuL HCS
p3016
sg43
Nssg44
(lp3017
I1095363701
asg32
VWeaponPickup
p3018
sg35
VPT4M2.993001S
p3019
sa(dp3020
g38
I4096745987
sg39
(dp3021
g41
VCLG LethuL HCS
p3022
sg43
Nssg44
(lp3023
I2758383128
asg32
VWeaponPickup
p3024
sg35
VPT4M2.993001S
p3025
sa(dp3026
g32
VPlayerSpawn
p3027
sg39
(dp3028
g41
VCLG LethuL HCS
p3029
sg43
Nssg35
VPT4M2.993001S
p3030
sa(dp3031
g38
I313138863
sg39
(dp3032
g41
VRammyy
p3033
sg43
Nssg44
(lp3034
I1095363701
asg32
VWeaponPickup
p3035
sg35
VPT4M6.5930011S
p3036
sa(dp3037
g38
I4096745987
sg39
(dp3038
g41
VRammyy
p3039
sg43
Nssg44
(lp3040
I2758383128
asg32
VWeaponPickup
p3041
sg35
VPT4M6.5930011S
p3042
sa(dp3043
g32
VPlayerSpawn
p3044
sg39
(dp3045
g41
VRammyy
p3046
sg43
Nssg35
VPT4M6.5930011S
p3047
sa(dp3048
g195
I4096745987
sg196
I00
sg197
I00
sg198
(dp3049
g41
VCLG Snake Bite
p3050
sg43
Nssg201
(lp3051
I2758383128
asg203
I00
sg204
I01
sg205
I1
sg206
I0
sg207
I1
sg208
(dp3052
Vy
F23.178173099999999
sVx
F-9.0229579999999991
sVz
F1.5033741
ssg210
(dp3053
Vy
F17.725811
sVx
F1.9833616000000001
sVz
F-0.89672479999999999
ssg212
I00
sg213
(dp3054
g41
VRNG Penguin HCS
p3055
sg43
Nssg217
(lp3056
sg219
(lp3057
sg221
I01
sg35
VPT4M7.7090002S
p3058
sg32
VDeath
p3059
sg224
I1
sa(dp3060
g32
VMedal
p3061
sg39
(dp3062
g41
VCLG Snake Bite
p3063
sg43
Nssg321
I3261908037
sg35
VPT4M7.7120004S
p3064
sa(dp3065
g38
I4054937266
sg32
VWeaponDrop
p3066
sg180
I5
sg44
(lp3067
I2758383128
asg35
VPT4M7.7120004S
p3068
sg183
I5
sg184
VP0DT0H0M13.9000S
p3069
sg39
(dp3070
g41
VRNG Penguin HCS
p3071
sg43
Nssa(dp3072
g38
I4054937266
sg32
VWeaponDrop
p3073
sg180
I0
sg44
(lp3074
I2758383128
asg35
VPT4M7.7120004S
p3075
sg183
I0
sg184
VP0DT0S
p3076
sg39
(dp3077
g41
VRNG Penguin HCS
p3078
sg43
Nssa(dp3079
g38
I669296699
sg32
VWeaponDrop
p3080
sg180
I1
sg44
(lp3081
I2758383128
asg35
VPT4M7.7120004S
p3082
sg183
I0
sg184
VP0DT0H0M7.5333S
p3083
sg39
(dp3084
g41
VRNG Penguin HCS
p3085
sg43
Nssa(dp3086
g38
I313138863
sg32
VWeaponDrop
p3087
sg180
I0
sg44
(lp3088
I1095363701
asg35
VPT4M8.0409999S
p3089
sg183
I0
sg184
VP0DT0H0M1.8500S
p3090
sg39
(dp3091
g41
VCLG Frosty HCS
p3092
sg43
Nssa(dp3093
g38
I3808094875
sg39
(dp3094
g41
VCLG Frosty HCS
p3095
sg43
Nssg44
(lp3096
I2758383128
asg32
VWeaponPickup
p3097
sg35
VPT4M8.0409999S
p3098
sa(dp3099
g38
I313138863
sg39
(dp3100
g41
VRNG Commonly
p3101
sg43
Nssg44
(lp3102
I1095363701
asg32
VWeaponPickup
p3103
sg35
VPT4M8.9760005S
p3104
sa(dp3105
g38
I4096745987
sg39
(dp3106
g41
VRNG Commonly
p3107
sg43
Nssg44
(lp3108
I2758383128
asg32
VWeaponPickup
p3109
sg35
VPT4M8.977001S
p3110
sa(dp3111
g32
VPlayerSpawn
p3112
sg39
(dp3113
g41
VRNG Commonly
p3114
sg43
Nssg35
VPT4M8.977001S
p3115
sa(dp3116
g195
I3808094875
sg196
I00
sg197
I00
sg198
(dp3117
g41
VCLG Frosty HCS
p3118
sg43
Nssg201
(lp3119
I2758383128
asg203
I00
sg204
I01
sg205
I1
sg206
I0
sg207
I1
sg208
(dp3120
Vy
F13.7926731
sVx
F5.81466627
sVz
F1.4982566799999999
ssg210
(dp3121
Vy
F14.2618771
sVx
F8.7855480000000004
sVz
F1.49825656
ssg212
I00
sg213
(dp3122
g41
VRNG Commonly
p3123
sg43
Nssg217
(lp3124
sg219
(lp3125
(dp3126
g41
VCLG Snake Bite
p3127
sg43
Nsasg221
I00
sg35
VPT4M14.2590007S
p3128
sg32
VDeath
p3129
sg224
I1
sa(dp3130
g38
I313138863
sg32
VWeaponDrop
p3131
sg180
I0
sg44
(lp3132
I1095363701
asg35
VPT4M14.2610008S
p3133
sg183
I0
sg184
VP0DT0H0M0.8167S
p3134
sg39
(dp3135
g41
VRNG Commonly
p3136
sg43
Nssa(dp3137
g38
I4096745987
sg32
VWeaponDrop
p3138
sg180
I2
sg44
(lp3139
I2758383128
asg35
VPT4M14.2610008S
p3140
sg183
I0
sg184
VP0DT0H0M4.4667S
p3141
sg39
(dp3142
g41
VRNG Commonly
p3143
sg43
Nssa(dp3144
g38
I313138863
sg39
(dp3145
g41
VRNG Penguin HCS
p3146
sg43
Nssg44
(lp3147
I1095363701
asg32
VWeaponPickup
p3148
sg35
VPT4M15.7260012S
p3149
sa(dp3150
g38
I4096745987
sg39
(dp3151
g41
VRNG Penguin HCS
p3152
sg43
Nssg44
(lp3153
I2758383128
asg32
VWeaponPickup
p3154
sg35
VPT4M15.7260012S
p3155
sa(dp3156
g32
VPlayerSpawn
p3157
sg39
(dp3158
g41
VRNG Penguin HCS
p3159
sg43
Nssg35
VPT4M15.7260012S
p3160
sa(dp3161
g38
I313138863
sg32
VWeaponDrop
p3162
sg180
I0
sg44
(lp3163
I1095363701
asg35
VPT4M17.6739996S
p3164
sg183
I0
sg184
VP0DT0H0M1.2167S
p3165
sg39
(dp3166
g41
VCLG Snake Bite
p3167
sg43
Nssa(dp3168
g38
I4054937266
sg39
(dp3169
g41
VCLG Snake Bite
p3170
sg43
Nssg44
(lp3171
I2758383128
asg32
VWeaponPickup
p3172
sg35
VPT4M17.6739996S
p3173
sa(dp3174
g38
I4054937266
sg32
VWeaponDrop
p3175
sg180
I0
sg44
(lp3176
I2758383128
asg35
VPT4M18.3410007S
p3177
sg183
I0
sg184
VP0DT0H0M0.6667S
p3178
sg39
(dp3179
g41
VCLG Snake Bite
p3180
sg43
Nssa(dp3181
g38
I669296699
sg39
(dp3182
g41
VCLG Snake Bite
p3183
sg43
Nssg44
(lp3184
I2758383128
asg32
VWeaponPickup
p3185
sg35
VPT4M18.3410007S
p3186
sa(dp3187
g195
I424645655
sg196
I00
sg197
I00
sg198
(dp3188
g41
VRNG Ninja HCS
p3189
sg43
Nssg201
(lp3190
I1327094800
asg203
I00
sg204
I01
sg205
I1
sg206
I0
sg207
I1
sg208
(dp3191
Vy
F3.1735851799999999
sVx
F7.4728364899999997
sVz
F0.55178870000000002
ssg210
(dp3192
Vy
F-5.0972759999999999
sVx
F2.9654880000000001
sVz
F-9.3804289999999995
ssg212
I00
sg213
(dp3193
g41
VCLG LethuL HCS
p3194
sg43
Nssg217
(lp3195
sg219
(lp3196
sg221
I00
sg35
VPT4M18.6750001S
p3197
sg32
VDeath
p3198
sg224
I1
sa(dp3199
g38
I313138863
sg32
VWeaponDrop
p3200
sg180
I0
sg44
(lp3201
I1095363701
asg35
VPT4M18.6820004S
p3202
sg183
I0
sg184
VP0DT0H0M0.7667S
p3203
sg39
(dp3204
g41
VCLG LethuL HCS
p3205
sg43
Nssa(dp3206
g38
I4096745987
sg32
VWeaponDrop
p3207
sg180
I0
sg44
(lp3208
I2758383128
asg35
VPT4M18.6820004S
p3209
sg183
I0
sg184
VP0DT0H0M14.9167S
p3210
sg39
(dp3211
g41
VCLG LethuL HCS
p3212
sg43
Nssa(dp3213
g38
I313138863
sg32
VWeaponDrop
p3214
sg180
I0
sg44
(lp3215
I1095363701
asg35
VPT4M18.8569997S
p3216
sg183
I0
sg184
VP0DT0H0M1.6667S
p3217
sg39
(dp3218
g41
VRammyy
p3219
sg43
Nssa(dp3220
g38
I4054937266
sg39
(dp3221
g41
VRammyy
p3222
sg43
Nssg44
(lp3223
I2758383128
asg32
VWeaponPickupPad
p3224
sg35
VPT4M18.8580249S
p3225
sa(dp3226
g38
I4054937266
sg39
(dp3227
g41
VRammyy
p3228
sg43
Nssg44
(lp3229
I2758383128
asg32
VWeaponPickup
p3230
sg35
VPT4M18.8580249S
p3231
sa(dp3232
g195
I4096745987
sg196
I00
sg197
I00
sg198
(dp3233
g41
VCLG Frosty HCS
p3234
sg43
Nssg201
(lp3235
I2758383128
asg203
I00
sg204
I01
sg205
I1
sg206
I0
sg207
I1
sg208
(dp3236
Vy
F8.6216950000000008
sVx
F9.2741480000000003
sVz
F3.2751848699999999
ssg210
(dp3237
Vy
F2.4357385599999999
sVx
F8.4037489999999995
sVz
F0.82540570000000002
ssg212
I00
sg213
(dp3238
g41
VRNG Ninja HCS
p3239
sg43
Nssg217
(lp3240
sg219
(lp3241
sg221
I01
sg35
VPT4M19.9420009S
p3242
sg32
VDeath
p3243
sg224
I1
sa(dp3244
g32
VImpulse
p3245
sg39
(dp3246
g41
VCLG Frosty HCS
p3247
sg43
Nssg486
I3174430457
sg35
VPT4M19.9430004S
p3248
sa(dp3249
g32
VMedal
p3250
sg39
(dp3251
g41
VCLG Frosty HCS
p3252
sg43
Nssg321
I3653057799
sg35
VPT4M19.9440003S
p3253
sa(dp3254
g38
I313138863
sg32
VWeaponDrop
p3255
sg180
I0
sg44
(lp3256
I1095363701
asg35
VPT4M19.9449999S
p3257
sg183
I0
sg184
VP0DT0H0M0.8000S
p3258
sg39
(dp3259
g41
VRNG Ninja HCS
p3260
sg43
Nssa(dp3261
g38
I424645655
sg32
VWeaponDrop
p3262
sg180
I48
sg44
(lp3263
I1327094800
asg35
VPT4M19.9449999S
p3264
sg183
I30
sg184
VP0DT0H0M48.0167S
p3265
sg39
(dp3266
g41
VRNG Ninja HCS
p3267
sg43
Nssa(dp3268
g38
I313138863
sg39
(dp3269
g41
VRNG Commonly
p3270
sg43
Nssg44
(lp3271
I1095363701
asg32
VWeaponPickup
p3272
sg35
VPT4M22.2750011S
p3273
sa(dp3274
g38
I4096745987
sg39
(dp3275
g41
VRNG Commonly
p3276
sg43
Nssg44
(lp3277
I2758383128
asg32
VWeaponPickup
p3278
sg35
VPT4M22.2760012S
p3279
sa(dp3280
g32
VPlayerSpawn
p3281
sg39
(dp3282
g41
VRNG Commonly
p3283
sg43
Nssg35
VPT4M22.2760012S
p3284
sa(dp3285
g195
I669296699
sg196
I00
sg197
I00
sg198
(dp3286
g41
VCLG Snake Bite
p3287
sg43
Nssg201
(lp3288
I2758383128
asg203
I00
sg204
I01
sg205
I1
sg206
I0
sg207
I1
sg208
(dp3289
Vy
F13.0954332
sVx
F3.3596413100000002
sVz
F-0.88806160000000001
ssg210
(dp3290
Vy
F8.1336259999999996
sVx
F-11.969934500000001
sVz
F1.509209
ssg212
I00
sg213
(dp3291
g41
VRNG Victory X
p3292
sg43
Nssg217
(lp3293
sg219
(lp3294
(dp3295
g41
VRammyy
p3296
sg43
Nsasg221
I01
sg35
VPT4M23.9419999S
p3297
sg32
VDeath
p3298
sg224
I1
sa(dp3299
g32
VMedal
p3300
sg39
(dp3301
g41
VCLG Snake Bite
p3302
sg43
Nssg321
I848240062
sg35
VPT4M23.9430006S
p3303
sa(dp3304
g38
I2133511419
sg32
VWeaponDrop
p3305
sg180
I0
sg44
(lp3306
I2758383128
asg35
VPT4M23.9440011S
p3307
sg183
I0
sg184
VP0DT0H0M8.6000S
p3308
sg39
(dp3309
g41
VRNG Victory X
p3310
sg43
Nssa(dp3311
g38
I4096745987
sg32
VWeaponDrop
p3312
sg180
I3
sg44
(lp3313
I2758383128
asg35
VPT4M23.9440011S
p3314
sg183
I1
sg184
VP0DT0H0M47.0500S
p3315
sg39
(dp3316
g41
VRNG Victory X
p3317
sg43
Nssa(dp3318
g38
I313138863
sg39
(dp3319
g41
VCLG LethuL HCS
p3320
sg43
Nssg44
(lp3321
I1095363701
asg32
VWeaponPickup
p3322
sg35
VPT4M26.6920012S
p3323
sa(dp3324
g38
I4096745987
sg39
(dp3325
g41
VCLG LethuL HCS
p3326
sg43
Nssg44
(lp3327
I2758383128
asg32
VWeaponPickup
p3328
sg35
VPT4M26.6920012S
p3329
sa(dp3330
g32
VPlayerSpawn
p3331
sg39
(dp3332
g41
VCLG LethuL HCS
p3333
sg43
Nssg35
VPT4M26.6920012S
p3334
sa(dp3335
g38
I313138863
sg39
(dp3336
g41
VRNG Ninja HCS
p3337
sg43
Nssg44
(lp3338
I1095363701
asg32
VWeaponPickup
p3339
sg35
VPT4M27.9590011S
p3340
sa(dp3341
g38
I4096745987
sg39
(dp3342
g41
VRNG Ninja HCS
p3343
sg43
Nssg44
(lp3344
I2758383128
asg32
VWeaponPickup
p3345
sg35
VPT4M27.9590011S
p3346
sa(dp3347
g32
VPlayerSpawn
p3348
sg39
(dp3349
g41
VRNG Ninja HCS
p3350
sg43
Nssg35
VPT4M27.9590011S
p3351
sa(dp3352
g38
I313138863
sg39
(dp3353
g41
VRNG Victory X
p3354
sg43
Nssg44
(lp3355
I1095363701
asg32
VWeaponPickup
p3356
sg35
VPT4M31.958001S
p3357
sa(dp3358
g38
I4096745987
sg39
(dp3359
g41
VRNG Victory X
p3360
sg43
Nssg44
(lp3361
I2758383128
asg32
VWeaponPickup
p3362
sg35
VPT4M31.959001S
p3363
sa(dp3364
g32
VPlayerSpawn
p3365
sg39
(dp3366
g41
VRNG Victory X
p3367
sg43
Nssg35
VPT4M31.959001S
p3368
sa(dp3369
g38
I2492868984
sg39
(dp3370
g41
VCLG Snake Bite
p3371
sg43
Nssg44
(lp3372
I2758383128
asg32
VWeaponPickup
p3373
sg35
VPT4M32.7740003S
p3374
sa(dp3375
g38
I2492868984
sg32
VWeaponDrop
p3376
sg180
I0
sg44
(lp3377
I2758383128
asg35
VPT4M33.925S
p3378
sg183
I0
sg184
VP0DT0H0M1.0000S
p3379
sg39
(dp3380
g41
VCLG Snake Bite
p3381
sg43
Nssa(dp3382
g195
I3808094875
sg196
I00
sg197
I00
sg198
(dp3383
g41
VCLG Frosty HCS
p3384
sg43
Nssg201
(lp3385
I2758383128
asg203
I00
sg204
I01
sg205
I1
sg206
I0
sg207
I1
sg208
(dp3386
Vy
F9.1531549999999999
sVx
F1.58216131
sVz
F1.4982089999999999
ssg210
(dp3387
Vy
F11.0856295
sVx
F3.4882016199999999
sVz
F1.9181630599999999
ssg212
I00
sg213
(dp3388
g41
VRNG Commonly
p3389
sg43
Nssg217
(lp3390
sg219
(lp3391
sg221
I00
sg35
VPT4M39.9910006S
p3392
sg32
VDeath
p3393
sg224
I1
sa(dp3394
g38
I313138863
sg32
VWeaponDrop
p3395
sg180
I16
sg44
(lp3396
I1095363701
asg35
VPT4M39.9920006S
p3397
sg183
I10
sg184
VP0DT0H0M3.4333S
p3398
sg39
(dp3399
g41
VRNG Commonly
p3400
sg43
Nssa(dp3401
g38
I4096745987
sg32
VWeaponDrop
p3402
sg180
I5
sg44
(lp3403
I2758383128
asg35
VPT4M39.9920006S
p3404
sg183
I1
sg184
VP0DT0H0M14.2833S
p3405
sg39
(dp3406
g41
VRNG Commonly
p3407
sg43
Nssa(dp3408
g195
I4096745987
sg196
I00
sg197
I00
sg198
(dp3409
g41
VCLG LethuL HCS
p3410
sg43
Nssg201
(lp3411
I2758383128
asg203
I00
sg204
I01
sg205
I1
sg206
I0
sg207
I1
sg208
(dp3412
Vy
F13.1647778
sVx
F-1.6474927699999999
sVz
F1.4995212600000001
ssg210
(dp3413
Vy
F15.0939569
sVx
F-7.6814830000000001
sVz
F2.0080151599999998
ssg212
I00
sg213
(dp3414
g41
VRNG Victory X
p3415
sg43
Nssg217
(lp3416
sg219
(lp3417
(dp3418
g41
VRammyy
p3419
sg43
Nsasg221
I00
sg35
VPT4M42.2910001S
p3420
sg32
VDeath
p3421
sg224
I1
sa(dp3422
g32
VImpulse
p3423
sg39
(dp3424
g41
VCLG LethuL HCS
p3425
sg43
Nssg486
I2556889090
sg35
VPT4M42.2920005S
p3426
sa(dp3427
g32
VMedal
p3428
sg39
(dp3429
g41
VCLG LethuL HCS
p3430
sg43
Nssg321
I2838259753
sg35
VPT4M42.2920005S
p3431
sa(dp3432
g32
VMedal
p3433
sg39
(dp3434
g41
VCLG Snake Bite
p3435
sg43
Nssg321
I824733727
sg35
VPT4M42.2929999S
p3436
sa(dp3437
g38
I313138863
sg32
VWeaponDrop
p3438
sg180
I0
sg44
(lp3439
I1095363701
asg35
VPT4M42.2939998S
p3440
sg183
I0
sg184
VP0DT0H0M0.4000S
p3441
sg39
(dp3442
g41
VRNG Victory X
p3443
sg43
Nssa(dp3444
g38
I4096745987
sg32
VWeaponDrop
p3445
sg180
I5
sg44
(lp3446
I2758383128
asg35
VPT4M42.2939998S
p3447
sg183
I2
sg184
VP0DT0H0M9.9333S
p3448
sg39
(dp3449
g41
VRNG Victory X
p3450
sg43
Nssa(dp3451
g195
I4096745987
sg196
I00
sg197
I00
sg198
(dp3452
g41
VRNG Penguin HCS
p3453
sg43
Nssg201
(lp3454
I2758383128
asg203
I00
sg204
I01
sg205
I1
sg206
I0
sg207
I1
sg208
(dp3455
Vy
F0.51796066799999996
sVx
F5.51613665
sVz
F0.56043220000000005
ssg210
(dp3456
Vy
F5.4079322799999998
sVx
F6.6681632999999998
sVz
F-0.76096940000000002
ssg212
I00
sg213
(dp3457
g41
VCLG Frosty HCS
p3458
sg43
Nssg217
(lp3459
sg219
(lp3460
(dp3461
g41
VRNG Commonly
p3462
sg43
Nsasg221
I01
sg35
VPT4M42.7240006S
p3463
sg32
VDeath
p3464
sg224
I1
sa(dp3465
g32
VMedal
p3466
sg39
(dp3467
g41
VRNG Penguin HCS
p3468
sg43
Nssg321
I3261908037
sg35
VPT4M42.7260002S
p3469
sa(dp3470
g38
I3808094875
sg32
VWeaponDrop
p3471
sg180
I32
sg44
(lp3472
I2758383128
asg35
VPT4M42.7260002S
p3473
sg183
I18
sg184
VP0DT0H0M15.7833S
p3474
sg39
(dp3475
g41
VCLG Frosty HCS
p3476
sg43
Nssa(dp3477
g38
I4096745987
sg32
VWeaponDrop
p3478
sg180
I12
sg44
(lp3479
I2758383128
asg35
VPT4M42.7270012S
p3480
sg183
I7
sg184
VP0DT0H0M27.0000S
p3481
sg39
(dp3482
g41
VCLG Frosty HCS
p3483
sg43
Nssa(dp3484
g38
I313138863
sg32
VWeaponDrop
p3485
sg180
I24
sg44
(lp3486
I1095363701
asg35
VPT4M46.1559986S
p3487
sg183
I9
sg184
VP0DT0H0M8.7333S
p3488
sg39
(dp3489
g41
VRNG Penguin HCS
p3490
sg43
Nssa(dp3491
g38
I3808094875
sg39
(dp3492
g41
VRNG Penguin HCS
p3493
sg43
Nssg44
(lp3494
I2758383128
asg32
VWeaponPickup
p3495
sg35
VPT4M46.1559986S
p3496
sa(dp3497
g38
I313138863
sg39
(dp3498
g41
VRNG Commonly
p3499
sg43
Nssg44
(lp3500
I1095363701
asg32
VWeaponPickup
p3501
sg35
VPT4M48.0080008S
p3502
sa(dp3503
g38
I4096745987
sg39
(dp3504
g41
VRNG Commonly
p3505
sg43
Nssg44
(lp3506
I2758383128
asg32
VWeaponPickup
p3507
sg35
VPT4M48.0080008S
p3508
sa(dp3509
g32
VPlayerSpawn
p3510
sg39
(dp3511
g41
VRNG Commonly
p3512
sg43
Nssg35
VPT4M48.0080008S
p3513
sa(dp3514
g195
I4096745987
sg196
I00
sg197
I00
sg198
(dp3515
g41
VRNG Ninja HCS
p3516
sg43
Nssg201
(lp3517
I2758383128
asg203
I00
sg204
I01
sg205
I1
sg206
I0
sg207
I1
sg208
(dp3518
Vy
F11.2878857
sVx
F-12.7700119
sVz
F2.5515219999999998
ssg210
(dp3519
Vy
F15.4023
sVx
F-9.6341269999999994
sVz
F2.2339954400000002
ssg212
I00
sg213
(dp3520
g41
VCLG LethuL HCS
p3521
sg43
Nssg217
(lp3522
sg219
(lp3523
sg221
I01
sg35
VPT4M49.9910003S
p3524
sg32
VDeath
p3525
sg224
I1
sa(dp3526
g32
VMedal
p3527
sg39
(dp3528
g41
VRNG Ninja HCS
p3529
sg43
Nssg321
I3261908037
sg35
VPT4M49.9940001S
p3530
sa(dp3531
g38
I313138863
sg32
VWeaponDrop
p3532
sg180
I2
sg44
(lp3533
I1095363701
asg35
VPT4M49.9940001S
p3534
sg183
I0
sg184
VP0DT0H0M1.7500S
p3535
sg39
(dp3536
g41
VCLG LethuL HCS
p3537
sg43
Nssa(dp3538
g38
I4096745987
sg32
VWeaponDrop
p3539
sg180
I20
sg44
(lp3540
I2758383128
asg35
VPT4M49.9940001S
p3541
sg183
I10
sg184
VP0DT0H0M21.5500S
p3542
sg39
(dp3543
g41
VCLG LethuL HCS
p3544
sg43
Nssa(dp3545
g195
I4096745987
sg196
I00
sg197
I00
sg198
(dp3546
g41
VCLG LethuL HCS
p3547
sg43
Nssg201
(lp3548
I2758383128
asg203
I00
sg204
I01
sg205
I1
sg206
I0
sg207
I1
sg208
(dp3549
Vy
F15.407877900000001
sVx
F-9.7497509999999998
sVz
F1.9841648300000001
ssg210
(dp3550
Vy
F11.293615300000001
sVx
F-13.038448300000001
sVz
F2.4942753299999998
ssg212
I00
sg213
(dp3551
g41
VRNG Ninja HCS
p3552
sg43
Nssg217
(lp3553
sg219
(lp3554
sg221
I00
sg35
VPT4M50.1070001S
p3555
sg32
VDeath
p3556
sg224
I1
sa(dp3557
g32
VMedal
p3558
sg39
(dp3559
g41
VCLG LethuL HCS
p3560
sg43
Nssg321
I466059351
sg35
VPT4M50.1080005S
p3561
sa(dp3562
g38
I313138863
sg32
VWeaponDrop
p3563
sg180
I18
sg44
(lp3564
I1095363701
asg35
VPT4M50.1090006S
p3565
sg183
I7
sg184
VP0DT0H0M5.1833S
p3566
sg39
(dp3567
g41
VRNG Ninja HCS
p3568
sg43
Nssa(dp3569
g38
I4096745987
sg32
VWeaponDrop
p3570
sg180
I11
sg44
(lp3571
I2758383128
asg35
VPT4M50.1090006S
p3572
sg183
I7
sg184
VP0DT0H0M16.9667S
p3573
sg39
(dp3574
g41
VRNG Ninja HCS
p3575
sg43
Nssa(dp3576
g38
I313138863
sg39
(dp3577
g41
VRNG Victory X
p3578
sg43
Nssg44
(lp3579
I1095363701
asg32
VWeaponPickup
p3580
sg35
VPT4M50.3080012S
p3581
sa(dp3582
g38
I4096745987
sg39
(dp3583
g41
VRNG Victory X
p3584
sg43
Nssg44
(lp3585
I2758383128
asg32
VWeaponPickup
p3586
sg35
VPT4M50.3080012S
p3587
sa(dp3588
g32
VPlayerSpawn
p3589
sg39
(dp3590
g41
VRNG Victory X
p3591
sg43
Nssg35
VPT4M50.3080012S
p3592
sa(dp3593
g38
I313138863
sg39
(dp3594
g41
VCLG Frosty HCS
p3595
sg43
Nssg44
(lp3596
I1095363701
asg32
VWeaponPickup
p3597
sg35
VPT4M50.7410007S
p3598
sa(dp3599
g38
I4096745987
sg39
(dp3600
g41
VCLG Frosty HCS
p3601
sg43
Nssg44
(lp3602
I2758383128
asg32
VWeaponPickup
p3603
sg35
VPT4M50.7410007S
p3604
sa(dp3605
g32
VPlayerSpawn
p3606
sg39
(dp3607
g41
VCLG Frosty HCS
p3608
sg43
Nssg35
VPT4M50.7410007S
p3609
sa(dp3610
g195
I4096745987
sg196
I00
sg197
I00
sg198
(dp3611
g41
VRNG Commonly
p3612
sg43
Nssg201
(lp3613
I2758383128
asg203
I00
sg204
I01
sg205
I1
sg206
I0
sg207
I1
sg208
(dp3614
Vy
F-0.96260400000000002
sVx
F-6.7100863500000001
sVz
F4.6049976299999997
ssg210
(dp3615
Vy
F-1.0537939999999999
sVx
F-16.4105873
sVz
F2.3005450000000001
ssg212
I00
sg213
(dp3616
g41
VCLG Frosty HCS
p3617
sg43
Nssg217
(lp3618
sg219
(lp3619
sg221
I01
sg35
VPT4M57.0740007S
p3620
sg32
VDeath
p3621
sg224
I1
sa(dp3622
g32
VMedal
p3623
sg39
(dp3624
g41
VRNG Commonly
p3625
sg43
Nssg321
I3261908037
sg35
VPT4M57.0750004S
p3626
sa(dp3627
g38
I313138863
sg32
VWeaponDrop
p3628
sg180
I0
sg44
(lp3629
I1095363701
asg35
VPT4M57.0760001S
p3630
sg183
I0
sg184
VP0DT0H0M1.8167S
p3631
sg39
(dp3632
g41
VCLG Frosty HCS
p3633
sg43
Nssa(dp3634
g38
I4096745987
sg32
VWeaponDrop
p3635
sg180
I3
sg44
(lp3636
I2758383128
asg35
VPT4M57.0760001S
p3637
sg183
I3
sg184
VP0DT0H0M4.5167S
p3638
sg39
(dp3639
g41
VCLG Frosty HCS
p3640
sg43
Nssa(dp3641
g38
I313138863
sg39
(dp3642
g41
VCLG LethuL HCS
p3643
sg43
Nssg44
(lp3644
I1095363701
asg32
VWeaponPickup
p3645
sg35
VPT4M58.0070006S
p3646
sa(dp3647
g38
I4096745987
sg39
(dp3648
g41
VCLG LethuL HCS
p3649
sg43
Nssg44
(lp3650
I2758383128
asg32
VWeaponPickup
p3651
sg35
VPT4M58.008001S
p3652
sa(dp3653
g32
VPlayerSpawn
p3654
sg39
(dp3655
g41
VCLG LethuL HCS
p3656
sg43
Nssg35
VPT4M58.008001S
p3657
sa(dp3658
g38
I313138863
sg39
(dp3659
g41
VRNG Ninja HCS
p3660
sg43
Nssg44
(lp3661
I1095363701
asg32
VWeaponPickup
p3662
sg35
VPT4M58.1250005S
p3663
sa(dp3664
g38
I4096745987
sg39
(dp3665
g41
VRNG Ninja HCS
p3666
sg43
Nssg44
(lp3667
I2758383128
asg32
VWeaponPickup
p3668
sg35
VPT4M58.1250005S
p3669
sa(dp3670
g32
VPlayerSpawn
p3671
sg39
(dp3672
g41
VRNG Ninja HCS
p3673
sg43
Nssg35
VPT4M58.1250005S
p3674
sa(dp3675
g195
I669296699
sg196
I00
sg197
I00
sg198
(dp3676
g41
VCLG Snake Bite
p3677
sg43
Nssg201
(lp3678
I2758383128
asg203
I00
sg204
I01
sg205
I1
sg206
I0
sg207
I1
sg208
(dp3679
Vy
F5.5652794800000001
sVx
F-18.941694300000002
sVz
F1.5012302399999999
ssg210
(dp3680
Vy
F-2.9432766400000001
sVx
F-6.0390586900000001
sVz
F5.6490070000000001
ssg212
I00
sg213
(dp3681
g41
VRNG Commonly
p3682
sg43
Nssg217
(lp3683
sg219
(lp3684
(dp3685
g41
VCLG Frosty HCS
p3686
sg43
Nsasg221
I00
sg35
VPT4M59.4070001S
p3687
sg32
VDeath
p3688
sg224
I1
sa(dp3689
g38
I313138863
sg32
VWeaponDrop
p3690
sg180
I0
sg44
(lp3691
I1095363701
asg35
VPT4M59.4090005S
p3692
sg183
I0
sg184
VP0DT0H0M0.8333S
p3693
sg39
(dp3694
g41
VRNG Commonly
p3695
sg43
Nssa(dp3696
g38
I4096745987
sg32
VWeaponDrop
p3697
sg180
I4
sg44
(lp3698
I2758383128
asg35
VPT4M59.4090005S
p3699
sg183
I3
sg184
VP0DT0H0M10.5667S
p3700
sg39
(dp3701
g41
VRNG Commonly
p3702
sg43
Nssa(dp3703
g38
I313138863
sg32
VWeaponDrop
p3704
sg180
I0
sg44
(lp3705
I1095363701
asg35
VPT5M2.7219991S
p3706
sg183
I0
sg184
VP0DT0H0M1.4167S
p3707
sg39
(dp3708
g41
VCLG LethuL HCS
p3709
sg43
Nssa(dp3710
g38
I723388907
sg39
(dp3711
g41
VCLG LethuL HCS
p3712
sg43
Nssg44
(lp3713
I89283061
asg32
VWeaponPickup
p3714
sg35
VPT5M2.7219991S
p3715
sa(dp3716
g38
I313138863
sg39
(dp3717
g41
VCLG Frosty HCS
p3718
sg43
Nssg44
(lp3719
I1095363701
asg32
VWeaponPickup
p3720
sg35
VPT5M5.0900011S
p3721
sa(dp3722
g38
I4096745987
sg39
(dp3723
g41
VCLG Frosty HCS
p3724
sg43
Nssg44
(lp3725
I2758383128
asg32
VWeaponPickup
p3726
sg35
VPT5M5.091001S
p3727
sa(dp3728
g32
VPlayerSpawn
p3729
sg39
(dp3730
g41
VCLG Frosty HCS
p3731
sg43
Nssg35
VPT5M5.091001S
p3732
sa(dp3733
g38
I4096745987
sg32
VWeaponDrop
p3734
sg180
I0
sg44
(lp3735
I2758383128
asg35
VPT5M6.4549985S
p3736
sg183
I0
sg184
VP0DT0H0M7.8833S
p3737
sg39
(dp3738
g41
VRNG Ninja HCS
p3739
sg43
Nssa(dp3740
g38
I4108759423
sg39
(dp3741
g41
VRNG Ninja HCS
p3742
sg43
Nssg44
(lp3743
I2758383128
asg32
VWeaponPickup
p3744
sg35
VPT5M6.4560012S
p3745
sa(dp3746
g38
I313138863
sg39
(dp3747
g41
VRNG Commonly
p3748
sg43
Nssg44
(lp3749
I1095363701
asg32
VWeaponPickup
p3750
sg35
VPT5M7.4240002S
p3751
sa(dp3752
g38
I4096745987
sg39
(dp3753
g41
VRNG Commonly
p3754
sg43
Nssg44
(lp3755
I2758383128
asg32
VWeaponPickup
p3756
sg35
VPT5M7.4240002S
p3757
sa(dp3758
g32
VPlayerSpawn
p3759
sg39
(dp3760
g41
VRNG Commonly
p3761
sg43
Nssg35
VPT5M7.4240002S
p3762
sa(dp3763
g195
I4108759423
sg196
I00
sg197
I00
sg198
(dp3764
g41
VRNG Ninja HCS
p3765
sg43
Nssg201
(lp3766
I2758383128
asg203
I00
sg204
I00
sg205
I2
sg206
I0
sg207
I0
sg208
(dp3767
Vy
F6.37216425
sVx
F8.8044609999999999
sVz
F1.4993802300000001
ssg210
(dp3768
Vy
F0.098377645
sVx
F8.0066159999999993
sVz
F0.71336529999999998
ssg212
I00
sg213
(dp3769
g215
g216
ssg217
(lp3770
sg219
(lp3771
sg221
I00
sg35
VPT5M19.6559999S
p3772
sg32
VDeath
p3773
sg224
I1
sa(dp3774
g195
I47178948
sg196
I00
sg197
I00
sg198
(dp3775
g41
VRNG Ninja HCS
p3776
sg43
Nssg201
(lp3777
sg203
I00
sg204
I00
sg205
I2
sg206
I0
sg207
I0
sg208
(dp3778
Vy
F6.37216425
sVx
F8.8044609999999999
sVz
F1.4993802300000001
ssg210
(dp3779
Vy
F0.10923303700000001
sVx
F8.0052859999999999
sVz
F0.30538895700000002
ssg212
I00
sg213
(dp3780
g215
g216
ssg217
(lp3781
sg219
(lp3782
sg221
I00
sg35
VPT5M19.6559999S
p3783
sg32
VDeath
p3784
sg224
I1
sa(dp3785
g195
I3808094875
sg196
I00
sg197
I00
sg198
(dp3786
g41
VRNG Penguin HCS
p3787
sg43
Nssg201
(lp3788
I2758383128
asg203
I00
sg204
I01
sg205
I1
sg206
I0
sg207
I1
sg208
(dp3789
Vy
F-0.68403780000000003
sVx
F-0.81090503899999999
sVz
F1.04272616
ssg210
(dp3790
Vy
F3.31422639
sVx
F-1.3361481399999999
sVz
F-0.247838691
ssg212
I00
sg213
(dp3791
g41
VCLG Snake Bite
p3792
sg43
Nssg217
(lp3793
sg219
(lp3794
sg221
I00
sg35
VPT5M23.8730009S
p3795
sg32
VDeath
p3796
sg224
I1
sa(dp3797
g38
I669296699
sg32
VWeaponDrop
p3798
sg180
I4
sg44
(lp3799
I2758383128
asg35
VPT5M23.8740009S
p3800
sg183
I2
sg184
VP0DT0H0M46.4500S
p3801
sg39
(dp3802
g41
VCLG Snake Bite
p3803
sg43
Nssa(dp3804
g38
I4096745987
sg32
VWeaponDrop
p3805
sg180
I24
sg44
(lp3806
I2758383128
asg35
VPT5M23.8740009S
p3807
sg183
I13
sg184
VP0DT0H0M56.2167S
p3808
sg39
(dp3809
g41
VCLG Snake Bite
p3810
sg43
Nssa(dp3811
g195
I4054937266
sg196
I00
sg197
I00
sg198
(dp3812
g41
VRammyy
p3813
sg43
Nssg201
(lp3814
I2758383128
asg203
I00
sg204
I01
sg205
I1
sg206
I0
sg207
I1
sg208
(dp3815
Vy
F9.5194580000000002
sVx
F1.2661677600000001
sVz
F1.4982089999999999
ssg210
(dp3816
Vy
F13.8046846
sVx
F5.6787376399999996
sVz
F1.4982566799999999
ssg212
I00
sg213
(dp3817
g41
VRNG Victory X
p3818
sg43
Nssg217
(lp3819
sg219
(lp3820
(dp3821
g41
VCLG Frosty HCS
p3822
sg43
Nsasg221
I00
sg35
VPT5M23.9220003S
p3823
sg32
VDeath
p3824
sg224
I1
sa(dp3825
g38
I313138863
sg32
VWeaponDrop
p3826
sg180
I0
sg44
(lp3827
I1095363701
asg35
VPT5M23.9240005S
p3828
sg183
I0
sg184
VP0DT0H0M2.0500S
p3829
sg39
(dp3830
g41
VRNG Victory X
p3831
sg43
Nssa(dp3832
g38
I4096745987
sg32
VWeaponDrop
p3833
sg180
I0
sg44
(lp3834
I2758383128
asg35
VPT5M23.9240005S
p3835
sg183
I0
sg184
VP0DT0H0M31.5667S
p3836
sg39
(dp3837
g41
VRNG Victory X
p3838
sg43
Nssa(dp3839
g195
I4054937266
sg196
I00
sg197
I00
sg198
(dp3840
g41
VRammyy
p3841
sg43
Nssg201
(lp3842
I2758383128
asg203
I00
sg204
I01
sg205
I1
sg206
I0
sg207
I1
sg208
(dp3843
Vy
F9.9145909999999997
sVx
F0.82710539999999999
sVz
F1.4982089999999999
ssg210
(dp3844
Vy
F14.476706500000001
sVx
F5.9019784900000003
sVz
F1.66228259
ssg212
I00
sg213
(dp3845
g41
VRNG Ninja HCS
p3846
sg43
Nssg217
(lp3847
sg219
(lp3848
sg221
I00
sg35
VPT5M24.1720002S
p3849
sg32
VDeath
p3850
sg224
I1
sa(dp3851
g32
VMedal
p3852
sg39
(dp3853
g41
VRammyy
p3854
sg43
Nssg321
I2078758684
sg35
VPT5M24.1740007S
p3855
sa(dp3856
g38
I313138863
sg32
VWeaponDrop
p3857
sg180
I0
sg44
(lp3858
I1095363701
asg35
VPT5M24.1740007S
p3859
sg183
I0
sg184
VP0DT0H0M0.4500S
p3860
sg39
(dp3861
g41
VRNG Ninja HCS
p3862
sg43
Nssa(dp3863
g38
I4108759423
sg32
VWeaponDrop
p3864
sg180
I4
sg44
(lp3865
I2758383128
asg35
VPT5M24.1740007S
p3866
sg183
I1
sg184
VP0DT0H0M17.7167S
p3867
sg39
(dp3868
g41
VRNG Ninja HCS
p3869
sg43
Nssa(dp3870
g195
I313138863
sg196
I00
sg197
I00
sg198
(dp3871
g41
VRNG Commonly
p3872
sg43
Nssg201
(lp3873
I1095363701
asg203
I00
sg204
I01
sg205
I1
sg206
I0
sg207
I1
sg208
(dp3874
Vy
F8.8998840000000001
sVx
F4.2779755599999998
sVz
F2.4176310000000001
ssg210
(dp3875
Vy
F10.288287199999999
sVx
F1.87104011
sVz
F2.1691024300000001
ssg212
I00
sg213
(dp3876
g41
VRammyy
p3877
sg43
Nssg217
(lp3878
sg219
(lp3879
sg221
I00
sg35
VPT5M29.2730007S
p3880
sg32
VDeath
p3881
sg224
I1
sa(dp3882
g38
I4054937266
sg32
VWeaponDrop
p3883
sg180
I9
sg44
(lp3884
I2758383128
asg35
VPT5M29.2750007S
p3885
sg183
I8
sg184
VP0DT0H0M52.7667S
p3886
sg39
(dp3887
g41
VRammyy
p3888
sg43
Nssa(dp3889
g38
I4096745987
sg32
VWeaponDrop
p3890
sg180
I5
sg44
(lp3891
I2758383128
asg35
VPT5M29.2750007S
p3892
sg183
I1
sg184
VP0DT0H0M28.2500S
p3893
sg39
(dp3894
g41
VRammyy
p3895
sg43
Nssa(dp3896
g38
I4096745987
sg32
VWeaponDrop
p3897
sg180
I0
sg44
(lp3898
I2758383128
asg35
VPT5M29.2750007S
p3899
sg183
I0
sg184
VP0DT0S
p3900
sg39
(dp3901
g41
VRammyy
p3902
sg43
Nssa(dp3903
g195
I4054937266
sg196
I00
sg197
I00
sg198
(dp3904
g41
VRammyy
p3905
sg43
Nssg201
(lp3906
I2758383128
asg203
I00
sg204
I01
sg205
I1
sg206
I0
sg207
I1
sg208
(dp3907
Vy
F10.273558599999999
sVx
F1.83232141
sVz
F2.2568476199999998
ssg210
(dp3908
Vy
F8.8233920000000001
sVx
F4.2806470000000001
sVz
F2.4235107899999999
ssg212
I00
sg213
(dp3909
g41
VRNG Commonly
p3910
sg43
Nssg217
(lp3911
sg219
(lp3912
sg221
I00
sg35
VPT5M29.3220007S
p3913
sg32
VDeath
p3914
sg224
I1
sa(dp3915
g38
I313138863
sg32
VWeaponDrop
p3916
sg180
I28
sg44
(lp3917
I1095363701
asg35
VPT5M29.3240006S
p3918
sg183
I15
sg184
VP0DT0H0M5.1833S
p3919
sg39
(dp3920
g41
VRNG Commonly
p3921
sg43
Nssa(dp3922
g38
I4096745987
sg32
VWeaponDrop
p3923
sg180
I2
sg44
(lp3924
I2758383128
asg35
VPT5M29.3240006S
p3925
sg183
I0
sg184
VP0DT0H0M16.7167S
p3926
sg39
(dp3927
g41
VRNG Commonly
p3928
sg43
Nssa(dp3929
g195
I4096745987
sg196
I00
sg197
I00
sg198
(dp3930
g41
VRNG Penguin HCS
p3931
sg43
Nssg201
(lp3932
I2758383128
asg203
I00
sg204
I01
sg205
I1
sg206
I0
sg207
I1
sg208
(dp3933
Vy
F-0.79203800000000002
sVx
F1.4485278100000001
sVz
F1.41849732
ssg210
(dp3934
Vy
F6.7298179999999999
sVx
F5.2618393899999996
sVz
F1.47933972
ssg212
I00
sg213
(dp3935
g41
VCLG Frosty HCS
p3936
sg43
Nssg217
(lp3937
sg219
(lp3938
sg221
I01
sg35
VPT5M31.6390003S
p3939
sg32
VDeath
p3940
sg224
I1
sa(dp3941
g32
VMedal
p3942
sg39
(dp3943
g41
VRNG Penguin HCS
p3944
sg43
Nssg321
I3261908037
sg35
VPT5M31.6400006S
p3945
sa(dp3946
g38
I313138863
sg32
VWeaponDrop
p3947
sg180
I8
sg44
(lp3948
I1095363701
asg35
VPT5M31.6410007S
p3949
sg183
I4
sg184
VP0DT0H0M3.9833S
p3950
sg39
(dp3951
g41
VCLG Frosty HCS
p3952
sg43
Nssa(dp3953
g38
I4096745987
sg32
VWeaponDrop
p3954
sg180
I8
sg44
(lp3955
I2758383128
asg35
VPT5M31.6410007S
p3956
sg183
I5
sg184
VP0DT0H0M22.5667S
p3957
sg39
(dp3958
g41
VCLG Frosty HCS
p3959
sg43
Nssa(dp3960
g38
I313138863
sg39
(dp3961
g41
VCLG Snake Bite
p3962
sg43
Nssg44
(lp3963
I1095363701
asg32
VWeaponPickup
p3964
sg35
VPT5M31.8890008S
p3965
sa(dp3966
g38
I4096745987
sg39
(dp3967
g41
VCLG Snake Bite
p3968
sg43
Nssg44
(lp3969
I2758383128
asg32
VWeaponPickup
p3970
sg35
VPT5M31.8890008S
p3971
sa(dp3972
g32
VPlayerSpawn
p3973
sg39
(dp3974
g41
VCLG Snake Bite
p3975
sg43
Nssg35
VPT5M31.8890008S
p3976
sa(dp3977
g38
I313138863
sg39
(dp3978
g41
VRNG Victory X
p3979
sg43
Nssg44
(lp3980
I1095363701
asg32
VWeaponPickup
p3981
sg35
VPT5M31.9390005S
p3982
sa(dp3983
g38
I4096745987
sg39
(dp3984
g41
VRNG Victory X
p3985
sg43
Nssg44
(lp3986
I2758383128
asg32
VWeaponPickup
p3987
sg35
VPT5M31.9400007S
p3988
sa(dp3989
g32
VPlayerSpawn
p3990
sg39
(dp3991
g41
VRNG Victory X
p3992
sg43
Nssg35
VPT5M31.9400007S
p3993
sa(dp3994
g38
I313138863
sg39
(dp3995
g41
VRNG Ninja HCS
p3996
sg43
Nssg44
(lp3997
I1095363701
asg32
VWeaponPickup
p3998
sg35
VPT5M32.1890005S
p3999
sa(dp4000
g38
I4096745987
sg39
(dp4001
g41
VRNG Ninja HCS
p4002
sg43
Nssg44
(lp4003
I2758383128
asg32
VWeaponPickup
p4004
sg35
VPT5M32.1900009S
p4005
sa(dp4006
g32
VPlayerSpawn
p4007
sg39
(dp4008
g41
VRNG Ninja HCS
p4009
sg43
Nssg35
VPT5M32.1900009S
p4010
sa(dp4011
g38
I313138863
sg32
VWeaponDrop
p4012
sg180
I0
sg44
(lp4013
I1095363701
asg35
VPT5M36.6709993S
p4014
sg183
I0
sg184
VP0DT0H0M0.8000S
p4015
sg39
(dp4016
g41
VRNG Victory X
p4017
sg43
Nssa(dp4018
g38
I4054937266
sg39
(dp4019
g41
VRNG Victory X
p4020
sg43
Nssg44
(lp4021
I2758383128
asg32
VWeaponPickup
p4022
sg35
VPT5M36.6709993S
p4023
sa(dp4024
g38
I313138863
sg39
(dp4025
g41
VRammyy
p4026
sg43
Nssg44
(lp4027
I1095363701
asg32
VWeaponPickup
p4028
sg35
VPT5M37.2890008S
p4029
sa(dp4030
g38
I4096745987
sg39
(dp4031
g41
VRammyy
p4032
sg43
Nssg44
(lp4033
I2758383128
asg32
VWeaponPickup
p4034
sg35
VPT5M37.2900012S
p4035
sa(dp4036
g32
VPlayerSpawn
p4037
sg39
(dp4038
g41
VRammyy
p4039
sg43
Nssg35
VPT5M37.2900012S
p4040
sa(dp4041
g38
I313138863
sg39
(dp4042
g41
VRNG Commonly
p4043
sg43
Nssg44
(lp4044
I1095363701
asg32
VWeaponPickup
p4045
sg35
VPT5M37.339001S
p4046
sa(dp4047
g38
I4096745987
sg39
(dp4048
g41
VRNG Commonly
p4049
sg43
Nssg44
(lp4050
I2758383128
asg32
VWeaponPickup
p4051
sg35
VPT5M37.339001S
p4052
sa(dp4053
g32
VPlayerSpawn
p4054
sg39
(dp4055
g41
VRNG Commonly
p4056
sg43
Nssg35
VPT5M37.339001S
p4057
sa(dp4058
g38
I4096745987
sg32
VWeaponDrop
p4059
sg180
I0
sg44
(lp4060
I2758383128
asg35
VPT5M39.253999S
p4061
sg183
I0
sg184
VP0DT0H0M4.1500S
p4062
sg39
(dp4063
g41
VRNG Victory X
p4064
sg43
Nssa(dp4065
g38
I4108759423
sg39
(dp4066
g41
VRNG Victory X
p4067
sg43
Nssg44
(lp4068
I2758383128
asg32
VWeaponPickup
p4069
sg35
VPT5M39.253999S
p4070
sa(dp4071
g38
I4096745987
sg32
VWeaponDrop
p4072
sg180
I0
sg44
(lp4073
I2758383128
asg35
VPT5M39.4869992S
p4074
sg183
I0
sg184
VP0DT0H0M0.7167S
p4075
sg39
(dp4076
g41
VRammyy
p4077
sg43
Nssa(dp4078
g38
I424645655
sg39
(dp4079
g41
VRammyy
p4080
sg43
Nssg44
(lp4081
I1327094800
asg32
VWeaponPickup
p4082
sg35
VPT5M39.4880009S
p4083
sa(dp4084
g38
I313138863
sg39
(dp4085
g41
VCLG Frosty HCS
p4086
sg43
Nssg44
(lp4087
I1095363701
asg32
VWeaponPickup
p4088
sg35
VPT5M39.6560011S
p4089
sa(dp4090
g38
I4096745987
sg39
(dp4091
g41
VCLG Frosty HCS
p4092
sg43
Nssg44
(lp4093
I2758383128
asg32
VWeaponPickup
p4094
sg35
VPT5M39.6560011S
p4095
sa(dp4096
g32
VPlayerSpawn
p4097
sg39
(dp4098
g41
VCLG Frosty HCS
p4099
sg43
Nssg35
VPT5M39.6560011S
p4100
sa(dp4101
g195
I4096745987
sg196
I00
sg197
I00
sg198
(dp4102
g41
VCLG Snake Bite
p4103
sg43
Nssg201
(lp4104
I2758383128
asg203
I00
sg204
I01
sg205
I1
sg206
I0
sg207
I1
sg208
(dp4105
Vy
F7.9577546100000003
sVx
F-2.796843
sVz
F2.3535501999999999
ssg210
(dp4106
Vy
F10.3722353
sVx
F3.9185183000000001
sVz
F2.10751271
ssg212
I00
sg213
(dp4107
g41
VRNG Ninja HCS
p4108
sg43
Nssg217
(lp4109
sg219
(lp4110
(dp4111
g41
VRammyy
p4112
sg43
Nsa(dp4113
g41
VCLG LethuL HCS
p4114
sg43
Nsasg221
I00
sg35
VPT5M46.4380005S
p4115
sg32
VDeath
p4116
sg224
I1
sa(dp4117
g38
I313138863
sg32
VWeaponDrop
p4118
sg180
I0
sg44
(lp4119
I1095363701
asg35
VPT5M46.4409998S
p4120
sg183
I0
sg184
VP0DT0H0M2.1833S
p4121
sg39
(dp4122
g41
VRNG Ninja HCS
p4123
sg43
Nssa(dp4124
g38
I4096745987
sg32
VWeaponDrop
p4125
sg180
I7
sg44
(lp4126
I2758383128
asg35
VPT5M46.4409998S
p4127
sg183
I1
sg184
VP0DT0H0M12.0667S
p4128
sg39
(dp4129
g41
VRNG Ninja HCS
p4130
sg43
Nssa(dp4131
g195
I4096745987
sg196
I00
sg197
I00
sg198
(dp4132
g41
VRNG Penguin HCS
p4133
sg43
Nssg201
(lp4134
I2758383128
asg203
I00
sg204
I01
sg205
I1
sg206
I0
sg207
I1
sg208
(dp4135
Vy
F-0.69304529999999998
sVx
F2.998424
sVz
F3.0178291800000001
ssg210
(dp4136
Vy
F13.201829999999999
sVx
F-9.9390289999999997
sVz
F1.4995212600000001
ssg212
I00
sg213
(dp4137
g41
VCLG LethuL HCS
p4138
sg43
Nssg217
(lp4139
sg219
(lp4140
sg221
I01
sg35
VPT5M48.9550005S
p4141
sg32
VDeath
p4142
sg224
I1
sa(dp4143
g32
VMedal
p4144
sg39
(dp4145
g41
VRNG Commonly
p4146
sg43
Nssg321
I824733727
sg35
VPT5M48.9570002S
p4147
sa(dp4148
g32
VMedal
p4149
sg39
(dp4150
g41
VRNG Penguin HCS
p4151
sg43
Nssg321
I3261908037
sg35
VPT5M48.9570002S
p4152
sa(dp4153
g38
I723388907
sg32
VWeaponDrop
p4154
sg180
I0
sg44
(lp4155
I89283061
asg35
VPT5M48.9579999S
p4156
sg183
I0
sg184
VP0DT0H0M0.4833S
p4157
sg39
(dp4158
g41
VCLG LethuL HCS
p4159
sg43
Nssa(dp4160
g38
I4096745987
sg32
VWeaponDrop
p4161
sg180
I14
sg44
(lp4162
I2758383128
asg35
VPT5M48.9579999S
p4163
sg183
I6
sg184
VP0DT0H0M49.0500S
p4164
sg39
(dp4165
g41
VCLG LethuL HCS
p4166
sg43
Nssa(dp4167
g195
I4096745987
sg196
I00
sg197
I00
sg198
(dp4168
g41
VCLG Snake Bite
p4169
sg43
Nssg201
(lp4170
I2758383128
asg203
I00
sg204
I01
sg205
I1
sg206
I0
sg207
I1
sg208
(dp4171
Vy
F16.038791700000001
sVx
F-3.16936851
sVz
F1.4997649200000001
ssg210
(dp4172
Vy
F22.023070000000001
sVx
F-10.7509508
sVz
F1.5033741
ssg212
I00
sg213
(dp4173
g41
VRNG Commonly
p4174
sg43
Nssg217
(lp4175
sg219
(lp4176
(dp4177
g41
VCLG LethuL HCS
p4178
sg43
Nsasg221
I01
sg35
VPT5M49.671S
p4179
sg32
VDeath
p4180
sg224
I1
sa(dp4181
g32
VMedal
p4182
sg39
(dp4183
g41
VCLG Snake Bite
p4184
sg43
Nssg321
I3261908037
sg35
VPT5M49.6730003S
p4185
sa(dp4186
g32
VMedal
p4187
sg39
(dp4188
g41
VCLG Snake Bite
p4189
sg43
Nssg321
I2078758684
sg35
VPT5M49.6730003S
p4190
sa(dp4191
g38
I313138863
sg32
VWeaponDrop
p4192
sg180
I0
sg44
(lp4193
I1095363701
asg35
VPT5M49.6740001S
p4194
sg183
I0
sg184
VP0DT0H0M1.3167S
p4195
sg39
(dp4196
g41
VRNG Commonly
p4197
sg43
Nssa(dp4198
g38
I4096745987
sg32
VWeaponDrop
p4199
sg180
I3
sg44
(lp4200
I2758383128
asg35
VPT5M49.6740001S
p4201
sg183
I0
sg184
VP0DT0H0M11.0167S
p4202
sg39
(dp4203
g41
VRNG Commonly
p4204
sg43
Nssa(dp4205
g38
I313138863
sg32
VWeaponDrop
p4206
sg180
I0
sg44
(lp4207
I1095363701
asg35
VPT5M53.0369992S
p4208
sg183
I0
sg184
VP0DT0H0M1.6500S
p4209
sg39
(dp4210
g41
VRammyy
p4211
sg43
Nssa(dp4212
g38
I723388907
sg39
(dp4213
g41
VRammyy
p4214
sg43
Nssg44
(lp4215
I89283061
asg32
VWeaponPickup
p4216
sg35
VPT5M53.0369992S
p4217
sa(dp4218
g195
I4096745987
sg196
I00
sg197
I00
sg198
(dp4219
g41
VRNG Penguin HCS
p4220
sg43
Nssg201
(lp4221
I2758383128
asg203
I00
sg204
I01
sg205
I1
sg206
I0
sg207
I1
sg208
(dp4222
Vy
F-1.0147116199999999
sVx
F2.8862037699999998
sVz
F3.4035563500000001
ssg210
(dp4223
Vy
F1.9572186499999999
sVx
F2.5088699999999999
sVz
F1.1217814699999999
ssg212
I00
sg213
(dp4224
g41
VCLG Frosty HCS
p4225
sg43
Nssg217
(lp4226
sg219
(lp4227
(dp4228
g41
VRNG Victory X
p4229
sg43
Nsasg221
I01
sg35
VPT5M53.5550009S
p4230
sg32
VDeath
p4231
sg224
I1
sa(dp4232
g32
VMedal
p4233
sg39
(dp4234
g41
VRNG Penguin HCS
p4235
sg43
Nssg321
I3261908037
sg35
VPT5M53.5560008S
p4236
sa(dp4237
g32
VMedal
p4238
sg39
(dp4239
g41
VRNG Penguin HCS
p4240
sg43
Nssg321
I2430242797
sg35
VPT5M53.5560008S
p4241
sa(dp4242
g32
VMedal
p4243
sg39
(dp4244
g41
VRNG Penguin HCS
p4245
sg43
Nssg321
I2078758684
sg35
VPT5M53.557S
p4246
sa(dp4247
g38
I313138863
sg32
VWeaponDrop
p4248
sg180
I21
sg44
(lp4249
I1095363701
asg35
VPT5M53.557S
p4250
sg183
I13
sg184
VP0DT0H0M4.4000S
p4251
sg39
(dp4252
g41
VCLG Frosty HCS
p4253
sg43
Nssa(dp4254
g38
I4096745987
sg32
VWeaponDrop
p4255
sg180
I0
sg44
(lp4256
I2758383128
asg35
VPT5M53.557S
p4257
sg183
I0
sg184
VP0DT0H0M9.5000S
p4258
sg39
(dp4259
g41
VCLG Frosty HCS
p4260
sg43
Nssa(dp4261
g38
I313138863
sg39
(dp4262
g41
VRNG Ninja HCS
p4263
sg43
Nssg44
(lp4264
I1095363701
asg32
VWeaponPickup
p4265
sg35
VPT5M54.4550009S
p4266
sa(dp4267
g38
I4096745987
sg39
(dp4268
g41
VRNG Ninja HCS
p4269
sg43
Nssg44
(lp4270
I2758383128
asg32
VWeaponPickup
p4271
sg35
VPT5M54.4550009S
p4272
sa(dp4273
g32
VPlayerSpawn
p4274
sg39
(dp4275
g41
VRNG Ninja HCS
p4276
sg43
Nssg35
VPT5M54.4550009S
p4277
sa(dp4278
g195
I424645655
sg196
I00
sg197
I00
sg198
(dp4279
g41
VRammyy
p4280
sg43
Nssg201
(lp4281
I1327094800
asg203
I00
sg204
I01
sg205
I1
sg206
I0
sg207
I1
sg208
(dp4282
Vy
F13.1616125
sVx
F-9.4933739999999993
sVz
F1.4995212600000001
ssg210
(dp4283
Vy
F-0.71314805699999995
sVx
F3.7618601300000001
sVz
F3.4214172399999998
ssg212
I00
sg213
(dp4284
g41
VRNG Penguin HCS
p4285
sg43
Nssg217
(lp4286
sg219
(lp4287
(dp4288
g41
VCLG Frosty HCS
p4289
sg43
Nsasg221
I00
sg35
VPT5M55.2039995S
p4290
sg32
VDeath
p4291
sg224
I1
sa(dp4292
g32
VMedal
p4293
sg39
(dp4294
g41
VCLG Snake Bite
p4295
sg43
Nssg321
I824733727
sg35
VPT5M55.205001S
p4296
sa(dp4297
g38
I3808094875
sg32
VWeaponDrop
p4298
sg180
I16
sg44
(lp4299
I2758383128
asg35
VPT5M55.2060001S
p4300
sg183
I4
sg184
VP0DT0H0M32.8500S
p4301
sg39
(dp4302
g41
VRNG Penguin HCS
p4303
sg43
Nssa(dp4304
g38
I4096745987
sg32
VWeaponDrop
p4305
sg180
I33
sg44
(lp4306
I2758383128
asg35
VPT5M55.2060001S
p4307
sg183
I21
sg184
VP0DT0H0M57.9000S
p4308
sg39
(dp4309
g41
VRNG Penguin HCS
p4310
sg43
Nssa(dp4311
g195
I4096745987
sg196
I00
sg197
I00
sg198
(dp4312
g41
VCLG Snake Bite
p4313
sg43
Nssg201
(lp4314
I2758383128
asg203
I00
sg204
I01
sg205
I1
sg206
I0
sg207
I1
sg208
(dp4315
Vy
F10.244574500000001
sVx
F2.0649060000000001
sVz
F1.64826608
ssg210
(dp4316
Vy
F3.1322476899999998
sVx
F4.0425672500000003
sVz
F2.2800259999999999
ssg212
I00
sg213
(dp4317
g41
VRNG Victory X
p4318
sg43
Nssg217
(lp4319
sg219
(lp4320
sg221
I01
sg35
VPT5M55.3880005S
p4321
sg32
VDeath
p4322
sg224
I1
sa(dp4323
g32
VImpulse
p4324
sg39
(dp4325
g41
VCLG Snake Bite
p4326
sg43
Nssg486
I3174430457
sg35
VPT5M55.3900002S
p4327
sa(dp4328
g32
VMedal
p4329
sg39
(dp4330
g41
VCLG Snake Bite
p4331
sg43
Nssg321
I3653057799
sg35
VPT5M55.391S
p4332
sa(dp4333
g38
I4054937266
sg32
VWeaponDrop
p4334
sg180
I5
sg44
(lp4335
I2758383128
asg35
VPT5M55.3920007S
p4336
sg183
I2
sg184
VP0DT0H0M8.2000S
p4337
sg39
(dp4338
g41
VRNG Victory X
p4339
sg43
Nssa(dp4340
g38
I4108759423
sg32
VWeaponDrop
p4341
sg180
I11
sg44
(lp4342
I2758383128
asg35
VPT5M55.3920007S
p4343
sg183
I3
sg184
VP0DT0H0M10.3000S
p4344
sg39
(dp4345
g41
VRNG Victory X
p4346
sg43
Nssa(dp4347
g38
I313138863
sg39
(dp4348
g41
VCLG LethuL HCS
p4349
sg43
Nssg44
(lp4350
I1095363701
asg32
VWeaponPickup
p4351
sg35
VPT5M56.972001S
p4352
sa(dp4353
g38
I4096745987
sg39
(dp4354
g41
VCLG LethuL HCS
p4355
sg43
Nssg44
(lp4356
I2758383128
asg32
VWeaponPickup
p4357
sg35
VPT5M56.972001S
p4358
sa(dp4359
g32
VPlayerSpawn
p4360
sg39
(dp4361
g41
VCLG LethuL HCS
p4362
sg43
Nssg35
VPT5M56.972001S
p4363
sa(dp4364
g38
I313138863
sg39
(dp4365
g41
VRNG Commonly
p4366
sg43
Nssg44
(lp4367
I1095363701
asg32
VWeaponPickup
p4368
sg35
VPT5M57.6880006S
p4369
sa(dp4370
g38
I4096745987
sg39
(dp4371
g41
VRNG Commonly
p4372
sg43
Nssg44
(lp4373
I2758383128
asg32
VWeaponPickup
p4374
sg35
VPT5M57.689001S
p4375
sa(dp4376
g32
VPlayerSpawn
p4377
sg39
(dp4378
g41
VRNG Commonly
p4379
sg43
Nssg35
VPT5M57.689001S
p4380
sa(dp4381
g38
I313138863
sg39
(dp4382
g41
VCLG Frosty HCS
p4383
sg43
Nssg44
(lp4384
I1095363701
asg32
VWeaponPickup
p4385
sg35
VPT6M1.571001S
p4386
sa(dp4387
g38
I4096745987
sg39
(dp4388
g41
VCLG Frosty HCS
p4389
sg43
Nssg44
(lp4390
I2758383128
asg32
VWeaponPickup
p4391
sg35
VPT6M1.572001S
p4392
sa(dp4393
g32
VPlayerSpawn
p4394
sg39
(dp4395
g41
VCLG Frosty HCS
p4396
sg43
Nssg35
VPT6M1.572001S
p4397
sa(dp4398
g38
I313138863
sg39
(dp4399
g41
VRNG Penguin HCS
p4400
sg43
Nssg44
(lp4401
I1095363701
asg32
VWeaponPickup
p4402
sg35
VPT6M3.2210012S
p4403
sa(dp4404
g38
I4096745987
sg39
(dp4405
g41
VRNG Penguin HCS
p4406
sg43
Nssg44
(lp4407
I2758383128
asg32
VWeaponPickup
p4408
sg35
VPT6M3.2220007S
p4409
sa(dp4410
g32
VPlayerSpawn
p4411
sg39
(dp4412
g41
VRNG Penguin HCS
p4413
sg43
Nssg35
VPT6M3.2220007S
p4414
sa(dp4415
g38
I313138863
sg39
(dp4416
g41
VRNG Victory X
p4417
sg43
Nssg44
(lp4418
I1095363701
asg32
VWeaponPickup
p4419
sg35
VPT6M3.4050004S
p4420
sa(dp4421
g38
I4096745987
sg39
(dp4422
g41
VRNG Victory X
p4423
sg43
Nssg44
(lp4424
I2758383128
asg32
VWeaponPickup
p4425
sg35
VPT6M3.4050004S
p4426
sa(dp4427
g32
VPlayerSpawn
p4428
sg39
(dp4429
g41
VRNG Victory X
p4430
sg43
Nssg35
VPT6M3.4050004S
p4431
sa(dp4432
g32
VMedal
p4433
sg39
(dp4434
g41
VCLG Snake Bite
p4435
sg43
Nssg321
I3400287617
sg35
VPT6M4.8040008S
p4436
sa(dp4437
g195
I4106030681
sg196
I00
sg197
I00
sg198
(dp4438
g41
VRNG Victory X
p4439
sg43
Nssg201
(lp4440
sg203
I00
sg204
I01
sg205
I1
sg206
I0
sg207
I1
sg208
(dp4441
Vy
F3.857999
sVx
F-15.84064
sVz
F1.1691525
ssg210
(dp4442
Vy
F8.8439239999999995
sVx
F1.07880306
sVz
F2.41016626
ssg212
I00
sg213
(dp4443
g41
VCLG Frosty HCS
p4444
sg43
Nssg217
(lp4445
sg219
(lp4446
(dp4447
g41
VRNG Ninja HCS
p4448
sg43
Nsasg221
I00
sg35
VPT6M8.7040003S
p4449
sg32
VDeath
p4450
sg224
I1
sa(dp4451
g32
VMedal
p4452
sg39
(dp4453
g41
VRNG Commonly
p4454
sg43
Nssg321
I824733727
sg35
VPT6M8.7060002S
p4455
sa(dp4456
g32
VMedal
p4457
sg39
(dp4458
g41
VRNG Victory X
p4459
sg43
Nssg321
I3491849182
sg35
VPT6M8.7060002S
p4460
sa(dp4461
g38
I313138863
sg32
VWeaponDrop
p4462
sg180
I0
sg44
(lp4463
I1095363701
asg35
VPT6M8.7070005S
p4464
sg183
I0
sg184
VP0DT0H0M0.5833S
p4465
sg39
(dp4466
g41
VCLG Frosty HCS
p4467
sg43
Nssa(dp4468
g38
I4096745987
sg32
VWeaponDrop
p4469
sg180
I4
sg44
(lp4470
I2758383128
asg35
VPT6M8.7070005S
p4471
sg183
I2
sg184
VP0DT0H0M6.5500S
p4472
sg39
(dp4473
g41
VCLG Frosty HCS
p4474
sg43
Nssa(dp4475
g38
I4096745987
sg32
VWeaponDrop
p4476
sg180
I0
sg44
(lp4477
I2758383128
asg35
VPT6M9.7359985S
p4478
sg183
I0
sg184
VP0DT0H0M6.0500S
p4479
sg39
(dp4480
g41
VRNG Victory X
p4481
sg43
Nssa(dp4482
g38
I424645655
sg39
(dp4483
g41
VRNG Victory X
p4484
sg43
Nssg44
(lp4485
I1327094800
asg32
VWeaponPickup
p4486
sg35
VPT6M9.7359985S
p4487
sa(dp4488
g38
I313138863
sg32
VWeaponDrop
p4489
sg180
I0
sg44
(lp4490
I1095363701
asg35
VPT6M10.3359994S
p4491
sg183
I0
sg184
VP0DT0H0M2.5167S
p4492
sg39
(dp4493
g41
VRNG Penguin HCS
p4494
sg43
Nssa(dp4495
g38
I723388907
sg39
(dp4496
g41
VRNG Penguin HCS
p4497
sg43
Nssg44
(lp4498
I89283061
asg32
VWeaponPickup
p4499
sg35
VPT6M10.3359994S
p4500
sa(dp4501
g38
I313138863
sg39
(dp4502
g41
VCLG Frosty HCS
p4503
sg43
Nssg44
(lp4504
I1095363701
asg32
VWeaponPickup
p4505
sg35
VPT6M16.721001S
p4506
sa(dp4507
g38
I4096745987
sg39
(dp4508
g41
VCLG Frosty HCS
p4509
sg43
Nssg44
(lp4510
I2758383128
asg32
VWeaponPickup
p4511
sg35
VPT6M16.721001S
p4512
sa(dp4513
g32
VPlayerSpawn
p4514
sg39
(dp4515
g41
VCLG Frosty HCS
p4516
sg43
Nssg35
VPT6M16.721001S
p4517
sa(dp4518
g195
I723388907
sg196
I00
sg197
I00
sg198
(dp4519
g41
VRNG Penguin HCS
p4520
sg43
Nssg201
(lp4521
I89283061
asg203
I00
sg204
I01
sg205
I1
sg206
I0
sg207
I1
sg208
(dp4522
Vy
F15.7220469
sVx
F-16.202652
sVz
F-0.322655529
ssg210
(dp4523
Vy
F12.1375856
sVx
F-10.1657677
sVz
F-0.89672719999999995
ssg212
I00
sg213
(dp4524
g41
VRammyy
p4525
sg43
Nssg217
(lp4526
sg219
(lp4527
sg221
I00
sg35
VPT6M18.1210007S
p4528
sg32
VDeath
p4529
sg224
I1
sa(dp4530
g32
VMedal
p4531
sg39
(dp4532
g41
VRNG Penguin HCS
p4533
sg43
Nssg321
I2782465081
sg35
VPT6M18.1220007S
p4534
sa(dp4535
g38
I723388907
sg32
VWeaponDrop
p4536
sg180
I24
sg44
(lp4537
I89283061
asg35
VPT6M18.1229999S
p4538
sg183
I14
sg184
VP0DT0H0M4.0667S
p4539
sg39
(dp4540
g41
VRammyy
p4541
sg43
Nssa(dp4542
g38
I424645655
sg32
VWeaponDrop
p4543
sg180
I24
sg44
(lp4544
I1327094800
asg35
VPT6M18.1229999S
p4545
sg183
I5
sg184
VP0DT0H0M34.4000S
p4546
sg39
(dp4547
g41
VRammyy
p4548
sg43
Nssa(dp4549
g195
I4096745987
sg196
I00
sg197
I00
sg198
(dp4550
g41
VRNG Commonly
p4551
sg43
Nssg201
(lp4552
I2758383128
asg203
I00
sg204
I01
sg205
I1
sg206
I0
sg207
I1
sg208
(dp4553
Vy
F16.829368599999999
sVx
F-0.53172759999999997
sVz
F-1.8332729999999999
ssg210
(dp4554
Vy
F23.280965800000001
sVx
F-5.3040247000000003
sVz
F-0.89672189999999996
ssg212
I00
sg213
(dp4555
g41
VCLG LethuL HCS
p4556
sg43
Nssg217
(lp4557
sg219
(lp4558
(dp4559
g41
VRNG Penguin HCS
p4560
sg43
Nsasg221
I01
sg35
VPT6M18.8870003S
p4561
sg32
VDeath
p4562
sg224
I1
sa(dp4563
g32
VMedal
p4564
sg39
(dp4565
g41
VRNG Commonly
p4566
sg43
Nssg321
I3261908037
sg35
VPT6M18.8890002S
p4567
sa(dp4568
g38
I313138863
sg32
VWeaponDrop
p4569
sg180
I0
sg44
(lp4570
I1095363701
asg35
VPT6M18.8890002S
p4571
sg183
I0
sg184
VP0DT0H0M0.7667S
p4572
sg39
(dp4573
g41
VCLG LethuL HCS
p4574
sg43
Nssa(dp4575
g38
I4096745987
sg32
VWeaponDrop
p4576
sg180
I1
sg44
(lp4577
I2758383128
asg35
VPT6M18.8890002S
p4578
sg183
I0
sg184
VP0DT0H0M21.1500S
p4579
sg39
(dp4580
g41
VCLG LethuL HCS
p4581
sg43
Nssa(dp4582
g32
VMedal
p4583
sg39
(dp4584
g41
VRNG Penguin HCS
p4585
sg43
Nssg321
I3400287617
sg35
VPT6M22.036S
p4586
sa(dp4587
g38
I313138863
sg32
VWeaponDrop
p4588
sg180
I0
sg44
(lp4589
I1095363701
asg35
VPT6M24.9349989S
p4590
sg183
I0
sg184
VP0DT0H0M5.6333S
p4591
sg39
(dp4592
g41
VRNG Victory X
p4593
sg43
Nssa(dp4594
g38
I669296699
sg39
(dp4595
g41
VRNG Victory X
p4596
sg43
Nssg44
(lp4597
I2758383128
asg32
VWeaponPickupPad
p4598
sg35
VPT6M24.9360004S
p4599
sa(dp4600
g38
I669296699
sg39
(dp4601
g41
VRNG Victory X
p4602
sg43
Nssg44
(lp4603
I2758383128
asg32
VWeaponPickup
p4604
sg35
VPT6M24.9360004S
p4605
sa(dp4606
g38
I313138863
sg39
(dp4607
g41
VRammyy
p4608
sg43
Nssg44
(lp4609
I1095363701
asg32
VWeaponPickup
p4610
sg35
VPT6M26.1370008S
p4611
sa(dp4612
g38
I4096745987
sg39
(dp4613
g41
VRammyy
p4614
sg43
Nssg44
(lp4615
I2758383128
asg32
VWeaponPickup
p4616
sg35
VPT6M26.138001S
p4617
sa(dp4618
g32
VPlayerSpawn
p4619
sg39
(dp4620
g41
VRammyy
p4621
sg43
Nssg35
VPT6M26.138001S
p4622
sa(dp4623
g38
I313138863
sg32
VWeaponDrop
p4624
sg180
I0
sg44
(lp4625
I1095363701
asg35
VPT6M26.5849989S
p4626
sg183
I0
sg184
VP0DT0H0M1.4667S
p4627
sg39
(dp4628
g41
VRNG Commonly
p4629
sg43
Nssa(dp4630
g38
I2133511419
sg39
(dp4631
g41
VRNG Commonly
p4632
sg43
Nssg44
(lp4633
I2758383128
asg32
VWeaponPickup
p4634
sg35
VPT6M26.5860012S
p4635
sa(dp4636
g38
I313138863
sg39
(dp4637
g41
VCLG LethuL HCS
p4638
sg43
Nssg44
(lp4639
I1095363701
asg32
VWeaponPickup
p4640
sg35
VPT6M26.9040012S
p4641
sa(dp4642
g38
I4096745987
sg39
(dp4643
g41
VCLG LethuL HCS
p4644
sg43
Nssg44
(lp4645
I2758383128
asg32
VWeaponPickup
p4646
sg35
VPT6M26.9040012S
p4647
sa(dp4648
g32
VPlayerSpawn
p4649
sg39
(dp4650
g41
VCLG LethuL HCS
p4651
sg43
Nssg35
VPT6M26.9040012S
p4652
sa(dp4653
g195
I4106030681
sg196
I00
sg197
I00
sg198
(dp4654
g41
VCLG Frosty HCS
p4655
sg43
Nssg201
(lp4656
sg203
I00
sg204
I01
sg205
I1
sg206
I0
sg207
I1
sg208
(dp4657
Vy
F22.392564799999999
sVx
F2.8484685399999998
sVz
F2.38579345
ssg210
(dp4658
Vy
F26.742122699999999
sVx
F-10.716499300000001
sVz
F1.503374
ssg212
I00
sg213
(dp4659
g41
VRNG Ninja HCS
p4660
sg43
Nssg217
(lp4661
sg219
(lp4662
sg221
I00
sg35
VPT6M26.9050006S
p4663
sg32
VDeath
p4664
sg224
I1
sa(dp4665
g38
I313138863
sg32
VWeaponDrop
p4666
sg180
I13
sg44
(lp4667
I1095363701
asg35
VPT6M26.9070003S
p4668
sg183
I6
sg184
VP0DT0H0M6.5833S
p4669
sg39
(dp4670
g41
VRNG Ninja HCS
p4671
sg43
Nssa(dp4672
g38
I4096745987
sg32
VWeaponDrop
p4673
sg180
I14
sg44
(lp4674
I2758383128
asg35
VPT6M26.9070003S
p4675
sg183
I6
sg184
VP0DT0H0M25.8667S
p4676
sg39
(dp4677
g41
VRNG Ninja HCS
p4678
sg43
Nssa(dp4679
g38
I4096745987
sg32
VWeaponDrop
p4680
sg180
I0
sg44
(lp4681
I2758383128
asg35
VPT6M29.1520008S
p4682
sg183
I0
sg184
VP0DT0H0M1.1667S
p4683
sg39
(dp4684
g41
VCLG LethuL HCS
p4685
sg43
Nssa(dp4686
g38
I4108759423
sg39
(dp4687
g41
VCLG LethuL HCS
p4688
sg43
Nssg44
(lp4689
I2758383128
asg32
VWeaponPickup
p4690
sg35
VPT6M29.1520008S
p4691
sa(dp4692
g195
I424645655
sg196
I00
sg197
I00
sg198
(dp4693
g41
VRNG Victory X
p4694
sg43
Nssg201
(lp4695
I1327094800
asg203
I00
sg204
I01
sg205
I1
sg206
I0
sg207
I1
sg208
(dp4696
Vy
F3.0453946599999999
sVx
F-3.4600119999999999
sVz
F2.6819510000000002
ssg210
(dp4697
Vy
F-1.3795937300000001
sVx
F-2.9067926399999999
sVz
F3.0297312700000001
ssg212
I00
sg213
(dp4698
g41
VCLG Snake Bite
p4699
sg43
Nssg217
(lp4700
sg219
(lp4701
sg221
I01
sg35
VPT6M29.2040006S
p4702
sg32
VDeath
p4703
sg224
I1
sa(dp4704
g32
VMedal
p4705
sg39
(dp4706
g41
VRNG Victory X
p4707
sg43
Nssg321
I3261908037
sg35
VPT6M29.206S
p4708
sa(dp4709
g38
I313138863
sg32
VWeaponDrop
p4710
sg180
I0
sg44
(lp4711
I1095363701
asg35
VPT6M29.206S
p4712
sg183
I0
sg184
VP0DT0H0M3.6167S
p4713
sg39
(dp4714
g41
VCLG Snake Bite
p4715
sg43
Nssa(dp4716
g38
I4096745987
sg32
VWeaponDrop
p4717
sg180
I18
sg44
(lp4718
I2758383128
asg35
VPT6M29.206S
p4719
sg183
I12
sg184
VP0DT0H0M53.7000S
p4720
sg39
(dp4721
g41
VCLG Snake Bite
p4722
sg43
Nssa(dp4723
g38
I313138863
sg39
(dp4724
g41
VRNG Ninja HCS
p4725
sg43
Nssg44
(lp4726
I1095363701
asg32
VWeaponPickup
p4727
sg35
VPT6M34.9200009S
p4728
sa(dp4729
g38
I4096745987
sg39
(dp4730
g41
VRNG Ninja HCS
p4731
sg43
Nssg44
(lp4732
I2758383128
asg32
VWeaponPickup
p4733
sg35
VPT6M34.9200009S
p4734
sa(dp4735
g32
VPlayerSpawn
p4736
sg39
(dp4737
g41
VRNG Ninja HCS
p4738
sg43
Nssg35
VPT6M34.9200009S
p4739
sa(dp4740
g38
I2492868984
sg39
(dp4741
g41
VRNG Commonly
p4742
sg43
Nssg44
(lp4743
I2758383128
asg32
VWeaponPickup
p4744
sg35
VPT6M36.0190005S
p4745
sa(dp4746
g38
I4096745987
sg32
VWeaponDrop
p4747
sg180
I0
sg44
(lp4748
I2758383128
asg35
VPT6M36.284999S
p4749
sg183
I0
sg184
VP0DT0H0M0.5667S
p4750
sg39
(dp4751
g41
VRNG Ninja HCS
p4752
sg43
Nssa(dp4753
g38
I424645655
sg39
(dp4754
g41
VRNG Ninja HCS
p4755
sg43
Nssg44
(lp4756
I1327094800
asg32
VWeaponPickup
p4757
sg35
VPT6M36.284999S
p4758
sa(dp4759
g38
I2492868984
sg32
VWeaponDrop
p4760
sg180
I0
sg44
(lp4761
I2758383128
asg35
VPT6M37.1700007S
p4762
sg183
I0
sg184
VP0DT0H0M0.9833S
p4763
sg39
(dp4764
g41
VRNG Commonly
p4765
sg43
Nssa(dp4766
g38
I313138863
sg32
VWeaponDrop
p4767
sg180
I0
sg44
(lp4768
I1095363701
asg35
VPT6M37.2179987S
p4769
sg183
I0
sg184
VP0DT0H0M4.0167S
p4770
sg39
(dp4771
g41
VRammyy
p4772
sg43
Nssa(dp4773
g38
I4054937266
sg39
(dp4774
g41
VRammyy
p4775
sg43
Nssg44
(lp4776
I2758383128
asg32
VWeaponPickupPad
p4777
sg35
VPT6M37.2190314S
p4778
sa(dp4779
g32
VMedal
p4780
sg39
(dp4781
g41
VRammyy
p4782
sg43
Nssg321
I2564994165
sg35
VPT6M37.2190314S
p4783
sa(dp4784
g38
I4054937266
sg39
(dp4785
g41
VRammyy
p4786
sg43
Nssg44
(lp4787
I2758383128
asg32
VWeaponPickup
p4788
sg35
VPT6M37.2190314S
p4789
sa(dp4790
g38
I313138863
sg39
(dp4791
g41
VCLG Snake Bite
p4792
sg43
Nssg44
(lp4793
I1095363701
asg32
VWeaponPickup
p4794
sg35
VPT6M37.2210008S
p4795
sa(dp4796
g38
I4096745987
sg39
(dp4797
g41
VCLG Snake Bite
p4798
sg43
Nssg44
(lp4799
I2758383128
asg32
VWeaponPickup
p4800
sg35
VPT6M37.2210008S
p4801
sa(dp4802
g32
VPlayerSpawn
p4803
sg39
(dp4804
g41
VCLG Snake Bite
p4805
sg43
Nssg35
VPT6M37.2210008S
p4806
sa(dp4807
g38
I313138863
sg32
VWeaponDrop
p4808
sg180
I0
sg44
(lp4809
I1095363701
asg35
VPT6M38.7520002S
p4810
sg183
I0
sg184
VP0DT0H0M0.9167S
p4811
sg39
(dp4812
g41
VCLG Frosty HCS
p4813
sg43
Nssa(dp4814
g38
I3808094875
sg39
(dp4815
g41
VCLG Frosty HCS
p4816
sg43
Nssg44
(lp4817
I2758383128
asg32
VWeaponPickup
p4818
sg35
VPT6M38.7520002S
p4819
sa(dp4820
g195
I2133511419
sg196
I00
sg197
I01
sg198
(dp4821
g41
VRNG Commonly
p4822
sg43
Nssg201
(lp4823
I2758383128
asg203
I00
sg204
I00
sg205
I1
sg206
I0
sg207
I1
sg208
(dp4824
Vy
F14.1798105
sVx
F-7.9891962999999997
sVz
F-2.7320215700000001
ssg210
(dp4825
Vy
F14.79627
sVx
F-8.1792610000000003
sVz
F-2.94999981
ssg212
I00
sg213
(dp4826
g41
VCLG Snake Bite
p4827
sg43
Nssg217
(lp4828
sg219
(lp4829
sg221
I00
sg35
VPT6M46.6860001S
p4830
sg32
VDeath
p4831
sg224
I1
sa(dp4832
g32
VMedal
p4833
sg39
(dp4834
g41
VRNG Commonly
p4835
sg43
Nssg321
I2287626681
sg35
VPT6M46.6870009S
p4836
sa(dp4837
g38
I4096745987
sg32
VWeaponDrop
p4838
sg180
I0
sg44
(lp4839
I2758383128
asg35
VPT6M46.688S
p4840
sg183
I0
sg184
VP0DT0H0M8.7667S
p4841
sg39
(dp4842
g41
VCLG Snake Bite
p4843
sg43
Nssa(dp4844
g38
I313138863
sg32
VWeaponDrop
p4845
sg180
I0
sg44
(lp4846
I1095363701
asg35
VPT6M46.6890012S
p4847
sg183
I0
sg184
VP0DT0H0M0.7000S
p4848
sg39
(dp4849
g41
VCLG Snake Bite
p4850
sg43
Nssa(dp4851
g195
I4096745987
sg196
I00
sg197
I00
sg198
(dp4852
g41
VCLG Frosty HCS
p4853
sg43
Nssg201
(lp4854
I2758383128
asg203
I00
sg204
I01
sg205
I1
sg206
I0
sg207
I1
sg208
(dp4855
Vy
F12.772386600000001
sVx
F-0.90351223899999999
sVz
F-0.018197000000000001
ssg210
(dp4856
Vy
F11.111093500000001
sVx
F-9.4681680000000004
sVz
F-0.89672845599999995
ssg212
I00
sg213
(dp4857
g41
VRNG Penguin HCS
p4858
sg43
Nssg217
(lp4859
sg219
(lp4860
(dp4861
g41
VRammyy
p4862
sg43
Nsasg221
I01
sg35
VPT6M46.9690007S
p4863
sg32
VDeath
p4864
sg224
I1
sa(dp4865
g32
VMedal
p4866
sg39
(dp4867
g41
VCLG Frosty HCS
p4868
sg43
Nssg321
I3261908037
sg35
VPT6M46.9710001S
p4869
sa(dp4870
g38
I723388907
sg32
VWeaponDrop
p4871
sg180
I44
sg44
(lp4872
I89283061
asg35
VPT6M46.9720009S
p4873
sg183
I15
sg184
VP0DT0H0M16.9167S
p4874
sg39
(dp4875
g41
VRNG Penguin HCS
p4876
sg43
Nssa(dp4877
g38
I4096745987
sg32
VWeaponDrop
p4878
sg180
I16
sg44
(lp4879
I2758383128
asg35
VPT6M46.9720009S
p4880
sg183
I9
sg184
VP0DT0H0M24.3167S
p4881
sg39
(dp4882
g41
VRNG Penguin HCS
p4883
sg43
Nssa(dp4884
g195
I4054937266
sg196
I00
sg197
I00
sg198
(dp4885
g41
VRammyy
p4886
sg43
Nssg201
(lp4887
I2758383128
asg203
I00
sg204
I01
sg205
I1
sg206
I0
sg207
I1
sg208
(dp4888
Vy
F20.169574699999998
sVx
F-7.8051500000000003
sVz
F-0.89672183999999999
ssg210
(dp4889
Vy
F13.1058626
sVx
F-7.139297
sVz
F-4.6287016899999998
ssg212
I00
sg213
(dp4890
g41
VRNG Commonly
p4891
sg43
Nssg217
(lp4892
sg219
(lp4893
sg221
I00
sg35
VPT6M54.3520004S
p4894
sg32
VDeath
p4895
sg224
I1
sa(dp4896
g38
I2133511419
sg32
VWeaponDrop
p4897
sg180
I7
sg44
(lp4898
I2758383128
asg35
VPT6M54.3530005S
p4899
sg183
I7
sg184
VP0DT0H0M21.7667S
p4900
sg39
(dp4901
g41
VRNG Commonly
p4902
sg43
Nssa(dp4903
g38
I2133511419
sg32
VWeaponDrop
p4904
sg180
I0
sg44
(lp4905
I2758383128
asg35
VPT6M54.3530005S
p4906
sg183
I0
sg184
VP0DT0S
p4907
sg39
(dp4908
g41
VRNG Commonly
p4909
sg43
Nssa(dp4910
g38
I4096745987
sg32
VWeaponDrop
p4911
sg180
I12
sg44
(lp4912
I2758383128
asg35
VPT6M54.3540005S
p4913
sg183
I5
sg184
VP0DT0H0M32.4333S
p4914
sg39
(dp4915
g41
VRNG Commonly
p4916
sg43
Nssa(dp4917
g38
I313138863
sg39
(dp4918
g41
VCLG Snake Bite
p4919
sg43
Nssg44
(lp4920
I1095363701
asg32
VWeaponPickup
p4921
sg35
VPT6M54.7030012S
p4922
sa(dp4923
g38
I4096745987
sg39
(dp4924
g41
VCLG Snake Bite
p4925
sg43
Nssg44
(lp4926
I2758383128
asg32
VWeaponPickup
p4927
sg35
VPT6M54.7030012S
p4928
sa(dp4929
g32
VPlayerSpawn
p4930
sg39
(dp4931
g41
VCLG Snake Bite
p4932
sg43
Nssg35
VPT6M54.7030012S
p4933
sa(dp4934
g38
I313138863
sg39
(dp4935
g41
VRNG Penguin HCS
p4936
sg43
Nssg44
(lp4937
I1095363701
asg32
VWeaponPickup
p4938
sg35
VPT6M54.986001S
p4939
sa(dp4940
g38
I4096745987
sg39
(dp4941
g41
VRNG Penguin HCS
p4942
sg43
Nssg44
(lp4943
I2758383128
asg32
VWeaponPickup
p4944
sg35
VPT6M54.986001S
p4945
sa(dp4946
g32
VPlayerSpawn
p4947
sg39
(dp4948
g41
VRNG Penguin HCS
p4949
sg43
Nssg35
VPT6M54.986001S
p4950
sa(dp4951
g38
I313138863
sg39
(dp4952
g41
VRNG Commonly
p4953
sg43
Nssg44
(lp4954
I1095363701
asg32
VWeaponPickup
p4955
sg35
VPT7M2.3850005S
p4956
sa(dp4957
g38
I4096745987
sg39
(dp4958
g41
VRNG Commonly
p4959
sg43
Nssg44
(lp4960
I2758383128
asg32
VWeaponPickup
p4961
sg35
VPT7M2.3860012S
p4962
sa(dp4963
g32
VPlayerSpawn
p4964
sg39
(dp4965
g41
VRNG Commonly
p4966
sg43
Nssg35
VPT7M2.3860012S
p4967
sa(dp4968
g195
I4096745987
sg196
I00
sg197
I01
sg198
(dp4969
g41
VRNG Penguin HCS
p4970
sg43
Nssg201
(lp4971
I2758383128
asg203
I00
sg204
I00
sg205
I1
sg206
I0
sg207
I1
sg208
(dp4972
Vy
F14.58689
sVx
F-9.7778779999999994
sVz
F2.3738049999999999
ssg210
(dp4973
Vy
F14.8135262
sVx
F-9.5083885200000005
sVz
F2.3968713300000002
ssg212
I00
sg213
(dp4974
g41
VRammyy
p4975
sg43
Nssg217
(lp4976
sg219
(lp4977
(dp4978
g41
VRNG Ninja HCS
p4979
sg43
Nsasg221
I00
sg35
VPT7M13.9510006S
p4980
sg32
VDeath
p4981
sg224
I1
sa(dp4982
g32
VMedal
p4983
sg39
(dp4984
g41
VRNG Penguin HCS
p4985
sg43
Nssg321
I2287626681
sg35
VPT7M13.9520008S
p4986
sa(dp4987
g38
I4054937266
sg32
VWeaponDrop
p4988
sg180
I15
sg44
(lp4989
I2758383128
asg35
VPT7M13.953S
p4990
sg183
I10
sg184
VP0DT0H0M19.6500S
p4991
sg39
(dp4992
g41
VRammyy
p4993
sg43
Nssa(dp4994
g38
I4096745987
sg32
VWeaponDrop
p4995
sg180
I14
sg44
(lp4996
I2758383128
asg35
VPT7M13.953S
p4997
sg183
I6
sg184
VP0DT0H0M24.1333S
p4998
sg39
(dp4999
g41
VRammyy
p5000
sg43
Nssa(dp5001
g195
I4096745987
sg196
I00
sg197
I00
sg198
(dp5002
g41
VCLG Frosty HCS
p5003
sg43
Nssg201
(lp5004
I2758383128
asg203
I00
sg204
I01
sg205
I1
sg206
I0
sg207
I1
sg208
(dp5005
Vy
F17.396358500000002
sVx
F-4.2961206399999998
sVz
F1.4995265
ssg210
(dp5006
Vy
F16.090473200000002
sVx
F-8.2296040000000001
sVz
F-2.9499993299999998
ssg212
I00
sg213
(dp5007
g41
VRNG Ninja HCS
p5008
sg43
Nssg217
(lp5009
sg219
(lp5010
(dp5011
g41
VCLG LethuL HCS
p5012
sg43
Nsasg221
I01
sg35
VPT7M19.1510003S
p5013
sg32
VDeath
p5014
sg224
I1
sa(dp5015
g32
VMedal
p5016
sg39
(dp5017
g41
VCLG Frosty HCS
p5018
sg43
Nssg321
I3261908037
sg35
VPT7M19.1520006S
p5019
sa(dp5020
g38
I313138863
sg32
VWeaponDrop
p5021
sg180
I0
sg44
(lp5022
I1095363701
asg35
VPT7M19.1530005S
p5023
sg183
I0
sg184
VP0DT0H0M0.8000S
p5024
sg39
(dp5025
g41
VRNG Ninja HCS
p5026
sg43
Nssa(dp5027
g38
I424645655
sg32
VWeaponDrop
p5028
sg180
I63
sg44
(lp5029
I1327094800
asg35
VPT7M19.1530005S
p5030
sg183
I31
sg184
VP0DT0H0M42.8500S
p5031
sg39
(dp5032
g41
VRNG Ninja HCS
p5033
sg43
Nssa(dp5034
g195
I4096745987
sg196
I00
sg197
I00
sg198
(dp5035
g41
VRNG Penguin HCS
p5036
sg43
Nssg201
(lp5037
I2758383128
asg203
I00
sg204
I01
sg205
I1
sg206
I0
sg207
I1
sg208
(dp5038
Vy
F17.704799999999999
sVx
F-10.296728099999999
sVz
F1.5012465699999999
ssg210
(dp5039
Vy
F18.864414199999999
sVx
F-5.219036
sVz
F2.4724097299999999
ssg212
I00
sg213
(dp5040
g41
VCLG Frosty HCS
p5041
sg43
Nssg217
(lp5042
sg219
(lp5043
(dp5044
g41
VRNG Ninja HCS
p5045
sg43
Nsasg221
I01
sg35
VPT7M19.9669994S
p5046
sg32
VDeath
p5047
sg224
I1
sa(dp5048
g32
VMedal
p5049
sg39
(dp5050
g41
VRNG Penguin HCS
p5051
sg43
Nssg321
I3261908037
sg35
VPT7M19.9690002S
p5052
sa(dp5053
g38
I3808094875
sg32
VWeaponDrop
p5054
sg180
I32
sg44
(lp5055
I2758383128
asg35
VPT7M19.9700006S
p5056
sg183
I6
sg184
VP0DT0H0M11.5667S
p5057
sg39
(dp5058
g41
VCLG Frosty HCS
p5059
sg43
Nssa(dp5060
g38
I4096745987
sg32
VWeaponDrop
p5061
sg180
I28
sg44
(lp5062
I2758383128
asg35
VPT7M19.9700006S
p5063
sg183
I12
sg184
VP0DT0H0M50.7500S
p5064
sg39
(dp5065
g41
VCLG Frosty HCS
p5066
sg43
Nssa(dp5067
g38
I313138863
sg39
(dp5068
g41
VRammyy
p5069
sg43
Nssg44
(lp5070
I1095363701
asg32
VWeaponPickup
p5071
sg35
VPT7M21.9680007S
p5072
sa(dp5073
g38
I4096745987
sg39
(dp5074
g41
VRammyy
p5075
sg43
Nssg44
(lp5076
I2758383128
asg32
VWeaponPickup
p5077
sg35
VPT7M21.9680007S
p5078
sa(dp5079
g32
VPlayerSpawn
p5080
sg39
(dp5081
g41
VRammyy
p5082
sg43
Nssg35
VPT7M21.9680007S
p5083
sa(dp5084
g38
I313138863
sg32
VWeaponDrop
p5085
sg180
I0
sg44
(lp5086
I1095363701
asg35
VPT7M24.3659985S
p5087
sg183
I0
sg184
VP0DT0H0M1.3167S
p5088
sg39
(dp5089
g41
VRammyy
p5090
sg43
Nssa(dp5091
g38
I4108759423
sg39
(dp5092
g41
VRammyy
p5093
sg43
Nssg44
(lp5094
I2758383128
asg32
VWeaponPickup
p5095
sg35
VPT7M24.3670006S
p5096
sa(dp5097
g38
I313138863
sg39
(dp5098
g41
VRNG Ninja HCS
p5099
sg43
Nssg44
(lp5100
I1095363701
asg32
VWeaponPickup
p5101
sg35
VPT7M27.1680012S
p5102
sa(dp5103
g38
I4096745987
sg39
(dp5104
g41
VRNG Ninja HCS
p5105
sg43
Nssg44
(lp5106
I2758383128
asg32
VWeaponPickup
p5107
sg35
VPT7M27.1680012S
p5108
sa(dp5109
g32
VPlayerSpawn
p5110
sg39
(dp5111
g41
VRNG Ninja HCS
p5112
sg43
Nssg35
VPT7M27.1680012S
p5113
sa(dp5114
g38
I313138863
sg39
(dp5115
g41
VCLG Frosty HCS
p5116
sg43
Nssg44
(lp5117
I1095363701
asg32
VWeaponPickup
p5118
sg35
VPT7M27.9840003S
p5119
sa(dp5120
g38
I4096745987
sg39
(dp5121
g41
VCLG Frosty HCS
p5122
sg43
Nssg44
(lp5123
I2758383128
asg32
VWeaponPickup
p5124
sg35
VPT7M27.985001S
p5125
sa(dp5126
g32
VPlayerSpawn
p5127
sg39
(dp5128
g41
VCLG Frosty HCS
p5129
sg43
Nssg35
VPT7M27.985001S
p5130
sa(dp5131
g195
I4096745987
sg196
I00
sg197
I00
sg198
(dp5132
g41
VCLG Snake Bite
p5133
sg43
Nssg201
(lp5134
I2758383128
asg203
I00
sg204
I00
sg205
I2
sg206
I0
sg207
I0
sg208
(dp5135
Vy
F7.5262646699999998
sVx
F9.2345749999999995
sVz
F1.4997987699999999
ssg210
(dp5136
Vy
F0.098516019999999996
sVx
F8.0060179999999992
sVz
F0.7132444
ssg212
I00
sg213
(dp5137
g215
g216
ssg217
(lp5138
sg219
(lp5139
sg221
I00
sg35
VPT7M28.1010002S
p5140
sg32
VDeath
p5141
sg224
I1
sa(dp5142
g195
I47178948
sg196
I00
sg197
I00
sg198
(dp5143
g41
VCLG Snake Bite
p5144
sg43
Nssg201
(lp5145
sg203
I00
sg204
I00
sg205
I2
sg206
I0
sg207
I0
sg208
(dp5146
Vy
F7.5262646699999998
sVx
F9.2345749999999995
sVz
F1.4997987699999999
ssg210
(dp5147
Vy
F0.109249257
sVx
F8.0052880000000002
sVz
F0.30531784899999997
ssg212
I00
sg213
(dp5148
g215
g216
ssg217
(lp5149
sg219
(lp5150
sg221
I00
sg35
VPT7M28.1010002S
p5151
sg32
VDeath
p5152
sg224
I1
sa(dp5153
g38
I313138863
sg32
VWeaponDrop
p5154
sg180
I0
sg44
(lp5155
I1095363701
asg35
VPT7M29.4989986S
p5156
sg183
I0
sg184
VP0DT0H0M0.5000S
p5157
sg39
(dp5158
g41
VRNG Ninja HCS
p5159
sg43
Nssa(dp5160
g38
I723388907
sg39
(dp5161
g41
VRNG Ninja HCS
p5162
sg43
Nssg44
(lp5163
I89283061
asg32
VWeaponPickup
p5164
sg35
VPT7M29.5000114S
p5165
sa(dp5166
g38
I4096745987
sg32
VWeaponDrop
p5167
sg180
I17
sg44
(lp5168
I2758383128
asg35
VPT7M32.8659991S
p5169
sg183
I10
sg184
VP0DT0H0M32.1167S
p5170
sg39
(dp5171
g41
VRNG Penguin HCS
p5172
sg43
Nssa(dp5173
g38
I4096745987
sg32
VWeaponDrop
p5174
sg180
I0
sg44
(lp5175
I2758383128
asg35
VPT7M32.8659991S
p5176
sg183
I0
sg184
VP0DT0S
p5177
sg39
(dp5178
g41
VRNG Penguin HCS
p5179
sg43
Nssa(dp5180
g38
I424645655
sg39
(dp5181
g41
VRNG Penguin HCS
p5182
sg43
Nssg44
(lp5183
I1327094800
asg32
VWeaponPickup
p5184
sg35
VPT7M32.8659991S
p5185
sa(dp5186
g195
I4106030681
sg196
I00
sg197
I00
sg198
(dp5187
g41
VRNG Commonly
p5188
sg43
Nssg201
(lp5189
sg203
I00
sg204
I01
sg205
I1
sg206
I0
sg207
I1
sg208
(dp5190
Vy
F-0.127972275
sVx
F-2.7990643999999998
sVz
F2.6818911999999999
ssg210
(dp5191
Vy
F-0.79650290000000001
sVx
F3.9640555399999999
sVz
F1.83561993
ssg212
I00
sg213
(dp5192
g41
VCLG Snake Bite
p5193
sg43
Nssg217
(lp5194
sg219
(lp5195
(dp5196
g41
VRNG Penguin HCS
p5197
sg43
Nsasg221
I00
sg35
VPT7M41.5330003S
p5198
sg32
VDeath
p5199
sg224
I1
sa(dp5200
g32
VMedal
p5201
sg39
(dp5202
g41
VRNG Commonly
p5203
sg43
Nssg321
I3698887726
sg35
VPT7M41.5340008S
p5204
sa(dp5205
g38
I313138863
sg32
VWeaponDrop
p5206
sg180
I8
sg44
(lp5207
I1095363701
asg35
VPT7M41.5350002S
p5208
sg183
I6
sg184
VP0DT0H0M3.1333S
p5209
sg39
(dp5210
g41
VCLG Snake Bite
p5211
sg43
Nssa(dp5212
g38
I4096745987
sg32
VWeaponDrop
p5213
sg180
I8
sg44
(lp5214
I2758383128
asg35
VPT7M41.5350002S
p5215
sg183
I1
sg184
VP0DT0H0M43.6833S
p5216
sg39
(dp5217
g41
VCLG Snake Bite
p5218
sg43
Nssa(dp5219
g195
I313138863
sg196
I00
sg197
I00
sg198
(dp5220
g41
VCLG Frosty HCS
p5221
sg43
Nssg201
(lp5222
I1095363701
asg203
I00
sg204
I01
sg205
I1
sg206
I0
sg207
I1
sg208
(dp5223
Vy
F14.5496988
sVx
F-2.9093005700000001
sVz
F-2.2331771900000001
ssg210
(dp5224
Vy
F8.7520659999999992
sVx
F-3.68246436
sVz
F-1.6481437699999999
ssg212
I00
sg213
(dp5225
g41
VRNG Ninja HCS
p5226
sg43
Nssg217
(lp5227
sg219
(lp5228
(dp5229
g41
VRammyy
p5230
sg43
Nsasg221
I00
sg35
VPT7M46.3499999S
p5231
sg32
VDeath
p5232
sg224
I1
sa(dp5233
g38
I723388907
sg32
VWeaponDrop
p5234
sg180
I11
sg44
(lp5235
I89283061
asg35
VPT7M46.3520008S
p5236
sg183
I0
sg184
VP0DT0H0M5.1333S
p5237
sg39
(dp5238
g41
VRNG Ninja HCS
p5239
sg43
Nssa(dp5240
g38
I4096745987
sg32
VWeaponDrop
p5241
sg180
I1
sg44
(lp5242
I2758383128
asg35
VPT7M46.3520008S
p5243
sg183
I0
sg184
VP0DT0H0M13.5500S
p5244
sg39
(dp5245
g41
VRNG Ninja HCS
p5246
sg43
Nssa(dp5247
g38
I313138863
sg39
(dp5248
g41
VCLG Snake Bite
p5249
sg43
Nssg44
(lp5250
I1095363701
asg32
VWeaponPickup
p5251
sg35
VPT7M49.5500007S
p5252
sa(dp5253
g38
I4096745987
sg39
(dp5254
g41
VCLG Snake Bite
p5255
sg43
Nssg44
(lp5256
I2758383128
asg32
VWeaponPickup
p5257
sg35
VPT7M49.5510007S
p5258
sa(dp5259
g32
VPlayerSpawn
p5260
sg39
(dp5261
g41
VCLG Snake Bite
p5262
sg43
Nssg35
VPT7M49.5510007S
p5263
sa(dp5264
g195
I4096745987
sg196
I00
sg197
I00
sg198
(dp5265
g41
VRNG Commonly
p5266
sg43
Nssg201
(lp5267
I2758383128
asg203
I00
sg204
I01
sg205
I1
sg206
I0
sg207
I1
sg208
(dp5268
Vy
F-0.124410465
sVx
F7.1308759999999998
sVz
F3.1679084300000002
ssg210
(dp5269
Vy
F5.7276534999999997
sVx
F6.1656103099999999
sVz
F-0.02842629
ssg212
I00
sg213
(dp5270
g41
VRammyy
p5271
sg43
Nssg217
(lp5272
sg219
(lp5273
sg221
I01
sg35
VPT7M50.0330002S
p5274
sg32
VDeath
p5275
sg224
I1
sa(dp5276
g32
VMedal
p5277
sg39
(dp5278
g41
VRNG Penguin HCS
p5279
sg43
Nssg321
I824733727
sg35
VPT7M50.0350091S
p5280
sa(dp5281
g32
VMedal
p5282
sg39
(dp5283
g41
VRNG Commonly
p5284
sg43
Nssg321
I3261908037
sg35
VPT7M50.0350091S
p5285
sa(dp5286
g38
I4108759423
sg32
VWeaponDrop
p5287
sg180
I19
sg44
(lp5288
I2758383128
asg35
VPT7M50.0359997S
p5289
sg183
I10
sg184
VP0DT0H0M24.5667S
p5290
sg39
(dp5291
g41
VRammyy
p5292
sg43
Nssa(dp5293
g38
I4096745987
sg32
VWeaponDrop
p5294
sg180
I0
sg44
(lp5295
I2758383128
asg35
VPT7M50.0359997S
p5296
sg183
I0
sg184
VP0DT0H0M2.1833S
p5297
sg39
(dp5298
g41
VRammyy
p5299
sg43
Nssa(dp5300
g38
I4096745987
sg32
VWeaponDrop
p5301
sg180
I0
sg44
(lp5302
I2758383128
asg35
VPT7M53.0650067S
p5303
sg183
I0
sg184
VP0DT0H0M2.8000S
p5304
sg39
(dp5305
g41
VCLG Snake Bite
p5306
sg43
Nssa(dp5307
g38
I4108759423
sg39
(dp5308
g41
VCLG Snake Bite
p5309
sg43
Nssg44
(lp5310
I2758383128
asg32
VWeaponPickup
p5311
sg35
VPT7M53.0650067S
p5312
sa(dp5313
g38
I313138863
sg39
(dp5314
g41
VRNG Ninja HCS
p5315
sg43
Nssg44
(lp5316
I1095363701
asg32
VWeaponPickup
p5317
sg35
VPT7M54.3670009S
p5318
sa(dp5319
g38
I4096745987
sg39
(dp5320
g41
VRNG Ninja HCS
p5321
sg43
Nssg44
(lp5322
I2758383128
asg32
VWeaponPickup
p5323
sg35
VPT7M54.3670009S
p5324
sa(dp5325
g32
VPlayerSpawn
p5326
sg39
(dp5327
g41
VRNG Ninja HCS
p5328
sg43
Nssg35
VPT7M54.3670009S
p5329
sa(dp5330
g195
I4108759423
sg196
I00
sg197
I00
sg198
(dp5331
g41
VCLG LethuL HCS
p5332
sg43
Nssg201
(lp5333
I2758383128
asg203
I00
sg204
I01
sg205
I1
sg206
I0
sg207
I1
sg208
(dp5334
Vy
F13.1542406
sVx
F4.3456970000000004
sVz
F2.3153715099999999
ssg210
(dp5335
Vy
F5.2786590000000002
sVx
F4.0821566599999999
sVz
F1.9693734599999999
ssg212
I00
sg213
(dp5336
g41
VRNG Commonly
p5337
sg43
Nssg217
(lp5338
sg219
(lp5339
(dp5340
g41
VCLG Frosty HCS
p5341
sg43
Nsasg221
I01
sg35
VPT7M56.1830004S
p5342
sg32
VDeath
p5343
sg224
I1
sa(dp5344
g32
VMedal
p5345
sg39
(dp5346
g41
VCLG LethuL HCS
p5347
sg43
Nssg321
I3261908037
sg35
VPT7M56.1840004S
p5348
sa(dp5349
g38
I313138863
sg32
VWeaponDrop
p5350
sg180
I0
sg44
(lp5351
I1095363701
asg35
VPT7M56.1850002S
p5352
sg183
I0
sg184
VP0DT0H0M6.7167S
p5353
sg39
(dp5354
g41
VRNG Commonly
p5355
sg43
Nssa(dp5356
g38
I4096745987
sg32
VWeaponDrop
p5357
sg180
I28
sg44
(lp5358
I2758383128
asg35
VPT7M56.1850002S
p5359
sg183
I12
sg184
VP0DT0H0M47.0833S
p5360
sg39
(dp5361
g41
VRNG Commonly
p5362
sg43
Nssa(dp5363
g38
I313138863
sg32
VWeaponDrop
p5364
sg180
I0
sg44
(lp5365
I1095363701
asg35
VPT7M56.864999S
p5366
sg183
I0
sg184
VP0DT0H0M1.2167S
p5367
sg39
(dp5368
g41
VRNG Ninja HCS
p5369
sg43
Nssa(dp5370
g38
I723388907
sg39
(dp5371
g41
VRNG Ninja HCS
p5372
sg43
Nssg44
(lp5373
I89283061
asg32
VWeaponPickup
p5374
sg35
VPT7M56.864999S
p5375
sa(dp5376
g38
I313138863
sg39
(dp5377
g41
VRammyy
p5378
sg43
Nssg44
(lp5379
I1095363701
asg32
VWeaponPickup
p5380
sg35
VPT7M58.0500016S
p5381
sa(dp5382
g38
I4096745987
sg39
(dp5383
g41
VRammyy
p5384
sg43
Nssg44
(lp5385
I2758383128
asg32
VWeaponPickup
p5386
sg35
VPT7M58.0500016S
p5387
sa(dp5388
g32
VPlayerSpawn
p5389
sg39
(dp5390
g41
VRammyy
p5391
sg43
Nssg35
VPT7M58.0500016S
p5392
sa(dp5393
g195
I424645655
sg196
I00
sg197
I00
sg198
(dp5394
g41
VRNG Penguin HCS
p5395
sg43
Nssg201
(lp5396
I1327094800
asg203
I00
sg204
I01
sg205
I1
sg206
I0
sg207
I1
sg208
(dp5397
Vy
F13.4812326
sVx
F6.6516349999999997
sVz
F1.4982566799999999
ssg210
(dp5398
Vy
F13.7175665
sVx
F3.3968241199999998
sVz
F1.8574230700000001
ssg212
I00
sg213
(dp5399
g41
VCLG LethuL HCS
p5400
sg43
Nssg217
(lp5401
sg219
(lp5402
(dp5403
g41
VRNG Commonly
p5404
sg43
Nsasg221
I00
sg35
VPT7M58.7989996S
p5405
sg32
VDeath
p5406
sg224
I1
sa(dp5407
g38
I313138863
sg32
VWeaponDrop
p5408
sg180
I0
sg44
(lp5409
I1095363701
asg35
VPT7M58.8010037S
p5410
sg183
I0
sg184
VP0DT0H0M1.2333S
p5411
sg39
(dp5412
g41
VCLG LethuL HCS
p5413
sg43
Nssa(dp5414
g38
I4108759423
sg32
VWeaponDrop
p5415
sg180
I59
sg44
(lp5416
I2758383128
asg35
VPT7M58.8010037S
p5417
sg183
I17
sg184
VP0DT0H1M29.4833S
p5418
sg39
(dp5419
g41
VCLG LethuL HCS
p5420
sg43
Nssa(dp5421
g195
I4096745987
sg196
I00
sg197
I00
sg198
(dp5422
g41
VRNG Ninja HCS
p5423
sg43
Nssg201
(lp5424
I2758383128
asg203
I00
sg204
I01
sg205
I1
sg206
I0
sg207
I1
sg208
(dp5425
Vy
F23.076574300000001
sVx
F-9.3846969999999992
sVz
F1.5033741
ssg210
(dp5426
Vy
F16.569221500000001
sVx
F6.4323997500000001
sVz
F1.8344836200000001
ssg212
I00
sg213
(dp5427
g41
VCLG Frosty HCS
p5428
sg43
Nssg217
(lp5429
sg219
(lp5430
(dp5431
g41
VRNG Penguin HCS
p5432
sg43
Nsasg221
I01
sg35
VPT8M2.6819997S
p5433
sg32
VDeath
p5434
sg224
I1
sa(dp5435
g32
VImpulse
p5436
sg39
(dp5437
g41
VRNG Ninja HCS
p5438
sg43
Nssg486
I2556889090
sg35
VPT8M2.6830002S
p5439
sa(dp5440
g32
VMedal
p5441
sg39
(dp5442
g41
VRNG Ninja HCS
p5443
sg43
Nssg321
I352859864
sg35
VPT8M2.6830002S
p5444
sa(dp5445
g32
VMedal
p5446
sg39
(dp5447
g41
VRNG Ninja HCS
p5448
sg43
Nssg321
I3261908037
sg35
VPT8M2.6840002S
p5449
sa(dp5450
g38
I313138863
sg32
VWeaponDrop
p5451
sg180
I19
sg44
(lp5452
I1095363701
asg35
VPT8M2.6850004S
p5453
sg183
I8
sg184
VP0DT0H0M9.9000S
p5454
sg39
(dp5455
g41
VCLG Frosty HCS
p5456
sg43
Nssa(dp5457
g38
I4096745987
sg32
VWeaponDrop
p5458
sg180
I11
sg44
(lp5459
I2758383128
asg35
VPT8M2.6850004S
p5460
sg183
I3
sg184
VP0DT0H0M24.8000S
p5461
sg39
(dp5462
g41
VCLG Frosty HCS
p5463
sg43
Nssa(dp5464
g195
I4108759423
sg196
I00
sg197
I00
sg198
(dp5465
g41
VCLG Snake Bite
p5466
sg43
Nssg201
(lp5467
I2758383128
asg203
I00
sg204
I01
sg205
I1
sg206
I0
sg207
I1
sg208
(dp5468
Vy
F2.27365065
sVx
F7.0736737300000003
sVz
F1.874722
ssg210
(dp5469
Vy
F13.156744
sVx
F6.2067055699999996
sVz
F-0.27489745599999998
ssg212
I00
sg213
(dp5470
g41
VRNG Penguin HCS
p5471
sg43
Nssg217
(lp5472
sg219
(lp5473
(dp5474
g41
VCLG LethuL HCS
p5475
sg43
Nsa(dp5476
g41
VCLG Frosty HCS
p5477
sg43
Nsasg221
I01
sg35
VPT8M2.9830129S
p5478
sg32
VDeath
p5479
sg224
I1
sa(dp5480
g32
VMedal
p5481
sg39
(dp5482
g41
VCLG Snake Bite
p5483
sg43
Nssg321
I3261908037
sg35
VPT8M2.9839997S
p5484
sa(dp5485
g38
I313138863
sg32
VWeaponDrop
p5486
sg180
I0
sg44
(lp5487
I1095363701
asg35
VPT8M2.9839997S
p5488
sg183
I0
sg184
VP0DT0H0M5.7500S
p5489
sg39
(dp5490
g41
VRNG Penguin HCS
p5491
sg43
Nssa(dp5492
g38
I424645655
sg32
VWeaponDrop
p5493
sg180
I36
sg44
(lp5494
I1327094800
asg35
VPT8M2.9839997S
p5495
sg183
I16
sg184
VP0DT0H0M30.1167S
p5496
sg39
(dp5497
g41
VRNG Penguin HCS
p5498
sg43
Nssa(dp5499
g38
I313138863
sg39
(dp5500
g41
VRNG Commonly
p5501
sg43
Nssg44
(lp5502
I1095363701
asg32
VWeaponPickup
p5503
sg35
VPT8M4.2000004S
p5504
sa(dp5505
g38
I4096745987
sg39
(dp5506
g41
VRNG Commonly
p5507
sg43
Nssg44
(lp5508
I2758383128
asg32
VWeaponPickup
p5509
sg35
VPT8M4.2000004S
p5510
sa(dp5511
g32
VPlayerSpawn
p5512
sg39
(dp5513
g41
VRNG Commonly
p5514
sg43
Nssg35
VPT8M4.2000004S
p5515
sa(dp5516
g38
I313138863
sg32
VWeaponDrop
p5517
sg180
I0
sg44
(lp5518
I1095363701
asg35
VPT8M4.2309984S
p5519
sg183
I0
sg184
VP0DT0H0M1.5500S
p5520
sg39
(dp5521
g41
VRammyy
p5522
sg43
Nssa(dp5523
g38
I4108759423
sg39
(dp5524
g41
VRammyy
p5525
sg43
Nssg44
(lp5526
I2758383128
asg32
VWeaponPickup
p5527
sg35
VPT8M4.2320008S
p5528
sa(dp5529
g38
I313138863
sg32
VWeaponDrop
p5530
sg180
I0
sg44
(lp5531
I1095363701
asg35
VPT8M5.8650027S
p5532
sg183
I0
sg184
VP0DT0H0M1.0333S
p5533
sg39
(dp5534
g41
VRNG Commonly
p5535
sg43
Nssa(dp5536
g38
I424645655
sg39
(dp5537
g41
VRNG Commonly
p5538
sg43
Nssg44
(lp5539
I1327094800
asg32
VWeaponPickup
p5540
sg35
VPT8M5.8650027S
p5541
sa(dp5542
g38
I313138863
sg39
(dp5543
g41
VCLG LethuL HCS
p5544
sg43
Nssg44
(lp5545
I1095363701
asg32
VWeaponPickup
p5546
sg35
VPT8M6.8170009S
p5547
sa(dp5548
g38
I4096745987
sg39
(dp5549
g41
VCLG LethuL HCS
p5550
sg43
Nssg44
(lp5551
I2758383128
asg32
VWeaponPickup
p5552
sg35
VPT8M6.8170009S
p5553
sa(dp5554
g32
VPlayerSpawn
p5555
sg39
(dp5556
g41
VCLG LethuL HCS
p5557
sg43
Nssg35
VPT8M6.8170009S
p5558
sa(dp5559
g195
I669296699
sg196
I00
sg197
I00
sg198
(dp5560
g41
VRNG Victory X
p5561
sg43
Nssg201
(lp5562
I2758383128
asg203
I00
sg204
I01
sg205
I1
sg206
I0
sg207
I1
sg208
(dp5563
Vy
F11.95622
sVx
F-12.8826733
sVz
F2.4423618299999998
ssg210
(dp5564
Vy
F9.8744335200000002
sVx
F2.7207732199999999
sVz
F1.49821424
ssg212
I00
sg213
(dp5565
g41
VRammyy
p5566
sg43
Nssg217
(lp5567
sg219
(lp5568
sg221
I01
sg35
VPT8M6.8180009S
p5569
sg32
VDeath
p5570
sg224
I1
sa(dp5571
g32
VMedal
p5572
sg39
(dp5573
g41
VRNG Victory X
p5574
sg43
Nssg321
I848240062
sg35
VPT8M6.8190006S
p5575
sa(dp5576
g38
I4108759423
sg32
VWeaponDrop
p5577
sg180
I0
sg44
(lp5578
I2758383128
asg35
VPT8M6.8200241S
p5579
sg183
I0
sg184
VP0DT0H0M2.5833S
p5580
sg39
(dp5581
g41
VRammyy
p5582
sg43
Nssa(dp5583
g38
I4096745987
sg32
VWeaponDrop
p5584
sg180
I0
sg44
(lp5585
I2758383128
asg35
VPT8M6.8200241S
p5586
sg183
I0
sg184
VP0DT0H0M4.6333S
p5587
sg39
(dp5588
g41
VRammyy
p5589
sg43
Nssa(dp5590
g38
I313138863
sg39
(dp5591
g41
VCLG Frosty HCS
p5592
sg43
Nssg44
(lp5593
I1095363701
asg32
VWeaponPickup
p5594
sg35
VPT8M10.6990007S
p5595
sa(dp5596
g38
I4096745987
sg39
(dp5597
g41
VCLG Frosty HCS
p5598
sg43
Nssg44
(lp5599
I2758383128
asg32
VWeaponPickup
p5600
sg35
VPT8M10.7000007S
p5601
sa(dp5602
g32
VPlayerSpawn
p5603
sg39
(dp5604
g41
VCLG Frosty HCS
p5605
sg43
Nssg35
VPT8M10.7000007S
p5606
sa(dp5607
g38
I313138863
sg39
(dp5608
g41
VRNG Penguin HCS
p5609
sg43
Nssg44
(lp5610
I1095363701
asg32
VWeaponPickup
p5611
sg35
VPT8M10.9990009S
p5612
sa(dp5613
g38
I4096745987
sg39
(dp5614
g41
VRNG Penguin HCS
p5615
sg43
Nssg44
(lp5616
I2758383128
asg32
VWeaponPickup
p5617
sg35
VPT8M11.0000011S
p5618
sa(dp5619
g32
VPlayerSpawn
p5620
sg39
(dp5621
g41
VRNG Penguin HCS
p5622
sg43
Nssg35
VPT8M11.0000011S
p5623
sa(dp5624
g38
I313138863
sg32
VWeaponDrop
p5625
sg180
I0
sg44
(lp5626
I1095363701
asg35
VPT8M11.4309985S
p5627
sg183
I0
sg184
VP0DT0H0M3.8000S
p5628
sg39
(dp5629
g41
VCLG LethuL HCS
p5630
sg43
Nssa(dp5631
g38
I3808094875
sg39
(dp5632
g41
VCLG LethuL HCS
p5633
sg43
Nssg44
(lp5634
I2758383128
asg32
VWeaponPickup
p5635
sg35
VPT8M11.4309985S
p5636
sa(dp5637
g38
I313138863
sg39
(dp5638
g41
VRammyy
p5639
sg43
Nssg44
(lp5640
I1095363701
asg32
VWeaponPickup
p5641
sg35
VPT8M14.8330011S
p5642
sa(dp5643
g38
I4096745987
sg39
(dp5644
g41
VRammyy
p5645
sg43
Nssg44
(lp5646
I2758383128
asg32
VWeaponPickup
p5647
sg35
VPT8M14.8330011S
p5648
sa(dp5649
g32
VPlayerSpawn
p5650
sg39
(dp5651
g41
VRammyy
p5652
sg43
Nssg35
VPT8M14.8330011S
p5653
sa(dp5654
g38
I313138863
sg32
VWeaponDrop
p5655
sg180
I0
sg44
(lp5656
I1095363701
asg35
VPT8M18.0809987S
p5657
sg183
I0
sg184
VP0DT0H0M2.2333S
p5658
sg39
(dp5659
g41
VRammyy
p5660
sg43
Nssa(dp5661
g38
I4108759423
sg39
(dp5662
g41
VRammyy
p5663
sg43
Nssg44
(lp5664
I2758383128
asg32
VWeaponPickup
p5665
sg35
VPT8M18.0809987S
p5666
sa(dp5667
g38
I313138863
sg32
VWeaponDrop
p5668
sg180
I0
sg44
(lp5669
I1095363701
asg35
VPT8M21.4309986S
p5670
sg183
I0
sg184
VP0DT0H0M1.8667S
p5671
sg39
(dp5672
g41
VRNG Penguin HCS
p5673
sg43
Nssa(dp5674
g38
I4054937266
sg39
(dp5675
g41
VRNG Penguin HCS
p5676
sg43
Nssg44
(lp5677
I2758383128
asg32
VWeaponPickupPad
p5678
sg35
VPT8M21.4309986S
p5679
sa(dp5680
g32
VMedal
p5681
sg39
(dp5682
g41
VRNG Penguin HCS
p5683
sg43
Nssg321
I2564994165
sg35
VPT8M21.4309986S
p5684
sa(dp5685
g38
I4054937266
sg39
(dp5686
g41
VRNG Penguin HCS
p5687
sg43
Nssg44
(lp5688
I2758383128
asg32
VWeaponPickup
p5689
sg35
VPT8M21.4309986S
p5690
sa(dp5691
g195
I669296699
sg196
I00
sg197
I00
sg198
(dp5692
g41
VRNG Victory X
p5693
sg43
Nssg201
(lp5694
I2758383128
asg203
I00
sg204
I01
sg205
I1
sg206
I0
sg207
I1
sg208
(dp5695
Vy
F17.951763199999998
sVx
F-10.3254757
sVz
F2.41345644
ssg210
(dp5696
Vy
F16.104776399999999
sVx
F4.6146206899999997
sVz
F1.5000036999999999
ssg212
I00
sg213
(dp5697
g41
VCLG Frosty HCS
p5698
sg43
Nssg217
(lp5699
sg219
(lp5700
(dp5701
g41
VRNG Ninja HCS
p5702
sg43
Nsasg221
I01
sg35
VPT8M22.6820003S
p5703
sg32
VDeath
p5704
sg224
I1
sa(dp5705
g32
VMedal
p5706
sg39
(dp5707
g41
VRNG Victory X
p5708
sg43
Nssg321
I848240062
sg35
VPT8M22.6840002S
p5709
sa(dp5710
g38
I313138863
sg32
VWeaponDrop
p5711
sg180
I0
sg44
(lp5712
I1095363701
asg35
VPT8M22.6840002S
p5713
sg183
I0
sg184
VP0DT0H0M2.9167S
p5714
sg39
(dp5715
g41
VCLG Frosty HCS
p5716
sg43
Nssa(dp5717
g38
I4096745987
sg32
VWeaponDrop
p5718
sg180
I1
sg44
(lp5719
I2758383128
asg35
VPT8M22.6840002S
p5720
sg183
I0
sg184
VP0DT0H0M9.0667S
p5721
sg39
(dp5722
g41
VCLG Frosty HCS
p5723
sg43
Nssa(dp5724
g195
I4096745987
sg196
I00
sg197
I00
sg198
(dp5725
g41
VRNG Ninja HCS
p5726
sg43
Nssg201
(lp5727
I2758383128
asg203
I00
sg204
I01
sg205
I1
sg206
I0
sg207
I1
sg208
(dp5728
Vy
F22.168683999999999
sVx
F-3.1203067299999998
sVz
F2.1515846299999999
ssg210
(dp5729
Vy
F22.435337100000002
sVx
F7.8395295100000002
sVz
F0.82910674799999995
ssg212
I00
sg213
(dp5730
g41
VRammyy
p5731
sg43
Nssg217
(lp5732
sg219
(lp5733
sg221
I01
sg35
VPT8M24.7149999S
p5734
sg32
VDeath
p5735
sg224
I1
sa(dp5736
g32
VImpulse
p5737
sg39
(dp5738
g41
VRNG Ninja HCS
p5739
sg43
Nssg486
I3174430457
sg35
VPT8M24.7169997S
p5740
sa(dp5741
g32
VMedal
p5742
sg39
(dp5743
g41
VRNG Ninja HCS
p5744
sg43
Nssg321
I3653057799
sg35
VPT8M24.7179995S
p5745
sa(dp5746
g38
I4108759423
sg32
VWeaponDrop
p5747
sg180
I14
sg44
(lp5748
I2758383128
asg35
VPT8M24.7290002S
p5749
sg183
I9
sg184
VP0DT0H0M6.6333S
p5750
sg39
(dp5751
g41
VRammyy
p5752
sg43
Nssa(dp5753
g38
I4096745987
sg32
VWeaponDrop
p5754
sg180
I0
sg44
(lp5755
I2758383128
asg35
VPT8M24.7290002S
p5756
sg183
I0
sg184
VP0DT0H0M1.0167S
p5757
sg39
(dp5758
g41
VRammyy
p5759
sg43
Nssa(dp5760
g195
I4096745987
sg196
I00
sg197
I00
sg198
(dp5761
g41
VCLG LethuL HCS
p5762
sg43
Nssg201
(lp5763
I2758383128
asg203
I00
sg204
I01
sg205
I1
sg206
I0
sg207
I1
sg208
(dp5764
Vy
F8.4643135100000002
sVx
F5.7872250000000003
sVz
F-0.89673084000000003
ssg210
(dp5765
Vy
F22.168683999999999
sVx
F-3.1203067299999998
sVz
F2.1515846299999999
ssg212
I00
sg213
(dp5766
g41
VRNG Ninja HCS
p5767
sg43
Nssg217
(lp5768
sg219
(lp5769
(dp5770
g41
VRammyy
p5771
sg43
Nsa(dp5772
g41
VCLG Snake Bite
p5773
sg43
Nsasg221
I01
sg35
VPT8M24.7300008S
p5774
sg32
VDeath
p5775
sg224
I1
sa(dp5776
g32
VMedal
p5777
sg39
(dp5778
g41
VCLG LethuL HCS
p5779
sg43
Nssg321
I3261908037
sg35
VPT8M24.7310007S
p5780
sa(dp5781
g38
I723388907
sg32
VWeaponDrop
p5782
sg180
I0
sg44
(lp5783
I89283061
asg35
VPT8M24.7319998S
p5784
sg183
I0
sg184
VP0DT0H0M6.9667S
p5785
sg39
(dp5786
g41
VRNG Ninja HCS
p5787
sg43
Nssa(dp5788
g38
I4096745987
sg32
VWeaponDrop
p5789
sg180
I13
sg44
(lp5790
I2758383128
asg35
VPT8M24.7319998S
p5791
sg183
I11
sg184
VP0DT0H0M22.1667S
p5792
sg39
(dp5793
g41
VRNG Ninja HCS
p5794
sg43
Nssa(dp5795
g38
I313138863
sg39
(dp5796
g41
VCLG Frosty HCS
p5797
sg43
Nssg44
(lp5798
I1095363701
asg32
VWeaponPickup
p5799
sg35
VPT8M30.699001S
p5800
sa(dp5801
g38
I4096745987
sg39
(dp5802
g41
VCLG Frosty HCS
p5803
sg43
Nssg44
(lp5804
I2758383128
asg32
VWeaponPickup
p5805
sg35
VPT8M30.699001S
p5806
sa(dp5807
g32
VPlayerSpawn
p5808
sg39
(dp5809
g41
VCLG Frosty HCS
p5810
sg43
Nssg35
VPT8M30.699001S
p5811
sa(dp5812
g38
I313138863
sg39
(dp5813
g41
VRammyy
p5814
sg43
Nssg44
(lp5815
I1095363701
asg32
VWeaponPickup
p5816
sg35
VPT8M32.7320022S
p5817
sa(dp5818
g38
I4096745987
sg39
(dp5819
g41
VRammyy
p5820
sg43
Nssg44
(lp5821
I2758383128
asg32
VWeaponPickup
p5822
sg35
VPT8M32.7320022S
p5823
sa(dp5824
g32
VPlayerSpawn
p5825
sg39
(dp5826
g41
VRammyy
p5827
sg43
Nssg35
VPT8M32.7320022S
p5828
sa(dp5829
g38
I313138863
sg39
(dp5830
g41
VRNG Ninja HCS
p5831
sg43
Nssg44
(lp5832
I1095363701
asg32
VWeaponPickup
p5833
sg35
VPT8M32.7650005S
p5834
sa(dp5835
g38
I4096745987
sg39
(dp5836
g41
VRNG Ninja HCS
p5837
sg43
Nssg44
(lp5838
I2758383128
asg32
VWeaponPickup
p5839
sg35
VPT8M32.7650005S
p5840
sa(dp5841
g32
VPlayerSpawn
p5842
sg39
(dp5843
g41
VRNG Ninja HCS
p5844
sg43
Nssg35
VPT8M32.7650005S
p5845
sa(dp5846
g38
I313138863
sg32
VWeaponDrop
p5847
sg180
I0
sg44
(lp5848
I1095363701
asg35
VPT8M35.4140004S
p5849
sg183
I0
sg184
VP0DT0H0M1.6667S
p5850
sg39
(dp5851
g41
VRammyy
p5852
sg43
Nssa(dp5853
g38
I4108759423
sg39
(dp5854
g41
VRammyy
p5855
sg43
Nssg44
(lp5856
I2758383128
asg32
VWeaponPickup
p5857
sg35
VPT8M35.4140004S
p5858
sa(dp5859
g38
I2492868984
sg39
(dp5860
g41
VRNG Ninja HCS
p5861
sg43
Nssg44
(lp5862
I2758383128
asg32
VWeaponPickup
p5863
sg35
VPT8M37.9310003S
p5864
sa(dp5865
g38
I2492868984
sg32
VWeaponDrop
p5866
sg180
I0
sg44
(lp5867
I2758383128
asg35
VPT8M39.0650067S
p5868
sg183
I0
sg184
VP0DT0H0M0.9833S
p5869
sg39
(dp5870
g41
VRNG Ninja HCS
p5871
sg43
Nssa(dp5872
g195
I4054937266
sg196
I00
sg197
I00
sg198
(dp5873
g41
VRNG Penguin HCS
p5874
sg43
Nssg201
(lp5875
I2758383128
asg203
I00
sg204
I01
sg205
I1
sg206
I0
sg207
I1
sg208
(dp5876
Vy
F11.0456257
sVx
F-0.045569510000000001
sVz
F-0.65096575000000001
ssg210
(dp5877
Vy
F10.8368454
sVx
F0.22113592900000001
sVz
F-0.89672969999999996
ssg212
I00
sg213
(dp5878
g41
VCLG LethuL HCS
p5879
sg43
Nssg217
(lp5880
sg219
(lp5881
sg221
I00
sg35
VPT8M45.1640003S
p5882
sg32
VDeath
p5883
sg224
I1
sa(dp5884
g38
I3808094875
sg32
VWeaponDrop
p5885
sg180
I8
sg44
(lp5886
I2758383128
asg35
VPT8M45.1660037S
p5887
sg183
I0
sg184
VP0DT0H0M6.9667S
p5888
sg39
(dp5889
g41
VCLG LethuL HCS
p5890
sg43
Nssa(dp5891
g38
I4096745987
sg32
VWeaponDrop
p5892
sg180
I5
sg44
(lp5893
I2758383128
asg35
VPT8M45.1660037S
p5894
sg183
I2
sg184
VP0DT0H0M27.5833S
p5895
sg39
(dp5896
g41
VCLG LethuL HCS
p5897
sg43
Nssa(dp5898
g32
VRoundEnd
p5899
sg34
I0
sg35
VPT8M45.1810003S
p5900
sassb.