ccopy_reg
_reconstructor
p1
(c__main__
match_breakdown
p2
c__builtin__
object
p3
NtRp4
(dp5
S'details'
p6
(dp7
VIsCompleteSetOfEvents
p8
I01
sVLinks
p9
(dp10
VUgcFilmManifest
p11
(dp12
VAuthenticationLifetimeExtensionSupported
p13
I00
sVQueryString
p14
V?view=film-manifest
p15
sVRetryPolicyId
p16
Vexponentialretry
p17
sVPath
p18
V/h5/films/fc13978f-7f16-451d-84cb-eb8251171b0e
p19
sVAcknowledgementTypeId
p20
I0
sVAuthorityId
p21
Vugc
p22
sVTopicName
p23
V
ssVStatsMatchDetails
p24
(dp25
g13
I00
sg14
Nsg16
Vexponentialretry
p26
sg18
Vh5/custom/matches/fc13978f-7f16-451d-84cb-eb8251171b0e
p27
sg20
I0
sg21
Vspartanstats
p28
sg23
V
sssVGameEvents
p29
(lp30
(dp31
VEventName
p32
VRoundStart
p33
sVRoundIndex
p34
I0
sVTimeSinceStart
p35
VPT0.1000056S
p36
sa(dp37
VWeaponStockId
p38
I313138863
sVPlayer
p39
(dp40
VGamertag
p41
VALG ContrA HCS
p42
sVXuid
p43
NssVWeaponAttachmentIds
p44
(lp45
I1095363701
asg32
VWeaponPickup
p46
sg35
VPT17.9389189S
p47
sa(dp48
g38
I4096745987
sg39
(dp49
g41
VALG ContrA HCS
p50
sg43
Nssg44
(lp51
I2758383128
asg32
VWeaponPickup
p52
sg35
VPT17.9389189S
p53
sa(dp54
g32
VPlayerSpawn
p55
sg39
(dp56
g41
VALG ContrA HCS
p57
sg43
Nssg35
VPT17.9389189S
p58
sa(dp59
g38
I313138863
sg39
(dp60
g41
VOG APG HCS
p61
sg43
Nssg44
(lp62
I1095363701
asg32
VWeaponPickup
p63
sg35
VPT17.9549186S
p64
sa(dp65
g38
I4096745987
sg39
(dp66
g41
VOG APG HCS
p67
sg43
Nssg44
(lp68
I2758383128
asg32
VWeaponPickup
p69
sg35
VPT17.9559195S
p70
sa(dp71
g32
VPlayerSpawn
p72
sg39
(dp73
g41
VOG APG HCS
p74
sg43
Nssg35
VPT17.9559195S
p75
sa(dp76
g38
I313138863
sg39
(dp77
g41
VOG ACE HCS
p78
sg43
Nssg44
(lp79
I1095363701
asg32
VWeaponPickup
p80
sg35
VPT17.9719211S
p81
sa(dp82
g38
I4096745987
sg39
(dp83
g41
VOG ACE HCS
p84
sg43
Nssg44
(lp85
I2758383128
asg32
VWeaponPickup
p86
sg35
VPT17.9719211S
p87
sa(dp88
g32
VPlayerSpawn
p89
sg39
(dp90
g41
VOG ACE HCS
p91
sg43
Nssg35
VPT17.9719211S
p92
sa(dp93
g38
I313138863
sg39
(dp94
g41
VALG Goofy HCS
p95
sg43
Nssg44
(lp96
I1095363701
asg32
VWeaponPickup
p97
sg35
VPT17.988921S
p98
sa(dp99
g38
I4096745987
sg39
(dp100
g41
VALG Goofy HCS
p101
sg43
Nssg44
(lp102
I2758383128
asg32
VWeaponPickup
p103
sg35
VPT17.988921S
p104
sa(dp105
g32
VPlayerSpawn
p106
sg39
(dp107
g41
VALG Goofy HCS
p108
sg43
Nssg35
VPT17.988921S
p109
sa(dp110
g38
I313138863
sg39
(dp111
g41
VALGPredevonator
p112
sg43
Nssg44
(lp113
I1095363701
asg32
VWeaponPickup
p114
sg35
VPT18.0049219S
p115
sa(dp116
g38
I4096745987
sg39
(dp117
g41
VALGPredevonator
p118
sg43
Nssg44
(lp119
I2758383128
asg32
VWeaponPickup
p120
sg35
VPT18.0059222S
p121
sa(dp122
g32
VPlayerSpawn
p123
sg39
(dp124
g41
VALGPredevonator
p125
sg43
Nssg35
VPT18.0059222S
p126
sa(dp127
g38
I313138863
sg39
(dp128
g41
VALG RyaNoob
p129
sg43
Nssg44
(lp130
I1095363701
asg32
VWeaponPickup
p131
sg35
VPT18.0219231S
p132
sa(dp133
g38
I4096745987
sg39
(dp134
g41
VALG RyaNoob
p135
sg43
Nssg44
(lp136
I2758383128
asg32
VWeaponPickup
p137
sg35
VPT18.0219231S
p138
sa(dp139
g32
VPlayerSpawn
p140
sg39
(dp141
g41
VALG RyaNoob
p142
sg43
Nssg35
VPT18.0219231S
p143
sa(dp144
g38
I313138863
sg39
(dp145
g41
VOG Maniac HCS
p146
sg43
Nssg44
(lp147
I1095363701
asg32
VWeaponPickup
p148
sg35
VPT18.0389237S
p149
sa(dp150
g38
I4096745987
sg39
(dp151
g41
VOG Maniac HCS
p152
sg43
Nssg44
(lp153
I2758383128
asg32
VWeaponPickup
p154
sg35
VPT18.0389237S
p155
sa(dp156
g32
VPlayerSpawn
p157
sg39
(dp158
g41
VOG Maniac HCS
p159
sg43
Nssg35
VPT18.0389237S
p160
sa(dp161
g38
I313138863
sg39
(dp162
g41
VOG Str8 SickHCS
p163
sg43
Nssg44
(lp164
I1095363701
asg32
VWeaponPickup
p165
sg35
VPT18.0549245S
p166
sa(dp167
g38
I4096745987
sg39
(dp168
g41
VOG Str8 SickHCS
p169
sg43
Nssg44
(lp170
I2758383128
asg32
VWeaponPickup
p171
sg35
VPT18.0559246S
p172
sa(dp173
g32
VPlayerSpawn
p174
sg39
(dp175
g41
VOG Str8 SickHCS
p176
sg43
Nssg35
VPT18.0559246S
p177
sa(dp178
g38
I4096745987
sg32
VWeaponDrop
p179
sVShotsFired
p180
I0
sg44
(lp181
I2758383128
asg35
VPT19.6540045S
p182
sVShotsLanded
p183
I0
sVTimeWeaponActiveAsPrimary
p184
VP0DT0H0M0.2500S
p185
sg39
(dp186
g41
VOG Maniac HCS
p187
sg43
Nssa(dp188
g38
I2511447508
sg39
(dp189
g41
VOG Maniac HCS
p190
sg43
Nssg44
(lp191
I2758383128
asg32
VWeaponPickup
p192
sg35
VPT19.6540045S
p193
sa(dp194
g38
I4096745987
sg32
VWeaponDrop
p195
sg180
I0
sg44
(lp196
I2758383128
asg35
VPT21.5211013S
p197
sg183
I0
sg184
VP0DT0H0M2.5500S
p198
sg39
(dp199
g41
VOG Str8 SickHCS
p200
sg43
Nssa(dp201
g38
I424645655
sg39
(dp202
g41
VOG Str8 SickHCS
p203
sg43
Nssg44
(lp204
I1327094800
asg32
VWeaponPickup
p205
sg35
VPT21.5211013S
p206
sa(dp207
g38
I4096745987
sg32
VWeaponDrop
p208
sg180
I0
sg44
(lp209
I2758383128
asg35
VPT21.5711037S
p210
sg183
I0
sg184
VP0DT0H0M2.0167S
p211
sg39
(dp212
g41
VALG Goofy HCS
p213
sg43
Nssa(dp214
g38
I424645655
sg39
(dp215
g41
VALG Goofy HCS
p216
sg43
Nssg44
(lp217
I1327094800
asg32
VWeaponPickup
p218
sg35
VPT21.5711037S
p219
sa(dp220
VKillerWeaponStockId
p221
I4096745987
sVIsAssassination
p222
I00
sVIsMelee
p223
I00
sVKiller
p224
(dp225
g41
VALG RyaNoob
p226
sg43
NssVKillerWeaponAttachmentIds
p227
(lp228
I2758383128
asVIsGroundPound
p229
I00
sVIsWeapon
p230
I01
sVDeathDisposition
p231
I1
sVVictimStockId
p232
I0
sVVictimAgent
p233
I1
sVKillerWorldLocation
p234
(dp235
Vy
F0.12247151100000001
sVx
F-6.7598799999999999
sVz
F0.441067457
ssVVictimWorldLocation
p236
(dp237
Vy
F-10.508206400000001
sVx
F-7.1338790000000003
sVz
F0.67581594
ssVIsShoulderBash
p238
I00
sVVictim
p239
(dp240
g41
VOG APG HCS
p241
sg43
NssVVictimAttachmentIds
p242
(lp243
sVAssistants
p244
(lp245
sVIsHeadshot
p246
I01
sg35
VPT27.6414153S
p247
sg32
VDeath
p248
sVKillerAgent
p249
I1
sa(dp250
g32
VMedal
p251
sg39
(dp252
g41
VALG RyaNoob
p253
sg43
NssVMedalId
p254
I3261908037
sg35
VPT27.6504189S
p255
sa(dp256
g32
VMedal
p257
sg39
(dp258
g41
VALG RyaNoob
p259
sg43
Nssg254
I3001183151
sg35
VPT27.6504189S
p260
sa(dp261
g38
I313138863
sg32
VWeaponDrop
p262
sg180
I0
sg44
(lp263
I1095363701
asg35
VPT27.6544161S
p264
sg183
I0
sg184
VP0DT0H0M1.0833S
p265
sg39
(dp266
g41
VOG APG HCS
p267
sg43
Nssa(dp268
g38
I4096745987
sg32
VWeaponDrop
p269
sg180
I7
sg44
(lp270
I2758383128
asg35
VPT27.6544161S
p271
sg183
I5
sg184
VP0DT0H0M8.6000S
p272
sg39
(dp273
g41
VOG APG HCS
p274
sg43
Nssa(dp275
g221
I424645655
sg222
I00
sg223
I00
sg224
(dp276
g41
VOG Str8 SickHCS
p277
sg43
Nssg227
(lp278
I1327094800
asg229
I00
sg230
I01
sg231
I1
sg232
I0
sg233
I1
sg234
(dp279
Vy
F1.03924251
sVx
F-8.1642829999999993
sVz
F3.56379819
ssg236
(dp280
Vy
F8.474183
sVx
F-6.07751369
sVz
F0.0003761053
ssg238
I00
sg239
(dp281
g41
VALG ContrA HCS
p282
sg43
Nssg242
(lp283
sg244
(lp284
(dp285
g41
VOG Maniac HCS
p286
sg43
Nsa(dp287
g41
VOG ACE HCS
p288
sg43
Nsasg246
I01
sg35
VPT28.5054598S
p289
sg32
VDeath
p290
sg249
I1
sa(dp291
g32
VMedal
p292
sg39
(dp293
g41
VOG Str8 SickHCS
p294
sg43
Nssg254
I3261908037
sg35
VPT28.5064594S
p295
sa(dp296
g38
I313138863
sg32
VWeaponDrop
p297
sg180
I0
sg44
(lp298
I1095363701
asg35
VPT28.5074596S
p299
sg183
I0
sg184
VP0DT0H0M1.6667S
p300
sg39
(dp301
g41
VALG ContrA HCS
p302
sg43
Nssa(dp303
g38
I4096745987
sg32
VWeaponDrop
p304
sg180
I5
sg44
(lp305
I2758383128
asg35
VPT28.5074596S
p306
sg183
I1
sg184
VP0DT0H0M8.9000S
p307
sg39
(dp308
g41
VALG ContrA HCS
p309
sg43
Nssa(dp310
g221
I4106030681
sg222
I00
sg223
I00
sg224
(dp311
g41
VOG APG HCS
p312
sg43
Nssg227
(lp313
sg229
I00
sg230
I01
sg231
I1
sg232
I0
sg233
I1
sg234
(dp314
Vy
F-10.9795771
sVx
F-6.4535980000000004
sVz
F1.5825234699999999
ssg236
(dp315
Vy
F-0.084429875000000001
sVx
F-8.8273150000000005
sVz
F-0.59999936799999998
ssg238
I00
sg239
(dp316
g41
VALG RyaNoob
p317
sg43
Nssg242
(lp318
sg244
(lp319
(dp320
g41
VOG Maniac HCS
p321
sg43
Nsasg246
I00
sg35
VPT28.538461S
p322
sg32
VDeath
p323
sg249
I1
sa(dp324
g32
VMedal
p325
sg39
(dp326
g41
VOG APG HCS
p327
sg43
Nssg254
I285057226
sg35
VPT28.5394615S
p328
sa(dp329
g38
I313138863
sg32
VWeaponDrop
p330
sg180
I0
sg44
(lp331
I1095363701
asg35
VPT28.5394615S
p332
sg183
I0
sg184
VP0DT0H0M0.8167S
p333
sg39
(dp334
g41
VALG RyaNoob
p335
sg43
Nssa(dp336
g38
I4096745987
sg32
VWeaponDrop
p337
sg180
I11
sg44
(lp338
I2758383128
asg35
VPT28.5394615S
p339
sg183
I6
sg184
VP0DT0H0M9.7000S
p340
sg39
(dp341
g41
VALG RyaNoob
p342
sg43
Nssa(dp343
g38
I313138863
sg32
VWeaponDrop
p344
sg180
I0
sg44
(lp345
I1095363701
asg35
VPT29.1704916S
p346
sg183
I0
sg184
VP0DT0H0M2.1833S
p347
sg39
(dp348
g41
VOG ACE HCS
p349
sg43
Nssa(dp350
g38
I3682788176
sg39
(dp351
g41
VOG ACE HCS
p352
sg43
Nssg44
(lp353
I2758383128
asg32
VWeaponPickupPad
p354
sg35
VPT29.1714983S
p355
sa(dp356
g38
I3682788176
sg39
(dp357
g41
VOG ACE HCS
p358
sg43
Nssg44
(lp359
I2758383128
asg32
VWeaponPickup
p360
sg35
VPT29.172494S
p361
sa(dp362
g221
I4096745987
sg222
I00
sg223
I00
sg224
(dp363
g41
VALGPredevonator
p364
sg43
Nssg227
(lp365
I2758383128
asg229
I00
sg230
I01
sg231
I1
sg232
I0
sg233
I1
sg234
(dp366
Vy
F-0.22055319000000001
sVx
F-12.3072853
sVz
F2.2182986699999998
ssg236
(dp367
Vy
F-0.26840582499999999
sVx
F-4.0282280000000004
sVz
F2.8090543700000001
ssg238
I00
sg239
(dp368
g41
VOG Str8 SickHCS
p369
sg43
Nssg242
(lp370
sg244
(lp371
(dp372
g41
VALG Goofy HCS
p373
sg43
Nsasg246
I01
sg35
VPT32.0886425S
p374
sg32
VDeath
p375
sg249
I1
sa(dp376
g32
VMedal
p377
sg39
(dp378
g41
VALGPredevonator
p379
sg43
Nssg254
I3261908037
sg35
VPT32.0896433S
p380
sa(dp381
g38
I313138863
sg32
VWeaponDrop
p382
sg180
I0
sg44
(lp383
I1095363701
asg35
VPT32.0896433S
p384
sg183
I0
sg184
VP0DT0H0M0.9167S
p385
sg39
(dp386
g41
VOG Str8 SickHCS
p387
sg43
Nssa(dp388
g38
I424645655
sg32
VWeaponDrop
p389
sg180
I6
sg44
(lp390
I1327094800
asg35
VPT32.0896433S
p391
sg183
I4
sg184
VP0DT0H0M10.5667S
p392
sg39
(dp393
g41
VOG Str8 SickHCS
p394
sg43
Nssa(dp395
g38
I313138863
sg39
(dp396
g41
VOG APG HCS
p397
sg43
Nssg44
(lp398
I1095363701
asg32
VWeaponPickup
p399
sg35
VPT35.6558261S
p400
sa(dp401
g38
I4096745987
sg39
(dp402
g41
VOG APG HCS
p403
sg43
Nssg44
(lp404
I2758383128
asg32
VWeaponPickup
p405
sg35
VPT35.656826S
p406
sa(dp407
g32
VPlayerSpawn
p408
sg39
(dp409
g41
VOG APG HCS
p410
sg43
Nssg35
VPT35.656826S
p411
sa(dp412
g38
I2492868984
sg39
(dp413
g41
VALG Goofy HCS
p414
sg43
Nssg44
(lp415
I2758383128
asg32
VWeaponPickup
p416
sg35
VPT35.7388301S
p417
sa(dp418
g38
I313138863
sg39
(dp419
g41
VALG ContrA HCS
p420
sg43
Nssg44
(lp421
I1095363701
asg32
VWeaponPickup
p422
sg35
VPT36.5218702S
p423
sa(dp424
g38
I4096745987
sg39
(dp425
g41
VALG ContrA HCS
p426
sg43
Nssg44
(lp427
I2758383128
asg32
VWeaponPickup
p428
sg35
VPT36.5228706S
p429
sa(dp430
g32
VPlayerSpawn
p431
sg39
(dp432
g41
VALG ContrA HCS
p433
sg43
Nssg35
VPT36.5228706S
p434
sa(dp435
g38
I313138863
sg39
(dp436
g41
VALG RyaNoob
p437
sg43
Nssg44
(lp438
I1095363701
asg32
VWeaponPickup
p439
sg35
VPT36.5558723S
p440
sa(dp441
g38
I4096745987
sg39
(dp442
g41
VALG RyaNoob
p443
sg43
Nssg44
(lp444
I2758383128
asg32
VWeaponPickup
p445
sg35
VPT36.5558723S
p446
sa(dp447
g32
VPlayerSpawn
p448
sg39
(dp449
g41
VALG RyaNoob
p450
sg43
Nssg35
VPT36.5558723S
p451
sa(dp452
g38
I2492868984
sg32
VWeaponDrop
p453
sg180
I0
sg44
(lp454
I2758383128
asg35
VPT36.889889S
p455
sg183
I0
sg184
VP0DT0H0M0.9833S
p456
sg39
(dp457
g41
VALG Goofy HCS
p458
sg43
Nssa(dp459
g221
I3190813201
sg222
I00
sg223
I00
sg224
(dp460
g41
VOG Maniac HCS
p461
sg43
Nssg227
(lp462
sg229
I00
sg230
I01
sg231
I1
sg232
I0
sg233
I1
sg234
(dp463
Vy
F-5.8901130000000004
sVx
F-13.573053399999999
sVz
F0.032079666899999998
ssg236
(dp464
Vy
F-1.5749539100000001
sVx
F-12.136577600000001
sVz
F3.65349317
ssg238
I00
sg239
(dp465
g41
VALGPredevonator
p466
sg43
Nssg242
(lp467
sg244
(lp468
sg246
I00
sg35
VPT37.0888985S
p469
sg32
VDeath
p470
sg249
I1
sa(dp471
g32
VMedal
p472
sg39
(dp473
g41
VOG Maniac HCS
p474
sg43
Nssg254
I2782465081
sg35
VPT37.0888985S
p475
sa(dp476
g38
I313138863
sg32
VWeaponDrop
p477
sg180
I0
sg44
(lp478
I1095363701
asg35
VPT37.0898996S
p479
sg183
I0
sg184
VP0DT0H0M3.1000S
p480
sg39
(dp481
g41
VALGPredevonator
p482
sg43
Nssa(dp483
g38
I4096745987
sg32
VWeaponDrop
p484
sg180
I9
sg44
(lp485
I2758383128
asg35
VPT37.0898996S
p486
sg183
I7
sg184
VP0DT0H0M15.9833S
p487
sg39
(dp488
g41
VALGPredevonator
p489
sg43
Nssa(dp490
g38
I313138863
sg39
(dp491
g41
VOG Str8 SickHCS
p492
sg43
Nssg44
(lp493
I1095363701
asg32
VWeaponPickup
p494
sg35
VPT40.1060539S
p495
sa(dp496
g38
I4096745987
sg39
(dp497
g41
VOG Str8 SickHCS
p498
sg43
Nssg44
(lp499
I2758383128
asg32
VWeaponPickup
p500
sg35
VPT40.1060539S
p501
sa(dp502
g32
VPlayerSpawn
p503
sg39
(dp504
g41
VOG Str8 SickHCS
p505
sg43
Nssg35
VPT40.1060539S
p506
sa(dp507
g221
I3682788176
sg222
I00
sg223
I00
sg224
(dp508
g41
VOG ACE HCS
p509
sg43
Nssg227
(lp510
I2758383128
asg229
I00
sg230
I01
sg231
I1
sg232
I0
sg233
I1
sg234
(dp511
Vy
F-0.66434025799999996
sVx
F-0.33179223499999999
sVz
F4.0338335000000001
ssg236
(dp512
Vy
F-1.0790795099999999
sVx
F-11.793725999999999
sVz
F3.5673644499999999
ssg238
I00
sg239
(dp513
g41
VALG Goofy HCS
p514
sg43
Nssg242
(lp515
sg244
(lp516
(dp517
g41
VOG Maniac HCS
p518
sg43
Nsasg246
I00
sg35
VPT41.6721432S
p519
sg32
VDeath
p520
sg249
I1
sa(dp521
g38
I313138863
sg32
VWeaponDrop
p522
sg180
I0
sg44
(lp523
I1095363701
asg35
VPT41.6741335S
p524
sg183
I0
sg184
VP0DT0H0M4.9167S
p525
sg39
(dp526
g41
VALG Goofy HCS
p527
sg43
Nssa(dp528
g38
I424645655
sg32
VWeaponDrop
p529
sg180
I6
sg44
(lp530
I1327094800
asg35
VPT41.6741335S
p531
sg183
I0
sg184
VP0DT0H0M15.7500S
p532
sg39
(dp533
g41
VALG Goofy HCS
p534
sg43
Nssa(dp535
g38
I313138863
sg39
(dp536
g41
VALGPredevonator
p537
sg43
Nssg44
(lp538
I1095363701
asg32
VWeaponPickup
p539
sg35
VPT45.1053095S
p540
sa(dp541
g38
I4096745987
sg39
(dp542
g41
VALGPredevonator
p543
sg43
Nssg44
(lp544
I2758383128
asg32
VWeaponPickup
p545
sg35
VPT45.1063098S
p546
sa(dp547
g32
VPlayerSpawn
p548
sg39
(dp549
g41
VALGPredevonator
p550
sg43
Nssg35
VPT45.1063098S
p551
sa(dp552
g221
I2511447508
sg222
I00
sg223
I00
sg224
(dp553
g41
VOG Maniac HCS
p554
sg43
Nssg227
(lp555
I2758383128
asg229
I00
sg230
I01
sg231
I1
sg232
I0
sg233
I1
sg234
(dp556
Vy
F0.94297903800000005
sVx
F-13.780343999999999
sVz
F2.342419
ssg236
(dp557
Vy
F-2.0279431300000001
sVx
F-17.202491800000001
sVz
F1.3997803900000001
ssg238
I00
sg239
(dp558
g41
VALG ContrA HCS
p559
sg43
Nssg242
(lp560
sg244
(lp561
sg246
I00
sg35
VPT48.8725029S
p562
sg32
VDeath
p563
sg249
I1
sa(dp564
g32
VMedal
p565
sg39
(dp566
g41
VOG Maniac HCS
p567
sg43
Nssg254
I2782465081
sg35
VPT48.8725029S
p568
sa(dp569
g38
I313138863
sg32
VWeaponDrop
p570
sg180
I0
sg44
(lp571
I1095363701
asg35
VPT48.8735024S
p572
sg183
I0
sg184
VP0DT0H0M0.5833S
p573
sg39
(dp574
g41
VALG ContrA HCS
p575
sg43
Nssa(dp576
g38
I4096745987
sg32
VWeaponDrop
p577
sg180
I4
sg44
(lp578
I2758383128
asg35
VPT48.8735024S
p579
sg183
I3
sg184
VP0DT0H0M11.7667S
p580
sg39
(dp581
g41
VALG ContrA HCS
p582
sg43
Nssa(dp583
g221
I4096745987
sg222
I00
sg223
I00
sg224
(dp584
g41
VOG Str8 SickHCS
p585
sg43
Nssg227
(lp586
I2758383128
asg229
I00
sg230
I01
sg231
I1
sg232
I0
sg233
I1
sg234
(dp587
Vy
F-11.0849571
sVx
F7.6329269999999996
sVz
F0.47290492099999998
ssg236
(dp588
Vy
F-5.8256835899999997
sVx
F17.90326
sVz
F1.8285052799999999
ssg238
I00
sg239
(dp589
g41
VALG RyaNoob
p590
sg43
Nssg242
(lp591
sg244
(lp592
sg246
I01
sg35
VPT49.6555422S
p593
sg32
VDeath
p594
sg249
I1
sa(dp595
g32
VMedal
p596
sg39
(dp597
g41
VOG Str8 SickHCS
p598
sg43
Nssg254
I3261908037
sg35
VPT49.6575424S
p599
sa(dp600
g38
I313138863
sg32
VWeaponDrop
p601
sg180
I16
sg44
(lp602
I1095363701
asg35
VPT49.6575424S
p603
sg183
I7
sg184
VP0DT0H0M5.7000S
p604
sg39
(dp605
g41
VALG RyaNoob
p606
sg43
Nssa(dp607
g38
I4096745987
sg32
VWeaponDrop
p608
sg180
I2
sg44
(lp609
I2758383128
asg35
VPT49.6575424S
p610
sg183
I2
sg184
VP0DT0H0M7.4000S
p611
sg39
(dp612
g41
VALG RyaNoob
p613
sg43
Nssa(dp614
g38
I313138863
sg39
(dp615
g41
VALG Goofy HCS
p616
sg43
Nssg44
(lp617
I1095363701
asg32
VWeaponPickup
p618
sg35
VPT49.6895447S
p619
sa(dp620
g38
I4096745987
sg39
(dp621
g41
VALG Goofy HCS
p622
sg43
Nssg44
(lp623
I2758383128
asg32
VWeaponPickup
p624
sg35
VPT49.6895447S
p625
sa(dp626
g32
VPlayerSpawn
p627
sg39
(dp628
g41
VALG Goofy HCS
p629
sg43
Nssg35
VPT49.6895447S
p630
sa(dp631
g221
I3682788176
sg222
I00
sg223
I00
sg224
(dp632
g41
VOG ACE HCS
p633
sg43
Nssg227
(lp634
I2758383128
asg229
I00
sg230
I01
sg231
I1
sg232
I0
sg233
I1
sg234
(dp635
Vy
F-0.66824660000000002
sVx
F3.2194759999999998
sVz
F4.16526
ssg236
(dp636
Vy
F0.018344760000000002
sVx
F13.07056
sVz
F1.99233007
ssg238
I00
sg239
(dp637
g41
VALGPredevonator
p638
sg43
Nssg242
(lp639
sg244
(lp640
sg246
I00
sg35
VPT51.3556291S
p641
sg32
VDeath
p642
sg249
I1
sa(dp643
g38
I313138863
sg32
VWeaponDrop
p644
sg180
I0
sg44
(lp645
I1095363701
asg35
VPT51.3566296S
p646
sg183
I0
sg184
VP0DT0H0M0.3167S
p647
sg39
(dp648
g41
VALGPredevonator
p649
sg43
Nssa(dp650
g38
I4096745987
sg32
VWeaponDrop
p651
sg180
I1
sg44
(lp652
I2758383128
asg35
VPT51.3566296S
p653
sg183
I1
sg184
VP0DT0H0M5.9333S
p654
sg39
(dp655
g41
VALGPredevonator
p656
sg43
Nssa(dp657
g32
VMedal
p658
sg39
(dp659
g41
VOG Maniac HCS
p660
sg43
Nssg254
I3400287617
sg35
VPT54.004764S
p661
sa(dp662
g38
I4096745987
sg32
VWeaponDrop
p663
sg180
I3
sg44
(lp664
I2758383128
asg35
VPT56.3708844S
p665
sg183
I0
sg184
VP0DT0H0M11.0500S
p666
sg39
(dp667
g41
VOG ACE HCS
p668
sg43
Nssa(dp669
g38
I424645655
sg39
(dp670
g41
VOG ACE HCS
p671
sg43
Nssg44
(lp672
I1327094800
asg32
VWeaponPickup
p673
sg35
VPT56.371886S
p674
sa(dp675
g38
I313138863
sg39
(dp676
g41
VALG ContrA HCS
p677
sg43
Nssg44
(lp678
I1095363701
asg32
VWeaponPickup
p679
sg35
VPT56.888913S
p680
sa(dp681
g38
I4096745987
sg39
(dp682
g41
VALG ContrA HCS
p683
sg43
Nssg44
(lp684
I2758383128
asg32
VWeaponPickup
p685
sg35
VPT56.8899133S
p686
sa(dp687
g32
VPlayerSpawn
p688
sg39
(dp689
g41
VALG ContrA HCS
p690
sg43
Nssg35
VPT56.8899133S
p691
sa(dp692
g38
I313138863
sg39
(dp693
g41
VALG RyaNoob
p694
sg43
Nssg44
(lp695
I1095363701
asg32
VWeaponPickup
p696
sg35
VPT57.6729534S
p697
sa(dp698
g38
I4096745987
sg39
(dp699
g41
VALG RyaNoob
p700
sg43
Nssg44
(lp701
I2758383128
asg32
VWeaponPickup
p702
sg35
VPT57.6729534S
p703
sa(dp704
g32
VPlayerSpawn
p705
sg39
(dp706
g41
VALG RyaNoob
p707
sg43
Nssg35
VPT57.6729534S
p708
sa(dp709
g38
I313138863
sg39
(dp710
g41
VALGPredevonator
p711
sg43
Nssg44
(lp712
I1095363701
asg32
VWeaponPickup
p713
sg35
VPT59.3730405S
p714
sa(dp715
g38
I4096745987
sg39
(dp716
g41
VALGPredevonator
p717
sg43
Nssg44
(lp718
I2758383128
asg32
VWeaponPickup
p719
sg35
VPT59.3730405S
p720
sa(dp721
g32
VPlayerSpawn
p722
sg39
(dp723
g41
VALGPredevonator
p724
sg43
Nssg35
VPT59.3730405S
p725
sa(dp726
g221
I4096745987
sg222
I00
sg223
I00
sg224
(dp727
g41
VOG APG HCS
p728
sg43
Nssg227
(lp729
I2758383128
asg229
I00
sg230
I01
sg231
I1
sg232
I0
sg233
I1
sg234
(dp730
Vy
F13.804783799999999
sVx
F7.2599780000000003
sVz
F1.47625625
ssg236
(dp731
Vy
F11.368596999999999
sVx
F14.24597
sVz
F0.71110680000000004
ssg238
I00
sg239
(dp732
g41
VALG Goofy HCS
p733
sg43
Nssg242
(lp734
sg244
(lp735
(dp736
g41
VOG Str8 SickHCS
p737
sg43
Nsasg246
I00
sg35
VPT59.7050562S
p738
sg32
VDeath
p739
sg249
I1
sa(dp740
g38
I313138863
sg32
VWeaponDrop
p741
sg180
I0
sg44
(lp742
I1095363701
asg35
VPT59.7070569S
p743
sg183
I0
sg184
VP0DT0H0M3.9833S
p744
sg39
(dp745
g41
VALG Goofy HCS
p746
sg43
Nssa(dp747
g38
I4096745987
sg32
VWeaponDrop
p748
sg180
I1
sg44
(lp749
I2758383128
asg35
VPT59.7070569S
p750
sg183
I0
sg184
VP0DT0H0M6.0333S
p751
sg39
(dp752
g41
VALG Goofy HCS
p753
sg43
Nssa(dp754
g38
I2244200496
sg39
(dp755
g41
VOG APG HCS
p756
sg43
Nssg44
(lp757
I2758383128
asg32
VWeaponPickup
p758
sg35
VPT1M0.5551008S
p759
sa(dp760
g32
VImpulse
p761
sg39
(dp762
g41
VOG APG HCS
p763
sg43
NssVImpulseId
p764
I4191318012
sg35
VPT1M0.5781014S
p765
sa(dp766
g32
VImpulse
p767
sg39
(dp768
g41
VOG APG HCS
p769
sg43
Nssg764
I1039658009
sg35
VPT1M0.5781014S
p770
sa(dp771
g38
I4096745987
sg32
VWeaponDrop
p772
sg180
I6
sg44
(lp773
I2758383128
asg35
VPT1M3.2712381S
p774
sg183
I5
sg184
VP0DT0H0M16.5667S
p775
sg39
(dp776
g41
VOG Str8 SickHCS
p777
sg43
Nssa(dp778
g38
I2511447508
sg39
(dp779
g41
VOG Str8 SickHCS
p780
sg43
Nssg44
(lp781
I2758383128
asg32
VWeaponPickup
p782
sg35
VPT1M3.2712381S
p783
sa(dp784
g38
I2244200496
sg32
VWeaponDrop
p785
sg180
I0
sg44
(lp786
I2758383128
asg35
VPT1M4.0382784S
p787
sg183
I0
sg184
VP0DT0H0M3.3167S
p788
sg39
(dp789
g41
VOG APG HCS
p790
sg43
Nssa(dp791
g32
VImpulse
p792
sg39
(dp793
g41
VOG APG HCS
p794
sg43
Nssg764
I3435524855
sg35
VPT1M4.0492795S
p795
sa(dp796
g38
I2244200496
sg39
(dp797
g41
VOG APG HCS
p798
sg43
Nssg44
(lp799
I2758383128
asg32
VWeaponPickup
p800
sg35
VPT1M5.4213482S
p801
sa(dp802
g32
VImpulse
p803
sg39
(dp804
g41
VOG APG HCS
p805
sg43
Nssg764
I4191318012
sg35
VPT1M5.4223496S
p806
sa(dp807
g38
I313138863
sg39
(dp808
g41
VALG Goofy HCS
p809
sg43
Nssg44
(lp810
I1095363701
asg32
VWeaponPickup
p811
sg35
VPT1M7.7224675S
p812
sa(dp813
g38
I4096745987
sg39
(dp814
g41
VALG Goofy HCS
p815
sg43
Nssg44
(lp816
I2758383128
asg32
VWeaponPickup
p817
sg35
VPT1M7.7234679S
p818
sa(dp819
g32
VPlayerSpawn
p820
sg39
(dp821
g41
VALG Goofy HCS
p822
sg43
Nssg35
VPT1M7.7234679S
p823
sa(dp824
g221
I4096745987
sg222
I00
sg223
I00
sg224
(dp825
g41
VALG RyaNoob
p826
sg43
Nssg227
(lp827
I2758383128
asg229
I00
sg230
I01
sg231
I1
sg232
I0
sg233
I1
sg234
(dp828
Vy
F-5.251773
sVx
F0.91954130000000001
sVz
F1.0157522000000001
ssg236
(dp829
Vy
F-1.3967106300000001
sVx
F-0.0014956043999999999
sVz
F1.15573251
ssg238
I00
sg239
(dp830
g41
VOG ACE HCS
p831
sg43
Nssg242
(lp832
sg244
(lp833
sg246
I01
sg35
VPT1M9.6225648S
p834
sg32
VDeath
p835
sg249
I1
sa(dp836
g32
VMedal
p837
sg39
(dp838
g41
VALG RyaNoob
p839
sg43
Nssg254
I2782465081
sg35
VPT1M9.6225648S
p840
sa(dp841
g32
VMedal
p842
sg39
(dp843
g41
VALG RyaNoob
p844
sg43
Nssg254
I3261908037
sg35
VPT1M9.6245653S
p845
sa(dp846
g38
I3682788176
sg32
VWeaponDrop
p847
sg180
I4
sg44
(lp848
I2758383128
asg35
VPT1M9.6245653S
p849
sg183
I2
sg184
VP0DT0H0M33.0500S
p850
sg39
(dp851
g41
VOG ACE HCS
p852
sg43
Nssa(dp853
g38
I3682788176
sg32
VWeaponDrop
p854
sg180
I0
sg44
(lp855
I2758383128
asg35
VPT1M9.6245653S
p856
sg183
I0
sg184
VP0DT0S
p857
sg39
(dp858
g41
VOG ACE HCS
p859
sg43
Nssa(dp860
g38
I3682788176
sg32
VWeaponDrop
p861
sg180
I0
sg44
(lp862
I2758383128
asg35
VPT1M9.6245653S
p863
sg183
I0
sg184
VP0DT0S
p864
sg39
(dp865
g41
VOG ACE HCS
p866
sg43
Nssa(dp867
g38
I424645655
sg32
VWeaponDrop
p868
sg180
I6
sg44
(lp869
I1327094800
asg35
VPT1M9.6245653S
p870
sg183
I2
sg184
VP0DT0H0M5.3667S
p871
sg39
(dp872
g41
VOG ACE HCS
p873
sg43
Nssa(dp874
g221
I2244200496
sg222
I00
sg223
I00
sg224
(dp875
g41
VOG APG HCS
p876
sg43
Nssg227
(lp877
I2758383128
asg229
I00
sg230
I01
sg231
I1
sg232
I0
sg233
I1
sg234
(dp878
Vy
F-6.7926807399999998
sVx
F6.0572485900000004
sVz
F0.55289540000000004
ssg236
(dp879
Vy
F-5.2865977300000004
sVx
F0.97508479999999997
sVz
F0.97674643999999999
ssg238
I00
sg239
(dp880
g41
VALG RyaNoob
p881
sg43
Nssg242
(lp882
sg244
(lp883
(dp884
g41
VOG ACE HCS
p885
sg43
Nsasg246
I01
sg35
VPT1M9.6555661S
p886
sg32
VDeath
p887
sg249
I1
sa(dp888
g32
VImpulse
p889
sg39
(dp890
g41
VOG APG HCS
p891
sg43
Nssg764
I3514632335
sg35
VPT1M9.6575666S
p892
sa(dp893
g32
VMedal
p894
sg39
(dp895
g41
VOG APG HCS
p896
sg43
Nssg254
I2299864088
sg35
VPT1M9.6575666S
p897
sa(dp898
g32
VMedal
p899
sg39
(dp900
g41
VOG APG HCS
p901
sg43
Nssg254
I3261908037
sg35
VPT1M9.6575666S
p902
sa(dp903
g38
I313138863
sg32
VWeaponDrop
p904
sg180
I0
sg44
(lp905
I1095363701
asg35
VPT1M9.6585669S
p906
sg183
I0
sg184
VP0DT0H0M0.7500S
p907
sg39
(dp908
g41
VALG RyaNoob
p909
sg43
Nssa(dp910
g38
I4096745987
sg32
VWeaponDrop
p911
sg180
I2
sg44
(lp912
I2758383128
asg35
VPT1M9.6585669S
p913
sg183
I2
sg184
VP0DT0H0M11.2333S
p914
sg39
(dp915
g41
VALG RyaNoob
p916
sg43
Nssa(dp917
g38
I4096745987
sg32
VWeaponDrop
p918
sg180
I0
sg44
(lp919
I2758383128
asg35
VPT1M9.6585669S
p920
sg183
I0
sg184
VP0DT0S
p921
sg39
(dp922
g41
VALG RyaNoob
p923
sg43
Nssa(dp924
g38
I2244200496
sg39
(dp925
g41
VALG ContrA HCS
p926
sg43
Nssg44
(lp927
I2758383128
asg32
VWeaponPickup
p928
sg35
VPT1M12.8547288S
p929
sa(dp930
g32
VImpulse
p931
sg39
(dp932
g41
VALG ContrA HCS
p933
sg43
Nssg764
I4191318012
sg35
VPT1M12.8557303S
p934
sa(dp935
g32
VImpulse
p936
sg39
(dp937
g41
VALG ContrA HCS
p938
sg43
Nssg764
I1039658009
sg35
VPT1M12.8557303S
p939
sa(dp940
g38
I2244200496
sg32
VWeaponDrop
p941
sg180
I3
sg44
(lp942
I2758383128
asg35
VPT1M15.8878836S
p943
sg183
I1
sg184
VP0DT0H0M10.3167S
p944
sg39
(dp945
g41
VOG APG HCS
p946
sg43
Nssa(dp947
g32
VImpulse
p948
sg39
(dp949
g41
VOG APG HCS
p950
sg43
Nssg764
I3435524855
sg35
VPT1M15.8888858S
p951
sa(dp952
g221
I4096745987
sg222
I00
sg223
I00
sg224
(dp953
g41
VALGPredevonator
p954
sg43
Nssg227
(lp955
I2758383128
asg229
I00
sg230
I01
sg231
I1
sg232
I0
sg233
I1
sg234
(dp956
Vy
F-1.5735269999999999
sVx
F-0.35440100000000002
sVz
F3.2791354699999999
ssg236
(dp957
Vy
F-13.4487057
sVx
F0.69955610000000001
sVz
F0.63083820000000002
ssg238
I00
sg239
(dp958
g41
VOG APG HCS
p959
sg43
Nssg242
(lp960
sg244
(lp961
sg246
I01
sg35
VPT1M16.6059224S
p962
sg32
VDeath
p963
sg249
I1
sa(dp964
g32
VMedal
p965
sg39
(dp966
g41
VALGPredevonator
p967
sg43
Nssg254
I164204247
sg35
VPT1M16.6079224S
p968
sa(dp969
g32
VMedal
p970
sg39
(dp971
g41
VALGPredevonator
p972
sg43
Nssg254
I3261908037
sg35
VPT1M16.6079224S
p973
sa(dp974
g38
I313138863
sg32
VWeaponDrop
p975
sg180
I4
sg44
(lp976
I1095363701
asg35
VPT1M16.6089229S
p977
sg183
I0
sg184
VP0DT0H0M11.8000S
p978
sg39
(dp979
g41
VOG APG HCS
p980
sg43
Nssa(dp981
g38
I4096745987
sg32
VWeaponDrop
p982
sg180
I6
sg44
(lp983
I2758383128
asg35
VPT1M16.6089229S
p984
sg183
I3
sg184
VP0DT0H0M15.5167S
p985
sg39
(dp986
g41
VOG APG HCS
p987
sg43
Nssa(dp988
g38
I2511447508
sg32
VWeaponDrop
p989
sg180
I21
sg44
(lp990
I2758383128
asg35
VPT1M16.7879302S
p991
sg183
I12
sg184
VP0DT0H0M55.2167S
p992
sg39
(dp993
g41
VOG Maniac HCS
p994
sg43
Nssa(dp995
g38
I3682788176
sg39
(dp996
g41
VOG Maniac HCS
p997
sg43
Nssg44
(lp998
I2758383128
asg32
VWeaponPickup
p999
sg35
VPT1M16.7879302S
p1000
sa(dp1001
g38
I313138863
sg39
(dp1002
g41
VOG ACE HCS
p1003
sg43
Nssg44
(lp1004
I1095363701
asg32
VWeaponPickup
p1005
sg35
VPT1M17.6389752S
p1006
sa(dp1007
g38
I4096745987
sg39
(dp1008
g41
VOG ACE HCS
p1009
sg43
Nssg44
(lp1010
I2758383128
asg32
VWeaponPickup
p1011
sg35
VPT1M17.6399757S
p1012
sa(dp1013
g32
VPlayerSpawn
p1014
sg39
(dp1015
g41
VOG ACE HCS
p1016
sg43
Nssg35
VPT1M17.6399757S
p1017
sa(dp1018
g38
I313138863
sg39
(dp1019
g41
VALG RyaNoob
p1020
sg43
Nssg44
(lp1021
I1095363701
asg32
VWeaponPickup
p1022
sg35
VPT1M17.6729773S
p1023
sa(dp1024
g38
I4096745987
sg39
(dp1025
g41
VALG RyaNoob
p1026
sg43
Nssg44
(lp1027
I2758383128
asg32
VWeaponPickup
p1028
sg35
VPT1M17.6729773S
p1029
sa(dp1030
g32
VPlayerSpawn
p1031
sg39
(dp1032
g41
VALG RyaNoob
p1033
sg43
Nssg35
VPT1M17.6729773S
p1034
sa(dp1035
g221
I4096745987
sg222
I00
sg223
I00
sg224
(dp1036
g41
VALG Goofy HCS
p1037
sg43
Nssg227
(lp1038
I2758383128
asg229
I00
sg230
I01
sg231
I1
sg232
I0
sg233
I1
sg234
(dp1039
Vy
F-0.79979515099999998
sVx
F4.4959680000000004
sVz
F3.3554654099999999
ssg236
(dp1040
Vy
F-7.4084019999999997
sVx
F14.041523
sVz
F1.01690006
ssg238
I00
sg239
(dp1041
g41
VOG Str8 SickHCS
p1042
sg43
Nssg242
(lp1043
sg244
(lp1044
(dp1045
g41
VALG ContrA HCS
p1046
sg43
Nsasg246
I01
sg35
VPT1M23.3392666S
p1047
sg32
VDeath
p1048
sg249
I1
sa(dp1049
g32
VMedal
p1050
sg39
(dp1051
g41
VALG Goofy HCS
p1052
sg43
Nssg254
I3261908037
sg35
VPT1M23.3402668S
p1053
sa(dp1054
g38
I313138863
sg32
VWeaponDrop
p1055
sg180
I14
sg44
(lp1056
I1095363701
asg35
VPT1M23.3412668S
p1057
sg183
I4
sg184
VP0DT0H0M9.1667S
p1058
sg39
(dp1059
g41
VOG Str8 SickHCS
p1060
sg43
Nssa(dp1061
g38
I2511447508
sg32
VWeaponDrop
p1062
sg180
I5
sg44
(lp1063
I2758383128
asg35
VPT1M23.3412668S
p1064
sg183
I0
sg184
VP0DT0H0M17.5000S
p1065
sg39
(dp1066
g41
VOG Str8 SickHCS
p1067
sg43
Nssa(dp1068
g38
I313138863
sg39
(dp1069
g41
VOG APG HCS
p1070
sg43
Nssg44
(lp1071
I1095363701
asg32
VWeaponPickup
p1072
sg35
VPT1M24.6233332S
p1073
sa(dp1074
g38
I4096745987
sg39
(dp1075
g41
VOG APG HCS
p1076
sg43
Nssg44
(lp1077
I2758383128
asg32
VWeaponPickup
p1078
sg35
VPT1M24.6233332S
p1079
sa(dp1080
g32
VPlayerSpawn
p1081
sg39
(dp1082
g41
VOG APG HCS
p1083
sg43
Nssg35
VPT1M24.6233332S
p1084
sa(dp1085
g38
I2244200496
sg39
(dp1086
g41
VOG ACE HCS
p1087
sg43
Nssg44
(lp1088
I2758383128
asg32
VWeaponPickup
p1089
sg35
VPT1M25.8713956S
p1090
sa(dp1091
g32
VImpulse
p1092
sg39
(dp1093
g41
VOG ACE HCS
p1094
sg43
Nssg764
I4191318012
sg35
VPT1M25.8723971S
p1095
sa(dp1096
g38
I2244200496
sg32
VWeaponDrop
p1097
sg180
I12
sg44
(lp1098
I2758383128
asg35
VPT1M26.2714153S
p1099
sg183
I4
sg184
VP0DT0H0M13.2667S
p1100
sg39
(dp1101
g41
VALG ContrA HCS
p1102
sg43
Nssa(dp1103
g32
VImpulse
p1104
sg39
(dp1105
g41
VALG ContrA HCS
p1106
sg43
Nssg764
I3435524855
sg35
VPT1M26.2724173S
p1107
sa(dp1108
g38
I2244200496
sg32
VWeaponDrop
p1109
sg180
I0
sg44
(lp1110
I2758383128
asg35
VPT1M27.3384717S
p1111
sg183
I0
sg184
VP0DT0H0M1.3000S
p1112
sg39
(dp1113
g41
VOG ACE HCS
p1114
sg43
Nssa(dp1115
g32
VImpulse
p1116
sg39
(dp1117
g41
VOG ACE HCS
p1118
sg43
Nssg764
I3435524855
sg35
VPT1M27.3384717S
p1119
sa(dp1120
g38
I2244200496
sg39
(dp1121
g41
VOG ACE HCS
p1122
sg43
Nssg44
(lp1123
I2758383128
asg32
VWeaponPickup
p1124
sg35
VPT1M29.4885817S
p1125
sa(dp1126
g32
VImpulse
p1127
sg39
(dp1128
g41
VOG ACE HCS
p1129
sg43
Nssg764
I4191318012
sg35
VPT1M29.4895823S
p1130
sa(dp1131
g221
I4106030681
sg222
I00
sg223
I00
sg224
(dp1132
g41
VOG APG HCS
p1133
sg43
Nssg227
(lp1134
sg229
I00
sg230
I01
sg231
I1
sg232
I0
sg233
I1
sg234
(dp1135
Vy
F-17.640910000000002
sVx
F-2.7249996699999999
sVz
F0.62692769999999998
ssg236
(dp1136
Vy
F-12.1708794
sVx
F-0.16568967700000001
sVz
F0.89575433699999996
ssg238
I00
sg239
(dp1137
g41
VALG RyaNoob
p1138
sg43
Nssg242
(lp1139
sg244
(lp1140
(dp1141
g41
VOG ACE HCS
p1142
sg43
Nsasg246
I00
sg35
VPT1M29.522584S
p1143
sg32
VDeath
p1144
sg249
I1
sa(dp1145
g38
I313138863
sg32
VWeaponDrop
p1146
sg180
I4
sg44
(lp1147
I1095363701
asg35
VPT1M29.5235839S
p1148
sg183
I2
sg184
VP0DT0H0M1.9000S
p1149
sg39
(dp1150
g41
VALG RyaNoob
p1151
sg43
Nssa(dp1152
g38
I4096745987
sg32
VWeaponDrop
p1153
sg180
I0
sg44
(lp1154
I2758383128
asg35
VPT1M29.5235839S
p1155
sg183
I0
sg184
VP0DT0H0M9.9500S
p1156
sg39
(dp1157
g41
VALG RyaNoob
p1158
sg43
Nssa(dp1159
g221
I4096745987
sg222
I00
sg223
I00
sg224
(dp1160
g41
VALG ContrA HCS
p1161
sg43
Nssg227
(lp1162
I2758383128
asg229
I00
sg230
I01
sg231
I1
sg232
I0
sg233
I1
sg234
(dp1163
Vy
F6.01625443
sVx
F-0.30134814999999998
sVz
F-2.8103589999999999e-05
ssg236
(dp1164
Vy
F-3.92799473
sVx
F-0.139996752
sVz
F0.20691865700000001
ssg238
I00
sg239
(dp1165
g41
VOG Maniac HCS
p1166
sg43
Nssg242
(lp1167
sg244
(lp1168
sg246
I01
sg35
VPT1M30.2066188S
p1169
sg32
VDeath
p1170
sg249
I1
sa(dp1171
g32
VImpulse
p1172
sg39
(dp1173
g41
VALG ContrA HCS
p1174
sg43
Nssg764
I3174430457
sg35
VPT1M30.2076187S
p1175
sa(dp1176
g32
VMedal
p1177
sg39
(dp1178
g41
VALG ContrA HCS
p1179
sg43
Nssg254
I3653057799
sg35
VPT1M30.2086222S
p1180
sa(dp1181
g38
I313138863
sg32
VWeaponDrop
p1182
sg180
I0
sg44
(lp1183
I1095363701
asg35
VPT1M30.2086222S
p1184
sg183
I0
sg184
VP0DT0H0M4.6500S
p1185
sg39
(dp1186
g41
VOG Maniac HCS
p1187
sg43
Nssa(dp1188
g38
I3682788176
sg32
VWeaponDrop
p1189
sg180
I1
sg44
(lp1190
I2758383128
asg35
VPT1M30.2086222S
p1191
sg183
I1
sg184
VP0DT0H0M12.0500S
p1192
sg39
(dp1193
g41
VOG Maniac HCS
p1194
sg43
Nssa(dp1195
g221
I4096745987
sg222
I00
sg223
I00
sg224
(dp1196
g41
VALGPredevonator
p1197
sg43
Nssg227
(lp1198
I2758383128
asg229
I00
sg230
I01
sg231
I1
sg232
I0
sg233
I1
sg234
(dp1199
Vy
F-14.040585500000001
sVx
F-10.2696953
sVz
F0.60043466099999998
ssg236
(dp1200
Vy
F-14.897005999999999
sVx
F3.7589809999999999
sVz
F1.75210428
ssg238
I00
sg239
(dp1201
g41
VOG ACE HCS
p1202
sg43
Nssg242
(lp1203
sg244
(lp1204
(dp1205
g41
VALG RyaNoob
p1206
sg43
Nsasg246
I01
sg35
VPT1M30.7396465S
p1207
sg32
VDeath
p1208
sg249
I1
sa(dp1209
g32
VMedal
p1210
sg39
(dp1211
g41
VALGPredevonator
p1212
sg43
Nssg254
I2028249938
sg35
VPT1M30.7446466S
p1213
sa(dp1214
g32
VImpulse
p1215
sg39
(dp1216
g41
VALGPredevonator
p1217
sg43
Nssg764
I2299858338
sg35
VPT1M30.7446466S
p1218
sa(dp1219
g32
VMedal
p1220
sg39
(dp1221
g41
VALGPredevonator
p1222
sg43
Nssg254
I3261908037
sg35
VPT1M30.7446466S
p1223
sa(dp1224
g38
I313138863
sg32
VWeaponDrop
p1225
sg180
I0
sg44
(lp1226
I1095363701
asg35
VPT1M30.746646S
p1227
sg183
I0
sg184
VP0DT0H0M5.9167S
p1228
sg39
(dp1229
g41
VOG ACE HCS
p1230
sg43
Nssa(dp1231
g38
I4096745987
sg32
VWeaponDrop
p1232
sg180
I1
sg44
(lp1233
I2758383128
asg35
VPT1M30.746646S
p1234
sg183
I1
sg184
VP0DT0H0M4.8000S
p1235
sg39
(dp1236
g41
VOG ACE HCS
p1237
sg43
Nssa(dp1238
g38
I2244200496
sg32
VWeaponDrop
p1239
sg180
I2
sg44
(lp1240
I2758383128
asg35
VPT1M30.746646S
p1241
sg183
I1
sg184
VP0DT0H0M1.0833S
p1242
sg39
(dp1243
g41
VOG ACE HCS
p1244
sg43
Nssa(dp1245
g32
VImpulse
p1246
sg39
(dp1247
g41
VOG ACE HCS
p1248
sg43
Nssg764
I3435524855
sg35
VPT1M30.7556465S
p1249
sa(dp1250
g38
I313138863
sg39
(dp1251
g41
VOG Str8 SickHCS
p1252
sg43
Nssg44
(lp1253
I1095363701
asg32
VWeaponPickup
p1254
sg35
VPT1M31.3566778S
p1255
sa(dp1256
g38
I4096745987
sg39
(dp1257
g41
VOG Str8 SickHCS
p1258
sg43
Nssg44
(lp1259
I2758383128
asg32
VWeaponPickup
p1260
sg35
VPT1M31.3566778S
p1261
sa(dp1262
g32
VPlayerSpawn
p1263
sg39
(dp1264
g41
VOG Str8 SickHCS
p1265
sg43
Nssg35
VPT1M31.3566778S
p1266
sa(dp1267
g38
I2244200496
sg39
(dp1268
g41
VALG ContrA HCS
p1269
sg43
Nssg44
(lp1270
I2758383128
asg32
VWeaponPickup
p1271
sg35
VPT1M31.9387071S
p1272
sa(dp1273
g32
VImpulse
p1274
sg39
(dp1275
g41
VALG ContrA HCS
p1276
sg43
Nssg764
I4191318012
sg35
VPT1M31.9387071S
p1277
sa(dp1278
g221
I313138863
sg222
I00
sg223
I00
sg224
(dp1279
g41
VOG APG HCS
p1280
sg43
Nssg227
(lp1281
I1095363701
asg229
I00
sg230
I01
sg231
I1
sg232
I0
sg233
I1
sg234
(dp1282
Vy
F-15.0799246
sVx
F-6.3789262799999999
sVz
F0.59902405700000005
ssg236
(dp1283
Vy
F-12.9485645
sVx
F-8.4294440000000002
sVz
F0.60023564100000004
ssg238
I00
sg239
(dp1284
g41
VALGPredevonator
p1285
sg43
Nssg242
(lp1286
sg244
(lp1287
(dp1288
g41
VOG ACE HCS
p1289
sg43
Nsasg246
I00
sg35
VPT1M32.8067519S
p1290
sg32
VDeath
p1291
sg249
I1
sa(dp1292
g32
VMedal
p1293
sg39
(dp1294
g41
VOG APG HCS
p1295
sg43
Nssg254
I2078758684
sg35
VPT1M32.8077522S
p1296
sa(dp1297
g38
I313138863
sg32
VWeaponDrop
p1298
sg180
I0
sg44
(lp1299
I1095363701
asg35
VPT1M32.808752S
p1300
sg183
I0
sg184
VP0DT0H0M0.5833S
p1301
sg39
(dp1302
g41
VALGPredevonator
p1303
sg43
Nssa(dp1304
g38
I4096745987
sg32
VWeaponDrop
p1305
sg180
I28
sg44
(lp1306
I2758383128
asg35
VPT1M32.808752S
p1307
sg183
I13
sg184
VP0DT0H0M32.8500S
p1308
sg39
(dp1309
g41
VALGPredevonator
p1310
sg43
Nssa(dp1311
g38
I2244200496
sg32
VWeaponDrop
p1312
sg180
I0
sg44
(lp1313
I2758383128
asg35
VPT1M33.621792S
p1314
sg183
I0
sg184
VP0DT0H0M1.5333S
p1315
sg39
(dp1316
g41
VALG ContrA HCS
p1317
sg43
Nssa(dp1318
g32
VImpulse
p1319
sg39
(dp1320
g41
VALG ContrA HCS
p1321
sg43
Nssg764
I3435524855
sg35
VPT1M33.621792S
p1322
sa(dp1323
g221
I4096745987
sg222
I00
sg223
I01
sg224
(dp1324
g41
VOG APG HCS
p1325
sg43
Nssg227
(lp1326
I2758383128
asg229
I00
sg230
I00
sg231
I1
sg232
I0
sg233
I1
sg234
(dp1327
Vy
F-14.913764
sVx
F1.5137670000000001
sVz
F0.58855939999999995
ssg236
(dp1328
Vy
F-15.5473614
sVx
F1.6444252699999999
sVz
F0.59996899999999997
ssg238
I00
sg239
(dp1329
g41
VALG Goofy HCS
p1330
sg43
Nssg242
(lp1331
sg244
(lp1332
(dp1333
g41
VOG ACE HCS
p1334
sg43
Nsasg246
I00
sg35
VPT1M36.0389165S
p1335
sg32
VDeath
p1336
sg249
I1
sa(dp1337
g32
VMedal
p1338
sg39
(dp1339
g41
VOG APG HCS
p1340
sg43
Nssg254
I2287626681
sg35
VPT1M36.0399177S
p1341
sa(dp1342
g32
VMedal
p1343
sg39
(dp1344
g41
VOG APG HCS
p1345
sg43
Nssg254
I2763748638
sg35
VPT1M36.0409173S
p1346
sa(dp1347
g38
I313138863
sg32
VWeaponDrop
p1348
sg180
I15
sg44
(lp1349
I1095363701
asg35
VPT1M36.0409173S
p1350
sg183
I0
sg184
VP0DT0H0M11.2167S
p1351
sg39
(dp1352
g41
VALG Goofy HCS
p1353
sg43
Nssa(dp1354
g38
I4096745987
sg32
VWeaponDrop
p1355
sg180
I9
sg44
(lp1356
I2758383128
asg35
VPT1M36.0419177S
p1357
sg183
I7
sg184
VP0DT0H0M17.1000S
p1358
sg39
(dp1359
g41
VALG Goofy HCS
p1360
sg43
Nssa(dp1361
g38
I2244200496
sg39
(dp1362
g41
VOG APG HCS
p1363
sg43
Nssg44
(lp1364
I2758383128
asg32
VWeaponPickup
p1365
sg35
VPT1M36.7889558S
p1366
sa(dp1367
g32
VImpulse
p1368
sg39
(dp1369
g41
VOG APG HCS
p1370
sg43
Nssg764
I4191318012
sg35
VPT1M36.7889558S
p1371
sa(dp1372
g38
I313138863
sg39
(dp1373
g41
VALG RyaNoob
p1374
sg43
Nssg44
(lp1375
I1095363701
asg32
VWeaponPickup
p1376
sg35
VPT1M37.5399945S
p1377
sa(dp1378
g38
I4096745987
sg39
(dp1379
g41
VALG RyaNoob
p1380
sg43
Nssg44
(lp1381
I2758383128
asg32
VWeaponPickup
p1382
sg35
VPT1M37.5399945S
p1383
sa(dp1384
g32
VPlayerSpawn
p1385
sg39
(dp1386
g41
VALG RyaNoob
p1387
sg43
Nssg35
VPT1M37.5399945S
p1388
sa(dp1389
g38
I2244200496
sg39
(dp1390
g41
VALG ContrA HCS
p1391
sg43
Nssg44
(lp1392
I2758383128
asg32
VWeaponPickup
p1393
sg35
VPT1M37.9550136S
p1394
sa(dp1395
g32
VImpulse
p1396
sg39
(dp1397
g41
VALG ContrA HCS
p1398
sg43
Nssg764
I4191318012
sg35
VPT1M37.9560153S
p1399
sa(dp1400
g38
I313138863
sg39
(dp1401
g41
VOG Maniac HCS
p1402
sg43
Nssg44
(lp1403
I1095363701
asg32
VWeaponPickup
p1404
sg35
VPT1M38.2230293S
p1405
sa(dp1406
g38
I4096745987
sg39
(dp1407
g41
VOG Maniac HCS
p1408
sg43
Nssg44
(lp1409
I2758383128
asg32
VWeaponPickup
p1410
sg35
VPT1M38.2230293S
p1411
sa(dp1412
g32
VPlayerSpawn
p1413
sg39
(dp1414
g41
VOG Maniac HCS
p1415
sg43
Nssg35
VPT1M38.2230293S
p1416
sa(dp1417
g38
I2244200496
sg32
VWeaponDrop
p1418
sg180
I0
sg44
(lp1419
I2758383128
asg35
VPT1M38.7050523S
p1420
sg183
I0
sg184
VP0DT0H0M1.7667S
p1421
sg39
(dp1422
g41
VOG APG HCS
p1423
sg43
Nssa(dp1424
g32
VImpulse
p1425
sg39
(dp1426
g41
VOG APG HCS
p1427
sg43
Nssg764
I3435524855
sg35
VPT1M38.7060537S
p1428
sa(dp1429
g38
I313138863
sg39
(dp1430
g41
VOG ACE HCS
p1431
sg43
Nssg44
(lp1432
I1095363701
asg32
VWeaponPickup
p1433
sg35
VPT1M38.7560566S
p1434
sa(dp1435
g38
I4096745987
sg39
(dp1436
g41
VOG ACE HCS
p1437
sg43
Nssg44
(lp1438
I2758383128
asg32
VWeaponPickup
p1439
sg35
VPT1M38.7570567S
p1440
sa(dp1441
g32
VPlayerSpawn
p1442
sg39
(dp1443
g41
VOG ACE HCS
p1444
sg43
Nssg35
VPT1M38.7570567S
p1445
sa(dp1446
g38
I4096745987
sg32
VWeaponDrop
p1447
sg180
I0
sg44
(lp1448
I2758383128
asg35
VPT1M40.5711475S
p1449
sg183
I0
sg184
VP0DT0H0M0.7333S
p1450
sg39
(dp1451
g41
VOG ACE HCS
p1452
sg43
Nssa(dp1453
g38
I2511447508
sg39
(dp1454
g41
VOG ACE HCS
p1455
sg43
Nssg44
(lp1456
I2758383128
asg32
VWeaponPickup
p1457
sg35
VPT1M40.5721496S
p1458
sa(dp1459
g38
I313138863
sg39
(dp1460
g41
VALGPredevonator
p1461
sg43
Nssg44
(lp1462
I1095363701
asg32
VWeaponPickup
p1463
sg35
VPT1M40.8231622S
p1464
sa(dp1465
g38
I4096745987
sg39
(dp1466
g41
VALGPredevonator
p1467
sg43
Nssg44
(lp1468
I2758383128
asg32
VWeaponPickup
p1469
sg35
VPT1M40.8241629S
p1470
sa(dp1471
g32
VPlayerSpawn
p1472
sg39
(dp1473
g41
VALGPredevonator
p1474
sg43
Nssg35
VPT1M40.8241629S
p1475
sa(dp1476
g38
I313138863
sg39
(dp1477
g41
VALG Goofy HCS
p1478
sg43
Nssg44
(lp1479
I1095363701
asg32
VWeaponPickup
p1480
sg35
VPT1M44.0563293S
p1481
sa(dp1482
g38
I4096745987
sg39
(dp1483
g41
VALG Goofy HCS
p1484
sg43
Nssg44
(lp1485
I2758383128
asg32
VWeaponPickup
p1486
sg35
VPT1M44.0573279S
p1487
sa(dp1488
g32
VPlayerSpawn
p1489
sg39
(dp1490
g41
VALG Goofy HCS
p1491
sg43
Nssg35
VPT1M44.0573279S
p1492
sa(dp1493
g38
I2244200496
sg32
VWeaponDrop
p1494
sg180
I3
sg44
(lp1495
I2758383128
asg35
VPT1M46.6214572S
p1496
sg183
I0
sg184
VP0DT0H0M8.5167S
p1497
sg39
(dp1498
g41
VALG ContrA HCS
p1499
sg43
Nssa(dp1500
g32
VImpulse
p1501
sg39
(dp1502
g41
VALG ContrA HCS
p1503
sg43
Nssg764
I3435524855
sg35
VPT1M46.6224594S
p1504
sa(dp1505
g221
I2511447508
sg222
I01
sg223
I00
sg224
(dp1506
g41
VOG ACE HCS
p1507
sg43
Nssg227
(lp1508
I2758383128
asg229
I00
sg230
I00
sg231
I1
sg232
I0
sg233
I1
sg234
(dp1509
Vy
F7.0646389999999997
sVx
F-16.917629999999999
sVz
F0.016730160000000001
ssg236
(dp1510
Vy
F6.7423405599999997
sVx
F-17.175367399999999
sVz
F0.059221684900000002
ssg238
I00
sg239
(dp1511
g41
VALG RyaNoob
p1512
sg43
Nssg242
(lp1513
sg244
(lp1514
(dp1515
g41
VOG APG HCS
p1516
sg43
Nsasg246
I00
sg35
VPT1M50.5396598S
p1517
sg32
VDeath
p1518
sg249
I1
sa(dp1519
g32
VMedal
p1520
sg39
(dp1521
g41
VOG ACE HCS
p1522
sg43
Nssg254
I3270120991
sg35
VPT1M50.54066S
p1523
sa(dp1524
g38
I4096745987
sg32
VWeaponDrop
p1525
sg180
I3
sg44
(lp1526
I2758383128
asg35
VPT1M50.54066S
p1527
sg183
I1
sg184
VP0DT0H0M12.2000S
p1528
sg39
(dp1529
g41
VALG RyaNoob
p1530
sg43
Nssa(dp1531
g38
I313138863
sg32
VWeaponDrop
p1532
sg180
I0
sg44
(lp1533
I1095363701
asg35
VPT1M50.5416672S
p1534
sg183
I0
sg184
VP0DT0H0M0.8000S
p1535
sg39
(dp1536
g41
VALG RyaNoob
p1537
sg43
Nssa(dp1538
g221
I4096745987
sg222
I00
sg223
I00
sg224
(dp1539
g41
VALGPredevonator
p1540
sg43
Nssg227
(lp1541
I2758383128
asg229
I00
sg230
I01
sg231
I1
sg232
I0
sg233
I1
sg234
(dp1542
Vy
F2.46177578
sVx
F-0.64879200000000004
sVz
F3.279309
ssg236
(dp1543
Vy
F7.8562510000000003
sVx
F-15.666042300000001
sVz
F0.28205245699999998
ssg238
I00
sg239
(dp1544
g41
VOG ACE HCS
p1545
sg43
Nssg242
(lp1546
sg244
(lp1547
sg246
I01
sg35
VPT1M52.2397471S
p1548
sg32
VDeath
p1549
sg249
I1
sa(dp1550
g32
VImpulse
p1551
sg39
(dp1552
g41
VALGPredevonator
p1553
sg43
Nssg764
I3174430457
sg35
VPT1M52.2417468S
p1554
sa(dp1555
g32
VMedal
p1556
sg39
(dp1557
g41
VALGPredevonator
p1558
sg43
Nssg254
I3653057799
sg35
VPT1M52.2427462S
p1559
sa(dp1560
g38
I313138863
sg32
VWeaponDrop
p1561
sg180
I0
sg44
(lp1562
I1095363701
asg35
VPT1M52.2427462S
p1563
sg183
I0
sg184
VP0DT0H0M1.0833S
p1564
sg39
(dp1565
g41
VOG ACE HCS
p1566
sg43
Nssa(dp1567
g38
I2511447508
sg32
VWeaponDrop
p1568
sg180
I2
sg44
(lp1569
I2758383128
asg35
VPT1M52.2427462S
p1570
sg183
I0
sg184
VP0DT0H0M11.6667S
p1571
sg39
(dp1572
g41
VOG ACE HCS
p1573
sg43
Nssa(dp1574
g221
I313138863
sg222
I00
sg223
I00
sg224
(dp1575
g41
VOG Str8 SickHCS
p1576
sg43
Nssg227
(lp1577
I1095363701
asg229
I00
sg230
I01
sg231
I1
sg232
I0
sg233
I1
sg234
(dp1578
Vy
F11.317835799999999
sVx
F8.7999960000000002
sVz
F0.60020779999999996
ssg236
(dp1579
Vy
F13.5132341
sVx
F6.9597535099999996
sVz
F0.95388185999999997
ssg238
I00
sg239
(dp1580
g41
VALG ContrA HCS
p1581
sg43
Nssg242
(lp1582
sg244
(lp1583
(dp1584
g41
VOG Maniac HCS
p1585
sg43
Nsasg246
I00
sg35
VPT1M54.8398792S
p1586
sg32
VDeath
p1587
sg249
I1
sa(dp1588
g38
I4096745987
sg32
VWeaponDrop
p1589
sg180
I19
sg44
(lp1590
I2758383128
asg35
VPT1M54.8418802S
p1591
sg183
I12
sg184
VP0DT0H0M33.4667S
p1592
sg39
(dp1593
g41
VALG ContrA HCS
p1594
sg43
Nssa(dp1595
g38
I313138863
sg32
VWeaponDrop
p1596
sg180
I0
sg44
(lp1597
I1095363701
asg35
VPT1M54.8418802S
p1598
sg183
I0
sg184
VP0DT0H0M1.1667S
p1599
sg39
(dp1600
g41
VALG ContrA HCS
p1601
sg43
Nssa(dp1602
g32
VMedal
p1603
sg39
(dp1604
g41
VOG Str8 SickHCS
p1605
sg43
Nssg254
I1427531503
sg35
VPT1M55.2409004S
p1606
sa(dp1607
g32
VImpulse
p1608
sg39
(dp1609
g41
VOG Str8 SickHCS
p1610
sg43
Nssg764
I1063951891
sg35
VPT1M55.2409004S
p1611
sa(dp1612
g221
I313138863
sg222
I01
sg223
I00
sg224
(dp1613
g41
VALG Goofy HCS
p1614
sg43
Nssg227
(lp1615
I1095363701
asg229
I00
sg230
I00
sg231
I1
sg232
I0
sg233
I1
sg234
(dp1616
Vy
F11.188263900000001
sVx
F8.9702780000000004
sVz
F0.6051204
ssg236
(dp1617
Vy
F11.269550000000001
sVx
F8.6196429999999999
sVz
F0.60016953900000003
ssg238
I00
sg239
(dp1618
g41
VOG Str8 SickHCS
p1619
sg43
Nssg242
(lp1620
sg244
(lp1621
(dp1622
g41
VALG ContrA HCS
p1623
sg43
Nsasg246
I00
sg35
VPT1M55.2729024S
p1624
sg32
VDeath
p1625
sg249
I1
sa(dp1626
g32
VMedal
p1627
sg39
(dp1628
g41
VALG Goofy HCS
p1629
sg43
Nssg254
I3270120991
sg35
VPT1M55.2739026S
p1630
sa(dp1631
g38
I313138863
sg32
VWeaponDrop
p1632
sg180
I19
sg44
(lp1633
I1095363701
asg35
VPT1M55.2749128S
p1634
sg183
I6
sg184
VP0DT0H0M11.2000S
p1635
sg39
(dp1636
g41
VOG Str8 SickHCS
p1637
sg43
Nssa(dp1638
g38
I4096745987
sg32
VWeaponDrop
p1639
sg180
I2
sg44
(lp1640
I2758383128
asg35
VPT1M55.2749128S
p1641
sg183
I0
sg184
VP0DT0H0M12.7167S
p1642
sg39
(dp1643
g41
VOG Str8 SickHCS
p1644
sg43
Nssa(dp1645
g38
I313138863
sg32
VWeaponDrop
p1646
sg180
I2
sg44
(lp1647
I1095363701
asg35
VPT1M55.621918S
p1648
sg183
I2
sg184
VP0DT0H0M5.3833S
p1649
sg39
(dp1650
g41
VALG Goofy HCS
p1651
sg43
Nssa(dp1652
g38
I313138863
sg32
VWeaponDrop
p1653
sg180
I0
sg44
(lp1654
I1095363701
asg35
VPT1M55.621918S
p1655
sg183
I0
sg184
VP0DT0S
p1656
sg39
(dp1657
g41
VALG Goofy HCS
p1658
sg43
Nssa(dp1659
g38
I2511447508
sg39
(dp1660
g41
VALG Goofy HCS
p1661
sg43
Nssg44
(lp1662
I2758383128
asg32
VWeaponPickup
p1663
sg35
VPT1M55.621918S
p1664
sa(dp1665
g38
I2244200496
sg39
(dp1666
g41
VOG APG HCS
p1667
sg43
Nssg44
(lp1668
I2758383128
asg32
VWeaponPickup
p1669
sg35
VPT1M55.6549196S
p1670
sa(dp1671
g32
VImpulse
p1672
sg39
(dp1673
g41
VOG APG HCS
p1674
sg43
Nssg764
I4191318012
sg35
VPT1M55.6559218S
p1675
sa(dp1676
g38
I2244200496
sg32
VWeaponDrop
p1677
sg180
I0
sg44
(lp1678
I2758383128
asg35
VPT1M57.7220256S
p1679
sg183
I0
sg184
VP0DT0H0M1.9167S
p1680
sg39
(dp1681
g41
VOG APG HCS
p1682
sg43
Nssa(dp1683
g32
VImpulse
p1684
sg39
(dp1685
g41
VOG APG HCS
p1686
sg43
Nssg764
I3435524855
sg35
VPT1M57.7230281S
p1687
sa(dp1688
g38
I313138863
sg39
(dp1689
g41
VALG RyaNoob
p1690
sg43
Nssg44
(lp1691
I1095363701
asg32
VWeaponPickup
p1692
sg35
VPT1M58.5570706S
p1693
sa(dp1694
g38
I4096745987
sg39
(dp1695
g41
VALG RyaNoob
p1696
sg43
Nssg44
(lp1697
I2758383128
asg32
VWeaponPickup
p1698
sg35
VPT1M58.5570706S
p1699
sa(dp1700
g32
VPlayerSpawn
p1701
sg39
(dp1702
g41
VALG RyaNoob
p1703
sg43
Nssg35
VPT1M58.5570706S
p1704
sa(dp1705
g38
I2244200496
sg39
(dp1706
g41
VOG APG HCS
p1707
sg43
Nssg44
(lp1708
I2758383128
asg32
VWeaponPickup
p1709
sg35
VPT1M59.9051377S
p1710
sa(dp1711
g32
VImpulse
p1712
sg39
(dp1713
g41
VOG APG HCS
p1714
sg43
Nssg764
I4191318012
sg35
VPT1M59.9061393S
p1715
sa(dp1716
g38
I313138863
sg39
(dp1717
g41
VOG ACE HCS
p1718
sg43
Nssg44
(lp1719
I1095363701
asg32
VWeaponPickup
p1720
sg35
VPT2M0.2561572S
p1721
sa(dp1722
g38
I4096745987
sg39
(dp1723
g41
VOG ACE HCS
p1724
sg43
Nssg44
(lp1725
I2758383128
asg32
VWeaponPickup
p1726
sg35
VPT2M0.2571575S
p1727
sa(dp1728
g32
VPlayerSpawn
p1729
sg39
(dp1730
g41
VOG ACE HCS
p1731
sg43
Nssg35
VPT2M0.2571575S
p1732
sa(dp1733
g221
I4096745987
sg222
I00
sg223
I00
sg224
(dp1734
g41
VOG Maniac HCS
p1735
sg43
Nssg227
(lp1736
I2758383128
asg229
I00
sg230
I01
sg231
I1
sg232
I0
sg233
I1
sg234
(dp1737
Vy
F-0.22362333500000001
sVx
F9.4986925099999997
sVz
F2.8092403400000001
ssg236
(dp1738
Vy
F-0.71538335099999995
sVx
F-1.1866674399999999
sVz
F3.2791354699999999
ssg238
I00
sg239
(dp1739
g41
VALGPredevonator
p1740
sg43
Nssg242
(lp1741
sg244
(lp1742
sg246
I01
sg35
VPT2M0.5391708S
p1743
sg32
VDeath
p1744
sg249
I1
sa(dp1745
g32
VImpulse
p1746
sg39
(dp1747
g41
VOG Maniac HCS
p1748
sg43
Nssg764
I3174430457
sg35
VPT2M0.5411717S
p1749
sa(dp1750
g32
VMedal
p1751
sg39
(dp1752
g41
VOG Maniac HCS
p1753
sg43
Nssg254
I3653057799
sg35
VPT2M0.5421713S
p1754
sa(dp1755
g38
I4096745987
sg32
VWeaponDrop
p1756
sg180
I5
sg44
(lp1757
I2758383128
asg35
VPT2M0.5431721S
p1758
sg183
I5
sg184
VP0DT0H0M19.0167S
p1759
sg39
(dp1760
g41
VALGPredevonator
p1761
sg43
Nssa(dp1762
g38
I313138863
sg32
VWeaponDrop
p1763
sg180
I0
sg44
(lp1764
I1095363701
asg35
VPT2M0.5441722S
p1765
sg183
I0
sg184
VP0DT0H0M0.7000S
p1766
sg39
(dp1767
g41
VALGPredevonator
p1768
sg43
Nssa(dp1769
g32
VMedal
p1770
sg39
(dp1771
g41
VOG APG HCS
p1772
sg43
Nssg254
I3886151616
sg35
VPT2M1.4302176S
p1773
sa(dp1774
g32
VMedal
p1775
sg39
(dp1776
g41
VOG ACE HCS
p1777
sg43
Nssg254
I1494478183
sg35
VPT2M1.4302176S
p1778
sa(dp1779
g32
VImpulse
p1780
sg39
(dp1781
g41
VOG APG HCS
p1782
sg43
Nssg764
I2944278681
sg35
VPT2M1.4302176S
p1783
sa(dp1784
g38
I2244200496
sg32
VWeaponDrop
p1785
sg180
I0
sg44
(lp1786
I2758383128
asg35
VPT2M1.4312177S
p1787
sg183
I0
sg184
VP0DT0H0M1.3667S
p1788
sg39
(dp1789
g41
VOG APG HCS
p1790
sg43
Nssa(dp1791
g38
I313138863
sg39
(dp1792
g41
VALG ContrA HCS
p1793
sg43
Nssg44
(lp1794
I1095363701
asg32
VWeaponPickup
p1795
sg35
VPT2M2.8562905S
p1796
sa(dp1797
g38
I4096745987
sg39
(dp1798
g41
VALG ContrA HCS
p1799
sg43
Nssg44
(lp1800
I2758383128
asg32
VWeaponPickup
p1801
sg35
VPT2M2.8572907S
p1802
sa(dp1803
g32
VPlayerSpawn
p1804
sg39
(dp1805
g41
VALG ContrA HCS
p1806
sg43
Nssg35
VPT2M2.8572907S
p1807
sa(dp1808
g38
I313138863
sg39
(dp1809
g41
VOG Str8 SickHCS
p1810
sg43
Nssg44
(lp1811
I1095363701
asg32
VWeaponPickup
p1812
sg35
VPT2M3.2903127S
p1813
sa(dp1814
g38
I4096745987
sg39
(dp1815
g41
VOG Str8 SickHCS
p1816
sg43
Nssg44
(lp1817
I2758383128
asg32
VWeaponPickup
p1818
sg35
VPT2M3.2903127S
p1819
sa(dp1820
g32
VPlayerSpawn
p1821
sg39
(dp1822
g41
VOG Str8 SickHCS
p1823
sg43
Nssg35
VPT2M3.2903127S
p1824
sa(dp1825
g38
I4096745987
sg32
VWeaponDrop
p1826
sg180
I0
sg44
(lp1827
I2758383128
asg35
VPT2M5.1214043S
p1828
sg183
I0
sg184
VP0DT0H0M1.8667S
p1829
sg39
(dp1830
g41
VALG ContrA HCS
p1831
sg43
Nssa(dp1832
g38
I2511447508
sg39
(dp1833
g41
VALG ContrA HCS
p1834
sg43
Nssg44
(lp1835
I2758383128
asg32
VWeaponPickup
p1836
sg35
VPT2M5.1224067S
p1837
sa(dp1838
g38
I313138863
sg39
(dp1839
g41
VALGPredevonator
p1840
sg43
Nssg44
(lp1841
I1095363701
asg32
VWeaponPickup
p1842
sg35
VPT2M8.5565828S
p1843
sa(dp1844
g38
I4096745987
sg39
(dp1845
g41
VALGPredevonator
p1846
sg43
Nssg44
(lp1847
I2758383128
asg32
VWeaponPickup
p1848
sg35
VPT2M8.5565828S
p1849
sa(dp1850
g32
VPlayerSpawn
p1851
sg39
(dp1852
g41
VALGPredevonator
p1853
sg43
Nssg35
VPT2M8.5575824S
p1854
sa(dp1855
g221
I4096745987
sg222
I00
sg223
I00
sg224
(dp1856
g41
VOG Str8 SickHCS
p1857
sg43
Nssg227
(lp1858
I2758383128
asg229
I00
sg230
I01
sg231
I1
sg232
I0
sg233
I1
sg234
(dp1859
Vy
F-13.830322300000001
sVx
F-2.953147
sVz
F1.5002951600000001
ssg236
(dp1860
Vy
F-12.4133263
sVx
F-16.052204100000001
sVz
F0.00013375282299999999
ssg238
I00
sg239
(dp1861
g41
VALG RyaNoob
p1862
sg43
Nssg242
(lp1863
sg244
(lp1864
sg246
I01
sg35
VPT2M9.0236063S
p1865
sg32
VDeath
p1866
sg249
I1
sa(dp1867
g32
VMedal
p1868
sg39
(dp1869
g41
VOG Str8 SickHCS
p1870
sg43
Nssg254
I3261908037
sg35
VPT2M9.0246062S
p1871
sa(dp1872
g38
I313138863
sg32
VWeaponDrop
p1873
sg180
I0
sg44
(lp1874
I1095363701
asg35
VPT2M9.025606S
p1875
sg183
I0
sg184
VP0DT0H0M0.7500S
p1876
sg39
(dp1877
g41
VALG RyaNoob
p1878
sg43
Nssa(dp1879
g38
I4096745987
sg32
VWeaponDrop
p1880
sg180
I7
sg44
(lp1881
I2758383128
asg35
VPT2M9.025606S
p1882
sg183
I3
sg184
VP0DT0H0M9.7167S
p1883
sg39
(dp1884
g41
VALG RyaNoob
p1885
sg43
Nssa(dp1886
g221
I4096745987
sg222
I00
sg223
I00
sg224
(dp1887
g41
VOG APG HCS
p1888
sg43
Nssg227
(lp1889
I2758383128
asg229
I00
sg230
I01
sg231
I1
sg232
I0
sg233
I1
sg234
(dp1890
Vy
F3.9321429999999999
sVx
F-11.2159166
sVz
F3.6060810000000002e-06
ssg236
(dp1891
Vy
F-5.4586860000000001
sVx
F-12.6506329
sVz
F0.150159717
ssg238
I00
sg239
(dp1892
g41
VALG ContrA HCS
p1893
sg43
Nssg242
(lp1894
sg244
(lp1895
sg246
I01
sg35
VPT2M11.3397243S
p1896
sg32
VDeath
p1897
sg249
I1
sa(dp1898
g32
VMedal
p1899
sg39
(dp1900
g41
VOG APG HCS
p1901
sg43
Nssg254
I1618319591
sg35
VPT2M11.3417301S
p1902
sa(dp1903
g38
I313138863
sg32
VWeaponDrop
p1904
sg180
I0
sg44
(lp1905
I1095363701
asg35
VPT2M11.3417301S
p1906
sg183
I0
sg184
VP0DT0H0M0.4000S
p1907
sg39
(dp1908
g41
VALG ContrA HCS
p1909
sg43
Nssa(dp1910
g38
I2511447508
sg32
VWeaponDrop
p1911
sg180
I3
sg44
(lp1912
I2758383128
asg35
VPT2M11.3417301S
p1913
sg183
I1
sg184
VP0DT0H0M6.2167S
p1914
sg39
(dp1915
g41
VALG ContrA HCS
p1916
sg43
Nssa(dp1917
g221
I4106030681
sg222
I00
sg223
I00
sg224
(dp1918
g41
VALG ContrA HCS
p1919
sg43
Nssg227
(lp1920
sg229
I00
sg230
I01
sg231
I1
sg232
I0
sg233
I1
sg234
(dp1921
Vy
F-3.4248111200000002
sVx
F-11.7904921
sVz
F0.007401459
ssg236
(dp1922
Vy
F-15.212394700000001
sVx
F1.7248337300000001
sVz
F0.59997183099999996
ssg238
I00
sg239
(dp1923
g41
VOG Str8 SickHCS
p1924
sg43
Nssg242
(lp1925
sg244
(lp1926
(dp1927
g41
VALG RyaNoob
p1928
sg43
Nsasg246
I00
sg35
VPT2M13.3398277S
p1929
sg32
VDeath
p1930
sg249
I1
sa(dp1931
g32
VMedal
p1932
sg39
(dp1933
g41
VALG ContrA HCS
p1934
sg43
Nssg254
I3491849182
sg35
VPT2M13.3408268S
p1935
sa(dp1936
g32
VMedal
p1937
sg39
(dp1938
g41
VALG ContrA HCS
p1939
sg43
Nssg254
I285057226
sg35
VPT2M13.3408268S
p1940
sa(dp1941
g38
I313138863
sg32
VWeaponDrop
p1942
sg180
I0
sg44
(lp1943
I1095363701
asg35
VPT2M13.3408268S
p1944
sg183
I0
sg184
VP0DT0H0M1.3167S
p1945
sg39
(dp1946
g41
VOG Str8 SickHCS
p1947
sg43
Nssa(dp1948
g38
I4096745987
sg32
VWeaponDrop
p1949
sg180
I8
sg44
(lp1950
I2758383128
asg35
VPT2M13.3408268S
p1951
sg183
I5
sg184
VP0DT0H0M8.7333S
p1952
sg39
(dp1953
g41
VOG Str8 SickHCS
p1954
sg43
Nssa(dp1955
g38
I4096745987
sg32
VWeaponDrop
p1956
sg180
I0
sg44
(lp1957
I2758383128
asg35
VPT2M13.6388405S
p1958
sg183
I0
sg184
VP0DT0H0M4.3833S
p1959
sg39
(dp1960
g41
VALGPredevonator
p1961
sg43
Nssa(dp1962
g38
I424645655
sg39
(dp1963
g41
VALGPredevonator
p1964
sg43
Nssg44
(lp1965
I1327094800
asg32
VWeaponPickup
p1966
sg35
VPT2M13.6388405S
p1967
sa(dp1968
g38
I313138863
sg39
(dp1969
g41
VALG RyaNoob
p1970
sg43
Nssg44
(lp1971
I1095363701
asg32
VWeaponPickup
p1972
sg35
VPT2M17.0400167S
p1973
sa(dp1974
g38
I4096745987
sg39
(dp1975
g41
VALG RyaNoob
p1976
sg43
Nssg44
(lp1977
I2758383128
asg32
VWeaponPickup
p1978
sg35
VPT2M17.0400167S
p1979
sa(dp1980
g32
VPlayerSpawn
p1981
sg39
(dp1982
g41
VALG RyaNoob
p1983
sg43
Nssg35
VPT2M17.0400167S
p1984
sa(dp1985
g38
I2244200496
sg39
(dp1986
g41
VOG APG HCS
p1987
sg43
Nssg44
(lp1988
I2758383128
asg32
VWeaponPickup
p1989
sg35
VPT2M19.3551332S
p1990
sa(dp1991
g38
I313138863
sg39
(dp1992
g41
VALG ContrA HCS
p1993
sg43
Nssg44
(lp1994
I1095363701
asg32
VWeaponPickup
p1995
sg35
VPT2M19.3571355S
p1996
sa(dp1997
g38
I4096745987
sg39
(dp1998
g41
VALG ContrA HCS
p1999
sg43
Nssg44
(lp2000
I2758383128
asg32
VWeaponPickup
p2001
sg35
VPT2M19.3571355S
p2002
sa(dp2003
g32
VPlayerSpawn
p2004
sg39
(dp2005
g41
VALG ContrA HCS
p2006
sg43
Nssg35
VPT2M19.3571355S
p2007
sa(dp2008
g32
VImpulse
p2009
sg39
(dp2010
g41
VOG APG HCS
p2011
sg43
Nssg764
I4191318012
sg35
VPT2M19.3581462S
p2012
sa(dp2013
g32
VImpulse
p2014
sg39
(dp2015
g41
VOG APG HCS
p2016
sg43
Nssg764
I1039658009
sg35
VPT2M19.3581462S
p2017
sa(dp2018
g221
I424645655
sg222
I00
sg223
I00
sg224
(dp2019
g41
VALGPredevonator
p2020
sg43
Nssg227
(lp2021
I1327094800
asg229
I00
sg230
I01
sg231
I1
sg232
I0
sg233
I1
sg234
(dp2022
Vy
F2.9164104499999999
sVx
F10.8896
sVz
F0.59698079999999998
ssg236
(dp2023
Vy
F-1.158493
sVx
F11.544990500000001
sVz
F0.77442
ssg238
I00
sg239
(dp2024
g41
VOG ACE HCS
p2025
sg43
Nssg242
(lp2026
sg244
(lp2027
sg246
I01
sg35
VPT2M19.5731471S
p2028
sg32
VDeath
p2029
sg249
I1
sa(dp2030
g32
VMedal
p2031
sg39
(dp2032
g41
VALGPredevonator
p2033
sg43
Nssg254
I3261908037
sg35
VPT2M19.575146S
p2034
sa(dp2035
g38
I313138863
sg32
VWeaponDrop
p2036
sg180
I0
sg44
(lp2037
I1095363701
asg35
VPT2M19.5761463S
p2038
sg183
I0
sg184
VP0DT0H0M0.9333S
p2039
sg39
(dp2040
g41
VOG ACE HCS
p2041
sg43
Nssa(dp2042
g38
I4096745987
sg32
VWeaponDrop
p2043
sg180
I5
sg44
(lp2044
I2758383128
asg35
VPT2M19.5761463S
p2045
sg183
I2
sg184
VP0DT0H0M18.3833S
p2046
sg39
(dp2047
g41
VOG ACE HCS
p2048
sg43
Nssa(dp2049
g38
I2244200496
sg32
VWeaponDrop
p2050
sg180
I0
sg44
(lp2051
I2758383128
asg35
VPT2M20.1221725S
p2052
sg183
I0
sg184
VP0DT0H0M0.6000S
p2053
sg39
(dp2054
g41
VOG APG HCS
p2055
sg43
Nssa(dp2056
g32
VImpulse
p2057
sg39
(dp2058
g41
VOG APG HCS
p2059
sg43
Nssg764
I3435524855
sg35
VPT2M20.1231744S
p2060
sa(dp2061
g221
I4096745987
sg222
I00
sg223
I00
sg224
(dp2062
g41
VOG Maniac HCS
p2063
sg43
Nssg227
(lp2064
I2758383128
asg229
I00
sg230
I01
sg231
I1
sg232
I0
sg233
I1
sg234
(dp2065
Vy
F8.5742799999999999
sVx
F16.91348
sVz
F-0.00054359435999999997
ssg236
(dp2066
Vy
F3.5831165299999999
sVx
F10.943343199999999
sVz
F0.37886130000000001
ssg238
I00
sg239
(dp2067
g41
VALGPredevonator
p2068
sg43
Nssg242
(lp2069
sg244
(lp2070
(dp2071
g41
VOG APG HCS
p2072
sg43
Nsa(dp2073
g41
VOG ACE HCS
p2074
sg43
Nsasg246
I01
sg35
VPT2M20.4061903S
p2075
sg32
VDeath
p2076
sg249
I1
sa(dp2077
g32
VMedal
p2078
sg39
(dp2079
g41
VOG Maniac HCS
p2080
sg43
Nssg254
I3261908037
sg35
VPT2M20.4081888S
p2081
sa(dp2082
g38
I313138863
sg32
VWeaponDrop
p2083
sg180
I0
sg44
(lp2084
I1095363701
asg35
VPT2M20.4081888S
p2085
sg183
I0
sg184
VP0DT0H0M0.7000S
p2086
sg39
(dp2087
g41
VALGPredevonator
p2088
sg43
Nssa(dp2089
g38
I424645655
sg32
VWeaponDrop
p2090
sg180
I12
sg44
(lp2091
I1327094800
asg35
VPT2M20.4081888S
p2092
sg183
I7
sg184
VP0DT0H0M6.7667S
p2093
sg39
(dp2094
g41
VALGPredevonator
p2095
sg43
Nssa(dp2096
g38
I313138863
sg39
(dp2097
g41
VOG Str8 SickHCS
p2098
sg43
Nssg44
(lp2099
I1095363701
asg32
VWeaponPickup
p2100
sg35
VPT2M21.3572381S
p2101
sa(dp2102
g38
I4096745987
sg39
(dp2103
g41
VOG Str8 SickHCS
p2104
sg43
Nssg44
(lp2105
I2758383128
asg32
VWeaponPickup
p2106
sg35
VPT2M21.3572381S
p2107
sa(dp2108
g32
VPlayerSpawn
p2109
sg39
(dp2110
g41
VOG Str8 SickHCS
p2111
sg43
Nssg35
VPT2M21.3572381S
p2112
sa(dp2113
g221
I4096745987
sg222
I00
sg223
I00
sg224
(dp2114
g41
VOG Str8 SickHCS
p2115
sg43
Nssg227
(lp2116
I2758383128
asg229
I00
sg230
I01
sg231
I1
sg232
I0
sg233
I1
sg234
(dp2117
Vy
F-8.0318579999999997
sVx
F0.14631092500000001
sVz
F4.7087670000000003e-06
ssg236
(dp2118
Vy
F-9.1256819999999994
sVx
F8.5995720000000002
sVz
F0.0067265629999999996
ssg238
I00
sg239
(dp2119
g41
VALG Goofy HCS
p2120
sg43
Nssg242
(lp2121
sg244
(lp2122
(dp2123
g41
VOG Maniac HCS
p2124
sg43
Nsasg246
I01
sg35
VPT2M25.5404522S
p2125
sg32
VDeath
p2126
sg249
I1
sa(dp2127
g32
VMedal
p2128
sg39
(dp2129
g41
VOG Str8 SickHCS
p2130
sg43
Nssg254
I3261908037
sg35
VPT2M25.5414519S
p2131
sa(dp2132
g38
I2511447508
sg32
VWeaponDrop
p2133
sg180
I0
sg44
(lp2134
I2758383128
asg35
VPT2M25.5414519S
p2135
sg183
I0
sg184
VP0DT0H0M1.0667S
p2136
sg39
(dp2137
g41
VALG Goofy HCS
p2138
sg43
Nssa(dp2139
g38
I4096745987
sg32
VWeaponDrop
p2140
sg180
I3
sg44
(lp2141
I2758383128
asg35
VPT2M25.5414519S
p2142
sg183
I1
sg184
VP0DT0H0M35.0333S
p2143
sg39
(dp2144
g41
VALG Goofy HCS
p2145
sg43
Nssa(dp2146
g38
I313138863
sg39
(dp2147
g41
VOG ACE HCS
p2148
sg43
Nssg44
(lp2149
I1095363701
asg32
VWeaponPickup
p2150
sg35
VPT2M27.5905569S
p2151
sa(dp2152
g38
I4096745987
sg39
(dp2153
g41
VOG ACE HCS
p2154
sg43
Nssg44
(lp2155
I2758383128
asg32
VWeaponPickup
p2156
sg35
VPT2M27.5905569S
p2157
sa(dp2158
g32
VPlayerSpawn
p2159
sg39
(dp2160
g41
VOG ACE HCS
p2161
sg43
Nssg35
VPT2M27.5905569S
p2162
sa(dp2163
g38
I313138863
sg32
VWeaponDrop
p2164
sg180
I0
sg44
(lp2165
I1095363701
asg35
VPT2M28.1055813S
p2166
sg183
I0
sg184
VP0DT0H0M1.4500S
p2167
sg39
(dp2168
g41
VOG Str8 SickHCS
p2169
sg43
Nssa(dp2170
g38
I3682788176
sg39
(dp2171
g41
VOG Str8 SickHCS
p2172
sg43
Nssg44
(lp2173
I2758383128
asg32
VWeaponPickupPad
p2174
sg35
VPT2M28.1055813S
p2175
sa(dp2176
g38
I3682788176
sg39
(dp2177
g41
VOG Str8 SickHCS
p2178
sg43
Nssg44
(lp2179
I2758383128
asg32
VWeaponPickup
p2180
sg35
VPT2M28.1055813S
p2181
sa(dp2182
g38
I313138863
sg39
(dp2183
g41
VALGPredevonator
p2184
sg43
Nssg44
(lp2185
I1095363701
asg32
VWeaponPickup
p2186
sg35
VPT2M28.4235997S
p2187
sa(dp2188
g38
I4096745987
sg39
(dp2189
g41
VALGPredevonator
p2190
sg43
Nssg44
(lp2191
I2758383128
asg32
VWeaponPickup
p2192
sg35
VPT2M28.4235997S
p2193
sa(dp2194
g32
VPlayerSpawn
p2195
sg39
(dp2196
g41
VALGPredevonator
p2197
sg43
Nssg35
VPT2M28.4235997S
p2198
sa(dp2199
g38
I2244200496
sg39
(dp2200
g41
VALG ContrA HCS
p2201
sg43
Nssg44
(lp2202
I2758383128
asg32
VWeaponPickup
p2203
sg35
VPT2M28.7726174S
p2204
sa(dp2205
g32
VImpulse
p2206
sg39
(dp2207
g41
VALG ContrA HCS
p2208
sg43
Nssg764
I4191318012
sg35
VPT2M28.7726174S
p2209
sa(dp2210
g32
VImpulse
p2211
sg39
(dp2212
g41
VALG ContrA HCS
p2213
sg43
Nssg764
I1039658009
sg35
VPT2M28.7736178S
p2214
sa(dp2215
g221
I3682788176
sg222
I00
sg223
I00
sg224
(dp2216
g41
VOG Str8 SickHCS
p2217
sg43
Nssg227
(lp2218
I2758383128
asg229
I00
sg230
I01
sg231
I1
sg232
I0
sg233
I1
sg234
(dp2219
Vy
F3.9366620000000001
sVx
F-0.99883820000000001
sVz
F0.85936236399999999
ssg236
(dp2220
Vy
F12.3513641
sVx
F8.1176820000000003
sVz
F0.60020499999999999
ssg238
I00
sg239
(dp2221
g41
VALG RyaNoob
p2222
sg43
Nssg242
(lp2223
sg244
(lp2224
(dp2225
g41
VOG APG HCS
p2226
sg43
Nsasg246
I00
sg35
VPT2M30.0236814S
p2227
sg32
VDeath
p2228
sg249
I1
sa(dp2229
g32
VMedal
p2230
sg39
(dp2231
g41
VOG Str8 SickHCS
p2232
sg43
Nssg254
I2838259753
sg35
VPT2M30.0236814S
p2233
sa(dp2234
g32
VImpulse
p2235
sg39
(dp2236
g41
VOG Str8 SickHCS
p2237
sg43
Nssg764
I2556889090
sg35
VPT2M30.0236814S
p2238
sa(dp2239
g32
VMedal
p2240
sg39
(dp2241
g41
VOG Str8 SickHCS
p2242
sg43
Nssg254
I2078758684
sg35
VPT2M30.0246815S
p2243
sa(dp2244
g38
I313138863
sg32
VWeaponDrop
p2245
sg180
I0
sg44
(lp2246
I1095363701
asg35
VPT2M30.0256816S
p2247
sg183
I0
sg184
VP0DT0H0M0.6333S
p2248
sg39
(dp2249
g41
VALG RyaNoob
p2250
sg43
Nssa(dp2251
g38
I4096745987
sg32
VWeaponDrop
p2252
sg180
I8
sg44
(lp2253
I2758383128
asg35
VPT2M30.0256816S
p2254
sg183
I4
sg184
VP0DT0H0M12.3500S
p2255
sg39
(dp2256
g41
VALG RyaNoob
p2257
sg43
Nssa(dp2258
g221
I4096745987
sg222
I00
sg223
I00
sg224
(dp2259
g41
VALGPredevonator
p2260
sg43
Nssg227
(lp2261
I2758383128
asg229
I00
sg230
I01
sg231
I1
sg232
I0
sg233
I1
sg234
(dp2262
Vy
F8.8581889999999994
sVx
F-7.4328849999999997
sVz
F-0.00054717063899999998
ssg236
(dp2263
Vy
F8.3969140000000007
sVx
F2.8795413999999999
sVz
F4.7385692599999997e-06
ssg238
I00
sg239
(dp2264
g41
VOG APG HCS
p2265
sg43
Nssg242
(lp2266
sg244
(lp2267
(dp2268
g41
VALG RyaNoob
p2269
sg43
Nsasg246
I01
sg35
VPT2M31.4897562S
p2270
sg32
VDeath
p2271
sg249
I1
sa(dp2272
g32
VMedal
p2273
sg39
(dp2274
g41
VALGPredevonator
p2275
sg43
Nssg254
I3261908037
sg35
VPT2M31.4907567S
p2276
sa(dp2277
g38
I4096745987
sg32
VWeaponDrop
p2278
sg180
I21
sg44
(lp2279
I2758383128
asg35
VPT2M31.4917565S
p2280
sg183
I7
sg184
VP0DT0H0M51.3167S
p2281
sg39
(dp2282
g41
VOG APG HCS
p2283
sg43
Nssa(dp2284
g38
I4096745987
sg32
VWeaponDrop
p2285
sg180
I0
sg44
(lp2286
I2758383128
asg35
VPT2M31.4917565S
p2287
sg183
I0
sg184
VP0DT0S
p2288
sg39
(dp2289
g41
VOG APG HCS
p2290
sg43
Nssa(dp2291
g38
I313138863
sg32
VWeaponDrop
p2292
sg180
I23
sg44
(lp2293
I1095363701
asg35
VPT2M31.4927558S
p2294
sg183
I12
sg184
VP0DT0H0M9.9000S
p2295
sg39
(dp2296
g41
VOG APG HCS
p2297
sg43
Nssa(dp2298
g221
I4096745987
sg222
I00
sg223
I00
sg224
(dp2299
g41
VOG ACE HCS
p2300
sg43
Nssg227
(lp2301
I2758383128
asg229
I00
sg230
I01
sg231
I1
sg232
I0
sg233
I1
sg234
(dp2302
Vy
F-7.7773529999999997
sVx
F2.1549706500000001
sVz
F1.569194
ssg236
(dp2303
Vy
F-6.799105
sVx
F-8.7693405200000001
sVz
F0.29647560000000001
ssg238
I00
sg239
(dp2304
g41
VALG ContrA HCS
p2305
sg43
Nssg242
(lp2306
sg244
(lp2307
sg246
I01
sg35
VPT2M32.9898328S
p2308
sg32
VDeath
p2309
sg249
I1
sa(dp2310
g32
VMedal
p2311
sg39
(dp2312
g41
VOG ACE HCS
p2313
sg43
Nssg254
I2028249938
sg35
VPT2M32.9918331S
p2314
sa(dp2315
g32
VImpulse
p2316
sg39
(dp2317
g41
VOG ACE HCS
p2318
sg43
Nssg764
I2299858338
sg35
VPT2M32.9918331S
p2319
sa(dp2320
g32
VMedal
p2321
sg39
(dp2322
g41
VOG ACE HCS
p2323
sg43
Nssg254
I3261908037
sg35
VPT2M32.9928334S
p2324
sa(dp2325
g38
I313138863
sg32
VWeaponDrop
p2326
sg180
I0
sg44
(lp2327
I1095363701
asg35
VPT2M32.9928334S
p2328
sg183
I0
sg184
VP0DT0H0M0.3500S
p2329
sg39
(dp2330
g41
VALG ContrA HCS
p2331
sg43
Nssa(dp2332
g38
I4096745987
sg32
VWeaponDrop
p2333
sg180
I0
sg44
(lp2334
I2758383128
asg35
VPT2M32.9928334S
p2335
sg183
I0
sg184
VP0DT0H0M9.2167S
p2336
sg39
(dp2337
g41
VALG ContrA HCS
p2338
sg43
Nssa(dp2339
g38
I2244200496
sg32
VWeaponDrop
p2340
sg180
I5
sg44
(lp2341
I2758383128
asg35
VPT2M32.9928334S
p2342
sg183
I3
sg184
VP0DT0H0M4.0667S
p2343
sg39
(dp2344
g41
VALG ContrA HCS
p2345
sg43
Nssa(dp2346
g32
VImpulse
p2347
sg39
(dp2348
g41
VALG ContrA HCS
p2349
sg43
Nssg764
I3435524855
sg35
VPT2M33.0058322S
p2350
sa(dp2351
g38
I313138863
sg39
(dp2352
g41
VALG Goofy HCS
p2353
sg43
Nssg44
(lp2354
I1095363701
asg32
VWeaponPickup
p2355
sg35
VPT2M33.5568628S
p2356
sa(dp2357
g38
I4096745987
sg39
(dp2358
g41
VALG Goofy HCS
p2359
sg43
Nssg44
(lp2360
I2758383128
asg32
VWeaponPickup
p2361
sg35
VPT2M33.5578626S
p2362
sa(dp2363
g32
VPlayerSpawn
p2364
sg39
(dp2365
g41
VALG Goofy HCS
p2366
sg43
Nssg35
VPT2M33.5578626S
p2367
sa(dp2368
g38
I2244200496
sg39
(dp2369
g41
VOG Maniac HCS
p2370
sg43
Nssg44
(lp2371
I2758383128
asg32
VWeaponPickup
p2372
sg35
VPT2M34.8719276S
p2373
sa(dp2374
g32
VImpulse
p2375
sg39
(dp2376
g41
VOG Maniac HCS
p2377
sg43
Nssg764
I4191318012
sg35
VPT2M34.8729298S
p2378
sa(dp2379
g38
I2244200496
sg32
VWeaponDrop
p2380
sg180
I0
sg44
(lp2381
I2758383128
asg35
VPT2M36.2890001S
p2382
sg183
I0
sg184
VP0DT0H0M1.2667S
p2383
sg39
(dp2384
g41
VOG Maniac HCS
p2385
sg43
Nssa(dp2386
g32
VImpulse
p2387
sg39
(dp2388
g41
VOG Maniac HCS
p2389
sg43
Nssg764
I3435524855
sg35
VPT2M36.2900023S
p2390
sa(dp2391
g221
I4096745987
sg222
I00
sg223
I00
sg224
(dp2392
g41
VALGPredevonator
p2393
sg43
Nssg227
(lp2394
I2758383128
asg229
I00
sg230
I01
sg231
I1
sg232
I0
sg233
I1
sg234
(dp2395
Vy
F9.2353039999999993
sVx
F-4.2332186700000003
sVz
F-0.00014081597299999999
ssg236
(dp2396
Vy
F6.1082835199999996
sVx
F4.1362779999999999
sVz
F0.99381790000000003
ssg238
I00
sg239
(dp2397
g41
VOG Str8 SickHCS
p2398
sg43
Nssg242
(lp2399
sg244
(lp2400
sg246
I01
sg35
VPT2M36.4900125S
p2401
sg32
VDeath
p2402
sg249
I1
sa(dp2403
g32
VMedal
p2404
sg39
(dp2405
g41
VALGPredevonator
p2406
sg43
Nssg254
I3261908037
sg35
VPT2M36.4920122S
p2407
sa(dp2408
g38
I3682788176
sg32
VWeaponDrop
p2409
sg180
I2
sg44
(lp2410
I2758383128
asg35
VPT2M36.4920122S
p2411
sg183
I2
sg184
VP0DT0H0M7.0333S
p2412
sg39
(dp2413
g41
VOG Str8 SickHCS
p2414
sg43
Nssa(dp2415
g38
I3682788176
sg32
VWeaponDrop
p2416
sg180
I0
sg44
(lp2417
I2758383128
asg35
VPT2M36.4920122S
p2418
sg183
I0
sg184
VP0DT0S
p2419
sg39
(dp2420
g41
VOG Str8 SickHCS
p2421
sg43
Nssa(dp2422
g38
I4096745987
sg32
VWeaponDrop
p2423
sg180
I5
sg44
(lp2424
I2758383128
asg35
VPT2M36.4920122S
p2425
sg183
I3
sg184
VP0DT0H0M6.6500S
p2426
sg39
(dp2427
g41
VOG Str8 SickHCS
p2428
sg43
Nssa(dp2429
g38
I2244200496
sg39
(dp2430
g41
VOG Maniac HCS
p2431
sg43
Nssg44
(lp2432
I2758383128
asg32
VWeaponPickup
p2433
sg35
VPT2M37.3560563S
p2434
sa(dp2435
g32
VImpulse
p2436
sg39
(dp2437
g41
VOG Maniac HCS
p2438
sg43
Nssg764
I4191318012
sg35
VPT2M37.3560563S
p2439
sa(dp2440
g38
I2244200496
sg32
VWeaponDrop
p2441
sg180
I0
sg44
(lp2442
I2758383128
asg35
VPT2M37.9720863S
p2443
sg183
I0
sg184
VP0DT0H0M0.4667S
p2444
sg39
(dp2445
g41
VOG Maniac HCS
p2446
sg43
Nssa(dp2447
g32
VImpulse
p2448
sg39
(dp2449
g41
VOG Maniac HCS
p2450
sg43
Nssg764
I3435524855
sg35
VPT2M37.9730877S
p2451
sa(dp2452
g38
I313138863
sg39
(dp2453
g41
VALG RyaNoob
p2454
sg43
Nssg44
(lp2455
I1095363701
asg32
VWeaponPickup
p2456
sg35
VPT2M38.0400923S
p2457
sa(dp2458
g38
I4096745987
sg39
(dp2459
g41
VALG RyaNoob
p2460
sg43
Nssg44
(lp2461
I2758383128
asg32
VWeaponPickup
p2462
sg35
VPT2M38.0400923S
p2463
sa(dp2464
g32
VPlayerSpawn
p2465
sg39
(dp2466
g41
VALG RyaNoob
p2467
sg43
Nssg35
VPT2M38.0400923S
p2468
sa(dp2469
g32
VMedal
p2470
sg39
(dp2471
g41
VOG ACE HCS
p2472
sg43
Nssg254
I2380717523
sg35
VPT2M39.3221555S
p2473
sa(dp2474
g32
VImpulse
p2475
sg39
(dp2476
g41
VOG ACE HCS
p2477
sg43
Nssg764
I1063951891
sg35
VPT2M39.3221555S
p2478
sa(dp2479
g38
I313138863
sg39
(dp2480
g41
VOG APG HCS
p2481
sg43
Nssg44
(lp2482
I1095363701
asg32
VWeaponPickup
p2483
sg35
VPT2M39.5071674S
p2484
sa(dp2485
g38
I4096745987
sg39
(dp2486
g41
VOG APG HCS
p2487
sg43
Nssg44
(lp2488
I2758383128
asg32
VWeaponPickup
p2489
sg35
VPT2M39.5071674S
p2490
sa(dp2491
g32
VPlayerSpawn
p2492
sg39
(dp2493
g41
VOG APG HCS
p2494
sg43
Nssg35
VPT2M39.5071674S
p2495
sa(dp2496
g38
I2244200496
sg39
(dp2497
g41
VOG Maniac HCS
p2498
sg43
Nssg44
(lp2499
I2758383128
asg32
VWeaponPickup
p2500
sg35
VPT2M39.5391666S
p2501
sa(dp2502
g32
VImpulse
p2503
sg39
(dp2504
g41
VOG Maniac HCS
p2505
sg43
Nssg764
I4191318012
sg35
VPT2M39.5391666S
p2506
sa(dp2507
g38
I313138863
sg39
(dp2508
g41
VALG ContrA HCS
p2509
sg43
Nssg44
(lp2510
I1095363701
asg32
VWeaponPickup
p2511
sg35
VPT2M41.0072446S
p2512
sa(dp2513
g38
I4096745987
sg39
(dp2514
g41
VALG ContrA HCS
p2515
sg43
Nssg44
(lp2516
I2758383128
asg32
VWeaponPickup
p2517
sg35
VPT2M41.0072446S
p2518
sa(dp2519
g32
VPlayerSpawn
p2520
sg39
(dp2521
g41
VALG ContrA HCS
p2522
sg43
Nssg35
VPT2M41.0082445S
p2523
sa(dp2524
g38
I2244200496
sg32
VWeaponDrop
p2525
sg180
I0
sg44
(lp2526
I2758383128
asg35
VPT2M42.2223045S
p2527
sg183
I0
sg184
VP0DT0H0M2.5333S
p2528
sg39
(dp2529
g41
VOG Maniac HCS
p2530
sg43
Nssa(dp2531
g32
VImpulse
p2532
sg39
(dp2533
g41
VOG Maniac HCS
p2534
sg43
Nssg764
I3435524855
sg35
VPT2M42.2233053S
p2535
sa(dp2536
g221
I4096745987
sg222
I00
sg223
I00
sg224
(dp2537
g41
VALG RyaNoob
p2538
sg43
Nssg227
(lp2539
I2758383128
asg229
I00
sg230
I01
sg231
I1
sg232
I0
sg233
I1
sg234
(dp2540
Vy
F-7.3263090000000002
sVx
F-12.61486
sVz
F0.00096285343199999996
ssg236
(dp2541
Vy
F-4.6286716500000002
sVx
F-3.07822657
sVz
F0.34538954500000002
ssg238
I00
sg239
(dp2542
g41
VOG Maniac HCS
p2543
sg43
Nssg242
(lp2544
sg244
(lp2545
sg246
I01
sg35
VPT2M44.2564093S
p2546
sg32
VDeath
p2547
sg249
I1
sa(dp2548
g32
VMedal
p2549
sg39
(dp2550
g41
VALG RyaNoob
p2551
sg43
Nssg254
I164204247
sg35
VPT2M44.2574104S
p2552
sa(dp2553
g32
VMedal
p2554
sg39
(dp2555
g41
VALG RyaNoob
p2556
sg43
Nssg254
I3261908037
sg35
VPT2M44.2584098S
p2557
sa(dp2558
g38
I313138863
sg32
VWeaponDrop
p2559
sg180
I5
sg44
(lp2560
I1095363701
asg35
VPT2M44.2584098S
p2561
sg183
I1
sg184
VP0DT0H0M15.2333S
p2562
sg39
(dp2563
g41
VOG Maniac HCS
p2564
sg43
Nssa(dp2565
g38
I4096745987
sg32
VWeaponDrop
p2566
sg180
I27
sg44
(lp2567
I2758383128
asg35
VPT2M44.2584098S
p2568
sg183
I17
sg184
VP0DT0H0M46.5333S
p2569
sg39
(dp2570
g41
VOG Maniac HCS
p2571
sg43
Nssa(dp2572
g38
I313138863
sg39
(dp2573
g41
VOG Str8 SickHCS
p2574
sg43
Nssg44
(lp2575
I1095363701
asg32
VWeaponPickup
p2576
sg35
VPT2M44.5074235S
p2577
sa(dp2578
g38
I4096745987
sg39
(dp2579
g41
VOG Str8 SickHCS
p2580
sg43
Nssg44
(lp2581
I2758383128
asg32
VWeaponPickup
p2582
sg35
VPT2M44.5074235S
p2583
sa(dp2584
g32
VPlayerSpawn
p2585
sg39
(dp2586
g41
VOG Str8 SickHCS
p2587
sg43
Nssg35
VPT2M44.5074235S
p2588
sa(dp2589
g221
I313138863
sg222
I00
sg223
I00
sg224
(dp2590
g41
VOG ACE HCS
p2591
sg43
Nssg227
(lp2592
I1095363701
asg229
I00
sg230
I01
sg231
I1
sg232
I0
sg233
I1
sg234
(dp2593
Vy
F-2.8311410000000001
sVx
F0.99755245400000003
sVz
F0.055862844000000002
ssg236
(dp2594
Vy
F-0.9495787
sVx
F-0.64887419999999996
sVz
F0.37355804399999998
ssg238
I00
sg239
(dp2595
g41
VALGPredevonator
p2596
sg43
Nssg242
(lp2597
sg244
(lp2598
(dp2599
g41
VOG APG HCS
p2600
sg43
Nsasg246
I00
sg35
VPT2M44.7574358S
p2601
sg32
VDeath
p2602
sg249
I1
sa(dp2603
g38
I313138863
sg32
VWeaponDrop
p2604
sg180
I0
sg44
(lp2605
I1095363701
asg35
VPT2M44.7594359S
p2606
sg183
I0
sg184
VP0DT0H0M2.4667S
p2607
sg39
(dp2608
g41
VALGPredevonator
p2609
sg43
Nssa(dp2610
g38
I4096745987
sg32
VWeaponDrop
p2611
sg180
I15
sg44
(lp2612
I2758383128
asg35
VPT2M44.7594359S
p2613
sg183
I6
sg184
VP0DT0H0M13.8667S
p2614
sg39
(dp2615
g41
VALGPredevonator
p2616
sg43
Nssa(dp2617
g38
I2244200496
sg39
(dp2618
g41
VOG ACE HCS
p2619
sg43
Nssg44
(lp2620
I2758383128
asg32
VWeaponPickup
p2621
sg35
VPT2M47.2555617S
p2622
sa(dp2623
g32
VImpulse
p2624
sg39
(dp2625
g41
VOG ACE HCS
p2626
sg43
Nssg764
I4191318012
sg35
VPT2M47.2565639S
p2627
sa(dp2628
g38
I2244200496
sg32
VWeaponDrop
p2629
sg180
I0
sg44
(lp2630
I2758383128
asg35
VPT2M48.2556128S
p2631
sg183
I0
sg184
VP0DT0H0M0.8500S
p2632
sg39
(dp2633
g41
VOG ACE HCS
p2634
sg43
Nssa(dp2635
g32
VImpulse
p2636
sg39
(dp2637
g41
VOG ACE HCS
p2638
sg43
Nssg764
I3435524855
sg35
VPT2M48.256615S
p2639
sa(dp2640
g221
I4096745987
sg222
I00
sg223
I00
sg224
(dp2641
g41
VALG RyaNoob
p2642
sg43
Nssg227
(lp2643
I2758383128
asg229
I00
sg230
I01
sg231
I1
sg232
I0
sg233
I1
sg234
(dp2644
Vy
F-8.1395479999999996
sVx
F-16.874935199999999
sVz
F-0.00067970156700000001
ssg236
(dp2645
Vy
F-7.7130140000000003
sVx
F-6.3763384800000003
sVz
F1.0920614
ssg238
I00
sg239
(dp2646
g41
VOG ACE HCS
p2647
sg43
Nssg242
(lp2648
sg244
(lp2649
sg246
I01
sg35
VPT2M48.323618S
p2650
sg32
VDeath
p2651
sg249
I1
sa(dp2652
g32
VMedal
p2653
sg39
(dp2654
g41
VALG RyaNoob
p2655
sg43
Nssg254
I164204247
sg35
VPT2M48.3246186S
p2656
sa(dp2657
g32
VMedal
p2658
sg39
(dp2659
g41
VALG RyaNoob
p2660
sg43
Nssg254
I3261908037
sg35
VPT2M48.3256181S
p2661
sa(dp2662
g32
VMedal
p2663
sg39
(dp2664
g41
VALG RyaNoob
p2665
sg43
Nssg254
I2078758684
sg35
VPT2M48.3256181S
p2666
sa(dp2667
g38
I313138863
sg32
VWeaponDrop
p2668
sg180
I18
sg44
(lp2669
I1095363701
asg35
VPT2M48.3256181S
p2670
sg183
I12
sg184
VP0DT0H0M3.2000S
p2671
sg39
(dp2672
g41
VOG ACE HCS
p2673
sg43
Nssa(dp2674
g38
I4096745987
sg32
VWeaponDrop
p2675
sg180
I13
sg44
(lp2676
I2758383128
asg35
VPT2M48.3256181S
p2677
sg183
I7
sg184
VP0DT0H0M16.6833S
p2678
sg39
(dp2679
g41
VOG ACE HCS
p2680
sg43
Nssa(dp2681
g221
I313138863
sg222
I00
sg223
I01
sg224
(dp2682
g41
VOG APG HCS
p2683
sg43
Nssg227
(lp2684
I1095363701
asg229
I00
sg230
I00
sg231
I1
sg232
I0
sg233
I1
sg234
(dp2685
Vy
F-12.3595209
sVx
F-12.2368822
sVz
F0.57976746599999995
ssg236
(dp2686
Vy
F-11.979024900000001
sVx
F-12.255476
sVz
F0.59998965299999996
ssg238
I00
sg239
(dp2687
g41
VALG RyaNoob
p2688
sg43
Nssg242
(lp2689
sg244
(lp2690
sg246
I00
sg35
VPT2M50.589734S
p2691
sg32
VDeath
p2692
sg249
I1
sa(dp2693
g32
VMedal
p2694
sg39
(dp2695
g41
VOG APG HCS
p2696
sg43
Nssg254
I2287626681
sg35
VPT2M50.5907346S
p2697
sa(dp2698
g38
I4096745987
sg32
VWeaponDrop
p2699
sg180
I7
sg44
(lp2700
I2758383128
asg35
VPT2M50.5917341S
p2701
sg183
I5
sg184
VP0DT0H0M10.4667S
p2702
sg39
(dp2703
g41
VALG RyaNoob
p2704
sg43
Nssa(dp2705
g38
I313138863
sg32
VWeaponDrop
p2706
sg180
I0
sg44
(lp2707
I1095363701
asg35
VPT2M50.5917341S
p2708
sg183
I0
sg184
VP0DT0H0M2.0833S
p2709
sg39
(dp2710
g41
VALG RyaNoob
p2711
sg43
Nssa(dp2712
g38
I313138863
sg39
(dp2713
g41
VOG Maniac HCS
p2714
sg43
Nssg44
(lp2715
I1095363701
asg32
VWeaponPickup
p2716
sg35
VPT2M52.2748211S
p2717
sa(dp2718
g38
I4096745987
sg39
(dp2719
g41
VOG Maniac HCS
p2720
sg43
Nssg44
(lp2721
I2758383128
asg32
VWeaponPickup
p2722
sg35
VPT2M52.2748211S
p2723
sa(dp2724
g32
VPlayerSpawn
p2725
sg39
(dp2726
g41
VOG Maniac HCS
p2727
sg43
Nssg35
VPT2M52.2748211S
p2728
sa(dp2729
g38
I2244200496
sg39
(dp2730
g41
VOG Str8 SickHCS
p2731
sg43
Nssg44
(lp2732
I2758383128
asg32
VWeaponPickup
p2733
sg35
VPT2M52.6058356S
p2734
sa(dp2735
g32
VImpulse
p2736
sg39
(dp2737
g41
VOG Str8 SickHCS
p2738
sg43
Nssg764
I4191318012
sg35
VPT2M52.6068378S
p2739
sa(dp2740
g38
I313138863
sg39
(dp2741
g41
VALGPredevonator
p2742
sg43
Nssg44
(lp2743
I1095363701
asg32
VWeaponPickup
p2744
sg35
VPT2M52.7739238S
p2745
sa(dp2746
g38
I4096745987
sg39
(dp2747
g41
VALGPredevonator
p2748
sg43
Nssg44
(lp2749
I2758383128
asg32
VWeaponPickup
p2750
sg35
VPT2M52.774847S
p2751
sa(dp2752
g32
VPlayerSpawn
p2753
sg39
(dp2754
g41
VALGPredevonator
p2755
sg43
Nssg35
VPT2M52.774847S
p2756
sa(dp2757
g32
VMedal
p2758
sg39
(dp2759
g41
VOG Str8 SickHCS
p2760
sg43
Nssg254
I3886151616
sg35
VPT2M53.1398652S
p2761
sa(dp2762
g32
VMedal
p2763
sg39
(dp2764
g41
VOG APG HCS
p2765
sg43
Nssg254
I1494478183
sg35
VPT2M53.1398652S
p2766
sa(dp2767
g32
VMedal
p2768
sg39
(dp2769
g41
VOG Maniac HCS
p2770
sg43
Nssg254
I1494478183
sg35
VPT2M53.1398652S
p2771
sa(dp2772
g32
VMedal
p2773
sg39
(dp2774
g41
VOG ACE HCS
p2775
sg43
Nssg254
I1494478183
sg35
VPT2M53.1398652S
p2776
sa(dp2777
g32
VImpulse
p2778
sg39
(dp2779
g41
VOG Str8 SickHCS
p2780
sg43
Nssg764
I2944278681
sg35
VPT2M53.1398652S
p2781
sa(dp2782
g38
I2244200496
sg32
VWeaponDrop
p2783
sg180
I0
sg44
(lp2784
I2758383128
asg35
VPT2M53.1408651S
p2785
sg183
I0
sg184
VP0DT0H0M0.3500S
p2786
sg39
(dp2787
g41
VOG Str8 SickHCS
p2788
sg43
Nssa(dp2789
g221
I4096745987
sg222
I00
sg223
I00
sg224
(dp2790
g41
VALG ContrA HCS
p2791
sg43
Nssg227
(lp2792
I2758383128
asg229
I00
sg230
I01
sg231
I1
sg232
I0
sg233
I1
sg234
(dp2793
Vy
F-6.40675068
sVx
F-4.6050176599999997
sVz
F0.82957329999999996
ssg236
(dp2794
Vy
F-12.4671783
sVx
F-8.9653980000000004
sVz
F0.60018843399999999
ssg238
I00
sg239
(dp2795
g41
VOG Str8 SickHCS
p2796
sg43
Nssg242
(lp2797
sg244
(lp2798
sg246
I01
sg35
VPT2M53.189867S
p2799
sg32
VDeath
p2800
sg249
I1
sa(dp2801
g32
VMedal
p2802
sg39
(dp2803
g41
VALG ContrA HCS
p2804
sg43
Nssg254
I3261908037
sg35
VPT2M53.1918674S
p2805
sa(dp2806
g38
I313138863
sg32
VWeaponDrop
p2807
sg180
I0
sg44
(lp2808
I1095363701
asg35
VPT2M53.1928673S
p2809
sg183
I0
sg184
VP0DT0H0M3.7667S
p2810
sg39
(dp2811
g41
VOG Str8 SickHCS
p2812
sg43
Nssa(dp2813
g38
I4096745987
sg32
VWeaponDrop
p2814
sg180
I0
sg44
(lp2815
I2758383128
asg35
VPT2M53.1928673S
p2816
sg183
I0
sg184
VP0DT0H0M4.5667S
p2817
sg39
(dp2818
g41
VOG Str8 SickHCS
p2819
sg43
Nssa(dp2820
g221
I4096745987
sg222
I00
sg223
I00
sg224
(dp2821
g41
VALG ContrA HCS
p2822
sg43
Nssg227
(lp2823
I2758383128
asg229
I00
sg230
I01
sg231
I1
sg232
I0
sg233
I1
sg234
(dp2824
Vy
F-10.2381554
sVx
F-3.5227756499999998
sVz
F0.94522139999999999
ssg236
(dp2825
Vy
F-10.007149999999999
sVx
F-10.755660000000001
sVz
F0.78127586800000004
ssg238
I00
sg239
(dp2826
g41
VOG APG HCS
p2827
sg43
Nssg242
(lp2828
sg244
(lp2829
(dp2830
g41
VALG Goofy HCS
p2831
sg43
Nsasg246
I01
sg35
VPT2M55.189974S
p2832
sg32
VDeath
p2833
sg249
I1
sa(dp2834
g32
VMedal
p2835
sg39
(dp2836
g41
VALG ContrA HCS
p2837
sg43
Nssg254
I3261908037
sg35
VPT2M55.1909701S
p2838
sa(dp2839
g32
VMedal
p2840
sg39
(dp2841
g41
VALG ContrA HCS
p2842
sg43
Nssg254
I2078758684
sg35
VPT2M55.1909701S
p2843
sa(dp2844
g38
I313138863
sg32
VWeaponDrop
p2845
sg180
I14
sg44
(lp2846
I1095363701
asg35
VPT2M55.1919702S
p2847
sg183
I9
sg184
VP0DT0H0M9.5833S
p2848
sg39
(dp2849
g41
VOG APG HCS
p2850
sg43
Nssa(dp2851
g38
I313138863
sg32
VWeaponDrop
p2852
sg180
I0
sg44
(lp2853
I1095363701
asg35
VPT2M55.1919702S
p2854
sg183
I0
sg184
VP0DT0S
p2855
sg39
(dp2856
g41
VOG APG HCS
p2857
sg43
Nssa(dp2858
g38
I4096745987
sg32
VWeaponDrop
p2859
sg180
I1
sg44
(lp2860
I2758383128
asg35
VPT2M55.1919702S
p2861
sg183
I0
sg184
VP0DT0H0M6.1000S
p2862
sg39
(dp2863
g41
VOG APG HCS
p2864
sg43
Nssa(dp2865
g38
I313138863
sg39
(dp2866
g41
VOG ACE HCS
p2867
sg43
Nssg44
(lp2868
I1095363701
asg32
VWeaponPickup
p2869
sg35
VPT2M56.3410291S
p2870
sa(dp2871
g38
I4096745987
sg39
(dp2872
g41
VOG ACE HCS
p2873
sg43
Nssg44
(lp2874
I2758383128
asg32
VWeaponPickup
p2875
sg35
VPT2M56.3410291S
p2876
sa(dp2877
g32
VPlayerSpawn
p2878
sg39
(dp2879
g41
VOG ACE HCS
p2880
sg43
Nssg35
VPT2M56.3410291S
p2881
sa(dp2882
g38
I2244200496
sg39
(dp2883
g41
VALG Goofy HCS
p2884
sg43
Nssg44
(lp2885
I2758383128
asg32
VWeaponPickup
p2886
sg35
VPT2M57.1890704S
p2887
sa(dp2888
g32
VImpulse
p2889
sg39
(dp2890
g41
VALG Goofy HCS
p2891
sg43
Nssg764
I4191318012
sg35
VPT2M57.1900724S
p2892
sa(dp2893
g32
VImpulse
p2894
sg39
(dp2895
g41
VALG Goofy HCS
p2896
sg43
Nssg764
I1039658009
sg35
VPT2M57.1900724S
p2897
sa(dp2898
g38
I313138863
sg39
(dp2899
g41
VALG RyaNoob
p2900
sg43
Nssg44
(lp2901
I1095363701
asg32
VWeaponPickup
p2902
sg35
VPT2M58.607145S
p2903
sa(dp2904
g38
I4096745987
sg39
(dp2905
g41
VALG RyaNoob
p2906
sg43
Nssg44
(lp2907
I2758383128
asg32
VWeaponPickup
p2908
sg35
VPT2M58.608145S
p2909
sa(dp2910
g32
VPlayerSpawn
p2911
sg39
(dp2912
g41
VALG RyaNoob
p2913
sg43
Nssg35
VPT2M58.608145S
p2914
sa(dp2915
g38
I2244200496
sg32
VWeaponDrop
p2916
sg180
I0
sg44
(lp2917
I2758383128
asg35
VPT2M59.0721671S
p2918
sg183
I0
sg184
VP0DT0H0M1.7167S
p2919
sg39
(dp2920
g41
VALG Goofy HCS
p2921
sg43
Nssa(dp2922
g32
VImpulse
p2923
sg39
(dp2924
g41
VALG Goofy HCS
p2925
sg43
Nssg764
I3435524855
sg35
VPT2M59.0731688S
p2926
sa(dp2927
g38
I2244200496
sg39
(dp2928
g41
VALG Goofy HCS
p2929
sg43
Nssg44
(lp2930
I2758383128
asg32
VWeaponPickup
p2931
sg35
VPT3M0.3222307S
p2932
sa(dp2933
g32
VImpulse
p2934
sg39
(dp2935
g41
VALG Goofy HCS
p2936
sg43
Nssg764
I4191318012
sg35
VPT3M0.3232328S
p2937
sa(dp2938
g38
I2244200496
sg32
VWeaponDrop
p2939
sg180
I0
sg44
(lp2940
I2758383128
asg35
VPT3M0.8892598S
p2941
sg183
I0
sg184
VP0DT0H0M0.4000S
p2942
sg39
(dp2943
g41
VALG Goofy HCS
p2944
sg43
Nssa(dp2945
g32
VImpulse
p2946
sg39
(dp2947
g41
VALG Goofy HCS
p2948
sg43
Nssg764
I3435524855
sg35
VPT3M0.8902617S
p2949
sa(dp2950
g38
I313138863
sg39
(dp2951
g41
VOG Str8 SickHCS
p2952
sg43
Nssg44
(lp2953
I1095363701
asg32
VWeaponPickup
p2954
sg35
VPT3M1.207278S
p2955
sa(dp2956
g38
I4096745987
sg39
(dp2957
g41
VOG Str8 SickHCS
p2958
sg43
Nssg44
(lp2959
I2758383128
asg32
VWeaponPickup
p2960
sg35
VPT3M1.207278S
p2961
sa(dp2962
g32
VPlayerSpawn
p2963
sg39
(dp2964
g41
VOG Str8 SickHCS
p2965
sg43
Nssg35
VPT3M1.207278S
p2966
sa(dp2967
g38
I2492868984
sg39
(dp2968
g41
VALGPredevonator
p2969
sg43
Nssg44
(lp2970
I2758383128
asg32
VWeaponPickup
p2971
sg35
VPT3M1.3402858S
p2972
sa(dp2973
g221
I4096745987
sg222
I00
sg223
I00
sg224
(dp2974
g41
VOG ACE HCS
p2975
sg43
Nssg227
(lp2976
I2758383128
asg229
I00
sg230
I01
sg231
I1
sg232
I0
sg233
I1
sg234
(dp2977
Vy
F-7.4139619999999997
sVx
F-1.0131270000000001
sVz
F-2.670288e-05
ssg236
(dp2978
Vy
F-13.150528899999999
sVx
F-4.3458310000000004
sVz
F1.0216116900000001
ssg238
I00
sg239
(dp2979
g41
VALG ContrA HCS
p2980
sg43
Nssg242
(lp2981
sg244
(lp2982
(dp2983
g41
VOG Maniac HCS
p2984
sg43
Nsasg246
I01
sg35
VPT3M1.6402996S
p2985
sg32
VDeath
p2986
sg249
I1
sa(dp2987
g32
VMedal
p2988
sg39
(dp2989
g41
VOG ACE HCS
p2990
sg43
Nssg254
I2838259753
sg35
VPT3M1.6402996S
p2991
sa(dp2992
g32
VImpulse
p2993
sg39
(dp2994
g41
VOG ACE HCS
p2995
sg43
Nssg764
I2556889090
sg35
VPT3M1.6402996S
p2996
sa(dp2997
g32
VImpulse
p2998
sg39
(dp2999
g41
VOG ACE HCS
p3000
sg43
Nssg764
I3174430457
sg35
VPT3M1.6423001S
p3001
sa(dp3002
g32
VMedal
p3003
sg39
(dp3004
g41
VOG ACE HCS
p3005
sg43
Nssg254
I3653057799
sg35
VPT3M1.6433001S
p3006
sa(dp3007
g38
I313138863
sg32
VWeaponDrop
p3008
sg180
I4
sg44
(lp3009
I1095363701
asg35
VPT3M1.6433001S
p3010
sg183
I3
sg184
VP0DT0H0M1.4833S
p3011
sg39
(dp3012
g41
VALG ContrA HCS
p3013
sg43
Nssa(dp3014
g38
I4096745987
sg32
VWeaponDrop
p3015
sg180
I17
sg44
(lp3016
I2758383128
asg35
VPT3M1.6433001S
p3017
sg183
I12
sg184
VP0DT0H0M19.1500S
p3018
sg39
(dp3019
g41
VALG ContrA HCS
p3020
sg43
Nssa(dp3021
g38
I2492868984
sg32
VWeaponDrop
p3022
sg180
I0
sg44
(lp3023
I2758383128
asg35
VPT3M2.4903439S
p3024
sg183
I0
sg184
VP0DT0H0M1.0000S
p3025
sg39
(dp3026
g41
VALGPredevonator
p3027
sg43
Nssa(dp3028
g38
I313138863
sg39
(dp3029
g41
VOG APG HCS
p3030
sg43
Nssg44
(lp3031
I1095363701
asg32
VWeaponPickup
p3032
sg35
VPT3M3.20738S
p3033
sa(dp3034
g38
I4096745987
sg39
(dp3035
g41
VOG APG HCS
p3036
sg43
Nssg44
(lp3037
I2758383128
asg32
VWeaponPickup
p3038
sg35
VPT3M3.20738S
p3039
sa(dp3040
g32
VPlayerSpawn
p3041
sg39
(dp3042
g41
VOG APG HCS
p3043
sg43
Nssg35
VPT3M3.20738S
p3044
sa(dp3045
g38
I2244200496
sg39
(dp3046
g41
VALG Goofy HCS
p3047
sg43
Nssg44
(lp3048
I2758383128
asg32
VWeaponPickup
p3049
sg35
VPT3M3.3893881S
p3050
sa(dp3051
g32
VImpulse
p3052
sg39
(dp3053
g41
VALG Goofy HCS
p3054
sg43
Nssg764
I4191318012
sg35
VPT3M3.3903899S
p3055
sa(dp3056
g38
I2244200496
sg32
VWeaponDrop
p3057
sg180
I0
sg44
(lp3058
I2758383128
asg35
VPT3M4.2054295S
p3059
sg183
I0
sg184
VP0DT0H0M0.6333S
p3060
sg39
(dp3061
g41
VALG Goofy HCS
p3062
sg43
Nssa(dp3063
g32
VImpulse
p3064
sg39
(dp3065
g41
VALG Goofy HCS
p3066
sg43
Nssg764
I3435524855
sg35
VPT3M4.2064317S
p3067
sa(dp3068
g221
I4106030681
sg222
I00
sg223
I00
sg224
(dp3069
g41
VOG ACE HCS
p3070
sg43
Nssg227
(lp3071
sg229
I00
sg230
I01
sg231
I1
sg232
I0
sg233
I1
sg234
(dp3072
Vy
F-7.1721529999999998
sVx
F-7.1015889999999997
sVz
F4.7087670000000003e-06
ssg236
(dp3073
Vy
F-8.1357959999999991
sVx
F-16.653247799999999
sVz
F0.61771976900000003
ssg238
I00
sg239
(dp3074
g41
VALG Goofy HCS
p3075
sg43
Nssg242
(lp3076
sg244
(lp3077
(dp3078
g41
VOG Maniac HCS
p3079
sg43
Nsasg246
I00
sg35
VPT3M4.4234422S
p3080
sg32
VDeath
p3081
sg249
I1
sa(dp3082
g32
VMedal
p3083
sg39
(dp3084
g41
VOG ACE HCS
p3085
sg43
Nssg254
I164204247
sg35
VPT3M4.4244428S
p3086
sa(dp3087
g32
VMedal
p3088
sg39
(dp3089
g41
VOG ACE HCS
p3090
sg43
Nssg254
I2078758684
sg35
VPT3M4.4244428S
p3091
sa(dp3092
g38
I313138863
sg32
VWeaponDrop
p3093
sg180
I0
sg44
(lp3094
I1095363701
asg35
VPT3M4.4254419S
p3095
sg183
I0
sg184
VP0DT0H0M6.5500S
p3096
sg39
(dp3097
g41
VALG Goofy HCS
p3098
sg43
Nssa(dp3099
g38
I4096745987
sg32
VWeaponDrop
p3100
sg180
I8
sg44
(lp3101
I2758383128
asg35
VPT3M4.4254419S
p3102
sg183
I4
sg184
VP0DT0H0M21.5667S
p3103
sg39
(dp3104
g41
VALG Goofy HCS
p3105
sg43
Nssa(dp3106
g221
I4096745987
sg222
I00
sg223
I00
sg224
(dp3107
g41
VALGPredevonator
p3108
sg43
Nssg227
(lp3109
I2758383128
asg229
I00
sg230
I01
sg231
I1
sg232
I0
sg233
I1
sg234
(dp3110
Vy
F-1.14809012
sVx
F-7.3289780000000002
sVz
F3.0098261800000001
ssg236
(dp3111
Vy
F-9.9536560000000005
sVx
F-8.6686350000000001
sVz
F4.7385692599999997e-06
ssg238
I00
sg239
(dp3112
g41
VOG Maniac HCS
p3113
sg43
Nssg242
(lp3114
sg244
(lp3115
(dp3116
g41
VALG ContrA HCS
p3117
sg43
Nsasg246
I01
sg35
VPT3M4.6074524S
p3118
sg32
VDeath
p3119
sg249
I1
sa(dp3120
g32
VMedal
p3121
sg39
(dp3122
g41
VALGPredevonator
p3123
sg43
Nssg254
I3261908037
sg35
VPT3M4.6074524S
p3124
sa(dp3125
g38
I313138863
sg32
VWeaponDrop
p3126
sg180
I3
sg44
(lp3127
I1095363701
asg35
VPT3M4.6084517S
p3128
sg183
I0
sg184
VP0DT0H0M3.6167S
p3129
sg39
(dp3130
g41
VOG Maniac HCS
p3131
sg43
Nssa(dp3132
g38
I4096745987
sg32
VWeaponDrop
p3133
sg180
I11
sg44
(lp3134
I2758383128
asg35
VPT3M4.6084517S
p3135
sg183
I5
sg184
VP0DT0H0M8.7167S
p3136
sg39
(dp3137
g41
VOG Maniac HCS
p3138
sg43
Nssa(dp3139
g38
I313138863
sg39
(dp3140
g41
VALG ContrA HCS
p3141
sg43
Nssg44
(lp3142
I1095363701
asg32
VWeaponPickup
p3143
sg35
VPT3M9.6577111S
p3144
sa(dp3145
g38
I4096745987
sg39
(dp3146
g41
VALG ContrA HCS
p3147
sg43
Nssg44
(lp3148
I2758383128
asg32
VWeaponPickup
p3149
sg35
VPT3M9.6577111S
p3150
sa(dp3151
g32
VPlayerSpawn
p3152
sg39
(dp3153
g41
VALG ContrA HCS
p3154
sg43
Nssg35
VPT3M9.6577111S
p3155
sa(dp3156
g38
I313138863
sg32
VWeaponDrop
p3157
sg180
I0
sg44
(lp3158
I1095363701
asg35
VPT3M9.9227221S
p3159
sg183
I0
sg184
VP0DT0H0M2.8000S
p3160
sg39
(dp3161
g41
VALG RyaNoob
p3162
sg43
Nssa(dp3163
g38
I2133511419
sg39
(dp3164
g41
VALG RyaNoob
p3165
sg43
Nssg44
(lp3166
I2758383128
asg32
VWeaponPickup
p3167
sg35
VPT3M9.9227221S
p3168
sa(dp3169
g221
I4096745987
sg222
I00
sg223
I00
sg224
(dp3170
g41
VALG RyaNoob
p3171
sg43
Nssg227
(lp3172
I2758383128
asg229
I00
sg230
I01
sg231
I1
sg232
I0
sg233
I1
sg234
(dp3173
Vy
F-3.42001176
sVx
F2.650185
sVz
F1.2199523400000001
ssg236
(dp3174
Vy
F-10.1754017
sVx
F-5.0628570000000002
sVz
F1.05606055
ssg238
I00
sg239
(dp3175
g41
VOG APG HCS
p3176
sg43
Nssg242
(lp3177
sg244
(lp3178
(dp3179
g41
VALGPredevonator
p3180
sg43
Nsasg246
I00
sg35
VPT3M11.690815S
p3181
sg32
VDeath
p3182
sg249
I1
sa(dp3183
g32
VMedal
p3184
sg39
(dp3185
g41
VALG RyaNoob
p3186
sg43
Nssg254
I2838259753
sg35
VPT3M11.690815S
p3187
sa(dp3188
g32
VImpulse
p3189
sg39
(dp3190
g41
VALG RyaNoob
p3191
sg43
Nssg764
I2556889090
sg35
VPT3M11.690815S
p3192
sa(dp3193
g38
I313138863
sg32
VWeaponDrop
p3194
sg180
I0
sg44
(lp3195
I1095363701
asg35
VPT3M11.6918149S
p3196
sg183
I0
sg184
VP0DT0H0M0.6833S
p3197
sg39
(dp3198
g41
VOG APG HCS
p3199
sg43
Nssa(dp3200
g38
I4096745987
sg32
VWeaponDrop
p3201
sg180
I5
sg44
(lp3202
I2758383128
asg35
VPT3M11.6918149S
p3203
sg183
I4
sg184
VP0DT0H0M7.8000S
p3204
sg39
(dp3205
g41
VOG APG HCS
p3206
sg43
Nssa(dp3207
g221
I4096745987
sg222
I00
sg223
I00
sg224
(dp3208
g41
VOG APG HCS
p3209
sg43
Nssg227
(lp3210
I2758383128
asg229
I00
sg230
I01
sg231
I1
sg232
I0
sg233
I1
sg234
(dp3211
Vy
F-10.174110000000001
sVx
F-5.0248894699999997
sVz
F1.1421098700000001
ssg236
(dp3212
Vy
F0.49258180000000001
sVx
F-8.9786959999999993
sVz
F3.10973525
ssg238
I00
sg239
(dp3213
g41
VALGPredevonator
p3214
sg43
Nssg242
(lp3215
sg244
(lp3216
sg246
I01
sg35
VPT3M11.7078156S
p3217
sg32
VDeath
p3218
sg249
I1
sa(dp3219
g32
VImpulse
p3220
sg39
(dp3221
g41
VOG APG HCS
p3222
sg43
Nssg764
I3174430457
sg35
VPT3M11.7098152S
p3223
sa(dp3224
g32
VMedal
p3225
sg39
(dp3226
g41
VOG APG HCS
p3227
sg43
Nssg254
I3653057799
sg35
VPT3M11.7098152S
p3228
sa(dp3229
g38
I313138863
sg32
VWeaponDrop
p3230
sg180
I0
sg44
(lp3231
I1095363701
asg35
VPT3M11.7108154S
p3232
sg183
I0
sg184
VP0DT0H0M1.2667S
p3233
sg39
(dp3234
g41
VALGPredevonator
p3235
sg43
Nssa(dp3236
g38
I4096745987
sg32
VWeaponDrop
p3237
sg180
I12
sg44
(lp3238
I2758383128
asg35
VPT3M11.7108154S
p3239
sg183
I8
sg184
VP0DT0H0M16.6500S
p3240
sg39
(dp3241
g41
VALGPredevonator
p3242
sg43
Nssa(dp3243
g38
I313138863
sg39
(dp3244
g41
VALG Goofy HCS
p3245
sg43
Nssg44
(lp3246
I1095363701
asg32
VWeaponPickup
p3247
sg35
VPT3M12.4408535S
p3248
sa(dp3249
g38
I4096745987
sg39
(dp3250
g41
VALG Goofy HCS
p3251
sg43
Nssg44
(lp3252
I2758383128
asg32
VWeaponPickup
p3253
sg35
VPT3M12.4408535S
p3254
sa(dp3255
g32
VPlayerSpawn
p3256
sg39
(dp3257
g41
VALG Goofy HCS
p3258
sg43
Nssg35
VPT3M12.4408535S
p3259
sa(dp3260
g38
I313138863
sg39
(dp3261
g41
VOG Maniac HCS
p3262
sg43
Nssg44
(lp3263
I1095363701
asg32
VWeaponPickup
p3264
sg35
VPT3M12.6238629S
p3265
sa(dp3266
g38
I4096745987
sg39
(dp3267
g41
VOG Maniac HCS
p3268
sg43
Nssg44
(lp3269
I2758383128
asg32
VWeaponPickup
p3270
sg35
VPT3M12.6238629S
p3271
sa(dp3272
g32
VPlayerSpawn
p3273
sg39
(dp3274
g41
VOG Maniac HCS
p3275
sg43
Nssg35
VPT3M12.6238629S
p3276
sa(dp3277
g32
VMedal
p3278
sg39
(dp3279
g41
VOG ACE HCS
p3280
sg43
Nssg254
I2380717523
sg35
VPT3M15.1899937S
p3281
sa(dp3282
g32
VImpulse
p3283
sg39
(dp3284
g41
VOG ACE HCS
p3285
sg43
Nssg764
I1063951891
sg35
VPT3M15.1899937S
p3286
sa(dp3287
g38
I2244200496
sg39
(dp3288
g41
VALG RyaNoob
p3289
sg43
Nssg44
(lp3290
I2758383128
asg32
VWeaponPickup
p3291
sg35
VPT3M18.7891764S
p3292
sa(dp3293
g32
VImpulse
p3294
sg39
(dp3295
g41
VALG RyaNoob
p3296
sg43
Nssg764
I4191318012
sg35
VPT3M18.7901784S
p3297
sa(dp3298
g32
VImpulse
p3299
sg39
(dp3300
g41
VALG RyaNoob
p3301
sg43
Nssg764
I1039658009
sg35
VPT3M18.7901784S
p3302
sa(dp3303
g38
I313138863
sg39
(dp3304
g41
VOG APG HCS
p3305
sg43
Nssg44
(lp3306
I1095363701
asg32
VWeaponPickup
p3307
sg35
VPT3M19.7072252S
p3308
sa(dp3309
g38
I4096745987
sg39
(dp3310
g41
VOG APG HCS
p3311
sg43
Nssg44
(lp3312
I2758383128
asg32
VWeaponPickup
p3313
sg35
VPT3M19.7082255S
p3314
sa(dp3315
g32
VPlayerSpawn
p3316
sg39
(dp3317
g41
VOG APG HCS
p3318
sg43
Nssg35
VPT3M19.7082255S
p3319
sa(dp3320
g38
I313138863
sg39
(dp3321
g41
VALGPredevonator
p3322
sg43
Nssg44
(lp3323
I1095363701
asg32
VWeaponPickup
p3324
sg35
VPT3M19.7242263S
p3325
sa(dp3326
g38
I4096745987
sg39
(dp3327
g41
VALGPredevonator
p3328
sg43
Nssg44
(lp3329
I2758383128
asg32
VWeaponPickup
p3330
sg35
VPT3M19.7242263S
p3331
sa(dp3332
g32
VPlayerSpawn
p3333
sg39
(dp3334
g41
VALGPredevonator
p3335
sg43
Nssg35
VPT3M19.7242263S
p3336
sa(dp3337
g38
I2244200496
sg32
VWeaponDrop
p3338
sg180
I3
sg44
(lp3339
I2758383128
asg35
VPT3M22.3723595S
p3340
sg183
I1
sg184
VP0DT0H0M3.4333S
p3341
sg39
(dp3342
g41
VALG RyaNoob
p3343
sg43
Nssa(dp3344
g32
VImpulse
p3345
sg39
(dp3346
g41
VALG RyaNoob
p3347
sg43
Nssg764
I3435524855
sg35
VPT3M22.3733612S
p3348
sa(dp3349
g221
I4096745987
sg222
I00
sg223
I00
sg224
(dp3350
g41
VALG ContrA HCS
p3351
sg43
Nssg227
(lp3352
I2758383128
asg229
I00
sg230
I01
sg231
I1
sg232
I0
sg233
I1
sg234
(dp3353
Vy
F-1.71223032
sVx
F-11.539568900000001
sVz
F3.5811281199999998
ssg236
(dp3354
Vy
F-6.8218727100000001
sVx
F-15.6922493
sVz
F1.11611938
ssg238
I00
sg239
(dp3355
g41
VOG ACE HCS
p3356
sg43
Nssg242
(lp3357
sg244
(lp3358
(dp3359
g41
VALG RyaNoob
p3360
sg43
Nsasg246
I01
sg35
VPT3M22.8573865S
p3361
sg32
VDeath
p3362
sg249
I1
sa(dp3363
g32
VMedal
p3364
sg39
(dp3365
g41
VALG ContrA HCS
p3366
sg43
Nssg254
I2838259753
sg35
VPT3M22.8573865S
p3367
sa(dp3368
g32
VImpulse
p3369
sg39
(dp3370
g41
VALG ContrA HCS
p3371
sg43
Nssg764
I2556889090
sg35
VPT3M22.8573865S
p3372
sa(dp3373
g32
VMedal
p3374
sg39
(dp3375
g41
VALG ContrA HCS
p3376
sg43
Nssg254
I3261908037
sg35
VPT3M22.8583865S
p3377
sa(dp3378
g38
I313138863
sg32
VWeaponDrop
p3379
sg180
I11
sg44
(lp3380
I1095363701
asg35
VPT3M22.8593864S
p3381
sg183
I5
sg184
VP0DT0H0M9.5167S
p3382
sg39
(dp3383
g41
VOG ACE HCS
p3384
sg43
Nssa(dp3385
g38
I4096745987
sg32
VWeaponDrop
p3386
sg180
I10
sg44
(lp3387
I2758383128
asg35
VPT3M22.8593864S
p3388
sg183
I5
sg184
VP0DT0H0M17.0000S
p3389
sg39
(dp3390
g41
VOG ACE HCS
p3391
sg43
Nssa(dp3392
g221
I313138863
sg222
I00
sg223
I00
sg224
(dp3393
g41
VOG ACE HCS
p3394
sg43
Nssg227
(lp3395
I1095363701
asg229
I00
sg230
I01
sg231
I1
sg232
I0
sg233
I1
sg234
(dp3396
Vy
F-6.8192170000000001
sVx
F-15.740294499999999
sVz
F0.97447300000000003
ssg236
(dp3397
Vy
F-10.085413900000001
sVx
F-16.15747
sVz
F0.11574071599999999
ssg238
I00
sg239
(dp3398
g41
VALG RyaNoob
p3399
sg43
Nssg242
(lp3400
sg244
(lp3401
(dp3402
g41
VOG APG HCS
p3403
sg43
Nsasg246
I00
sg35
VPT3M22.890388S
p3404
sg32
VDeath
p3405
sg249
I1
sa(dp3406
g32
VMedal
p3407
sg39
(dp3408
g41
VOG ACE HCS
p3409
sg43
Nssg254
I164204247
sg35
VPT3M22.8913882S
p3410
sa(dp3411
g38
I2133511419
sg32
VWeaponDrop
p3412
sg180
I0
sg44
(lp3413
I2758383128
asg35
VPT3M22.8923885S
p3414
sg183
I0
sg184
VP0DT0H0M1.1333S
p3415
sg39
(dp3416
g41
VALG RyaNoob
p3417
sg43
Nssa(dp3418
g38
I4096745987
sg32
VWeaponDrop
p3419
sg180
I7
sg44
(lp3420
I2758383128
asg35
VPT3M22.8923885S
p3421
sg183
I6
sg184
VP0DT0H0M16.9167S
p3422
sg39
(dp3423
g41
VALG RyaNoob
p3424
sg43
Nssa(dp3425
g221
I4096745987
sg222
I00
sg223
I00
sg224
(dp3426
g41
VALG ContrA HCS
p3427
sg43
Nssg227
(lp3428
I2758383128
asg229
I00
sg230
I01
sg231
I1
sg232
I0
sg233
I1
sg234
(dp3429
Vy
F-0.48556837400000002
sVx
F-8.443047
sVz
F3.7660198199999999
ssg236
(dp3430
Vy
F-0.055899020000000001
sVx
F-12.173716499999999
sVz
F2.5018544199999999
ssg238
I00
sg239
(dp3431
g41
VOG Str8 SickHCS
p3432
sg43
Nssg242
(lp3433
sg244
(lp3434
sg246
I00
sg35
VPT3M30.6567854S
p3435
sg32
VDeath
p3436
sg249
I1
sa(dp3437
g38
I313138863
sg32
VWeaponDrop
p3438
sg180
I12
sg44
(lp3439
I1095363701
asg35
VPT3M30.6587858S
p3440
sg183
I10
sg184
VP0DT0H0M10.7333S
p3441
sg39
(dp3442
g41
VOG Str8 SickHCS
p3443
sg43
Nssa(dp3444
g38
I4096745987
sg32
VWeaponDrop
p3445
sg180
I1
sg44
(lp3446
I2758383128
asg35
VPT3M30.6587858S
p3447
sg183
I0
sg184
VP0DT0H0M18.7167S
p3448
sg39
(dp3449
g41
VOG Str8 SickHCS
p3450
sg43
Nssa(dp3451
g38
I313138863
sg39
(dp3452
g41
VOG ACE HCS
p3453
sg43
Nssg44
(lp3454
I1095363701
asg32
VWeaponPickup
p3455
sg35
VPT3M30.8737969S
p3456
sa(dp3457
g38
I4096745987
sg39
(dp3458
g41
VOG ACE HCS
p3459
sg43
Nssg44
(lp3460
I2758383128
asg32
VWeaponPickup
p3461
sg35
VPT3M30.8747974S
p3462
sa(dp3463
g32
VPlayerSpawn
p3464
sg39
(dp3465
g41
VOG ACE HCS
p3466
sg43
Nssg35
VPT3M30.8747974S
p3467
sa(dp3468
g38
I313138863
sg39
(dp3469
g41
VALG RyaNoob
p3470
sg43
Nssg44
(lp3471
I1095363701
asg32
VWeaponPickup
p3472
sg35
VPT3M30.9077992S
p3473
sa(dp3474
g38
I4096745987
sg39
(dp3475
g41
VALG RyaNoob
p3476
sg43
Nssg44
(lp3477
I2758383128
asg32
VWeaponPickup
p3478
sg35
VPT3M30.9077992S
p3479
sa(dp3480
g32
VPlayerSpawn
p3481
sg39
(dp3482
g41
VALG RyaNoob
p3483
sg43
Nssg35
VPT3M30.9077992S
p3484
sa(dp3485
g32
VMedal
p3486
sg39
(dp3487
g41
VOG APG HCS
p3488
sg43
Nssg254
I2380717523
sg35
VPT3M31.7228384S
p3489
sa(dp3490
g32
VImpulse
p3491
sg39
(dp3492
g41
VOG APG HCS
p3493
sg43
Nssg764
I1063951891
sg35
VPT3M31.7228384S
p3494
sa(dp3495
g221
I4106030681
sg222
I00
sg223
I00
sg224
(dp3496
g41
VOG ACE HCS
p3497
sg43
Nssg227
(lp3498
sg229
I00
sg230
I01
sg231
I1
sg232
I0
sg233
I1
sg234
(dp3499
Vy
F-11.777514500000001
sVx
F-0.074520774200000001
sVz
F0.83530825399999997
ssg236
(dp3500
Vy
F-1.76748693
sVx
F-14.65934
sVz
F1.5100674599999999
ssg238
I00
sg239
(dp3501
g41
VALG Goofy HCS
p3502
sg43
Nssg242
(lp3503
sg244
(lp3504
(dp3505
g41
VOG Maniac HCS
p3506
sg43
Nsasg246
I00
sg35
VPT3M35.9740583S
p3507
sg32
VDeath
p3508
sg249
I1
sa(dp3509
g32
VMedal
p3510
sg39
(dp3511
g41
VOG ACE HCS
p3512
sg43
Nssg254
I3491849182
sg35
VPT3M35.9750578S
p3513
sa(dp3514
g38
I313138863
sg32
VWeaponDrop
p3515
sg180
I9
sg44
(lp3516
I1095363701
asg35
VPT3M35.9760584S
p3517
sg183
I6
sg184
VP0DT0H0M5.7167S
p3518
sg39
(dp3519
g41
VALG Goofy HCS
p3520
sg43
Nssa(dp3521
g38
I4096745987
sg32
VWeaponDrop
p3522
sg180
I6
sg44
(lp3523
I2758383128
asg35
VPT3M35.9760584S
p3524
sg183
I4
sg184
VP0DT0H0M17.8167S
p3525
sg39
(dp3526
g41
VALG Goofy HCS
p3527
sg43
Nssa(dp3528
g221
I4096745987
sg222
I00
sg223
I00
sg224
(dp3529
g41
VOG APG HCS
p3530
sg43
Nssg227
(lp3531
I2758383128
asg229
I00
sg230
I01
sg231
I1
sg232
I0
sg233
I1
sg234
(dp3532
Vy
F-4.7310590000000001
sVx
F-18.175094600000001
sVz
F1.68648672
ssg236
(dp3533
Vy
F6.1548323600000003
sVx
F-17.296974200000001
sVz
F2.0317866800000002
ssg238
I00
sg239
(dp3534
g41
VALG ContrA HCS
p3535
sg43
Nssg242
(lp3536
sg244
(lp3537
(dp3538
g41
VOG Maniac HCS
p3539
sg43
Nsasg246
I01
sg35
VPT3M37.6401424S
p3540
sg32
VDeath
p3541
sg249
I1
sa(dp3542
g32
VMedal
p3543
sg39
(dp3544
g41
VOG APG HCS
p3545
sg43
Nssg254
I2838259753
sg35
VPT3M37.6411438S
p3546
sa(dp3547
g32
VImpulse
p3548
sg39
(dp3549
g41
VOG APG HCS
p3550
sg43
Nssg764
I2556889090
sg35
VPT3M37.6411438S
p3551
sa(dp3552
g32
VMedal
p3553
sg39
(dp3554
g41
VOG APG HCS
p3555
sg43
Nssg254
I3261908037
sg35
VPT3M37.642143S
p3556
sa(dp3557
g38
I313138863
sg32
VWeaponDrop
p3558
sg180
I0
sg44
(lp3559
I1095363701
asg35
VPT3M37.642143S
p3560
sg183
I0
sg184
VP0DT0H0M0.4000S
p3561
sg39
(dp3562
g41
VALG ContrA HCS
p3563
sg43
Nssa(dp3564
g38
I4096745987
sg32
VWeaponDrop
p3565
sg180
I16
sg44
(lp3566
I2758383128
asg35
VPT3M37.642143S
p3567
sg183
I12
sg184
VP0DT0H0M27.5833S
p3568
sg39
(dp3569
g41
VALG ContrA HCS
p3570
sg43
Nssa(dp3571
g38
I313138863
sg39
(dp3572
g41
VOG Str8 SickHCS
p3573
sg43
Nssg44
(lp3574
I1095363701
asg32
VWeaponPickup
p3575
sg35
VPT3M38.6741969S
p3576
sa(dp3577
g38
I4096745987
sg39
(dp3578
g41
VOG Str8 SickHCS
p3579
sg43
Nssg44
(lp3580
I2758383128
asg32
VWeaponPickup
p3581
sg35
VPT3M38.6741969S
p3582
sa(dp3583
g32
VPlayerSpawn
p3584
sg39
(dp3585
g41
VOG Str8 SickHCS
p3586
sg43
Nssg35
VPT3M38.6741969S
p3587
sa(dp3588
g221
I4096745987
sg222
I00
sg223
I00
sg224
(dp3589
g41
VALGPredevonator
p3590
sg43
Nssg227
(lp3591
I2758383128
asg229
I00
sg230
I01
sg231
I1
sg232
I0
sg233
I1
sg234
(dp3592
Vy
F-0.63268590000000002
sVx
F-6.3585696199999999
sVz
F2.8091390000000001
ssg236
(dp3593
Vy
F-0.48210397399999999
sVx
F-15.605362899999999
sVz
F2.3138597000000001
ssg238
I00
sg239
(dp3594
g41
VOG APG HCS
p3595
sg43
Nssg242
(lp3596
sg244
(lp3597
sg246
I01
sg35
VPT3M40.3072799S
p3598
sg32
VDeath
p3599
sg249
I1
sa(dp3600
g32
VMedal
p3601
sg39
(dp3602
g41
VALGPredevonator
p3603
sg43
Nssg254
I3261908037
sg35
VPT3M40.3092798S
p3604
sa(dp3605
g38
I313138863
sg32
VWeaponDrop
p3606
sg180
I0
sg44
(lp3607
I1095363701
asg35
VPT3M40.3092798S
p3608
sg183
I0
sg184
VP0DT0H0M1.9167S
p3609
sg39
(dp3610
g41
VOG APG HCS
p3611
sg43
Nssa(dp3612
g38
I4096745987
sg32
VWeaponDrop
p3613
sg180
I12
sg44
(lp3614
I2758383128
asg35
VPT3M40.3092798S
p3615
sg183
I8
sg184
VP0DT0H0M18.6833S
p3616
sg39
(dp3617
g41
VOG APG HCS
p3618
sg43
Nssa(dp3619
g38
I313138863
sg39
(dp3620
g41
VALG Goofy HCS
p3621
sg43
Nssg44
(lp3622
I1095363701
asg32
VWeaponPickup
p3623
sg35
VPT3M43.9914686S
p3624
sa(dp3625
g38
I4096745987
sg39
(dp3626
g41
VALG Goofy HCS
p3627
sg43
Nssg44
(lp3628
I2758383128
asg32
VWeaponPickup
p3629
sg35
VPT3M43.9914686S
p3630
sa(dp3631
g32
VPlayerSpawn
p3632
sg39
(dp3633
g41
VALG Goofy HCS
p3634
sg43
Nssg35
VPT3M43.9914686S
p3635
sa(dp3636
g38
I313138863
sg39
(dp3637
g41
VALG ContrA HCS
p3638
sg43
Nssg44
(lp3639
I1095363701
asg32
VWeaponPickup
p3640
sg35
VPT3M45.657554S
p3641
sa(dp3642
g38
I4096745987
sg39
(dp3643
g41
VALG ContrA HCS
p3644
sg43
Nssg44
(lp3645
I2758383128
asg32
VWeaponPickup
p3646
sg35
VPT3M45.6585618S
p3647
sa(dp3648
g32
VPlayerSpawn
p3649
sg39
(dp3650
g41
VALG ContrA HCS
p3651
sg43
Nssg35
VPT3M45.6585618S
p3652
sa(dp3653
g38
I313138863
sg39
(dp3654
g41
VOG APG HCS
p3655
sg43
Nssg44
(lp3656
I1095363701
asg32
VWeaponPickup
p3657
sg35
VPT3M48.3246907S
p3658
sa(dp3659
g38
I4096745987
sg39
(dp3660
g41
VOG APG HCS
p3661
sg43
Nssg44
(lp3662
I2758383128
asg32
VWeaponPickup
p3663
sg35
VPT3M48.3246907S
p3664
sa(dp3665
g32
VPlayerSpawn
p3666
sg39
(dp3667
g41
VOG APG HCS
p3668
sg43
Nssg35
VPT3M48.3246907S
p3669
sa(dp3670
g38
I2244200496
sg39
(dp3671
g41
VOG Str8 SickHCS
p3672
sg43
Nssg44
(lp3673
I2758383128
asg32
VWeaponPickup
p3674
sg35
VPT3M49.856768S
p3675
sa(dp3676
g32
VImpulse
p3677
sg39
(dp3678
g41
VOG Str8 SickHCS
p3679
sg43
Nssg764
I4191318012
sg35
VPT3M49.856768S
p3680
sa(dp3681
g32
VImpulse
p3682
sg39
(dp3683
g41
VOG Str8 SickHCS
p3684
sg43
Nssg764
I1039658009
sg35
VPT3M49.856768S
p3685
sa(dp3686
g38
I2244200496
sg32
VWeaponDrop
p3687
sg180
I0
sg44
(lp3688
I2758383128
asg35
VPT3M51.0728294S
p3689
sg183
I0
sg184
VP0DT0H0M1.0667S
p3690
sg39
(dp3691
g41
VOG Str8 SickHCS
p3692
sg43
Nssa(dp3693
g32
VImpulse
p3694
sg39
(dp3695
g41
VOG Str8 SickHCS
p3696
sg43
Nssg764
I3435524855
sg35
VPT3M51.0738315S
p3697
sa(dp3698
g38
I2244200496
sg39
(dp3699
g41
VOG Str8 SickHCS
p3700
sg43
Nssg44
(lp3701
I2758383128
asg32
VWeaponPickup
p3702
sg35
VPT3M52.4068992S
p3703
sa(dp3704
g32
VImpulse
p3705
sg39
(dp3706
g41
VOG Str8 SickHCS
p3707
sg43
Nssg764
I4191318012
sg35
VPT3M52.4068992S
p3708
sa(dp3709
g221
I2460880172
sg222
I00
sg223
I00
sg224
(dp3710
g41
VALGPredevonator
p3711
sg43
Nssg227
(lp3712
sg229
I00
sg230
I01
sg231
I1
sg232
I0
sg233
I1
sg234
(dp3713
Vy
F0.352312654
sVx
F-15.2291422
sVz
F1.3997802699999999
ssg236
(dp3714
Vy
F-0.92628279999999996
sVx
F-11.95499
sVz
F3.3696649999999999
ssg238
I00
sg239
(dp3715
g41
VOG ACE HCS
p3716
sg43
Nssg242
(lp3717
sg244
(lp3718
sg246
I00
sg35
VPT3M54.5910116S
p3719
sg32
VDeath
p3720
sg249
I1
sa(dp3721
g32
VMedal
p3722
sg39
(dp3723
g41
VALGPredevonator
p3724
sg43
Nssg254
I2782465081
sg35
VPT3M54.5910116S
p3725
sa(dp3726
g32
VMedal
p3727
sg39
(dp3728
g41
VALGPredevonator
p3729
sg43
Nssg254
I2251767925
sg35
VPT3M54.5920112S
p3730
sa(dp3731
g38
I313138863
sg32
VWeaponDrop
p3732
sg180
I15
sg44
(lp3733
I1095363701
asg35
VPT3M54.5930111S
p3734
sg183
I10
sg184
VP0DT0H0M11.2500S
p3735
sg39
(dp3736
g41
VOG ACE HCS
p3737
sg43
Nssa(dp3738
g38
I4096745987
sg32
VWeaponDrop
p3739
sg180
I3
sg44
(lp3740
I2758383128
asg35
VPT3M54.5930111S
p3741
sg183
I2
sg184
VP0DT0H0M12.4667S
p3742
sg39
(dp3743
g41
VOG ACE HCS
p3744
sg43
Nssa(dp3745
g221
I4106030681
sg222
I00
sg223
I00
sg224
(dp3746
g41
VALG Goofy HCS
p3747
sg43
Nssg227
(lp3748
sg229
I00
sg230
I01
sg231
I1
sg232
I0
sg233
I1
sg234
(dp3749
Vy
F17.633430000000001
sVx
F2.8360032999999998
sVz
F0.65399320000000005
ssg236
(dp3750
Vy
F12.5513926
sVx
F3.19608545
sVz
F1.5476967100000001
ssg238
I00
sg239
(dp3751
g41
VOG Maniac HCS
p3752
sg43
Nssg242
(lp3753
sg244
(lp3754
(dp3755
g41
VALG ContrA HCS
p3756
sg43
Nsa(dp3757
g41
VALG RyaNoob
p3758
sg43
Nsasg246
I00
sg35
VPT3M54.8910267S
p3759
sg32
VDeath
p3760
sg249
I1
sa(dp3761
g32
VMedal
p3762
sg39
(dp3763
g41
VALG Goofy HCS
p3764
sg43
Nssg254
I2838259753
sg35
VPT3M54.8910267S
p3765
sa(dp3766
g32
VImpulse
p3767
sg39
(dp3768
g41
VALG Goofy HCS
p3769
sg43
Nssg764
I2556889090
sg35
VPT3M54.8910267S
p3770
sa(dp3771
g38
I313138863
sg32
VWeaponDrop
p3772
sg180
I22
sg44
(lp3773
I1095363701
asg35
VPT3M54.8930265S
p3774
sg183
I16
sg184
VP0DT0H0M12.9500S
p3775
sg39
(dp3776
g41
VOG Maniac HCS
p3777
sg43
Nssa(dp3778
g38
I4096745987
sg32
VWeaponDrop
p3779
sg180
I13
sg44
(lp3780
I2758383128
asg35
VPT3M54.8930265S
p3781
sg183
I8
sg184
VP0DT0H0M29.3167S
p3782
sg39
(dp3783
g41
VOG Maniac HCS
p3784
sg43
Nssa(dp3785
g38
I2244200496
sg32
VWeaponDrop
p3786
sg180
I0
sg44
(lp3787
I2758383128
asg35
VPT3M54.9060257S
p3788
sg183
I0
sg184
VP0DT0H0M2.3500S
p3789
sg39
(dp3790
g41
VOG Str8 SickHCS
p3791
sg43
Nssa(dp3792
g32
VImpulse
p3793
sg39
(dp3794
g41
VOG Str8 SickHCS
p3795
sg43
Nssg764
I3435524855
sg35
VPT3M54.9070276S
p3796
sa(dp3797
g32
VMedal
p3798
sg39
(dp3799
g41
VALG Goofy HCS
p3800
sg43
Nssg254
I3400287617
sg35
VPT3M58.8902307S
p3801
sa(dp3802
g38
I313138863
sg39
(dp3803
g41
VOG ACE HCS
p3804
sg43
Nssg44
(lp3805
I1095363701
asg32
VWeaponPickup
p3806
sg35
VPT4M2.6084222S
p3807
sa(dp3808
g38
I4096745987
sg39
(dp3809
g41
VOG ACE HCS
p3810
sg43
Nssg44
(lp3811
I2758383128
asg32
VWeaponPickup
p3812
sg35
VPT4M2.6084222S
p3813
sa(dp3814
g32
VPlayerSpawn
p3815
sg39
(dp3816
g41
VOG ACE HCS
p3817
sg43
Nssg35
VPT4M2.6084222S
p3818
sa(dp3819
g38
I313138863
sg39
(dp3820
g41
VOG Maniac HCS
p3821
sg43
Nssg44
(lp3822
I1095363701
asg32
VWeaponPickup
p3823
sg35
VPT4M2.9084375S
p3824
sa(dp3825
g38
I4096745987
sg39
(dp3826
g41
VOG Maniac HCS
p3827
sg43
Nssg44
(lp3828
I2758383128
asg32
VWeaponPickup
p3829
sg35
VPT4M2.9084375S
p3830
sa(dp3831
g32
VPlayerSpawn
p3832
sg39
(dp3833
g41
VOG Maniac HCS
p3834
sg43
Nssg35
VPT4M2.9084375S
p3835
sa(dp3836
g221
I313138863
sg222
I00
sg223
I01
sg224
(dp3837
g41
VOG Str8 SickHCS
p3838
sg43
Nssg227
(lp3839
I1095363701
asg229
I00
sg230
I00
sg231
I1
sg232
I0
sg233
I1
sg234
(dp3840
Vy
F10.3856077
sVx
F7.6014647499999999
sVz
F0.071392910000000004
ssg236
(dp3841
Vy
F10.0185452
sVx
F7.4724579999999996
sVz
F0.43999850000000001
ssg238
I00
sg239
(dp3842
g41
VALG ContrA HCS
p3843
sg43
Nssg242
(lp3844
sg244
(lp3845
sg246
I00
sg35
VPT4M3.1914519S
p3846
sg32
VDeath
p3847
sg249
I1
sa(dp3848
g32
VMedal
p3849
sg39
(dp3850
g41
VOG Str8 SickHCS
p3851
sg43
Nssg254
I250435527
sg35
VPT4M3.1924517S
p3852
sa(dp3853
g38
I4096745987
sg32
VWeaponDrop
p3854
sg180
I3
sg44
(lp3855
I2758383128
asg35
VPT4M3.1924517S
p3856
sg183
I2
sg184
VP0DT0H0M16.9167S
p3857
sg39
(dp3858
g41
VALG ContrA HCS
p3859
sg43
Nssa(dp3860
g38
I4096745987
sg32
VWeaponDrop
p3861
sg180
I0
sg44
(lp3862
I2758383128
asg35
VPT4M3.1924517S
p3863
sg183
I0
sg184
VP0DT0S
p3864
sg39
(dp3865
g41
VALG ContrA HCS
p3866
sg43
Nssa(dp3867
g38
I313138863
sg32
VWeaponDrop
p3868
sg180
I0
sg44
(lp3869
I1095363701
asg35
VPT4M3.193452S
p3870
sg183
I0
sg184
VP0DT0H0M0.6167S
p3871
sg39
(dp3872
g41
VALG ContrA HCS
p3873
sg43
Nssa(dp3874
g38
I2244200496
sg39
(dp3875
g41
VALG RyaNoob
p3876
sg43
Nssg44
(lp3877
I2758383128
asg32
VWeaponPickup
p3878
sg35
VPT4M3.8064812S
p3879
sa(dp3880
g32
VImpulse
p3881
sg39
(dp3882
g41
VALG RyaNoob
p3883
sg43
Nssg764
I4191318012
sg35
VPT4M3.8074831S
p3884
sa(dp3885
g32
VImpulse
p3886
sg39
(dp3887
g41
VALG RyaNoob
p3888
sg43
Nssg764
I1039658009
sg35
VPT4M3.8074831S
p3889
sa(dp3890
g38
I4096745987
sg32
VWeaponDrop
p3891
sg180
I6
sg44
(lp3892
I2758383128
asg35
VPT4M4.5565194S
p3893
sg183
I4
sg184
VP0DT0H0M37.5500S
p3894
sg39
(dp3895
g41
VALGPredevonator
p3896
sg43
Nssa(dp3897
g38
I424645655
sg39
(dp3898
g41
VALGPredevonator
p3899
sg43
Nssg44
(lp3900
I1327094800
asg32
VWeaponPickup
p3901
sg35
VPT4M4.5565194S
p3902
sa(dp3903
g221
I4096745987
sg222
I00
sg223
I00
sg224
(dp3904
g41
VALG Goofy HCS
p3905
sg43
Nssg227
(lp3906
I2758383128
asg229
I00
sg230
I01
sg231
I1
sg232
I0
sg233
I1
sg234
(dp3907
Vy
F9.8556530000000002
sVx
F8.2502060000000004
sVz
F0.80375160000000001
ssg236
(dp3908
Vy
F11.615999199999999
sVx
F4.3449187299999998
sVz
F1.11675382
ssg238
I00
sg239
(dp3909
g41
VOG Str8 SickHCS
p3910
sg43
Nssg242
(lp3911
sg244
(lp3912
(dp3913
g41
VALG ContrA HCS
p3914
sg43
Nsasg246
I01
sg35
VPT4M5.3905644S
p3915
sg32
VDeath
p3916
sg249
I1
sa(dp3917
g32
VMedal
p3918
sg39
(dp3919
g41
VALG Goofy HCS
p3920
sg43
Nssg254
I3261908037
sg35
VPT4M5.3925635S
p3921
sa(dp3922
g38
I313138863
sg32
VWeaponDrop
p3923
sg180
I20
sg44
(lp3924
I1095363701
asg35
VPT4M5.3925635S
p3925
sg183
I16
sg184
VP0DT0H0M8.4833S
p3926
sg39
(dp3927
g41
VOG Str8 SickHCS
p3928
sg43
Nssa(dp3929
g38
I313138863
sg32
VWeaponDrop
p3930
sg180
I0
sg44
(lp3931
I1095363701
asg35
VPT4M5.3925635S
p3932
sg183
I0
sg184
VP0DT0S
p3933
sg39
(dp3934
g41
VOG Str8 SickHCS
p3935
sg43
Nssa(dp3936
g38
I4096745987
sg32
VWeaponDrop
p3937
sg180
I5
sg44
(lp3938
I2758383128
asg35
VPT4M5.3925635S
p3939
sg183
I4
sg184
VP0DT0H0M14.8167S
p3940
sg39
(dp3941
g41
VOG Str8 SickHCS
p3942
sg43
Nssa(dp3943
g221
I4096745987
sg222
I00
sg223
I00
sg224
(dp3944
g41
VOG Maniac HCS
p3945
sg43
Nssg227
(lp3946
I2758383128
asg229
I00
sg230
I01
sg231
I1
sg232
I0
sg233
I1
sg234
(dp3947
Vy
F-1.4941554100000001
sVx
F8.0251660000000005
sVz
F-0.59999950000000002
ssg236
(dp3948
Vy
F7.337072
sVx
F8.8250229999999998
sVz
F-1.11460686e-05
ssg238
I00
sg239
(dp3949
g41
VALG Goofy HCS
p3950
sg43
Nssg242
(lp3951
sg244
(lp3952
(dp3953
g41
VOG Str8 SickHCS
p3954
sg43
Nsasg246
I01
sg35
VPT4M6.6076266S
p3955
sg32
VDeath
p3956
sg249
I1
sa(dp3957
g32
VMedal
p3958
sg39
(dp3959
g41
VOG Maniac HCS
p3960
sg43
Nssg254
I3261908037
sg35
VPT4M6.6086267S
p3961
sa(dp3962
g38
I313138863
sg32
VWeaponDrop
p3963
sg180
I7
sg44
(lp3964
I1095363701
asg35
VPT4M6.6096265S
p3965
sg183
I0
sg184
VP0DT0H0M6.1000S
p3966
sg39
(dp3967
g41
VALG Goofy HCS
p3968
sg43
Nssa(dp3969
g38
I4096745987
sg32
VWeaponDrop
p3970
sg180
I5
sg44
(lp3971
I2758383128
asg35
VPT4M6.6096265S
p3972
sg183
I4
sg184
VP0DT0H0M16.5167S
p3973
sg39
(dp3974
g41
VALG Goofy HCS
p3975
sg43
Nssa(dp3976
g221
I4096745987
sg222
I00
sg223
I00
sg224
(dp3977
g41
VOG APG HCS
p3978
sg43
Nssg227
(lp3979
I2758383128
asg229
I00
sg230
I01
sg231
I1
sg232
I0
sg233
I1
sg234
(dp3980
Vy
F-0.69936019999999999
sVx
F-17.5595
sVz
F2.3324055700000002
ssg236
(dp3981
Vy
F-8.4916429999999998
sVx
F-16.678771999999999
sVz
F0.91923869999999996
ssg238
I00
sg239
(dp3982
g41
VALG RyaNoob
p3983
sg43
Nssg242
(lp3984
sg244
(lp3985
(dp3986
g41
VOG ACE HCS
p3987
sg43
Nsasg246
I01
sg35
VPT4M6.6576288S
p3988
sg32
VDeath
p3989
sg249
I1
sa(dp3990
g32
VMedal
p3991
sg39
(dp3992
g41
VOG APG HCS
p3993
sg43
Nssg254
I2028249938
sg35
VPT4M6.6586294S
p3994
sa(dp3995
g32
VImpulse
p3996
sg39
(dp3997
g41
VOG APG HCS
p3998
sg43
Nssg764
I2299858338
sg35
VPT4M6.6586294S
p3999
sa(dp4000
g32
VMedal
p4001
sg39
(dp4002
g41
VOG APG HCS
p4003
sg43
Nssg254
I3261908037
sg35
VPT4M6.6586294S
p4004
sa(dp4005
g38
I313138863
sg32
VWeaponDrop
p4006
sg180
I0
sg44
(lp4007
I1095363701
asg35
VPT4M6.6586294S
p4008
sg183
I0
sg184
VP0DT0H0M1.0167S
p4009
sg39
(dp4010
g41
VALG RyaNoob
p4011
sg43
Nssa(dp4012
g38
I4096745987
sg32
VWeaponDrop
p4013
sg180
I6
sg44
(lp4014
I2758383128
asg35
VPT4M6.6586294S
p4015
sg183
I3
sg184
VP0DT0H0M32.0333S
p4016
sg39
(dp4017
g41
VALG RyaNoob
p4018
sg43
Nssa(dp4019
g38
I2244200496
sg32
VWeaponDrop
p4020
sg180
I4
sg44
(lp4021
I2758383128
asg35
VPT4M6.6586294S
p4022
sg183
I4
sg184
VP0DT0H0M2.7000S
p4023
sg39
(dp4024
g41
VALG RyaNoob
p4025
sg43
Nssa(dp4026
g32
VImpulse
p4027
sg39
(dp4028
g41
VALG RyaNoob
p4029
sg43
Nssg764
I3435524855
sg35
VPT4M6.6736374S
p4030
sa(dp4031
g221
I424645655
sg222
I00
sg223
I00
sg224
(dp4032
g41
VALGPredevonator
p4033
sg43
Nssg227
(lp4034
I1327094800
asg229
I00
sg230
I01
sg231
I1
sg232
I0
sg233
I1
sg234
(dp4035
Vy
F-9.6184449999999995
sVx
F-10.517426499999999
sVz
F6.5565109999999999e-07
ssg236
(dp4036
Vy
F-8.3360260000000004
sVx
F-6.3492264699999996
sVz
F4.7981739999999998e-06
ssg238
I00
sg239
(dp4037
g41
VOG ACE HCS
p4038
sg43
Nssg242
(lp4039
sg244
(lp4040
sg246
I00
sg35
VPT4M8.5907284S
p4041
sg32
VDeath
p4042
sg249
I1
sa(dp4043
g38
I313138863
sg32
VWeaponDrop
p4044
sg180
I0
sg44
(lp4045
I1095363701
asg35
VPT4M8.5927278S
p4046
sg183
I0
sg184
VP0DT0H0M0.7500S
p4047
sg39
(dp4048
g41
VOG ACE HCS
p4049
sg43
Nssa(dp4050
g38
I4096745987
sg32
VWeaponDrop
p4051
sg180
I8
sg44
(lp4052
I2758383128
asg35
VPT4M8.5927278S
p4053
sg183
I7
sg184
VP0DT0H0M5.2333S
p4054
sg39
(dp4055
g41
VOG ACE HCS
p4056
sg43
Nssa(dp4057
g38
I313138863
sg39
(dp4058
g41
VALG ContrA HCS
p4059
sg43
Nssg44
(lp4060
I1095363701
asg32
VWeaponPickup
p4061
sg35
VPT4M11.2078626S
p4062
sa(dp4063
g38
I4096745987
sg39
(dp4064
g41
VALG ContrA HCS
p4065
sg43
Nssg44
(lp4066
I2758383128
asg32
VWeaponPickup
p4067
sg35
VPT4M11.2088623S
p4068
sa(dp4069
g32
VPlayerSpawn
p4070
sg39
(dp4071
g41
VALG ContrA HCS
p4072
sg43
Nssg35
VPT4M11.2088623S
p4073
sa(dp4074
g38
I2244200496
sg39
(dp4075
g41
VOG Maniac HCS
p4076
sg43
Nssg44
(lp4077
I2758383128
asg32
VWeaponPickup
p4078
sg35
VPT4M11.5238785S
p4079
sa(dp4080
g32
VImpulse
p4081
sg39
(dp4082
g41
VOG Maniac HCS
p4083
sg43
Nssg764
I4191318012
sg35
VPT4M11.5238785S
p4084
sa(dp4085
g32
VImpulse
p4086
sg39
(dp4087
g41
VOG Maniac HCS
p4088
sg43
Nssg764
I1039658009
sg35
VPT4M11.5238785S
p4089
sa(dp4090
g38
I2244200496
sg32
VWeaponDrop
p4091
sg180
I0
sg44
(lp4092
I2758383128
asg35
VPT4M12.5729303S
p4093
sg183
I0
sg184
VP0DT0H0M0.9000S
p4094
sg39
(dp4095
g41
VOG Maniac HCS
p4096
sg43
Nssa(dp4097
g32
VImpulse
p4098
sg39
(dp4099
g41
VOG Maniac HCS
p4100
sg43
Nssg764
I3435524855
sg35
VPT4M12.5739321S
p4101
sa(dp4102
g32
VMedal
p4103
sg39
(dp4104
g41
VALGPredevonator
p4105
sg43
Nssg254
I3400287617
sg35
VPT4M12.5739321S
p4106
sa(dp4107
g221
I313138863
sg222
I00
sg223
I00
sg224
(dp4108
g41
VOG APG HCS
p4109
sg43
Nssg227
(lp4110
I1095363701
asg229
I00
sg230
I01
sg231
I1
sg232
I0
sg233
I1
sg234
(dp4111
Vy
F-8.2160340000000005
sVx
F-17.262197499999999
sVz
F1.0145361399999999
ssg236
(dp4112
Vy
F-5.1468350000000003
sVx
F-14.547095300000001
sVz
F4.0531159999999998e-06
ssg238
I00
sg239
(dp4113
g41
VALGPredevonator
p4114
sg43
Nssg242
(lp4115
sg244
(lp4116
(dp4117
g41
VOG ACE HCS
p4118
sg43
Nsasg246
I00
sg35
VPT4M13.3909733S
p4119
sg32
VDeath
p4120
sg249
I1
sa(dp4121
g32
VMedal
p4122
sg39
(dp4123
g41
VOG APG HCS
p4124
sg43
Nssg254
I164204247
sg35
VPT4M13.3919739S
p4125
sa(dp4126
g38
I313138863
sg32
VWeaponDrop
p4127
sg180
I0
sg44
(lp4128
I1095363701
asg35
VPT4M13.3929738S
p4129
sg183
I0
sg184
VP0DT0H0M7.2833S
p4130
sg39
(dp4131
g41
VALGPredevonator
p4132
sg43
Nssa(dp4133
g38
I424645655
sg32
VWeaponDrop
p4134
sg180
I24
sg44
(lp4135
I1327094800
asg35
VPT4M13.3929738S
p4136
sg183
I19
sg184
VP0DT0H0M8.8333S
p4137
sg39
(dp4138
g41
VALGPredevonator
p4139
sg43
Nssa(dp4140
g38
I313138863
sg39
(dp4141
g41
VOG Str8 SickHCS
p4142
sg43
Nssg44
(lp4143
I1095363701
asg32
VWeaponPickup
p4144
sg35
VPT4M13.4079748S
p4145
sa(dp4146
g38
I4096745987
sg39
(dp4147
g41
VOG Str8 SickHCS
p4148
sg43
Nssg44
(lp4149
I2758383128
asg32
VWeaponPickup
p4150
sg35
VPT4M13.4079748S
p4151
sa(dp4152
g32
VPlayerSpawn
p4153
sg39
(dp4154
g41
VOG Str8 SickHCS
p4155
sg43
Nssg35
VPT4M13.4079748S
p4156
sa(dp4157
g38
I313138863
sg39
(dp4158
g41
VALG Goofy HCS
p4159
sg43
Nssg44
(lp4160
I1095363701
asg32
VWeaponPickup
p4161
sg35
VPT4M14.6250374S
p4162
sa(dp4163
g38
I4096745987
sg39
(dp4164
g41
VALG Goofy HCS
p4165
sg43
Nssg44
(lp4166
I2758383128
asg32
VWeaponPickup
p4167
sg35
VPT4M14.6250374S
p4168
sa(dp4169
g32
VPlayerSpawn
p4170
sg39
(dp4171
g41
VALG Goofy HCS
p4172
sg43
Nssg35
VPT4M14.6250374S
p4173
sa(dp4174
g38
I313138863
sg39
(dp4175
g41
VALG RyaNoob
p4176
sg43
Nssg44
(lp4177
I1095363701
asg32
VWeaponPickup
p4178
sg35
VPT4M14.6750397S
p4179
sa(dp4180
g38
I4096745987
sg39
(dp4181
g41
VALG RyaNoob
p4182
sg43
Nssg44
(lp4183
I2758383128
asg32
VWeaponPickup
p4184
sg35
VPT4M14.6750397S
p4185
sa(dp4186
g32
VPlayerSpawn
p4187
sg39
(dp4188
g41
VALG RyaNoob
p4189
sg43
Nssg35
VPT4M14.6750397S
p4190
sa(dp4191
g38
I313138863
sg39
(dp4192
g41
VOG ACE HCS
p4193
sg43
Nssg44
(lp4194
I1095363701
asg32
VWeaponPickup
p4195
sg35
VPT4M16.6081392S
p4196
sa(dp4197
g38
I4096745987
sg39
(dp4198
g41
VOG ACE HCS
p4199
sg43
Nssg44
(lp4200
I2758383128
asg32
VWeaponPickup
p4201
sg35
VPT4M16.6081392S
p4202
sa(dp4203
g32
VPlayerSpawn
p4204
sg39
(dp4205
g41
VOG ACE HCS
p4206
sg43
Nssg35
VPT4M16.6081392S
p4207
sa(dp4208
g32
VMedal
p4209
sg39
(dp4210
g41
VOG APG HCS
p4211
sg43
Nssg254
I2380717523
sg35
VPT4M17.0071585S
p4212
sa(dp4213
g32
VImpulse
p4214
sg39
(dp4215
g41
VOG APG HCS
p4216
sg43
Nssg764
I1063951891
sg35
VPT4M17.0071585S
p4217
sa(dp4218
g38
I4096745987
sg32
VWeaponDrop
p4219
sg180
I0
sg44
(lp4220
I2758383128
asg35
VPT4M17.907205S
p4221
sg183
I0
sg184
VP0DT0H0M0.4000S
p4222
sg39
(dp4223
g41
VOG ACE HCS
p4224
sg43
Nssa(dp4225
g38
I2511447508
sg39
(dp4226
g41
VOG ACE HCS
p4227
sg43
Nssg44
(lp4228
I2758383128
asg32
VWeaponPickup
p4229
sg35
VPT4M17.907205S
p4230
sa(dp4231
g38
I313138863
sg39
(dp4232
g41
VALGPredevonator
p4233
sg43
Nssg44
(lp4234
I1095363701
asg32
VWeaponPickup
p4235
sg35
VPT4M21.4093845S
p4236
sa(dp4237
g38
I4096745987
sg39
(dp4238
g41
VALGPredevonator
p4239
sg43
Nssg44
(lp4240
I2758383128
asg32
VWeaponPickup
p4241
sg35
VPT4M21.4093845S
p4242
sa(dp4243
g32
VPlayerSpawn
p4244
sg39
(dp4245
g41
VALGPredevonator
p4246
sg43
Nssg35
VPT4M21.4093845S
p4247
sa(dp4248
g221
I2511447508
sg222
I00
sg223
I00
sg224
(dp4249
g41
VOG ACE HCS
p4250
sg43
Nssg227
(lp4251
I2758383128
asg229
I00
sg230
I01
sg231
I1
sg232
I0
sg233
I1
sg234
(dp4252
Vy
F-4.3850035700000003
sVx
F1.3435651099999999
sVz
F-2.670288e-05
ssg236
(dp4253
Vy
F0.56198479999999995
sVx
F-1.00279713
sVz
F0.071031750000000005
ssg238
I00
sg239
(dp4254
g41
VALG ContrA HCS
p4255
sg43
Nssg242
(lp4256
sg244
(lp4257
sg246
I01
sg35
VPT4M22.3254314S
p4258
sg32
VDeath
p4259
sg249
I1
sa(dp4260
g32
VImpulse
p4261
sg39
(dp4262
g41
VOG ACE HCS
p4263
sg43
Nssg764
I3174430457
sg35
VPT4M22.3264313S
p4264
sa(dp4265
g32
VMedal
p4266
sg39
(dp4267
g41
VOG ACE HCS
p4268
sg43
Nssg254
I2279899989
sg35
VPT4M22.3264313S
p4269
sa(dp4270
g38
I313138863
sg32
VWeaponDrop
p4271
sg180
I0
sg44
(lp4272
I1095363701
asg35
VPT4M22.3274312S
p4273
sg183
I0
sg184
VP0DT0H0M1.8667S
p4274
sg39
(dp4275
g41
VALG ContrA HCS
p4276
sg43
Nssa(dp4277
g38
I4096745987
sg32
VWeaponDrop
p4278
sg180
I2
sg44
(lp4279
I2758383128
asg35
VPT4M22.3274312S
p4280
sg183
I0
sg184
VP0DT0H0M9.2500S
p4281
sg39
(dp4282
g41
VALG ContrA HCS
p4283
sg43
Nssa(dp4284
g38
I313138863
sg32
VWeaponDrop
p4285
sg180
I0
sg44
(lp4286
I1095363701
asg35
VPT4M23.8735085S
p4287
sg183
I0
sg184
VP0DT0H0M1.5667S
p4288
sg39
(dp4289
g41
VOG ACE HCS
p4290
sg43
Nssa(dp4291
g38
I3682788176
sg39
(dp4292
g41
VOG ACE HCS
p4293
sg43
Nssg44
(lp4294
I2758383128
asg32
VWeaponPickupPad
p4295
sg35
VPT4M23.8735085S
p4296
sa(dp4297
g38
I3682788176
sg39
(dp4298
g41
VOG ACE HCS
p4299
sg43
Nssg44
(lp4300
I2758383128
asg32
VWeaponPickup
p4301
sg35
VPT4M23.8735085S
p4302
sa(dp4303
g221
I313138863
sg222
I00
sg223
I01
sg224
(dp4304
g41
VALG RyaNoob
p4305
sg43
Nssg227
(lp4306
I1095363701
asg229
I00
sg230
I00
sg231
I1
sg232
I0
sg233
I1
sg234
(dp4307
Vy
F9.6325629999999993
sVx
F16.291107199999999
sVz
F0.0100891739
ssg236
(dp4308
Vy
F9.2749930000000003
sVx
F16.143928500000001
sVz
F-0.0055835989999999999
ssg238
I00
sg239
(dp4309
g41
VOG Maniac HCS
p4310
sg43
Nssg242
(lp4311
sg244
(lp4312
(dp4313
g41
VALG Goofy HCS
p4314
sg43
Nsasg246
I00
sg35
VPT4M25.5575965S
p4315
sg32
VDeath
p4316
sg249
I1
sa(dp4317
g32
VMedal
p4318
sg39
(dp4319
g41
VALG RyaNoob
p4320
sg43
Nssg254
I2287626681
sg35
VPT4M25.5585987S
p4321
sa(dp4322
g38
I313138863
sg32
VWeaponDrop
p4323
sg180
I7
sg44
(lp4324
I1095363701
asg35
VPT4M25.5595966S
p4325
sg183
I7
sg184
VP0DT0H0M3.0333S
p4326
sg39
(dp4327
g41
VOG Maniac HCS
p4328
sg43
Nssa(dp4329
g38
I313138863
sg32
VWeaponDrop
p4330
sg180
I0
sg44
(lp4331
I1095363701
asg35
VPT4M25.5595966S
p4332
sg183
I0
sg184
VP0DT0S
p4333
sg39
(dp4334
g41
VOG Maniac HCS
p4335
sg43
Nssa(dp4336
g38
I4096745987
sg32
VWeaponDrop
p4337
sg180
I7
sg44
(lp4338
I2758383128
asg35
VPT4M25.5595966S
p4339
sg183
I2
sg184
VP0DT0H0M18.7167S
p4340
sg39
(dp4341
g41
VOG Maniac HCS
p4342
sg43
Nssa(dp4343
g221
I313138863
sg222
I00
sg223
I01
sg224
(dp4344
g41
VOG Maniac HCS
p4345
sg43
Nssg227
(lp4346
I1095363701
asg229
I00
sg230
I00
sg231
I1
sg232
I0
sg233
I1
sg234
(dp4347
Vy
F9.2749930000000003
sVx
F16.143928500000001
sVz
F0.21941641000000001
ssg236
(dp4348
Vy
F9.6325629999999993
sVx
F16.291107199999999
sVz
F0.0100891739
ssg238
I00
sg239
(dp4349
g41
VALG RyaNoob
p4350
sg43
Nssg242
(lp4351
sg244
(lp4352
sg246
I00
sg35
VPT4M25.5595966S
p4353
sg32
VDeath
p4354
sg249
I1
sa(dp4355
g32
VMedal
p4356
sg39
(dp4357
g41
VOG Maniac HCS
p4358
sg43
Nssg254
I250435527
sg35
VPT4M25.5605972S
p4359
sa(dp4360
g38
I313138863
sg32
VWeaponDrop
p4361
sg180
I7
sg44
(lp4362
I1095363701
asg35
VPT4M25.5615965S
p4363
sg183
I7
sg184
VP0DT0H0M3.6500S
p4364
sg39
(dp4365
g41
VALG RyaNoob
p4366
sg43
Nssa(dp4367
g38
I313138863
sg32
VWeaponDrop
p4368
sg180
I0
sg44
(lp4369
I1095363701
asg35
VPT4M25.5615965S
p4370
sg183
I0
sg184
VP0DT0S
p4371
sg39
(dp4372
g41
VALG RyaNoob
p4373
sg43
Nssa(dp4374
g38
I4096745987
sg32
VWeaponDrop
p4375
sg180
I0
sg44
(lp4376
I2758383128
asg35
VPT4M25.5615965S
p4377
sg183
I0
sg184
VP0DT0H0M7.2333S
p4378
sg39
(dp4379
g41
VALG RyaNoob
p4380
sg43
Nssa(dp4381
g221
I4096745987
sg222
I00
sg223
I00
sg224
(dp4382
g41
VALGPredevonator
p4383
sg43
Nssg227
(lp4384
I2758383128
asg229
I00
sg230
I01
sg231
I1
sg232
I0
sg233
I1
sg234
(dp4385
Vy
F0.78412040000000005
sVx
F-9.3194020000000002
sVz
F2.8097546100000002
ssg236
(dp4386
Vy
F3.02341938
sVx
F0.242054671
sVz
F3.8723990000000001
ssg238
I00
sg239
(dp4387
g41
VOG APG HCS
p4388
sg43
Nssg242
(lp4389
sg244
(lp4390
sg246
I01
sg35
VPT4M28.6747556S
p4391
sg32
VDeath
p4392
sg249
I1
sa(dp4393
g32
VImpulse
p4394
sg39
(dp4395
g41
VALGPredevonator
p4396
sg43
Nssg764
I3174430457
sg35
VPT4M28.6767559S
p4397
sa(dp4398
g32
VMedal
p4399
sg39
(dp4400
g41
VALGPredevonator
p4401
sg43
Nssg254
I3653057799
sg35
VPT4M28.6767559S
p4402
sa(dp4403
g38
I313138863
sg32
VWeaponDrop
p4404
sg180
I13
sg44
(lp4405
I1095363701
asg35
VPT4M28.6767559S
p4406
sg183
I4
sg184
VP0DT0H0M13.2333S
p4407
sg39
(dp4408
g41
VOG APG HCS
p4409
sg43
Nssa(dp4410
g38
I4096745987
sg32
VWeaponDrop
p4411
sg180
I9
sg44
(lp4412
I2758383128
asg35
VPT4M28.6767559S
p4413
sg183
I5
sg184
VP0DT0H0M27.1167S
p4414
sg39
(dp4415
g41
VOG APG HCS
p4416
sg43
Nssa(dp4417
g38
I313138863
sg39
(dp4418
g41
VALG ContrA HCS
p4419
sg43
Nssg44
(lp4420
I1095363701
asg32
VWeaponPickup
p4421
sg35
VPT4M30.341842S
p4422
sa(dp4423
g38
I4096745987
sg39
(dp4424
g41
VALG ContrA HCS
p4425
sg43
Nssg44
(lp4426
I2758383128
asg32
VWeaponPickup
p4427
sg35
VPT4M30.341842S
p4428
sa(dp4429
g32
VPlayerSpawn
p4430
sg39
(dp4431
g41
VALG ContrA HCS
p4432
sg43
Nssg35
VPT4M30.341842S
p4433
sa(dp4434
g221
I4096745987
sg222
I00
sg223
I01
sg224
(dp4435
g41
VALG Goofy HCS
p4436
sg43
Nssg227
(lp4437
I2758383128
asg229
I00
sg230
I00
sg231
I1
sg232
I0
sg233
I1
sg234
(dp4438
Vy
F12.6591434
sVx
F5.2861394900000001
sVz
F0.6540996
ssg236
(dp4439
Vy
F12.1535473
sVx
F5.2067059999999996
sVz
F0.99829690000000004
ssg238
I00
sg239
(dp4440
g41
VOG Str8 SickHCS
p4441
sg43
Nssg242
(lp4442
sg244
(lp4443
(dp4444
g41
VALGPredevonator
p4445
sg43
Nsasg246
I00
sg35
VPT4M32.4749504S
p4446
sg32
VDeath
p4447
sg249
I1
sa(dp4448
g32
VMedal
p4449
sg39
(dp4450
g41
VALG Goofy HCS
p4451
sg43
Nssg254
I2287626681
sg35
VPT4M32.4769509S
p4452
sa(dp4453
g38
I313138863
sg32
VWeaponDrop
p4454
sg180
I6
sg44
(lp4455
I1095363701
asg35
VPT4M32.4769509S
p4456
sg183
I6
sg184
VP0DT0H0M5.4500S
p4457
sg39
(dp4458
g41
VOG Str8 SickHCS
p4459
sg43
Nssa(dp4460
g38
I313138863
sg32
VWeaponDrop
p4461
sg180
I0
sg44
(lp4462
I1095363701
asg35
VPT4M32.4769509S
p4463
sg183
I0
sg184
VP0DT0S
p4464
sg39
(dp4465
g41
VOG Str8 SickHCS
p4466
sg43
Nssa(dp4467
g38
I4096745987
sg32
VWeaponDrop
p4468
sg180
I0
sg44
(lp4469
I2758383128
asg35
VPT4M32.4779511S
p4470
sg183
I0
sg184
VP0DT0H0M13.6167S
p4471
sg39
(dp4472
g41
VOG Str8 SickHCS
p4473
sg43
Nssa(dp4474
g221
I313138863
sg222
I00
sg223
I01
sg224
(dp4475
g41
VOG Str8 SickHCS
p4476
sg43
Nssg227
(lp4477
I1095363701
asg229
I00
sg230
I00
sg231
I1
sg232
I0
sg233
I1
sg234
(dp4478
Vy
F12.1535473
sVx
F5.2067059999999996
sVz
F1.2232968799999999
ssg236
(dp4479
Vy
F12.6591434
sVx
F5.2861394900000001
sVz
F0.6540996
ssg238
I00
sg239
(dp4480
g41
VALG Goofy HCS
p4481
sg43
Nssg242
(lp4482
sg244
(lp4483
sg246
I00
sg35
VPT4M32.4779511S
p4484
sg32
VDeath
p4485
sg249
I1
sa(dp4486
g32
VMedal
p4487
sg39
(dp4488
g41
VOG Str8 SickHCS
p4489
sg43
Nssg254
I2838259753
sg35
VPT4M32.4779511S
p4490
sa(dp4491
g32
VImpulse
p4492
sg39
(dp4493
g41
VOG Str8 SickHCS
p4494
sg43
Nssg764
I2556889090
sg35
VPT4M32.4779511S
p4495
sa(dp4496
g32
VMedal
p4497
sg39
(dp4498
g41
VOG Str8 SickHCS
p4499
sg43
Nssg254
I250435527
sg35
VPT4M32.4789512S
p4500
sa(dp4501
g38
I4096745987
sg32
VWeaponDrop
p4502
sg180
I12
sg44
(lp4503
I2758383128
asg35
VPT4M32.4789512S
p4504
sg183
I5
sg184
VP0DT0H0M16.7833S
p4505
sg39
(dp4506
g41
VALG Goofy HCS
p4507
sg43
Nssa(dp4508
g38
I4096745987
sg32
VWeaponDrop
p4509
sg180
I0
sg44
(lp4510
I2758383128
asg35
VPT4M32.4789512S
p4511
sg183
I0
sg184
VP0DT0S
p4512
sg39
(dp4513
g41
VALG Goofy HCS
p4514
sg43
Nssa(dp4515
g38
I313138863
sg32
VWeaponDrop
p4516
sg180
I0
sg44
(lp4517
I1095363701
asg35
VPT4M32.4799511S
p4518
sg183
I0
sg184
VP0DT0H0M1.0667S
p4519
sg39
(dp4520
g41
VALG Goofy HCS
p4521
sg43
Nssa(dp4522
g38
I313138863
sg39
(dp4523
g41
VOG Maniac HCS
p4524
sg43
Nssg44
(lp4525
I1095363701
asg32
VWeaponPickup
p4526
sg35
VPT4M33.5750193S
p4527
sa(dp4528
g38
I4096745987
sg39
(dp4529
g41
VOG Maniac HCS
p4530
sg43
Nssg44
(lp4531
I2758383128
asg32
VWeaponPickup
p4532
sg35
VPT4M33.5750193S
p4533
sa(dp4534
g32
VPlayerSpawn
p4535
sg39
(dp4536
g41
VOG Maniac HCS
p4537
sg43
Nssg35
VPT4M33.5750193S
p4538
sa(dp4539
g38
I313138863
sg39
(dp4540
g41
VALG RyaNoob
p4541
sg43
Nssg44
(lp4542
I1095363701
asg32
VWeaponPickup
p4543
sg35
VPT4M33.608009S
p4544
sa(dp4545
g38
I4096745987
sg39
(dp4546
g41
VALG RyaNoob
p4547
sg43
Nssg44
(lp4548
I2758383128
asg32
VWeaponPickup
p4549
sg35
VPT4M33.6090094S
p4550
sa(dp4551
g32
VPlayerSpawn
p4552
sg39
(dp4553
g41
VALG RyaNoob
p4554
sg43
Nssg35
VPT4M33.6090094S
p4555
sa(dp4556
g38
I313138863
sg39
(dp4557
g41
VOG APG HCS
p4558
sg43
Nssg44
(lp4559
I1095363701
asg32
VWeaponPickup
p4560
sg35
VPT4M36.6921673S
p4561
sa(dp4562
g38
I4096745987
sg39
(dp4563
g41
VOG APG HCS
p4564
sg43
Nssg44
(lp4565
I2758383128
asg32
VWeaponPickup
p4566
sg35
VPT4M36.6921673S
p4567
sa(dp4568
g32
VPlayerSpawn
p4569
sg39
(dp4570
g41
VOG APG HCS
p4571
sg43
Nssg35
VPT4M36.6921673S
p4572
sa(dp4573
g38
I4096745987
sg32
VWeaponDrop
p4574
sg180
I0
sg44
(lp4575
I2758383128
asg35
VPT4M38.0572349S
p4576
sg183
I0
sg184
VP0DT0H0M3.7667S
p4577
sg39
(dp4578
g41
VALG RyaNoob
p4579
sg43
Nssa(dp4580
g38
I2511447508
sg39
(dp4581
g41
VALG RyaNoob
p4582
sg43
Nssg44
(lp4583
I2758383128
asg32
VWeaponPickup
p4584
sg35
VPT4M38.0572349S
p4585
sa(dp4586
g221
I4096745987
sg222
I00
sg223
I00
sg224
(dp4587
g41
VALGPredevonator
p4588
sg43
Nssg227
(lp4589
I2758383128
asg229
I00
sg230
I01
sg231
I1
sg232
I0
sg233
I1
sg234
(dp4590
Vy
F0.92611086399999998
sVx
F6.6302313799999997
sVz
F3.2169322999999999
ssg236
(dp4591
Vy
F-0.56991060000000004
sVx
F17.68695
sVz
F2.2260065099999999
ssg238
I00
sg239
(dp4592
g41
VOG ACE HCS
p4593
sg43
Nssg242
(lp4594
sg244
(lp4595
sg246
I01
sg35
VPT4M38.0582367S
p4596
sg32
VDeath
p4597
sg249
I1
sa(dp4598
g32
VMedal
p4599
sg39
(dp4600
g41
VALGPredevonator
p4601
sg43
Nssg254
I3261908037
sg35
VPT4M38.060237S
p4602
sa(dp4603
g38
I3682788176
sg32
VWeaponDrop
p4604
sg180
I2
sg44
(lp4605
I2758383128
asg35
VPT4M38.060237S
p4606
sg183
I0
sg184
VP0DT0H0M14.1833S
p4607
sg39
(dp4608
g41
VOG ACE HCS
p4609
sg43
Nssa(dp4610
g38
I2511447508
sg32
VWeaponDrop
p4611
sg180
I3
sg44
(lp4612
I2758383128
asg35
VPT4M38.060237S
p4613
sg183
I3
sg184
VP0DT0H0M5.3000S
p4614
sg39
(dp4615
g41
VOG ACE HCS
p4616
sg43
Nssa(dp4617
g32
VMedal
p4618
sg39
(dp4619
g41
VALG ContrA HCS
p4620
sg43
Nssg254
I2380717523
sg35
VPT4M38.0902368S
p4621
sa(dp4622
g32
VImpulse
p4623
sg39
(dp4624
g41
VALG ContrA HCS
p4625
sg43
Nssg764
I1063951891
sg35
VPT4M38.0902368S
p4626
sa(dp4627
g38
I4096745987
sg32
VWeaponDrop
p4628
sg180
I4
sg44
(lp4629
I2758383128
asg35
VPT4M40.3233508S
p4630
sg183
I2
sg184
VP0DT0H0M2.6000S
p4631
sg39
(dp4632
g41
VOG APG HCS
p4633
sg43
Nssa(dp4634
g38
I2511447508
sg39
(dp4635
g41
VOG APG HCS
p4636
sg43
Nssg44
(lp4637
I2758383128
asg32
VWeaponPickup
p4638
sg35
VPT4M40.3243525S
p4639
sa(dp4640
g38
I313138863
sg39
(dp4641
g41
VOG Str8 SickHCS
p4642
sg43
Nssg44
(lp4643
I1095363701
asg32
VWeaponPickup
p4644
sg35
VPT4M40.4913617S
p4645
sa(dp4646
g38
I4096745987
sg39
(dp4647
g41
VOG Str8 SickHCS
p4648
sg43
Nssg44
(lp4649
I2758383128
asg32
VWeaponPickup
p4650
sg35
VPT4M40.4923618S
p4651
sa(dp4652
g32
VPlayerSpawn
p4653
sg39
(dp4654
g41
VOG Str8 SickHCS
p4655
sg43
Nssg35
VPT4M40.4923618S
p4656
sa(dp4657
g38
I313138863
sg39
(dp4658
g41
VALG Goofy HCS
p4659
sg43
Nssg44
(lp4660
I1095363701
asg32
VWeaponPickup
p4661
sg35
VPT4M40.5253634S
p4662
sa(dp4663
g38
I4096745987
sg39
(dp4664
g41
VALG Goofy HCS
p4665
sg43
Nssg44
(lp4666
I2758383128
asg32
VWeaponPickup
p4667
sg35
VPT4M40.5253634S
p4668
sa(dp4669
g32
VPlayerSpawn
p4670
sg39
(dp4671
g41
VALG Goofy HCS
p4672
sg43
Nssg35
VPT4M40.5253634S
p4673
sa(dp4674
g38
I313138863
sg32
VWeaponDrop
p4675
sg180
I0
sg44
(lp4676
I1095363701
asg35
VPT4M42.4734608S
p4677
sg183
I0
sg184
VP0DT0H0M0.5500S
p4678
sg39
(dp4679
g41
VALGPredevonator
p4680
sg43
Nssa(dp4681
g38
I3682788176
sg39
(dp4682
g41
VALGPredevonator
p4683
sg43
Nssg44
(lp4684
I2758383128
asg32
VWeaponPickup
p4685
sg35
VPT4M42.474482S
p4686
sa(dp4687
g38
I313138863
sg39
(dp4688
g41
VOG ACE HCS
p4689
sg43
Nssg44
(lp4690
I1095363701
asg32
VWeaponPickup
p4691
sg35
VPT4M46.0746472S
p4692
sa(dp4693
g38
I4096745987
sg39
(dp4694
g41
VOG ACE HCS
p4695
sg43
Nssg44
(lp4696
I2758383128
asg32
VWeaponPickup
p4697
sg35
VPT4M46.0756477S
p4698
sa(dp4699
g32
VPlayerSpawn
p4700
sg39
(dp4701
g41
VOG ACE HCS
p4702
sg43
Nssg35
VPT4M46.0756477S
p4703
sa(dp4704
g221
I4096745987
sg222
I00
sg223
I00
sg224
(dp4705
g41
VOG Str8 SickHCS
p4706
sg43
Nssg227
(lp4707
I2758383128
asg229
I00
sg230
I01
sg231
I1
sg232
I0
sg233
I1
sg234
(dp4708
Vy
F-0.11699427699999999
sVx
F-11.2605314
sVz
F2.63487363
ssg236
(dp4709
Vy
F2.4855387200000001
sVx
F-4.84513426
sVz
F3.5566710000000001
ssg238
I00
sg239
(dp4710
g41
VALG Goofy HCS
p4711
sg43
Nssg242
(lp4712
sg244
(lp4713
sg246
I01
sg35
VPT4M49.8078375S
p4714
sg32
VDeath
p4715
sg249
I1
sa(dp4716
g32
VImpulse
p4717
sg39
(dp4718
g41
VOG Str8 SickHCS
p4719
sg43
Nssg764
I3174430457
sg35
VPT4M49.8098382S
p4720
sa(dp4721
g32
VMedal
p4722
sg39
(dp4723
g41
VOG Str8 SickHCS
p4724
sg43
Nssg254
I3653057799
sg35
VPT4M49.8108382S
p4725
sa(dp4726
g38
I313138863
sg32
VWeaponDrop
p4727
sg180
I0
sg44
(lp4728
I1095363701
asg35
VPT4M49.8108382S
p4729
sg183
I0
sg184
VP0DT0H0M0.8167S
p4730
sg39
(dp4731
g41
VALG Goofy HCS
p4732
sg43
Nssa(dp4733
g38
I4096745987
sg32
VWeaponDrop
p4734
sg180
I1
sg44
(lp4735
I2758383128
asg35
VPT4M49.8108382S
p4736
sg183
I0
sg184
VP0DT0H0M8.4667S
p4737
sg39
(dp4738
g41
VALG Goofy HCS
p4739
sg43
Nssa(dp4740
g32
VMedal
p4741
sg39
(dp4742
g41
VOG Maniac HCS
p4743
sg43
Nssg254
I3400287617
sg35
VPT4M52.7909911S
p4744
sa(dp4745
g221
I4096745987
sg222
I00
sg223
I00
sg224
(dp4746
g41
VOG Str8 SickHCS
p4747
sg43
Nssg227
(lp4748
I2758383128
asg229
I00
sg230
I01
sg231
I1
sg232
I0
sg233
I1
sg234
(dp4749
Vy
F2.61222339
sVx
F-1.0831553899999999
sVz
F4.0202369999999998
ssg236
(dp4750
Vy
F0.128916591
sVx
F2.555612
sVz
F3.1319384600000002
ssg238
I00
sg239
(dp4751
g41
VALGPredevonator
p4752
sg43
Nssg242
(lp4753
sg244
(lp4754
(dp4755
g41
VOG APG HCS
p4756
sg43
Nsasg246
I01
sg35
VPT4M54.4250748S
p4757
sg32
VDeath
p4758
sg249
I1
sa(dp4759
g32
VMedal
p4760
sg39
(dp4761
g41
VOG Str8 SickHCS
p4762
sg43
Nssg254
I2838259753
sg35
VPT4M54.4250748S
p4763
sa(dp4764
g32
VImpulse
p4765
sg39
(dp4766
g41
VOG Str8 SickHCS
p4767
sg43
Nssg764
I2556889090
sg35
VPT4M54.4250748S
p4768
sa(dp4769
g32
VMedal
p4770
sg39
(dp4771
g41
VOG Maniac HCS
p4772
sg43
Nssg254
I824733727
sg35
VPT4M54.4250748S
p4773
sa(dp4774
g32
VMedal
p4775
sg39
(dp4776
g41
VOG Str8 SickHCS
p4777
sg43
Nssg254
I3261908037
sg35
VPT4M54.4260747S
p4778
sa(dp4779
g32
VMedal
p4780
sg39
(dp4781
g41
VOG Str8 SickHCS
p4782
sg43
Nssg254
I2078758684
sg35
VPT4M54.4270745S
p4783
sa(dp4784
g38
I3682788176
sg32
VWeaponDrop
p4785
sg180
I1
sg44
(lp4786
I2758383128
asg35
VPT4M54.4270745S
p4787
sg183
I1
sg184
VP0DT0H0M6.8333S
p4788
sg39
(dp4789
g41
VALGPredevonator
p4790
sg43
Nssa(dp4791
g38
I4096745987
sg32
VWeaponDrop
p4792
sg180
I18
sg44
(lp4793
I2758383128
asg35
VPT4M54.4270745S
p4794
sg183
I12
sg184
VP0DT0H0M25.6333S
p4795
sg39
(dp4796
g41
VALGPredevonator
p4797
sg43
Nssa(dp4798
g221
I2511447508
sg222
I00
sg223
I00
sg224
(dp4799
g41
VOG APG HCS
p4800
sg43
Nssg227
(lp4801
I2758383128
asg229
I00
sg230
I01
sg231
I1
sg232
I0
sg233
I1
sg234
(dp4802
Vy
F-15.403606399999999
sVx
F-5.5886602400000003
sVz
F0.61525419999999997
ssg236
(dp4803
Vy
F-1.32538092
sVx
F1.63207042
sVz
F3.2791354699999999
ssg238
I00
sg239
(dp4804
g41
VALG RyaNoob
p4805
sg43
Nssg242
(lp4806
sg244
(lp4807
(dp4808
g41
VOG Str8 SickHCS
p4809
sg43
Nsasg246
I01
sg35
VPT4M54.5420806S
p4810
sg32
VDeath
p4811
sg249
I1
sa(dp4812
g32
VMedal
p4813
sg39
(dp4814
g41
VOG APG HCS
p4815
sg43
Nssg254
I352859864
sg35
VPT4M54.5420806S
p4816
sa(dp4817
g32
VImpulse
p4818
sg39
(dp4819
g41
VOG APG HCS
p4820
sg43
Nssg764
I2556889090
sg35
VPT4M54.5420806S
p4821
sa(dp4822
g32
VMedal
p4823
sg39
(dp4824
g41
VOG APG HCS
p4825
sg43
Nssg254
I3261908037
sg35
VPT4M54.5430799S
p4826
sa(dp4827
g38
I313138863
sg32
VWeaponDrop
p4828
sg180
I0
sg44
(lp4829
I1095363701
asg35
VPT4M54.5430799S
p4830
sg183
I0
sg184
VP0DT0H0M0.6833S
p4831
sg39
(dp4832
g41
VALG RyaNoob
p4833
sg43
Nssa(dp4834
g38
I2511447508
sg32
VWeaponDrop
p4835
sg180
I8
sg44
(lp4836
I2758383128
asg35
VPT4M54.5430799S
p4837
sg183
I3
sg184
VP0DT0H0M16.4833S
p4838
sg39
(dp4839
g41
VALG RyaNoob
p4840
sg43
Nssa(dp4841
g221
I4096745987
sg222
I00
sg223
I00
sg224
(dp4842
g41
VALG ContrA HCS
p4843
sg43
Nssg227
(lp4844
I2758383128
asg229
I00
sg230
I01
sg231
I1
sg232
I0
sg233
I1
sg234
(dp4845
Vy
F-13.8379841
sVx
F1.9401427499999999
sVz
F0.59999049999999998
ssg236
(dp4846
Vy
F-13.546483
sVx
F-4.450253
sVz
F0.5997808
ssg238
I00
sg239
(dp4847
g41
VOG APG HCS
p4848
sg43
Nssg242
(lp4849
sg244
(lp4850
(dp4851
g41
VALGPredevonator
p4852
sg43
Nsasg246
I01
sg35
VPT4M55.7921445S
p4853
sg32
VDeath
p4854
sg249
I1
sa(dp4855
g32
VMedal
p4856
sg39
(dp4857
g41
VALG ContrA HCS
p4858
sg43
Nssg254
I3261908037
sg35
VPT4M55.7941447S
p4859
sa(dp4860
g38
I313138863
sg32
VWeaponDrop
p4861
sg180
I0
sg44
(lp4862
I1095363701
asg35
VPT4M55.7951451S
p4863
sg183
I0
sg184
VP0DT0H0M1.0333S
p4864
sg39
(dp4865
g41
VOG APG HCS
p4866
sg43
Nssa(dp4867
g38
I2511447508
sg32
VWeaponDrop
p4868
sg180
I9
sg44
(lp4869
I2758383128
asg35
VPT4M55.7951451S
p4870
sg183
I4
sg184
VP0DT0H0M15.4667S
p4871
sg39
(dp4872
g41
VOG APG HCS
p4873
sg43
Nssa(dp4874
g38
I313138863
sg39
(dp4875
g41
VALG Goofy HCS
p4876
sg43
Nssg44
(lp4877
I1095363701
asg32
VWeaponPickup
p4878
sg35
VPT4M57.825249S
p4879
sa(dp4880
g38
I4096745987
sg39
(dp4881
g41
VALG Goofy HCS
p4882
sg43
Nssg44
(lp4883
I2758383128
asg32
VWeaponPickup
p4884
sg35
VPT4M57.825249S
p4885
sa(dp4886
g32
VPlayerSpawn
p4887
sg39
(dp4888
g41
VALG Goofy HCS
p4889
sg43
Nssg35
VPT4M57.825249S
p4890
sa(dp4891
g32
VMedal
p4892
sg39
(dp4893
g41
VOG Str8 SickHCS
p4894
sg43
Nssg254
I3400287617
sg35
VPT4M58.9413056S
p4895
sa(dp4896
g38
I2244200496
sg39
(dp4897
g41
VALG ContrA HCS
p4898
sg43
Nssg44
(lp4899
I2758383128
asg32
VWeaponPickup
p4900
sg35
VPT4M59.0743127S
p4901
sa(dp4902
g32
VImpulse
p4903
sg39
(dp4904
g41
VALG ContrA HCS
p4905
sg43
Nssg764
I4191318012
sg35
VPT4M59.0743127S
p4906
sa(dp4907
g32
VImpulse
p4908
sg39
(dp4909
g41
VALG ContrA HCS
p4910
sg43
Nssg764
I1039658009
sg35
VPT4M59.0743127S
p4911
sa(dp4912
g38
I2244200496
sg32
VWeaponDrop
p4913
sg180
I0
sg44
(lp4914
I2758383128
asg35
VPT4M59.5073331S
p4915
sg183
I0
sg184
VP0DT0H0M0.2833S
p4916
sg39
(dp4917
g41
VALG ContrA HCS
p4918
sg43
Nssa(dp4919
g32
VImpulse
p4920
sg39
(dp4921
g41
VALG ContrA HCS
p4922
sg43
Nssg764
I3435524855
sg35
VPT4M59.5083352S
p4923
sa(dp4924
g38
I313138863
sg39
(dp4925
g41
VALGPredevonator
p4926
sg43
Nssg44
(lp4927
I1095363701
asg32
VWeaponPickup
p4928
sg35
VPT5M2.4424856S
p4929
sa(dp4930
g38
I4096745987
sg39
(dp4931
g41
VALGPredevonator
p4932
sg43
Nssg44
(lp4933
I2758383128
asg32
VWeaponPickup
p4934
sg35
VPT5M2.4424856S
p4935
sa(dp4936
g32
VPlayerSpawn
p4937
sg39
(dp4938
g41
VALGPredevonator
p4939
sg43
Nssg35
VPT5M2.4424856S
p4940
sa(dp4941
g38
I313138863
sg39
(dp4942
g41
VALG RyaNoob
p4943
sg43
Nssg44
(lp4944
I1095363701
asg32
VWeaponPickup
p4945
sg35
VPT5M2.5584918S
p4946
sa(dp4947
g38
I4096745987
sg39
(dp4948
g41
VALG RyaNoob
p4949
sg43
Nssg44
(lp4950
I2758383128
asg32
VWeaponPickup
p4951
sg35
VPT5M2.5594916S
p4952
sa(dp4953
g32
VPlayerSpawn
p4954
sg39
(dp4955
g41
VALG RyaNoob
p4956
sg43
Nssg35
VPT5M2.5594916S
p4957
sa(dp4958
g38
I2244200496
sg39
(dp4959
g41
VOG ACE HCS
p4960
sg43
Nssg44
(lp4961
I2758383128
asg32
VWeaponPickup
p4962
sg35
VPT5M2.6404939S
p4963
sa(dp4964
g32
VImpulse
p4965
sg39
(dp4966
g41
VOG ACE HCS
p4967
sg43
Nssg764
I4191318012
sg35
VPT5M2.6414957S
p4968
sa(dp4969
g32
VImpulse
p4970
sg39
(dp4971
g41
VOG ACE HCS
p4972
sg43
Nssg764
I1039658009
sg35
VPT5M2.6414957S
p4973
sa(dp4974
g221
I313138863
sg222
I01
sg223
I00
sg224
(dp4975
g41
VALG Goofy HCS
p4976
sg43
Nssg227
(lp4977
I1095363701
asg229
I00
sg230
I00
sg231
I1
sg232
I0
sg233
I1
sg234
(dp4978
Vy
F12.111982299999999
sVx
F9.7610770000000002
sVz
F0.60194230000000004
ssg236
(dp4979
Vy
F12.3279324
sVx
F9.4612069999999999
sVz
F0.60021970000000002
ssg238
I00
sg239
(dp4980
g41
VOG ACE HCS
p4981
sg43
Nssg242
(lp4982
sg244
(lp4983
sg246
I00
sg35
VPT5M2.7104979S
p4984
sg32
VDeath
p4985
sg249
I1
sa(dp4986
g32
VMedal
p4987
sg39
(dp4988
g41
VALG Goofy HCS
p4989
sg43
Nssg254
I2028249938
sg35
VPT5M2.7114995S
p4990
sa(dp4991
g32
VImpulse
p4992
sg39
(dp4993
g41
VALG Goofy HCS
p4994
sg43
Nssg764
I2299858338
sg35
VPT5M2.7114995S
p4995
sa(dp4996
g32
VMedal
p4997
sg39
(dp4998
g41
VALG Goofy HCS
p4999
sg43
Nssg254
I3270120991
sg35
VPT5M2.7114995S
p5000
sa(dp5001
g38
I4096745987
sg32
VWeaponDrop
p5002
sg180
I5
sg44
(lp5003
I2758383128
asg35
VPT5M2.7124988S
p5004
sg183
I0
sg184
VP0DT0H0M15.9667S
p5005
sg39
(dp5006
g41
VOG ACE HCS
p5007
sg43
Nssa(dp5008
g38
I313138863
sg32
VWeaponDrop
p5009
sg180
I0
sg44
(lp5010
I1095363701
asg35
VPT5M2.7167736S
p5011
sg183
I0
sg184
VP0DT0H0M0.6667S
p5012
sg39
(dp5013
g41
VOG ACE HCS
p5014
sg43
Nssa(dp5015
g32
VImpulse
p5016
sg39
(dp5017
g41
VOG ACE HCS
p5018
sg43
Nssg764
I3435524855
sg35
VPT5M2.7244992S
p5019
sa(dp5020
g38
I313138863
sg39
(dp5021
g41
VOG APG HCS
p5022
sg43
Nssg44
(lp5023
I1095363701
asg32
VWeaponPickup
p5024
sg35
VPT5M3.8085553S
p5025
sa(dp5026
g38
I4096745987
sg39
(dp5027
g41
VOG APG HCS
p5028
sg43
Nssg44
(lp5029
I2758383128
asg32
VWeaponPickup
p5030
sg35
VPT5M3.8095557S
p5031
sa(dp5032
g32
VPlayerSpawn
p5033
sg39
(dp5034
g41
VOG APG HCS
p5035
sg43
Nssg35
VPT5M3.8095557S
p5036
sa(dp5037
g32
VMedal
p5038
sg39
(dp5039
g41
VALG Goofy HCS
p5040
sg43
Nssg254
I2380717523
sg35
VPT5M5.9576646S
p5041
sa(dp5042
g32
VImpulse
p5043
sg39
(dp5044
g41
VALG Goofy HCS
p5045
sg43
Nssg764
I1063951891
sg35
VPT5M5.9576646S
p5046
sa(dp5047
g221
I4096745987
sg222
I00
sg223
I00
sg224
(dp5048
g41
VOG Str8 SickHCS
p5049
sg43
Nssg227
(lp5050
I2758383128
asg229
I00
sg230
I01
sg231
I1
sg232
I0
sg233
I1
sg234
(dp5051
Vy
F-13.673995
sVx
F1.15718031
sVz
F1.7895875000000001
ssg236
(dp5052
Vy
F-13.7415915
sVx
F-7.8459763499999999
sVz
F0.6002033
ssg238
I00
sg239
(dp5053
g41
VALG ContrA HCS
p5054
sg43
Nssg242
(lp5055
sg244
(lp5056
(dp5057
g41
VOG APG HCS
p5058
sg43
Nsasg246
I01
sg35
VPT5M10.1748807S
p5059
sg32
VDeath
p5060
sg249
I1
sa(dp5061
g32
VMedal
p5062
sg39
(dp5063
g41
VOG Str8 SickHCS
p5064
sg43
Nssg254
I3261908037
sg35
VPT5M10.1758809S
p5065
sa(dp5066
g38
I4096745987
sg32
VWeaponDrop
p5067
sg180
I10
sg44
(lp5068
I2758383128
asg35
VPT5M10.176881S
p5069
sg183
I5
sg184
VP0DT0H0M38.8167S
p5070
sg39
(dp5071
g41
VALG ContrA HCS
p5072
sg43
Nssa(dp5073
g38
I313138863
sg32
VWeaponDrop
p5074
sg180
I0
sg44
(lp5075
I1095363701
asg35
VPT5M10.1778815S
p5076
sg183
I0
sg184
VP0DT0H0M0.7333S
p5077
sg39
(dp5078
g41
VALG ContrA HCS
p5079
sg43
Nssa(dp5080
g38
I313138863
sg39
(dp5081
g41
VOG ACE HCS
p5082
sg43
Nssg44
(lp5083
I1095363701
asg32
VWeaponPickup
p5084
sg35
VPT5M10.7249091S
p5085
sa(dp5086
g38
I4096745987
sg39
(dp5087
g41
VOG ACE HCS
p5088
sg43
Nssg44
(lp5089
I2758383128
asg32
VWeaponPickup
p5090
sg35
VPT5M10.7259094S
p5091
sa(dp5092
g32
VPlayerSpawn
p5093
sg39
(dp5094
g41
VOG ACE HCS
p5095
sg43
Nssg35
VPT5M10.7259094S
p5096
sa(dp5097
g221
I313138863
sg222
I00
sg223
I01
sg224
(dp5098
g41
VOG Maniac HCS
p5099
sg43
Nssg227
(lp5100
I1095363701
asg229
I00
sg230
I00
sg231
I1
sg232
I0
sg233
I1
sg234
(dp5101
Vy
F-8.8270520000000001
sVx
F-17.084669999999999
sVz
F0.00157617033
ssg236
(dp5102
Vy
F-9.0320879999999999
sVx
F-16.992675800000001
sVz
F-2.52127647e-05
ssg238
I00
sg239
(dp5103
g41
VALG RyaNoob
p5104
sg43
Nssg242
(lp5105
sg244
(lp5106
sg246
I00
sg35
VPT5M12.6750092S
p5107
sg32
VDeath
p5108
sg249
I1
sa(dp5109
g32
VMedal
p5110
sg39
(dp5111
g41
VOG Maniac HCS
p5112
sg43
Nssg254
I250435527
sg35
VPT5M12.6760094S
p5113
sa(dp5114
g38
I4096745987
sg32
VWeaponDrop
p5115
sg180
I2
sg44
(lp5116
I2758383128
asg35
VPT5M12.6770094S
p5117
sg183
I0
sg184
VP0DT0H0M9.4167S
p5118
sg39
(dp5119
g41
VALG RyaNoob
p5120
sg43
Nssa(dp5121
g38
I313138863
sg32
VWeaponDrop
p5122
sg180
I0
sg44
(lp5123
I1095363701
asg35
VPT5M12.6770094S
p5124
sg183
I0
sg184
VP0DT0H0M0.7000S
p5125
sg39
(dp5126
g41
VALG RyaNoob
p5127
sg43
Nssa(dp5128
g221
I4096745987
sg222
I00
sg223
I00
sg224
(dp5129
g41
VALGPredevonator
p5130
sg43
Nssg227
(lp5131
I2758383128
asg229
I00
sg230
I01
sg231
I1
sg232
I0
sg233
I1
sg234
(dp5132
Vy
F-2.14329576
sVx
F-11.577825499999999
sVz
F4.7385692599999997e-06
ssg236
(dp5133
Vy
F-9.1505679999999998
sVx
F-17.220838499999999
sVz
F-0.00036481022799999998
ssg238
I00
sg239
(dp5134
g41
VOG Maniac HCS
p5135
sg43
Nssg242
(lp5136
sg244
(lp5137
(dp5138
g41
VALG RyaNoob
p5139
sg43
Nsasg246
I01
sg35
VPT5M13.2250373S
p5140
sg32
VDeath
p5141
sg249
I1
sa(dp5142
g32
VMedal
p5143
sg39
(dp5144
g41
VALGPredevonator
p5145
sg43
Nssg254
I3261908037
sg35
VPT5M13.2260373S
p5146
sa(dp5147
g38
I313138863
sg32
VWeaponDrop
p5148
sg180
I12
sg44
(lp5149
I1095363701
asg35
VPT5M13.2270371S
p5150
sg183
I11
sg184
VP0DT0H0M5.9000S
p5151
sg39
(dp5152
g41
VOG Maniac HCS
p5153
sg43
Nssa(dp5154
g38
I313138863
sg32
VWeaponDrop
p5155
sg180
I0
sg44
(lp5156
I1095363701
asg35
VPT5M13.2270371S
p5157
sg183
I0
sg184
VP0DT0S
p5158
sg39
(dp5159
g41
VOG Maniac HCS
p5160
sg43
Nssa(dp5161
g38
I4096745987
sg32
VWeaponDrop
p5162
sg180
I3
sg44
(lp5163
I2758383128
asg35
VPT5M13.2270371S
p5164
sg183
I3
sg184
VP0DT0H0M33.7500S
p5165
sg39
(dp5166
g41
VOG Maniac HCS
p5167
sg43
Nssa(dp5168
g221
I313138863
sg222
I00
sg223
I01
sg224
(dp5169
g41
VOG APG HCS
p5170
sg43
Nssg227
(lp5171
I1095363701
asg229
I00
sg230
I00
sg231
I1
sg232
I0
sg233
I1
sg234
(dp5172
Vy
F0.57684709999999995
sVx
F16.573078200000001
sVz
F1.2763819999999999
ssg236
(dp5173
Vy
F0.84868650000000001
sVx
F16.694526700000001
sVz
F1.4012747999999999
ssg238
I00
sg239
(dp5174
g41
VALG Goofy HCS
p5175
sg43
Nssg242
(lp5176
sg244
(lp5177
sg246
I00
sg35
VPT5M13.8580688S
p5178
sg32
VDeath
p5179
sg249
I1
sa(dp5180
g32
VMedal
p5181
sg39
(dp5182
g41
VOG APG HCS
p5183
sg43
Nssg254
I250435527
sg35
VPT5M13.8590698S
p5184
sa(dp5185
g38
I4096745987
sg32
VWeaponDrop
p5186
sg180
I5
sg44
(lp5187
I2758383128
asg35
VPT5M13.8600695S
p5188
sg183
I3
sg184
VP0DT0H0M12.6333S
p5189
sg39
(dp5190
g41
VALG Goofy HCS
p5191
sg43
Nssa(dp5192
g38
I4096745987
sg32
VWeaponDrop
p5193
sg180
I0
sg44
(lp5194
I2758383128
asg35
VPT5M13.8600695S
p5195
sg183
I0
sg184
VP0DT0S
p5196
sg39
(dp5197
g41
VALG Goofy HCS
p5198
sg43
Nssa(dp5199
g38
I313138863
sg32
VWeaponDrop
p5200
sg180
I7
sg44
(lp5201
I1095363701
asg35
VPT5M13.8600695S
p5202
sg183
I6
sg184
VP0DT0H0M3.4000S
p5203
sg39
(dp5204
g41
VALG Goofy HCS
p5205
sg43
Nssa(dp5206
g38
I313138863
sg32
VWeaponDrop
p5207
sg180
I0
sg44
(lp5208
I1095363701
asg35
VPT5M13.8600695S
p5209
sg183
I0
sg184
VP0DT0S
p5210
sg39
(dp5211
g41
VALG Goofy HCS
p5212
sg43
Nssa(dp5213
g221
I4096745987
sg222
I00
sg223
I01
sg224
(dp5214
g41
VALG Goofy HCS
p5215
sg43
Nssg227
(lp5216
I2758383128
asg229
I00
sg230
I00
sg231
I1
sg232
I0
sg233
I1
sg234
(dp5217
Vy
F0.84868650000000001
sVx
F16.694526700000001
sVz
F1.4012747999999999
ssg236
(dp5218
Vy
F0.57684709999999995
sVx
F16.573078200000001
sVz
F1.2763819999999999
ssg238
I00
sg239
(dp5219
g41
VOG APG HCS
p5220
sg43
Nssg242
(lp5221
sg244
(lp5222
sg246
I00
sg35
VPT5M13.8610694S
p5223
sg32
VDeath
p5224
sg249
I1
sa(dp5225
g32
VMedal
p5226
sg39
(dp5227
g41
VALG Goofy HCS
p5228
sg43
Nssg254
I250435527
sg35
VPT5M13.8610694S
p5229
sa(dp5230
g38
I313138863
sg32
VWeaponDrop
p5231
sg180
I11
sg44
(lp5232
I1095363701
asg35
VPT5M13.8620697S
p5233
sg183
I10
sg184
VP0DT0H0M3.9333S
p5234
sg39
(dp5235
g41
VOG APG HCS
p5236
sg43
Nssa(dp5237
g38
I313138863
sg32
VWeaponDrop
p5238
sg180
I0
sg44
(lp5239
I1095363701
asg35
VPT5M13.8620697S
p5240
sg183
I0
sg184
VP0DT0S
p5241
sg39
(dp5242
g41
VOG APG HCS
p5243
sg43
Nssa(dp5244
g38
I4096745987
sg32
VWeaponDrop
p5245
sg180
I6
sg44
(lp5246
I2758383128
asg35
VPT5M13.8630706S
p5247
sg183
I1
sg184
VP0DT0H0M6.1167S
p5248
sg39
(dp5249
g41
VOG APG HCS
p5250
sg43
Nssa(dp5251
g38
I313138863
sg39
(dp5252
g41
VALG ContrA HCS
p5253
sg43
Nssg44
(lp5254
I1095363701
asg32
VWeaponPickup
p5255
sg35
VPT5M18.1922918S
p5256
sa(dp5257
g38
I4096745987
sg39
(dp5258
g41
VALG ContrA HCS
p5259
sg43
Nssg44
(lp5260
I2758383128
asg32
VWeaponPickup
p5261
sg35
VPT5M18.1922918S
p5262
sa(dp5263
g32
VPlayerSpawn
p5264
sg39
(dp5265
g41
VALG ContrA HCS
p5266
sg43
Nssg35
VPT5M18.1922918S
p5267
sa(dp5268
g221
I313138863
sg222
I00
sg223
I00
sg224
(dp5269
g41
VOG Str8 SickHCS
p5270
sg43
Nssg227
(lp5271
I1095363701
asg229
I00
sg230
I01
sg231
I1
sg232
I0
sg233
I1
sg234
(dp5272
Vy
F-8.6556259999999998
sVx
F-14.864558199999999
sVz
F0.0025038719999999999
ssg236
(dp5273
Vy
F-4.6670879999999997
sVx
F-13.97174
sVz
F4.5895576500000004e-06
ssg238
I00
sg239
(dp5274
g41
VALGPredevonator
p5275
sg43
Nssg242
(lp5276
sg244
(lp5277
(dp5278
g41
VOG ACE HCS
p5279
sg43
Nsasg246
I00
sg35
VPT5M20.425406S
p5280
sg32
VDeath
p5281
sg249
I1
sa(dp5282
g32
VMedal
p5283
sg39
(dp5284
g41
VOG Str8 SickHCS
p5285
sg43
Nssg254
I2430242797
sg35
VPT5M20.4264059S
p5286
sa(dp5287
g38
I313138863
sg32
VWeaponDrop
p5288
sg180
I0
sg44
(lp5289
I1095363701
asg35
VPT5M20.4274061S
p5290
sg183
I0
sg184
VP0DT0H0M0.3333S
p5291
sg39
(dp5292
g41
VALGPredevonator
p5293
sg43
Nssa(dp5294
g38
I4096745987
sg32
VWeaponDrop
p5295
sg180
I8
sg44
(lp5296
I2758383128
asg35
VPT5M20.4274061S
p5297
sg183
I6
sg184
VP0DT0H0M17.6500S
p5298
sg39
(dp5299
g41
VALGPredevonator
p5300
sg43
Nssa(dp5301
g38
I4096745987
sg32
VWeaponDrop
p5302
sg180
I0
sg44
(lp5303
I2758383128
asg35
VPT5M20.4574056S
p5304
sg183
I0
sg184
VP0DT0H0M1.8833S
p5305
sg39
(dp5306
g41
VALG ContrA HCS
p5307
sg43
Nssa(dp5308
g38
I424645655
sg39
(dp5309
g41
VALG ContrA HCS
p5310
sg43
Nssg44
(lp5311
I1327094800
asg32
VWeaponPickup
p5312
sg35
VPT5M20.4574056S
p5313
sa(dp5314
g38
I313138863
sg39
(dp5315
g41
VALG RyaNoob
p5316
sg43
Nssg44
(lp5317
I1095363701
asg32
VWeaponPickup
p5318
sg35
VPT5M20.6924199S
p5319
sa(dp5320
g38
I4096745987
sg39
(dp5321
g41
VALG RyaNoob
p5322
sg43
Nssg44
(lp5323
I2758383128
asg32
VWeaponPickup
p5324
sg35
VPT5M20.6924199S
p5325
sa(dp5326
g32
VPlayerSpawn
p5327
sg39
(dp5328
g41
VALG RyaNoob
p5329
sg43
Nssg35
VPT5M20.6924199S
p5330
sa(dp5331
g38
I313138863
sg39
(dp5332
g41
VOG Maniac HCS
p5333
sg43
Nssg44
(lp5334
I1095363701
asg32
VWeaponPickup
p5335
sg35
VPT5M21.242448S
p5336
sa(dp5337
g38
I4096745987
sg39
(dp5338
g41
VOG Maniac HCS
p5339
sg43
Nssg44
(lp5340
I2758383128
asg32
VWeaponPickup
p5341
sg35
VPT5M21.242448S
p5342
sa(dp5343
g32
VPlayerSpawn
p5344
sg39
(dp5345
g41
VOG Maniac HCS
p5346
sg43
Nssg35
VPT5M21.242448S
p5347
sa(dp5348
g38
I313138863
sg39
(dp5349
g41
VALG Goofy HCS
p5350
sg43
Nssg44
(lp5351
I1095363701
asg32
VWeaponPickup
p5352
sg35
VPT5M21.87548S
p5353
sa(dp5354
g38
I4096745987
sg39
(dp5355
g41
VALG Goofy HCS
p5356
sg43
Nssg44
(lp5357
I2758383128
asg32
VWeaponPickup
p5358
sg35
VPT5M21.8764804S
p5359
sa(dp5360
g32
VPlayerSpawn
p5361
sg39
(dp5362
g41
VALG Goofy HCS
p5363
sg43
Nssg35
VPT5M21.8764804S
p5364
sa(dp5365
g38
I313138863
sg39
(dp5366
g41
VOG APG HCS
p5367
sg43
Nssg44
(lp5368
I1095363701
asg32
VWeaponPickup
p5369
sg35
VPT5M21.9084821S
p5370
sa(dp5371
g38
I4096745987
sg39
(dp5372
g41
VOG APG HCS
p5373
sg43
Nssg44
(lp5374
I2758383128
asg32
VWeaponPickup
p5375
sg35
VPT5M21.9094824S
p5376
sa(dp5377
g32
VPlayerSpawn
p5378
sg39
(dp5379
g41
VOG APG HCS
p5380
sg43
Nssg35
VPT5M21.9094824S
p5381
sa(dp5382
g38
I4096745987
sg32
VWeaponDrop
p5383
sg180
I0
sg44
(lp5384
I2758383128
asg35
VPT5M22.5405124S
p5385
sg183
I0
sg184
VP0DT0H0M0.4000S
p5386
sg39
(dp5387
g41
VOG Maniac HCS
p5388
sg43
Nssa(dp5389
g38
I2511447508
sg39
(dp5390
g41
VOG Maniac HCS
p5391
sg43
Nssg44
(lp5392
I2758383128
asg32
VWeaponPickup
p5393
sg35
VPT5M22.5415144S
p5394
sa(dp5395
g38
I313138863
sg39
(dp5396
g41
VALGPredevonator
p5397
sg43
Nssg44
(lp5398
I1095363701
asg32
VWeaponPickup
p5399
sg35
VPT5M28.4428167S
p5400
sa(dp5401
g38
I4096745987
sg39
(dp5402
g41
VALGPredevonator
p5403
sg43
Nssg44
(lp5404
I2758383128
asg32
VWeaponPickup
p5405
sg35
VPT5M28.4428167S
p5406
sa(dp5407
g32
VPlayerSpawn
p5408
sg39
(dp5409
g41
VALGPredevonator
p5410
sg43
Nssg35
VPT5M28.4428167S
p5411
sa(dp5412
g221
I313138863
sg222
I00
sg223
I00
sg224
(dp5413
g41
VOG ACE HCS
p5414
sg43
Nssg227
(lp5415
I1095363701
asg229
I00
sg230
I01
sg231
I1
sg232
I0
sg233
I1
sg234
(dp5416
Vy
F-0.31842530000000002
sVx
F10.446843100000001
sVz
F2.8092355699999998
ssg236
(dp5417
Vy
F0.73212575899999999
sVx
F14.1476784
sVz
F1.9407591799999999
ssg238
I00
sg239
(dp5418
g41
VALG RyaNoob
p5419
sg43
Nssg242
(lp5420
sg244
(lp5421
sg246
I00
sg35
VPT5M29.4928703S
p5422
sg32
VDeath
p5423
sg249
I1
sa(dp5424
g32
VMedal
p5425
sg39
(dp5426
g41
VOG ACE HCS
p5427
sg43
Nssg254
I2782465081
sg35
VPT5M29.4928703S
p5428
sa(dp5429
g38
I313138863
sg32
VWeaponDrop
p5430
sg180
I0
sg44
(lp5431
I1095363701
asg35
VPT5M29.4938699S
p5432
sg183
I0
sg184
VP0DT0H0M0.7500S
p5433
sg39
(dp5434
g41
VALG RyaNoob
p5435
sg43
Nssa(dp5436
g38
I4096745987
sg32
VWeaponDrop
p5437
sg180
I12
sg44
(lp5438
I2758383128
asg35
VPT5M29.4938699S
p5439
sg183
I6
sg184
VP0DT0H0M8.0500S
p5440
sg39
(dp5441
g41
VALG RyaNoob
p5442
sg43
Nssa(dp5443
g38
I2492868984
sg39
(dp5444
g41
VOG Str8 SickHCS
p5445
sg43
Nssg44
(lp5446
I2758383128
asg32
VWeaponPickup
p5447
sg35
VPT5M31.5749766S
p5448
sa(dp5449
g38
I2492868984
sg32
VWeaponDrop
p5450
sg180
I0
sg44
(lp5451
I2758383128
asg35
VPT5M32.7420367S
p5452
sg183
I0
sg184
VP0DT0H0M1.0000S
p5453
sg39
(dp5454
g41
VOG Str8 SickHCS
p5455
sg43
Nssa(dp5456
g32
VMedal
p5457
sg39
(dp5458
g41
VOG ACE HCS
p5459
sg43
Nssg254
I3400287617
sg35
VPT5M33.3250659S
p5460
sa(dp5461
g221
I4106030681
sg222
I00
sg223
I00
sg224
(dp5462
g41
VALG Goofy HCS
p5463
sg43
Nssg227
(lp5464
sg229
I00
sg230
I01
sg231
I1
sg232
I0
sg233
I1
sg234
(dp5465
Vy
F0.85308839999999997
sVx
F17.688590999999999
sVz
F1.3997802699999999
ssg236
(dp5466
Vy
F-0.43032658099999999
sVx
F13.135272000000001
sVz
F1.67258883
ssg238
I00
sg239
(dp5467
g41
VOG ACE HCS
p5468
sg43
Nssg242
(lp5469
sg244
(lp5470
(dp5471
g41
VALG RyaNoob
p5472
sg43
Nsasg246
I00
sg35
VPT5M34.9581495S
p5473
sg32
VDeath
p5474
sg249
I1
sa(dp5475
g38
I4096745987
sg32
VWeaponDrop
p5476
sg180
I10
sg44
(lp5477
I2758383128
asg35
VPT5M34.96015S
p5478
sg183
I5
sg184
VP0DT0H0M18.3667S
p5479
sg39
(dp5480
g41
VOG ACE HCS
p5481
sg43
Nssa(dp5482
g38
I4096745987
sg32
VWeaponDrop
p5483
sg180
I0
sg44
(lp5484
I2758383128
asg35
VPT5M34.96015S
p5485
sg183
I0
sg184
VP0DT0S
p5486
sg39
(dp5487
g41
VOG ACE HCS
p5488
sg43
Nssa(dp5489
g38
I313138863
sg32
VWeaponDrop
p5490
sg180
I36
sg44
(lp5491
I1095363701
asg35
VPT5M34.96015S
p5492
sg183
I15
sg184
VP0DT0H0M5.8667S
p5493
sg39
(dp5494
g41
VOG ACE HCS
p5495
sg43
Nssa(dp5496
g38
I313138863
sg39
(dp5497
g41
VALG RyaNoob
p5498
sg43
Nssg44
(lp5499
I1095363701
asg32
VWeaponPickup
p5500
sg35
VPT5M37.509281S
p5501
sa(dp5502
g38
I4096745987
sg39
(dp5503
g41
VALG RyaNoob
p5504
sg43
Nssg44
(lp5505
I2758383128
asg32
VWeaponPickup
p5506
sg35
VPT5M37.509281S
p5507
sa(dp5508
g32
VPlayerSpawn
p5509
sg39
(dp5510
g41
VALG RyaNoob
p5511
sg43
Nssg35
VPT5M37.509281S
p5512
sa(dp5513
g221
I4096745987
sg222
I00
sg223
I00
sg224
(dp5514
g41
VOG APG HCS
p5515
sg43
Nssg227
(lp5516
I2758383128
asg229
I00
sg230
I01
sg231
I1
sg232
I0
sg233
I1
sg234
(dp5517
Vy
F4.5157766300000004
sVx
F8.9107520000000005
sVz
F-0.000121831894
ssg236
(dp5518
Vy
F5.2128399999999999
sVx
F-0.99260073900000001
sVz
F-1.02818012e-05
ssg238
I00
sg239
(dp5519
g41
VALG ContrA HCS
p5520
sg43
Nssg242
(lp5521
sg244
(lp5522
(dp5523
g41
VOG Maniac HCS
p5524
sg43
Nsasg246
I01
sg35
VPT5M37.5922851S
p5525
sg32
VDeath
p5526
sg249
I1
sa(dp5527
g32
VMedal
p5528
sg39
(dp5529
g41
VOG APG HCS
p5530
sg43
Nssg254
I3261908037
sg35
VPT5M37.5932848S
p5531
sa(dp5532
g38
I313138863
sg32
VWeaponDrop
p5533
sg180
I0
sg44
(lp5534
I1095363701
asg35
VPT5M37.5942968S
p5535
sg183
I0
sg184
VP0DT0H0M0.3833S
p5536
sg39
(dp5537
g41
VALG ContrA HCS
p5538
sg43
Nssa(dp5539
g38
I424645655
sg32
VWeaponDrop
p5540
sg180
I6
sg44
(lp5541
I1327094800
asg35
VPT5M37.5942968S
p5542
sg183
I0
sg184
VP0DT0H0M17.1333S
p5543
sg39
(dp5544
g41
VALG ContrA HCS
p5545
sg43
Nssa(dp5546
g221
I4096745987
sg222
I00
sg223
I00
sg224
(dp5547
g41
VOG Str8 SickHCS
p5548
sg43
Nssg227
(lp5549
I2758383128
asg229
I00
sg230
I01
sg231
I1
sg232
I0
sg233
I1
sg234
(dp5550
Vy
F2.9810073400000001
sVx
F-0.5158317
sVz
F3.2792880000000002
ssg236
(dp5551
Vy
F10.6111383
sVx
F-7.0029529999999998
sVz
F-5.313754e-05
ssg238
I00
sg239
(dp5552
g41
VALGPredevonator
p5553
sg43
Nssg242
(lp5554
sg244
(lp5555
(dp5556
g41
VOG Maniac HCS
p5557
sg43
Nsasg246
I01
sg35
VPT5M39.0753601S
p5558
sg32
VDeath
p5559
sg249
I1
sa(dp5560
g32
VMedal
p5561
sg39
(dp5562
g41
VOG Str8 SickHCS
p5563
sg43
Nssg254
I3261908037
sg35
VPT5M39.0763613S
p5564
sa(dp5565
g38
I313138863
sg32
VWeaponDrop
p5566
sg180
I0
sg44
(lp5567
I1095363701
asg35
VPT5M39.0773611S
p5568
sg183
I0
sg184
VP0DT0H0M0.6167S
p5569
sg39
(dp5570
g41
VALGPredevonator
p5571
sg43
Nssa(dp5572
g38
I4096745987
sg32
VWeaponDrop
p5573
sg180
I4
sg44
(lp5574
I2758383128
asg35
VPT5M39.0773611S
p5575
sg183
I1
sg184
VP0DT0H0M10.0167S
p5576
sg39
(dp5577
g41
VALGPredevonator
p5578
sg43
Nssa(dp5579
g38
I4096745987
sg32
VWeaponDrop
p5580
sg180
I0
sg44
(lp5581
I2758383128
asg35
VPT5M41.707494S
p5582
sg183
I0
sg184
VP0DT0H0M3.1833S
p5583
sg39
(dp5584
g41
VALG RyaNoob
p5585
sg43
Nssa(dp5586
g38
I2511447508
sg39
(dp5587
g41
VALG RyaNoob
p5588
sg43
Nssg44
(lp5589
I2758383128
asg32
VWeaponPickup
p5590
sg35
VPT5M41.707494S
p5591
sa(dp5592
g38
I313138863
sg39
(dp5593
g41
VOG ACE HCS
p5594
sg43
Nssg44
(lp5595
I1095363701
asg32
VWeaponPickup
p5596
sg35
VPT5M42.9755609S
p5597
sa(dp5598
g38
I4096745987
sg39
(dp5599
g41
VOG ACE HCS
p5600
sg43
Nssg44
(lp5601
I2758383128
asg32
VWeaponPickup
p5602
sg35
VPT5M42.9755609S
p5603
sa(dp5604
g32
VPlayerSpawn
p5605
sg39
(dp5606
g41
VOG ACE HCS
p5607
sg43
Nssg35
VPT5M42.9765607S
p5608
sa(dp5609
g221
I4096745987
sg222
I00
sg223
I00
sg224
(dp5610
g41
VOG APG HCS
p5611
sg43
Nssg227
(lp5612
I2758383128
asg229
I00
sg230
I01
sg231
I1
sg232
I0
sg233
I1
sg234
(dp5613
Vy
F12.0472631
sVx
F8.2934730000000005
sVz
F0.60020419999999997
ssg236
(dp5614
Vy
F12.0561218
sVx
F10.6582165
sVz
F1.49848735
ssg238
I00
sg239
(dp5615
g41
VALG RyaNoob
p5616
sg43
Nssg242
(lp5617
sg244
(lp5618
sg246
I00
sg35
VPT5M43.9586103S
p5619
sg32
VDeath
p5620
sg249
I1
sa(dp5621
g38
I313138863
sg32
VWeaponDrop
p5622
sg180
I0
sg44
(lp5623
I1095363701
asg35
VPT5M43.9606109S
p5624
sg183
I0
sg184
VP0DT0H0M1.0167S
p5625
sg39
(dp5626
g41
VALG RyaNoob
p5627
sg43
Nssa(dp5628
g38
I2511447508
sg32
VWeaponDrop
p5629
sg180
I2
sg44
(lp5630
I2758383128
asg35
VPT5M43.9606109S
p5631
sg183
I0
sg184
VP0DT0H0M2.2500S
p5632
sg39
(dp5633
g41
VALG RyaNoob
p5634
sg43
Nssa(dp5635
g38
I4096745987
sg32
VWeaponDrop
p5636
sg180
I0
sg44
(lp5637
I2758383128
asg35
VPT5M45.007663S
p5638
sg183
I0
sg184
VP0DT0H0M1.0833S
p5639
sg39
(dp5640
g41
VOG ACE HCS
p5641
sg43
Nssa(dp5642
g38
I424645655
sg39
(dp5643
g41
VOG ACE HCS
p5644
sg43
Nssg44
(lp5645
I1327094800
asg32
VWeaponPickup
p5646
sg35
VPT5M45.007663S
p5647
sa(dp5648
g38
I2244200496
sg39
(dp5649
g41
VOG APG HCS
p5650
sg43
Nssg44
(lp5651
I2758383128
asg32
VWeaponPickup
p5652
sg35
VPT5M45.1576703S
p5653
sa(dp5654
g32
VImpulse
p5655
sg39
(dp5656
g41
VOG APG HCS
p5657
sg43
Nssg764
I4191318012
sg35
VPT5M45.158672S
p5658
sa(dp5659
g32
VImpulse
p5660
sg39
(dp5661
g41
VOG APG HCS
p5662
sg43
Nssg764
I1039658009
sg35
VPT5M45.158672S
p5663
sa(dp5664
g38
I313138863
sg39
(dp5665
g41
VALG ContrA HCS
p5666
sg43
Nssg44
(lp5667
I1095363701
asg32
VWeaponPickup
p5668
sg35
VPT5M45.6096953S
p5669
sa(dp5670
g38
I4096745987
sg39
(dp5671
g41
VALG ContrA HCS
p5672
sg43
Nssg44
(lp5673
I2758383128
asg32
VWeaponPickup
p5674
sg35
VPT5M45.6096953S
p5675
sa(dp5676
g32
VPlayerSpawn
p5677
sg39
(dp5678
g41
VALG ContrA HCS
p5679
sg43
Nssg35
VPT5M45.6096953S
p5680
sa(dp5681
g221
I4106030681
sg222
I00
sg223
I00
sg224
(dp5682
g41
VOG Str8 SickHCS
p5683
sg43
Nssg227
(lp5684
sg229
I00
sg230
I01
sg231
I1
sg232
I0
sg233
I1
sg234
(dp5685
Vy
F0.88219845299999999
sVx
F-0.55186979999999997
sVz
F0.077955750000000004
ssg236
(dp5686
Vy
F6.5146490000000004
sVx
F-1.07684231
sVz
F0.83782684799999996
ssg238
I00
sg239
(dp5687
g41
VALG Goofy HCS
p5688
sg43
Nssg242
(lp5689
sg244
(lp5690
(dp5691
g41
VOG Maniac HCS
p5692
sg43
Nsasg246
I00
sg35
VPT5M46.1757379S
p5693
sg32
VDeath
p5694
sg249
I1
sa(dp5695
g38
I313138863
sg32
VWeaponDrop
p5696
sg180
I14
sg44
(lp5697
I1095363701
asg35
VPT5M46.1767243S
p5698
sg183
I4
sg184
VP0DT0H0M9.4167S
p5699
sg39
(dp5700
g41
VALG Goofy HCS
p5701
sg43
Nssa(dp5702
g38
I4096745987
sg32
VWeaponDrop
p5703
sg180
I3
sg44
(lp5704
I2758383128
asg35
VPT5M46.1767243S
p5705
sg183
I0
sg184
VP0DT0H0M14.8833S
p5706
sg39
(dp5707
g41
VALG Goofy HCS
p5708
sg43
Nssa(dp5709
g38
I313138863
sg39
(dp5710
g41
VALGPredevonator
p5711
sg43
Nssg44
(lp5712
I1095363701
asg32
VWeaponPickup
p5713
sg35
VPT5M47.0927712S
p5714
sa(dp5715
g38
I4096745987
sg39
(dp5716
g41
VALGPredevonator
p5717
sg43
Nssg44
(lp5718
I2758383128
asg32
VWeaponPickup
p5719
sg35
VPT5M47.0927712S
p5720
sa(dp5721
g32
VPlayerSpawn
p5722
sg39
(dp5723
g41
VALGPredevonator
p5724
sg43
Nssg35
VPT5M47.0927712S
p5725
sa(dp5726
g38
I2244200496
sg32
VWeaponDrop
p5727
sg180
I0
sg44
(lp5728
I2758383128
asg35
VPT5M47.1907744S
p5729
sg183
I0
sg184
VP0DT0H0M1.8833S
p5730
sg39
(dp5731
g41
VOG APG HCS
p5732
sg43
Nssa(dp5733
g32
VImpulse
p5734
sg39
(dp5735
g41
VOG APG HCS
p5736
sg43
Nssg764
I3435524855
sg35
VPT5M47.1917766S
p5737
sa(dp5738
g221
I4106030681
sg222
I00
sg223
I00
sg224
(dp5739
g41
VOG Maniac HCS
p5740
sg43
Nssg227
(lp5741
sg229
I00
sg230
I01
sg231
I1
sg232
I0
sg233
I1
sg234
(dp5742
Vy
F0.038853105200000002
sVx
F-9.6318819999999992
sVz
F3.4269692900000002
ssg236
(dp5743
Vy
F0.59430515799999994
sVx
F-15.405660599999999
sVz
F1.3997802699999999
ssg238
I00
sg239
(dp5744
g41
VALGPredevonator
p5745
sg43
Nssg242
(lp5746
sg244
(lp5747
sg246
I00
sg35
VPT5M51.8590158S
p5748
sg32
VDeath
p5749
sg249
I1
sa(dp5750
g38
I313138863
sg32
VWeaponDrop
p5751
sg180
I0
sg44
(lp5752
I1095363701
asg35
VPT5M51.8610158S
p5753
sg183
I0
sg184
VP0DT0H0M0.4667S
p5754
sg39
(dp5755
g41
VALGPredevonator
p5756
sg43
Nssa(dp5757
g38
I4096745987
sg32
VWeaponDrop
p5758
sg180
I0
sg44
(lp5759
I2758383128
asg35
VPT5M51.8610158S
p5760
sg183
I0
sg184
VP0DT0H0M4.3000S
p5761
sg39
(dp5762
g41
VALGPredevonator
p5763
sg43
Nssa(dp5764
g221
I313138863
sg222
I00
sg223
I00
sg224
(dp5765
g41
VOG APG HCS
p5766
sg43
Nssg227
(lp5767
I1095363701
asg229
I00
sg230
I01
sg231
I1
sg232
I0
sg233
I1
sg234
(dp5768
Vy
F12.4162693
sVx
F5.8140153899999998
sVz
F0.99800515199999995
ssg236
(dp5769
Vy
F14.038664799999999
sVx
F-1.35481107
sVz
F0.6001031
ssg238
I00
sg239
(dp5770
g41
VALG ContrA HCS
p5771
sg43
Nssg242
(lp5772
sg244
(lp5773
(dp5774
g41
VOG Str8 SickHCS
p5775
sg43
Nsasg246
I00
sg35
VPT5M51.9090176S
p5776
sg32
VDeath
p5777
sg249
I1
sa(dp5778
g38
I313138863
sg32
VWeaponDrop
p5779
sg180
I0
sg44
(lp5780
I1095363701
asg35
VPT5M51.9130181S
p5781
sg183
I0
sg184
VP0DT0H0M0.4000S
p5782
sg39
(dp5783
g41
VALG ContrA HCS
p5784
sg43
Nssa(dp5785
g38
I4096745987
sg32
VWeaponDrop
p5786
sg180
I7
sg44
(lp5787
I2758383128
asg35
VPT5M51.9130181S
p5788
sg183
I3
sg184
VP0DT0H0M5.9000S
p5789
sg39
(dp5790
g41
VALG ContrA HCS
p5791
sg43
Nssa(dp5792
g38
I313138863
sg39
(dp5793
g41
VALG RyaNoob
p5794
sg43
Nssg44
(lp5795
I1095363701
asg32
VWeaponPickup
p5796
sg35
VPT5M51.9790215S
p5797
sa(dp5798
g38
I4096745987
sg39
(dp5799
g41
VALG RyaNoob
p5800
sg43
Nssg44
(lp5801
I2758383128
asg32
VWeaponPickup
p5802
sg35
VPT5M51.9800221S
p5803
sa(dp5804
g32
VPlayerSpawn
p5805
sg39
(dp5806
g41
VALG RyaNoob
p5807
sg43
Nssg35
VPT5M51.9800221S
p5808
sa(dp5809
g38
I313138863
sg39
(dp5810
g41
VALG Goofy HCS
p5811
sg43
Nssg44
(lp5812
I1095363701
asg32
VWeaponPickup
p5813
sg35
VPT5M54.1921345S
p5814
sa(dp5815
g38
I4096745987
sg39
(dp5816
g41
VALG Goofy HCS
p5817
sg43
Nssg44
(lp5818
I2758383128
asg32
VWeaponPickup
p5819
sg35
VPT5M54.1931352S
p5820
sa(dp5821
g32
VPlayerSpawn
p5822
sg39
(dp5823
g41
VALG Goofy HCS
p5824
sg43
Nssg35
VPT5M54.1931352S
p5825
sa(dp5826
g221
I4096745987
sg222
I00
sg223
I00
sg224
(dp5827
g41
VALG RyaNoob
p5828
sg43
Nssg227
(lp5829
I2758383128
asg229
I00
sg230
I01
sg231
I1
sg232
I0
sg233
I1
sg234
(dp5830
Vy
F13.131585100000001
sVx
F4.0504829999999998
sVz
F0.60036
ssg236
(dp5831
Vy
F12.884509100000001
sVx
F9.8592340000000007
sVz
F0.60022854800000003
ssg238
I00
sg239
(dp5832
g41
VOG APG HCS
p5833
sg43
Nssg242
(lp5834
sg244
(lp5835
(dp5836
g41
VALG ContrA HCS
p5837
sg43
Nsasg246
I01
sg35
VPT5M54.5091505S
p5838
sg32
VDeath
p5839
sg249
I1
sa(dp5840
g32
VMedal
p5841
sg39
(dp5842
g41
VALG RyaNoob
p5843
sg43
Nssg254
I3261908037
sg35
VPT5M54.511151S
p5844
sa(dp5845
g38
I313138863
sg32
VWeaponDrop
p5846
sg180
I16
sg44
(lp5847
I1095363701
asg35
VPT5M54.511151S
p5848
sg183
I8
sg184
VP0DT0H0M8.7000S
p5849
sg39
(dp5850
g41
VOG APG HCS
p5851
sg43
Nssa(dp5852
g38
I4096745987
sg32
VWeaponDrop
p5853
sg180
I12
sg44
(lp5854
I2758383128
asg35
VPT5M54.511151S
p5855
sg183
I6
sg184
VP0DT0H0M22.0167S
p5856
sg39
(dp5857
g41
VOG APG HCS
p5858
sg43
Nssa(dp5859
g38
I4096745987
sg32
VWeaponDrop
p5860
sg180
I0
sg44
(lp5861
I2758383128
asg35
VPT5M54.511151S
p5862
sg183
I0
sg184
VP0DT0S
p5863
sg39
(dp5864
g41
VOG APG HCS
p5865
sg43
Nssa(dp5866
g38
I2244200496
sg39
(dp5867
g41
VOG Str8 SickHCS
p5868
sg43
Nssg44
(lp5869
I2758383128
asg32
VWeaponPickup
p5870
sg35
VPT5M56.541253S
p5871
sa(dp5872
g32
VImpulse
p5873
sg39
(dp5874
g41
VOG Str8 SickHCS
p5875
sg43
Nssg764
I4191318012
sg35
VPT5M56.5422548S
p5876
sa(dp5877
g38
I2244200496
sg32
VWeaponDrop
p5878
sg180
I0
sg44
(lp5879
I2758383128
asg35
VPT5M58.2083404S
p5880
sg183
I0
sg184
VP0DT0H0M1.5000S
p5881
sg39
(dp5882
g41
VOG Str8 SickHCS
p5883
sg43
Nssa(dp5884
g32
VImpulse
p5885
sg39
(dp5886
g41
VOG Str8 SickHCS
p5887
sg43
Nssg764
I3435524855
sg35
VPT5M58.2083404S
p5888
sa(dp5889
g221
I4096745987
sg222
I00
sg223
I00
sg224
(dp5890
g41
VALG Goofy HCS
p5891
sg43
Nssg227
(lp5892
I2758383128
asg229
I00
sg230
I01
sg231
I1
sg232
I0
sg233
I1
sg234
(dp5893
Vy
F4.0203670000000002
sVx
F-0.86259525999999997
sVz
F5.6326390000000001e-06
ssg236
(dp5894
Vy
F6.2579164499999997
sVx
F8.1120509999999992
sVz
F0.91199374200000005
ssg238
I00
sg239
(dp5895
g41
VOG Str8 SickHCS
p5896
sg43
Nssg242
(lp5897
sg244
(lp5898
(dp5899
g41
VALG RyaNoob
p5900
sg43
Nsasg246
I01
sg35
VPT5M58.5923603S
p5901
sg32
VDeath
p5902
sg249
I1
sa(dp5903
g32
VMedal
p5904
sg39
(dp5905
g41
VALG Goofy HCS
p5906
sg43
Nssg254
I164204247
sg35
VPT5M58.5933603S
p5907
sa(dp5908
g32
VMedal
p5909
sg39
(dp5910
g41
VALG Goofy HCS
p5911
sg43
Nssg254
I3261908037
sg35
VPT5M58.5943601S
p5912
sa(dp5913
g38
I313138863
sg32
VWeaponDrop
p5914
sg180
I33
sg44
(lp5915
I1095363701
asg35
VPT5M58.5943601S
p5916
sg183
I11
sg184
VP0DT0H0M22.3500S
p5917
sg39
(dp5918
g41
VOG Str8 SickHCS
p5919
sg43
Nssa(dp5920
g38
I4096745987
sg32
VWeaponDrop
p5921
sg180
I32
sg44
(lp5922
I2758383128
asg35
VPT5M58.5943601S
p5923
sg183
I21
sg184
VP0DT0H0M53.2333S
p5924
sg39
(dp5925
g41
VOG Str8 SickHCS
p5926
sg43
Nssa(dp5927
g38
I313138863
sg39
(dp5928
g41
VALGPredevonator
p5929
sg43
Nssg44
(lp5930
I1095363701
asg32
VWeaponPickup
p5931
sg35
VPT5M59.8754257S
p5932
sa(dp5933
g38
I4096745987
sg39
(dp5934
g41
VALGPredevonator
p5935
sg43
Nssg44
(lp5936
I2758383128
asg32
VWeaponPickup
p5937
sg35
VPT5M59.8764261S
p5938
sa(dp5939
g32
VPlayerSpawn
p5940
sg39
(dp5941
g41
VALGPredevonator
p5942
sg43
Nssg35
VPT5M59.8764261S
p5943
sa(dp5944
g38
I313138863
sg39
(dp5945
g41
VALG ContrA HCS
p5946
sg43
Nssg44
(lp5947
I1095363701
asg32
VWeaponPickup
p5948
sg35
VPT5M59.9254284S
p5949
sa(dp5950
g38
I4096745987
sg39
(dp5951
g41
VALG ContrA HCS
p5952
sg43
Nssg44
(lp5953
I2758383128
asg32
VWeaponPickup
p5954
sg35
VPT5M59.9264286S
p5955
sa(dp5956
g32
VPlayerSpawn
p5957
sg39
(dp5958
g41
VALG ContrA HCS
p5959
sg43
Nssg35
VPT5M59.9264286S
p5960
sa(dp5961
g38
I313138863
sg32
VWeaponDrop
p5962
sg180
I0
sg44
(lp5963
I1095363701
asg35
VPT6M1.5415092S
p5964
sg183
I0
sg184
VP0DT0H0M1.1333S
p5965
sg39
(dp5966
g41
VOG ACE HCS
p5967
sg43
Nssa(dp5968
g38
I2133511419
sg39
(dp5969
g41
VOG ACE HCS
p5970
sg43
Nssg44
(lp5971
I2758383128
asg32
VWeaponPickup
p5972
sg35
VPT6M1.5415092S
p5973
sa(dp5974
g38
I313138863
sg39
(dp5975
g41
VOG APG HCS
p5976
sg43
Nssg44
(lp5977
I1095363701
asg32
VWeaponPickup
p5978
sg35
VPT6M2.528562S
p5979
sa(dp5980
g38
I4096745987
sg39
(dp5981
g41
VOG APG HCS
p5982
sg43
Nssg44
(lp5983
I2758383128
asg32
VWeaponPickup
p5984
sg35
VPT6M2.528562S
p5985
sa(dp5986
g32
VPlayerSpawn
p5987
sg39
(dp5988
g41
VOG APG HCS
p5989
sg43
Nssg35
VPT6M2.528562S
p5990
sa(dp5991
g38
I4096745987
sg32
VWeaponDrop
p5992
sg180
I0
sg44
(lp5993
I2758383128
asg35
VPT6M4.0746388S
p5994
sg183
I0
sg184
VP0DT0H0M0.8000S
p5995
sg39
(dp5996
g41
VOG APG HCS
p5997
sg43
Nssa(dp5998
g38
I2511447508
sg39
(dp5999
g41
VOG APG HCS
p6000
sg43
Nssg44
(lp6001
I2758383128
asg32
VWeaponPickup
p6002
sg35
VPT6M4.0746388S
p6003
sa(dp6004
g38
I4096745987
sg32
VWeaponDrop
p6005
sg180
I0
sg44
(lp6006
I2758383128
asg35
VPT6M4.2916513S
p6007
sg183
I0
sg184
VP0DT0H0M3.7167S
p6008
sg39
(dp6009
g41
VALGPredevonator
p6010
sg43
Nssa(dp6011
g38
I2511447508
sg39
(dp6012
g41
VALGPredevonator
p6013
sg43
Nssg44
(lp6014
I2758383128
asg32
VWeaponPickup
p6015
sg35
VPT6M4.2916513S
p6016
sa(dp6017
g32
VMedal
p6018
sg39
(dp6019
g41
VALG Goofy HCS
p6020
sg43
Nssg254
I2380717523
sg35
VPT6M5.1416952S
p6021
sa(dp6022
g32
VMedal
p6023
sg39
(dp6024
g41
VALG RyaNoob
p6025
sg43
Nssg254
I2380717523
sg35
VPT6M5.1416952S
p6026
sa(dp6027
g32
VImpulse
p6028
sg39
(dp6029
g41
VALG Goofy HCS
p6030
sg43
Nssg764
I1063951891
sg35
VPT6M5.1416952S
p6031
sa(dp6032
g32
VImpulse
p6033
sg39
(dp6034
g41
VALG RyaNoob
p6035
sg43
Nssg764
I1063951891
sg35
VPT6M5.1416952S
p6036
sa(dp6037
g38
I313138863
sg39
(dp6038
g41
VOG Str8 SickHCS
p6039
sg43
Nssg44
(lp6040
I1095363701
asg32
VWeaponPickup
p6041
sg35
VPT6M6.6097709S
p6042
sa(dp6043
g38
I4096745987
sg39
(dp6044
g41
VOG Str8 SickHCS
p6045
sg43
Nssg44
(lp6046
I2758383128
asg32
VWeaponPickup
p6047
sg35
VPT6M6.6097709S
p6048
sa(dp6049
g32
VPlayerSpawn
p6050
sg39
(dp6051
g41
VOG Str8 SickHCS
p6052
sg43
Nssg35
VPT6M6.6097709S
p6053
sa(dp6054
g221
I2511447508
sg222
I00
sg223
I00
sg224
(dp6055
g41
VOG Maniac HCS
p6056
sg43
Nssg227
(lp6057
I2758383128
asg229
I00
sg230
I01
sg231
I1
sg232
I0
sg233
I1
sg234
(dp6058
Vy
F-6.82395744
sVx
F3.9827055900000001
sVz
F-0.00043752789999999998
ssg236
(dp6059
Vy
F2.13766956
sVx
F6.720669
sVz
F0.49371337900000001
ssg238
I00
sg239
(dp6060
g41
VALG RyaNoob
p6061
sg43
Nssg242
(lp6062
sg244
(lp6063
(dp6064
g41
VOG ACE HCS
p6065
sg43
Nsasg246
I00
sg35
VPT6M6.8257819S
p6066
sg32
VDeath
p6067
sg249
I1
sa(dp6068
g38
I313138863
sg32
VWeaponDrop
p6069
sg180
I2
sg44
(lp6070
I1095363701
asg35
VPT6M6.8277815S
p6071
sg183
I0
sg184
VP0DT0H0M1.8667S
p6072
sg39
(dp6073
g41
VALG RyaNoob
p6074
sg43
Nssa(dp6075
g38
I4096745987
sg32
VWeaponDrop
p6076
sg180
I11
sg44
(lp6077
I2758383128
asg35
VPT6M6.8277815S
p6078
sg183
I3
sg184
VP0DT0H0M12.9833S
p6079
sg39
(dp6080
g41
VALG RyaNoob
p6081
sg43
Nssa(dp6082
g38
I313138863
sg32
VWeaponDrop
p6083
sg180
I0
sg44
(lp6084
I1095363701
asg35
VPT6M9.6409243S
p6085
sg183
I0
sg184
VP0DT0H0M2.0333S
p6086
sg39
(dp6087
g41
VALG Goofy HCS
p6088
sg43
Nssa(dp6089
g38
I3682788176
sg39
(dp6090
g41
VALG Goofy HCS
p6091
sg43
Nssg44
(lp6092
I2758383128
asg32
VWeaponPickup
p6093
sg35
VPT6M9.6419258S
p6094
sa(dp6095
g38
I4096745987
sg32
VWeaponDrop
p6096
sg180
I4
sg44
(lp6097
I2758383128
asg35
VPT6M10.874988S
p6098
sg183
I1
sg184
VP0DT0H0M10.5167S
p6099
sg39
(dp6100
g41
VALG ContrA HCS
p6101
sg43
Nssa(dp6102
g38
I424645655
sg39
(dp6103
g41
VALG ContrA HCS
p6104
sg43
Nssg44
(lp6105
I1327094800
asg32
VWeaponPickup
p6106
sg35
VPT6M10.874988S
p6107
sa(dp6108
g38
I313138863
sg39
(dp6109
g41
VALG RyaNoob
p6110
sg43
Nssg44
(lp6111
I1095363701
asg32
VWeaponPickup
p6112
sg35
VPT6M14.8431923S
p6113
sa(dp6114
g38
I4096745987
sg39
(dp6115
g41
VALG RyaNoob
p6116
sg43
Nssg44
(lp6117
I2758383128
asg32
VWeaponPickup
p6118
sg35
VPT6M14.8431923S
p6119
sa(dp6120
g32
VPlayerSpawn
p6121
sg39
(dp6122
g41
VALG RyaNoob
p6123
sg43
Nssg35
VPT6M14.8431923S
p6124
sa(dp6125
g221
I2133511419
sg222
I00
sg223
I00
sg224
(dp6126
g41
VOG ACE HCS
p6127
sg43
Nssg227
(lp6128
I2758383128
asg229
I00
sg230
I01
sg231
I1
sg232
I0
sg233
I1
sg234
(dp6129
Vy
F7.3281619999999998
sVx
F0.96746359999999998
sVz
F4.7385692599999997e-06
ssg236
(dp6130
Vy
F9.2300160000000009
sVx
F2.28927565
sVz
F0.71354985199999998
ssg238
I00
sg239
(dp6131
g41
VALG Goofy HCS
p6132
sg43
Nssg242
(lp6133
sg244
(lp6134
sg246
I00
sg35
VPT6M15.6092715S
p6135
sg32
VDeath
p6136
sg249
I1
sa(dp6137
g38
I3682788176
sg32
VWeaponDrop
p6138
sg180
I1
sg44
(lp6139
I2758383128
asg35
VPT6M15.6102313S
p6140
sg183
I0
sg184
VP0DT0H0M4.2833S
p6141
sg39
(dp6142
g41
VALG Goofy HCS
p6143
sg43
Nssa(dp6144
g38
I4096745987
sg32
VWeaponDrop
p6145
sg180
I3
sg44
(lp6146
I2758383128
asg35
VPT6M15.6102313S
p6147
sg183
I2
sg184
VP0DT0H0M15.1000S
p6148
sg39
(dp6149
g41
VALG Goofy HCS
p6150
sg43
Nssa(dp6151
g38
I313138863
sg32
VWeaponDrop
p6152
sg180
I0
sg44
(lp6153
I1095363701
asg35
VPT6M18.8083999S
p6154
sg183
I0
sg184
VP0DT0H0M3.0500S
p6155
sg39
(dp6156
g41
VOG APG HCS
p6157
sg43
Nssa(dp6158
g38
I3682788176
sg39
(dp6159
g41
VOG APG HCS
p6160
sg43
Nssg44
(lp6161
I2758383128
asg32
VWeaponPickupPad
p6162
sg35
VPT6M18.8083999S
p6163
sa(dp6164
g38
I3682788176
sg39
(dp6165
g41
VOG APG HCS
p6166
sg43
Nssg44
(lp6167
I2758383128
asg32
VWeaponPickup
p6168
sg35
VPT6M18.8083999S
p6169
sa(dp6170
g38
I2133511419
sg32
VWeaponDrop
p6171
sg180
I43
sg44
(lp6172
I2758383128
asg35
VPT6M18.8743972S
p6173
sg183
I13
sg184
VP0DT0H0M9.0333S
p6174
sg39
(dp6175
g41
VOG ACE HCS
p6176
sg43
Nssa(dp6177
g38
I3682788176
sg39
(dp6178
g41
VOG ACE HCS
p6179
sg43
Nssg44
(lp6180
I2758383128
asg32
VWeaponPickup
p6181
sg35
VPT6M18.8753981S
p6182
sa(dp6183
g38
I313138863
sg39
(dp6184
g41
VALG Goofy HCS
p6185
sg43
Nssg44
(lp6186
I1095363701
asg32
VWeaponPickup
p6187
sg35
VPT6M23.6266425S
p6188
sa(dp6189
g38
I4096745987
sg39
(dp6190
g41
VALG Goofy HCS
p6191
sg43
Nssg44
(lp6192
I2758383128
asg32
VWeaponPickup
p6193
sg35
VPT6M23.6266425S
p6194
sa(dp6195
g32
VPlayerSpawn
p6196
sg39
(dp6197
g41
VALG Goofy HCS
p6198
sg43
Nssg35
VPT6M23.6266425S
p6199
sa(dp6200
g221
I3682788176
sg222
I00
sg223
I00
sg224
(dp6201
g41
VOG ACE HCS
p6202
sg43
Nssg227
(lp6203
I2758383128
asg229
I00
sg230
I01
sg231
I1
sg232
I0
sg233
I1
sg234
(dp6204
Vy
F8.7109489999999994
sVx
F0.90275126699999997
sVz
F1.0351311000000001
ssg236
(dp6205
Vy
F12.4791746
sVx
F-0.48004955100000002
sVz
F0.889926255
ssg238
I00
sg239
(dp6206
g41
VALG RyaNoob
p6207
sg43
Nssg242
(lp6208
sg244
(lp6209
sg246
I00
sg35
VPT6M23.8926551S
p6210
sg32
VDeath
p6211
sg249
I1
sa(dp6212
g32
VMedal
p6213
sg39
(dp6214
g41
VOG ACE HCS
p6215
sg43
Nssg254
I2838259753
sg35
VPT6M23.8926551S
p6216
sa(dp6217
g32
VImpulse
p6218
sg39
(dp6219
g41
VOG ACE HCS
p6220
sg43
Nssg764
I2556889090
sg35
VPT6M23.8926551S
p6221
sa(dp6222
g32
VMedal
p6223
sg39
(dp6224
g41
VOG APG HCS
p6225
sg43
Nssg254
I824733727
sg35
VPT6M23.8937489S
p6226
sa(dp6227
g38
I313138863
sg32
VWeaponDrop
p6228
sg180
I0
sg44
(lp6229
I1095363701
asg35
VPT6M23.8946552S
p6230
sg183
I0
sg184
VP0DT0H0M0.7500S
p6231
sg39
(dp6232
g41
VALG RyaNoob
p6233
sg43
Nssa(dp6234
g38
I4096745987
sg32
VWeaponDrop
p6235
sg180
I4
sg44
(lp6236
I2758383128
asg35
VPT6M23.8946552S
p6237
sg183
I2
sg184
VP0DT0H0M8.3000S
p6238
sg39
(dp6239
g41
VALG RyaNoob
p6240
sg43
Nssa(dp6241
g38
I3682788176
sg32
VWeaponDrop
p6242
sg180
I1
sg44
(lp6243
I2758383128
asg35
VPT6M24.9747093S
p6244
sg183
I1
sg184
VP0DT0H0M6.1000S
p6245
sg39
(dp6246
g41
VOG ACE HCS
p6247
sg43
Nssa(dp6248
g38
I3682788176
sg32
VWeaponDrop
p6249
sg180
I0
sg44
(lp6250
I2758383128
asg35
VPT6M24.9747093S
p6251
sg183
I0
sg184
VP0DT0S
p6252
sg39
(dp6253
g41
VOG ACE HCS
p6254
sg43
Nssa(dp6255
g38
I2133511419
sg39
(dp6256
g41
VOG ACE HCS
p6257
sg43
Nssg44
(lp6258
I2758383128
asg32
VWeaponPickup
p6259
sg35
VPT6M24.9747093S
p6260
sa(dp6261
g38
I2133511419
sg32
VWeaponDrop
p6262
sg180
I0
sg44
(lp6263
I2758383128
asg35
VPT6M26.1577695S
p6264
sg183
I0
sg184
VP0DT0H0M1.1833S
p6265
sg39
(dp6266
g41
VOG ACE HCS
p6267
sg43
Nssa(dp6268
g38
I4096745987
sg39
(dp6269
g41
VOG ACE HCS
p6270
sg43
Nssg44
(lp6271
I2758383128
asg32
VWeaponPickup
p6272
sg35
VPT6M26.1587721S
p6273
sa(dp6274
g221
I313138863
sg222
I00
sg223
I00
sg224
(dp6275
g41
VOG Maniac HCS
p6276
sg43
Nssg227
(lp6277
I1095363701
asg229
I00
sg230
I01
sg231
I1
sg232
I0
sg233
I1
sg234
(dp6278
Vy
F5.2047379999999999
sVx
F8.9648819999999994
sVz
F-2.5659800000000001e-05
ssg236
(dp6279
Vy
F3.9762265700000001
sVx
F4.6671314199999996
sVz
F-0.000202447176
ssg238
I00
sg239
(dp6280
g41
VALGPredevonator
p6281
sg43
Nssg242
(lp6282
sg244
(lp6283
sg246
I00
sg35
VPT6M27.2098249S
p6284
sg32
VDeath
p6285
sg249
I1
sa(dp6286
g38
I313138863
sg32
VWeaponDrop
p6287
sg180
I0
sg44
(lp6288
I1095363701
asg35
VPT6M27.2118254S
p6289
sg183
I0
sg184
VP0DT0H0M0.7000S
p6290
sg39
(dp6291
g41
VALGPredevonator
p6292
sg43
Nssa(dp6293
g38
I2511447508
sg32
VWeaponDrop
p6294
sg180
I4
sg44
(lp6295
I2758383128
asg35
VPT6M27.2118254S
p6296
sg183
I1
sg184
VP0DT0H0M22.9167S
p6297
sg39
(dp6298
g41
VALGPredevonator
p6299
sg43
Nssa(dp6300
g38
I4096745987
sg32
VWeaponDrop
p6301
sg180
I2
sg44
(lp6302
I2758383128
asg35
VPT6M28.5748937S
p6303
sg183
I0
sg184
VP0DT0H0M2.4167S
p6304
sg39
(dp6305
g41
VOG ACE HCS
p6306
sg43
Nssa(dp6307
g38
I3682788176
sg39
(dp6308
g41
VOG ACE HCS
p6309
sg43
Nssg44
(lp6310
I2758383128
asg32
VWeaponPickup
p6311
sg35
VPT6M28.5748937S
p6312
sa(dp6313
g221
I424645655
sg222
I00
sg223
I00
sg224
(dp6314
g41
VALG ContrA HCS
p6315
sg43
Nssg227
(lp6316
I1327094800
asg229
I00
sg230
I01
sg231
I1
sg232
I0
sg233
I1
sg234
(dp6317
Vy
F11.7011728
sVx
F10.6157608
sVz
F0.60021170000000001
ssg236
(dp6318
Vy
F9.3293540000000004
sVx
F-0.231242746
sVz
F1.1299006899999999
ssg238
I00
sg239
(dp6319
g41
VOG Str8 SickHCS
p6320
sg43
Nssg242
(lp6321
sg244
(lp6322
(dp6323
g41
VALG Goofy HCS
p6324
sg43
Nsasg246
I01
sg35
VPT6M28.8759105S
p6325
sg32
VDeath
p6326
sg249
I1
sa(dp6327
g32
VMedal
p6328
sg39
(dp6329
g41
VALG ContrA HCS
p6330
sg43
Nssg254
I3261908037
sg35
VPT6M28.8779104S
p6331
sa(dp6332
g38
I313138863
sg32
VWeaponDrop
p6333
sg180
I0
sg44
(lp6334
I1095363701
asg35
VPT6M28.8779104S
p6335
sg183
I0
sg184
VP0DT0H0M7.3000S
p6336
sg39
(dp6337
g41
VOG Str8 SickHCS
p6338
sg43
Nssa(dp6339
g38
I4096745987
sg32
VWeaponDrop
p6340
sg180
I3
sg44
(lp6341
I2758383128
asg35
VPT6M28.8779104S
p6342
sg183
I3
sg184
VP0DT0H0M14.9667S
p6343
sg39
(dp6344
g41
VOG Str8 SickHCS
p6345
sg43
Nssa(dp6346
g221
I3682788176
sg222
I00
sg223
I00
sg224
(dp6347
g41
VOG ACE HCS
p6348
sg43
Nssg227
(lp6349
I2758383128
asg229
I00
sg230
I01
sg231
I1
sg232
I0
sg233
I1
sg234
(dp6350
Vy
F11.6027079
sVx
F3.8474029999999999
sVz
F1.0774682799999999
ssg236
(dp6351
Vy
F11.39786
sVx
F15.2887754
sVz
F-0.00032970310000000002
ssg238
I00
sg239
(dp6352
g41
VALG ContrA HCS
p6353
sg43
Nssg242
(lp6354
sg244
(lp6355
sg246
I01
sg35
VPT6M31.8760637S
p6356
sg32
VDeath
p6357
sg249
I1
sa(dp6358
g38
I313138863
sg32
VWeaponDrop
p6359
sg180
I0
sg44
(lp6360
I1095363701
asg35
VPT6M31.8770644S
p6361
sg183
I0
sg184
VP0DT0H0M0.4333S
p6362
sg39
(dp6363
g41
VALG ContrA HCS
p6364
sg43
Nssa(dp6365
g38
I424645655
sg32
VWeaponDrop
p6366
sg180
I34
sg44
(lp6367
I1327094800
asg35
VPT6M31.8770644S
p6368
sg183
I20
sg184
VP0DT0H0M21.0000S
p6369
sg39
(dp6370
g41
VALG ContrA HCS
p6371
sg43
Nssa(dp6372
g38
I313138863
sg39
(dp6373
g41
VALG RyaNoob
p6374
sg43
Nssg44
(lp6375
I1095363701
asg32
VWeaponPickup
p6376
sg35
VPT6M31.9100662S
p6377
sa(dp6378
g38
I4096745987
sg39
(dp6379
g41
VALG RyaNoob
p6380
sg43
Nssg44
(lp6381
I2758383128
asg32
VWeaponPickup
p6382
sg35
VPT6M31.9100662S
p6383
sa(dp6384
g32
VPlayerSpawn
p6385
sg39
(dp6386
g41
VALG RyaNoob
p6387
sg43
Nssg35
VPT6M31.9100662S
p6388
sa(dp6389
g221
I2511447508
sg222
I00
sg223
I00
sg224
(dp6390
g41
VOG APG HCS
p6391
sg43
Nssg227
(lp6392
I2758383128
asg229
I00
sg230
I01
sg231
I1
sg232
I0
sg233
I1
sg234
(dp6393
Vy
F-6.6761840000000001
sVx
F-12.613418599999999
sVz
F0.000880807638
ssg236
(dp6394
Vy
F3.6411714599999998
sVx
F-10.574194
sVz
F3.9339065599999998e-06
ssg238
I00
sg239
(dp6395
g41
VALG Goofy HCS
p6396
sg43
Nssg242
(lp6397
sg244
(lp6398
sg246
I01
sg35
VPT6M32.5931013S
p6399
sg32
VDeath
p6400
sg249
I1
sa(dp6401
g32
VMedal
p6402
sg39
(dp6403
g41
VOG APG HCS
p6404
sg43
Nssg254
I2838259753
sg35
VPT6M32.5931013S
p6405
sa(dp6406
g32
VImpulse
p6407
sg39
(dp6408
g41
VOG APG HCS
p6409
sg43
Nssg764
I2556889090
sg35
VPT6M32.5931013S
p6410
sa(dp6411
g32
VMedal
p6412
sg39
(dp6413
g41
VOG ACE HCS
p6414
sg43
Nssg254
I824733727
sg35
VPT6M32.5931013S
p6415
sa(dp6416
g32
VImpulse
p6417
sg39
(dp6418
g41
VOG APG HCS
p6419
sg43
Nssg764
I3174430457
sg35
VPT6M32.5951012S
p6420
sa(dp6421
g32
VMedal
p6422
sg39
(dp6423
g41
VOG APG HCS
p6424
sg43
Nssg254
I2279899989
sg35
VPT6M32.5981008S
p6425
sa(dp6426
g38
I313138863
sg32
VWeaponDrop
p6427
sg180
I0
sg44
(lp6428
I1095363701
asg35
VPT6M32.5981008S
p6429
sg183
I0
sg184
VP0DT0H0M0.7500S
p6430
sg39
(dp6431
g41
VALG Goofy HCS
p6432
sg43
Nssa(dp6433
g38
I4096745987
sg32
VWeaponDrop
p6434
sg180
I12
sg44
(lp6435
I2758383128
asg35
VPT6M32.5981008S
p6436
sg183
I8
sg184
VP0DT0H0M8.2167S
p6437
sg39
(dp6438
g41
VALG Goofy HCS
p6439
sg43
Nssa(dp6440
g38
I2244200496
sg39
(dp6441
g41
VOG Maniac HCS
p6442
sg43
Nssg44
(lp6443
I2758383128
asg32
VWeaponPickup
p6444
sg35
VPT6M34.0081717S
p6445
sa(dp6446
g32
VImpulse
p6447
sg39
(dp6448
g41
VOG Maniac HCS
p6449
sg43
Nssg764
I4191318012
sg35
VPT6M34.0091737S
p6450
sa(dp6451
g32
VImpulse
p6452
sg39
(dp6453
g41
VOG Maniac HCS
p6454
sg43
Nssg764
I1039658009
sg35
VPT6M34.0091737S
p6455
sa(dp6456
g38
I2244200496
sg32
VWeaponDrop
p6457
sg180
I0
sg44
(lp6458
I2758383128
asg35
VPT6M35.2082328S
p6459
sg183
I0
sg184
VP0DT0H0M1.0333S
p6460
sg39
(dp6461
g41
VOG Maniac HCS
p6462
sg43
Nssa(dp6463
g32
VImpulse
p6464
sg39
(dp6465
g41
VOG Maniac HCS
p6466
sg43
Nssg764
I3435524855
sg35
VPT6M35.2092349S
p6467
sa(dp6468
g38
I313138863
sg39
(dp6469
g41
VALGPredevonator
p6470
sg43
Nssg44
(lp6471
I1095363701
asg32
VWeaponPickup
p6472
sg35
VPT6M35.2262366S
p6473
sa(dp6474
g38
I4096745987
sg39
(dp6475
g41
VALGPredevonator
p6476
sg43
Nssg44
(lp6477
I2758383128
asg32
VWeaponPickup
p6478
sg35
VPT6M35.2262366S
p6479
sa(dp6480
g32
VPlayerSpawn
p6481
sg39
(dp6482
g41
VALGPredevonator
p6483
sg43
Nssg35
VPT6M35.2262366S
p6484
sa(dp6485
g38
I313138863
sg39
(dp6486
g41
VOG Str8 SickHCS
p6487
sg43
Nssg44
(lp6488
I1095363701
asg32
VWeaponPickup
p6489
sg35
VPT6M36.8933215S
p6490
sa(dp6491
g38
I4096745987
sg39
(dp6492
g41
VOG Str8 SickHCS
p6493
sg43
Nssg44
(lp6494
I2758383128
asg32
VWeaponPickup
p6495
sg35
VPT6M36.8933215S
p6496
sa(dp6497
g32
VPlayerSpawn
p6498
sg39
(dp6499
g41
VOG Str8 SickHCS
p6500
sg43
Nssg35
VPT6M36.8933215S
p6501
sa(dp6502
g38
I2244200496
sg39
(dp6503
g41
VOG Maniac HCS
p6504
sg43
Nssg44
(lp6505
I2758383128
asg32
VWeaponPickup
p6506
sg35
VPT6M37.175335S
p6507
sa(dp6508
g32
VImpulse
p6509
sg39
(dp6510
g41
VOG Maniac HCS
p6511
sg43
Nssg764
I4191318012
sg35
VPT6M37.1763357S
p6512
sa(dp6513
g221
I4106030681
sg222
I00
sg223
I00
sg224
(dp6514
g41
VALG RyaNoob
p6515
sg43
Nssg227
(lp6516
sg229
I00
sg230
I01
sg231
I1
sg232
I0
sg233
I1
sg234
(dp6517
Vy
F17.126047100000001
sVx
F-2.3066744799999999
sVz
F0.59998476499999998
ssg236
(dp6518
Vy
F15.001479099999999
sVx
F0.849437
sVz
F0.59988569999999997
ssg238
I00
sg239
(dp6519
g41
VOG ACE HCS
p6520
sg43
Nssg242
(lp6521
sg244
(lp6522
sg246
I00
sg35
VPT6M37.6923618S
p6523
sg32
VDeath
p6524
sg249
I1
sa(dp6525
g38
I3682788176
sg32
VWeaponDrop
p6526
sg180
I1
sg44
(lp6527
I2758383128
asg35
VPT6M37.6943618S
p6528
sg183
I1
sg184
VP0DT0H0M4.0500S
p6529
sg39
(dp6530
g41
VOG ACE HCS
p6531
sg43
Nssa(dp6532
g38
I3682788176
sg32
VWeaponDrop
p6533
sg180
I0
sg44
(lp6534
I2758383128
asg35
VPT6M37.6943618S
p6535
sg183
I0
sg184
VP0DT0S
p6536
sg39
(dp6537
g41
VOG ACE HCS
p6538
sg43
Nssa(dp6539
g38
I424645655
sg32
VWeaponDrop
p6540
sg180
I33
sg44
(lp6541
I1327094800
asg35
VPT6M37.6943618S
p6542
sg183
I10
sg184
VP0DT0H0M29.7167S
p6543
sg39
(dp6544
g41
VOG ACE HCS
p6545
sg43
Nssa(dp6546
g38
I2244200496
sg32
VWeaponDrop
p6547
sg180
I0
sg44
(lp6548
I2758383128
asg35
VPT6M38.0913807S
p6549
sg183
I0
sg184
VP0DT0H0M0.7333S
p6550
sg39
(dp6551
g41
VOG Maniac HCS
p6552
sg43
Nssa(dp6553
g32
VImpulse
p6554
sg39
(dp6555
g41
VOG Maniac HCS
p6556
sg43
Nssg764
I3435524855
sg35
VPT6M38.0923828S
p6557
sa(dp6558
g38
I2244200496
sg39
(dp6559
g41
VOG Maniac HCS
p6560
sg43
Nssg44
(lp6561
I2758383128
asg32
VWeaponPickup
p6562
sg35
VPT6M39.3414446S
p6563
sa(dp6564
g32
VImpulse
p6565
sg39
(dp6566
g41
VOG Maniac HCS
p6567
sg43
Nssg764
I4191318012
sg35
VPT6M39.3424469S
p6568
sa(dp6569
g38
I2244200496
sg32
VWeaponDrop
p6570
sg180
I0
sg44
(lp6571
I2758383128
asg35
VPT6M39.8914728S
p6572
sg183
I0
sg184
VP0DT0H0M0.3667S
p6573
sg39
(dp6574
g41
VOG Maniac HCS
p6575
sg43
Nssa(dp6576
g38
I313138863
sg39
(dp6577
g41
VALG ContrA HCS
p6578
sg43
Nssg44
(lp6579
I1095363701
asg32
VWeaponPickup
p6580
sg35
VPT6M39.8934957S
p6581
sa(dp6582
g38
I4096745987
sg39
(dp6583
g41
VALG ContrA HCS
p6584
sg43
Nssg44
(lp6585
I2758383128
asg32
VWeaponPickup
p6586
sg35
VPT6M39.8944811S
p6587
sa(dp6588
g32
VPlayerSpawn
p6589
sg39
(dp6590
g41
VALG ContrA HCS
p6591
sg43
Nssg35
VPT6M39.8944811S
p6592
sa(dp6593
g32
VImpulse
p6594
sg39
(dp6595
g41
VOG Maniac HCS
p6596
sg43
Nssg764
I3435524855
sg35
VPT6M39.8954846S
p6597
sa(dp6598
g38
I313138863
sg39
(dp6599
g41
VALG Goofy HCS
p6600
sg43
Nssg44
(lp6601
I1095363701
asg32
VWeaponPickup
p6602
sg35
VPT6M40.6095116S
p6603
sa(dp6604
g38
I4096745987
sg39
(dp6605
g41
VALG Goofy HCS
p6606
sg43
Nssg44
(lp6607
I2758383128
asg32
VWeaponPickup
p6608
sg35
VPT6M40.6105116S
p6609
sa(dp6610
g32
VPlayerSpawn
p6611
sg39
(dp6612
g41
VALG Goofy HCS
p6613
sg43
Nssg35
VPT6M40.6105116S
p6614
sa(dp6615
g38
I2244200496
sg39
(dp6616
g41
VOG Maniac HCS
p6617
sg43
Nssg44
(lp6618
I2758383128
asg32
VWeaponPickup
p6619
sg35
VPT6M41.5585579S
p6620
sa(dp6621
g32
VImpulse
p6622
sg39
(dp6623
g41
VOG Maniac HCS
p6624
sg43
Nssg764
I4191318012
sg35
VPT6M41.55956S
p6625
sa(dp6626
g38
I2244200496
sg32
VWeaponDrop
p6627
sg180
I0
sg44
(lp6628
I2758383128
asg35
VPT6M43.1746408S
p6629
sg183
I0
sg184
VP0DT0H0M1.4500S
p6630
sg39
(dp6631
g41
VOG Maniac HCS
p6632
sg43
Nssa(dp6633
g32
VImpulse
p6634
sg39
(dp6635
g41
VOG Maniac HCS
p6636
sg43
Nssg764
I3435524855
sg35
VPT6M43.1756533S
p6637
sa(dp6638
g221
I4096745987
sg222
I00
sg223
I00
sg224
(dp6639
g41
VOG Str8 SickHCS
p6640
sg43
Nssg227
(lp6641
I2758383128
asg229
I00
sg230
I01
sg231
I1
sg232
I0
sg233
I1
sg234
(dp6642
Vy
F-6.1063666300000001
sVx
F6.5937895800000002
sVz
F-0.0019275844100000001
ssg236
(dp6643
Vy
F4.5699896799999999
sVx
F6.2654160000000001
sVz
F0.93518114100000005
ssg238
I00
sg239
(dp6644
g41
VALG RyaNoob
p6645
sg43
Nssg242
(lp6646
sg244
(lp6647
sg246
I01
sg35
VPT6M44.2927001S
p6648
sg32
VDeath
p6649
sg249
I1
sa(dp6650
g32
VMedal
p6651
sg39
(dp6652
g41
VOG Maniac HCS
p6653
sg43
Nssg254
I824733727
sg35
VPT6M44.2927001S
p6654
sa(dp6655
g32
VMedal
p6656
sg39
(dp6657
g41
VOG Str8 SickHCS
p6658
sg43
Nssg254
I3261908037
sg35
VPT6M44.2946997S
p6659
sa(dp6660
g38
I313138863
sg32
VWeaponDrop
p6661
sg180
I0
sg44
(lp6662
I1095363701
asg35
VPT6M44.2946997S
p6663
sg183
I0
sg184
VP0DT0H0M3.5667S
p6664
sg39
(dp6665
g41
VALG RyaNoob
p6666
sg43
Nssa(dp6667
g38
I4096745987
sg32
VWeaponDrop
p6668
sg180
I6
sg44
(lp6669
I2758383128
asg35
VPT6M44.2946997S
p6670
sg183
I3
sg184
VP0DT0H0M8.8167S
p6671
sg39
(dp6672
g41
VALG RyaNoob
p6673
sg43
Nssa(dp6674
g38
I2244200496
sg39
(dp6675
g41
VOG Maniac HCS
p6676
sg43
Nssg44
(lp6677
I2758383128
asg32
VWeaponPickup
p6678
sg35
VPT6M44.7257224S
p6679
sa(dp6680
g32
VImpulse
p6681
sg39
(dp6682
g41
VOG Maniac HCS
p6683
sg43
Nssg764
I4191318012
sg35
VPT6M44.7257224S
p6684
sa(dp6685
g38
I2244200496
sg32
VWeaponDrop
p6686
sg180
I0
sg44
(lp6687
I2758383128
asg35
VPT6M45.1747537S
p6688
sg183
I0
sg184
VP0DT0H0M0.2667S
p6689
sg39
(dp6690
g41
VOG Maniac HCS
p6691
sg43
Nssa(dp6692
g32
VImpulse
p6693
sg39
(dp6694
g41
VOG Maniac HCS
p6695
sg43
Nssg764
I3435524855
sg35
VPT6M45.1757453S
p6696
sa(dp6697
g38
I313138863
sg39
(dp6698
g41
VOG ACE HCS
p6699
sg43
Nssg44
(lp6700
I1095363701
asg32
VWeaponPickup
p6701
sg35
VPT6M45.7097728S
p6702
sa(dp6703
g38
I4096745987
sg39
(dp6704
g41
VOG ACE HCS
p6705
sg43
Nssg44
(lp6706
I2758383128
asg32
VWeaponPickup
p6707
sg35
VPT6M45.7097728S
p6708
sa(dp6709
g32
VPlayerSpawn
p6710
sg39
(dp6711
g41
VOG ACE HCS
p6712
sg43
Nssg35
VPT6M45.7107728S
p6713
sa(dp6714
g38
I2244200496
sg39
(dp6715
g41
VOG Maniac HCS
p6716
sg43
Nssg44
(lp6717
I2758383128
asg32
VWeaponPickup
p6718
sg35
VPT6M47.0088387S
p6719
sa(dp6720
g32
VImpulse
p6721
sg39
(dp6722
g41
VOG Maniac HCS
p6723
sg43
Nssg764
I4191318012
sg35
VPT6M47.0088387S
p6724
sa(dp6725
g221
I4096745987
sg222
I00
sg223
I00
sg224
(dp6726
g41
VOG ACE HCS
p6727
sg43
Nssg227
(lp6728
I2758383128
asg229
I00
sg230
I01
sg231
I1
sg232
I0
sg233
I1
sg234
(dp6729
Vy
F-16.476371799999999
sVx
F0.74111300000000002
sVz
F1.4920389999999999
ssg236
(dp6730
Vy
F-11.7415638
sVx
F-13.507959400000001
sVz
F0.61483055399999997
ssg238
I00
sg239
(dp6731
g41
VALGPredevonator
p6732
sg43
Nssg242
(lp6733
sg244
(lp6734
(dp6735
g41
VOG APG HCS
p6736
sg43
Nsasg246
I01
sg35
VPT6M47.3098629S
p6737
sg32
VDeath
p6738
sg249
I1
sa(dp6739
g32
VMedal
p6740
sg39
(dp6741
g41
VOG ACE HCS
p6742
sg43
Nssg254
I3261908037
sg35
VPT6M47.3118545S
p6743
sa(dp6744
g38
I313138863
sg32
VWeaponDrop
p6745
sg180
I0
sg44
(lp6746
I1095363701
asg35
VPT6M47.3118545S
p6747
sg183
I0
sg184
VP0DT0H0M1.2000S
p6748
sg39
(dp6749
g41
VALGPredevonator
p6750
sg43
Nssa(dp6751
g38
I4096745987
sg32
VWeaponDrop
p6752
sg180
I7
sg44
(lp6753
I2758383128
asg35
VPT6M47.3118545S
p6754
sg183
I2
sg184
VP0DT0H0M10.8833S
p6755
sg39
(dp6756
g41
VALGPredevonator
p6757
sg43
Nssa(dp6758
g221
I4106030681
sg222
I00
sg223
I00
sg224
(dp6759
g41
VALGPredevonator
p6760
sg43
Nssg227
(lp6761
sg229
I00
sg230
I01
sg231
I1
sg232
I0
sg233
I1
sg234
(dp6762
Vy
F-11.766674999999999
sVx
F-13.216962799999999
sVz
F0.54277336600000003
ssg236
(dp6763
Vy
F-10.8279839
sVx
F-7.6318106700000001
sVz
F0.74858343599999999
ssg238
I00
sg239
(dp6764
g41
VOG Maniac HCS
p6765
sg43
Nssg242
(lp6766
sg244
(lp6767
(dp6768
g41
VALG RyaNoob
p6769
sg43
Nsa(dp6770
g41
VALG ContrA HCS
p6771
sg43
Nsa(dp6772
g41
VALG Goofy HCS
p6773
sg43
Nsasg246
I00
sg35
VPT6M47.5098651S
p6774
sg32
VDeath
p6775
sg249
I1
sa(dp6776
g32
VMedal
p6777
sg39
(dp6778
g41
VALGPredevonator
p6779
sg43
Nssg254
I3698887726
sg35
VPT6M47.5098651S
p6780
sa(dp6781
g32
VMedal
p6782
sg39
(dp6783
g41
VALGPredevonator
p6784
sg43
Nssg254
I194124164
sg35
VPT6M47.5098651S
p6785
sa(dp6786
g32
VMedal
p6787
sg39
(dp6788
g41
VALG RyaNoob
p6789
sg43
Nssg254
I1326375333
sg35
VPT6M47.5108641S
p6790
sa(dp6791
g32
VMedal
p6792
sg39
(dp6793
g41
VALG ContrA HCS
p6794
sg43
Nssg254
I1326375333
sg35
VPT6M47.5108641S
p6795
sa(dp6796
g32
VMedal
p6797
sg39
(dp6798
g41
VALG Goofy HCS
p6799
sg43
Nssg254
I1326375333
sg35
VPT6M47.5108641S
p6800
sa(dp6801
g32
VMedal
p6802
sg39
(dp6803
g41
VALGPredevonator
p6804
sg43
Nssg254
I394618614
sg35
VPT6M47.5108641S
p6805
sa(dp6806
g32
VImpulse
p6807
sg39
(dp6808
g41
VALGPredevonator
p6809
sg43
Nssg764
I2299858338
sg35
VPT6M47.5108641S
p6810
sa(dp6811
g38
I313138863
sg32
VWeaponDrop
p6812
sg180
I16
sg44
(lp6813
I1095363701
asg35
VPT6M47.5128655S
p6814
sg183
I6
sg184
VP0DT0H0M20.7667S
p6815
sg39
(dp6816
g41
VOG Maniac HCS
p6817
sg43
Nssa(dp6818
g38
I2511447508
sg32
VWeaponDrop
p6819
sg180
I23
sg44
(lp6820
I2758383128
asg35
VPT6M47.5128655S
p6821
sg183
I13
sg184
VP0DT0H1M0.9333S
p6822
sg39
(dp6823
g41
VOG Maniac HCS
p6824
sg43
Nssa(dp6825
g38
I2244200496
sg32
VWeaponDrop
p6826
sg180
I0
sg44
(lp6827
I2758383128
asg35
VPT6M47.5128655S
p6828
sg183
I0
sg184
VP0DT0H0M0.3167S
p6829
sg39
(dp6830
g41
VOG Maniac HCS
p6831
sg43
Nssa(dp6832
g32
VImpulse
p6833
sg39
(dp6834
g41
VOG Maniac HCS
p6835
sg43
Nssg764
I3435524855
sg35
VPT6M47.5248635S
p6836
sa(dp6837
g221
I313138863
sg222
I00
sg223
I00
sg224
(dp6838
g41
VOG Str8 SickHCS
p6839
sg43
Nssg227
(lp6840
I1095363701
asg229
I00
sg230
I01
sg231
I1
sg232
I0
sg233
I1
sg234
(dp6841
Vy
F-7.3032646200000002
sVx
F0.2764818
sVz
F4.7385692599999997e-06
ssg236
(dp6842
Vy
F-5.5967917399999996
sVx
F1.14738786
sVz
F0.88532359999999999
ssg238
I00
sg239
(dp6843
g41
VALG ContrA HCS
p6844
sg43
Nssg242
(lp6845
sg244
(lp6846
sg246
I00
sg35
VPT6M48.1259043S
p6847
sg32
VDeath
p6848
sg249
I1
sa(dp6849
g32
VMedal
p6850
sg39
(dp6851
g41
VOG Str8 SickHCS
p6852
sg43
Nssg254
I2078758684
sg35
VPT6M48.127896S
p6853
sa(dp6854
g38
I313138863
sg32
VWeaponDrop
p6855
sg180
I0
sg44
(lp6856
I1095363701
asg35
VPT6M48.127896S
p6857
sg183
I0
sg184
VP0DT0H0M0.3167S
p6858
sg39
(dp6859
g41
VALG ContrA HCS
p6860
sg43
Nssa(dp6861
g38
I4096745987
sg32
VWeaponDrop
p6862
sg180
I4
sg44
(lp6863
I2758383128
asg35
VPT6M48.127896S
p6864
sg183
I2
sg184
VP0DT0H0M7.9167S
p6865
sg39
(dp6866
g41
VALG ContrA HCS
p6867
sg43
Nssa(dp6868
g38
I2244200496
sg39
(dp6869
g41
VOG APG HCS
p6870
sg43
Nssg44
(lp6871
I2758383128
asg32
VWeaponPickup
p6872
sg35
VPT6M49.6919746S
p6873
sa(dp6874
g32
VImpulse
p6875
sg39
(dp6876
g41
VOG APG HCS
p6877
sg43
Nssg764
I4191318012
sg35
VPT6M49.6929768S
p6878
sa(dp6879
g32
VMedal
p6880
sg39
(dp6881
g41
VOG APG HCS
p6882
sg43
Nssg254
I3886151616
sg35
VPT6M49.8419826S
p6883
sa(dp6884
g32
VMedal
p6885
sg39
(dp6886
g41
VOG Maniac HCS
p6887
sg43
Nssg254
I1494478183
sg35
VPT6M49.8419826S
p6888
sa(dp6889
g32
VMedal
p6890
sg39
(dp6891
g41
VOG APG HCS
p6892
sg43
Nssg254
I2137994204
sg35
VPT6M49.8419826S
p6893
sa(dp6894
g32
VImpulse
p6895
sg39
(dp6896
g41
VOG APG HCS
p6897
sg43
Nssg764
I2944278681
sg35
VPT6M49.8419826S
p6898
sa(dp6899
g32
VRoundEnd
p6900
sg34
I0
sg35
VPT6M49.8429842S
p6901
sassb.