ccopy_reg
_reconstructor
p1
(c__main__
match_breakdown
p2
c__builtin__
object
p3
NtRp4
(dp5
S'details'
p6
(dp7
VIsCompleteSetOfEvents
p8
I01
sVLinks
p9
(dp10
VUgcFilmManifest
p11
(dp12
VAuthenticationLifetimeExtensionSupported
p13
I00
sVQueryString
p14
V?view=film-manifest
p15
sVRetryPolicyId
p16
Vexponentialretry
p17
sVPath
p18
V/h5/films/e34ef982-f9e6-4cae-a346-8b49224bb9c5
p19
sVAcknowledgementTypeId
p20
I0
sVAuthorityId
p21
Vugc
p22
sVTopicName
p23
V
ssVStatsMatchDetails
p24
(dp25
g13
I00
sg14
Nsg16
Vexponentialretry
p26
sg18
Vh5/custom/matches/e34ef982-f9e6-4cae-a346-8b49224bb9c5
p27
sg20
I0
sg21
Vspartanstats
p28
sg23
V
sssVGameEvents
p29
(lp30
(dp31
VEventName
p32
VRoundStart
p33
sVRoundIndex
p34
I0
sVTimeSinceStart
p35
VPT0.2950092S
p36
sa(dp37
VWeaponStockId
p38
I313138863
sVPlayer
p39
(dp40
VGamertag
p41
VRNG Ninja HCS
p42
sVXuid
p43
NssVWeaponAttachmentIds
p44
(lp45
I1095363701
asg32
VWeaponPickup
p46
sg35
VPT16.9440743S
p47
sa(dp48
g38
I4096745987
sg39
(dp49
g41
VRNG Ninja HCS
p50
sg43
Nssg44
(lp51
I2758383128
asg32
VWeaponPickup
p52
sg35
VPT16.9440743S
p53
sa(dp54
g32
VPlayerSpawn
p55
sg39
(dp56
g41
VRNG Ninja HCS
p57
sg43
Nssg35
VPT16.9440743S
p58
sa(dp59
g38
I313138863
sg39
(dp60
g41
VRNG Penguin HCS
p61
sg43
Nssg44
(lp62
I1095363701
asg32
VWeaponPickup
p63
sg35
VPT16.9560763S
p64
sa(dp65
g38
I4096745987
sg39
(dp66
g41
VRNG Penguin HCS
p67
sg43
Nssg44
(lp68
I2758383128
asg32
VWeaponPickup
p69
sg35
VPT16.9570764S
p70
sa(dp71
g32
VPlayerSpawn
p72
sg39
(dp73
g41
VRNG Penguin HCS
p74
sg43
Nssg35
VPT16.9570764S
p75
sa(dp76
g38
I313138863
sg39
(dp77
g41
VE6 Cratos HCS
p78
sg43
Nssg44
(lp79
I1095363701
asg32
VWeaponPickup
p80
sg35
VPT16.9750775S
p81
sa(dp82
g38
I4096745987
sg39
(dp83
g41
VE6 Cratos HCS
p84
sg43
Nssg44
(lp85
I2758383128
asg32
VWeaponPickup
p86
sg35
VPT16.9750775S
p87
sa(dp88
g32
VPlayerSpawn
p89
sg39
(dp90
g41
VE6 Cratos HCS
p91
sg43
Nssg35
VPT16.976078S
p92
sa(dp93
g38
I313138863
sg39
(dp94
g41
VRNG Victory X
p95
sg43
Nssg44
(lp96
I1095363701
asg32
VWeaponPickup
p97
sg35
VPT16.9940885S
p98
sa(dp99
g38
I4096745987
sg39
(dp100
g41
VRNG Victory X
p101
sg43
Nssg44
(lp102
I2758383128
asg32
VWeaponPickup
p103
sg35
VPT16.9940885S
p104
sa(dp105
g32
VPlayerSpawn
p106
sg39
(dp107
g41
VRNG Victory X
p108
sg43
Nssg35
VPT16.9950868S
p109
sa(dp110
g38
I313138863
sg39
(dp111
g41
VRNG Commonly
p112
sg43
Nssg44
(lp113
I1095363701
asg32
VWeaponPickup
p114
sg35
VPT17.0060789S
p115
sa(dp116
g38
I4096745987
sg39
(dp117
g41
VRNG Commonly
p118
sg43
Nssg44
(lp119
I2758383128
asg32
VWeaponPickup
p120
sg35
VPT17.0060789S
p121
sa(dp122
g32
VPlayerSpawn
p123
sg39
(dp124
g41
VRNG Commonly
p125
sg43
Nssg35
VPT17.0060789S
p126
sa(dp127
g38
I313138863
sg39
(dp128
g41
VE6 bubu dubu
p129
sg43
Nssg44
(lp130
I1095363701
asg32
VWeaponPickup
p131
sg35
VPT17.0250803S
p132
sa(dp133
g38
I4096745987
sg39
(dp134
g41
VE6 bubu dubu
p135
sg43
Nssg44
(lp136
I2758383128
asg32
VWeaponPickup
p137
sg35
VPT17.0250803S
p138
sa(dp139
g32
VPlayerSpawn
p140
sg39
(dp141
g41
VE6 bubu dubu
p142
sg43
Nssg35
VPT17.0250803S
p143
sa(dp144
g38
I313138863
sg39
(dp145
g41
VE6 Huke HCS
p146
sg43
Nssg44
(lp147
I1095363701
asg32
VWeaponPickup
p148
sg35
VPT17.0440805S
p149
sa(dp150
g38
I4096745987
sg39
(dp151
g41
VE6 Huke HCS
p152
sg43
Nssg44
(lp153
I2758383128
asg32
VWeaponPickup
p154
sg35
VPT17.0450811S
p155
sa(dp156
g32
VPlayerSpawn
p157
sg39
(dp158
g41
VE6 Huke HCS
p159
sg43
Nssg35
VPT17.0450811S
p160
sa(dp161
g38
I313138863
sg39
(dp162
g41
VE6 Shooter
p163
sg43
Nssg44
(lp164
I1095363701
asg32
VWeaponPickup
p165
sg35
VPT17.0560821S
p166
sa(dp167
g38
I4096745987
sg39
(dp168
g41
VE6 Shooter
p169
sg43
Nssg44
(lp170
I2758383128
asg32
VWeaponPickup
p171
sg35
VPT17.0560821S
p172
sa(dp173
g32
VPlayerSpawn
p174
sg39
(dp175
g41
VE6 Shooter
p176
sg43
Nssg35
VPT17.0570936S
p177
sa(dp178
g38
I4096745987
sg32
VWeaponDrop
p179
sVShotsFired
p180
I0
sg44
(lp181
I2758383128
asg35
VPT18.6878368S
p182
sVShotsLanded
p183
I0
sVTimeWeaponActiveAsPrimary
p184
VP0DT0H0M0.5333S
p185
sg39
(dp186
g41
VE6 Shooter
p187
sg43
Nssa(dp188
g38
I523953283
sg39
(dp189
g41
VE6 Shooter
p190
sg43
Nssg44
(lp191
I1327094800
asg32
VWeaponPickup
p192
sg35
VPT18.6879033S
p193
sa(dp194
g38
I313138863
sg32
VWeaponDrop
p195
sg180
I0
sg44
(lp196
I1095363701
asg35
VPT21.6083764S
p197
sg183
I0
sg184
VP0DT0H0M3.6500S
p198
sg39
(dp199
g41
VE6 Huke HCS
p200
sg43
Nssa(dp201
g38
I2015271382
sg39
(dp202
g41
VE6 Huke HCS
p203
sg43
Nssg44
(lp204
I2758383128
asg32
VWeaponPickup
p205
sg35
VPT21.6083764S
p206
sa(dp207
g38
I2492868984
sg39
(dp208
g41
VRNG Commonly
p209
sg43
Nssg44
(lp210
I2758383128
asg32
VWeaponPickup
p211
sg35
VPT23.9725261S
p212
sa(dp213
g38
I2015271382
sg32
VWeaponDrop
p214
sg180
I0
sg44
(lp215
I2758383128
asg35
VPT24.5365594S
p216
sg183
I0
sg184
VP0DT0H0M2.9333S
p217
sg39
(dp218
g41
VE6 Huke HCS
p219
sg43
Nssa(dp220
g38
I723523180
sg39
(dp221
g41
VE6 Huke HCS
p222
sg43
Nssg44
(lp223
I2758383128
asg32
VWeaponPickupPad
p224
sg35
VPT24.5365594S
p225
sa(dp226
g38
I723523180
sg39
(dp227
g41
VE6 Huke HCS
p228
sg43
Nssg44
(lp229
I2758383128
asg32
VWeaponPickup
p230
sg35
VPT24.5385616S
p231
sa(dp232
g38
I2492868984
sg32
VWeaponDrop
p233
sg180
I0
sg44
(lp234
I2758383128
asg35
VPT25.128599S
p235
sg183
I0
sg184
VP0DT0H0M0.9833S
p236
sg39
(dp237
g41
VRNG Commonly
p238
sg43
Nssa(dp239
VKillerWeaponStockId
p240
I4096745987
sVIsAssassination
p241
I00
sVIsMelee
p242
I00
sVKiller
p243
(dp244
g41
VRNG Victory X
p245
sg43
NssVKillerWeaponAttachmentIds
p246
(lp247
I2758383128
asVIsGroundPound
p248
I00
sVIsWeapon
p249
I01
sVDeathDisposition
p250
I1
sVVictimStockId
p251
I0
sVVictimAgent
p252
I1
sVKillerWorldLocation
p253
(dp254
Vy
F11.4555416
sVx
F2.3529605899999999
sVz
F2.6180940000000001
ssVVictimWorldLocation
p255
(dp256
Vy
F11.103646299999999
sVx
F-1.7589615599999999
sVz
F1.6000051500000001
ssVIsShoulderBash
p257
I00
sVVictim
p258
(dp259
g41
VE6 Cratos HCS
p260
sg43
NssVVictimAttachmentIds
p261
(lp262
sVAssistants
p263
(lp264
(dp265
g41
VRNG Penguin HCS
p266
sg43
NsasVIsHeadshot
p267
I01
sg35
VPT25.8636455S
p268
sg32
VDeath
p269
sVKillerAgent
p270
I1
sa(dp271
g32
VMedal
p272
sg39
(dp273
g41
VRNG Victory X
p274
sg43
NssVMedalId
p275
I3261908037
sg35
VPT25.8906466S
p276
sa(dp277
g32
VMedal
p278
sg39
(dp279
g41
VRNG Victory X
p280
sg43
Nssg275
I3001183151
sg35
VPT25.8906466S
p281
sa(dp282
g38
I313138863
sg32
VWeaponDrop
p283
sg180
I0
sg44
(lp284
I1095363701
asg35
VPT25.9016476S
p285
sg183
I0
sg184
VP0DT0H0M1.1500S
p286
sg39
(dp287
g41
VE6 Cratos HCS
p288
sg43
Nssa(dp289
g38
I4096745987
sg32
VWeaponDrop
p290
sg180
I4
sg44
(lp291
I2758383128
asg35
VPT25.9016476S
p292
sg183
I3
sg184
VP0DT0H0M7.6833S
p293
sg39
(dp294
g41
VE6 Cratos HCS
p295
sg43
Nssa(dp296
g240
I4106030681
sg241
I00
sg242
I00
sg243
(dp297
g41
VE6 bubu dubu
p298
sg43
Nssg246
(lp299
sg248
I00
sg249
I01
sg250
I1
sg251
I0
sg252
I1
sg253
(dp300
Vy
F10.1022921
sVx
F-5.3243813500000003
sVz
F2.1560943099999998
ssg255
(dp301
Vy
F9.9565059999999992
sVx
F0.55185099999999998
sVz
F2.5683243299999998
ssg257
I00
sg258
(dp302
g41
VRNG Victory X
p303
sg43
Nssg261
(lp304
sg263
(lp305
(dp306
g41
VE6 Shooter
p307
sg43
Nsasg267
I00
sg35
VPT29.3108666S
p308
sg32
VDeath
p309
sg270
I1
sa(dp310
g38
I313138863
sg32
VWeaponDrop
p311
sg180
I0
sg44
(lp312
I1095363701
asg35
VPT29.3128662S
p313
sg183
I0
sg184
VP0DT0H0M1.0167S
p314
sg39
(dp315
g41
VRNG Victory X
p316
sg43
Nssa(dp317
g38
I4096745987
sg32
VWeaponDrop
p318
sg180
I11
sg44
(lp319
I2758383128
asg35
VPT29.3128662S
p320
sg183
I6
sg184
VP0DT0H0M11.2500S
p321
sg39
(dp322
g41
VRNG Victory X
p323
sg43
Nssa(dp324
g240
I313138863
sg241
I00
sg242
I00
sg243
(dp325
g41
VE6 Shooter
p326
sg43
Nssg246
(lp327
I1095363701
asg248
I00
sg249
I01
sg250
I1
sg251
I0
sg252
I1
sg253
(dp328
Vy
F2.6438403099999999
sVx
F-0.12526753500000001
sVz
F2.5035959999999999
ssg255
(dp329
Vy
F8.856662
sVx
F1.35552049
sVz
F1.7751143
ssg257
I00
sg258
(dp330
g41
VRNG Penguin HCS
p331
sg43
Nssg261
(lp332
sg263
(lp333
(dp334
g41
VE6 Cratos HCS
p335
sg43
Nsa(dp336
g41
VE6 bubu dubu
p337
sg43
Nsasg267
I00
sg35
VPT30.0909168S
p338
sg32
VDeath
p339
sg270
I1
sa(dp340
g38
I313138863
sg32
VWeaponDrop
p341
sg180
I23
sg44
(lp342
I1095363701
asg35
VPT30.0919166S
p343
sg183
I8
sg184
VP0DT0H0M7.5000S
p344
sg39
(dp345
g41
VRNG Penguin HCS
p346
sg43
Nssa(dp347
g38
I4096745987
sg32
VWeaponDrop
p348
sg180
I4
sg44
(lp349
I2758383128
asg35
VPT30.0919166S
p350
sg183
I3
sg184
VP0DT0H0M5.5833S
p351
sg39
(dp352
g41
VRNG Penguin HCS
p353
sg43
Nssa(dp354
g240
I4096745987
sg241
I00
sg242
I00
sg243
(dp355
g41
VRNG Commonly
p356
sg43
Nssg246
(lp357
I2758383128
asg248
I00
sg249
I01
sg250
I1
sg251
I0
sg252
I1
sg253
(dp358
Vy
F-2.2713909999999999
sVx
F4.6643567099999999
sVz
F2.4022589999999999
ssg255
(dp359
Vy
F3.83367038
sVx
F-0.92354820000000004
sVz
F2.4010217200000001
ssg257
I00
sg258
(dp360
g41
VE6 Shooter
p361
sg43
Nssg261
(lp362
sg263
(lp363
(dp364
g41
VRNG Penguin HCS
p365
sg43
Nsasg267
I01
sg35
VPT31.3249947S
p366
sg32
VDeath
p367
sg270
I1
sa(dp368
g32
VMedal
p369
sg39
(dp370
g41
VRNG Commonly
p371
sg43
Nssg275
I3261908037
sg35
VPT31.3259956S
p372
sa(dp373
g38
I313138863
sg32
VWeaponDrop
p374
sg180
I16
sg44
(lp375
I1095363701
asg35
VPT31.3269948S
p376
sg183
I6
sg184
VP0DT0H0M4.4667S
p377
sg39
(dp378
g41
VE6 Shooter
p379
sg43
Nssa(dp380
g38
I523953283
sg32
VWeaponDrop
p381
sg180
I0
sg44
(lp382
I1327094800
asg35
VPT31.3269948S
p383
sg183
I0
sg184
VP0DT0H0M9.2167S
p384
sg39
(dp385
g41
VE6 Shooter
p386
sg43
Nssa(dp387
g38
I2244200496
sg39
(dp388
g41
VRNG Ninja HCS
p389
sg43
Nssg44
(lp390
I2758383128
asg32
VWeaponPickup
p391
sg35
VPT31.6870165S
p392
sa(dp393
g32
VImpulse
p394
sg39
(dp395
g41
VRNG Ninja HCS
p396
sg43
NssVImpulseId
p397
I4191318012
sg35
VPT31.7480219S
p398
sa(dp399
g32
VImpulse
p400
sg39
(dp401
g41
VRNG Ninja HCS
p402
sg43
Nssg397
I1039658009
sg35
VPT31.75466S
p403
sa(dp404
g38
I313138863
sg39
(dp405
g41
VE6 Cratos HCS
p406
sg43
Nssg44
(lp407
I1095363701
asg32
VWeaponPickup
p408
sg35
VPT33.9561639S
p409
sa(dp410
g38
I4096745987
sg39
(dp411
g41
VE6 Cratos HCS
p412
sg43
Nssg44
(lp413
I2758383128
asg32
VWeaponPickup
p414
sg35
VPT33.9561639S
p415
sa(dp416
g32
VPlayerSpawn
p417
sg39
(dp418
g41
VE6 Cratos HCS
p419
sg43
Nssg35
VPT33.9561639S
p420
sa(dp421
g240
I2244200496
sg241
I00
sg242
I00
sg243
(dp422
g41
VRNG Ninja HCS
p423
sg43
Nssg246
(lp424
I2758383128
asg248
I00
sg249
I01
sg250
I1
sg251
I0
sg252
I1
sg253
(dp425
Vy
F-6.3628792799999996
sVx
F-9.8837100000000007
sVz
F0.43165552600000001
ssg255
(dp426
Vy
F-6.46677971
sVx
F-12.608795199999999
sVz
F0.62044316499999996
ssg257
I00
sg258
(dp427
g41
VE6 Huke HCS
p428
sg43
Nssg261
(lp429
sg263
(lp430
sg267
I01
sg35
VPT36.2903166S
p431
sg32
VDeath
p432
sg270
I1
sa(dp433
g32
VImpulse
p434
sg39
(dp435
g41
VRNG Ninja HCS
p436
sg43
Nssg397
I3514632335
sg35
VPT36.2933131S
p437
sa(dp438
g32
VMedal
p439
sg39
(dp440
g41
VRNG Ninja HCS
p441
sg43
Nssg275
I2299864088
sg35
VPT36.2933131S
p442
sa(dp443
g32
VMedal
p444
sg39
(dp445
g41
VRNG Ninja HCS
p446
sg43
Nssg275
I3261908037
sg35
VPT36.3000682S
p447
sa(dp448
g38
I723523180
sg32
VWeaponDrop
p449
sg180
I2
sg44
(lp450
I2758383128
asg35
VPT36.300312S
p451
sg183
I2
sg184
VP0DT0H0M11.1167S
p452
sg39
(dp453
g41
VE6 Huke HCS
p454
sg43
Nssa(dp455
g38
I4096745987
sg32
VWeaponDrop
p456
sg180
I1
sg44
(lp457
I2758383128
asg35
VPT36.300312S
p458
sg183
I1
sg184
VP0DT0H0M1.4167S
p459
sg39
(dp460
g41
VE6 Huke HCS
p461
sg43
Nssa(dp462
g38
I313138863
sg39
(dp463
g41
VRNG Victory X
p464
sg43
Nssg44
(lp465
I1095363701
asg32
VWeaponPickup
p466
sg35
VPT37.4094243S
p467
sa(dp468
g38
I4096745987
sg39
(dp469
g41
VRNG Victory X
p470
sg43
Nssg44
(lp471
I2758383128
asg32
VWeaponPickup
p472
sg35
VPT37.4094243S
p473
sa(dp474
g32
VPlayerSpawn
p475
sg39
(dp476
g41
VRNG Victory X
p477
sg43
Nssg35
VPT37.4094243S
p478
sa(dp479
g38
I2244200496
sg32
VWeaponDrop
p480
sg180
I10
sg44
(lp481
I2758383128
asg35
VPT37.9047723S
p482
sg183
I6
sg184
VP0DT0H0M5.9833S
p483
sg39
(dp484
g41
VRNG Ninja HCS
p485
sg43
Nssa(dp486
g32
VImpulse
p487
sg39
(dp488
g41
VRNG Ninja HCS
p489
sg43
Nssg397
I3435524855
sg35
VPT37.935418S
p490
sa(dp491
g38
I313138863
sg39
(dp492
g41
VRNG Penguin HCS
p493
sg43
Nssg44
(lp494
I1095363701
asg32
VWeaponPickup
p495
sg35
VPT38.2064359S
p496
sa(dp497
g38
I4096745987
sg39
(dp498
g41
VRNG Penguin HCS
p499
sg43
Nssg44
(lp500
I2758383128
asg32
VWeaponPickup
p501
sg35
VPT38.2064359S
p502
sa(dp503
g32
VPlayerSpawn
p504
sg39
(dp505
g41
VRNG Penguin HCS
p506
sg43
Nssg35
VPT38.2064359S
p507
sa(dp508
g38
I2244200496
sg39
(dp509
g41
VRNG Ninja HCS
p510
sg43
Nssg44
(lp511
I2758383128
asg32
VWeaponPickup
p512
sg35
VPT38.6374614S
p513
sa(dp514
g32
VImpulse
p515
sg39
(dp516
g41
VRNG Ninja HCS
p517
sg43
Nssg397
I4191318012
sg35
VPT38.6374614S
p518
sa(dp519
g38
I313138863
sg39
(dp520
g41
VE6 Shooter
p521
sg43
Nssg44
(lp522
I1095363701
asg32
VWeaponPickup
p523
sg35
VPT39.4395149S
p524
sa(dp525
g38
I4096745987
sg39
(dp526
g41
VE6 Shooter
p527
sg43
Nssg44
(lp528
I2758383128
asg32
VWeaponPickup
p529
sg35
VPT39.4407299S
p530
sa(dp531
g32
VPlayerSpawn
p532
sg39
(dp533
g41
VE6 Shooter
p534
sg43
Nssg35
VPT39.4407299S
p535
sa(dp536
g38
I313138863
sg39
(dp537
g41
VE6 Huke HCS
p538
sg43
Nssg44
(lp539
I1095363701
asg32
VWeaponPickup
p540
sg35
VPT44.328946S
p541
sa(dp542
g38
I4096745987
sg39
(dp543
g41
VE6 Huke HCS
p544
sg43
Nssg44
(lp545
I2758383128
asg32
VWeaponPickup
p546
sg35
VPT44.328946S
p547
sa(dp548
g32
VPlayerSpawn
p549
sg39
(dp550
g41
VE6 Huke HCS
p551
sg43
Nssg35
VPT44.328946S
p552
sa(dp553
g38
I2244200496
sg32
VWeaponDrop
p554
sg180
I5
sg44
(lp555
I2758383128
asg35
VPT44.592099S
p556
sg183
I2
sg184
VP0DT0H0M5.8000S
p557
sg39
(dp558
g41
VRNG Ninja HCS
p559
sg43
Nssa(dp560
g32
VImpulse
p561
sg39
(dp562
g41
VRNG Ninja HCS
p563
sg43
Nssg397
I3435524855
sg35
VPT44.5928438S
p564
sa(dp565
g38
I2244200496
sg39
(dp566
g41
VRNG Ninja HCS
p567
sg43
Nssg44
(lp568
I2758383128
asg32
VWeaponPickup
p569
sg35
VPT45.5569048S
p570
sa(dp571
g32
VImpulse
p572
sg39
(dp573
g41
VRNG Ninja HCS
p574
sg43
Nssg397
I4191318012
sg35
VPT45.5569048S
p575
sa(dp576
g38
I313138863
sg32
VWeaponDrop
p577
sg180
I0
sg44
(lp578
I1095363701
asg35
VPT46.6420452S
p579
sg183
I0
sg184
VP0DT0H0M2.3833S
p580
sg39
(dp581
g41
VE6 Cratos HCS
p582
sg43
Nssa(dp583
g38
I723523180
sg39
(dp584
g41
VE6 Cratos HCS
p585
sg43
Nssg44
(lp586
I2758383128
asg32
VWeaponPickup
p587
sg35
VPT46.6420452S
p588
sa(dp589
g38
I2244200496
sg32
VWeaponDrop
p590
sg180
I0
sg44
(lp591
I2758383128
asg35
VPT48.4752608S
p592
sg183
I0
sg184
VP0DT0H0M2.7667S
p593
sg39
(dp594
g41
VRNG Ninja HCS
p595
sg43
Nssa(dp596
g32
VImpulse
p597
sg39
(dp598
g41
VRNG Ninja HCS
p599
sg43
Nssg397
I3435524855
sg35
VPT48.4761005S
p600
sa(dp601
g240
I4096745987
sg241
I00
sg242
I00
sg243
(dp602
g41
VE6 Shooter
p603
sg43
Nssg246
(lp604
I2758383128
asg248
I00
sg249
I01
sg250
I1
sg251
I0
sg252
I1
sg253
(dp605
Vy
F7.925802
sVx
F-6.3194384599999998
sVz
F3.2108688399999998
ssg255
(dp606
Vy
F9.8593235000000004
sVx
F-1.1260314
sVz
F1.6000051500000001
ssg257
I00
sg258
(dp607
g41
VRNG Victory X
p608
sg43
Nssg261
(lp609
sg263
(lp610
(dp611
g41
VE6 Huke HCS
p612
sg43
Nsa(dp613
g41
VE6 bubu dubu
p614
sg43
Nsasg267
I01
sg35
VPT48.5891001S
p615
sg32
VDeath
p616
sg270
I1
sa(dp617
g32
VMedal
p618
sg39
(dp619
g41
VE6 Shooter
p620
sg43
Nssg275
I3261908037
sg35
VPT48.5960988S
p621
sa(dp622
g38
I313138863
sg32
VWeaponDrop
p623
sg180
I0
sg44
(lp624
I1095363701
asg35
VPT48.5971168S
p625
sg183
I0
sg184
VP0DT0H0M1.8667S
p626
sg39
(dp627
g41
VRNG Victory X
p628
sg43
Nssa(dp629
g38
I4096745987
sg32
VWeaponDrop
p630
sg180
I8
sg44
(lp631
I2758383128
asg35
VPT48.5971168S
p632
sg183
I2
sg184
VP0DT0H0M9.3000S
p633
sg39
(dp634
g41
VRNG Victory X
p635
sg43
Nssa(dp636
g38
I2244200496
sg39
(dp637
g41
VRNG Penguin HCS
p638
sg43
Nssg44
(lp639
I2758383128
asg32
VWeaponPickup
p640
sg35
VPT49.8871813S
p641
sa(dp642
g32
VImpulse
p643
sg39
(dp644
g41
VRNG Penguin HCS
p645
sg43
Nssg397
I4191318012
sg35
VPT49.8951844S
p646
sa(dp647
g240
I4096745987
sg241
I00
sg242
I00
sg243
(dp648
g41
VE6 Shooter
p649
sg43
Nssg246
(lp650
I2758383128
asg248
I00
sg249
I01
sg250
I1
sg251
I0
sg252
I1
sg253
(dp651
Vy
F8.9234419999999997
sVx
F-0.76497930000000003
sVz
F1.6000074099999999
ssg255
(dp652
Vy
F5.1372003599999996
sVx
F-0.41329604399999997
sVz
F2.4012859999999998
ssg257
I00
sg258
(dp653
g41
VRNG Commonly
p654
sg43
Nssg261
(lp655
sg263
(lp656
(dp657
g41
VE6 bubu dubu
p658
sg43
Nsasg267
I01
sg35
VPT51.3402762S
p659
sg32
VDeath
p660
sg270
I1
sa(dp661
g32
VMedal
p662
sg39
(dp663
g41
VE6 Shooter
p664
sg43
Nssg275
I3261908037
sg35
VPT51.3422761S
p665
sa(dp666
g32
VMedal
p667
sg39
(dp668
g41
VE6 Shooter
p669
sg43
Nssg275
I2078758684
sg35
VPT51.3422761S
p670
sa(dp671
g38
I313138863
sg32
VWeaponDrop
p672
sg180
I34
sg44
(lp673
I1095363701
asg35
VPT51.3489016S
p674
sg183
I14
sg184
VP0DT0H0M22.0000S
p675
sg39
(dp676
g41
VRNG Commonly
p677
sg43
Nssa(dp678
g38
I4096745987
sg32
VWeaponDrop
p679
sg180
I18
sg44
(lp680
I2758383128
asg35
VPT51.3489016S
p681
sg183
I7
sg184
VP0DT0H0M11.1833S
p682
sg39
(dp683
g41
VRNG Commonly
p684
sg43
Nssa(dp685
g32
VMedal
p686
sg39
(dp687
g41
VRNG Penguin HCS
p688
sg43
Nssg275
I3886151616
sg35
VPT51.4792855S
p689
sa(dp690
g32
VMedal
p691
sg39
(dp692
g41
VRNG Ninja HCS
p693
sg43
Nssg275
I1494478183
sg35
VPT51.4792855S
p694
sa(dp695
g32
VImpulse
p696
sg39
(dp697
g41
VRNG Penguin HCS
p698
sg43
Nssg397
I2944278681
sg35
VPT51.4792855S
p699
sa(dp700
g38
I2244200496
sg32
VWeaponDrop
p701
sg180
I0
sg44
(lp702
I2758383128
asg35
VPT51.5092864S
p703
sg183
I0
sg184
VP0DT0H0M1.4167S
p704
sg39
(dp705
g41
VRNG Penguin HCS
p706
sg43
Nssa(dp707
g38
I313138863
sg32
VWeaponDrop
p708
sg180
I0
sg44
(lp709
I1095363701
asg35
VPT55.0705133S
p710
sg183
I0
sg184
VP0DT0H0M2.8333S
p711
sg39
(dp712
g41
VE6 Huke HCS
p713
sg43
Nssa(dp714
g38
I2015271382
sg39
(dp715
g41
VE6 Huke HCS
p716
sg43
Nssg44
(lp717
I2758383128
asg32
VWeaponPickup
p718
sg35
VPT55.0715153S
p719
sa(dp720
g38
I313138863
sg39
(dp721
g41
VRNG Victory X
p722
sg43
Nssg44
(lp723
I1095363701
asg32
VWeaponPickup
p724
sg35
VPT56.6056232S
p725
sa(dp726
g38
I4096745987
sg39
(dp727
g41
VRNG Victory X
p728
sg43
Nssg44
(lp729
I2758383128
asg32
VWeaponPickup
p730
sg35
VPT56.6066133S
p731
sa(dp732
g32
VPlayerSpawn
p733
sg39
(dp734
g41
VRNG Victory X
p735
sg43
Nssg35
VPT56.6066133S
p736
sa(dp737
g240
I4096745987
sg241
I00
sg242
I00
sg243
(dp738
g41
VE6 Huke HCS
p739
sg43
Nssg246
(lp740
I2758383128
asg248
I00
sg249
I01
sg250
I1
sg251
I0
sg252
I1
sg253
(dp741
Vy
F-3.29126859
sVx
F5.4389219999999998
sVz
F2.4000272800000002
ssg255
(dp742
Vy
F8.6282650000000007
sVx
F15.998974799999999
sVz
F0.23643142
ssg257
I00
sg258
(dp743
g41
VRNG Penguin HCS
p744
sg43
Nssg261
(lp745
sg263
(lp746
(dp747
g41
VE6 bubu dubu
p748
sg43
Nsasg267
I01
sg35
VPT58.1567125S
p749
sg32
VDeath
p750
sg270
I1
sa(dp751
g32
VMedal
p752
sg39
(dp753
g41
VE6 Shooter
p754
sg43
Nssg275
I824733727
sg35
VPT58.1628503S
p755
sa(dp756
g32
VMedal
p757
sg39
(dp758
g41
VE6 Huke HCS
p759
sg43
Nssg275
I3261908037
sg35
VPT58.1637121S
p760
sa(dp761
g38
I313138863
sg32
VWeaponDrop
p762
sg180
I0
sg44
(lp763
I1095363701
asg35
VPT58.1657132S
p764
sg183
I0
sg184
VP0DT0H0M5.2000S
p765
sg39
(dp766
g41
VRNG Penguin HCS
p767
sg43
Nssa(dp768
g38
I4096745987
sg32
VWeaponDrop
p769
sg180
I9
sg44
(lp770
I2758383128
asg35
VPT58.1657132S
p771
sg183
I4
sg184
VP0DT0H0M13.3333S
p772
sg39
(dp773
g41
VRNG Penguin HCS
p774
sg43
Nssa(dp775
g38
I313138863
sg39
(dp776
g41
VRNG Commonly
p777
sg43
Nssg44
(lp778
I1095363701
asg32
VWeaponPickup
p779
sg35
VPT59.3627901S
p780
sa(dp781
g38
I4096745987
sg39
(dp782
g41
VRNG Commonly
p783
sg43
Nssg44
(lp784
I2758383128
asg32
VWeaponPickup
p785
sg35
VPT59.3627901S
p786
sa(dp787
g32
VPlayerSpawn
p788
sg39
(dp789
g41
VRNG Commonly
p790
sg43
Nssg35
VPT59.3627901S
p791
sa(dp792
g240
I723523180
sg241
I00
sg242
I00
sg243
(dp793
g41
VE6 Cratos HCS
p794
sg43
Nssg246
(lp795
I2758383128
asg248
I00
sg249
I01
sg250
I1
sg251
I0
sg252
I1
sg253
(dp796
Vy
F-8.1205780000000001
sVx
F10.835622799999999
sVz
F0.67536890000000005
ssg255
(dp797
Vy
F-9.601108
sVx
F10.935496300000001
sVz
F0.90673159999999997
ssg257
I00
sg258
(dp798
g41
VRNG Ninja HCS
p799
sg43
Nssg261
(lp800
sg263
(lp801
sg267
I00
sg35
VPT59.6728096S
p802
sg32
VDeath
p803
sg270
I1
sa(dp804
g38
I313138863
sg32
VWeaponDrop
p805
sg180
I18
sg44
(lp806
I1095363701
asg35
VPT59.6798087S
p807
sg183
I10
sg184
VP0DT0H0M7.5667S
p808
sg39
(dp809
g41
VRNG Ninja HCS
p810
sg43
Nssa(dp811
g38
I4096745987
sg32
VWeaponDrop
p812
sg180
I1
sg44
(lp813
I2758383128
asg35
VPT59.6798087S
p814
sg183
I0
sg184
VP0DT0H0M20.4667S
p815
sg39
(dp816
g41
VRNG Ninja HCS
p817
sg43
Nssa(dp818
g240
I313138863
sg241
I00
sg242
I00
sg243
(dp819
g41
VRNG Ninja HCS
p820
sg43
Nssg246
(lp821
I1095363701
asg248
I00
sg249
I01
sg250
I1
sg251
I0
sg252
I1
sg253
(dp822
Vy
F-9.601108
sVx
F10.935496300000001
sVz
F0.90673159999999997
ssg255
(dp823
Vy
F-8.1205780000000001
sVx
F10.835622799999999
sVz
F0.67536890000000005
ssg257
I00
sg258
(dp824
g41
VE6 Cratos HCS
p825
sg43
Nssg261
(lp826
sg263
(lp827
sg267
I00
sg35
VPT59.6808106S
p828
sg32
VDeath
p829
sg270
I1
sa(dp830
g38
I723523180
sg32
VWeaponDrop
p831
sg180
I2
sg44
(lp832
I2758383128
asg35
VPT59.68181S
p833
sg183
I2
sg184
VP0DT0H0M11.4167S
p834
sg39
(dp835
g41
VE6 Cratos HCS
p836
sg43
Nssa(dp837
g38
I4096745987
sg32
VWeaponDrop
p838
sg180
I6
sg44
(lp839
I2758383128
asg35
VPT59.68181S
p840
sg183
I5
sg184
VP0DT0H0M11.9000S
p841
sg39
(dp842
g41
VE6 Cratos HCS
p843
sg43
Nssa(dp844
g240
I4096745987
sg241
I00
sg242
I00
sg243
(dp845
g41
VE6 Shooter
p846
sg43
Nssg246
(lp847
I2758383128
asg248
I00
sg249
I01
sg250
I1
sg251
I0
sg252
I1
sg253
(dp848
Vy
F9.2048644999999993
sVx
F8.5131580000000007
sVz
F1.6000078900000001
ssg255
(dp849
Vy
F8.3800609999999995
sVx
F10.162224800000001
sVz
F1.73248661
ssg257
I00
sg258
(dp850
g41
VRNG Victory X
p851
sg43
Nssg261
(lp852
sg263
(lp853
(dp854
g41
VE6 Huke HCS
p855
sg43
Nsa(dp856
g41
VE6 bubu dubu
p857
sg43
Nsasg267
I00
sg35
VPT1M1.3909193S
p858
sg32
VDeath
p859
sg270
I1
sa(dp860
g32
VMedal
p861
sg39
(dp862
g41
VE6 bubu dubu
p863
sg43
Nssg275
I3744028405
sg35
VPT1M1.3919197S
p864
sa(dp865
g38
I313138863
sg32
VWeaponDrop
p866
sg180
I8
sg44
(lp867
I1095363701
asg35
VPT1M1.3929193S
p868
sg183
I6
sg184
VP0DT0H0M3.2333S
p869
sg39
(dp870
g41
VRNG Victory X
p871
sg43
Nssa(dp872
g38
I4096745987
sg32
VWeaponDrop
p873
sg180
I0
sg44
(lp874
I2758383128
asg35
VPT1M1.3929193S
p875
sg183
I0
sg184
VP0DT0H0M1.5500S
p876
sg39
(dp877
g41
VRNG Victory X
p878
sg43
Nssa(dp879
g38
I313138863
sg39
(dp880
g41
VRNG Penguin HCS
p881
sg43
Nssg44
(lp882
I1095363701
asg32
VWeaponPickup
p883
sg35
VPT1M6.1762261S
p884
sa(dp885
g38
I4096745987
sg39
(dp886
g41
VRNG Penguin HCS
p887
sg43
Nssg44
(lp888
I2758383128
asg32
VWeaponPickup
p889
sg35
VPT1M6.1762261S
p890
sa(dp891
g32
VPlayerSpawn
p892
sg39
(dp893
g41
VRNG Penguin HCS
p894
sg43
Nssg35
VPT1M6.1762261S
p895
sa(dp896
g38
I313138863
sg39
(dp897
g41
VRNG Ninja HCS
p898
sg43
Nssg44
(lp899
I1095363701
asg32
VWeaponPickup
p900
sg35
VPT1M7.6933235S
p901
sa(dp902
g38
I4096745987
sg39
(dp903
g41
VRNG Ninja HCS
p904
sg43
Nssg44
(lp905
I2758383128
asg32
VWeaponPickup
p906
sg35
VPT1M7.6933235S
p907
sa(dp908
g32
VPlayerSpawn
p909
sg39
(dp910
g41
VRNG Ninja HCS
p911
sg43
Nssg35
VPT1M7.6943236S
p912
sa(dp913
g38
I313138863
sg39
(dp914
g41
VE6 Cratos HCS
p915
sg43
Nssg44
(lp916
I1095363701
asg32
VWeaponPickup
p917
sg35
VPT1M7.7233249S
p918
sa(dp919
g38
I4096745987
sg39
(dp920
g41
VE6 Cratos HCS
p921
sg43
Nssg44
(lp922
I2758383128
asg32
VWeaponPickup
p923
sg35
VPT1M7.7233249S
p924
sa(dp925
g32
VPlayerSpawn
p926
sg39
(dp927
g41
VE6 Cratos HCS
p928
sg43
Nssg35
VPT1M7.7243256S
p929
sa(dp930
g38
I313138863
sg39
(dp931
g41
VRNG Victory X
p932
sg43
Nssg44
(lp933
I1095363701
asg32
VWeaponPickup
p934
sg35
VPT1M9.4114327S
p935
sa(dp936
g38
I4096745987
sg39
(dp937
g41
VRNG Victory X
p938
sg43
Nssg44
(lp939
I2758383128
asg32
VWeaponPickup
p940
sg35
VPT1M9.4124333S
p941
sa(dp942
g32
VPlayerSpawn
p943
sg39
(dp944
g41
VRNG Victory X
p945
sg43
Nssg35
VPT1M9.4124333S
p946
sa(dp947
g38
I2244200496
sg39
(dp948
g41
VE6 bubu dubu
p949
sg43
Nssg44
(lp950
I2758383128
asg32
VWeaponPickup
p951
sg35
VPT1M10.6922449S
p952
sa(dp953
g32
VImpulse
p954
sg39
(dp955
g41
VE6 bubu dubu
p956
sg43
Nssg397
I4191318012
sg35
VPT1M10.6925151S
p957
sa(dp958
g32
VImpulse
p959
sg39
(dp960
g41
VE6 bubu dubu
p961
sg43
Nssg397
I1039658009
sg35
VPT1M10.6925151S
p962
sa(dp963
g38
I2244200496
sg32
VWeaponDrop
p964
sg180
I0
sg44
(lp965
I2758383128
asg35
VPT1M11.1887133S
p966
sg183
I0
sg184
VP0DT0H0M0.3500S
p967
sg39
(dp968
g41
VE6 bubu dubu
p969
sg43
Nssa(dp970
g32
VImpulse
p971
sg39
(dp972
g41
VE6 bubu dubu
p973
sg43
Nssg397
I3435524855
sg35
VPT1M11.1895469S
p974
sa(dp975
g38
I2244200496
sg39
(dp976
g41
VE6 bubu dubu
p977
sg43
Nssg44
(lp978
I2758383128
asg32
VWeaponPickup
p979
sg35
VPT1M12.0269942S
p980
sa(dp981
g32
VImpulse
p982
sg39
(dp983
g41
VE6 bubu dubu
p984
sg43
Nssg397
I4191318012
sg35
VPT1M12.0275998S
p985
sa(dp986
g240
I4096745987
sg241
I00
sg242
I00
sg243
(dp987
g41
VRNG Penguin HCS
p988
sg43
Nssg246
(lp989
I2758383128
asg248
I00
sg249
I01
sg250
I1
sg251
I0
sg252
I1
sg253
(dp990
Vy
F-5.9170259999999999
sVx
F18.7396469
sVz
F1.8053607899999999
ssg255
(dp991
Vy
F4.2005509999999999
sVx
F14.102503799999999
sVz
F3.0157577999999998
ssg257
I00
sg258
(dp992
g41
VE6 bubu dubu
p993
sg43
Nssg261
(lp994
sg263
(lp995
sg267
I01
sg35
VPT1M12.662641S
p996
sg32
VDeath
p997
sg270
I1
sa(dp998
g32
VImpulse
p999
sg39
(dp1000
g41
VRNG Penguin HCS
p1001
sg43
Nssg397
I3174430457
sg35
VPT1M12.6646405S
p1002
sa(dp1003
g32
VMedal
p1004
sg39
(dp1005
g41
VRNG Penguin HCS
p1006
sg43
Nssg275
I2028249938
sg35
VPT1M12.6786426S
p1007
sa(dp1008
g32
VImpulse
p1009
sg39
(dp1010
g41
VRNG Penguin HCS
p1011
sg43
Nssg397
I2299858338
sg35
VPT1M12.6786426S
p1012
sa(dp1013
g32
VMedal
p1014
sg39
(dp1015
g41
VRNG Penguin HCS
p1016
sg43
Nssg275
I3653057799
sg35
VPT1M12.6849105S
p1017
sa(dp1018
g38
I313138863
sg32
VWeaponDrop
p1019
sg180
I21
sg44
(lp1020
I1095363701
asg35
VPT1M12.6866424S
p1021
sg183
I12
sg184
VP0DT0H0M14.9500S
p1022
sg39
(dp1023
g41
VE6 bubu dubu
p1024
sg43
Nssa(dp1025
g38
I4096745987
sg32
VWeaponDrop
p1026
sg180
I27
sg44
(lp1027
I2758383128
asg35
VPT1M12.6866424S
p1028
sg183
I13
sg184
VP0DT0H0M39.7000S
p1029
sg39
(dp1030
g41
VE6 bubu dubu
p1031
sg43
Nssa(dp1032
g38
I2244200496
sg32
VWeaponDrop
p1033
sg180
I0
sg44
(lp1034
I2758383128
asg35
VPT1M12.6866424S
p1035
sg183
I0
sg184
VP0DT0H0M0.4833S
p1036
sg39
(dp1037
g41
VE6 bubu dubu
p1038
sg43
Nssa(dp1039
g32
VImpulse
p1040
sg39
(dp1041
g41
VE6 bubu dubu
p1042
sg43
Nssg397
I3435524855
sg35
VPT1M12.6956417S
p1043
sa(dp1044
g38
I313138863
sg32
VWeaponDrop
p1045
sg180
I0
sg44
(lp1046
I1095363701
asg35
VPT1M14.4717561S
p1047
sg183
I0
sg184
VP0DT0H0M1.2500S
p1048
sg39
(dp1049
g41
VE6 Cratos HCS
p1050
sg43
Nssa(dp1051
g38
I2015271382
sg39
(dp1052
g41
VE6 Cratos HCS
p1053
sg43
Nssg44
(lp1054
I2758383128
asg32
VWeaponPickup
p1055
sg35
VPT1M14.4717561S
p1056
sa(dp1057
g240
I4096745987
sg241
I00
sg242
I00
sg243
(dp1058
g41
VRNG Ninja HCS
p1059
sg43
Nssg246
(lp1060
I2758383128
asg248
I00
sg249
I01
sg250
I1
sg251
I0
sg252
I1
sg253
(dp1061
Vy
F-11.5282736
sVx
F-5.0146870000000003
sVz
F0.82593035699999995
ssg255
(dp1062
Vy
F-11.9782391
sVx
F-14.7203646
sVz
F1.1031094800000001
ssg257
I00
sg258
(dp1063
g41
VE6 Huke HCS
p1064
sg43
Nssg261
(lp1065
sg263
(lp1066
sg267
I01
sg35
VPT1M15.2758082S
p1067
sg32
VDeath
p1068
sg270
I1
sa(dp1069
g32
VMedal
p1070
sg39
(dp1071
g41
VRNG Ninja HCS
p1072
sg43
Nssg275
I3261908037
sg35
VPT1M15.2842755S
p1073
sa(dp1074
g38
I2015271382
sg32
VWeaponDrop
p1075
sg180
I10
sg44
(lp1076
I2758383128
asg35
VPT1M15.2848199S
p1077
sg183
I0
sg184
VP0DT0H0M5.8333S
p1078
sg39
(dp1079
g41
VE6 Huke HCS
p1080
sg43
Nssa(dp1081
g38
I4096745987
sg32
VWeaponDrop
p1082
sg180
I22
sg44
(lp1083
I2758383128
asg35
VPT1M15.2848199S
p1084
sg183
I10
sg184
VP0DT0H0M22.2833S
p1085
sg39
(dp1086
g41
VE6 Huke HCS
p1087
sg43
Nssa(dp1088
g240
I313138863
sg241
I00
sg242
I00
sg243
(dp1089
g41
VRNG Victory X
p1090
sg43
Nssg246
(lp1091
I1095363701
asg248
I00
sg249
I01
sg250
I1
sg251
I0
sg252
I1
sg253
(dp1092
Vy
F5.4458029999999997
sVx
F13.145747200000001
sVz
F-0.00110009313
ssg255
(dp1093
Vy
F8.9595909999999996
sVx
F13.8645926
sVz
F0.119889736
ssg257
I00
sg258
(dp1094
g41
VE6 Shooter
p1095
sg43
Nssg261
(lp1096
sg263
(lp1097
(dp1098
g41
VRNG Penguin HCS
p1099
sg43
Nsasg267
I00
sg35
VPT1M19.760095S
p1100
sg32
VDeath
p1101
sg270
I1
sa(dp1102
g32
VMedal
p1103
sg39
(dp1104
g41
VRNG Victory X
p1105
sg43
Nssg275
I2838259753
sg35
VPT1M19.760095S
p1106
sa(dp1107
g32
VImpulse
p1108
sg39
(dp1109
g41
VRNG Victory X
p1110
sg43
Nssg397
I2556889090
sg35
VPT1M19.760095S
p1111
sa(dp1112
g38
I4096745987
sg32
VWeaponDrop
p1113
sg180
I27
sg44
(lp1114
I2758383128
asg35
VPT1M19.7610951S
p1115
sg183
I11
sg184
VP0DT0H0M39.2000S
p1116
sg39
(dp1117
g41
VE6 Shooter
p1118
sg43
Nssa(dp1119
g38
I313138863
sg32
VWeaponDrop
p1120
sg180
I0
sg44
(lp1121
I1095363701
asg35
VPT1M19.7620956S
p1122
sg183
I0
sg184
VP0DT0H0M1.1167S
p1123
sg39
(dp1124
g41
VE6 Shooter
p1125
sg43
Nssa(dp1126
g240
I4096745987
sg241
I00
sg242
I00
sg243
(dp1127
g41
VE6 Cratos HCS
p1128
sg43
Nssg246
(lp1129
I2758383128
asg248
I00
sg249
I01
sg250
I1
sg251
I0
sg252
I1
sg253
(dp1130
Vy
F3.0909770000000001
sVx
F-5.0833053599999998
sVz
F0.208079875
ssg255
(dp1131
Vy
F3.2088341699999998
sVx
F-12.692357100000001
sVz
F1.0929877800000001
ssg257
I00
sg258
(dp1132
g41
VRNG Commonly
p1133
sg43
Nssg261
(lp1134
sg263
(lp1135
sg267
I01
sg35
VPT1M20.6401518S
p1136
sg32
VDeath
p1137
sg270
I1
sa(dp1138
g32
VMedal
p1139
sg39
(dp1140
g41
VE6 Cratos HCS
p1141
sg43
Nssg275
I2782465081
sg35
VPT1M20.6463847S
p1142
sa(dp1143
g32
VMedal
p1144
sg39
(dp1145
g41
VE6 Cratos HCS
p1146
sg43
Nssg275
I3261908037
sg35
VPT1M20.6471508S
p1147
sa(dp1148
g38
I313138863
sg32
VWeaponDrop
p1149
sg180
I14
sg44
(lp1150
I1095363701
asg35
VPT1M20.6481513S
p1151
sg183
I6
sg184
VP0DT0H0M10.8000S
p1152
sg39
(dp1153
g41
VRNG Commonly
p1154
sg43
Nssa(dp1155
g38
I4096745987
sg32
VWeaponDrop
p1156
sg180
I3
sg44
(lp1157
I2758383128
asg35
VPT1M20.6481513S
p1158
sg183
I2
sg184
VP0DT0H0M10.4833S
p1159
sg39
(dp1160
g41
VRNG Commonly
p1161
sg43
Nssa(dp1162
g38
I313138863
sg39
(dp1163
g41
VE6 bubu dubu
p1164
sg43
Nssg44
(lp1165
I1095363701
asg32
VWeaponPickup
p1166
sg35
VPT1M20.6771539S
p1167
sa(dp1168
g38
I4096745987
sg39
(dp1169
g41
VE6 bubu dubu
p1170
sg43
Nssg44
(lp1171
I2758383128
asg32
VWeaponPickup
p1172
sg35
VPT1M20.6771539S
p1173
sa(dp1174
g32
VPlayerSpawn
p1175
sg39
(dp1176
g41
VE6 bubu dubu
p1177
sg43
Nssg35
VPT1M20.6771539S
p1178
sa(dp1179
g240
I4096745987
sg241
I00
sg242
I00
sg243
(dp1180
g41
VRNG Ninja HCS
p1181
sg43
Nssg246
(lp1182
I2758383128
asg248
I00
sg249
I01
sg250
I1
sg251
I0
sg252
I1
sg253
(dp1183
Vy
F-4.2999634699999998
sVx
F-6.1162333499999999
sVz
F-0.0010834038300000001
ssg255
(dp1184
Vy
F1.3135251999999999
sVx
F-6.0156817399999998
sVz
F0.065576549999999997
ssg257
I00
sg258
(dp1185
g41
VE6 Cratos HCS
p1186
sg43
Nssg261
(lp1187
sg263
(lp1188
(dp1189
g41
VRNG Commonly
p1190
sg43
Nsasg267
I00
sg35
VPT1M21.8922314S
p1191
sg32
VDeath
p1192
sg270
I1
sa(dp1193
g38
I2015271382
sg32
VWeaponDrop
p1194
sg180
I11
sg44
(lp1195
I2758383128
asg35
VPT1M21.8942339S
p1196
sg183
I7
sg184
VP0DT0H0M4.4500S
p1197
sg39
(dp1198
g41
VE6 Cratos HCS
p1199
sg43
Nssa(dp1200
g38
I4096745987
sg32
VWeaponDrop
p1201
sg180
I3
sg44
(lp1202
I2758383128
asg35
VPT1M21.8942339S
p1203
sg183
I2
sg184
VP0DT0H0M8.4667S
p1204
sg39
(dp1205
g41
VE6 Cratos HCS
p1206
sg43
Nssa(dp1207
g38
I313138863
sg39
(dp1208
g41
VE6 Huke HCS
p1209
sg43
Nssg44
(lp1210
I1095363701
asg32
VWeaponPickup
p1211
sg35
VPT1M23.2953208S
p1212
sa(dp1213
g38
I4096745987
sg39
(dp1214
g41
VE6 Huke HCS
p1215
sg43
Nssg44
(lp1216
I2758383128
asg32
VWeaponPickup
p1217
sg35
VPT1M23.2953208S
p1218
sa(dp1219
g32
VPlayerSpawn
p1220
sg39
(dp1221
g41
VE6 Huke HCS
p1222
sg43
Nssg35
VPT1M23.2953208S
p1223
sa(dp1224
g32
VMedal
p1225
sg39
(dp1226
g41
VRNG Victory X
p1227
sg43
Nssg275
I2380717523
sg35
VPT1M25.6594731S
p1228
sa(dp1229
g32
VImpulse
p1230
sg39
(dp1231
g41
VRNG Victory X
p1232
sg43
Nssg397
I1063951891
sg35
VPT1M25.6594731S
p1233
sa(dp1234
g38
I313138863
sg39
(dp1235
g41
VE6 Shooter
p1236
sg43
Nssg44
(lp1237
I1095363701
asg32
VWeaponPickup
p1238
sg35
VPT1M27.7796083S
p1239
sa(dp1240
g38
I4096745987
sg39
(dp1241
g41
VE6 Shooter
p1242
sg43
Nssg44
(lp1243
I2758383128
asg32
VWeaponPickup
p1244
sg35
VPT1M27.7796083S
p1245
sa(dp1246
g32
VPlayerSpawn
p1247
sg39
(dp1248
g41
VE6 Shooter
p1249
sg43
Nssg35
VPT1M27.7796083S
p1250
sa(dp1251
g240
I4096745987
sg241
I00
sg242
I00
sg243
(dp1252
g41
VE6 Huke HCS
p1253
sg43
Nssg246
(lp1254
I2758383128
asg248
I00
sg249
I01
sg250
I1
sg251
I0
sg252
I1
sg253
(dp1255
Vy
F10.7000923
sVx
F-5.1584810000000001
sVz
F3.3563689999999999
ssg255
(dp1256
Vy
F10.4553595
sVx
F3.1490252000000001
sVz
F1.60000527
ssg257
I00
sg258
(dp1257
g41
VRNG Penguin HCS
p1258
sg43
Nssg261
(lp1259
sg263
(lp1260
sg267
I01
sg35
VPT1M28.1066295S
p1261
sg32
VDeath
p1262
sg270
I1
sa(dp1263
g32
VImpulse
p1264
sg39
(dp1265
g41
VE6 Huke HCS
p1266
sg43
Nssg397
I3174430457
sg35
VPT1M28.113988S
p1267
sa(dp1268
g32
VMedal
p1269
sg39
(dp1270
g41
VE6 Huke HCS
p1271
sg43
Nssg275
I3653057799
sg35
VPT1M28.1146288S
p1272
sa(dp1273
g38
I313138863
sg32
VWeaponDrop
p1274
sg180
I0
sg44
(lp1275
I1095363701
asg35
VPT1M28.1156294S
p1276
sg183
I0
sg184
VP0DT0H0M1.8833S
p1277
sg39
(dp1278
g41
VRNG Penguin HCS
p1279
sg43
Nssa(dp1280
g38
I4096745987
sg32
VWeaponDrop
p1281
sg180
I19
sg44
(lp1282
I2758383128
asg35
VPT1M28.1156294S
p1283
sg183
I10
sg184
VP0DT0H0M20.0500S
p1284
sg39
(dp1285
g41
VRNG Penguin HCS
p1286
sg43
Nssa(dp1287
g38
I313138863
sg39
(dp1288
g41
VRNG Commonly
p1289
sg43
Nssg44
(lp1290
I1095363701
asg32
VWeaponPickup
p1291
sg35
VPT1M28.6626654S
p1292
sa(dp1293
g38
I4096745987
sg39
(dp1294
g41
VRNG Commonly
p1295
sg43
Nssg44
(lp1296
I2758383128
asg32
VWeaponPickup
p1297
sg35
VPT1M28.6626654S
p1298
sa(dp1299
g32
VPlayerSpawn
p1300
sg39
(dp1301
g41
VRNG Commonly
p1302
sg43
Nssg35
VPT1M28.6626654S
p1303
sa(dp1304
g38
I313138863
sg32
VWeaponDrop
p1305
sg180
I23
sg44
(lp1306
I1095363701
asg35
VPT1M29.2387006S
p1307
sg183
I11
sg184
VP0DT0H0M9.8667S
p1308
sg39
(dp1309
g41
VRNG Victory X
p1310
sg43
Nssa(dp1311
g38
I2015271382
sg39
(dp1312
g41
VRNG Victory X
p1313
sg43
Nssg44
(lp1314
I2758383128
asg32
VWeaponPickup
p1315
sg35
VPT1M29.2387006S
p1316
sa(dp1317
g38
I313138863
sg39
(dp1318
g41
VE6 Cratos HCS
p1319
sg43
Nssg44
(lp1320
I1095363701
asg32
VWeaponPickup
p1321
sg35
VPT1M29.9097441S
p1322
sa(dp1323
g38
I4096745987
sg39
(dp1324
g41
VE6 Cratos HCS
p1325
sg43
Nssg44
(lp1326
I2758383128
asg32
VWeaponPickup
p1327
sg35
VPT1M29.9107447S
p1328
sa(dp1329
g32
VPlayerSpawn
p1330
sg39
(dp1331
g41
VE6 Cratos HCS
p1332
sg43
Nssg35
VPT1M29.9107447S
p1333
sa(dp1334
g240
I4096745987
sg241
I00
sg242
I00
sg243
(dp1335
g41
VE6 Huke HCS
p1336
sg43
Nssg246
(lp1337
I2758383128
asg248
I00
sg249
I01
sg250
I1
sg251
I0
sg252
I1
sg253
(dp1338
Vy
F2.4825149999999998
sVx
F-3.5065870000000001
sVz
F2.4887480000000002
ssg255
(dp1339
Vy
F-0.70210799999999995
sVx
F1.7330094599999999
sVz
F3.0466885600000002
ssg257
I00
sg258
(dp1340
g41
VRNG Victory X
p1341
sg43
Nssg261
(lp1342
sg263
(lp1343
(dp1344
g41
VE6 Shooter
p1345
sg43
Nsasg267
I01
sg35
VPT1M34.7110363S
p1346
sg32
VDeath
p1347
sg270
I1
sa(dp1348
g32
VMedal
p1349
sg39
(dp1350
g41
VE6 Huke HCS
p1351
sg43
Nssg275
I2838259753
sg35
VPT1M34.7110363S
p1352
sa(dp1353
g32
VImpulse
p1354
sg39
(dp1355
g41
VE6 Huke HCS
p1356
sg43
Nssg397
I2556889090
sg35
VPT1M34.7110363S
p1357
sa(dp1358
g32
VMedal
p1359
sg39
(dp1360
g41
VE6 Cratos HCS
p1361
sg43
Nssg275
I824733727
sg35
VPT1M34.7120376S
p1362
sa(dp1363
g32
VMedal
p1364
sg39
(dp1365
g41
VE6 Huke HCS
p1366
sg43
Nssg275
I3261908037
sg35
VPT1M34.7130368S
p1367
sa(dp1368
g38
I2015271382
sg32
VWeaponDrop
p1369
sg180
I0
sg44
(lp1370
I2758383128
asg35
VPT1M34.7130368S
p1371
sg183
I0
sg184
VP0DT0H0M1.0667S
p1372
sg39
(dp1373
g41
VRNG Victory X
p1374
sg43
Nssa(dp1375
g38
I4096745987
sg32
VWeaponDrop
p1376
sg180
I11
sg44
(lp1377
I2758383128
asg35
VPT1M34.7130368S
p1378
sg183
I8
sg184
VP0DT0H0M14.3667S
p1379
sg39
(dp1380
g41
VRNG Victory X
p1381
sg43
Nssa(dp1382
g38
I313138863
sg39
(dp1383
g41
VRNG Penguin HCS
p1384
sg43
Nssg44
(lp1385
I1095363701
asg32
VWeaponPickup
p1386
sg35
VPT1M36.1271211S
p1387
sa(dp1388
g38
I4096745987
sg39
(dp1389
g41
VRNG Penguin HCS
p1390
sg43
Nssg44
(lp1391
I2758383128
asg32
VWeaponPickup
p1392
sg35
VPT1M36.1271211S
p1393
sa(dp1394
g32
VPlayerSpawn
p1395
sg39
(dp1396
g41
VRNG Penguin HCS
p1397
sg43
Nssg35
VPT1M36.1271211S
p1398
sa(dp1399
g240
I4096745987
sg241
I00
sg242
I00
sg243
(dp1400
g41
VE6 bubu dubu
p1401
sg43
Nssg246
(lp1402
I2758383128
asg248
I00
sg249
I01
sg250
I1
sg251
I0
sg252
I1
sg253
(dp1403
Vy
F-7.11042738
sVx
F-19.3609428
sVz
F0.89973879999999995
ssg255
(dp1404
Vy
F-10.08896
sVx
F-14.095799400000001
sVz
F0.049232690000000003
ssg257
I00
sg258
(dp1405
g41
VRNG Ninja HCS
p1406
sg43
Nssg261
(lp1407
sg263
(lp1408
sg267
I01
sg35
VPT1M36.6129319S
p1409
sg32
VDeath
p1410
sg270
I1
sa(dp1411
g32
VMedal
p1412
sg39
(dp1413
g41
VE6 bubu dubu
p1414
sg43
Nssg275
I3261908037
sg35
VPT1M36.6141464S
p1415
sa(dp1416
g38
I313138863
sg32
VWeaponDrop
p1417
sg180
I0
sg44
(lp1418
I1095363701
asg35
VPT1M36.6151508S
p1419
sg183
I0
sg184
VP0DT0H0M0.8167S
p1420
sg39
(dp1421
g41
VRNG Ninja HCS
p1422
sg43
Nssa(dp1423
g38
I4096745987
sg32
VWeaponDrop
p1424
sg180
I19
sg44
(lp1425
I2758383128
asg35
VPT1M36.6151508S
p1426
sg183
I13
sg184
VP0DT0H0M28.1000S
p1427
sg39
(dp1428
g41
VRNG Ninja HCS
p1429
sg43
Nssa(dp1430
g240
I4106030681
sg241
I00
sg242
I00
sg243
(dp1431
g41
VRNG Commonly
p1432
sg43
Nssg246
(lp1433
sg248
I00
sg249
I00
sg250
I2
sg251
I0
sg252
I0
sg253
(dp1434
Vy
F8.6684660000000004
sVx
F6.1484120000000004
sVz
F2.7004337299999999
ssg255
(dp1435
Vy
F12.8930817
sVx
F-8.2040109999999995
sVz
F4.9130789999999998
ssg257
I00
sg258
(dp1436
S'Gamertag'
p1437
S'None'
p1438
ssg261
(lp1439
sg263
(lp1440
sg267
I00
sg35
VPT1M36.6334457S
p1441
sg32
VDeath
p1442
sg270
I1
sa(dp1443
g240
I4106030681
sg241
I00
sg242
I00
sg243
(dp1444
g41
VE6 Shooter
p1445
sg43
Nssg246
(lp1446
sg248
I00
sg249
I00
sg250
I2
sg251
I0
sg252
I0
sg253
(dp1447
Vy
F-3.8678963199999998
sVx
F-8.5142600000000002
sVz
F3.1623074999999998
ssg255
(dp1448
Vy
F-8.73489
sVx
F-12.319323499999999
sVz
F2.3355090000000001
ssg257
I00
sg258
(dp1449
g1437
g1438
ssg261
(lp1450
sg263
(lp1451
sg267
I00
sg35
VPT1M37.5081979S
p1452
sg32
VDeath
p1453
sg270
I1
sa(dp1454
g38
I313138863
sg39
(dp1455
g41
VRNG Victory X
p1456
sg43
Nssg44
(lp1457
I1095363701
asg32
VWeaponPickup
p1458
sg35
VPT1M42.7284992S
p1459
sa(dp1460
g38
I4096745987
sg39
(dp1461
g41
VRNG Victory X
p1462
sg43
Nssg44
(lp1463
I2758383128
asg32
VWeaponPickup
p1464
sg35
VPT1M42.7284992S
p1465
sa(dp1466
g32
VPlayerSpawn
p1467
sg39
(dp1468
g41
VRNG Victory X
p1469
sg43
Nssg35
VPT1M42.7284992S
p1470
sa(dp1471
g38
I313138863
sg32
VWeaponDrop
p1472
sg180
I0
sg44
(lp1473
I1095363701
asg35
VPT1M42.8885069S
p1474
sg183
I0
sg184
VP0DT0H0M2.9833S
p1475
sg39
(dp1476
g41
VE6 bubu dubu
p1477
sg43
Nssa(dp1478
g38
I2015271382
sg39
(dp1479
g41
VE6 bubu dubu
p1480
sg43
Nssg44
(lp1481
I2758383128
asg32
VWeaponPickup
p1482
sg35
VPT1M42.8895094S
p1483
sa(dp1484
g38
I313138863
sg39
(dp1485
g41
VRNG Ninja HCS
p1486
sg43
Nssg44
(lp1487
I1095363701
asg32
VWeaponPickup
p1488
sg35
VPT1M44.6346085S
p1489
sa(dp1490
g38
I4096745987
sg39
(dp1491
g41
VRNG Ninja HCS
p1492
sg43
Nssg44
(lp1493
I2758383128
asg32
VWeaponPickup
p1494
sg35
VPT1M44.6346085S
p1495
sa(dp1496
g32
VPlayerSpawn
p1497
sg39
(dp1498
g41
VRNG Ninja HCS
p1499
sg43
Nssg35
VPT1M44.6346085S
p1500
sa(dp1501
g38
I313138863
sg32
VWeaponDrop
p1502
sg180
I0
sg44
(lp1503
I1095363701
asg35
VPT1M46.8887364S
p1504
sg183
I0
sg184
VP0DT0H0M2.5167S
p1505
sg39
(dp1506
g41
VE6 Cratos HCS
p1507
sg43
Nssa(dp1508
g38
I3484334713
sg39
(dp1509
g41
VE6 Cratos HCS
p1510
sg43
Nssg44
(lp1511
I2758383128
asg32
VWeaponPickup
p1512
sg35
VPT1M46.8887364S
p1513
sa(dp1514
g240
I4106030681
sg241
I00
sg242
I00
sg243
(dp1515
g41
VRNG Victory X
p1516
sg43
Nssg246
(lp1517
sg248
I00
sg249
I00
sg250
I2
sg251
I0
sg252
I0
sg253
(dp1518
Vy
F-5.0125500000000001
sVx
F16.419170000000001
sVz
F2.2190396799999998
ssg255
(dp1519
Vy
F-8.1014184999999994
sVx
F12.905377400000001
sVz
F5.1697716700000003
ssg257
I00
sg258
(dp1520
g1437
g1438
ssg261
(lp1521
sg263
(lp1522
sg267
I00
sg35
VPT1M46.9937445S
p1523
sg32
VDeath
p1524
sg270
I1
sa(dp1525
g240
I4106030681
sg241
I00
sg242
I00
sg243
(dp1526
g41
VRNG Victory X
p1527
sg43
Nssg246
(lp1528
sg248
I00
sg249
I00
sg250
I2
sg251
I0
sg252
I0
sg253
(dp1529
Vy
F-5.0125500000000001
sVx
F16.419170000000001
sVz
F2.2190396799999998
ssg255
(dp1530
Vy
F-8.1684780000000003
sVx
F13.173008899999999
sVz
F5.1697716700000003
ssg257
I00
sg258
(dp1531
g1437
g1438
ssg261
(lp1532
sg263
(lp1533
sg267
I00
sg35
VPT1M46.9937445S
p1534
sg32
VDeath
p1535
sg270
I1
sa(dp1536
g240
I4106030681
sg241
I00
sg242
I00
sg243
(dp1537
g41
VE6 Huke HCS
p1538
sg43
Nssg246
(lp1539
sg248
I00
sg249
I00
sg250
I2
sg251
I0
sg252
I0
sg253
(dp1540
Vy
F-9.8237590000000008
sVx
F10.9541626
sVz
F-0.00108385086
ssg255
(dp1541
Vy
F-8.1807374999999993
sVx
F16.4967842
sVz
F5.2041225400000002
ssg257
I00
sg258
(dp1542
g1437
g1438
ssg261
(lp1543
sg263
(lp1544
sg267
I00
sg35
VPT1M47.000133S
p1545
sg32
VDeath
p1546
sg270
I1
sa(dp1547
g240
I4106030681
sg241
I00
sg242
I00
sg243
(dp1548
g41
VE6 Huke HCS
p1549
sg43
Nssg246
(lp1550
sg248
I00
sg249
I00
sg250
I2
sg251
I0
sg252
I0
sg253
(dp1551
Vy
F-9.8237590000000008
sVx
F10.9541626
sVz
F-0.00108385086
ssg255
(dp1552
Vy
F-8.9014179999999996
sVx
F17.769292799999999
sVz
F3.7814290000000002
ssg257
I00
sg258
(dp1553
g1437
g1438
ssg261
(lp1554
sg263
(lp1555
sg267
I00
sg35
VPT1M47.0001998S
p1556
sg32
VDeath
p1557
sg270
I1
sa(dp1558
g240
I313138863
sg241
I00
sg242
I00
sg243
(dp1559
g41
VRNG Commonly
p1560
sg43
Nssg246
(lp1561
I1095363701
asg248
I00
sg249
I01
sg250
I1
sg251
I0
sg252
I1
sg253
(dp1562
Vy
F12.262608500000001
sVx
F4.5439819999999997
sVz
F1.64136982
ssg255
(dp1563
Vy
F9.4074729999999995
sVx
F6.3115034100000003
sVz
F1.60000527
ssg257
I00
sg258
(dp1564
g41
VE6 bubu dubu
p1565
sg43
Nssg261
(lp1566
sg263
(lp1567
sg267
I00
sg35
VPT1M53.9091788S
p1568
sg32
VDeath
p1569
sg270
I1
sa(dp1570
g38
I2015271382
sg32
VWeaponDrop
p1571
sg180
I0
sg44
(lp1572
I2758383128
asg35
VPT1M53.9161776S
p1573
sg183
I0
sg184
VP0DT0H0M0.4833S
p1574
sg39
(dp1575
g41
VE6 bubu dubu
p1576
sg43
Nssa(dp1577
g38
I4096745987
sg32
VWeaponDrop
p1578
sg180
I9
sg44
(lp1579
I2758383128
asg35
VPT1M53.9161776S
p1580
sg183
I5
sg184
VP0DT0H0M29.7667S
p1581
sg39
(dp1582
g41
VE6 bubu dubu
p1583
sg43
Nssa(dp1584
g240
I313138863
sg241
I00
sg242
I01
sg243
(dp1585
g41
VRNG Penguin HCS
p1586
sg43
Nssg246
(lp1587
I1095363701
asg248
I00
sg249
I00
sg250
I1
sg251
I0
sg252
I1
sg253
(dp1588
Vy
F-9.1613399999999992
sVx
F17.835208900000001
sVz
F0.79423650000000001
ssg255
(dp1589
Vy
F-9.4503559999999993
sVx
F17.540227900000001
sVz
F0.7987206
ssg257
I00
sg258
(dp1590
g41
VE6 Huke HCS
p1591
sg43
Nssg261
(lp1592
sg263
(lp1593
(dp1594
g41
VRNG Ninja HCS
p1595
sg43
Nsasg267
I00
sg35
VPT1M54.0241855S
p1596
sg32
VDeath
p1597
sg270
I1
sa(dp1598
g32
VMedal
p1599
sg39
(dp1600
g41
VRNG Penguin HCS
p1601
sg43
Nssg275
I2287626681
sg35
VPT1M54.0261853S
p1602
sa(dp1603
g38
I4096745987
sg32
VWeaponDrop
p1604
sg180
I11
sg44
(lp1605
I2758383128
asg35
VPT1M54.0261853S
p1606
sg183
I9
sg184
VP0DT0H0M28.1000S
p1607
sg39
(dp1608
g41
VE6 Huke HCS
p1609
sg43
Nssa(dp1610
g38
I4096745987
sg32
VWeaponDrop
p1611
sg180
I0
sg44
(lp1612
I2758383128
asg35
VPT1M54.0261853S
p1613
sg183
I0
sg184
VP0DT0S
p1614
sg39
(dp1615
g41
VE6 Huke HCS
p1616
sg43
Nssa(dp1617
g38
I313138863
sg32
VWeaponDrop
p1618
sg180
I0
sg44
(lp1619
I1095363701
asg35
VPT1M54.0271867S
p1620
sg183
I0
sg184
VP0DT0H0M2.6167S
p1621
sg39
(dp1622
g41
VE6 Huke HCS
p1623
sg43
Nssa(dp1624
g240
I4096745987
sg241
I00
sg242
I01
sg243
(dp1625
g41
VE6 Huke HCS
p1626
sg43
Nssg246
(lp1627
I2758383128
asg248
I00
sg249
I00
sg250
I1
sg251
I0
sg252
I1
sg253
(dp1628
Vy
F-9.4503559999999993
sVx
F17.540227900000001
sVz
F1.02372062
ssg255
(dp1629
Vy
F-9.1613399999999992
sVx
F17.835208900000001
sVz
F0.79423650000000001
ssg257
I00
sg258
(dp1630
g41
VRNG Penguin HCS
p1631
sg43
Nssg261
(lp1632
sg263
(lp1633
sg267
I00
sg35
VPT1M54.0271867S
p1634
sg32
VDeath
p1635
sg270
I1
sa(dp1636
g32
VMedal
p1637
sg39
(dp1638
g41
VE6 Huke HCS
p1639
sg43
Nssg275
I250435527
sg35
VPT1M54.0333341S
p1640
sa(dp1641
g38
I313138863
sg32
VWeaponDrop
p1642
sg180
I9
sg44
(lp1643
I1095363701
asg35
VPT1M54.0341868S
p1644
sg183
I5
sg184
VP0DT0H0M8.7500S
p1645
sg39
(dp1646
g41
VRNG Penguin HCS
p1647
sg43
Nssa(dp1648
g38
I313138863
sg32
VWeaponDrop
p1649
sg180
I0
sg44
(lp1650
I1095363701
asg35
VPT1M54.0341868S
p1651
sg183
I0
sg184
VP0DT0S
p1652
sg39
(dp1653
g41
VRNG Penguin HCS
p1654
sg43
Nssa(dp1655
g38
I4096745987
sg32
VWeaponDrop
p1656
sg180
I0
sg44
(lp1657
I2758383128
asg35
VPT1M54.0351861S
p1658
sg183
I0
sg184
VP0DT0H0M9.1333S
p1659
sg39
(dp1660
g41
VRNG Penguin HCS
p1661
sg43
Nssa(dp1662
g240
I4096745987
sg241
I00
sg242
I00
sg243
(dp1663
g41
VE6 Cratos HCS
p1664
sg43
Nssg246
(lp1665
I2758383128
asg248
I00
sg249
I01
sg250
I1
sg251
I0
sg252
I1
sg253
(dp1666
Vy
F12.2829151
sVx
F8.9084380000000003
sVz
F1.60004747
ssg255
(dp1667
Vy
F12.3024836
sVx
F4.3903713199999999
sVz
F1.63651609
ssg257
I00
sg258
(dp1668
g41
VRNG Commonly
p1669
sg43
Nssg261
(lp1670
sg263
(lp1671
(dp1672
g41
VE6 bubu dubu
p1673
sg43
Nsasg267
I01
sg35
VPT1M54.0941899S
p1674
sg32
VDeath
p1675
sg270
I1
sa(dp1676
g32
VMedal
p1677
sg39
(dp1678
g41
VE6 Cratos HCS
p1679
sg43
Nssg275
I3261908037
sg35
VPT1M54.0951903S
p1680
sa(dp1681
g38
I313138863
sg32
VWeaponDrop
p1682
sg180
I13
sg44
(lp1683
I1095363701
asg35
VPT1M54.0961906S
p1684
sg183
I5
sg184
VP0DT0H0M9.6667S
p1685
sg39
(dp1686
g41
VRNG Commonly
p1687
sg43
Nssa(dp1688
g38
I313138863
sg32
VWeaponDrop
p1689
sg180
I0
sg44
(lp1690
I1095363701
asg35
VPT1M54.0961906S
p1691
sg183
I0
sg184
VP0DT0S
p1692
sg39
(dp1693
g41
VRNG Commonly
p1694
sg43
Nssa(dp1695
g38
I4096745987
sg32
VWeaponDrop
p1696
sg180
I5
sg44
(lp1697
I2758383128
asg35
VPT1M54.0961906S
p1698
sg183
I4
sg184
VP0DT0H0M15.7667S
p1699
sg39
(dp1700
g41
VRNG Commonly
p1701
sg43
Nssa(dp1702
g240
I4096745987
sg241
I00
sg242
I00
sg243
(dp1703
g41
VE6 Shooter
p1704
sg43
Nssg246
(lp1705
I2758383128
asg248
I00
sg249
I01
sg250
I1
sg251
I0
sg252
I1
sg253
(dp1706
Vy
F-9.0007900000000003
sVx
F2.0801799999999999
sVz
F0.9917667
ssg255
(dp1707
Vy
F-9.3522200000000009
sVx
F16.1536942
sVz
F0.83761370000000002
ssg257
I00
sg258
(dp1708
g41
VRNG Victory X
p1709
sg43
Nssg261
(lp1710
sg263
(lp1711
sg267
I00
sg35
VPT1M54.5742198S
p1712
sg32
VDeath
p1713
sg270
I1
sa(dp1714
g38
I313138863
sg32
VWeaponDrop
p1715
sg180
I5
sg44
(lp1716
I1095363701
asg35
VPT1M54.5762207S
p1717
sg183
I0
sg184
VP0DT0H0M3.9167S
p1718
sg39
(dp1719
g41
VRNG Victory X
p1720
sg43
Nssa(dp1721
g38
I4096745987
sg32
VWeaponDrop
p1722
sg180
I8
sg44
(lp1723
I2758383128
asg35
VPT1M54.5762207S
p1724
sg183
I6
sg184
VP0DT0H0M7.9167S
p1725
sg39
(dp1726
g41
VRNG Victory X
p1727
sg43
Nssa(dp1728
g240
I313138863
sg241
I00
sg242
I00
sg243
(dp1729
g41
VRNG Ninja HCS
p1730
sg43
Nssg246
(lp1731
I1095363701
asg248
I00
sg249
I01
sg250
I1
sg251
I0
sg252
I1
sg253
(dp1732
Vy
F-10.335525499999999
sVx
F1.9849724799999999
sVz
F0.18770223899999999
ssg255
(dp1733
Vy
F-7.8850865399999996
sVx
F1.2721151100000001
sVz
F0.0079894360000000008
ssg257
I00
sg258
(dp1734
g41
VE6 Shooter
p1735
sg43
Nssg261
(lp1736
sg263
(lp1737
(dp1738
g41
VRNG Victory X
p1739
sg43
Nsasg267
I00
sg35
VPT1M57.3253974S
p1740
sg32
VDeath
p1741
sg270
I1
sa(dp1742
g38
I313138863
sg32
VWeaponDrop
p1743
sg180
I0
sg44
(lp1744
I1095363701
asg35
VPT1M57.3333999S
p1745
sg183
I0
sg184
VP0DT0H0M1.0667S
p1746
sg39
(dp1747
g41
VE6 Shooter
p1748
sg43
Nssa(dp1749
g38
I4096745987
sg32
VWeaponDrop
p1750
sg180
I14
sg44
(lp1751
I2758383128
asg35
VPT1M57.3333999S
p1752
sg183
I8
sg184
VP0DT0H0M28.4667S
p1753
sg39
(dp1754
g41
VE6 Shooter
p1755
sg43
Nssa(dp1756
g38
I2244200496
sg39
(dp1757
g41
VE6 Cratos HCS
p1758
sg43
Nssg44
(lp1759
I2758383128
asg32
VWeaponPickup
p1760
sg35
VPT2M1.0092654S
p1761
sa(dp1762
g32
VImpulse
p1763
sg39
(dp1764
g41
VE6 Cratos HCS
p1765
sg43
Nssg397
I4191318012
sg35
VPT2M1.0096329S
p1766
sa(dp1767
g32
VImpulse
p1768
sg39
(dp1769
g41
VE6 Cratos HCS
p1770
sg43
Nssg397
I1039658009
sg35
VPT2M1.0096329S
p1771
sa(dp1772
g38
I2244200496
sg32
VWeaponDrop
p1773
sg180
I0
sg44
(lp1774
I2758383128
asg35
VPT2M1.4275402S
p1775
sg183
I0
sg184
VP0DT0H0M0.2833S
p1776
sg39
(dp1777
g41
VE6 Cratos HCS
p1778
sg43
Nssa(dp1779
g32
VImpulse
p1780
sg39
(dp1781
g41
VE6 Cratos HCS
p1782
sg43
Nssg397
I3435524855
sg35
VPT2M1.4276584S
p1783
sa(dp1784
g38
I313138863
sg39
(dp1785
g41
VE6 bubu dubu
p1786
sg43
Nssg44
(lp1787
I1095363701
asg32
VWeaponPickup
p1788
sg35
VPT2M1.940692S
p1789
sa(dp1790
g38
I4096745987
sg39
(dp1791
g41
VE6 bubu dubu
p1792
sg43
Nssg44
(lp1793
I2758383128
asg32
VWeaponPickup
p1794
sg35
VPT2M1.9416932S
p1795
sa(dp1796
g32
VPlayerSpawn
p1797
sg39
(dp1798
g41
VE6 bubu dubu
p1799
sg43
Nssg35
VPT2M1.9416932S
p1800
sa(dp1801
g38
I313138863
sg39
(dp1802
g41
VE6 Huke HCS
p1803
sg43
Nssg44
(lp1804
I1095363701
asg32
VWeaponPickup
p1805
sg35
VPT2M2.0406995S
p1806
sa(dp1807
g38
I4096745987
sg39
(dp1808
g41
VE6 Huke HCS
p1809
sg43
Nssg44
(lp1810
I2758383128
asg32
VWeaponPickup
p1811
sg35
VPT2M2.0406995S
p1812
sa(dp1813
g32
VPlayerSpawn
p1814
sg39
(dp1815
g41
VE6 Huke HCS
p1816
sg43
Nssg35
VPT2M2.0406995S
p1817
sa(dp1818
g38
I313138863
sg39
(dp1819
g41
VRNG Penguin HCS
p1820
sg43
Nssg44
(lp1821
I1095363701
asg32
VWeaponPickup
p1822
sg35
VPT2M2.069073S
p1823
sa(dp1824
g38
I4096745987
sg39
(dp1825
g41
VRNG Penguin HCS
p1826
sg43
Nssg44
(lp1827
I2758383128
asg32
VWeaponPickup
p1828
sg35
VPT2M2.069073S
p1829
sa(dp1830
g32
VPlayerSpawn
p1831
sg39
(dp1832
g41
VRNG Penguin HCS
p1833
sg43
Nssg35
VPT2M2.069073S
p1834
sa(dp1835
g38
I313138863
sg39
(dp1836
g41
VRNG Commonly
p1837
sg43
Nssg44
(lp1838
I1095363701
asg32
VWeaponPickup
p1839
sg35
VPT2M2.1187022S
p1840
sa(dp1841
g38
I4096745987
sg39
(dp1842
g41
VRNG Commonly
p1843
sg43
Nssg44
(lp1844
I2758383128
asg32
VWeaponPickup
p1845
sg35
VPT2M2.1187022S
p1846
sa(dp1847
g32
VPlayerSpawn
p1848
sg39
(dp1849
g41
VRNG Commonly
p1850
sg43
Nssg35
VPT2M2.1187022S
p1851
sa(dp1852
g38
I313138863
sg39
(dp1853
g41
VRNG Victory X
p1854
sg43
Nssg44
(lp1855
I1095363701
asg32
VWeaponPickup
p1856
sg35
VPT2M2.5917341S
p1857
sa(dp1858
g38
I4096745987
sg39
(dp1859
g41
VRNG Victory X
p1860
sg43
Nssg44
(lp1861
I2758383128
asg32
VWeaponPickup
p1862
sg35
VPT2M2.5927341S
p1863
sa(dp1864
g32
VPlayerSpawn
p1865
sg39
(dp1866
g41
VRNG Victory X
p1867
sg43
Nssg35
VPT2M2.5927341S
p1868
sa(dp1869
g38
I2244200496
sg39
(dp1870
g41
VE6 Cratos HCS
p1871
sg43
Nssg44
(lp1872
I2758383128
asg32
VWeaponPickup
p1873
sg35
VPT2M2.9387559S
p1874
sa(dp1875
g32
VImpulse
p1876
sg39
(dp1877
g41
VE6 Cratos HCS
p1878
sg43
Nssg397
I4191318012
sg35
VPT2M2.9562408S
p1879
sa(dp1880
g38
I2244200496
sg32
VWeaponDrop
p1881
sg180
I0
sg44
(lp1882
I2758383128
asg35
VPT2M3.3557813S
p1883
sg183
I0
sg184
VP0DT0H0M0.2667S
p1884
sg39
(dp1885
g41
VE6 Cratos HCS
p1886
sg43
Nssa(dp1887
g32
VImpulse
p1888
sg39
(dp1889
g41
VE6 Cratos HCS
p1890
sg43
Nssg397
I3435524855
sg35
VPT2M3.3747832S
p1891
sa(dp1892
g38
I4096745987
sg32
VWeaponDrop
p1893
sg180
I0
sg44
(lp1894
I2758383128
asg35
VPT2M3.8256932S
p1895
sg183
I0
sg184
VP0DT0H0M0.1833S
p1896
sg39
(dp1897
g41
VE6 Huke HCS
p1898
sg43
Nssa(dp1899
g38
I523953283
sg39
(dp1900
g41
VE6 Huke HCS
p1901
sg43
Nssg44
(lp1902
I1327094800
asg32
VWeaponPickup
p1903
sg35
VPT2M3.825812S
p1904
sa(dp1905
g38
I313138863
sg39
(dp1906
g41
VE6 Shooter
p1907
sg43
Nssg44
(lp1908
I1095363701
asg32
VWeaponPickup
p1909
sg35
VPT2M5.3429102S
p1910
sa(dp1911
g38
I4096745987
sg39
(dp1912
g41
VE6 Shooter
p1913
sg43
Nssg44
(lp1914
I2758383128
asg32
VWeaponPickup
p1915
sg35
VPT2M5.3439104S
p1916
sa(dp1917
g32
VPlayerSpawn
p1918
sg39
(dp1919
g41
VE6 Shooter
p1920
sg43
Nssg35
VPT2M5.3439104S
p1921
sa(dp1922
g240
I3484334713
sg241
I00
sg242
I00
sg243
(dp1923
g41
VE6 Cratos HCS
p1924
sg43
Nssg246
(lp1925
I2758383128
asg248
I00
sg249
I01
sg250
I1
sg251
I0
sg252
I1
sg253
(dp1926
Vy
F-9.3675099999999993
sVx
F15.56648
sVz
F0.80053770000000002
ssg255
(dp1927
Vy
F-8.1946139999999996
sVx
F13.7240953
sVz
F2.0213453800000001
ssg257
I00
sg258
(dp1928
g41
VRNG Ninja HCS
p1929
sg43
Nssg261
(lp1930
sg263
(lp1931
(dp1932
g41
VE6 bubu dubu
p1933
sg43
Nsasg267
I00
sg35
VPT2M7.2080339S
p1934
sg32
VDeath
p1935
sg270
I1
sa(dp1936
g38
I313138863
sg32
VWeaponDrop
p1937
sg180
I22
sg44
(lp1938
I1095363701
asg35
VPT2M7.2090295S
p1939
sg183
I4
sg184
VP0DT0H0M6.2000S
p1940
sg39
(dp1941
g41
VRNG Ninja HCS
p1942
sg43
Nssa(dp1943
g38
I4096745987
sg32
VWeaponDrop
p1944
sg180
I3
sg44
(lp1945
I2758383128
asg35
VPT2M7.2090295S
p1946
sg183
I1
sg184
VP0DT0H0M16.3667S
p1947
sg39
(dp1948
g41
VRNG Ninja HCS
p1949
sg43
Nssa(dp1950
g240
I4096745987
sg241
I00
sg242
I00
sg243
(dp1951
g41
VRNG Victory X
p1952
sg43
Nssg246
(lp1953
I2758383128
asg248
I00
sg249
I01
sg250
I1
sg251
I0
sg252
I1
sg253
(dp1954
Vy
F6.7373814599999999
sVx
F1.1556047199999999
sVz
F1.81026983
ssg255
(dp1955
Vy
F0.045463469999999999
sVx
F-3.6212971199999999
sVz
F2.4012951899999999
ssg257
I00
sg258
(dp1956
g41
VE6 bubu dubu
p1957
sg43
Nssg261
(lp1958
sg263
(lp1959
(dp1960
g41
VRNG Commonly
p1961
sg43
Nsasg267
I01
sg35
VPT2M8.0080803S
p1962
sg32
VDeath
p1963
sg270
I1
sa(dp1964
g32
VMedal
p1965
sg39
(dp1966
g41
VRNG Victory X
p1967
sg43
Nssg275
I3261908037
sg35
VPT2M8.0090807S
p1968
sa(dp1969
g38
I313138863
sg32
VWeaponDrop
p1970
sg180
I0
sg44
(lp1971
I1095363701
asg35
VPT2M8.0100802S
p1972
sg183
I0
sg184
VP0DT0H0M0.7167S
p1973
sg39
(dp1974
g41
VE6 bubu dubu
p1975
sg43
Nssa(dp1976
g38
I4096745987
sg32
VWeaponDrop
p1977
sg180
I3
sg44
(lp1978
I2758383128
asg35
VPT2M8.0100802S
p1979
sg183
I2
sg184
VP0DT0H0M5.3500S
p1980
sg39
(dp1981
g41
VE6 bubu dubu
p1982
sg43
Nssa(dp1983
g38
I2244200496
sg39
(dp1984
g41
VE6 Cratos HCS
p1985
sg43
Nssg44
(lp1986
I2758383128
asg32
VWeaponPickup
p1987
sg35
VPT2M9.0751483S
p1988
sa(dp1989
g32
VImpulse
p1990
sg39
(dp1991
g41
VE6 Cratos HCS
p1992
sg43
Nssg397
I4191318012
sg35
VPT2M9.0751483S
p1993
sa(dp1994
g38
I2244200496
sg32
VWeaponDrop
p1995
sg180
I0
sg44
(lp1996
I2758383128
asg35
VPT2M9.4431709S
p1997
sg183
I0
sg184
VP0DT0H0M0.2000S
p1998
sg39
(dp1999
g41
VE6 Cratos HCS
p2000
sg43
Nssa(dp2001
g32
VImpulse
p2002
sg39
(dp2003
g41
VE6 Cratos HCS
p2004
sg43
Nssg397
I3435524855
sg35
VPT2M9.4442986S
p2005
sa(dp2006
g38
I2244200496
sg39
(dp2007
g41
VE6 Cratos HCS
p2008
sg43
Nssg44
(lp2009
I2758383128
asg32
VWeaponPickup
p2010
sg35
VPT2M10.7940308S
p2011
sa(dp2012
g32
VImpulse
p2013
sg39
(dp2014
g41
VE6 Cratos HCS
p2015
sg43
Nssg397
I4191318012
sg35
VPT2M10.7942608S
p2016
sa(dp2017
g38
I2244200496
sg32
VWeaponDrop
p2018
sg180
I0
sg44
(lp2019
I2758383128
asg35
VPT2M11.2222846S
p2020
sg183
I0
sg184
VP0DT0H0M0.2833S
p2021
sg39
(dp2022
g41
VE6 Cratos HCS
p2023
sg43
Nssa(dp2024
g32
VImpulse
p2025
sg39
(dp2026
g41
VE6 Cratos HCS
p2027
sg43
Nssg397
I3435524855
sg35
VPT2M11.2412871S
p2028
sa(dp2029
g240
I4096745987
sg241
I00
sg242
I01
sg243
(dp2030
g41
VRNG Victory X
p2031
sg43
Nssg246
(lp2032
I2758383128
asg248
I00
sg249
I00
sg250
I1
sg251
I0
sg252
I1
sg253
(dp2033
Vy
F6.997509
sVx
F-10.566133499999999
sVz
F2.4001112
ssg255
(dp2034
Vy
F6.9880704900000001
sVx
F-10.3915405
sVz
F2.6275029999999999
ssg257
I00
sg258
(dp2035
g41
VE6 Shooter
p2036
sg43
Nssg261
(lp2037
sg263
(lp2038
sg267
I00
sg35
VPT2M13.4124267S
p2039
sg32
VDeath
p2040
sg270
I1
sa(dp2041
g32
VMedal
p2042
sg39
(dp2043
g41
VRNG Victory X
p2044
sg43
Nssg275
I2782465081
sg35
VPT2M13.4124267S
p2045
sa(dp2046
g32
VMedal
p2047
sg39
(dp2048
g41
VRNG Victory X
p2049
sg43
Nssg275
I250435527
sg35
VPT2M13.4134264S
p2050
sa(dp2051
g38
I4096745987
sg32
VWeaponDrop
p2052
sg180
I3
sg44
(lp2053
I2758383128
asg35
VPT2M13.4134264S
p2054
sg183
I2
sg184
VP0DT0H0M6.7000S
p2055
sg39
(dp2056
g41
VE6 Shooter
p2057
sg43
Nssa(dp2058
g38
I4096745987
sg32
VWeaponDrop
p2059
sg180
I0
sg44
(lp2060
I2758383128
asg35
VPT2M13.4134264S
p2061
sg183
I0
sg184
VP0DT0S
p2062
sg39
(dp2063
g41
VE6 Shooter
p2064
sg43
Nssa(dp2065
g38
I313138863
sg32
VWeaponDrop
p2066
sg180
I0
sg44
(lp2067
I1095363701
asg35
VPT2M13.414427S
p2068
sg183
I0
sg184
VP0DT0H0M1.3833S
p2069
sg39
(dp2070
g41
VE6 Shooter
p2071
sg43
Nssa(dp2072
g240
I4096745987
sg241
I00
sg242
I00
sg243
(dp2073
g41
VRNG Commonly
p2074
sg43
Nssg246
(lp2075
I2758383128
asg248
I00
sg249
I01
sg250
I1
sg251
I0
sg252
I1
sg253
(dp2076
Vy
F-12.5907173
sVx
F-0.025903793099999999
sVz
F3.4376144399999999
ssg255
(dp2077
Vy
F-7.1627936400000003
sVx
F8.6344919999999998
sVz
F0.94620984799999996
ssg257
I00
sg258
(dp2078
g41
VE6 Cratos HCS
p2079
sg43
Nssg261
(lp2080
sg263
(lp2081
sg267
I01
sg35
VPT2M13.7784498S
p2082
sg32
VDeath
p2083
sg270
I1
sa(dp2084
g32
VMedal
p2085
sg39
(dp2086
g41
VRNG Commonly
p2087
sg43
Nssg275
I3261908037
sg35
VPT2M13.7794499S
p2088
sa(dp2089
g38
I3484334713
sg32
VWeaponDrop
p2090
sg180
I1
sg44
(lp2091
I2758383128
asg35
VPT2M13.7804494S
p2092
sg183
I1
sg184
VP0DT0H0M12.4500S
p2093
sg39
(dp2094
g41
VE6 Cratos HCS
p2095
sg43
Nssa(dp2096
g38
I4096745987
sg32
VWeaponDrop
p2097
sg180
I14
sg44
(lp2098
I2758383128
asg35
VPT2M13.7804494S
p2099
sg183
I8
sg184
VP0DT0H0M27.8500S
p2100
sg39
(dp2101
g41
VE6 Cratos HCS
p2102
sg43
Nssa(dp2103
g240
I523953283
sg241
I00
sg242
I00
sg243
(dp2104
g41
VE6 Huke HCS
p2105
sg43
Nssg246
(lp2106
I1327094800
asg248
I00
sg249
I01
sg250
I1
sg251
I0
sg252
I1
sg253
(dp2107
Vy
F-11.029233899999999
sVx
F-6.5928773899999999
sVz
F0.89834780000000003
ssg255
(dp2108
Vy
F-9.1530459999999998
sVx
F10.520319000000001
sVz
F-0.0010834038300000001
ssg257
I00
sg258
(dp2109
g41
VRNG Penguin HCS
p2110
sg43
Nssg261
(lp2111
sg263
(lp2112
sg267
I01
sg35
VPT2M14.4804994S
p2113
sg32
VDeath
p2114
sg270
I1
sa(dp2115
g32
VMedal
p2116
sg39
(dp2117
g41
VE6 Huke HCS
p2118
sg43
Nssg275
I3261908037
sg35
VPT2M14.4824942S
p2119
sa(dp2120
g38
I313138863
sg32
VWeaponDrop
p2121
sg180
I0
sg44
(lp2122
I1095363701
asg35
VPT2M14.4885771S
p2123
sg183
I0
sg184
VP0DT0H0M2.7833S
p2124
sg39
(dp2125
g41
VRNG Penguin HCS
p2126
sg43
Nssa(dp2127
g38
I4096745987
sg32
VWeaponDrop
p2128
sg180
I0
sg44
(lp2129
I2758383128
asg35
VPT2M14.4885771S
p2130
sg183
I0
sg184
VP0DT0H0M9.6333S
p2131
sg39
(dp2132
g41
VRNG Penguin HCS
p2133
sg43
Nssa(dp2134
g38
I313138863
sg39
(dp2135
g41
VRNG Ninja HCS
p2136
sg43
Nssg44
(lp2137
I1095363701
asg32
VWeaponPickup
p2138
sg35
VPT2M15.2285429S
p2139
sa(dp2140
g38
I4096745987
sg39
(dp2141
g41
VRNG Ninja HCS
p2142
sg43
Nssg44
(lp2143
I2758383128
asg32
VWeaponPickup
p2144
sg35
VPT2M15.2285429S
p2145
sa(dp2146
g32
VPlayerSpawn
p2147
sg39
(dp2148
g41
VRNG Ninja HCS
p2149
sg43
Nssg35
VPT2M15.2285429S
p2150
sa(dp2151
g38
I313138863
sg39
(dp2152
g41
VE6 bubu dubu
p2153
sg43
Nssg44
(lp2154
I1095363701
asg32
VWeaponPickup
p2155
sg35
VPT2M16.0199341S
p2156
sa(dp2157
g38
I4096745987
sg39
(dp2158
g41
VE6 bubu dubu
p2159
sg43
Nssg44
(lp2160
I2758383128
asg32
VWeaponPickup
p2161
sg35
VPT2M16.0205937S
p2162
sa(dp2163
g32
VPlayerSpawn
p2164
sg39
(dp2165
g41
VE6 bubu dubu
p2166
sg43
Nssg35
VPT2M16.0205937S
p2167
sa(dp2168
g32
VMedal
p2169
sg39
(dp2170
g41
VRNG Victory X
p2171
sg43
Nssg275
I3400287617
sg35
VPT2M17.4236826S
p2172
sa(dp2173
g38
I313138863
sg32
VWeaponDrop
p2174
sg180
I0
sg44
(lp2175
I1095363701
asg35
VPT2M19.6105038S
p2176
sg183
I0
sg184
VP0DT0H0M2.2333S
p2177
sg39
(dp2178
g41
VRNG Ninja HCS
p2179
sg43
Nssa(dp2180
g38
I723523180
sg39
(dp2181
g41
VRNG Ninja HCS
p2182
sg43
Nssg44
(lp2183
I2758383128
asg32
VWeaponPickupPad
p2184
sg35
VPT2M19.6105038S
p2185
sa(dp2186
g38
I723523180
sg39
(dp2187
g41
VRNG Ninja HCS
p2188
sg43
Nssg44
(lp2189
I2758383128
asg32
VWeaponPickup
p2190
sg35
VPT2M19.6108229S
p2191
sa(dp2192
g38
I313138863
sg39
(dp2193
g41
VE6 Shooter
p2194
sg43
Nssg44
(lp2195
I1095363701
asg32
VWeaponPickup
p2196
sg35
VPT2M21.4429412S
p2197
sa(dp2198
g38
I4096745987
sg39
(dp2199
g41
VE6 Shooter
p2200
sg43
Nssg44
(lp2201
I2758383128
asg32
VWeaponPickup
p2202
sg35
VPT2M21.4429412S
p2203
sa(dp2204
g32
VPlayerSpawn
p2205
sg39
(dp2206
g41
VE6 Shooter
p2207
sg43
Nssg35
VPT2M21.4429412S
p2208
sa(dp2209
g38
I313138863
sg39
(dp2210
g41
VE6 Cratos HCS
p2211
sg43
Nssg44
(lp2212
I1095363701
asg32
VWeaponPickup
p2213
sg35
VPT2M21.7861984S
p2214
sa(dp2215
g38
I4096745987
sg39
(dp2216
g41
VE6 Cratos HCS
p2217
sg43
Nssg44
(lp2218
I2758383128
asg32
VWeaponPickup
p2219
sg35
VPT2M21.7869626S
p2220
sa(dp2221
g32
VPlayerSpawn
p2222
sg39
(dp2223
g41
VE6 Cratos HCS
p2224
sg43
Nssg35
VPT2M21.7869626S
p2225
sa(dp2226
g240
I723523180
sg241
I00
sg242
I00
sg243
(dp2227
g41
VRNG Ninja HCS
p2228
sg43
Nssg246
(lp2229
I2758383128
asg248
I00
sg249
I01
sg250
I1
sg251
I0
sg252
I1
sg253
(dp2230
Vy
F-6.2833819999999996
sVx
F-1.647788
sVz
F2.40126324
ssg255
(dp2231
Vy
F-13.389397600000001
sVx
F-4.0819816600000003
sVz
F3.3141004999999999
ssg257
I00
sg258
(dp2232
g41
VE6 Huke HCS
p2233
sg43
Nssg261
(lp2234
sg263
(lp2235
(dp2236
g41
VRNG Commonly
p2237
sg43
Nsasg267
I00
sg35
VPT2M21.9059697S
p2238
sg32
VDeath
p2239
sg270
I1
sa(dp2240
g38
I313138863
sg32
VWeaponDrop
p2241
sg180
I0
sg44
(lp2242
I1095363701
asg35
VPT2M21.9079693S
p2243
sg183
I0
sg184
VP0DT0H0M1.6000S
p2244
sg39
(dp2245
g41
VE6 Huke HCS
p2246
sg43
Nssa(dp2247
g38
I523953283
sg32
VWeaponDrop
p2248
sg180
I13
sg44
(lp2249
I1327094800
asg35
VPT2M21.9079693S
p2250
sg183
I8
sg184
VP0DT0H0M18.0667S
p2251
sg39
(dp2252
g41
VE6 Huke HCS
p2253
sg43
Nssa(dp2254
g240
I4096745987
sg241
I00
sg242
I00
sg243
(dp2255
g41
VRNG Victory X
p2256
sg43
Nssg246
(lp2257
I2758383128
asg248
I00
sg249
I01
sg250
I1
sg251
I0
sg252
I1
sg253
(dp2258
Vy
F6.8534107200000003
sVx
F-15.0096664
sVz
F3.3769981900000001
ssg255
(dp2259
Vy
F4.3830070000000001
sVx
F-18.152763400000001
sVz
F3.1291468099999999
ssg257
I00
sg258
(dp2260
g41
VE6 bubu dubu
p2261
sg43
Nssg261
(lp2262
sg263
(lp2263
sg267
I01
sg35
VPT2M22.1119832S
p2264
sg32
VDeath
p2265
sg270
I1
sa(dp2266
g32
VMedal
p2267
sg39
(dp2268
g41
VRNG Victory X
p2269
sg43
Nssg275
I3261908037
sg35
VPT2M22.1205516S
p2270
sa(dp2271
g38
I313138863
sg32
VWeaponDrop
p2272
sg180
I0
sg44
(lp2273
I1095363701
asg35
VPT2M22.1209851S
p2274
sg183
I0
sg184
VP0DT0H0M0.6833S
p2275
sg39
(dp2276
g41
VE6 bubu dubu
p2277
sg43
Nssa(dp2278
g38
I4096745987
sg32
VWeaponDrop
p2279
sg180
I9
sg44
(lp2280
I2758383128
asg35
VPT2M22.1209851S
p2281
sg183
I4
sg184
VP0DT0H0M5.4000S
p2282
sg39
(dp2283
g41
VE6 bubu dubu
p2284
sg43
Nssa(dp2285
g38
I313138863
sg39
(dp2286
g41
VRNG Penguin HCS
p2287
sg43
Nssg44
(lp2288
I1095363701
asg32
VWeaponPickup
p2289
sg35
VPT2M22.5020081S
p2290
sa(dp2291
g38
I4096745987
sg39
(dp2292
g41
VRNG Penguin HCS
p2293
sg43
Nssg44
(lp2294
I2758383128
asg32
VWeaponPickup
p2295
sg35
VPT2M22.5020081S
p2296
sa(dp2297
g32
VPlayerSpawn
p2298
sg39
(dp2299
g41
VRNG Penguin HCS
p2300
sg43
Nssg35
VPT2M22.5020081S
p2301
sa(dp2302
g38
I2244200496
sg39
(dp2303
g41
VRNG Victory X
p2304
sg43
Nssg44
(lp2305
I2758383128
asg32
VWeaponPickup
p2306
sg35
VPT2M25.7232123S
p2307
sa(dp2308
g32
VImpulse
p2309
sg39
(dp2310
g41
VRNG Victory X
p2311
sg43
Nssg397
I4191318012
sg35
VPT2M25.7402149S
p2312
sa(dp2313
g32
VImpulse
p2314
sg39
(dp2315
g41
VRNG Victory X
p2316
sg43
Nssg397
I1039658009
sg35
VPT2M25.7402149S
p2317
sa(dp2318
g32
VMedal
p2319
sg39
(dp2320
g41
VRNG Penguin HCS
p2321
sg43
Nssg275
I2380717523
sg35
VPT2M25.9472285S
p2322
sa(dp2323
g32
VImpulse
p2324
sg39
(dp2325
g41
VRNG Penguin HCS
p2326
sg43
Nssg397
I1063951891
sg35
VPT2M25.9472285S
p2327
sa(dp2328
g32
VMedal
p2329
sg39
(dp2330
g41
VRNG Victory X
p2331
sg43
Nssg275
I3400287617
sg35
VPT2M26.054399S
p2332
sa(dp2333
g38
I2244200496
sg32
VWeaponDrop
p2334
sg180
I0
sg44
(lp2335
I2758383128
asg35
VPT2M26.6115442S
p2336
sg183
I0
sg184
VP0DT0H0M0.7167S
p2337
sg39
(dp2338
g41
VRNG Victory X
p2339
sg43
Nssa(dp2340
g32
VImpulse
p2341
sg39
(dp2342
g41
VRNG Victory X
p2343
sg43
Nssg397
I3435524855
sg35
VPT2M26.6122711S
p2344
sa(dp2345
g38
I2492868984
sg39
(dp2346
g41
VRNG Ninja HCS
p2347
sg43
Nssg44
(lp2348
I2758383128
asg32
VWeaponPickup
p2349
sg35
VPT2M26.8442862S
p2350
sa(dp2351
g38
I2492868984
sg32
VWeaponDrop
p2352
sg180
I0
sg44
(lp2353
I2758383128
asg35
VPT2M28.075364S
p2354
sg183
I0
sg184
VP0DT0H0M0.9833S
p2355
sg39
(dp2356
g41
VRNG Ninja HCS
p2357
sg43
Nssa(dp2358
g38
I2244200496
sg39
(dp2359
g41
VRNG Victory X
p2360
sg43
Nssg44
(lp2361
I2758383128
asg32
VWeaponPickup
p2362
sg35
VPT2M28.9445588S
p2363
sa(dp2364
g32
VImpulse
p2365
sg39
(dp2366
g41
VRNG Victory X
p2367
sg43
Nssg397
I4191318012
sg35
VPT2M28.9454212S
p2368
sa(dp2369
g38
I2244200496
sg32
VWeaponDrop
p2370
sg180
I0
sg44
(lp2371
I2758383128
asg35
VPT2M29.2734411S
p2372
sg183
I0
sg184
VP0DT0H0M0.2000S
p2373
sg39
(dp2374
g41
VRNG Victory X
p2375
sg43
Nssa(dp2376
g32
VImpulse
p2377
sg39
(dp2378
g41
VRNG Victory X
p2379
sg43
Nssg397
I3435524855
sg35
VPT2M29.2924411S
p2380
sa(dp2381
g38
I313138863
sg39
(dp2382
g41
VE6 Huke HCS
p2383
sg43
Nssg44
(lp2384
I1095363701
asg32
VWeaponPickup
p2385
sg35
VPT2M29.9114826S
p2386
sa(dp2387
g38
I4096745987
sg39
(dp2388
g41
VE6 Huke HCS
p2389
sg43
Nssg44
(lp2390
I2758383128
asg32
VWeaponPickup
p2391
sg35
VPT2M29.9114826S
p2392
sa(dp2393
g32
VPlayerSpawn
p2394
sg39
(dp2395
g41
VE6 Huke HCS
p2396
sg43
Nssg35
VPT2M29.9114826S
p2397
sa(dp2398
g38
I313138863
sg39
(dp2399
g41
VE6 bubu dubu
p2400
sg43
Nssg44
(lp2401
I1095363701
asg32
VWeaponPickup
p2402
sg35
VPT2M30.1194956S
p2403
sa(dp2404
g38
I4096745987
sg39
(dp2405
g41
VE6 bubu dubu
p2406
sg43
Nssg44
(lp2407
I2758383128
asg32
VWeaponPickup
p2408
sg35
VPT2M30.1194956S
p2409
sa(dp2410
g32
VPlayerSpawn
p2411
sg39
(dp2412
g41
VE6 bubu dubu
p2413
sg43
Nssg35
VPT2M30.1194956S
p2414
sa(dp2415
g240
I4096745987
sg241
I00
sg242
I00
sg243
(dp2416
g41
VE6 Cratos HCS
p2417
sg43
Nssg246
(lp2418
I2758383128
asg248
I00
sg249
I01
sg250
I1
sg251
I0
sg252
I1
sg253
(dp2419
Vy
F6.3680462799999997
sVx
F-6.3097709999999996
sVz
F2.4549131399999999
ssg255
(dp2420
Vy
F-8.1181850000000004
sVx
F-9.4751720000000006
sVz
F-0.0010834336300000001
ssg257
I00
sg258
(dp2421
g41
VRNG Victory X
p2422
sg43
Nssg261
(lp2423
sg263
(lp2424
sg267
I01
sg35
VPT2M30.131496S
p2425
sg32
VDeath
p2426
sg270
I1
sa(dp2427
g32
VMedal
p2428
sg39
(dp2429
g41
VE6 Cratos HCS
p2430
sg43
Nssg275
I164204247
sg35
VPT2M30.1389725S
p2431
sa(dp2432
g32
VMedal
p2433
sg39
(dp2434
g41
VE6 Cratos HCS
p2435
sg43
Nssg275
I3261908037
sg35
VPT2M30.1390389S
p2436
sa(dp2437
g38
I313138863
sg32
VWeaponDrop
p2438
sg180
I0
sg44
(lp2439
I1095363701
asg35
VPT2M30.1394965S
p2440
sg183
I0
sg184
VP0DT0H0M0.4167S
p2441
sg39
(dp2442
g41
VRNG Victory X
p2443
sg43
Nssa(dp2444
g38
I4096745987
sg32
VWeaponDrop
p2445
sg180
I18
sg44
(lp2446
I2758383128
asg35
VPT2M30.1394965S
p2447
sg183
I12
sg184
VP0DT0H0M26.2167S
p2448
sg39
(dp2449
g41
VRNG Victory X
p2450
sg43
Nssa(dp2451
g38
I4096745987
sg32
VWeaponDrop
p2452
sg180
I0
sg44
(lp2453
I2758383128
asg35
VPT2M30.1394965S
p2454
sg183
I0
sg184
VP0DT0S
p2455
sg39
(dp2456
g41
VRNG Victory X
p2457
sg43
Nssa(dp2458
g38
I2244200496
sg39
(dp2459
g41
VRNG Commonly
p2460
sg43
Nssg44
(lp2461
I2758383128
asg32
VWeaponPickup
p2462
sg35
VPT2M32.3937268S
p2463
sa(dp2464
g32
VImpulse
p2465
sg39
(dp2466
g41
VRNG Commonly
p2467
sg43
Nssg397
I4191318012
sg35
VPT2M32.3937268S
p2468
sa(dp2469
g38
I313138863
sg32
VWeaponDrop
p2470
sg180
I0
sg44
(lp2471
I1095363701
asg35
VPT2M34.9068112S
p2472
sg183
I0
sg184
VP0DT0H0M1.7500S
p2473
sg39
(dp2474
g41
VE6 bubu dubu
p2475
sg43
Nssa(dp2476
g38
I2015271382
sg39
(dp2477
g41
VE6 bubu dubu
p2478
sg43
Nssg44
(lp2479
I2758383128
asg32
VWeaponPickup
p2480
sg35
VPT2M34.9068112S
p2481
sa(dp2482
g38
I313138863
sg39
(dp2483
g41
VRNG Victory X
p2484
sg43
Nssg44
(lp2485
I1095363701
asg32
VWeaponPickup
p2486
sg35
VPT2M38.1609987S
p2487
sa(dp2488
g38
I4096745987
sg39
(dp2489
g41
VRNG Victory X
p2490
sg43
Nssg44
(lp2491
I2758383128
asg32
VWeaponPickup
p2492
sg35
VPT2M38.1609987S
p2493
sa(dp2494
g32
VPlayerSpawn
p2495
sg39
(dp2496
g41
VRNG Victory X
p2497
sg43
Nssg35
VPT2M38.1609987S
p2498
sa(dp2499
g240
I4096745987
sg241
I00
sg242
I00
sg243
(dp2500
g41
VRNG Penguin HCS
p2501
sg43
Nssg246
(lp2502
I2758383128
asg248
I00
sg249
I01
sg250
I1
sg251
I0
sg252
I1
sg253
(dp2503
Vy
F-5.6500510000000004
sVx
F5.9873019999999997
sVz
F2.4000832999999999
ssg255
(dp2504
Vy
F11.282000500000001
sVx
F11.644289000000001
sVz
F2.2976130000000001
ssg257
I00
sg258
(dp2505
g41
VE6 Shooter
p2506
sg43
Nssg261
(lp2507
sg263
(lp2508
(dp2509
g41
VRNG Ninja HCS
p2510
sg43
Nsasg267
I01
sg35
VPT2M38.7270313S
p2511
sg32
VDeath
p2512
sg270
I1
sa(dp2513
g32
VMedal
p2514
sg39
(dp2515
g41
VRNG Penguin HCS
p2516
sg43
Nssg275
I3261908037
sg35
VPT2M38.7290309S
p2517
sa(dp2518
g38
I313138863
sg32
VWeaponDrop
p2519
sg180
I0
sg44
(lp2520
I1095363701
asg35
VPT2M38.7290309S
p2521
sg183
I0
sg184
VP0DT0H0M3.3667S
p2522
sg39
(dp2523
g41
VE6 Shooter
p2524
sg43
Nssa(dp2525
g38
I4096745987
sg32
VWeaponDrop
p2526
sg180
I21
sg44
(lp2527
I2758383128
asg35
VPT2M38.7290309S
p2528
sg183
I13
sg184
VP0DT0H0M13.9167S
p2529
sg39
(dp2530
g41
VE6 Shooter
p2531
sg43
Nssa(dp2532
g240
I4106030681
sg241
I00
sg242
I00
sg243
(dp2533
g41
VRNG Victory X
p2534
sg43
Nssg246
(lp2535
sg248
I00
sg249
I00
sg250
I2
sg251
I0
sg252
I0
sg253
(dp2536
Vy
F-0.49123045799999998
sVx
F15.428892100000001
sVz
F0.048725009999999999
ssg255
(dp2537
Vy
F10.3162374
sVx
F14.6963978
sVz
F4.5090459999999997
ssg257
I00
sg258
(dp2538
g1437
g1438
ssg261
(lp2539
sg263
(lp2540
sg267
I00
sg35
VPT2M41.9103743S
p2541
sg32
VDeath
p2542
sg270
I1
sa(dp2543
g240
I313138863
sg241
I00
sg242
I00
sg243
(dp2544
g41
VE6 Huke HCS
p2545
sg43
Nssg246
(lp2546
I1095363701
asg248
I00
sg249
I01
sg250
I1
sg251
I0
sg252
I1
sg253
(dp2547
Vy
F9.8365609999999997
sVx
F15.483919999999999
sVz
F0.57890699999999995
ssg255
(dp2548
Vy
F7.3279032700000002
sVx
F14.1421566
sVz
F-0.0010563879999999999
ssg257
I00
sg258
(dp2549
g41
VRNG Ninja HCS
p2550
sg43
Nssg261
(lp2551
sg263
(lp2552
(dp2553
g41
VE6 Shooter
p2554
sg43
Nsasg267
I00
sg35
VPT2M41.9422162S
p2555
sg32
VDeath
p2556
sg270
I1
sa(dp2557
g38
I723523180
sg32
VWeaponDrop
p2558
sg180
I4
sg44
(lp2559
I2758383128
asg35
VPT2M41.9442165S
p2560
sg183
I4
sg184
VP0DT0H0M16.0000S
p2561
sg39
(dp2562
g41
VRNG Ninja HCS
p2563
sg43
Nssa(dp2564
g38
I4096745987
sg32
VWeaponDrop
p2565
sg180
I2
sg44
(lp2566
I2758383128
asg35
VPT2M41.9442165S
p2567
sg183
I0
sg184
VP0DT0H0M7.4833S
p2568
sg39
(dp2569
g41
VRNG Ninja HCS
p2570
sg43
Nssa(dp2571
g38
I313138863
sg32
VWeaponDrop
p2572
sg180
I2
sg44
(lp2573
I1095363701
asg35
VPT2M44.5964403S
p2574
sg183
I2
sg184
VP0DT0H0M15.2833S
p2575
sg39
(dp2576
g41
VRNG Penguin HCS
p2577
sg43
Nssa(dp2578
g38
I2015271382
sg39
(dp2579
g41
VRNG Penguin HCS
p2580
sg43
Nssg44
(lp2581
I2758383128
asg32
VWeaponPickup
p2582
sg35
VPT2M44.596574S
p2583
sa(dp2584
g240
I4096745987
sg241
I00
sg242
I00
sg243
(dp2585
g41
VE6 Cratos HCS
p2586
sg43
Nssg246
(lp2587
I2758383128
asg248
I00
sg249
I01
sg250
I1
sg251
I0
sg252
I1
sg253
(dp2588
Vy
F-7.6274309999999996
sVx
F-1.35146809
sVz
F1.0152202800000001
ssg255
(dp2589
Vy
F-9.027533
sVx
F13.4756184
sVz
F1.10993612
ssg257
I00
sg258
(dp2590
g41
VRNG Commonly
p2591
sg43
Nssg261
(lp2592
sg263
(lp2593
sg267
I01
sg35
VPT2M45.2084039S
p2594
sg32
VDeath
p2595
sg270
I1
sa(dp2596
g32
VMedal
p2597
sg39
(dp2598
g41
VE6 Cratos HCS
p2599
sg43
Nssg275
I2028249938
sg35
VPT2M45.2104041S
p2600
sa(dp2601
g32
VImpulse
p2602
sg39
(dp2603
g41
VE6 Cratos HCS
p2604
sg43
Nssg397
I2299858338
sg35
VPT2M45.2104041S
p2605
sa(dp2606
g32
VMedal
p2607
sg39
(dp2608
g41
VE6 Cratos HCS
p2609
sg43
Nssg275
I3261908037
sg35
VPT2M45.2114043S
p2610
sa(dp2611
g38
I313138863
sg32
VWeaponDrop
p2612
sg180
I31
sg44
(lp2613
I1095363701
asg35
VPT2M45.2179216S
p2614
sg183
I9
sg184
VP0DT0H0M12.1000S
p2615
sg39
(dp2616
g41
VRNG Commonly
p2617
sg43
Nssa(dp2618
g38
I4096745987
sg32
VWeaponDrop
p2619
sg180
I12
sg44
(lp2620
I2758383128
asg35
VPT2M45.2179216S
p2621
sg183
I10
sg184
VP0DT0H0M18.3167S
p2622
sg39
(dp2623
g41
VRNG Commonly
p2624
sg43
Nssa(dp2625
g38
I2244200496
sg32
VWeaponDrop
p2626
sg180
I7
sg44
(lp2627
I2758383128
asg35
VPT2M45.2179216S
p2628
sg183
I4
sg184
VP0DT0H0M12.6667S
p2629
sg39
(dp2630
g41
VRNG Commonly
p2631
sg43
Nssa(dp2632
g240
I4106030681
sg241
I00
sg242
I00
sg243
(dp2633
g41
VE6 Huke HCS
p2634
sg43
Nssg246
(lp2635
sg248
I00
sg249
I00
sg250
I2
sg251
I0
sg252
I0
sg253
(dp2636
Vy
F4.5997820000000003
sVx
F18.812065100000002
sVz
F1.78428268
ssg255
(dp2637
Vy
F-3.44151235
sVx
F13.843156799999999
sVz
F5.2418360000000002
ssg257
I00
sg258
(dp2638
g1437
g1438
ssg261
(lp2639
sg263
(lp2640
sg267
I00
sg35
VPT2M45.2194059S
p2641
sg32
VDeath
p2642
sg270
I1
sa(dp2643
g32
VImpulse
p2644
sg39
(dp2645
g41
VRNG Commonly
p2646
sg43
Nssg397
I3435524855
sg35
VPT2M45.2284045S
p2647
sa(dp2648
g240
I4106030681
sg241
I00
sg242
I00
sg243
(dp2649
g41
VE6 Huke HCS
p2650
sg43
Nssg246
(lp2651
sg248
I00
sg249
I00
sg250
I2
sg251
I0
sg252
I0
sg253
(dp2652
Vy
F6.2015867199999999
sVx
F17.357420000000001
sVz
F2.4344897300000001
ssg255
(dp2653
Vy
F-10.789844499999999
sVx
F16.322803499999999
sVz
F4.230613
ssg257
I00
sg258
(dp2654
g1437
g1438
ssg261
(lp2655
sg263
(lp2656
sg267
I00
sg35
VPT2M46.6784888S
p2657
sg32
VDeath
p2658
sg270
I1
sa(dp2659
g38
I313138863
sg39
(dp2660
g41
VE6 Shooter
p2661
sg43
Nssg44
(lp2662
I1095363701
asg32
VWeaponPickup
p2663
sg35
VPT2M46.7294919S
p2664
sa(dp2665
g38
I4096745987
sg39
(dp2666
g41
VE6 Shooter
p2667
sg43
Nssg44
(lp2668
I2758383128
asg32
VWeaponPickup
p2669
sg35
VPT2M46.7294919S
p2670
sa(dp2671
g32
VPlayerSpawn
p2672
sg39
(dp2673
g41
VE6 Shooter
p2674
sg43
Nssg35
VPT2M46.7294919S
p2675
sa(dp2676
g240
I313138863
sg241
I00
sg242
I00
sg243
(dp2677
g41
VRNG Victory X
p2678
sg43
Nssg246
(lp2679
I1095363701
asg248
I00
sg249
I01
sg250
I1
sg251
I0
sg252
I1
sg253
(dp2680
Vy
F8.0467239999999993
sVx
F20.1110039
sVz
F0.70947450000000001
ssg255
(dp2681
Vy
F8.8519100000000002
sVx
F15.8723068
sVz
F0.72440859999999996
ssg257
I00
sg258
(dp2682
g41
VE6 Huke HCS
p2683
sg43
Nssg261
(lp2684
sg263
(lp2685
sg267
I00
sg35
VPT2M48.1985761S
p2686
sg32
VDeath
p2687
sg270
I1
sa(dp2688
g38
I313138863
sg32
VWeaponDrop
p2689
sg180
I9
sg44
(lp2690
I1095363701
asg35
VPT2M48.205835S
p2691
sg183
I2
sg184
VP0DT0H0M4.7833S
p2692
sg39
(dp2693
g41
VE6 Huke HCS
p2694
sg43
Nssa(dp2695
g38
I4096745987
sg32
VWeaponDrop
p2696
sg180
I14
sg44
(lp2697
I2758383128
asg35
VPT2M48.205835S
p2698
sg183
I12
sg184
VP0DT0H0M13.5000S
p2699
sg39
(dp2700
g41
VE6 Huke HCS
p2701
sg43
Nssa(dp2702
g38
I313138863
sg39
(dp2703
g41
VRNG Ninja HCS
p2704
sg43
Nssg44
(lp2705
I1095363701
asg32
VWeaponPickup
p2706
sg35
VPT2M49.9545863S
p2707
sa(dp2708
g38
I4096745987
sg39
(dp2709
g41
VRNG Ninja HCS
p2710
sg43
Nssg44
(lp2711
I2758383128
asg32
VWeaponPickup
p2712
sg35
VPT2M49.9547857S
p2713
sa(dp2714
g32
VPlayerSpawn
p2715
sg39
(dp2716
g41
VRNG Ninja HCS
p2717
sg43
Nssg35
VPT2M49.9547857S
p2718
sa(dp2719
g240
I4096745987
sg241
I00
sg242
I00
sg243
(dp2720
g41
VRNG Victory X
p2721
sg43
Nssg246
(lp2722
I2758383128
asg248
I00
sg249
I01
sg250
I1
sg251
I0
sg252
I1
sg253
(dp2723
Vy
F7.759004
sVx
F15.239727
sVz
F0.00062242150000000002
ssg255
(dp2724
Vy
F1.12041879
sVx
F7.5049595800000004
sVz
F2.0231029999999999
ssg257
I00
sg258
(dp2725
g41
VE6 bubu dubu
p2726
sg43
Nssg261
(lp2727
sg263
(lp2728
(dp2729
g41
VRNG Penguin HCS
p2730
sg43
Nsasg267
I01
sg35
VPT2M50.4607063S
p2731
sg32
VDeath
p2732
sg270
I1
sa(dp2733
g32
VMedal
p2734
sg39
(dp2735
g41
VRNG Victory X
p2736
sg43
Nssg275
I3261908037
sg35
VPT2M50.4628351S
p2737
sa(dp2738
g32
VMedal
p2739
sg39
(dp2740
g41
VRNG Victory X
p2741
sg43
Nssg275
I2078758684
sg35
VPT2M50.4637065S
p2742
sa(dp2743
g38
I2015271382
sg32
VWeaponDrop
p2744
sg180
I0
sg44
(lp2745
I2758383128
asg35
VPT2M50.4637065S
p2746
sg183
I0
sg184
VP0DT0H0M1.6833S
p2747
sg39
(dp2748
g41
VE6 bubu dubu
p2749
sg43
Nssa(dp2750
g38
I4096745987
sg32
VWeaponDrop
p2751
sg180
I0
sg44
(lp2752
I2758383128
asg35
VPT2M50.4637065S
p2753
sg183
I0
sg184
VP0DT0H0M16.9000S
p2754
sg39
(dp2755
g41
VE6 bubu dubu
p2756
sg43
Nssa(dp2757
g38
I313138863
sg39
(dp2758
g41
VRNG Commonly
p2759
sg43
Nssg44
(lp2760
I1095363701
asg32
VWeaponPickup
p2761
sg35
VPT2M53.2227695S
p2762
sa(dp2763
g38
I4096745987
sg39
(dp2764
g41
VRNG Commonly
p2765
sg43
Nssg44
(lp2766
I2758383128
asg32
VWeaponPickup
p2767
sg35
VPT2M53.2228652S
p2768
sa(dp2769
g32
VPlayerSpawn
p2770
sg39
(dp2771
g41
VRNG Commonly
p2772
sg43
Nssg35
VPT2M53.2228652S
p2773
sa(dp2774
g240
I313138863
sg241
I00
sg242
I01
sg243
(dp2775
g41
VE6 Cratos HCS
p2776
sg43
Nssg246
(lp2777
I1095363701
asg248
I00
sg249
I00
sg250
I1
sg251
I0
sg252
I1
sg253
(dp2778
Vy
F-7.3993669999999998
sVx
F5.5468380000000002
sVz
F0.58726849999999997
ssg255
(dp2779
Vy
F-7.2932944300000004
sVx
F5.6661596300000001
sVz
F1.16714334
ssg257
I00
sg258
(dp2780
g41
VRNG Penguin HCS
p2781
sg43
Nssg261
(lp2782
sg263
(lp2783
(dp2784
g41
VE6 Shooter
p2785
sg43
Nsasg267
I00
sg35
VPT2M55.1969786S
p2786
sg32
VDeath
p2787
sg270
I1
sa(dp2788
g32
VMedal
p2789
sg39
(dp2790
g41
VE6 Cratos HCS
p2791
sg43
Nssg275
I2287626681
sg35
VPT2M55.1979796S
p2792
sa(dp2793
g38
I2015271382
sg32
VWeaponDrop
p2794
sg180
I5
sg44
(lp2795
I2758383128
asg35
VPT2M55.1989797S
p2796
sg183
I4
sg184
VP0DT0H0M4.3333S
p2797
sg39
(dp2798
g41
VRNG Penguin HCS
p2799
sg43
Nssa(dp2800
g38
I4096745987
sg32
VWeaponDrop
p2801
sg180
I7
sg44
(lp2802
I2758383128
asg35
VPT2M55.1989797S
p2803
sg183
I2
sg184
VP0DT0H0M13.0667S
p2804
sg39
(dp2805
g41
VRNG Penguin HCS
p2806
sg43
Nssa(dp2807
g240
I4106030681
sg241
I00
sg242
I00
sg243
(dp2808
g41
VE6 Shooter
p2809
sg43
Nssg246
(lp2810
sg248
I00
sg249
I00
sg250
I2
sg251
I0
sg252
I0
sg253
(dp2811
Vy
F-11.5523224
sVx
F6.8783539999999999
sVz
F1.0357841299999999
ssg255
(dp2812
Vy
F-8.1658690000000007
sVx
F15.5973978
sVz
F5.1185619999999998
ssg257
I00
sg258
(dp2813
g1437
g1438
ssg261
(lp2814
sg263
(lp2815
sg267
I00
sg35
VPT2M55.4044447S
p2816
sg32
VDeath
p2817
sg270
I1
sa(dp2818
g38
I313138863
sg39
(dp2819
g41
VE6 Huke HCS
p2820
sg43
Nssg44
(lp2821
I1095363701
asg32
VWeaponPickup
p2822
sg35
VPT2M56.2054221S
p2823
sa(dp2824
g38
I4096745987
sg39
(dp2825
g41
VE6 Huke HCS
p2826
sg43
Nssg44
(lp2827
I2758383128
asg32
VWeaponPickup
p2828
sg35
VPT2M56.206038S
p2829
sa(dp2830
g32
VPlayerSpawn
p2831
sg39
(dp2832
g41
VE6 Huke HCS
p2833
sg43
Nssg35
VPT2M56.206038S
p2834
sa(dp2835
g38
I4096745987
sg32
VWeaponDrop
p2836
sg180
I0
sg44
(lp2837
I2758383128
asg35
VPT2M58.1463249S
p2838
sg183
I0
sg184
VP0DT0H0M3.7333S
p2839
sg39
(dp2840
g41
VRNG Commonly
p2841
sg43
Nssa(dp2842
g38
I523953283
sg39
(dp2843
g41
VRNG Commonly
p2844
sg43
Nssg44
(lp2845
I1327094800
asg32
VWeaponPickup
p2846
sg35
VPT2M58.1463249S
p2847
sa(dp2848
g38
I313138863
sg39
(dp2849
g41
VE6 bubu dubu
p2850
sg43
Nssg44
(lp2851
I1095363701
asg32
VWeaponPickup
p2852
sg35
VPT2M58.4761682S
p2853
sa(dp2854
g38
I4096745987
sg39
(dp2855
g41
VE6 bubu dubu
p2856
sg43
Nssg44
(lp2857
I2758383128
asg32
VWeaponPickup
p2858
sg35
VPT2M58.4761682S
p2859
sa(dp2860
g32
VPlayerSpawn
p2861
sg39
(dp2862
g41
VE6 bubu dubu
p2863
sg43
Nssg35
VPT2M58.4761682S
p2864
sa(dp2865
g32
VMedal
p2866
sg39
(dp2867
g41
VE6 Shooter
p2868
sg43
Nssg275
I2380717523
sg35
VPT2M59.4957183S
p2869
sa(dp2870
g32
VImpulse
p2871
sg39
(dp2872
g41
VE6 Shooter
p2873
sg43
Nssg397
I1063951891
sg35
VPT2M59.4957183S
p2874
sa(dp2875
g240
I4096745987
sg241
I00
sg242
I00
sg243
(dp2876
g41
VRNG Ninja HCS
p2877
sg43
Nssg246
(lp2878
I2758383128
asg248
I00
sg249
I01
sg250
I1
sg251
I0
sg252
I1
sg253
(dp2879
Vy
F-8.5989100000000001
sVx
F5.7627280000000001
sVz
F1.8465106499999999
ssg255
(dp2880
Vy
F-8.2055419999999994
sVx
F12.8171806
sVz
F-0.001083374
ssg257
I00
sg258
(dp2881
g41
VE6 Shooter
p2882
sg43
Nssg261
(lp2883
sg263
(lp2884
(dp2885
g41
VRNG Victory X
p2886
sg43
Nsasg267
I01
sg35
VPT2M59.7452415S
p2887
sg32
VDeath
p2888
sg270
I1
sa(dp2889
g32
VMedal
p2890
sg39
(dp2891
g41
VRNG Ninja HCS
p2892
sg43
Nssg275
I2838259753
sg35
VPT2M59.7452415S
p2893
sa(dp2894
g32
VImpulse
p2895
sg39
(dp2896
g41
VRNG Ninja HCS
p2897
sg43
Nssg397
I2556889090
sg35
VPT2M59.7452415S
p2898
sa(dp2899
g32
VMedal
p2900
sg39
(dp2901
g41
VRNG Ninja HCS
p2902
sg43
Nssg275
I3261908037
sg35
VPT2M59.7462417S
p2903
sa(dp2904
g38
I313138863
sg32
VWeaponDrop
p2905
sg180
I10
sg44
(lp2906
I1095363701
asg35
VPT2M59.7472422S
p2907
sg183
I9
sg184
VP0DT0H0M3.4833S
p2908
sg39
(dp2909
g41
VE6 Shooter
p2910
sg43
Nssa(dp2911
g38
I4096745987
sg32
VWeaponDrop
p2912
sg180
I7
sg44
(lp2913
I2758383128
asg35
VPT2M59.7538081S
p2914
sg183
I4
sg184
VP0DT0H0M9.5167S
p2915
sg39
(dp2916
g41
VE6 Shooter
p2917
sg43
Nssa(dp2918
g240
I4096745987
sg241
I00
sg242
I00
sg243
(dp2919
g41
VRNG Victory X
p2920
sg43
Nssg246
(lp2921
I2758383128
asg248
I00
sg249
I01
sg250
I1
sg251
I0
sg252
I1
sg253
(dp2922
Vy
F-9.4774440000000002
sVx
F-1.4815021799999999
sVz
F0.60872924299999998
ssg255
(dp2923
Vy
F-9.3716709999999992
sVx
F7.5417959999999997
sVz
F0.88557297000000001
ssg257
I00
sg258
(dp2924
g41
VE6 Cratos HCS
p2925
sg43
Nssg261
(lp2926
sg263
(lp2927
(dp2928
g41
VRNG Ninja HCS
p2929
sg43
Nsasg267
I01
sg35
VPT3M1.9743698S
p2930
sg32
VDeath
p2931
sg270
I1
sa(dp2932
g32
VMedal
p2933
sg39
(dp2934
g41
VRNG Victory X
p2935
sg43
Nssg275
I2838259753
sg35
VPT3M1.9753703S
p2936
sa(dp2937
g32
VImpulse
p2938
sg39
(dp2939
g41
VRNG Victory X
p2940
sg43
Nssg397
I2556889090
sg35
VPT3M1.9753703S
p2941
sa(dp2942
g32
VMedal
p2943
sg39
(dp2944
g41
VRNG Victory X
p2945
sg43
Nssg275
I2494364276
sg35
VPT3M1.9753703S
p2946
sa(dp2947
g32
VMedal
p2948
sg39
(dp2949
g41
VRNG Victory X
p2950
sg43
Nssg275
I3261908037
sg35
VPT3M1.9763699S
p2951
sa(dp2952
g38
I313138863
sg32
VWeaponDrop
p2953
sg180
I16
sg44
(lp2954
I1095363701
asg35
VPT3M1.9827718S
p2955
sg183
I10
sg184
VP0DT0H0M8.3000S
p2956
sg39
(dp2957
g41
VE6 Cratos HCS
p2958
sg43
Nssa(dp2959
g38
I313138863
sg32
VWeaponDrop
p2960
sg180
I0
sg44
(lp2961
I1095363701
asg35
VPT3M1.9827718S
p2962
sg183
I0
sg184
VP0DT0S
p2963
sg39
(dp2964
g41
VE6 Cratos HCS
p2965
sg43
Nssa(dp2966
g38
I4096745987
sg32
VWeaponDrop
p2967
sg180
I21
sg44
(lp2968
I2758383128
asg35
VPT3M1.9827718S
p2969
sg183
I10
sg184
VP0DT0H0M31.8833S
p2970
sg39
(dp2971
g41
VE6 Cratos HCS
p2972
sg43
Nssa(dp2973
g240
I4096745987
sg241
I00
sg242
I00
sg243
(dp2974
g41
VE6 bubu dubu
p2975
sg43
Nssg246
(lp2976
I2758383128
asg248
I00
sg249
I01
sg250
I1
sg251
I0
sg252
I1
sg253
(dp2977
Vy
F-8.6679060000000003
sVx
F-5.6661415100000001
sVz
F1.22432816
ssg255
(dp2978
Vy
F-8.6436329999999995
sVx
F-2.9423065199999998
sVz
F1.00315917
ssg257
I00
sg258
(dp2979
g41
VRNG Victory X
p2980
sg43
Nssg261
(lp2981
sg263
(lp2982
(dp2983
g41
VE6 Shooter
p2984
sg43
Nsa(dp2985
g41
VE6 Huke HCS
p2986
sg43
Nsasg267
I00
sg35
VPT3M2.7584154S
p2987
sg32
VDeath
p2988
sg270
I1
sa(dp2989
g38
I313138863
sg32
VWeaponDrop
p2990
sg180
I20
sg44
(lp2991
I1095363701
asg35
VPT3M2.7604149S
p2992
sg183
I11
sg184
VP0DT0H0M6.1167S
p2993
sg39
(dp2994
g41
VRNG Victory X
p2995
sg43
Nssa(dp2996
g38
I4096745987
sg32
VWeaponDrop
p2997
sg180
I19
sg44
(lp2998
I2758383128
asg35
VPT3M2.7604149S
p2999
sg183
I7
sg184
VP0DT0H0M18.4833S
p3000
sg39
(dp3001
g41
VRNG Victory X
p3002
sg43
Nssa(dp3003
g38
I313138863
sg39
(dp3004
g41
VRNG Penguin HCS
p3005
sg43
Nssg44
(lp3006
I1095363701
asg32
VWeaponPickup
p3007
sg35
VPT3M3.210441S
p3008
sa(dp3009
g38
I4096745987
sg39
(dp3010
g41
VRNG Penguin HCS
p3011
sg43
Nssg44
(lp3012
I2758383128
asg32
VWeaponPickup
p3013
sg35
VPT3M3.2116049S
p3014
sa(dp3015
g32
VPlayerSpawn
p3016
sg39
(dp3017
g41
VRNG Penguin HCS
p3018
sg43
Nssg35
VPT3M3.2116049S
p3019
sa(dp3020
g240
I4096745987
sg241
I00
sg242
I00
sg243
(dp3021
g41
VE6 bubu dubu
p3022
sg43
Nssg246
(lp3023
I2758383128
asg248
I00
sg249
I01
sg250
I1
sg251
I0
sg252
I1
sg253
(dp3024
Vy
F-8.4427804900000005
sVx
F-5.1919899999999997
sVz
F1.2137353399999999
ssg255
(dp3025
Vy
F-12.2083941
sVx
F5.1176795999999998
sVz
F0.35900549999999998
ssg257
I00
sg258
(dp3026
g41
VRNG Ninja HCS
p3027
sg43
Nssg261
(lp3028
sg263
(lp3029
(dp3030
g41
VE6 Cratos HCS
p3031
sg43
Nsasg267
I00
sg35
VPT3M3.7594726S
p3032
sg32
VDeath
p3033
sg270
I1
sa(dp3034
g32
VMedal
p3035
sg39
(dp3036
g41
VE6 bubu dubu
p3037
sg43
Nssg275
I2078758684
sg35
VPT3M3.7594726S
p3038
sa(dp3039
g38
I4096745987
sg32
VWeaponDrop
p3040
sg180
I6
sg44
(lp3041
I2758383128
asg35
VPT3M3.760976S
p3042
sg183
I3
sg184
VP0DT0H0M10.6667S
p3043
sg39
(dp3044
g41
VRNG Ninja HCS
p3045
sg43
Nssa(dp3046
g38
I313138863
sg32
VWeaponDrop
p3047
sg180
I12
sg44
(lp3048
I1095363701
asg35
VPT3M3.7614734S
p3049
sg183
I4
sg184
VP0DT0H0M3.1333S
p3050
sg39
(dp3051
g41
VRNG Ninja HCS
p3052
sg43
Nssa(dp3053
g38
I313138863
sg39
(dp3054
g41
VE6 Shooter
p3055
sg43
Nssg44
(lp3056
I1095363701
asg32
VWeaponPickup
p3057
sg35
VPT3M7.7637035S
p3058
sa(dp3059
g38
I4096745987
sg39
(dp3060
g41
VE6 Shooter
p3061
sg43
Nssg44
(lp3062
I2758383128
asg32
VWeaponPickup
p3063
sg35
VPT3M7.7637035S
p3064
sa(dp3065
g32
VPlayerSpawn
p3066
sg39
(dp3067
g41
VE6 Shooter
p3068
sg43
Nssg35
VPT3M7.7637035S
p3069
sa(dp3070
g240
I313138863
sg241
I00
sg242
I00
sg243
(dp3071
g41
VE6 bubu dubu
p3072
sg43
Nssg246
(lp3073
I1095363701
asg248
I00
sg249
I01
sg250
I1
sg251
I0
sg252
I1
sg253
(dp3074
Vy
F-9.6415810000000004
sVx
F5.8661026999999999
sVz
F0.54367019999999999
ssg255
(dp3075
Vy
F-11.3630867
sVx
F6.9887499999999996
sVz
F0.60733026300000004
ssg257
I00
sg258
(dp3076
g41
VRNG Commonly
p3077
sg43
Nssg261
(lp3078
sg263
(lp3079
(dp3080
g41
VE6 Huke HCS
p3081
sg43
Nsasg267
I00
sg35
VPT3M8.5137463S
p3082
sg32
VDeath
p3083
sg270
I1
sa(dp3084
g32
VMedal
p3085
sg39
(dp3086
g41
VE6 bubu dubu
p3087
sg43
Nssg275
I2838259753
sg35
VPT3M8.5137463S
p3088
sa(dp3089
g32
VImpulse
p3090
sg39
(dp3091
g41
VE6 bubu dubu
p3092
sg43
Nssg397
I2556889090
sg35
VPT3M8.5137463S
p3093
sa(dp3094
g32
VMedal
p3095
sg39
(dp3096
g41
VE6 bubu dubu
p3097
sg43
Nssg275
I2763748638
sg35
VPT3M8.5147462S
p3098
sa(dp3099
g38
I313138863
sg32
VWeaponDrop
p3100
sg180
I0
sg44
(lp3101
I1095363701
asg35
VPT3M8.5147462S
p3102
sg183
I0
sg184
VP0DT0H0M3.8500S
p3103
sg39
(dp3104
g41
VRNG Commonly
p3105
sg43
Nssa(dp3106
g38
I523953283
sg32
VWeaponDrop
p3107
sg180
I11
sg44
(lp3108
I1327094800
asg35
VPT3M8.5147462S
p3109
sg183
I2
sg184
VP0DT0H0M7.7000S
p3110
sg39
(dp3111
g41
VRNG Commonly
p3112
sg43
Nssa(dp3113
g38
I313138863
sg39
(dp3114
g41
VE6 Cratos HCS
p3115
sg43
Nssg44
(lp3116
I1095363701
asg32
VWeaponPickup
p3117
sg35
VPT3M9.9928319S
p3118
sa(dp3119
g38
I4096745987
sg39
(dp3120
g41
VE6 Cratos HCS
p3121
sg43
Nssg44
(lp3122
I2758383128
asg32
VWeaponPickup
p3123
sg35
VPT3M9.9928319S
p3124
sa(dp3125
g32
VPlayerSpawn
p3126
sg39
(dp3127
g41
VE6 Cratos HCS
p3128
sg43
Nssg35
VPT3M9.9928319S
p3129
sa(dp3130
g38
I313138863
sg39
(dp3131
g41
VRNG Victory X
p3132
sg43
Nssg44
(lp3133
I1095363701
asg32
VWeaponPickup
p3134
sg35
VPT3M10.7768774S
p3135
sa(dp3136
g38
I4096745987
sg39
(dp3137
g41
VRNG Victory X
p3138
sg43
Nssg44
(lp3139
I2758383128
asg32
VWeaponPickup
p3140
sg35
VPT3M10.7768774S
p3141
sa(dp3142
g32
VPlayerSpawn
p3143
sg39
(dp3144
g41
VRNG Victory X
p3145
sg43
Nssg35
VPT3M10.7768774S
p3146
sa(dp3147
g38
I313138863
sg39
(dp3148
g41
VRNG Ninja HCS
p3149
sg43
Nssg44
(lp3150
I1095363701
asg32
VWeaponPickup
p3151
sg35
VPT3M11.7729342S
p3152
sa(dp3153
g38
I4096745987
sg39
(dp3154
g41
VRNG Ninja HCS
p3155
sg43
Nssg44
(lp3156
I2758383128
asg32
VWeaponPickup
p3157
sg35
VPT3M11.773935S
p3158
sa(dp3159
g32
VPlayerSpawn
p3160
sg39
(dp3161
g41
VRNG Ninja HCS
p3162
sg43
Nssg35
VPT3M11.773935S
p3163
sa(dp3164
g38
I313138863
sg32
VWeaponDrop
p3165
sg180
I0
sg44
(lp3166
I1095363701
asg35
VPT3M13.8250517S
p3167
sg183
I0
sg184
VP0DT0H0M2.3500S
p3168
sg39
(dp3169
g41
VE6 Shooter
p3170
sg43
Nssa(dp3171
g38
I2015271382
sg39
(dp3172
g41
VE6 Shooter
p3173
sg43
Nssg44
(lp3174
I2758383128
asg32
VWeaponPickup
p3175
sg35
VPT3M13.8250517S
p3176
sa(dp3177
g240
I4106030681
sg241
I00
sg242
I00
sg243
(dp3178
g41
VE6 Huke HCS
p3179
sg43
Nssg246
(lp3180
sg248
I00
sg249
I00
sg250
I2
sg251
I0
sg252
I0
sg253
(dp3181
Vy
F-9.5918550000000007
sVx
F14.677660899999999
sVz
F0.53283060000000004
ssg255
(dp3182
Vy
F-0.42171275600000002
sVx
F19.792507199999999
sVz
F5.69879961
ssg257
I00
sg258
(dp3183
g1437
g1438
ssg261
(lp3184
sg263
(lp3185
sg267
I00
sg35
VPT3M14.6981026S
p3186
sg32
VDeath
p3187
sg270
I1
sa(dp3188
g38
I313138863
sg39
(dp3189
g41
VRNG Commonly
p3190
sg43
Nssg44
(lp3191
I1095363701
asg32
VWeaponPickup
p3192
sg35
VPT3M16.5262084S
p3193
sa(dp3194
g38
I4096745987
sg39
(dp3195
g41
VRNG Commonly
p3196
sg43
Nssg44
(lp3197
I2758383128
asg32
VWeaponPickup
p3198
sg35
VPT3M16.5262084S
p3199
sa(dp3200
g32
VPlayerSpawn
p3201
sg39
(dp3202
g41
VRNG Commonly
p3203
sg43
Nssg35
VPT3M16.5262084S
p3204
sa(dp3205
g240
I4106030681
sg241
I00
sg242
I00
sg243
(dp3206
g41
VRNG Ninja HCS
p3207
sg43
Nssg246
(lp3208
sg248
I00
sg249
I00
sg250
I2
sg251
I0
sg252
I0
sg253
(dp3209
Vy
F-2.6630067799999999
sVx
F20.03669
sVz
F2.4209647200000002
ssg255
(dp3210
Vy
F-10.7179632
sVx
F16.609210999999998
sVz
F4.230613
ssg257
I00
sg258
(dp3211
g1437
g1438
ssg261
(lp3212
sg263
(lp3213
sg267
I00
sg35
VPT3M18.0642956S
p3214
sg32
VDeath
p3215
sg270
I1
sa(dp3216
g240
I4096745987
sg241
I00
sg242
I00
sg243
(dp3217
g41
VE6 Huke HCS
p3218
sg43
Nssg246
(lp3219
I2758383128
asg248
I00
sg249
I01
sg250
I1
sg251
I0
sg252
I1
sg253
(dp3220
Vy
F-11.0038576
sVx
F20.04271
sVz
F1.5707920799999999
ssg255
(dp3221
Vy
F-2.6645949999999998
sVx
F20.091211300000001
sVz
F2.4473419999999999
ssg257
I00
sg258
(dp3222
g41
VRNG Ninja HCS
p3223
sg43
Nssg261
(lp3224
sg263
(lp3225
sg267
I01
sg35
VPT3M18.1142997S
p3226
sg32
VDeath
p3227
sg270
I1
sa(dp3228
g32
VMedal
p3229
sg39
(dp3230
g41
VE6 Huke HCS
p3231
sg43
Nssg275
I3261908037
sg35
VPT3M18.1223465S
p3232
sa(dp3233
g38
I4096745987
sg32
VWeaponDrop
p3234
sg180
I3
sg44
(lp3235
I2758383128
asg35
VPT3M18.1224824S
p3236
sg183
I3
sg184
VP0DT0H0M5.0000S
p3237
sg39
(dp3238
g41
VRNG Ninja HCS
p3239
sg43
Nssa(dp3240
g38
I313138863
sg32
VWeaponDrop
p3241
sg180
I0
sg44
(lp3242
I1095363701
asg35
VPT3M18.1233005S
p3243
sg183
I0
sg184
VP0DT0H0M1.3333S
p3244
sg39
(dp3245
g41
VRNG Ninja HCS
p3246
sg43
Nssa(dp3247
g38
I313138863
sg32
VWeaponDrop
p3248
sg180
I0
sg44
(lp3249
I1095363701
asg35
VPT3M19.1301964S
p3250
sg183
I0
sg184
VP0DT0H0M0.8500S
p3251
sg39
(dp3252
g41
VRNG Victory X
p3253
sg43
Nssa(dp3254
g38
I723388907
sg39
(dp3255
g41
VRNG Victory X
p3256
sg43
Nssg44
(lp3257
I89283061
asg32
VWeaponPickup
p3258
sg35
VPT3M19.1303576S
p3259
sa(dp3260
g38
I2244200496
sg39
(dp3261
g41
VE6 bubu dubu
p3262
sg43
Nssg44
(lp3263
I2758383128
asg32
VWeaponPickup
p3264
sg35
VPT3M23.1405892S
p3265
sa(dp3266
g32
VImpulse
p3267
sg39
(dp3268
g41
VE6 bubu dubu
p3269
sg43
Nssg397
I4191318012
sg35
VPT3M23.159589S
p3270
sa(dp3271
g32
VImpulse
p3272
sg39
(dp3273
g41
VE6 bubu dubu
p3274
sg43
Nssg397
I1039658009
sg35
VPT3M23.159589S
p3275
sa(dp3276
g240
I4096745987
sg241
I00
sg242
I00
sg243
(dp3277
g41
VE6 Shooter
p3278
sg43
Nssg246
(lp3279
I2758383128
asg248
I00
sg249
I01
sg250
I1
sg251
I0
sg252
I1
sg253
(dp3280
Vy
F5.01259327
sVx
F-6.3925867099999998
sVz
F2.87953758
ssg255
(dp3281
Vy
F2.5307089999999999
sVx
F-17.637016299999999
sVz
F2.2487689999999998
ssg257
I00
sg258
(dp3282
g41
VRNG Victory X
p3283
sg43
Nssg261
(lp3284
sg263
(lp3285
sg267
I01
sg35
VPT3M24.0816424S
p3286
sg32
VDeath
p3287
sg270
I1
sa(dp3288
g32
VImpulse
p3289
sg39
(dp3290
g41
VE6 Shooter
p3291
sg43
Nssg397
I3174430457
sg35
VPT3M24.0826428S
p3292
sa(dp3293
g32
VMedal
p3294
sg39
(dp3295
g41
VE6 Shooter
p3296
sg43
Nssg275
I164204247
sg35
VPT3M24.0826428S
p3297
sa(dp3298
g32
VMedal
p3299
sg39
(dp3300
g41
VE6 Shooter
p3301
sg43
Nssg275
I3653057799
sg35
VPT3M24.0836424S
p3302
sa(dp3303
g38
I723388907
sg32
VWeaponDrop
p3304
sg180
I0
sg44
(lp3305
I89283061
asg35
VPT3M24.0836424S
p3306
sg183
I0
sg184
VP0DT0H0M0.4667S
p3307
sg39
(dp3308
g41
VRNG Victory X
p3309
sg43
Nssa(dp3310
g38
I4096745987
sg32
VWeaponDrop
p3311
sg180
I4
sg44
(lp3312
I2758383128
asg35
VPT3M24.0836424S
p3313
sg183
I4
sg184
VP0DT0H0M11.9833S
p3314
sg39
(dp3315
g41
VRNG Victory X
p3316
sg43
Nssa(dp3317
g38
I2244200496
sg32
VWeaponDrop
p3318
sg180
I0
sg44
(lp3319
I2758383128
asg35
VPT3M24.1106986S
p3320
sg183
I0
sg184
VP0DT0H0M0.8000S
p3321
sg39
(dp3322
g41
VE6 bubu dubu
p3323
sg43
Nssa(dp3324
g32
VImpulse
p3325
sg39
(dp3326
g41
VE6 bubu dubu
p3327
sg43
Nssg397
I3435524855
sg35
VPT3M24.1107649S
p3328
sa(dp3329
g38
I2244200496
sg39
(dp3330
g41
VE6 bubu dubu
p3331
sg43
Nssg44
(lp3332
I2758383128
asg32
VWeaponPickup
p3333
sg35
VPT3M24.8463372S
p3334
sa(dp3335
g32
VImpulse
p3336
sg39
(dp3337
g41
VE6 bubu dubu
p3338
sg43
Nssg397
I4191318012
sg35
VPT3M24.8466873S
p3339
sa(dp3340
g240
I313138863
sg241
I00
sg242
I00
sg243
(dp3341
g41
VE6 Huke HCS
p3342
sg43
Nssg246
(lp3343
I1095363701
asg248
I00
sg249
I01
sg250
I1
sg251
I0
sg252
I1
sg253
(dp3344
Vy
F-4.5809119999999997
sVx
F13.516062700000001
sVz
F-0.0010853707799999999
ssg255
(dp3345
Vy
F-1.87098086
sVx
F12.0256987
sVz
F0.160891742
ssg257
I00
sg258
(dp3346
g41
VRNG Penguin HCS
p3347
sg43
Nssg261
(lp3348
sg263
(lp3349
sg267
I00
sg35
VPT3M25.0326981S
p3350
sg32
VDeath
p3351
sg270
I1
sa(dp3352
g38
I313138863
sg32
VWeaponDrop
p3353
sg180
I21
sg44
(lp3354
I1095363701
asg35
VPT3M25.042019S
p3355
sg183
I6
sg184
VP0DT0H0M12.2333S
p3356
sg39
(dp3357
g41
VRNG Penguin HCS
p3358
sg43
Nssa(dp3359
g38
I4096745987
sg32
VWeaponDrop
p3360
sg180
I0
sg44
(lp3361
I2758383128
asg35
VPT3M25.042019S
p3362
sg183
I0
sg184
VP0DT0H0M9.5833S
p3363
sg39
(dp3364
g41
VRNG Penguin HCS
p3365
sg43
Nssa(dp3366
g38
I2244200496
sg32
VWeaponDrop
p3367
sg180
I0
sg44
(lp3368
I2758383128
asg35
VPT3M25.5458772S
p3369
sg183
I0
sg184
VP0DT0H0M0.5500S
p3370
sg39
(dp3371
g41
VE6 bubu dubu
p3372
sg43
Nssa(dp3373
g32
VImpulse
p3374
sg39
(dp3375
g41
VE6 bubu dubu
p3376
sg43
Nssg397
I3435524855
sg35
VPT3M25.5459441S
p3377
sa(dp3378
g38
I313138863
sg39
(dp3379
g41
VRNG Ninja HCS
p3380
sg43
Nssg44
(lp3381
I1095363701
asg32
VWeaponPickup
p3382
sg35
VPT3M26.127762S
p3383
sa(dp3384
g38
I4096745987
sg39
(dp3385
g41
VRNG Ninja HCS
p3386
sg43
Nssg44
(lp3387
I2758383128
asg32
VWeaponPickup
p3388
sg35
VPT3M26.127762S
p3389
sa(dp3390
g32
VPlayerSpawn
p3391
sg39
(dp3392
g41
VRNG Ninja HCS
p3393
sg43
Nssg35
VPT3M26.127762S
p3394
sa(dp3395
g38
I2244200496
sg39
(dp3396
g41
VE6 bubu dubu
p3397
sg43
Nssg44
(lp3398
I2758383128
asg32
VWeaponPickup
p3399
sg35
VPT3M28.4942961S
p3400
sa(dp3401
g32
VImpulse
p3402
sg39
(dp3403
g41
VE6 bubu dubu
p3404
sg43
Nssg397
I4191318012
sg35
VPT3M28.4948976S
p3405
sa(dp3406
g38
I2244200496
sg32
VWeaponDrop
p3407
sg180
I0
sg44
(lp3408
I2758383128
asg35
VPT3M29.5409557S
p3409
sg183
I0
sg184
VP0DT0H0M0.9000S
p3410
sg39
(dp3411
g41
VE6 bubu dubu
p3412
sg43
Nssa(dp3413
g32
VImpulse
p3414
sg39
(dp3415
g41
VE6 bubu dubu
p3416
sg43
Nssg397
I3435524855
sg35
VPT3M29.5419577S
p3417
sa(dp3418
g240
I4096745987
sg241
I00
sg242
I00
sg243
(dp3419
g41
VRNG Ninja HCS
p3420
sg43
Nssg246
(lp3421
I2758383128
asg248
I00
sg249
I01
sg250
I1
sg251
I0
sg252
I1
sg253
(dp3422
Vy
F12.1068392
sVx
F-1.6790323300000001
sVz
F2.00275588
ssg255
(dp3423
Vy
F9.9041990000000002
sVx
F-7.3960369999999998
sVz
F1.61167514
ssg257
I00
sg258
(dp3424
g41
VE6 Shooter
p3425
sg43
Nssg261
(lp3426
sg263
(lp3427
sg267
I01
sg35
VPT3M30.0099846S
p3428
sg32
VDeath
p3429
sg270
I1
sa(dp3430
g32
VMedal
p3431
sg39
(dp3432
g41
VRNG Ninja HCS
p3433
sg43
Nssg275
I3261908037
sg35
VPT3M30.0119845S
p3434
sa(dp3435
g38
I2015271382
sg32
VWeaponDrop
p3436
sg180
I0
sg44
(lp3437
I2758383128
asg35
VPT3M30.0119845S
p3438
sg183
I0
sg184
VP0DT0H0M5.5500S
p3439
sg39
(dp3440
g41
VE6 Shooter
p3441
sg43
Nssa(dp3442
g38
I4096745987
sg32
VWeaponDrop
p3443
sg180
I9
sg44
(lp3444
I2758383128
asg35
VPT3M30.0119845S
p3445
sg183
I7
sg184
VP0DT0H0M14.3500S
p3446
sg39
(dp3447
g41
VE6 Shooter
p3448
sg43
Nssa(dp3449
g38
I4096745987
sg32
VWeaponDrop
p3450
sg180
I11
sg44
(lp3451
I2758383128
asg35
VPT3M30.2796786S
p3452
sg183
I7
sg184
VP0DT0H0M13.0833S
p3453
sg39
(dp3454
g41
VRNG Commonly
p3455
sg43
Nssa(dp3456
g38
I523953283
sg39
(dp3457
g41
VRNG Commonly
p3458
sg43
Nssg44
(lp3459
I1327094800
asg32
VWeaponPickup
p3460
sg35
VPT3M30.2796786S
p3461
sa(dp3462
g38
I2244200496
sg39
(dp3463
g41
VE6 bubu dubu
p3464
sg43
Nssg44
(lp3465
I2758383128
asg32
VWeaponPickup
p3466
sg35
VPT3M31.129345S
p3467
sa(dp3468
g32
VImpulse
p3469
sg39
(dp3470
g41
VE6 bubu dubu
p3471
sg43
Nssg397
I4191318012
sg35
VPT3M31.1300488S
p3472
sa(dp3473
g38
I313138863
sg39
(dp3474
g41
VRNG Victory X
p3475
sg43
Nssg44
(lp3476
I1095363701
asg32
VWeaponPickup
p3477
sg35
VPT3M32.0961052S
p3478
sa(dp3479
g38
I4096745987
sg39
(dp3480
g41
VRNG Victory X
p3481
sg43
Nssg44
(lp3482
I2758383128
asg32
VWeaponPickup
p3483
sg35
VPT3M32.0961052S
p3484
sa(dp3485
g32
VPlayerSpawn
p3486
sg39
(dp3487
g41
VRNG Victory X
p3488
sg43
Nssg35
VPT3M32.0961052S
p3489
sa(dp3490
g38
I313138863
sg39
(dp3491
g41
VRNG Penguin HCS
p3492
sg43
Nssg44
(lp3493
I1095363701
asg32
VWeaponPickup
p3494
sg35
VPT3M33.0471594S
p3495
sa(dp3496
g38
I4096745987
sg39
(dp3497
g41
VRNG Penguin HCS
p3498
sg43
Nssg44
(lp3499
I2758383128
asg32
VWeaponPickup
p3500
sg35
VPT3M33.0481599S
p3501
sa(dp3502
g32
VPlayerSpawn
p3503
sg39
(dp3504
g41
VRNG Penguin HCS
p3505
sg43
Nssg35
VPT3M33.0481599S
p3506
sa(dp3507
g38
I2244200496
sg32
VWeaponDrop
p3508
sg180
I0
sg44
(lp3509
I2758383128
asg35
VPT3M33.4131229S
p3510
sg183
I0
sg184
VP0DT0H0M2.1333S
p3511
sg39
(dp3512
g41
VE6 bubu dubu
p3513
sg43
Nssa(dp3514
g32
VImpulse
p3515
sg39
(dp3516
g41
VE6 bubu dubu
p3517
sg43
Nssg397
I3435524855
sg35
VPT3M33.4132559S
p3518
sa(dp3519
g38
I2244200496
sg39
(dp3520
g41
VE6 bubu dubu
p3521
sg43
Nssg44
(lp3522
I2758383128
asg32
VWeaponPickup
p3523
sg35
VPT3M34.8412619S
p3524
sa(dp3525
g32
VImpulse
p3526
sg39
(dp3527
g41
VE6 bubu dubu
p3528
sg43
Nssg397
I4191318012
sg35
VPT3M34.8422724S
p3529
sa(dp3530
g240
I313138863
sg241
I00
sg242
I00
sg243
(dp3531
g41
VRNG Ninja HCS
p3532
sg43
Nssg246
(lp3533
I1095363701
asg248
I00
sg249
I01
sg250
I1
sg251
I0
sg252
I1
sg253
(dp3534
Vy
F2.5144724799999998
sVx
F-4.3189253799999996
sVz
F2.56297255
ssg255
(dp3535
Vy
F-0.90863484100000003
sVx
F-2.96107531
sVz
F2.61060143
ssg257
I00
sg258
(dp3536
g41
VE6 Cratos HCS
p3537
sg43
Nssg261
(lp3538
sg263
(lp3539
(dp3540
g41
VRNG Penguin HCS
p3541
sg43
Nsa(dp3542
g41
VRNG Victory X
p3543
sg43
Nsasg267
I00
sg35
VPT3M36.5787135S
p3544
sg32
VDeath
p3545
sg270
I1
sa(dp3546
g38
I313138863
sg32
VWeaponDrop
p3547
sg180
I0
sg44
(lp3548
I1095363701
asg35
VPT3M36.5803629S
p3549
sg183
I0
sg184
VP0DT0H0M0.7667S
p3550
sg39
(dp3551
g41
VE6 Cratos HCS
p3552
sg43
Nssa(dp3553
g38
I4096745987
sg32
VWeaponDrop
p3554
sg180
I17
sg44
(lp3555
I2758383128
asg35
VPT3M36.5803629S
p3556
sg183
I9
sg184
VP0DT0H0M25.8167S
p3557
sg39
(dp3558
g41
VE6 Cratos HCS
p3559
sg43
Nssa(dp3560
g38
I313138863
sg39
(dp3561
g41
VE6 Shooter
p3562
sg43
Nssg44
(lp3563
I1095363701
asg32
VWeaponPickup
p3564
sg35
VPT3M38.0324475S
p3565
sa(dp3566
g38
I4096745987
sg39
(dp3567
g41
VE6 Shooter
p3568
sg43
Nssg44
(lp3569
I2758383128
asg32
VWeaponPickup
p3570
sg35
VPT3M38.0324475S
p3571
sa(dp3572
g32
VPlayerSpawn
p3573
sg39
(dp3574
g41
VE6 Shooter
p3575
sg43
Nssg35
VPT3M38.0324475S
p3576
sa(dp3577
g38
I2244200496
sg32
VWeaponDrop
p3578
sg180
I0
sg44
(lp3579
I2758383128
asg35
VPT3M38.0946462S
p3580
sg183
I0
sg184
VP0DT0H0M3.1000S
p3581
sg39
(dp3582
g41
VE6 bubu dubu
p3583
sg43
Nssa(dp3584
g32
VImpulse
p3585
sg39
(dp3586
g41
VE6 bubu dubu
p3587
sg43
Nssg397
I3435524855
sg35
VPT3M38.0954506S
p3588
sa(dp3589
g38
I2244200496
sg39
(dp3590
g41
VE6 bubu dubu
p3591
sg43
Nssg44
(lp3592
I2758383128
asg32
VWeaponPickup
p3593
sg35
VPT3M39.3935254S
p3594
sa(dp3595
g32
VImpulse
p3596
sg39
(dp3597
g41
VE6 bubu dubu
p3598
sg43
Nssg397
I4191318012
sg35
VPT3M39.4109325S
p3599
sa(dp3600
g32
VMedal
p3601
sg39
(dp3602
g41
VE6 bubu dubu
p3603
sg43
Nssg275
I3886151616
sg35
VPT3M39.9245546S
p3604
sa(dp3605
g32
VImpulse
p3606
sg39
(dp3607
g41
VE6 bubu dubu
p3608
sg43
Nssg397
I2944278681
sg35
VPT3M39.9255564S
p3609
sa(dp3610
g38
I2244200496
sg32
VWeaponDrop
p3611
sg180
I0
sg44
(lp3612
I2758383128
asg35
VPT3M39.9313738S
p3613
sg183
I0
sg184
VP0DT0H0M0.3667S
p3614
sg39
(dp3615
g41
VE6 bubu dubu
p3616
sg43
Nssa(dp3617
g240
I4096745987
sg241
I00
sg242
I00
sg243
(dp3618
g41
VRNG Victory X
p3619
sg43
Nssg246
(lp3620
I2758383128
asg248
I00
sg249
I01
sg250
I1
sg251
I0
sg252
I1
sg253
(dp3621
Vy
F3.8913395400000002
sVx
F-6.65657663
sVz
F3.2596980000000002
ssg255
(dp3622
Vy
F0.7199681
sVx
F-17.362047199999999
sVz
F2.246604
ssg257
I00
sg258
(dp3623
g41
VE6 bubu dubu
p3624
sg43
Nssg261
(lp3625
sg263
(lp3626
(dp3627
g41
VRNG Penguin HCS
p3628
sg43
Nsa(dp3629
g41
VRNG Ninja HCS
p3630
sg43
Nsasg267
I01
sg35
VPT3M40.4925888S
p3631
sg32
VDeath
p3632
sg270
I1
sa(dp3633
g32
VMedal
p3634
sg39
(dp3635
g41
VRNG Victory X
p3636
sg43
Nssg275
I3261908037
sg35
VPT3M40.500503S
p3637
sa(dp3638
g38
I313138863
sg32
VWeaponDrop
p3639
sg180
I16
sg44
(lp3640
I1095363701
asg35
VPT3M40.5007031S
p3641
sg183
I7
sg184
VP0DT0H0M9.3667S
p3642
sg39
(dp3643
g41
VE6 bubu dubu
p3644
sg43
Nssa(dp3645
g38
I4096745987
sg32
VWeaponDrop
p3646
sg180
I8
sg44
(lp3647
I2758383128
asg35
VPT3M40.5007031S
p3648
sg183
I3
sg184
VP0DT0H0M24.8000S
p3649
sg39
(dp3650
g41
VE6 bubu dubu
p3651
sg43
Nssa(dp3652
g38
I2244200496
sg39
(dp3653
g41
VRNG Penguin HCS
p3654
sg43
Nssg44
(lp3655
I2758383128
asg32
VWeaponPickup
p3656
sg35
VPT3M43.6133771S
p3657
sa(dp3658
g32
VImpulse
p3659
sg39
(dp3660
g41
VRNG Penguin HCS
p3661
sg43
Nssg397
I4191318012
sg35
VPT3M43.6137764S
p3662
sa(dp3663
g32
VImpulse
p3664
sg39
(dp3665
g41
VRNG Penguin HCS
p3666
sg43
Nssg397
I1039658009
sg35
VPT3M43.6137764S
p3667
sa(dp3668
g38
I2244200496
sg32
VWeaponDrop
p3669
sg180
I0
sg44
(lp3670
I2758383128
asg35
VPT3M44.1907996S
p3671
sg183
I0
sg184
VP0DT0H0M0.4333S
p3672
sg39
(dp3673
g41
VRNG Penguin HCS
p3674
sg43
Nssa(dp3675
g32
VImpulse
p3676
sg39
(dp3677
g41
VRNG Penguin HCS
p3678
sg43
Nssg397
I3435524855
sg35
VPT3M44.1980149S
p3679
sa(dp3680
g38
I313138863
sg39
(dp3681
g41
VE6 Cratos HCS
p3682
sg43
Nssg44
(lp3683
I1095363701
asg32
VWeaponPickup
p3684
sg35
VPT3M44.5948253S
p3685
sa(dp3686
g38
I4096745987
sg39
(dp3687
g41
VE6 Cratos HCS
p3688
sg43
Nssg44
(lp3689
I2758383128
asg32
VWeaponPickup
p3690
sg35
VPT3M44.5948253S
p3691
sa(dp3692
g32
VPlayerSpawn
p3693
sg39
(dp3694
g41
VE6 Cratos HCS
p3695
sg43
Nssg35
VPT3M44.5948253S
p3696
sa(dp3697
g240
I4096745987
sg241
I00
sg242
I00
sg243
(dp3698
g41
VRNG Victory X
p3699
sg43
Nssg246
(lp3700
I2758383128
asg248
I00
sg249
I01
sg250
I1
sg251
I0
sg252
I1
sg253
(dp3701
Vy
F-2.4691421999999998
sVx
F-8.587567
sVz
F0.0032885372600000001
ssg255
(dp3702
Vy
F-9.407235
sVx
F-12.305910000000001
sVz
F0.0142878294
ssg257
I00
sg258
(dp3703
g41
VE6 Shooter
p3704
sg43
Nssg261
(lp3705
sg263
(lp3706
sg267
I01
sg35
VPT3M44.7325116S
p3707
sg32
VDeath
p3708
sg270
I1
sa(dp3709
g32
VMedal
p3710
sg39
(dp3711
g41
VRNG Victory X
p3712
sg43
Nssg275
I2838259753
sg35
VPT3M44.7325116S
p3713
sa(dp3714
g32
VImpulse
p3715
sg39
(dp3716
g41
VRNG Victory X
p3717
sg43
Nssg397
I2556889090
sg35
VPT3M44.7325116S
p3718
sa(dp3719
g32
VMedal
p3720
sg39
(dp3721
g41
VRNG Victory X
p3722
sg43
Nssg275
I3261908037
sg35
VPT3M44.734833S
p3723
sa(dp3724
g32
VMedal
p3725
sg39
(dp3726
g41
VRNG Victory X
p3727
sg43
Nssg275
I2078758684
sg35
VPT3M44.734833S
p3728
sa(dp3729
g38
I4096745987
sg32
VWeaponDrop
p3730
sg180
I8
sg44
(lp3731
I2758383128
asg35
VPT3M44.734833S
p3732
sg183
I6
sg184
VP0DT0H0M4.7833S
p3733
sg39
(dp3734
g41
VE6 Shooter
p3735
sg43
Nssa(dp3736
g38
I313138863
sg32
VWeaponDrop
p3737
sg180
I0
sg44
(lp3738
I1095363701
asg35
VPT3M44.7358328S
p3739
sg183
I0
sg184
VP0DT0H0M1.9167S
p3740
sg39
(dp3741
g41
VE6 Shooter
p3742
sg43
Nssa(dp3743
g38
I2244200496
sg39
(dp3744
g41
VRNG Penguin HCS
p3745
sg43
Nssg44
(lp3746
I2758383128
asg32
VWeaponPickup
p3747
sg35
VPT3M45.0641321S
p3748
sa(dp3749
g32
VImpulse
p3750
sg39
(dp3751
g41
VRNG Penguin HCS
p3752
sg43
Nssg397
I4191318012
sg35
VPT3M45.0648517S
p3753
sa(dp3754
g38
I313138863
sg39
(dp3755
g41
VE6 bubu dubu
p3756
sg43
Nssg44
(lp3757
I1095363701
asg32
VWeaponPickup
p3758
sg35
VPT3M48.5150512S
p3759
sa(dp3760
g38
I4096745987
sg39
(dp3761
g41
VE6 bubu dubu
p3762
sg43
Nssg44
(lp3763
I2758383128
asg32
VWeaponPickup
p3764
sg35
VPT3M48.5150512S
p3765
sa(dp3766
g32
VPlayerSpawn
p3767
sg39
(dp3768
g41
VE6 bubu dubu
p3769
sg43
Nssg35
VPT3M48.5150512S
p3770
sa(dp3771
g240
I4096745987
sg241
I00
sg242
I00
sg243
(dp3772
g41
VE6 Cratos HCS
p3773
sg43
Nssg246
(lp3774
I2758383128
asg248
I00
sg249
I01
sg250
I1
sg251
I0
sg252
I1
sg253
(dp3775
Vy
F10.055810900000001
sVx
F-5.2983775099999999
sVz
F1.7413516
ssg255
(dp3776
Vy
F8.0084420000000005
sVx
F-12.84619
sVz
F2.2530267199999998
ssg257
I00
sg258
(dp3777
g41
VRNG Penguin HCS
p3778
sg43
Nssg261
(lp3779
sg263
(lp3780
sg267
I01
sg35
VPT3M49.8141252S
p3781
sg32
VDeath
p3782
sg270
I1
sa(dp3783
g32
VMedal
p3784
sg39
(dp3785
g41
VE6 Cratos HCS
p3786
sg43
Nssg275
I2028249938
sg35
VPT3M49.8227758S
p3787
sa(dp3788
g32
VImpulse
p3789
sg39
(dp3790
g41
VE6 Cratos HCS
p3791
sg43
Nssg397
I2299858338
sg35
VPT3M49.8228424S
p3792
sa(dp3793
g32
VMedal
p3794
sg39
(dp3795
g41
VE6 Cratos HCS
p3796
sg43
Nssg275
I3261908037
sg35
VPT3M49.8231246S
p3797
sa(dp3798
g38
I313138863
sg32
VWeaponDrop
p3799
sg180
I6
sg44
(lp3800
I1095363701
asg35
VPT3M49.8241257S
p3801
sg183
I2
sg184
VP0DT0H0M2.7000S
p3802
sg39
(dp3803
g41
VRNG Penguin HCS
p3804
sg43
Nssa(dp3805
g38
I4096745987
sg32
VWeaponDrop
p3806
sg180
I3
sg44
(lp3807
I2758383128
asg35
VPT3M49.8241257S
p3808
sg183
I2
sg184
VP0DT0H0M9.0333S
p3809
sg39
(dp3810
g41
VRNG Penguin HCS
p3811
sg43
Nssa(dp3812
g38
I2244200496
sg32
VWeaponDrop
p3813
sg180
I6
sg44
(lp3814
I2758383128
asg35
VPT3M49.8241257S
p3815
sg183
I3
sg184
VP0DT0H0M4.6000S
p3816
sg39
(dp3817
g41
VRNG Penguin HCS
p3818
sg43
Nssa(dp3819
g32
VImpulse
p3820
sg39
(dp3821
g41
VRNG Penguin HCS
p3822
sg43
Nssg397
I3435524855
sg35
VPT3M49.8341263S
p3823
sa(dp3824
g38
I4096745987
sg32
VWeaponDrop
p3825
sg180
I0
sg44
(lp3826
I2758383128
asg35
VPT3M50.1143025S
p3827
sg183
I0
sg184
VP0DT0H0M0.9333S
p3828
sg39
(dp3829
g41
VE6 bubu dubu
p3830
sg43
Nssa(dp3831
g38
I523953283
sg39
(dp3832
g41
VE6 bubu dubu
p3833
sg43
Nssg44
(lp3834
I1327094800
asg32
VWeaponPickup
p3835
sg35
VPT3M50.1143025S
p3836
sa(dp3837
g240
I523953283
sg241
I00
sg242
I00
sg243
(dp3838
g41
VRNG Commonly
p3839
sg43
Nssg246
(lp3840
I1327094800
asg248
I00
sg249
I01
sg250
I1
sg251
I0
sg252
I1
sg253
(dp3841
Vy
F10.6262779
sVx
F-2.5685796700000001
sVz
F1.6000051500000001
ssg255
(dp3842
Vy
F10.1611624
sVx
F-6.3146715200000001
sVz
F1.60573375
ssg257
I00
sg258
(dp3843
g41
VE6 Cratos HCS
p3844
sg43
Nssg261
(lp3845
sg263
(lp3846
(dp3847
g41
VRNG Penguin HCS
p3848
sg43
Nsasg267
I01
sg35
VPT3M50.7961817S
p3849
sg32
VDeath
p3850
sg270
I1
sa(dp3851
g32
VMedal
p3852
sg39
(dp3853
g41
VRNG Commonly
p3854
sg43
Nssg275
I3261908037
sg35
VPT3M50.7971815S
p3855
sa(dp3856
g38
I313138863
sg32
VWeaponDrop
p3857
sg180
I0
sg44
(lp3858
I1095363701
asg35
VPT3M50.7981815S
p3859
sg183
I0
sg184
VP0DT0H0M0.8167S
p3860
sg39
(dp3861
g41
VE6 Cratos HCS
p3862
sg43
Nssa(dp3863
g38
I4096745987
sg32
VWeaponDrop
p3864
sg180
I7
sg44
(lp3865
I2758383128
asg35
VPT3M50.7981815S
p3866
sg183
I6
sg184
VP0DT0H0M5.3833S
p3867
sg39
(dp3868
g41
VE6 Cratos HCS
p3869
sg43
Nssa(dp3870
g38
I313138863
sg39
(dp3871
g41
VE6 Shooter
p3872
sg43
Nssg44
(lp3873
I1095363701
asg32
VWeaponPickup
p3874
sg35
VPT3M52.7472949S
p3875
sa(dp3876
g38
I4096745987
sg39
(dp3877
g41
VE6 Shooter
p3878
sg43
Nssg44
(lp3879
I2758383128
asg32
VWeaponPickup
p3880
sg35
VPT3M52.7483576S
p3881
sa(dp3882
g32
VPlayerSpawn
p3883
sg39
(dp3884
g41
VE6 Shooter
p3885
sg43
Nssg35
VPT3M52.7483576S
p3886
sa(dp3887
g240
I313138863
sg241
I00
sg242
I01
sg243
(dp3888
g41
VE6 Huke HCS
p3889
sg43
Nssg246
(lp3890
I1095363701
asg248
I00
sg249
I00
sg250
I1
sg251
I0
sg252
I1
sg253
(dp3891
Vy
F2.329993
sVx
F-5.5581793800000003
sVz
F3.3662649999999998
ssg255
(dp3892
Vy
F2.6325836200000001
sVx
F-5.6856980000000004
sVz
F3.6195520000000001
ssg257
I00
sg258
(dp3893
g41
VRNG Ninja HCS
p3894
sg43
Nssg261
(lp3895
sg263
(lp3896
sg267
I00
sg35
VPT3M53.1643187S
p3897
sg32
VDeath
p3898
sg270
I1
sa(dp3899
g32
VMedal
p3900
sg39
(dp3901
g41
VE6 Huke HCS
p3902
sg43
Nssg275
I250435527
sg35
VPT3M53.1724157S
p3903
sa(dp3904
g38
I313138863
sg32
VWeaponDrop
p3905
sg180
I28
sg44
(lp3906
I1095363701
asg35
VPT3M53.1724827S
p3907
sg183
I13
sg184
VP0DT0H0M7.6833S
p3908
sg39
(dp3909
g41
VRNG Ninja HCS
p3910
sg43
Nssa(dp3911
g38
I313138863
sg32
VWeaponDrop
p3912
sg180
I0
sg44
(lp3913
I1095363701
asg35
VPT3M53.1724827S
p3914
sg183
I0
sg184
VP0DT0S
p3915
sg39
(dp3916
g41
VRNG Ninja HCS
p3917
sg43
Nssa(dp3918
g38
I4096745987
sg32
VWeaponDrop
p3919
sg180
I8
sg44
(lp3920
I2758383128
asg35
VPT3M53.1733199S
p3921
sg183
I5
sg184
VP0DT0H0M19.3500S
p3922
sg39
(dp3923
g41
VRNG Ninja HCS
p3924
sg43
Nssa(dp3925
g240
I313138863
sg241
I00
sg242
I01
sg243
(dp3926
g41
VRNG Ninja HCS
p3927
sg43
Nssg246
(lp3928
I1095363701
asg248
I00
sg249
I00
sg250
I1
sg251
I0
sg252
I1
sg253
(dp3929
Vy
F2.6325836200000001
sVx
F-5.6856980000000004
sVz
F3.6195520000000001
ssg255
(dp3930
Vy
F2.329993
sVx
F-5.5581793800000003
sVz
F3.3662649999999998
ssg257
I00
sg258
(dp3931
g41
VE6 Huke HCS
p3932
sg43
Nssg261
(lp3933
sg263
(lp3934
(dp3935
g41
VRNG Commonly
p3936
sg43
Nsasg267
I00
sg35
VPT3M53.17432S
p3937
sg32
VDeath
p3938
sg270
I1
sa(dp3939
g32
VMedal
p3940
sg39
(dp3941
g41
VRNG Ninja HCS
p3942
sg43
Nssg275
I2287626681
sg35
VPT3M53.1753194S
p3943
sa(dp3944
g38
I313138863
sg32
VWeaponDrop
p3945
sg180
I34
sg44
(lp3946
I1095363701
asg35
VPT3M53.1826733S
p3947
sg183
I22
sg184
VP0DT0H0M9.4167S
p3948
sg39
(dp3949
g41
VE6 Huke HCS
p3950
sg43
Nssa(dp3951
g38
I313138863
sg32
VWeaponDrop
p3952
sg180
I0
sg44
(lp3953
I1095363701
asg35
VPT3M53.1826733S
p3954
sg183
I0
sg184
VP0DT0S
p3955
sg39
(dp3956
g41
VE6 Huke HCS
p3957
sg43
Nssa(dp3958
g38
I4096745987
sg32
VWeaponDrop
p3959
sg180
I34
sg44
(lp3960
I2758383128
asg35
VPT3M53.1827407S
p3961
sg183
I14
sg184
VP0DT0H0M47.5333S
p3962
sg39
(dp3963
g41
VE6 Huke HCS
p3964
sg43
Nssa(dp3965
g240
I523953283
sg241
I00
sg242
I00
sg243
(dp3966
g41
VRNG Commonly
p3967
sg43
Nssg246
(lp3968
I1327094800
asg248
I00
sg249
I01
sg250
I1
sg251
I0
sg252
I1
sg253
(dp3969
Vy
F9.7828455000000005
sVx
F-8.1203090000000007
sVz
F1.6000051500000001
ssg255
(dp3970
Vy
F6.4920144100000003
sVx
F-13.1006889
sVz
F3.15891433
ssg257
I00
sg258
(dp3971
g41
VE6 bubu dubu
p3972
sg43
Nssg261
(lp3973
sg263
(lp3974
(dp3975
g41
VRNG Victory X
p3976
sg43
Nsasg267
I01
sg35
VPT3M56.261497S
p3977
sg32
VDeath
p3978
sg270
I1
sa(dp3979
g32
VMedal
p3980
sg39
(dp3981
g41
VRNG Commonly
p3982
sg43
Nssg275
I3261908037
sg35
VPT3M56.2624967S
p3983
sa(dp3984
g38
I313138863
sg32
VWeaponDrop
p3985
sg180
I0
sg44
(lp3986
I1095363701
asg35
VPT3M56.2624967S
p3987
sg183
I0
sg184
VP0DT0H0M0.6667S
p3988
sg39
(dp3989
g41
VE6 bubu dubu
p3990
sg43
Nssa(dp3991
g38
I523953283
sg32
VWeaponDrop
p3992
sg180
I2
sg44
(lp3993
I1327094800
asg35
VPT3M56.2624967S
p3994
sg183
I2
sg184
VP0DT0H0M6.1500S
p3995
sg39
(dp3996
g41
VE6 bubu dubu
p3997
sg43
Nssa(dp3998
g240
I4106030681
sg241
I00
sg242
I00
sg243
(dp3999
g41
VRNG Victory X
p4000
sg43
Nssg246
(lp4001
sg248
I00
sg249
I00
sg250
I2
sg251
I0
sg252
I0
sg253
(dp4002
Vy
F1.8008367999999999
sVx
F-16.308731099999999
sVz
F2.2492093999999998
ssg255
(dp4003
Vy
F8.0454150000000002
sVx
F-12.9118624
sVz
F5.292967
ssg257
I00
sg258
(dp4004
g1437
g1438
ssg261
(lp4005
sg263
(lp4006
sg267
I00
sg35
VPT3M57.0305412S
p4007
sg32
VDeath
p4008
sg270
I1
sa(dp4009
g240
I4106030681
sg241
I00
sg242
I00
sg243
(dp4010
g41
VRNG Victory X
p4011
sg43
Nssg246
(lp4012
sg248
I00
sg249
I00
sg250
I2
sg251
I0
sg252
I0
sg253
(dp4013
Vy
F1.8008367999999999
sVx
F-16.308731099999999
sVz
F2.2492093999999998
ssg255
(dp4014
Vy
F7.0197005299999997
sVx
F-12.421427700000001
sVz
F5.2900039999999997
ssg257
I00
sg258
(dp4015
g1437
g1438
ssg261
(lp4016
sg263
(lp4017
sg267
I00
sg35
VPT3M57.0305412S
p4018
sg32
VDeath
p4019
sg270
I1
sa(dp4020
g38
I2244200496
sg39
(dp4021
g41
VRNG Commonly
p4022
sg43
Nssg44
(lp4023
I2758383128
asg32
VWeaponPickup
p4024
sg35
VPT3M57.5263085S
p4025
sa(dp4026
g32
VImpulse
p4027
sg39
(dp4028
g41
VRNG Commonly
p4029
sg43
Nssg397
I4191318012
sg35
VPT3M57.5265696S
p4030
sa(dp4031
g38
I313138863
sg39
(dp4032
g41
VRNG Penguin HCS
p4033
sg43
Nssg44
(lp4034
I1095363701
asg32
VWeaponPickup
p4035
sg35
VPT3M57.8315873S
p4036
sa(dp4037
g38
I4096745987
sg39
(dp4038
g41
VRNG Penguin HCS
p4039
sg43
Nssg44
(lp4040
I2758383128
asg32
VWeaponPickup
p4041
sg35
VPT3M57.8315873S
p4042
sa(dp4043
g32
VPlayerSpawn
p4044
sg39
(dp4045
g41
VRNG Penguin HCS
p4046
sg43
Nssg35
VPT3M57.8315873S
p4047
sa(dp4048
g38
I2244200496
sg32
VWeaponDrop
p4049
sg180
I0
sg44
(lp4050
I2758383128
asg35
VPT3M58.0575984S
p4051
sg183
I0
sg184
VP0DT0H0M0.3667S
p4052
sg39
(dp4053
g41
VRNG Commonly
p4054
sg43
Nssa(dp4055
g32
VImpulse
p4056
sg39
(dp4057
g41
VRNG Commonly
p4058
sg43
Nssg397
I3435524855
sg35
VPT3M58.0596006S
p4059
sa(dp4060
g38
I313138863
sg39
(dp4061
g41
VE6 Cratos HCS
p4062
sg43
Nssg44
(lp4063
I1095363701
asg32
VWeaponPickup
p4064
sg35
VPT3M58.8156447S
p4065
sa(dp4066
g38
I4096745987
sg39
(dp4067
g41
VE6 Cratos HCS
p4068
sg43
Nssg44
(lp4069
I2758383128
asg32
VWeaponPickup
p4070
sg35
VPT3M58.8156447S
p4071
sa(dp4072
g32
VPlayerSpawn
p4073
sg39
(dp4074
g41
VE6 Cratos HCS
p4075
sg43
Nssg35
VPT3M58.8156447S
p4076
sa(dp4077
g38
I2244200496
sg39
(dp4078
g41
VRNG Commonly
p4079
sg43
Nssg44
(lp4080
I2758383128
asg32
VWeaponPickup
p4081
sg35
VPT3M59.4645472S
p4082
sa(dp4083
g32
VImpulse
p4084
sg39
(dp4085
g41
VRNG Commonly
p4086
sg43
Nssg397
I4191318012
sg35
VPT3M59.4646813S
p4087
sa(dp4088
g38
I2244200496
sg32
VWeaponDrop
p4089
sg180
I0
sg44
(lp4090
I2758383128
asg35
VPT4M0.49174S
p4091
sg183
I0
sg184
VP0DT0H0M0.8667S
p4092
sg39
(dp4093
g41
VRNG Commonly
p4094
sg43
Nssa(dp4095
g32
VImpulse
p4096
sg39
(dp4097
g41
VRNG Commonly
p4098
sg43
Nssg397
I3435524855
sg35
VPT4M0.4937408S
p4099
sa(dp4100
g38
I313138863
sg39
(dp4101
g41
VRNG Ninja HCS
p4102
sg43
Nssg44
(lp4103
I1095363701
asg32
VWeaponPickup
p4104
sg35
VPT4M1.1797883S
p4105
sa(dp4106
g38
I4096745987
sg39
(dp4107
g41
VRNG Ninja HCS
p4108
sg43
Nssg44
(lp4109
I2758383128
asg32
VWeaponPickup
p4110
sg35
VPT4M1.1807806S
p4111
sa(dp4112
g32
VPlayerSpawn
p4113
sg39
(dp4114
g41
VRNG Ninja HCS
p4115
sg43
Nssg35
VPT4M1.1807806S
p4116
sa(dp4117
g38
I313138863
sg39
(dp4118
g41
VE6 Huke HCS
p4119
sg43
Nssg44
(lp4120
I1095363701
asg32
VWeaponPickup
p4121
sg35
VPT4M1.2097823S
p4122
sa(dp4123
g38
I4096745987
sg39
(dp4124
g41
VE6 Huke HCS
p4125
sg43
Nssg44
(lp4126
I2758383128
asg32
VWeaponPickup
p4127
sg35
VPT4M1.2097823S
p4128
sa(dp4129
g32
VPlayerSpawn
p4130
sg39
(dp4131
g41
VE6 Huke HCS
p4132
sg43
Nssg35
VPT4M1.2107823S
p4133
sa(dp4134
g38
I2244200496
sg39
(dp4135
g41
VRNG Commonly
p4136
sg43
Nssg44
(lp4137
I2758383128
asg32
VWeaponPickup
p4138
sg35
VPT4M1.9758238S
p4139
sa(dp4140
g32
VImpulse
p4141
sg39
(dp4142
g41
VRNG Commonly
p4143
sg43
Nssg397
I4191318012
sg35
VPT4M1.9768265S
p4144
sa(dp4145
g38
I2244200496
sg32
VWeaponDrop
p4146
sg180
I0
sg44
(lp4147
I2758383128
asg35
VPT4M2.7609708S
p4148
sg183
I0
sg184
VP0DT0H0M0.6667S
p4149
sg39
(dp4150
g41
VRNG Commonly
p4151
sg43
Nssa(dp4152
g32
VImpulse
p4153
sg39
(dp4154
g41
VRNG Commonly
p4155
sg43
Nssg397
I3435524855
sg35
VPT4M2.7618717S
p4156
sa(dp4157
g38
I313138863
sg32
VWeaponDrop
p4158
sg180
I0
sg44
(lp4159
I1095363701
asg35
VPT4M3.3111187S
p4160
sg183
I0
sg184
VP0DT0H0M2.0833S
p4161
sg39
(dp4162
g41
VE6 Huke HCS
p4163
sg43
Nssa(dp4164
g38
I1579758889
sg39
(dp4165
g41
VE6 Huke HCS
p4166
sg43
Nssg44
(lp4167
I2758383128
asg32
VWeaponPickup
p4168
sg35
VPT4M3.3111855S
p4169
sa(dp4170
g38
I2244200496
sg39
(dp4171
g41
VRNG Commonly
p4172
sg43
Nssg44
(lp4173
I2758383128
asg32
VWeaponPickup
p4174
sg35
VPT4M3.980424S
p4175
sa(dp4176
g32
VImpulse
p4177
sg39
(dp4178
g41
VRNG Commonly
p4179
sg43
Nssg397
I4191318012
sg35
VPT4M3.9809415S
p4180
sa(dp4181
g38
I313138863
sg39
(dp4182
g41
VE6 bubu dubu
p4183
sg43
Nssg44
(lp4184
I1095363701
asg32
VWeaponPickup
p4185
sg35
VPT4M4.2989602S
p4186
sa(dp4187
g38
I4096745987
sg39
(dp4188
g41
VE6 bubu dubu
p4189
sg43
Nssg44
(lp4190
I2758383128
asg32
VWeaponPickup
p4191
sg35
VPT4M4.2989602S
p4192
sa(dp4193
g32
VPlayerSpawn
p4194
sg39
(dp4195
g41
VE6 bubu dubu
p4196
sg43
Nssg35
VPT4M4.2989602S
p4197
sa(dp4198
g38
I313138863
sg32
VWeaponDrop
p4199
sg180
I0
sg44
(lp4200
I1095363701
asg35
VPT4M4.5261725S
p4201
sg183
I0
sg184
VP0DT0H0M1.4333S
p4202
sg39
(dp4203
g41
VRNG Penguin HCS
p4204
sg43
Nssa(dp4205
g38
I2015271382
sg39
(dp4206
g41
VRNG Penguin HCS
p4207
sg43
Nssg44
(lp4208
I2758383128
asg32
VWeaponPickup
p4209
sg35
VPT4M4.5261725S
p4210
sa(dp4211
g38
I2244200496
sg32
VWeaponDrop
p4212
sg180
I0
sg44
(lp4213
I2758383128
asg35
VPT4M7.1447129S
p4214
sg183
I0
sg184
VP0DT0H0M3.0000S
p4215
sg39
(dp4216
g41
VRNG Commonly
p4217
sg43
Nssa(dp4218
g32
VImpulse
p4219
sg39
(dp4220
g41
VRNG Commonly
p4221
sg43
Nssg397
I3435524855
sg35
VPT4M7.1451233S
p4222
sa(dp4223
g240
I4096745987
sg241
I00
sg242
I00
sg243
(dp4224
g41
VE6 Shooter
p4225
sg43
Nssg246
(lp4226
I2758383128
asg248
I00
sg249
I01
sg250
I1
sg251
I0
sg252
I1
sg253
(dp4227
Vy
F2.0868980000000001
sVx
F-16.097187000000002
sVz
F3.3807529999999999
ssg255
(dp4228
Vy
F2.3575913900000001
sVx
F-5.0827669999999996
sVz
F0.33147245600000003
ssg257
I00
sg258
(dp4229
g41
VRNG Victory X
p4230
sg43
Nssg261
(lp4231
sg263
(lp4232
(dp4233
g41
VE6 bubu dubu
p4234
sg43
Nsasg267
I00
sg35
VPT4M8.5824124S
p4235
sg32
VDeath
p4236
sg270
I1
sa(dp4237
g38
I313138863
sg32
VWeaponDrop
p4238
sg180
I9
sg44
(lp4239
I1095363701
asg35
VPT4M8.5842061S
p4240
sg183
I3
sg184
VP0DT0H0M3.5167S
p4241
sg39
(dp4242
g41
VRNG Victory X
p4243
sg43
Nssa(dp4244
g38
I4096745987
sg32
VWeaponDrop
p4245
sg180
I29
sg44
(lp4246
I2758383128
asg35
VPT4M8.5842061S
p4247
sg183
I16
sg184
VP0DT0H0M32.9500S
p4248
sg39
(dp4249
g41
VRNG Victory X
p4250
sg43
Nssa(dp4251
g38
I2244200496
sg39
(dp4252
g41
VRNG Commonly
p4253
sg43
Nssg44
(lp4254
I2758383128
asg32
VWeaponPickup
p4255
sg35
VPT4M9.4588524S
p4256
sa(dp4257
g32
VImpulse
p4258
sg39
(dp4259
g41
VRNG Commonly
p4260
sg43
Nssg397
I4191318012
sg35
VPT4M9.4592571S
p4261
sa(dp4262
g32
VMedal
p4263
sg39
(dp4264
g41
VRNG Commonly
p4265
sg43
Nssg275
I3886151616
sg35
VPT4M10.0784676S
p4266
sa(dp4267
g32
VMedal
p4268
sg39
(dp4269
g41
VRNG Penguin HCS
p4270
sg43
Nssg275
I1494478183
sg35
VPT4M10.0784676S
p4271
sa(dp4272
g32
VImpulse
p4273
sg39
(dp4274
g41
VRNG Commonly
p4275
sg43
Nssg397
I2944278681
sg35
VPT4M10.0784676S
p4276
sa(dp4277
g38
I2244200496
sg32
VWeaponDrop
p4278
sg180
I0
sg44
(lp4279
I2758383128
asg35
VPT4M10.0792925S
p4280
sg183
I0
sg184
VP0DT0H0M0.4500S
p4281
sg39
(dp4282
g41
VRNG Commonly
p4283
sg43
Nssa(dp4284
g240
I313138863
sg241
I00
sg242
I01
sg243
(dp4285
g41
VRNG Ninja HCS
p4286
sg43
Nssg246
(lp4287
I1095363701
asg248
I00
sg249
I00
sg250
I1
sg251
I0
sg252
I1
sg253
(dp4288
Vy
F-4.9697995199999996
sVx
F18.473196000000002
sVz
F2.2663354899999999
ssg255
(dp4289
Vy
F-5.5797467200000002
sVx
F18.419601400000001
sVz
F2.0800185199999999
ssg257
I00
sg258
(dp4290
g41
VE6 Cratos HCS
p4291
sg43
Nssg261
(lp4292
sg263
(lp4293
(dp4294
g41
VRNG Penguin HCS
p4295
sg43
Nsasg267
I00
sg35
VPT4M10.178305S
p4296
sg32
VDeath
p4297
sg270
I1
sa(dp4298
g32
VMedal
p4299
sg39
(dp4300
g41
VRNG Ninja HCS
p4301
sg43
Nssg275
I2287626681
sg35
VPT4M10.1792986S
p4302
sa(dp4303
g38
I313138863
sg32
VWeaponDrop
p4304
sg180
I0
sg44
(lp4305
I1095363701
asg35
VPT4M10.1802985S
p4306
sg183
I0
sg184
VP0DT0H0M1.6667S
p4307
sg39
(dp4308
g41
VE6 Cratos HCS
p4309
sg43
Nssa(dp4310
g38
I4096745987
sg32
VWeaponDrop
p4311
sg180
I0
sg44
(lp4312
I2758383128
asg35
VPT4M10.1802985S
p4313
sg183
I0
sg184
VP0DT0H0M9.6833S
p4314
sg39
(dp4315
g41
VE6 Cratos HCS
p4316
sg43
Nssa(dp4317
g32
VMedal
p4318
sg39
(dp4319
g41
VE6 Shooter
p4320
sg43
Nssg275
I3400287617
sg35
VPT4M12.4614294S
p4321
sa(dp4322
g38
I4096745987
sg32
VWeaponDrop
p4323
sg180
I13
sg44
(lp4324
I2758383128
asg35
VPT4M13.514628S
p4325
sg183
I4
sg184
VP0DT0H0M19.6667S
p4326
sg39
(dp4327
g41
VE6 Shooter
p4328
sg43
Nssa(dp4329
g38
I523953283
sg39
(dp4330
g41
VE6 Shooter
p4331
sg43
Nssg44
(lp4332
I1327094800
asg32
VWeaponPickup
p4333
sg35
VPT4M13.5147614S
p4334
sa(dp4335
g32
VMedal
p4336
sg39
(dp4337
g41
VRNG Ninja HCS
p4338
sg43
Nssg275
I3400287617
sg35
VPT4M13.8148097S
p4339
sa(dp4340
g38
I313138863
sg39
(dp4341
g41
VRNG Victory X
p4342
sg43
Nssg44
(lp4343
I1095363701
asg32
VWeaponPickup
p4344
sg35
VPT4M16.5936685S
p4345
sa(dp4346
g38
I4096745987
sg39
(dp4347
g41
VRNG Victory X
p4348
sg43
Nssg44
(lp4349
I2758383128
asg32
VWeaponPickup
p4350
sg35
VPT4M16.5946686S
p4351
sa(dp4352
g32
VPlayerSpawn
p4353
sg39
(dp4354
g41
VRNG Victory X
p4355
sg43
Nssg35
VPT4M16.5946686S
p4356
sa(dp4357
g38
I313138863
sg39
(dp4358
g41
VE6 Cratos HCS
p4359
sg43
Nssg44
(lp4360
I1095363701
asg32
VWeaponPickup
p4361
sg35
VPT4M18.1997606S
p4362
sa(dp4363
g38
I4096745987
sg39
(dp4364
g41
VE6 Cratos HCS
p4365
sg43
Nssg44
(lp4366
I2758383128
asg32
VWeaponPickup
p4367
sg35
VPT4M18.1997606S
p4368
sa(dp4369
g32
VPlayerSpawn
p4370
sg39
(dp4371
g41
VE6 Cratos HCS
p4372
sg43
Nssg35
VPT4M18.1997606S
p4373
sa(dp4374
g38
I313138863
sg32
VWeaponDrop
p4375
sg180
I0
sg44
(lp4376
I1095363701
asg35
VPT4M18.3920922S
p4377
sg183
I0
sg184
VP0DT0H0M1.3167S
p4378
sg39
(dp4379
g41
VE6 Shooter
p4380
sg43
Nssa(dp4381
g38
I723523180
sg39
(dp4382
g41
VE6 Shooter
p4383
sg43
Nssg44
(lp4384
I2758383128
asg32
VWeaponPickupPad
p4385
sg35
VPT4M18.3920922S
p4386
sa(dp4387
g38
I723523180
sg39
(dp4388
g41
VE6 Shooter
p4389
sg43
Nssg44
(lp4390
I2758383128
asg32
VWeaponPickup
p4391
sg35
VPT4M18.3920922S
p4392
sa(dp4393
g240
I4096745987
sg241
I00
sg242
I00
sg243
(dp4394
g41
VE6 bubu dubu
p4395
sg43
Nssg246
(lp4396
I2758383128
asg248
I00
sg249
I01
sg250
I1
sg251
I0
sg252
I1
sg253
(dp4397
Vy
F1.4657058700000001
sVx
F-2.5959346299999999
sVz
F0.70846819999999999
ssg255
(dp4398
Vy
F-3.39177346
sVx
F-1.66924345
sVz
F-0.001083374
ssg257
I00
sg258
(dp4399
g41
VRNG Ninja HCS
p4400
sg43
Nssg261
(lp4401
sg263
(lp4402
(dp4403
g41
VE6 Cratos HCS
p4404
sg43
Nsa(dp4405
g41
VE6 Huke HCS
p4406
sg43
Nsasg267
I01
sg35
VPT4M23.9310903S
p4407
sg32
VDeath
p4408
sg270
I1
sa(dp4409
g32
VMedal
p4410
sg39
(dp4411
g41
VE6 bubu dubu
p4412
sg43
Nssg275
I3261908037
sg35
VPT4M23.9330903S
p4413
sa(dp4414
g38
I313138863
sg32
VWeaponDrop
p4415
sg180
I18
sg44
(lp4416
I1095363701
asg35
VPT4M23.9403262S
p4417
sg183
I12
sg184
VP0DT0H0M7.3333S
p4418
sg39
(dp4419
g41
VRNG Ninja HCS
p4420
sg43
Nssa(dp4421
g38
I313138863
sg32
VWeaponDrop
p4422
sg180
I0
sg44
(lp4423
I1095363701
asg35
VPT4M23.9403262S
p4424
sg183
I0
sg184
VP0DT0S
p4425
sg39
(dp4426
g41
VRNG Ninja HCS
p4427
sg43
Nssa(dp4428
g38
I4096745987
sg32
VWeaponDrop
p4429
sg180
I14
sg44
(lp4430
I2758383128
asg35
VPT4M23.9403262S
p4431
sg183
I7
sg184
VP0DT0H0M15.4000S
p4432
sg39
(dp4433
g41
VRNG Ninja HCS
p4434
sg43
Nssa(dp4435
g240
I4096745987
sg241
I00
sg242
I00
sg243
(dp4436
g41
VRNG Victory X
p4437
sg43
Nssg246
(lp4438
I2758383128
asg248
I00
sg249
I01
sg250
I1
sg251
I0
sg252
I1
sg253
(dp4439
Vy
F3.871969
sVx
F2.7575729999999998
sVz
F-0.0010834038300000001
ssg255
(dp4440
Vy
F2.6436736600000001
sVx
F-2.6218884
sVz
F0.241120219
ssg257
I00
sg258
(dp4441
g41
VE6 bubu dubu
p4442
sg43
Nssg261
(lp4443
sg263
(lp4444
(dp4445
g41
VRNG Ninja HCS
p4446
sg43
Nsasg267
I01
sg35
VPT4M24.7431374S
p4447
sg32
VDeath
p4448
sg270
I1
sa(dp4449
g32
VMedal
p4450
sg39
(dp4451
g41
VRNG Victory X
p4452
sg43
Nssg275
I3261908037
sg35
VPT4M24.7441372S
p4453
sa(dp4454
g38
I313138863
sg32
VWeaponDrop
p4455
sg180
I0
sg44
(lp4456
I1095363701
asg35
VPT4M24.7514267S
p4457
sg183
I0
sg184
VP0DT0H0M0.7000S
p4458
sg39
(dp4459
g41
VE6 bubu dubu
p4460
sg43
Nssa(dp4461
g38
I4096745987
sg32
VWeaponDrop
p4462
sg180
I8
sg44
(lp4463
I2758383128
asg35
VPT4M24.7514267S
p4464
sg183
I3
sg184
VP0DT0H0M19.7500S
p4465
sg39
(dp4466
g41
VE6 bubu dubu
p4467
sg43
Nssa(dp4468
g240
I1579758889
sg241
I00
sg242
I00
sg243
(dp4469
g41
VE6 Huke HCS
p4470
sg43
Nssg246
(lp4471
I2758383128
asg248
I00
sg249
I01
sg250
I1
sg251
I0
sg252
I1
sg253
(dp4472
Vy
F-0.21134081499999999
sVx
F2.1027589999999998
sVz
F0.51040209999999997
ssg255
(dp4473
Vy
F0.52036490000000002
sVx
F0.79126703700000001
sVz
F0.41589749999999998
ssg257
I00
sg258
(dp4474
g41
VRNG Victory X
p4475
sg43
Nssg261
(lp4476
sg263
(lp4477
(dp4478
g41
VE6 Cratos HCS
p4479
sg43
Nsasg267
I00
sg35
VPT4M26.6092442S
p4480
sg32
VDeath
p4481
sg270
I1
sa(dp4482
g38
I313138863
sg32
VWeaponDrop
p4483
sg180
I0
sg44
(lp4484
I1095363701
asg35
VPT4M26.6112449S
p4485
sg183
I0
sg184
VP0DT0H0M0.5333S
p4486
sg39
(dp4487
g41
VRNG Victory X
p4488
sg43
Nssa(dp4489
g38
I4096745987
sg32
VWeaponDrop
p4490
sg180
I8
sg44
(lp4491
I2758383128
asg35
VPT4M26.6112449S
p4492
sg183
I3
sg184
VP0DT0H0M9.4833S
p4493
sg39
(dp4494
g41
VRNG Victory X
p4495
sg43
Nssa(dp4496
g38
I4096745987
sg32
VWeaponDrop
p4497
sg180
I11
sg44
(lp4498
I2758383128
asg35
VPT4M29.1125789S
p4499
sg183
I4
sg184
VP0DT0H0M10.2833S
p4500
sg39
(dp4501
g41
VE6 Huke HCS
p4502
sg43
Nssa(dp4503
g38
I313138863
sg39
(dp4504
g41
VE6 Huke HCS
p4505
sg43
Nssg44
(lp4506
I1095363701
asg32
VWeaponPickup
p4507
sg35
VPT4M29.1125789S
p4508
sa(dp4509
g38
I2492868984
sg39
(dp4510
g41
VE6 Huke HCS
p4511
sg43
Nssg44
(lp4512
I2758383128
asg32
VWeaponPickup
p4513
sg35
VPT4M29.9094343S
p4514
sa(dp4515
g38
I2492868984
sg32
VWeaponDrop
p4516
sg180
I0
sg44
(lp4517
I2758383128
asg35
VPT4M31.0675016S
p4518
sg183
I0
sg184
VP0DT0H0M0.9833S
p4519
sg39
(dp4520
g41
VE6 Huke HCS
p4521
sg43
Nssa(dp4522
g38
I313138863
sg32
VWeaponDrop
p4523
sg180
I0
sg44
(lp4524
I1095363701
asg35
VPT4M31.2085077S
p4525
sg183
I0
sg184
VP0DT0H0M1.1000S
p4526
sg39
(dp4527
g41
VE6 Huke HCS
p4528
sg43
Nssa(dp4529
g38
I4096745987
sg39
(dp4530
g41
VE6 Huke HCS
p4531
sg43
Nssg44
(lp4532
I2758383128
asg32
VWeaponPickup
p4533
sg35
VPT4M31.2085077S
p4534
sa(dp4535
g38
I313138863
sg39
(dp4536
g41
VRNG Ninja HCS
p4537
sg43
Nssg44
(lp4538
I1095363701
asg32
VWeaponPickup
p4539
sg35
VPT4M31.9465522S
p4540
sa(dp4541
g38
I4096745987
sg39
(dp4542
g41
VRNG Ninja HCS
p4543
sg43
Nssg44
(lp4544
I2758383128
asg32
VWeaponPickup
p4545
sg35
VPT4M31.9465522S
p4546
sa(dp4547
g32
VPlayerSpawn
p4548
sg39
(dp4549
g41
VRNG Ninja HCS
p4550
sg43
Nssg35
VPT4M31.9465522S
p4551
sa(dp4552
g38
I313138863
sg39
(dp4553
g41
VE6 bubu dubu
p4554
sg43
Nssg44
(lp4555
I1095363701
asg32
VWeaponPickup
p4556
sg35
VPT4M32.7667323S
p4557
sa(dp4558
g38
I4096745987
sg39
(dp4559
g41
VE6 bubu dubu
p4560
sg43
Nssg44
(lp4561
I2758383128
asg32
VWeaponPickup
p4562
sg35
VPT4M32.7668655S
p4563
sa(dp4564
g32
VPlayerSpawn
p4565
sg39
(dp4566
g41
VE6 bubu dubu
p4567
sg43
Nssg35
VPT4M32.7668655S
p4568
sa(dp4569
g240
I4096745987
sg241
I00
sg242
I01
sg243
(dp4570
g41
VE6 Huke HCS
p4571
sg43
Nssg246
(lp4572
I2758383128
asg248
I00
sg249
I00
sg250
I1
sg251
I0
sg252
I1
sg253
(dp4573
Vy
F0.13604944899999999
sVx
F-4.3614420000000003
sVz
F-0.01759784
ssg255
(dp4574
Vy
F0.32134354100000001
sVx
F-4.7051076900000002
sVz
F0.0401559472
ssg257
I00
sg258
(dp4575
g41
VRNG Penguin HCS
p4576
sg43
Nssg261
(lp4577
sg263
(lp4578
sg267
I00
sg35
VPT4M32.7976015S
p4579
sg32
VDeath
p4580
sg270
I1
sa(dp4581
g32
VMedal
p4582
sg39
(dp4583
g41
VE6 Huke HCS
p4584
sg43
Nssg275
I2287626681
sg35
VPT4M32.7986018S
p4585
sa(dp4586
g38
I2015271382
sg32
VWeaponDrop
p4587
sg180
I17
sg44
(lp4588
I2758383128
asg35
VPT4M32.7986018S
p4589
sg183
I6
sg184
VP0DT0H0M12.2333S
p4590
sg39
(dp4591
g41
VRNG Penguin HCS
p4592
sg43
Nssa(dp4593
g38
I2015271382
sg32
VWeaponDrop
p4594
sg180
I0
sg44
(lp4595
I2758383128
asg35
VPT4M32.7986018S
p4596
sg183
I0
sg184
VP0DT0S
p4597
sg39
(dp4598
g41
VRNG Penguin HCS
p4599
sg43
Nssa(dp4600
g38
I4096745987
sg32
VWeaponDrop
p4601
sg180
I11
sg44
(lp4602
I2758383128
asg35
VPT4M32.7996016S
p4603
sg183
I2
sg184
VP0DT0H0M21.2833S
p4604
sg39
(dp4605
g41
VRNG Penguin HCS
p4606
sg43
Nssa(dp4607
g38
I1579758889
sg32
VWeaponDrop
p4608
sg180
I9
sg44
(lp4609
I2758383128
asg35
VPT4M33.6092707S
p4610
sg183
I6
sg184
VP0DT0H0M15.6833S
p4611
sg39
(dp4612
g41
VE6 Huke HCS
p4613
sg43
Nssa(dp4614
g38
I2015271382
sg39
(dp4615
g41
VE6 Huke HCS
p4616
sg43
Nssg44
(lp4617
I2758383128
asg32
VWeaponPickup
p4618
sg35
VPT4M33.609338S
p4619
sa(dp4620
g38
I4096745987
sg32
VWeaponDrop
p4621
sg180
I0
sg44
(lp4622
I2758383128
asg35
VPT4M33.7756571S
p4623
sg183
I0
sg184
VP0DT0H0M0.5000S
p4624
sg39
(dp4625
g41
VRNG Ninja HCS
p4626
sg43
Nssa(dp4627
g38
I523953283
sg39
(dp4628
g41
VRNG Ninja HCS
p4629
sg43
Nssg44
(lp4630
I1327094800
asg32
VWeaponPickup
p4631
sg35
VPT4M33.7756571S
p4632
sa(dp4633
g38
I313138863
sg39
(dp4634
g41
VRNG Victory X
p4635
sg43
Nssg44
(lp4636
I1095363701
asg32
VWeaponPickup
p4637
sg35
VPT4M34.6277071S
p4638
sa(dp4639
g38
I4096745987
sg39
(dp4640
g41
VRNG Victory X
p4641
sg43
Nssg44
(lp4642
I2758383128
asg32
VWeaponPickup
p4643
sg35
VPT4M34.6277071S
p4644
sa(dp4645
g32
VPlayerSpawn
p4646
sg39
(dp4647
g41
VRNG Victory X
p4648
sg43
Nssg35
VPT4M34.6277071S
p4649
sa(dp4650
g240
I4096745987
sg241
I00
sg242
I00
sg243
(dp4651
g41
VE6 Huke HCS
p4652
sg43
Nssg246
(lp4653
I2758383128
asg248
I00
sg249
I01
sg250
I1
sg251
I0
sg252
I1
sg253
(dp4654
Vy
F7.7324376099999999
sVx
F-10.652285600000001
sVz
F2.4783080000000002
ssg255
(dp4655
Vy
F5.8783225999999997
sVx
F-6.5588274000000002
sVz
F2.4186640000000001
ssg257
I00
sg258
(dp4656
g41
VRNG Commonly
p4657
sg43
Nssg261
(lp4658
sg263
(lp4659
sg267
I01
sg35
VPT4M39.1309659S
p4660
sg32
VDeath
p4661
sg270
I1
sa(dp4662
g32
VMedal
p4663
sg39
(dp4664
g41
VE6 Huke HCS
p4665
sg43
Nssg275
I3261908037
sg35
VPT4M39.1399662S
p4666
sa(dp4667
g38
I313138863
sg32
VWeaponDrop
p4668
sg180
I0
sg44
(lp4669
I1095363701
asg35
VPT4M39.1409671S
p4670
sg183
I0
sg184
VP0DT0H0M0.6667S
p4671
sg39
(dp4672
g41
VRNG Commonly
p4673
sg43
Nssa(dp4674
g38
I523953283
sg32
VWeaponDrop
p4675
sg180
I31
sg44
(lp4676
I1327094800
asg35
VPT4M39.1409671S
p4677
sg183
I17
sg184
VP0DT0H1M3.4833S
p4678
sg39
(dp4679
g41
VRNG Commonly
p4680
sg43
Nssa(dp4681
g240
I523953283
sg241
I00
sg242
I00
sg243
(dp4682
g41
VRNG Ninja HCS
p4683
sg43
Nssg246
(lp4684
I1327094800
asg248
I00
sg249
I01
sg250
I1
sg251
I0
sg252
I1
sg253
(dp4685
Vy
F-6.7971940000000002
sVx
F17.937175799999999
sVz
F1.3631566799999999
ssg255
(dp4686
Vy
F-9.7334999999999994
sVx
F17.386396399999999
sVz
F1.6321186999999999
ssg257
I00
sg258
(dp4687
g41
VE6 Cratos HCS
p4688
sg43
Nssg261
(lp4689
sg263
(lp4690
sg267
I00
sg35
VPT4M40.0830211S
p4691
sg32
VDeath
p4692
sg270
I1
sa(dp4693
g38
I313138863
sg32
VWeaponDrop
p4694
sg180
I0
sg44
(lp4695
I1095363701
asg35
VPT4M40.0840208S
p4696
sg183
I0
sg184
VP0DT0H0M0.9833S
p4697
sg39
(dp4698
g41
VE6 Cratos HCS
p4699
sg43
Nssa(dp4700
g38
I4096745987
sg32
VWeaponDrop
p4701
sg180
I14
sg44
(lp4702
I2758383128
asg35
VPT4M40.0840208S
p4703
sg183
I8
sg184
VP0DT0H0M20.9000S
p4704
sg39
(dp4705
g41
VE6 Cratos HCS
p4706
sg43
Nssa(dp4707
g38
I313138863
sg39
(dp4708
g41
VRNG Penguin HCS
p4709
sg43
Nssg44
(lp4710
I1095363701
asg32
VWeaponPickup
p4711
sg35
VPT4M40.8173379S
p4712
sa(dp4713
g38
I4096745987
sg39
(dp4714
g41
VRNG Penguin HCS
p4715
sg43
Nssg44
(lp4716
I2758383128
asg32
VWeaponPickup
p4717
sg35
VPT4M40.8173379S
p4718
sa(dp4719
g32
VPlayerSpawn
p4720
sg39
(dp4721
g41
VRNG Penguin HCS
p4722
sg43
Nssg35
VPT4M40.8180643S
p4723
sa(dp4724
g38
I313138863
sg32
VWeaponDrop
p4725
sg180
I0
sg44
(lp4726
I1095363701
asg35
VPT4M43.6132229S
p4727
sg183
I0
sg184
VP0DT0H0M1.6667S
p4728
sg39
(dp4729
g41
VRNG Penguin HCS
p4730
sg43
Nssa(dp4731
g38
I3484334713
sg39
(dp4732
g41
VRNG Penguin HCS
p4733
sg43
Nssg44
(lp4734
I2758383128
asg32
VWeaponPickup
p4735
sg35
VPT4M43.6132229S
p4736
sa(dp4737
g38
I4096745987
sg32
VWeaponDrop
p4738
sg180
I1
sg44
(lp4739
I2758383128
asg35
VPT4M43.683433S
p4740
sg183
I1
sg184
VPT0S
p4741
sg39
(dp4742
g41
VRNG Ninja HCS
p4743
sg43
Nssa(dp4744
g38
I313138863
sg32
VWeaponDrop
p4745
sg180
I0
sg44
(lp4746
I1095363701
asg35
VPT4M44.5627369S
p4747
sg183
I0
sg184
VP0DT0H0M1.3833S
p4748
sg39
(dp4749
g41
VE6 bubu dubu
p4750
sg43
Nssa(dp4751
g38
I2015271382
sg39
(dp4752
g41
VE6 bubu dubu
p4753
sg43
Nssg44
(lp4754
I2758383128
asg32
VWeaponPickup
p4755
sg35
VPT4M44.5627369S
p4756
sa(dp4757
g38
I313138863
sg39
(dp4758
g41
VRNG Commonly
p4759
sg43
Nssg44
(lp4760
I1095363701
asg32
VWeaponPickup
p4761
sg35
VPT4M47.1444277S
p4762
sa(dp4763
g38
I4096745987
sg39
(dp4764
g41
VRNG Commonly
p4765
sg43
Nssg44
(lp4766
I2758383128
asg32
VWeaponPickup
p4767
sg35
VPT4M47.1444277S
p4768
sa(dp4769
g32
VPlayerSpawn
p4770
sg39
(dp4771
g41
VRNG Commonly
p4772
sg43
Nssg35
VPT4M47.1444277S
p4773
sa(dp4774
g38
I313138863
sg39
(dp4775
g41
VE6 Cratos HCS
p4776
sg43
Nssg44
(lp4777
I1095363701
asg32
VWeaponPickup
p4778
sg35
VPT4M48.0954838S
p4779
sa(dp4780
g38
I4096745987
sg39
(dp4781
g41
VE6 Cratos HCS
p4782
sg43
Nssg44
(lp4783
I2758383128
asg32
VWeaponPickup
p4784
sg35
VPT4M48.0954838S
p4785
sa(dp4786
g32
VPlayerSpawn
p4787
sg39
(dp4788
g41
VE6 Cratos HCS
p4789
sg43
Nssg35
VPT4M48.0954838S
p4790
sa(dp4791
g240
I3484334713
sg241
I00
sg242
I00
sg243
(dp4792
g41
VRNG Penguin HCS
p4793
sg43
Nssg246
(lp4794
I2758383128
asg248
I00
sg249
I01
sg250
I1
sg251
I0
sg252
I1
sg253
(dp4795
Vy
F16.200523400000002
sVx
F-7.5811462399999998
sVz
F1.6008519999999999
ssg255
(dp4796
Vy
F15.1871166
sVx
F-8.4553670000000007
sVz
F1.6102523799999999
ssg257
I00
sg258
(dp4797
g41
VE6 Huke HCS
p4798
sg43
Nssg261
(lp4799
sg263
(lp4800
sg267
I00
sg35
VPT4M48.2654918S
p4801
sg32
VDeath
p4802
sg270
I1
sa(dp4803
g38
I2015271382
sg32
VWeaponDrop
p4804
sg180
I2
sg44
(lp4805
I2758383128
asg35
VPT4M48.2729037S
p4806
sg183
I2
sg184
VP0DT0H0M3.9500S
p4807
sg39
(dp4808
g41
VE6 Huke HCS
p4809
sg43
Nssa(dp4810
g38
I4096745987
sg32
VWeaponDrop
p4811
sg180
I15
sg44
(lp4812
I2758383128
asg35
VPT4M48.2729037S
p4813
sg183
I9
sg184
VP0DT0H0M12.9333S
p4814
sg39
(dp4815
g41
VE6 Huke HCS
p4816
sg43
Nssa(dp4817
g38
I4096745987
sg32
VWeaponDrop
p4818
sg180
I0
sg44
(lp4819
I2758383128
asg35
VPT4M48.2729037S
p4820
sg183
I0
sg184
VP0DT0S
p4821
sg39
(dp4822
g41
VE6 Huke HCS
p4823
sg43
Nssa(dp4824
g240
I523953283
sg241
I00
sg242
I00
sg243
(dp4825
g41
VE6 Shooter
p4826
sg43
Nssg246
(lp4827
I1327094800
asg248
I00
sg249
I01
sg250
I1
sg251
I0
sg252
I1
sg253
(dp4828
Vy
F-8.5301159999999996
sVx
F-0.53550606999999995
sVz
F2.4012630000000001
ssg255
(dp4829
Vy
F-8.1246270000000003
sVx
F15.965925199999999
sVz
F0.79998880000000006
ssg257
I00
sg258
(dp4830
g41
VRNG Ninja HCS
p4831
sg43
Nssg261
(lp4832
sg263
(lp4833
(dp4834
g41
VE6 bubu dubu
p4835
sg43
Nsa(dp4836
g41
VE6 Cratos HCS
p4837
sg43
Nsasg267
I00
sg35
VPT4M50.3786189S
p4838
sg32
VDeath
p4839
sg270
I1
sa(dp4840
g38
I523953283
sg32
VWeaponDrop
p4841
sg180
I8
sg44
(lp4842
I1327094800
asg35
VPT4M50.3806136S
p4843
sg183
I2
sg184
VP0DT0H0M9.9333S
p4844
sg39
(dp4845
g41
VRNG Ninja HCS
p4846
sg43
Nssa(dp4847
g38
I523953283
sg32
VWeaponDrop
p4848
sg180
I0
sg44
(lp4849
I1327094800
asg35
VPT4M50.3806136S
p4850
sg183
I0
sg184
VP0DT0S
p4851
sg39
(dp4852
g41
VRNG Ninja HCS
p4853
sg43
Nssa(dp4854
g38
I313138863
sg32
VWeaponDrop
p4855
sg180
I0
sg44
(lp4856
I1095363701
asg35
VPT4M50.3876125S
p4857
sg183
I0
sg184
VP0DT0H0M8.0000S
p4858
sg39
(dp4859
g41
VRNG Ninja HCS
p4860
sg43
Nssa(dp4861
g240
I3484334713
sg241
I00
sg242
I00
sg243
(dp4862
g41
VRNG Penguin HCS
p4863
sg43
Nssg246
(lp4864
I2758383128
asg248
I00
sg249
I01
sg250
I1
sg251
I0
sg252
I1
sg253
(dp4865
Vy
F2.7632590000000001
sVx
F-5.6925382600000001
sVz
F2.4000213100000001
ssg255
(dp4866
Vy
F2.4904162900000002
sVx
F-5.4556202899999997
sVz
F2.418628
ssg257
I00
sg258
(dp4867
g41
VE6 bubu dubu
p4868
sg43
Nssg261
(lp4869
sg263
(lp4870
(dp4871
g41
VRNG Victory X
p4872
sg43
Nsasg267
I00
sg35
VPT4M54.7678656S
p4873
sg32
VDeath
p4874
sg270
I1
sa(dp4875
g38
I2015271382
sg32
VWeaponDrop
p4876
sg180
I0
sg44
(lp4877
I2758383128
asg35
VPT4M54.7698676S
p4878
sg183
I0
sg184
VP0DT0H0M0.5000S
p4879
sg39
(dp4880
g41
VE6 bubu dubu
p4881
sg43
Nssa(dp4882
g38
I4096745987
sg32
VWeaponDrop
p4883
sg180
I12
sg44
(lp4884
I2758383128
asg35
VPT4M54.7698676S
p4885
sg183
I6
sg184
VP0DT0H0M20.1167S
p4886
sg39
(dp4887
g41
VE6 bubu dubu
p4888
sg43
Nssa(dp4889
g38
I4096745987
sg32
VWeaponDrop
p4890
sg180
I0
sg44
(lp4891
I2758383128
asg35
VPT4M54.7698676S
p4892
sg183
I0
sg184
VP0DT0S
p4893
sg39
(dp4894
g41
VE6 bubu dubu
p4895
sg43
Nssa(dp4896
g240
I4096745987
sg241
I00
sg242
I00
sg243
(dp4897
g41
VRNG Penguin HCS
p4898
sg43
Nssg246
(lp4899
I2758383128
asg248
I00
sg249
I01
sg250
I1
sg251
I0
sg252
I1
sg253
(dp4900
Vy
F2.6408057199999999
sVx
F-6.1175660000000001
sVz
F2.97227716
ssg255
(dp4901
Vy
F1.3795832400000001
sVx
F-0.1243253
sVz
F2.4858989999999999
ssg257
I00
sg258
(dp4902
g41
VE6 Shooter
p4903
sg43
Nssg261
(lp4904
sg263
(lp4905
(dp4906
g41
VRNG Commonly
p4907
sg43
Nsasg267
I01
sg35
VPT4M55.7139213S
p4908
sg32
VDeath
p4909
sg270
I1
sa(dp4910
g32
VMedal
p4911
sg39
(dp4912
g41
VRNG Penguin HCS
p4913
sg43
Nssg275
I3261908037
sg35
VPT4M55.7159252S
p4914
sa(dp4915
g32
VMedal
p4916
sg39
(dp4917
g41
VRNG Penguin HCS
p4918
sg43
Nssg275
I2078758684
sg35
VPT4M55.7159252S
p4919
sa(dp4920
g38
I723523180
sg32
VWeaponDrop
p4921
sg180
I1
sg44
(lp4922
I2758383128
asg35
VPT4M55.7219201S
p4923
sg183
I1
sg184
VP0DT0H0M20.1000S
p4924
sg39
(dp4925
g41
VE6 Shooter
p4926
sg43
Nssa(dp4927
g38
I523953283
sg32
VWeaponDrop
p4928
sg180
I4
sg44
(lp4929
I1327094800
asg35
VPT4M55.7219201S
p4930
sg183
I2
sg184
VP0DT0H0M21.8667S
p4931
sg39
(dp4932
g41
VE6 Shooter
p4933
sg43
Nssa(dp4934
g38
I313138863
sg39
(dp4935
g41
VE6 Huke HCS
p4936
sg43
Nssg44
(lp4937
I1095363701
asg32
VWeaponPickup
p4938
sg35
VPT4M56.2779543S
p4939
sa(dp4940
g38
I4096745987
sg39
(dp4941
g41
VE6 Huke HCS
p4942
sg43
Nssg44
(lp4943
I2758383128
asg32
VWeaponPickup
p4944
sg35
VPT4M56.284082S
p4945
sa(dp4946
g32
VPlayerSpawn
p4947
sg39
(dp4948
g41
VE6 Huke HCS
p4949
sg43
Nssg35
VPT4M56.284082S
p4950
sa(dp4951
g38
I313138863
sg32
VWeaponDrop
p4952
sg180
I0
sg44
(lp4953
I1095363701
asg35
VPT4M57.9305938S
p4954
sg183
I0
sg184
VP0DT0H0M1.1667S
p4955
sg39
(dp4956
g41
VRNG Commonly
p4957
sg43
Nssa(dp4958
g38
I523953283
sg39
(dp4959
g41
VRNG Commonly
p4960
sg43
Nssg44
(lp4961
I1327094800
asg32
VWeaponPickup
p4962
sg35
VPT4M57.9305938S
p4963
sa(dp4964
g38
I3484334713
sg32
VWeaponDrop
p4965
sg180
I2
sg44
(lp4966
I2758383128
asg35
VPT4M58.0985688S
p4967
sg183
I2
sg184
VP0DT0H0M6.7167S
p4968
sg39
(dp4969
g41
VRNG Penguin HCS
p4970
sg43
Nssa(dp4971
g38
I723523180
sg39
(dp4972
g41
VRNG Penguin HCS
p4973
sg43
Nssg44
(lp4974
I2758383128
asg32
VWeaponPickup
p4975
sg35
VPT4M58.0985688S
p4976
sa(dp4977
g38
I313138863
sg39
(dp4978
g41
VRNG Ninja HCS
p4979
sg43
Nssg44
(lp4980
I1095363701
asg32
VWeaponPickup
p4981
sg35
VPT4M58.4000764S
p4982
sa(dp4983
g38
I4096745987
sg39
(dp4984
g41
VRNG Ninja HCS
p4985
sg43
Nssg44
(lp4986
I2758383128
asg32
VWeaponPickup
p4987
sg35
VPT4M58.4010765S
p4988
sa(dp4989
g32
VPlayerSpawn
p4990
sg39
(dp4991
g41
VRNG Ninja HCS
p4992
sg43
Nssg35
VPT4M58.4010765S
p4993
sa(dp4994
g38
I4096745987
sg32
VWeaponDrop
p4995
sg180
I9
sg44
(lp4996
I2758383128
asg35
VPT4M59.7621525S
p4997
sg183
I4
sg184
VP0DT0H0M20.8833S
p4998
sg39
(dp4999
g41
VRNG Victory X
p5000
sg43
Nssa(dp5001
g38
I523953283
sg39
(dp5002
g41
VRNG Victory X
p5003
sg43
Nssg44
(lp5004
I1327094800
asg32
VWeaponPickup
p5005
sg35
VPT4M59.7621525S
p5006
sa(dp5007
g38
I313138863
sg39
(dp5008
g41
VE6 bubu dubu
p5009
sg43
Nssg44
(lp5010
I1095363701
asg32
VWeaponPickup
p5011
sg35
VPT5M2.7783286S
p5012
sa(dp5013
g38
I4096745987
sg39
(dp5014
g41
VE6 bubu dubu
p5015
sg43
Nssg44
(lp5016
I2758383128
asg32
VWeaponPickup
p5017
sg35
VPT5M2.7783286S
p5018
sa(dp5019
g32
VPlayerSpawn
p5020
sg39
(dp5021
g41
VE6 bubu dubu
p5022
sg43
Nssg35
VPT5M2.7783286S
p5023
sa(dp5024
g38
I4096745987
sg32
VWeaponDrop
p5025
sg180
I0
sg44
(lp5026
I2758383128
asg35
VPT5M3.3111844S
p5027
sg183
I0
sg184
VP0DT0H0M9.8333S
p5028
sg39
(dp5029
g41
VRNG Commonly
p5030
sg43
Nssa(dp5031
g38
I723388907
sg39
(dp5032
g41
VRNG Commonly
p5033
sg43
Nssg44
(lp5034
I89283061
asg32
VWeaponPickup
p5035
sg35
VPT5M3.311366S
p5036
sa(dp5037
g240
I723523180
sg241
I00
sg242
I00
sg243
(dp5038
g41
VRNG Penguin HCS
p5039
sg43
Nssg246
(lp5040
I2758383128
asg248
I00
sg249
I00
sg250
I2
sg251
I0
sg252
I0
sg253
(dp5041
Vy
F-0.24348847600000001
sVx
F-6.6141540000000001
sVz
F2.3999292900000002
ssg255
(dp5042
Vy
F-6.84938526
sVx
F-13.0898418
sVz
F2.3450815700000001
ssg257
I00
sg258
(dp5043
g1437
g1438
ssg261
(lp5044
sg263
(lp5045
sg267
I00
sg35
VPT5M3.4498538S
p5046
sg32
VDeath
p5047
sg270
I1
sa(dp5048
g240
I723523180
sg241
I00
sg242
I00
sg243
(dp5049
g41
VRNG Penguin HCS
p5050
sg43
Nssg246
(lp5051
I2758383128
asg248
I00
sg249
I00
sg250
I2
sg251
I0
sg252
I0
sg253
(dp5052
Vy
F-0.24348847600000001
sVx
F-6.6141540000000001
sVz
F2.3999292900000002
ssg255
(dp5053
Vy
F-7.2025579999999998
sVx
F-13.532804499999999
sVz
F2.3590339999999999
ssg257
I00
sg258
(dp5054
g1437
g1438
ssg261
(lp5055
sg263
(lp5056
sg267
I00
sg35
VPT5M3.4499203S
p5057
sg32
VDeath
p5058
sg270
I1
sa(dp5059
g240
I723523180
sg241
I00
sg242
I00
sg243
(dp5060
g41
VRNG Penguin HCS
p5061
sg43
Nssg246
(lp5062
I2758383128
asg248
I00
sg249
I01
sg250
I1
sg251
I0
sg252
I1
sg253
(dp5063
Vy
F-0.24348847600000001
sVx
F-6.6141540000000001
sVz
F2.3999292900000002
ssg255
(dp5064
Vy
F-6.2388997100000001
sVx
F-14.560165400000001
sVz
F0.117564142
ssg257
I00
sg258
(dp5065
g41
VE6 Huke HCS
p5066
sg43
Nssg261
(lp5067
sg263
(lp5068
(dp5069
g41
VRNG Commonly
p5070
sg43
Nsasg267
I00
sg35
VPT5M3.4499203S
p5071
sg32
VDeath
p5072
sg270
I1
sa(dp5073
g32
VMedal
p5074
sg39
(dp5075
g41
VRNG Victory X
p5076
sg43
Nssg275
I824733727
sg35
VPT5M3.4503667S
p5077
sa(dp5078
g38
I313138863
sg32
VWeaponDrop
p5079
sg180
I0
sg44
(lp5080
I1095363701
asg35
VPT5M3.4513665S
p5081
sg183
I0
sg184
VP0DT0H0M1.1667S
p5082
sg39
(dp5083
g41
VE6 Huke HCS
p5084
sg43
Nssa(dp5085
g38
I4096745987
sg32
VWeaponDrop
p5086
sg180
I3
sg44
(lp5087
I2758383128
asg35
VPT5M3.4513665S
p5088
sg183
I2
sg184
VP0DT0H0M5.9500S
p5089
sg39
(dp5090
g41
VE6 Huke HCS
p5091
sg43
Nssa(dp5092
g38
I313138863
sg39
(dp5093
g41
VE6 Shooter
p5094
sg43
Nssg44
(lp5095
I1095363701
asg32
VWeaponPickup
p5096
sg35
VPT5M3.7793863S
p5097
sa(dp5098
g38
I4096745987
sg39
(dp5099
g41
VE6 Shooter
p5100
sg43
Nssg44
(lp5101
I2758383128
asg32
VWeaponPickup
p5102
sg35
VPT5M3.7793863S
p5103
sa(dp5104
g32
VPlayerSpawn
p5105
sg39
(dp5106
g41
VE6 Shooter
p5107
sg43
Nssg35
VPT5M3.7793863S
p5108
sa(dp5109
g240
I723523180
sg241
I00
sg242
I00
sg243
(dp5110
g41
VRNG Penguin HCS
p5111
sg43
Nssg246
(lp5112
I2758383128
asg248
I00
sg249
I00
sg250
I2
sg251
I0
sg252
I0
sg253
(dp5113
Vy
F1.9694069999999999
sVx
F-6.1179209999999999
sVz
F2.39995241
ssg255
(dp5114
Vy
F-3.746019
sVx
F-20.182009999999998
sVz
F5.2709140000000003
ssg257
I00
sg258
(dp5115
g1437
g1438
ssg261
(lp5116
sg263
(lp5117
sg267
I00
sg35
VPT5M9.1806969S
p5118
sg32
VDeath
p5119
sg270
I1
sa(dp5120
g240
I523953283
sg241
I00
sg242
I00
sg243
(dp5121
g41
VRNG Victory X
p5122
sg43
Nssg246
(lp5123
I1327094800
asg248
I00
sg249
I01
sg250
I1
sg251
I0
sg252
I1
sg253
(dp5124
Vy
F6.1012209999999998
sVx
F-20.112966499999999
sVz
F2.5148432299999999
ssg255
(dp5125
Vy
F-5.2154170000000004
sVx
F-19.7525139
sVz
F1.47532153
ssg257
I00
sg258
(dp5126
g41
VE6 Cratos HCS
p5127
sg43
Nssg261
(lp5128
sg263
(lp5129
(dp5130
g41
VRNG Penguin HCS
p5131
sg43
Nsasg267
I01
sg35
VPT5M9.199698S
p5132
sg32
VDeath
p5133
sg270
I1
sa(dp5134
g32
VMedal
p5135
sg39
(dp5136
g41
VRNG Victory X
p5137
sg43
Nssg275
I3261908037
sg35
VPT5M9.2016981S
p5138
sa(dp5139
g38
I313138863
sg32
VWeaponDrop
p5140
sg180
I0
sg44
(lp5141
I1095363701
asg35
VPT5M9.2016981S
p5142
sg183
I0
sg184
VP0DT0H0M0.9667S
p5143
sg39
(dp5144
g41
VE6 Cratos HCS
p5145
sg43
Nssa(dp5146
g38
I4096745987
sg32
VWeaponDrop
p5147
sg180
I10
sg44
(lp5148
I2758383128
asg35
VPT5M9.2016981S
p5149
sg183
I4
sg184
VP0DT0H0M20.0833S
p5150
sg39
(dp5151
g41
VE6 Cratos HCS
p5152
sg43
Nssa(dp5153
g240
I523953283
sg241
I00
sg242
I00
sg243
(dp5154
g41
VRNG Commonly
p5155
sg43
Nssg246
(lp5156
I1327094800
asg248
I00
sg249
I01
sg250
I1
sg251
I0
sg252
I1
sg253
(dp5157
Vy
F-5.7630853699999998
sVx
F6.2770510000000002
sVz
F2.4000587499999999
ssg255
(dp5158
Vy
F-13.0103922
sVx
F-0.39277124400000002
sVz
F2.4043886699999999
ssg257
I00
sg258
(dp5159
g41
VE6 bubu dubu
p5160
sg43
Nssg261
(lp5161
sg263
(lp5162
(dp5163
g41
VRNG Ninja HCS
p5164
sg43
Nsasg267
I01
sg35
VPT5M9.6497238S
p5165
sg32
VDeath
p5166
sg270
I1
sa(dp5167
g32
VMedal
p5168
sg39
(dp5169
g41
VRNG Commonly
p5170
sg43
Nssg275
I2838259753
sg35
VPT5M9.6497238S
p5171
sa(dp5172
g32
VImpulse
p5173
sg39
(dp5174
g41
VRNG Commonly
p5175
sg43
Nssg397
I2556889090
sg35
VPT5M9.6497238S
p5176
sa(dp5177
g32
VMedal
p5178
sg39
(dp5179
g41
VRNG Commonly
p5180
sg43
Nssg275
I3261908037
sg35
VPT5M9.651724S
p5181
sa(dp5182
g38
I313138863
sg32
VWeaponDrop
p5183
sg180
I0
sg44
(lp5184
I1095363701
asg35
VPT5M9.6583969S
p5185
sg183
I0
sg184
VP0DT0H0M0.6000S
p5186
sg39
(dp5187
g41
VE6 bubu dubu
p5188
sg43
Nssa(dp5189
g38
I4096745987
sg32
VWeaponDrop
p5190
sg180
I4
sg44
(lp5191
I2758383128
asg35
VPT5M9.6583969S
p5192
sg183
I4
sg184
VP0DT0H0M6.2167S
p5193
sg39
(dp5194
g41
VE6 bubu dubu
p5195
sg43
Nssa(dp5196
g38
I313138863
sg39
(dp5197
g41
VE6 Huke HCS
p5198
sg43
Nssg44
(lp5199
I1095363701
asg32
VWeaponPickup
p5200
sg35
VPT5M11.464829S
p5201
sa(dp5202
g38
I4096745987
sg39
(dp5203
g41
VE6 Huke HCS
p5204
sg43
Nssg44
(lp5205
I2758383128
asg32
VWeaponPickup
p5206
sg35
VPT5M11.464829S
p5207
sa(dp5208
g32
VPlayerSpawn
p5209
sg39
(dp5210
g41
VE6 Huke HCS
p5211
sg43
Nssg35
VPT5M11.464829S
p5212
sa(dp5213
g240
I523953283
sg241
I00
sg242
I00
sg243
(dp5214
g41
VRNG Commonly
p5215
sg43
Nssg246
(lp5216
I1327094800
asg248
I00
sg249
I01
sg250
I1
sg251
I0
sg252
I1
sg253
(dp5217
Vy
F-12.115037900000001
sVx
F-4.3670429999999998
sVz
F2.4040012399999999
ssg255
(dp5218
Vy
F-7.7258079999999998
sVx
F-9.0879700000000003
sVz
F0.00128862262
ssg257
I00
sg258
(dp5219
g41
VE6 Shooter
p5220
sg43
Nssg261
(lp5221
sg263
(lp5222
sg267
I00
sg35
VPT5M14.2109992S
p5223
sg32
VDeath
p5224
sg270
I1
sa(dp5225
g32
VMedal
p5226
sg39
(dp5227
g41
VRNG Commonly
p5228
sg43
Nssg275
I2078758684
sg35
VPT5M14.2129864S
p5229
sa(dp5230
g38
I313138863
sg32
VWeaponDrop
p5231
sg180
I0
sg44
(lp5232
I1095363701
asg35
VPT5M14.2193605S
p5233
sg183
I0
sg184
VP0DT0H0M0.3667S
p5234
sg39
(dp5235
g41
VE6 Shooter
p5236
sg43
Nssa(dp5237
g38
I4096745987
sg32
VWeaponDrop
p5238
sg180
I1
sg44
(lp5239
I2758383128
asg35
VPT5M14.2193605S
p5240
sg183
I0
sg184
VP0DT0H0M10.0667S
p5241
sg39
(dp5242
g41
VE6 Shooter
p5243
sg43
Nssa(dp5244
g38
I2244200496
sg39
(dp5245
g41
VRNG Victory X
p5246
sg43
Nssg44
(lp5247
I2758383128
asg32
VWeaponPickup
p5248
sg35
VPT5M14.3966603S
p5249
sa(dp5250
g32
VImpulse
p5251
sg39
(dp5252
g41
VRNG Victory X
p5253
sg43
Nssg397
I4191318012
sg35
VPT5M14.3969971S
p5254
sa(dp5255
g32
VImpulse
p5256
sg39
(dp5257
g41
VRNG Victory X
p5258
sg43
Nssg397
I1039658009
sg35
VPT5M14.3969971S
p5259
sa(dp5260
g38
I2244200496
sg32
VWeaponDrop
p5261
sg180
I0
sg44
(lp5262
I2758383128
asg35
VPT5M14.7942858S
p5263
sg183
I0
sg184
VP0DT0H0M0.2333S
p5264
sg39
(dp5265
g41
VRNG Victory X
p5266
sg43
Nssa(dp5267
g32
VImpulse
p5268
sg39
(dp5269
g41
VRNG Victory X
p5270
sg43
Nssg397
I3435524855
sg35
VPT5M14.7950201S
p5271
sa(dp5272
g38
I2244200496
sg39
(dp5273
g41
VRNG Victory X
p5274
sg43
Nssg44
(lp5275
I2758383128
asg32
VWeaponPickup
p5276
sg35
VPT5M17.0761501S
p5277
sa(dp5278
g32
VImpulse
p5279
sg39
(dp5280
g41
VRNG Victory X
p5281
sg43
Nssg397
I4191318012
sg35
VPT5M17.0771512S
p5282
sa(dp5283
g38
I313138863
sg39
(dp5284
g41
VE6 Cratos HCS
p5285
sg43
Nssg44
(lp5286
I1095363701
asg32
VWeaponPickup
p5287
sg35
VPT5M17.2161604S
p5288
sa(dp5289
g38
I4096745987
sg39
(dp5290
g41
VE6 Cratos HCS
p5291
sg43
Nssg44
(lp5292
I2758383128
asg32
VWeaponPickup
p5293
sg35
VPT5M17.2161604S
p5294
sa(dp5295
g32
VPlayerSpawn
p5296
sg39
(dp5297
g41
VE6 Cratos HCS
p5298
sg43
Nssg35
VPT5M17.2161604S
p5299
sa(dp5300
g38
I2244200496
sg32
VWeaponDrop
p5301
sg180
I0
sg44
(lp5302
I2758383128
asg35
VPT5M17.493174S
p5303
sg183
I0
sg184
VP0DT0H0M0.2500S
p5304
sg39
(dp5305
g41
VRNG Victory X
p5306
sg43
Nssa(dp5307
g32
VImpulse
p5308
sg39
(dp5309
g41
VRNG Victory X
p5310
sg43
Nssg397
I3435524855
sg35
VPT5M17.493174S
p5311
sa(dp5312
g38
I313138863
sg39
(dp5313
g41
VE6 bubu dubu
p5314
sg43
Nssg44
(lp5315
I1095363701
asg32
VWeaponPickup
p5316
sg35
VPT5M17.6641847S
p5317
sa(dp5318
g38
I4096745987
sg39
(dp5319
g41
VE6 bubu dubu
p5320
sg43
Nssg44
(lp5321
I2758383128
asg32
VWeaponPickup
p5322
sg35
VPT5M17.6651854S
p5323
sa(dp5324
g32
VPlayerSpawn
p5325
sg39
(dp5326
g41
VE6 bubu dubu
p5327
sg43
Nssg35
VPT5M17.6651854S
p5328
sa(dp5329
g38
I2244200496
sg39
(dp5330
g41
VRNG Victory X
p5331
sg43
Nssg44
(lp5332
I2758383128
asg32
VWeaponPickup
p5333
sg35
VPT5M19.1098809S
p5334
sa(dp5335
g32
VImpulse
p5336
sg39
(dp5337
g41
VRNG Victory X
p5338
sg43
Nssg397
I4191318012
sg35
VPT5M19.1102693S
p5339
sa(dp5340
g240
I723388907
sg241
I00
sg242
I00
sg243
(dp5341
g41
VRNG Commonly
p5342
sg43
Nssg246
(lp5343
I89283061
asg248
I00
sg249
I01
sg250
I1
sg251
I0
sg252
I1
sg253
(dp5344
Vy
F-11.53622
sVx
F2.7786262000000002
sVz
F0.69868830000000004
ssg255
(dp5345
Vy
F-15.8483038
sVx
F3.16890144
sVz
F1.1102271100000001
ssg257
I00
sg258
(dp5346
g41
VE6 Huke HCS
p5347
sg43
Nssg261
(lp5348
sg263
(lp5349
sg267
I00
sg35
VPT5M19.4282876S
p5350
sg32
VDeath
p5351
sg270
I1
sa(dp5352
g38
I313138863
sg32
VWeaponDrop
p5353
sg180
I0
sg44
(lp5354
I1095363701
asg35
VPT5M19.4362871S
p5355
sg183
I0
sg184
VP0DT0H0M0.6500S
p5356
sg39
(dp5357
g41
VE6 Huke HCS
p5358
sg43
Nssa(dp5359
g38
I4096745987
sg32
VWeaponDrop
p5360
sg180
I7
sg44
(lp5361
I2758383128
asg35
VPT5M19.4362871S
p5362
sg183
I5
sg184
VP0DT0H0M7.3167S
p5363
sg39
(dp5364
g41
VE6 Huke HCS
p5365
sg43
Nssa(dp5366
g38
I2244200496
sg32
VWeaponDrop
p5367
sg180
I0
sg44
(lp5368
I2758383128
asg35
VPT5M19.9266442S
p5369
sg183
I0
sg184
VP0DT0H0M0.6500S
p5370
sg39
(dp5371
g41
VRNG Victory X
p5372
sg43
Nssa(dp5373
g32
VImpulse
p5374
sg39
(dp5375
g41
VRNG Victory X
p5376
sg43
Nssg397
I3435524855
sg35
VPT5M19.9273157S
p5377
sa(dp5378
g240
I4096745987
sg241
I00
sg242
I00
sg243
(dp5379
g41
VE6 Cratos HCS
p5380
sg43
Nssg246
(lp5381
I2758383128
asg248
I00
sg249
I01
sg250
I1
sg251
I0
sg252
I1
sg253
(dp5382
Vy
F-11.265309999999999
sVx
F-6.4102797499999999
sVz
F0.54027164000000005
ssg255
(dp5383
Vy
F-7.3547570000000002
sVx
F-2.1940043
sVz
F-0.0010834038300000001
ssg257
I00
sg258
(dp5384
g41
VRNG Victory X
p5385
sg43
Nssg261
(lp5386
sg263
(lp5387
sg267
I01
sg35
VPT5M20.5832909S
p5388
sg32
VDeath
p5389
sg270
I1
sa(dp5390
g32
VImpulse
p5391
sg39
(dp5392
g41
VE6 Cratos HCS
p5393
sg43
Nssg397
I3174430457
sg35
VPT5M20.5843529S
p5394
sa(dp5395
g32
VMedal
p5396
sg39
(dp5397
g41
VE6 Cratos HCS
p5398
sg43
Nssg275
I164204247
sg35
VPT5M20.5843529S
p5399
sa(dp5400
g32
VMedal
p5401
sg39
(dp5402
g41
VE6 Cratos HCS
p5403
sg43
Nssg275
I3653057799
sg35
VPT5M20.5857519S
p5404
sa(dp5405
g38
I313138863
sg32
VWeaponDrop
p5406
sg180
I0
sg44
(lp5407
I1095363701
asg35
VPT5M20.5863533S
p5408
sg183
I0
sg184
VP0DT0H0M4.2500S
p5409
sg39
(dp5410
g41
VRNG Victory X
p5411
sg43
Nssa(dp5412
g38
I523953283
sg32
VWeaponDrop
p5413
sg180
I5
sg44
(lp5414
I1327094800
asg35
VPT5M20.5863533S
p5415
sg183
I4
sg184
VP0DT0H0M19.6333S
p5416
sg39
(dp5417
g41
VRNG Victory X
p5418
sg43
Nssa(dp5419
g38
I313138863
sg39
(dp5420
g41
VE6 Shooter
p5421
sg43
Nssg44
(lp5422
I1095363701
asg32
VWeaponPickup
p5423
sg35
VPT5M22.2314498S
p5424
sa(dp5425
g38
I4096745987
sg39
(dp5426
g41
VE6 Shooter
p5427
sg43
Nssg44
(lp5428
I2758383128
asg32
VWeaponPickup
p5429
sg35
VPT5M22.2324495S
p5430
sa(dp5431
g32
VPlayerSpawn
p5432
sg39
(dp5433
g41
VE6 Shooter
p5434
sg43
Nssg35
VPT5M22.2324495S
p5435
sa(dp5436
g240
I523953283
sg241
I00
sg242
I00
sg243
(dp5437
g41
VRNG Commonly
p5438
sg43
Nssg246
(lp5439
I1327094800
asg248
I00
sg249
I01
sg250
I1
sg251
I0
sg252
I1
sg253
(dp5440
Vy
F-11.9355049
sVx
F3.4045641400000002
sVz
F0.55606659999999997
ssg255
(dp5441
Vy
F-4.8608710000000004
sVx
F-1.2601096599999999
sVz
F-0.0010834038300000001
ssg257
I00
sg258
(dp5442
g41
VE6 bubu dubu
p5443
sg43
Nssg261
(lp5444
sg263
(lp5445
(dp5446
g41
VRNG Ninja HCS
p5447
sg43
Nsasg267
I01
sg35
VPT5M22.3994588S
p5448
sg32
VDeath
p5449
sg270
I1
sa(dp5450
g32
VMedal
p5451
sg39
(dp5452
g41
VRNG Commonly
p5453
sg43
Nssg275
I3261908037
sg35
VPT5M22.4014589S
p5454
sa(dp5455
g32
VMedal
p5456
sg39
(dp5457
g41
VRNG Commonly
p5458
sg43
Nssg275
I2078758684
sg35
VPT5M22.4014589S
p5459
sa(dp5460
g38
I313138863
sg32
VWeaponDrop
p5461
sg180
I0
sg44
(lp5462
I1095363701
asg35
VPT5M22.4085687S
p5463
sg183
I0
sg184
VP0DT0H0M1.0833S
p5464
sg39
(dp5465
g41
VE6 bubu dubu
p5466
sg43
Nssa(dp5467
g38
I4096745987
sg32
VWeaponDrop
p5468
sg180
I0
sg44
(lp5469
I2758383128
asg35
VPT5M22.4085687S
p5470
sg183
I0
sg184
VP0DT0H0M3.6500S
p5471
sg39
(dp5472
g41
VE6 bubu dubu
p5473
sg43
Nssa(dp5474
g240
I723523180
sg241
I00
sg242
I00
sg243
(dp5475
g41
VRNG Penguin HCS
p5476
sg43
Nssg246
(lp5477
I2758383128
asg248
I00
sg249
I01
sg250
I1
sg251
I0
sg252
I1
sg253
(dp5478
Vy
F-5.5275096899999996
sVx
F-2.4283201700000001
sVz
F2.40126324
ssg255
(dp5479
Vy
F-7.9636659999999999
sVx
F-2.54323459
sVz
F0.095769019999999996
ssg257
I00
sg258
(dp5480
g41
VE6 Cratos HCS
p5481
sg43
Nssg261
(lp5482
sg263
(lp5483
sg267
I00
sg35
VPT5M22.8834864S
p5484
sg32
VDeath
p5485
sg270
I1
sa(dp5486
g32
VMedal
p5487
sg39
(dp5488
g41
VRNG Penguin HCS
p5489
sg43
Nssg275
I2430242797
sg35
VPT5M22.8844908S
p5490
sa(dp5491
g38
I313138863
sg32
VWeaponDrop
p5492
sg180
I0
sg44
(lp5493
I1095363701
asg35
VPT5M22.885487S
p5494
sg183
I0
sg184
VP0DT0H0M0.7667S
p5495
sg39
(dp5496
g41
VE6 Cratos HCS
p5497
sg43
Nssa(dp5498
g38
I4096745987
sg32
VWeaponDrop
p5499
sg180
I6
sg44
(lp5500
I2758383128
asg35
VPT5M22.885487S
p5501
sg183
I5
sg184
VP0DT0H0M4.9000S
p5502
sg39
(dp5503
g41
VE6 Cratos HCS
p5504
sg43
Nssa(dp5505
g240
I4106030681
sg241
I00
sg242
I00
sg243
(dp5506
g41
VE6 Cratos HCS
p5507
sg43
Nssg246
(lp5508
sg248
I00
sg249
I01
sg250
I1
sg251
I0
sg252
I1
sg253
(dp5509
Vy
F-8.6506439999999998
sVx
F-2.8039765399999999
sVz
F0.098466455899999999
ssg255
(dp5510
Vy
F-12.599420500000001
sVx
F3.14535236
sVz
F0.74854209999999999
ssg257
I00
sg258
(dp5511
g41
VRNG Commonly
p5512
sg43
Nssg261
(lp5513
sg263
(lp5514
(dp5515
g41
VE6 Huke HCS
p5516
sg43
Nsasg267
I00
sg35
VPT5M23.0994979S
p5517
sg32
VDeath
p5518
sg270
I1
sa(dp5519
g38
I523953283
sg32
VWeaponDrop
p5520
sg180
I16
sg44
(lp5521
I1327094800
asg35
VPT5M23.1014988S
p5522
sg183
I11
sg184
VP0DT0H0M16.6833S
p5523
sg39
(dp5524
g41
VRNG Commonly
p5525
sg43
Nssa(dp5526
g38
I723388907
sg32
VWeaponDrop
p5527
sg180
I36
sg44
(lp5528
I89283061
asg35
VPT5M23.1014988S
p5529
sg183
I18
sg184
VP0DT0H0M8.2167S
p5530
sg39
(dp5531
g41
VRNG Commonly
p5532
sg43
Nssa(dp5533
g38
I2244200496
sg39
(dp5534
g41
VRNG Penguin HCS
p5535
sg43
Nssg44
(lp5536
I2758383128
asg32
VWeaponPickup
p5537
sg35
VPT5M24.2285633S
p5538
sa(dp5539
g32
VImpulse
p5540
sg39
(dp5541
g41
VRNG Penguin HCS
p5542
sg43
Nssg397
I4191318012
sg35
VPT5M24.2285633S
p5543
sa(dp5544
g38
I2244200496
sg32
VWeaponDrop
p5545
sg180
I0
sg44
(lp5546
I2758383128
asg35
VPT5M24.6625879S
p5547
sg183
I0
sg184
VP0DT0H0M0.2833S
p5548
sg39
(dp5549
g41
VRNG Penguin HCS
p5550
sg43
Nssa(dp5551
g32
VImpulse
p5552
sg39
(dp5553
g41
VRNG Penguin HCS
p5554
sg43
Nssg397
I3435524855
sg35
VPT5M24.6635891S
p5555
sa(dp5556
g38
I2244200496
sg39
(dp5557
g41
VRNG Penguin HCS
p5558
sg43
Nssg44
(lp5559
I2758383128
asg32
VWeaponPickup
p5560
sg35
VPT5M25.8766588S
p5561
sa(dp5562
g32
VImpulse
p5563
sg39
(dp5564
g41
VRNG Penguin HCS
p5565
sg43
Nssg397
I4191318012
sg35
VPT5M25.8831579S
p5566
sa(dp5567
g38
I2244200496
sg32
VWeaponDrop
p5568
sg180
I0
sg44
(lp5569
I2758383128
asg35
VPT5M26.7097049S
p5570
sg183
I0
sg184
VP0DT0H0M0.6833S
p5571
sg39
(dp5572
g41
VRNG Penguin HCS
p5573
sg43
Nssa(dp5574
g32
VImpulse
p5575
sg39
(dp5576
g41
VRNG Penguin HCS
p5577
sg43
Nssg397
I3435524855
sg35
VPT5M26.7107079S
p5578
sa(dp5579
g38
I313138863
sg39
(dp5580
g41
VE6 Huke HCS
p5581
sg43
Nssg44
(lp5582
I1095363701
asg32
VWeaponPickup
p5583
sg35
VPT5M27.4477496S
p5584
sa(dp5585
g38
I4096745987
sg39
(dp5586
g41
VE6 Huke HCS
p5587
sg43
Nssg44
(lp5588
I2758383128
asg32
VWeaponPickup
p5589
sg35
VPT5M27.4477496S
p5590
sa(dp5591
g32
VPlayerSpawn
p5592
sg39
(dp5593
g41
VE6 Huke HCS
p5594
sg43
Nssg35
VPT5M27.4477496S
p5595
sa(dp5596
g38
I2244200496
sg39
(dp5597
g41
VRNG Penguin HCS
p5598
sg43
Nssg44
(lp5599
I2758383128
asg32
VWeaponPickup
p5600
sg35
VPT5M28.0147816S
p5601
sa(dp5602
g32
VImpulse
p5603
sg39
(dp5604
g41
VRNG Penguin HCS
p5605
sg43
Nssg397
I4191318012
sg35
VPT5M28.0147816S
p5606
sa(dp5607
g38
I2244200496
sg32
VWeaponDrop
p5608
sg180
I0
sg44
(lp5609
I2758383128
asg35
VPT5M28.3938566S
p5610
sg183
I0
sg184
VP0DT0H0M0.2333S
p5611
sg39
(dp5612
g41
VRNG Penguin HCS
p5613
sg43
Nssa(dp5614
g32
VImpulse
p5615
sg39
(dp5616
g41
VRNG Penguin HCS
p5617
sg43
Nssg397
I3435524855
sg35
VPT5M28.393923S
p5618
sa(dp5619
g38
I313138863
sg39
(dp5620
g41
VRNG Victory X
p5621
sg43
Nssg44
(lp5622
I1095363701
asg32
VWeaponPickup
p5623
sg35
VPT5M28.5968157S
p5624
sa(dp5625
g38
I4096745987
sg39
(dp5626
g41
VRNG Victory X
p5627
sg43
Nssg44
(lp5628
I2758383128
asg32
VWeaponPickup
p5629
sg35
VPT5M28.5968157S
p5630
sa(dp5631
g32
VPlayerSpawn
p5632
sg39
(dp5633
g41
VRNG Victory X
p5634
sg43
Nssg35
VPT5M28.5968157S
p5635
sa(dp5636
g38
I2244200496
sg39
(dp5637
g41
VRNG Penguin HCS
p5638
sg43
Nssg44
(lp5639
I2758383128
asg32
VWeaponPickup
p5640
sg35
VPT5M29.8098835S
p5641
sa(dp5642
g32
VImpulse
p5643
sg39
(dp5644
g41
VRNG Penguin HCS
p5645
sg43
Nssg397
I4191318012
sg35
VPT5M29.8098835S
p5646
sa(dp5647
g38
I313138863
sg39
(dp5648
g41
VE6 bubu dubu
p5649
sg43
Nssg44
(lp5650
I1095363701
asg32
VWeaponPickup
p5651
sg35
VPT5M30.4179197S
p5652
sa(dp5653
g38
I4096745987
sg39
(dp5654
g41
VE6 bubu dubu
p5655
sg43
Nssg44
(lp5656
I2758383128
asg32
VWeaponPickup
p5657
sg35
VPT5M30.4189205S
p5658
sa(dp5659
g32
VPlayerSpawn
p5660
sg39
(dp5661
g41
VE6 bubu dubu
p5662
sg43
Nssg35
VPT5M30.4189205S
p5663
sa(dp5664
g38
I313138863
sg39
(dp5665
g41
VE6 Cratos HCS
p5666
sg43
Nssg44
(lp5667
I1095363701
asg32
VWeaponPickup
p5668
sg35
VPT5M30.8949485S
p5669
sa(dp5670
g38
I4096745987
sg39
(dp5671
g41
VE6 Cratos HCS
p5672
sg43
Nssg44
(lp5673
I2758383128
asg32
VWeaponPickup
p5674
sg35
VPT5M30.8949485S
p5675
sa(dp5676
g32
VPlayerSpawn
p5677
sg39
(dp5678
g41
VE6 Cratos HCS
p5679
sg43
Nssg35
VPT5M30.8949485S
p5680
sa(dp5681
g38
I313138863
sg39
(dp5682
g41
VRNG Commonly
p5683
sg43
Nssg44
(lp5684
I1095363701
asg32
VWeaponPickup
p5685
sg35
VPT5M31.1109606S
p5686
sa(dp5687
g38
I4096745987
sg39
(dp5688
g41
VRNG Commonly
p5689
sg43
Nssg44
(lp5690
I2758383128
asg32
VWeaponPickup
p5691
sg35
VPT5M31.1119606S
p5692
sa(dp5693
g32
VPlayerSpawn
p5694
sg39
(dp5695
g41
VRNG Commonly
p5696
sg43
Nssg35
VPT5M31.1119606S
p5697
sa(dp5698
g240
I4096745987
sg241
I00
sg242
I00
sg243
(dp5699
g41
VRNG Victory X
p5700
sg43
Nssg246
(lp5701
I2758383128
asg248
I00
sg249
I01
sg250
I1
sg251
I0
sg252
I1
sg253
(dp5702
Vy
F0.12218984200000001
sVx
F16.020309999999998
sVz
F3.33647084
ssg255
(dp5703
Vy
F-2.1064543699999998
sVx
F4.9974270000000001
sVz
F3.3723642800000002
ssg257
I00
sg258
(dp5704
g41
VE6 Shooter
p5705
sg43
Nssg261
(lp5706
sg263
(lp5707
(dp5708
g41
VRNG Ninja HCS
p5709
sg43
Nsasg267
I01
sg35
VPT5M31.8170007S
p5710
sg32
VDeath
p5711
sg270
I1
sa(dp5712
g32
VMedal
p5713
sg39
(dp5714
g41
VRNG Victory X
p5715
sg43
Nssg275
I3261908037
sg35
VPT5M31.8190003S
p5716
sa(dp5717
g38
I313138863
sg32
VWeaponDrop
p5718
sg180
I0
sg44
(lp5719
I1095363701
asg35
VPT5M31.8200009S
p5720
sg183
I0
sg184
VP0DT0H0M1.3833S
p5721
sg39
(dp5722
g41
VE6 Shooter
p5723
sg43
Nssa(dp5724
g38
I4096745987
sg32
VWeaponDrop
p5725
sg180
I5
sg44
(lp5726
I2758383128
asg35
VPT5M31.8200009S
p5727
sg183
I4
sg184
VP0DT0H0M8.2000S
p5728
sg39
(dp5729
g41
VE6 Shooter
p5730
sg43
Nssa(dp5731
g38
I2244200496
sg32
VWeaponDrop
p5732
sg180
I0
sg44
(lp5733
I2758383128
asg35
VPT5M32.3930321S
p5734
sg183
I0
sg184
VP0DT0H0M2.4333S
p5735
sg39
(dp5736
g41
VRNG Penguin HCS
p5737
sg43
Nssa(dp5738
g32
VImpulse
p5739
sg39
(dp5740
g41
VRNG Penguin HCS
p5741
sg43
Nssg397
I3435524855
sg35
VPT5M32.3940342S
p5742
sa(dp5743
g240
I4096745987
sg241
I00
sg242
I00
sg243
(dp5744
g41
VE6 Huke HCS
p5745
sg43
Nssg246
(lp5746
I2758383128
asg248
I00
sg249
I01
sg250
I1
sg251
I0
sg252
I1
sg253
(dp5747
Vy
F11.389472
sVx
F8.5503099999999996
sVz
F2.3271181599999999
ssg255
(dp5748
Vy
F2.4627077599999998
sVx
F15.985388800000001
sVz
F2.21895957
ssg257
I00
sg258
(dp5749
g41
VRNG Victory X
p5750
sg43
Nssg261
(lp5751
sg263
(lp5752
(dp5753
g41
VE6 Shooter
p5754
sg43
Nsasg267
I01
sg35
VPT5M32.8630604S
p5755
sg32
VDeath
p5756
sg270
I1
sa(dp5757
g32
VMedal
p5758
sg39
(dp5759
g41
VE6 Huke HCS
p5760
sg43
Nssg275
I3261908037
sg35
VPT5M32.8640616S
p5761
sa(dp5762
g38
I313138863
sg32
VWeaponDrop
p5763
sg180
I0
sg44
(lp5764
I1095363701
asg35
VPT5M32.8650616S
p5765
sg183
I0
sg184
VP0DT0H0M0.4000S
p5766
sg39
(dp5767
g41
VRNG Victory X
p5768
sg43
Nssa(dp5769
g38
I4096745987
sg32
VWeaponDrop
p5770
sg180
I7
sg44
(lp5771
I2758383128
asg35
VPT5M32.8650616S
p5772
sg183
I4
sg184
VP0DT0H0M3.8667S
p5773
sg39
(dp5774
g41
VRNG Victory X
p5775
sg43
Nssa(dp5776
g38
I2244200496
sg39
(dp5777
g41
VRNG Penguin HCS
p5778
sg43
Nssg44
(lp5779
I2758383128
asg32
VWeaponPickup
p5780
sg35
VPT5M33.3260862S
p5781
sa(dp5782
g32
VImpulse
p5783
sg39
(dp5784
g41
VRNG Penguin HCS
p5785
sg43
Nssg397
I4191318012
sg35
VPT5M33.3270881S
p5786
sa(dp5787
g38
I2244200496
sg32
VWeaponDrop
p5788
sg180
I0
sg44
(lp5789
I2758383128
asg35
VPT5M33.7431097S
p5790
sg183
I0
sg184
VP0DT0H0M0.2667S
p5791
sg39
(dp5792
g41
VRNG Penguin HCS
p5793
sg43
Nssa(dp5794
g32
VImpulse
p5795
sg39
(dp5796
g41
VRNG Penguin HCS
p5797
sg43
Nssg397
I3435524855
sg35
VPT5M33.7441113S
p5798
sa(dp5799
g38
I2244200496
sg39
(dp5800
g41
VRNG Penguin HCS
p5801
sg43
Nssg44
(lp5802
I2758383128
asg32
VWeaponPickup
p5803
sg35
VPT5M34.7991721S
p5804
sa(dp5805
g32
VImpulse
p5806
sg39
(dp5807
g41
VRNG Penguin HCS
p5808
sg43
Nssg397
I4191318012
sg35
VPT5M34.7991721S
p5809
sa(dp5810
g32
VMedal
p5811
sg39
(dp5812
g41
VRNG Penguin HCS
p5813
sg43
Nssg275
I3886151616
sg35
VPT5M35.0781872S
p5814
sa(dp5815
g32
VMedal
p5816
sg39
(dp5817
g41
VRNG Victory X
p5818
sg43
Nssg275
I1494478183
sg35
VPT5M35.0781872S
p5819
sa(dp5820
g32
VMedal
p5821
sg39
(dp5822
g41
VRNG Penguin HCS
p5823
sg43
Nssg275
I2137994204
sg35
VPT5M35.0781872S
p5824
sa(dp5825
g32
VImpulse
p5826
sg39
(dp5827
g41
VRNG Penguin HCS
p5828
sg43
Nssg397
I2944278681
sg35
VPT5M35.0781872S
p5829
sa(dp5830
g32
VRoundEnd
p5831
sg34
I0
sg35
VPT5M35.0791894S
p5832
sassb.