ccopy_reg
_reconstructor
p1
(c__main__
match_breakdown
p2
c__builtin__
object
p3
NtRp4
(dp5
S'details'
p6
(dp7
VIsCompleteSetOfEvents
p8
I01
sVLinks
p9
(dp10
VUgcFilmManifest
p11
(dp12
VAuthenticationLifetimeExtensionSupported
p13
I00
sVQueryString
p14
V?view=film-manifest
p15
sVRetryPolicyId
p16
Vexponentialretry
p17
sVPath
p18
V/h5/films/fbcaf930-812c-4f1c-9d7d-55b0001d4776
p19
sVAcknowledgementTypeId
p20
I0
sVAuthorityId
p21
Vugc
p22
sVTopicName
p23
V
ssVStatsMatchDetails
p24
(dp25
g13
I00
sg14
Nsg16
Vexponentialretry
p26
sg18
Vh5/custom/matches/fbcaf930-812c-4f1c-9d7d-55b0001d4776
p27
sg20
I0
sg21
Vspartanstats
p28
sg23
V
sssVGameEvents
p29
(lp30
(dp31
VEventName
p32
VRoundStart
p33
sVRoundIndex
p34
I0
sVTimeSinceStart
p35
VPT0.1090308S
p36
sa(dp37
VWeaponStockId
p38
I313138863
sVPlayer
p39
(dp40
VGamertag
p41
VLiquid Eco
p42
sVXuid
p43
NssVWeaponAttachmentIds
p44
(lp45
I1095363701
asg32
VWeaponPickup
p46
sg35
VPT18.1136979S
p47
sa(dp48
g38
I4096745987
sg39
(dp49
g41
VLiquid Eco
p50
sg43
Nssg44
(lp51
I2758383128
asg32
VWeaponPickup
p52
sg35
VPT18.1147205S
p53
sa(dp54
g32
VPlayerSpawn
p55
sg39
(dp56
g41
VLiquid Eco
p57
sg43
Nssg35
VPT18.1147205S
p58
sa(dp59
g38
I313138863
sg39
(dp60
g41
VnV Pistola HCS
p61
sg43
Nssg44
(lp62
I1095363701
asg32
VWeaponPickup
p63
sg35
VPT18.1307181S
p64
sa(dp65
g38
I4096745987
sg39
(dp66
g41
VnV Pistola HCS
p67
sg43
Nssg44
(lp68
I2758383128
asg32
VWeaponPickup
p69
sg35
VPT18.1307181S
p70
sa(dp71
g32
VPlayerSpawn
p72
sg39
(dp73
g41
VnV Pistola HCS
p74
sg43
Nssg35
VPT18.1307181S
p75
sa(dp76
g38
I313138863
sg39
(dp77
g41
VTL Spartan HCS
p78
sg43
Nssg44
(lp79
I1095363701
asg32
VWeaponPickup
p80
sg35
VPT18.1467182S
p81
sa(dp82
g38
I4096745987
sg39
(dp83
g41
VTL Spartan HCS
p84
sg43
Nssg44
(lp85
I2758383128
asg32
VWeaponPickup
p86
sg35
VPT18.1467182S
p87
sa(dp88
g32
VPlayerSpawn
p89
sg39
(dp90
g41
VTL Spartan HCS
p91
sg43
Nssg35
VPT18.1467182S
p92
sa(dp93
g38
I313138863
sg39
(dp94
g41
VnV eL ToWn
p95
sg43
Nssg44
(lp96
I1095363701
asg32
VWeaponPickup
p97
sg35
VPT18.1637052S
p98
sa(dp99
g38
I4096745987
sg39
(dp100
g41
VnV eL ToWn
p101
sg43
Nssg44
(lp102
I2758383128
asg32
VWeaponPickup
p103
sg35
VPT18.1637052S
p104
sa(dp105
g32
VPlayerSpawn
p106
sg39
(dp107
g41
VnV eL ToWn
p108
sg43
Nssg35
VPT18.1637052S
p109
sa(dp110
g38
I313138863
sg39
(dp111
g41
VTL Danoxide
p112
sg43
Nssg44
(lp113
I1095363701
asg32
VWeaponPickup
p114
sg35
VPT18.1797009S
p115
sa(dp116
g38
I4096745987
sg39
(dp117
g41
VTL Danoxide
p118
sg43
Nssg44
(lp119
I2758383128
asg32
VWeaponPickup
p120
sg35
VPT18.1807188S
p121
sa(dp122
g32
VPlayerSpawn
p123
sg39
(dp124
g41
VTL Danoxide
p125
sg43
Nssg35
VPT18.1807188S
p126
sa(dp127
g38
I313138863
sg39
(dp128
g41
VnV RayneHCS
p129
sg43
Nssg44
(lp130
I1095363701
asg32
VWeaponPickup
p131
sg35
VPT18.1967007S
p132
sa(dp133
g38
I4096745987
sg39
(dp134
g41
VnV RayneHCS
p135
sg43
Nssg44
(lp136
I2758383128
asg32
VWeaponPickup
p137
sg35
VPT18.197724S
p138
sa(dp139
g32
VPlayerSpawn
p140
sg39
(dp141
g41
VnV RayneHCS
p142
sg43
Nssg35
VPT18.197724S
p143
sa(dp144
g38
I313138863
sg39
(dp145
g41
VTL StelluR
p146
sg43
Nssg44
(lp147
I1095363701
asg32
VWeaponPickup
p148
sg35
VPT18.2137275S
p149
sa(dp150
g38
I4096745987
sg39
(dp151
g41
VTL StelluR
p152
sg43
Nssg44
(lp153
I2758383128
asg32
VWeaponPickup
p154
sg35
VPT18.2137275S
p155
sa(dp156
g32
VPlayerSpawn
p157
sg39
(dp158
g41
VTL StelluR
p159
sg43
Nssg35
VPT18.2137275S
p160
sa(dp161
g38
I313138863
sg39
(dp162
g41
VnV Mikwen HCS
p163
sg43
Nssg44
(lp164
I1095363701
asg32
VWeaponPickup
p165
sg35
VPT18.2307023S
p166
sa(dp167
g38
I4096745987
sg39
(dp168
g41
VnV Mikwen HCS
p169
sg43
Nssg44
(lp170
I2758383128
asg32
VWeaponPickup
p171
sg35
VPT18.2307023S
p172
sa(dp173
g32
VPlayerSpawn
p174
sg39
(dp175
g41
VnV Mikwen HCS
p176
sg43
Nssg35
VPT18.2307023S
p177
sa(dp178
g38
I313138863
sg32
VWeaponDrop
p179
sVShotsFired
p180
I0
sg44
(lp181
I1095363701
asg35
VPT25.7790418S
p182
sVShotsLanded
p183
I0
sVTimeWeaponActiveAsPrimary
p184
VP0DT0H0M1.2333S
p185
sg39
(dp186
g41
VnV eL ToWn
p187
sg43
Nssa(dp188
g38
I2650887244
sg39
(dp189
g41
VnV eL ToWn
p190
sg43
Nssg44
(lp191
I2758383128
asg32
VWeaponPickup
p192
sg35
VPT25.7790418S
p193
sa(dp194
g38
I2492868984
sg39
(dp195
g41
VLiquid Eco
p196
sg43
Nssg44
(lp197
I2758383128
asg32
VWeaponPickup
p198
sg35
VPT33.6622949S
p199
sa(dp200
VKillerWeaponStockId
p201
I4096745987
sVIsAssassination
p202
I00
sVIsMelee
p203
I00
sVKiller
p204
(dp205
g41
VTL Danoxide
p206
sg43
NssVKillerWeaponAttachmentIds
p207
(lp208
I2758383128
asVIsGroundPound
p209
I00
sVIsWeapon
p210
I01
sVDeathDisposition
p211
I1
sVVictimStockId
p212
I0
sVVictimAgent
p213
I1
sVKillerWorldLocation
p214
(dp215
Vy
F-7.9780959999999999
sVx
F-18.6580944
sVz
F2.0567407599999998
ssVVictimWorldLocation
p216
(dp217
Vy
F-11.435234100000001
sVx
F-11.774274800000001
sVz
F1.7808809299999999
ssVIsShoulderBash
p218
I00
sVVictim
p219
(dp220
g41
VnV eL ToWn
p221
sg43
NssVVictimAttachmentIds
p222
(lp223
sVAssistants
p224
(lp225
(dp226
g41
VTL Spartan HCS
p227
sg43
NsasVIsHeadshot
p228
I01
sg35
VPT34.1993171S
p229
sg32
VDeath
p230
sVKillerAgent
p231
I1
sa(dp232
g32
VMedal
p233
sg39
(dp234
g41
VTL Danoxide
p235
sg43
NssVMedalId
p236
I3261908037
sg35
VPT34.2093386S
p237
sa(dp238
g32
VMedal
p239
sg39
(dp240
g41
VTL Danoxide
p241
sg43
Nssg236
I3001183151
sg35
VPT34.2093386S
p242
sa(dp243
g38
I2650887244
sg32
VWeaponDrop
p244
sg180
I0
sg44
(lp245
I2758383128
asg35
VPT34.2133163S
p246
sg183
I0
sg184
VP0DT0H0M4.4500S
p247
sg39
(dp248
g41
VnV eL ToWn
p249
sg43
Nssa(dp250
g38
I4096745987
sg32
VWeaponDrop
p251
sg180
I8
sg44
(lp252
I2758383128
asg35
VPT34.2133163S
p253
sg183
I5
sg184
VP0DT0H0M10.3500S
p254
sg39
(dp255
g41
VnV eL ToWn
p256
sg43
Nssa(dp257
g38
I2492868984
sg32
VWeaponDrop
p258
sg180
I0
sg44
(lp259
I2758383128
asg35
VPT34.8133387S
p260
sg183
I0
sg184
VP0DT0H0M0.9833S
p261
sg39
(dp262
g41
VLiquid Eco
p263
sg43
Nssa(dp264
g201
I4096745987
sg202
I00
sg203
I00
sg204
(dp265
g41
VnV Mikwen HCS
p266
sg43
Nssg207
(lp267
I2758383128
asg209
I00
sg210
I01
sg211
I1
sg212
I0
sg213
I1
sg214
(dp268
Vy
F9.4824660000000005
sVx
F-15.4235544
sVz
F1.00715482
ssg216
(dp269
Vy
F-0.16685086499999999
sVx
F-15.603214299999999
sVz
F-0.18194340000000001
ssg218
I00
sg219
(dp270
g41
VLiquid Eco
p271
sg43
Nssg222
(lp272
sg224
(lp273
sg228
I01
sg35
VPT35.6793725S
p274
sg32
VDeath
p275
sg231
I1
sa(dp276
g32
VImpulse
p277
sg39
(dp278
g41
VnV Mikwen HCS
p279
sg43
NssVImpulseId
p280
I3174430457
sg35
VPT35.6813724S
p281
sa(dp282
g32
VMedal
p283
sg39
(dp284
g41
VnV Mikwen HCS
p285
sg43
Nssg236
I3653057799
sg35
VPT35.6823726S
p286
sa(dp287
g38
I313138863
sg32
VWeaponDrop
p288
sg180
I0
sg44
(lp289
I1095363701
asg35
VPT35.6823726S
p290
sg183
I0
sg184
VP0DT0H0M3.0000S
p291
sg39
(dp292
g41
VLiquid Eco
p293
sg43
Nssa(dp294
g38
I4096745987
sg32
VWeaponDrop
p295
sg180
I7
sg44
(lp296
I2758383128
asg35
VPT35.6823726S
p297
sg183
I2
sg184
VP0DT0H0M13.5667S
p298
sg39
(dp299
g41
VLiquid Eco
p300
sg43
Nssa(dp301
g38
I4096745987
sg32
VWeaponDrop
p302
sg180
I6
sg44
(lp303
I2758383128
asg35
VPT37.2624331S
p304
sg183
I2
sg184
VP0DT0H0M16.5500S
p305
sg39
(dp306
g41
VnV RayneHCS
p307
sg43
Nssa(dp308
g38
I4108759423
sg39
(dp309
g41
VnV RayneHCS
p310
sg43
Nssg44
(lp311
I2758383128
asg32
VWeaponPickup
p312
sg35
VPT37.2624331S
p313
sa(dp314
g201
I4096745987
sg202
I00
sg203
I00
sg204
(dp315
g41
VnV Pistola HCS
p316
sg43
Nssg207
(lp317
I2758383128
asg209
I00
sg210
I01
sg211
I1
sg212
I0
sg213
I1
sg214
(dp318
Vy
F1.12309444
sVx
F-17.328023900000002
sVz
F-0.17550374599999999
ssg216
(dp319
Vy
F-4.4049005499999998
sVx
F-15.764734300000001
sVz
F0.81385660000000004
ssg218
I00
sg219
(dp320
g41
VTL Danoxide
p321
sg43
Nssg222
(lp322
sg224
(lp323
(dp324
g41
VnV eL ToWn
p325
sg43
Nsasg228
I01
sg35
VPT37.2794614S
p326
sg32
VDeath
p327
sg231
I1
sa(dp328
g32
VMedal
p329
sg39
(dp330
g41
VnV Pistola HCS
p331
sg43
Nssg236
I3261908037
sg35
VPT37.2814612S
p332
sa(dp333
g38
I313138863
sg32
VWeaponDrop
p334
sg180
I0
sg44
(lp335
I1095363701
asg35
VPT37.2814612S
p336
sg183
I0
sg184
VP0DT0H0M0.9000S
p337
sg39
(dp338
g41
VTL Danoxide
p339
sg43
Nssa(dp340
g38
I4096745987
sg32
VWeaponDrop
p341
sg180
I13
sg44
(lp342
I2758383128
asg35
VPT37.2814612S
p343
sg183
I5
sg184
VP0DT0H0M18.2000S
p344
sg39
(dp345
g41
VTL Danoxide
p346
sg43
Nssa(dp347
g201
I313138863
sg202
I00
sg203
I00
sg204
(dp348
g41
VnV Pistola HCS
p349
sg43
Nssg207
(lp350
I1095363701
asg209
I00
sg210
I01
sg211
I1
sg212
I0
sg213
I1
sg214
(dp351
Vy
F2.6135670000000002
sVx
F-14.8951435
sVz
F0.73646230000000001
ssg216
(dp352
Vy
F2.22294569
sVx
F-14.8751154
sVz
F0.68855849999999996
ssg218
I00
sg219
(dp353
g41
VTL Spartan HCS
p354
sg43
Nssg222
(lp355
sg224
(lp356
sg228
I00
sg35
VPT40.6965645S
p357
sg32
VDeath
p358
sg231
I1
sa(dp359
g32
VMedal
p360
sg39
(dp361
g41
VnV Pistola HCS
p362
sg43
Nssg236
I2078758684
sg35
VPT40.6985864S
p363
sa(dp364
g38
I313138863
sg32
VWeaponDrop
p365
sg180
I13
sg44
(lp366
I1095363701
asg35
VPT40.6985864S
p367
sg183
I5
sg184
VP0DT0H0M6.2667S
p368
sg39
(dp369
g41
VTL Spartan HCS
p370
sg43
Nssa(dp371
g38
I313138863
sg32
VWeaponDrop
p372
sg180
I0
sg44
(lp373
I1095363701
asg35
VPT40.6985864S
p374
sg183
I0
sg184
VP0DT0S
p375
sg39
(dp376
g41
VTL Spartan HCS
p377
sg43
Nssa(dp378
g38
I4096745987
sg32
VWeaponDrop
p379
sg180
I4
sg44
(lp380
I2758383128
asg35
VPT40.6985864S
p381
sg183
I3
sg184
VP0DT0H0M16.2833S
p382
sg39
(dp383
g41
VTL Spartan HCS
p384
sg43
Nssa(dp385
g38
I313138863
sg39
(dp386
g41
VnV eL ToWn
p387
sg43
Nssg44
(lp388
I1095363701
asg32
VWeaponPickup
p389
sg35
VPT42.2136557S
p390
sa(dp391
g38
I4096745987
sg39
(dp392
g41
VnV eL ToWn
p393
sg43
Nssg44
(lp394
I2758383128
asg32
VWeaponPickup
p395
sg35
VPT42.2136557S
p396
sa(dp397
g32
VPlayerSpawn
p398
sg39
(dp399
g41
VnV eL ToWn
p400
sg43
Nssg35
VPT42.2136557S
p401
sa(dp402
g38
I313138863
sg39
(dp403
g41
VLiquid Eco
p404
sg43
Nssg44
(lp405
I1095363701
asg32
VWeaponPickup
p406
sg35
VPT43.6967024S
p407
sa(dp408
g38
I4096745987
sg39
(dp409
g41
VLiquid Eco
p410
sg43
Nssg44
(lp411
I2758383128
asg32
VWeaponPickup
p412
sg35
VPT43.6976813S
p413
sa(dp414
g32
VPlayerSpawn
p415
sg39
(dp416
g41
VLiquid Eco
p417
sg43
Nssg35
VPT43.6976813S
p418
sa(dp419
g38
I313138863
sg39
(dp420
g41
VTL Danoxide
p421
sg43
Nssg44
(lp422
I1095363701
asg32
VWeaponPickup
p423
sg35
VPT45.2967609S
p424
sa(dp425
g38
I4096745987
sg39
(dp426
g41
VTL Danoxide
p427
sg43
Nssg44
(lp428
I2758383128
asg32
VWeaponPickup
p429
sg35
VPT45.2967609S
p430
sa(dp431
g32
VPlayerSpawn
p432
sg39
(dp433
g41
VTL Danoxide
p434
sg43
Nssg35
VPT45.2967609S
p435
sa(dp436
g201
I4096745987
sg202
I00
sg203
I00
sg204
(dp437
g41
VTL Danoxide
p438
sg43
Nssg207
(lp439
I2758383128
asg209
I00
sg210
I01
sg211
I1
sg212
I0
sg213
I1
sg214
(dp440
Vy
F-5.4558790000000004
sVx
F7.9221353499999996
sVz
F2.6402468699999999
ssg216
(dp441
Vy
F-12.0289555
sVx
F-0.404849768
sVz
F2.1806938599999999
ssg218
I00
sg219
(dp442
g41
VnV RayneHCS
p443
sg43
Nssg222
(lp444
sg224
(lp445
(dp446
g41
VTL StelluR
p447
sg43
Nsasg228
I00
sg35
VPT47.429823S
p448
sg32
VDeath
p449
sg231
I1
sa(dp450
g32
VMedal
p451
sg39
(dp452
g41
VLiquid Eco
p453
sg43
Nssg236
I824733727
sg35
VPT47.429823S
p454
sa(dp455
g38
I313138863
sg32
VWeaponDrop
p456
sg180
I0
sg44
(lp457
I1095363701
asg35
VPT47.4308434S
p458
sg183
I0
sg184
VP0DT0H0M2.5167S
p459
sg39
(dp460
g41
VnV RayneHCS
p461
sg43
Nssa(dp462
g38
I4108759423
sg32
VWeaponDrop
p463
sg180
I8
sg44
(lp464
I2758383128
asg35
VPT47.4308434S
p465
sg183
I5
sg184
VP0DT0H0M10.1667S
p466
sg39
(dp467
g41
VnV RayneHCS
p468
sg43
Nssa(dp469
g38
I4096745987
sg32
VWeaponDrop
p470
sg180
I0
sg44
(lp471
I2758383128
asg35
VPT47.6948735S
p472
sg183
I0
sg184
VP0DT0H0M4.6333S
p473
sg39
(dp474
g41
VnV eL ToWn
p475
sg43
Nssa(dp476
g38
I424645655
sg39
(dp477
g41
VnV eL ToWn
p478
sg43
Nssg44
(lp479
I1327094800
asg32
VWeaponPickup
p480
sg35
VPT47.6958612S
p481
sa(dp482
g201
I4096745987
sg202
I00
sg203
I00
sg204
(dp483
g41
VnV Mikwen HCS
p484
sg43
Nssg207
(lp485
I2758383128
asg209
I00
sg210
I01
sg211
I1
sg212
I0
sg213
I1
sg214
(dp486
Vy
F-14.008710900000001
sVx
F-12.8802433
sVz
F1.3945931199999999
ssg216
(dp487
Vy
F-12.958914800000001
sVx
F-1.6096268899999999
sVz
F2.0006847400000001
ssg218
I00
sg219
(dp488
g41
VTL StelluR
p489
sg43
Nssg222
(lp490
sg224
(lp491
(dp492
g41
VnV Pistola HCS
p493
sg43
Nsasg228
I01
sg35
VPT48.096849S
p494
sg32
VDeath
p495
sg231
I1
sa(dp496
g32
VMedal
p497
sg39
(dp498
g41
VnV Mikwen HCS
p499
sg43
Nssg236
I3261908037
sg35
VPT48.0978679S
p500
sa(dp501
g38
I313138863
sg32
VWeaponDrop
p502
sg180
I0
sg44
(lp503
I1095363701
asg35
VPT48.0988722S
p504
sg183
I0
sg184
VP0DT0H0M1.6167S
p505
sg39
(dp506
g41
VTL StelluR
p507
sg43
Nssa(dp508
g38
I4096745987
sg32
VWeaponDrop
p509
sg180
I11
sg44
(lp510
I2758383128
asg35
VPT48.0988722S
p511
sg183
I1
sg184
VP0DT0H0M28.2667S
p512
sg39
(dp513
g41
VTL StelluR
p514
sg43
Nssa(dp515
g38
I4096745987
sg32
VWeaponDrop
p516
sg180
I0
sg44
(lp517
I2758383128
asg35
VPT48.0988722S
p518
sg183
I0
sg184
VP0DT0S
p519
sg39
(dp520
g41
VTL StelluR
p521
sg43
Nssa(dp522
g32
VMedal
p523
sg39
(dp524
g41
VnV Pistola HCS
p525
sg43
Nssg236
I3400287617
sg35
VPT48.3958593S
p526
sa(dp527
g38
I313138863
sg39
(dp528
g41
VTL Spartan HCS
p529
sg43
Nssg44
(lp530
I1095363701
asg32
VWeaponPickup
p531
sg35
VPT48.7128723S
p532
sa(dp533
g38
I4096745987
sg39
(dp534
g41
VTL Spartan HCS
p535
sg43
Nssg44
(lp536
I2758383128
asg32
VWeaponPickup
p537
sg35
VPT48.7138924S
p538
sa(dp539
g32
VPlayerSpawn
p540
sg39
(dp541
g41
VTL Spartan HCS
p542
sg43
Nssg35
VPT48.7138924S
p543
sa(dp544
g38
I313138863
sg32
VWeaponDrop
p545
sg180
I0
sg44
(lp546
I1095363701
asg35
VPT50.444961S
p547
sg183
I0
sg184
VP0DT0H0M2.2167S
p548
sg39
(dp549
g41
VnV eL ToWn
p550
sg43
Nssa(dp551
g38
I2670072722
sg39
(dp552
g41
VnV eL ToWn
p553
sg43
Nssg44
(lp554
I2758383128
asg32
VWeaponPickupPad
p555
sg35
VPT50.444961S
p556
sa(dp557
g38
I2670072722
sg39
(dp558
g41
VnV eL ToWn
p559
sg43
Nssg44
(lp560
I2758383128
asg32
VWeaponPickup
p561
sg35
VPT50.4469623S
p562
sa(dp563
g38
I4096745987
sg32
VWeaponDrop
p564
sg180
I7
sg44
(lp565
I2758383128
asg35
VPT53.1790448S
p566
sg183
I3
sg184
VP0DT0H0M7.4667S
p567
sg39
(dp568
g41
VTL Danoxide
p569
sg43
Nssa(dp570
g38
I4108759423
sg39
(dp571
g41
VTL Danoxide
p572
sg43
Nssg44
(lp573
I2758383128
asg32
VWeaponPickup
p574
sg35
VPT53.1790448S
p575
sa(dp576
g38
I313138863
sg39
(dp577
g41
VnV RayneHCS
p578
sg43
Nssg44
(lp579
I1095363701
asg32
VWeaponPickup
p580
sg35
VPT55.44717S
p581
sa(dp582
g38
I4096745987
sg39
(dp583
g41
VnV RayneHCS
p584
sg43
Nssg44
(lp585
I2758383128
asg32
VWeaponPickup
p586
sg35
VPT55.44717S
p587
sa(dp588
g32
VPlayerSpawn
p589
sg39
(dp590
g41
VnV RayneHCS
p591
sg43
Nssg35
VPT55.44717S
p592
sa(dp593
g38
I313138863
sg39
(dp594
g41
VTL StelluR
p595
sg43
Nssg44
(lp596
I1095363701
asg32
VWeaponPickup
p597
sg35
VPT56.1141814S
p598
sa(dp599
g38
I4096745987
sg39
(dp600
g41
VTL StelluR
p601
sg43
Nssg44
(lp602
I2758383128
asg32
VWeaponPickup
p603
sg35
VPT56.1141814S
p604
sa(dp605
g32
VPlayerSpawn
p606
sg39
(dp607
g41
VTL StelluR
p608
sg43
Nssg35
VPT56.1141814S
p609
sa(dp610
g201
I424645655
sg202
I00
sg203
I00
sg204
(dp611
g41
VnV eL ToWn
p612
sg43
Nssg207
(lp613
I1327094800
asg209
I00
sg210
I01
sg211
I1
sg212
I0
sg213
I1
sg214
(dp614
Vy
F-3.3748455000000002
sVx
F9.7875040000000002
sVz
F3.1151733400000001
ssg216
(dp615
Vy
F-11.6659241
sVx
F0.4880719
sVz
F2.0979666699999999
ssg218
I00
sg219
(dp616
g41
VTL Danoxide
p617
sg43
Nssg222
(lp618
sg224
(lp619
(dp620
g41
VnV Pistola HCS
p621
sg43
Nsasg228
I01
sg35
VPT56.5461736S
p622
sg32
VDeath
p623
sg231
I1
sa(dp624
g32
VMedal
p625
sg39
(dp626
g41
VnV eL ToWn
p627
sg43
Nssg236
I3261908037
sg35
VPT56.5481962S
p628
sa(dp629
g38
I313138863
sg32
VWeaponDrop
p630
sg180
I0
sg44
(lp631
I1095363701
asg35
VPT56.5481962S
p632
sg183
I0
sg184
VP0DT0H0M0.4167S
p633
sg39
(dp634
g41
VTL Danoxide
p635
sg43
Nssa(dp636
g38
I4108759423
sg32
VWeaponDrop
p637
sg180
I3
sg44
(lp638
I2758383128
asg35
VPT56.5481962S
p639
sg183
I2
sg184
VP0DT0H0M3.3667S
p640
sg39
(dp641
g41
VTL Danoxide
p642
sg43
Nssa(dp643
g201
I4096745987
sg202
I00
sg203
I00
sg204
(dp644
g41
VTL StelluR
p645
sg43
Nssg207
(lp646
I2758383128
asg209
I00
sg210
I01
sg211
I1
sg212
I0
sg213
I1
sg214
(dp647
Vy
F-12.994054800000001
sVx
F-8.6230089999999997
sVz
F2.8985543300000001
ssg216
(dp648
Vy
F-14.043498
sVx
F-12.1330729
sVz
F1.80105424
ssg218
I00
sg219
(dp649
g41
VnV Pistola HCS
p650
sg43
Nssg222
(lp651
sg224
(lp652
(dp653
g41
VLiquid Eco
p654
sg43
Nsasg228
I01
sg35
VPT59.6962945S
p655
sg32
VDeath
p656
sg231
I1
sa(dp657
g32
VMedal
p658
sg39
(dp659
g41
VTL StelluR
p660
sg43
Nssg236
I3261908037
sg35
VPT59.6983193S
p661
sa(dp662
g38
I313138863
sg32
VWeaponDrop
p663
sg180
I26
sg44
(lp664
I1095363701
asg35
VPT59.6983193S
p665
sg183
I14
sg184
VP0DT0H0M5.7500S
p666
sg39
(dp667
g41
VnV Pistola HCS
p668
sg43
Nssa(dp669
g38
I4096745987
sg32
VWeaponDrop
p670
sg180
I19
sg44
(lp671
I2758383128
asg35
VPT59.6983193S
p672
sg183
I10
sg184
VP0DT0H0M35.8167S
p673
sg39
(dp674
g41
VnV Pistola HCS
p675
sg43
Nssa(dp676
g201
I313138863
sg202
I00
sg203
I00
sg204
(dp677
g41
VnV RayneHCS
p678
sg43
Nssg207
(lp679
I1095363701
asg209
I00
sg210
I01
sg211
I1
sg212
I0
sg213
I1
sg214
(dp680
Vy
F-11.9960871
sVx
F-0.54561793800000002
sVz
F1.7757293000000001
ssg216
(dp681
Vy
F-17.221730000000001
sVx
F-3.0996725600000001
sVz
F2.7827916099999999
ssg218
I00
sg219
(dp682
g41
VLiquid Eco
p683
sg43
Nssg222
(lp684
sg224
(lp685
(dp686
g41
VnV Pistola HCS
p687
sg43
Nsa(dp688
g41
VnV eL ToWn
p689
sg43
Nsasg228
I00
sg35
VPT1M3.2304294S
p690
sg32
VDeath
p691
sg231
I1
sa(dp692
g32
VMedal
p693
sg39
(dp694
g41
VnV RayneHCS
p695
sg43
Nssg236
I3148489433
sg35
VPT1M3.2304294S
p696
sa(dp697
g38
I313138863
sg32
VWeaponDrop
p698
sg180
I0
sg44
(lp699
I1095363701
asg35
VPT1M3.2314543S
p700
sg183
I0
sg184
VP0DT0H0M0.6000S
p701
sg39
(dp702
g41
VLiquid Eco
p703
sg43
Nssa(dp704
g38
I4096745987
sg32
VWeaponDrop
p705
sg180
I10
sg44
(lp706
I2758383128
asg35
VPT1M3.2314543S
p707
sg183
I6
sg184
VP0DT0H0M18.9333S
p708
sg39
(dp709
g41
VLiquid Eco
p710
sg43
Nssa(dp711
g38
I313138863
sg39
(dp712
g41
VTL Danoxide
p713
sg43
Nssg44
(lp714
I1095363701
asg32
VWeaponPickup
p715
sg35
VPT1M4.563483S
p716
sa(dp717
g38
I4096745987
sg39
(dp718
g41
VTL Danoxide
p719
sg43
Nssg44
(lp720
I2758383128
asg32
VWeaponPickup
p721
sg35
VPT1M4.563483S
p722
sa(dp723
g32
VPlayerSpawn
p724
sg39
(dp725
g41
VTL Danoxide
p726
sg43
Nssg35
VPT1M4.563483S
p727
sa(dp728
g38
I313138863
sg39
(dp729
g41
VnV Pistola HCS
p730
sg43
Nssg44
(lp731
I1095363701
asg32
VWeaponPickup
p732
sg35
VPT1M7.7146938S
p733
sa(dp734
g38
I4096745987
sg39
(dp735
g41
VnV Pistola HCS
p736
sg43
Nssg44
(lp737
I2758383128
asg32
VWeaponPickup
p738
sg35
VPT1M7.7146938S
p739
sa(dp740
g32
VPlayerSpawn
p741
sg39
(dp742
g41
VnV Pistola HCS
p743
sg43
Nssg35
VPT1M7.7146938S
p744
sa(dp745
g201
I4096745987
sg202
I00
sg203
I00
sg204
(dp746
g41
VTL Spartan HCS
p747
sg43
Nssg207
(lp748
I2758383128
asg209
I00
sg210
I01
sg211
I1
sg212
I0
sg213
I1
sg214
(dp749
Vy
F-9.7840799999999994
sVx
F-7.1866760000000003
sVz
F3.4245984599999999
ssg216
(dp750
Vy
F-16.618005799999999
sVx
F-8.9243649999999999
sVz
F2.1920514099999999
ssg218
I00
sg219
(dp751
g41
VnV Mikwen HCS
p752
sg43
Nssg222
(lp753
sg224
(lp754
(dp755
g41
VTL StelluR
p756
sg43
Nsasg228
I01
sg35
VPT1M7.8466071S
p757
sg32
VDeath
p758
sg231
I1
sa(dp759
g32
VMedal
p760
sg39
(dp761
g41
VTL Spartan HCS
p762
sg43
Nssg236
I3261908037
sg35
VPT1M7.8476269S
p763
sa(dp764
g38
I313138863
sg32
VWeaponDrop
p765
sg180
I1
sg44
(lp766
I1095363701
asg35
VPT1M7.8486292S
p767
sg183
I0
sg184
VP0DT0H0M12.4833S
p768
sg39
(dp769
g41
VnV Mikwen HCS
p770
sg43
Nssa(dp771
g38
I4096745987
sg32
VWeaponDrop
p772
sg180
I26
sg44
(lp773
I2758383128
asg35
VPT1M7.8486292S
p774
sg183
I13
sg184
VP0DT0H0M37.1333S
p775
sg39
(dp776
g41
VnV Mikwen HCS
p777
sg43
Nssa(dp778
g201
I4106030681
sg202
I00
sg203
I00
sg204
(dp779
g41
VnV RayneHCS
p780
sg43
Nssg207
(lp781
sg209
I00
sg210
I01
sg211
I1
sg212
I0
sg213
I1
sg214
(dp782
Vy
F-10.8252544
sVx
F0.93036186700000001
sVz
F1.3867012299999999
ssg216
(dp783
Vy
F-10.4147453
sVx
F-11.488071400000001
sVz
F1.73106
ssg218
I00
sg219
(dp784
g41
VTL Spartan HCS
p785
sg43
Nssg222
(lp786
sg224
(lp787
(dp788
g41
VnV Mikwen HCS
p789
sg43
Nsasg228
I00
sg35
VPT1M9.5466734S
p790
sg32
VDeath
p791
sg231
I1
sa(dp792
g38
I313138863
sg32
VWeaponDrop
p793
sg180
I0
sg44
(lp794
I1095363701
asg35
VPT1M9.5486943S
p795
sg183
I0
sg184
VP0DT0H0M12.4667S
p796
sg39
(dp797
g41
VTL Spartan HCS
p798
sg43
Nssa(dp799
g38
I4096745987
sg32
VWeaponDrop
p800
sg180
I5
sg44
(lp801
I2758383128
asg35
VPT1M9.5486943S
p802
sg183
I4
sg184
VP0DT0H0M8.3667S
p803
sg39
(dp804
g41
VTL Spartan HCS
p805
sg43
Nssa(dp806
g38
I313138863
sg39
(dp807
g41
VLiquid Eco
p808
sg43
Nssg44
(lp809
I1095363701
asg32
VWeaponPickup
p810
sg35
VPT1M11.2467374S
p811
sa(dp812
g38
I4096745987
sg39
(dp813
g41
VLiquid Eco
p814
sg43
Nssg44
(lp815
I2758383128
asg32
VWeaponPickup
p816
sg35
VPT1M11.2467374S
p817
sa(dp818
g32
VPlayerSpawn
p819
sg39
(dp820
g41
VLiquid Eco
p821
sg43
Nssg35
VPT1M11.2467374S
p822
sa(dp823
g38
I4096745987
sg32
VWeaponDrop
p824
sg180
I0
sg44
(lp825
I2758383128
asg35
VPT1M12.4949818S
p826
sg183
I0
sg184
VP0DT0H0M3.6500S
p827
sg39
(dp828
g41
VnV Pistola HCS
p829
sg43
Nssa(dp830
g38
I4108759423
sg39
(dp831
g41
VnV Pistola HCS
p832
sg43
Nssg44
(lp833
I2758383128
asg32
VWeaponPickup
p834
sg35
VPT1M12.4958103S
p835
sa(dp836
g38
I313138863
sg32
VWeaponDrop
p837
sg180
I0
sg44
(lp838
I1095363701
asg35
VPT1M14.728872S
p839
sg183
I0
sg184
VP0DT0H0M0.8167S
p840
sg39
(dp841
g41
VTL Danoxide
p842
sg43
Nssa(dp843
g38
I2650887244
sg39
(dp844
g41
VTL Danoxide
p845
sg43
Nssg44
(lp846
I2758383128
asg32
VWeaponPickup
p847
sg35
VPT1M14.728872S
p848
sa(dp849
g201
I2670072722
sg202
I00
sg203
I00
sg204
(dp850
g41
VnV eL ToWn
p851
sg43
Nssg207
(lp852
I2758383128
asg209
I00
sg210
I01
sg211
I1
sg212
I0
sg213
I1
sg214
(dp853
Vy
F-12.8488741
sVx
F-1.48447263
sVz
F2.0006847400000001
ssg216
(dp854
Vy
F-9.9772005099999994
sVx
F-9.5465
sVz
F3.4340217100000001
ssg218
I00
sg219
(dp855
g41
VTL StelluR
p856
sg43
Nssg222
(lp857
sg224
(lp858
(dp859
g41
VnV RayneHCS
p860
sg43
Nsasg228
I00
sg35
VPT1M15.3298962S
p861
sg32
VDeath
p862
sg231
I1
sa(dp863
g32
VMedal
p864
sg39
(dp865
g41
VnV eL ToWn
p866
sg43
Nssg236
I3698887726
sg35
VPT1M15.3298962S
p867
sa(dp868
g38
I4096745987
sg32
VWeaponDrop
p869
sg180
I8
sg44
(lp870
I2758383128
asg35
VPT1M15.3309195S
p871
sg183
I2
sg184
VP0DT0H0M17.1000S
p872
sg39
(dp873
g41
VTL StelluR
p874
sg43
Nssa(dp875
g38
I313138863
sg32
VWeaponDrop
p876
sg180
I0
sg44
(lp877
I1095363701
asg35
VPT1M15.3319198S
p878
sg183
I0
sg184
VP0DT0H0M2.1167S
p879
sg39
(dp880
g41
VTL StelluR
p881
sg43
Nssa(dp882
g38
I313138863
sg39
(dp883
g41
VnV Mikwen HCS
p884
sg43
Nssg44
(lp885
I1095363701
asg32
VWeaponPickup
p886
sg35
VPT1M15.8639393S
p887
sa(dp888
g38
I4096745987
sg39
(dp889
g41
VnV Mikwen HCS
p890
sg43
Nssg44
(lp891
I2758383128
asg32
VWeaponPickup
p892
sg35
VPT1M15.8639393S
p893
sa(dp894
g32
VPlayerSpawn
p895
sg39
(dp896
g41
VnV Mikwen HCS
p897
sg43
Nssg35
VPT1M15.8639393S
p898
sa(dp899
g201
I4096745987
sg202
I00
sg203
I00
sg204
(dp900
g41
VnV RayneHCS
p901
sg43
Nssg207
(lp902
I2758383128
asg209
I00
sg210
I01
sg211
I1
sg212
I0
sg213
I1
sg214
(dp903
Vy
F-15.648941000000001
sVx
F-4.6414685200000001
sVz
F2.5013332400000001
ssg216
(dp904
Vy
F-10.1338282
sVx
F-3.1222252799999999
sVz
F2.0827772599999999
ssg218
I00
sg219
(dp905
g41
VLiquid Eco
p906
sg43
Nssg222
(lp907
sg224
(lp908
(dp909
g41
VnV Pistola HCS
p910
sg43
Nsa(dp911
g41
VnV eL ToWn
p912
sg43
Nsasg228
I00
sg35
VPT1M16.6459706S
p913
sg32
VDeath
p914
sg231
I1
sa(dp915
g38
I313138863
sg32
VWeaponDrop
p916
sg180
I0
sg44
(lp917
I1095363701
asg35
VPT1M16.6479657S
p918
sg183
I0
sg184
VP0DT0H0M0.6167S
p919
sg39
(dp920
g41
VLiquid Eco
p921
sg43
Nssa(dp922
g38
I4096745987
sg32
VWeaponDrop
p923
sg180
I3
sg44
(lp924
I2758383128
asg35
VPT1M16.6479657S
p925
sg183
I2
sg184
VP0DT0H0M4.7833S
p926
sg39
(dp927
g41
VLiquid Eco
p928
sg43
Nssa(dp929
g38
I313138863
sg32
VWeaponDrop
p930
sg180
I0
sg44
(lp931
I1095363701
asg35
VPT1M17.0949883S
p932
sg183
I0
sg184
VP0DT0H0M0.8667S
p933
sg39
(dp934
g41
VnV Mikwen HCS
p935
sg43
Nssa(dp936
g38
I2133511419
sg39
(dp937
g41
VnV Mikwen HCS
p938
sg43
Nssg44
(lp939
I2758383128
asg32
VWeaponPickup
p940
sg35
VPT1M17.0959625S
p941
sa(dp942
g38
I313138863
sg39
(dp943
g41
VTL Spartan HCS
p944
sg43
Nssg44
(lp945
I1095363701
asg32
VWeaponPickup
p946
sg35
VPT1M17.5629808S
p947
sa(dp948
g38
I4096745987
sg39
(dp949
g41
VTL Spartan HCS
p950
sg43
Nssg44
(lp951
I2758383128
asg32
VWeaponPickup
p952
sg35
VPT1M17.5639841S
p953
sa(dp954
g32
VPlayerSpawn
p955
sg39
(dp956
g41
VTL Spartan HCS
p957
sg43
Nssg35
VPT1M17.5639841S
p958
sa(dp959
g38
I2244200496
sg39
(dp960
g41
VnV RayneHCS
p961
sg43
Nssg44
(lp962
I2758383128
asg32
VWeaponPickup
p963
sg35
VPT1M17.612003S
p964
sa(dp965
g32
VImpulse
p966
sg39
(dp967
g41
VnV RayneHCS
p968
sg43
Nssg280
I4191318012
sg35
VPT1M17.6370074S
p969
sa(dp970
g32
VImpulse
p971
sg39
(dp972
g41
VnV RayneHCS
p973
sg43
Nssg280
I1039658009
sg35
VPT1M17.6380076S
p974
sa(dp975
g38
I2244200496
sg32
VWeaponDrop
p976
sg180
I0
sg44
(lp977
I2758383128
asg35
VPT1M20.212126S
p978
sg183
I0
sg184
VP0DT0H0M2.4500S
p979
sg39
(dp980
g41
VnV RayneHCS
p981
sg43
Nssa(dp982
g32
VImpulse
p983
sg39
(dp984
g41
VnV RayneHCS
p985
sg43
Nssg280
I3435524855
sg35
VPT1M20.2250829S
p986
sa(dp987
g201
I424645655
sg202
I00
sg203
I00
sg204
(dp988
g41
VnV eL ToWn
p989
sg43
Nssg207
(lp990
I1327094800
asg209
I00
sg210
I01
sg211
I1
sg212
I0
sg213
I1
sg214
(dp991
Vy
F-10.043011699999999
sVx
F-7.6323313700000002
sVz
F2.0007035700000002
ssg216
(dp992
Vy
F-13.6340637
sVx
F-4.02362251
sVz
F2.8689456
ssg218
I00
sg219
(dp993
g41
VTL Danoxide
p994
sg43
Nssg222
(lp995
sg224
(lp996
sg228
I01
sg35
VPT1M20.4630906S
p997
sg32
VDeath
p998
sg231
I1
sa(dp999
g32
VMedal
p1000
sg39
(dp1001
g41
VnV eL ToWn
p1002
sg43
Nssg236
I3261908037
sg35
VPT1M20.4651263S
p1003
sa(dp1004
g38
I2650887244
sg32
VWeaponDrop
p1005
sg180
I0
sg44
(lp1006
I2758383128
asg35
VPT1M20.4660913S
p1007
sg183
I0
sg184
VP0DT0H0M5.7333S
p1008
sg39
(dp1009
g41
VTL Danoxide
p1010
sg43
Nssa(dp1011
g38
I4096745987
sg32
VWeaponDrop
p1012
sg180
I0
sg44
(lp1013
I2758383128
asg35
VPT1M20.4660913S
p1014
sg183
I0
sg184
VP0DT0H0M9.3500S
p1015
sg39
(dp1016
g41
VTL Danoxide
p1017
sg43
Nssa(dp1018
g38
I2244200496
sg39
(dp1019
g41
VnV RayneHCS
p1020
sg43
Nssg44
(lp1021
I2758383128
asg32
VWeaponPickup
p1022
sg35
VPT1M20.6291088S
p1023
sa(dp1024
g32
VImpulse
p1025
sg39
(dp1026
g41
VnV RayneHCS
p1027
sg43
Nssg280
I4191318012
sg35
VPT1M20.6291088S
p1028
sa(dp1029
g201
I4096745987
sg202
I00
sg203
I00
sg204
(dp1030
g41
VTL Spartan HCS
p1031
sg43
Nssg207
(lp1032
I2758383128
asg209
I00
sg210
I01
sg211
I1
sg212
I0
sg213
I1
sg214
(dp1033
Vy
F-5.5205419999999998
sVx
F9.507104
sVz
F3.1125404799999998
ssg216
(dp1034
Vy
F-5.2231550000000002
sVx
F-4.5744705200000002
sVz
F2.7338369999999999
ssg218
I00
sg219
(dp1035
g41
VnV RayneHCS
p1036
sg43
Nssg222
(lp1037
sg224
(lp1038
sg228
I01
sg35
VPT1M22.3461643S
p1039
sg32
VDeath
p1040
sg231
I1
sa(dp1041
g32
VImpulse
p1042
sg39
(dp1043
g41
VTL Spartan HCS
p1044
sg43
Nssg280
I3174430457
sg35
VPT1M22.3481887S
p1045
sa(dp1046
g32
VMedal
p1047
sg39
(dp1048
g41
VTL Spartan HCS
p1049
sg43
Nssg236
I2028249938
sg35
VPT1M22.3521888S
p1050
sa(dp1051
g32
VImpulse
p1052
sg39
(dp1053
g41
VTL Spartan HCS
p1054
sg43
Nssg280
I2299858338
sg35
VPT1M22.3521888S
p1055
sa(dp1056
g32
VMedal
p1057
sg39
(dp1058
g41
VTL Spartan HCS
p1059
sg43
Nssg236
I3653057799
sg35
VPT1M22.3531688S
p1060
sa(dp1061
g38
I313138863
sg32
VWeaponDrop
p1062
sg180
I16
sg44
(lp1063
I1095363701
asg35
VPT1M22.356192S
p1064
sg183
I7
sg184
VP0DT0H0M5.2500S
p1065
sg39
(dp1066
g41
VnV RayneHCS
p1067
sg43
Nssa(dp1068
g38
I4096745987
sg32
VWeaponDrop
p1069
sg180
I5
sg44
(lp1070
I2758383128
asg35
VPT1M22.356192S
p1071
sg183
I2
sg184
VP0DT0H0M17.6333S
p1072
sg39
(dp1073
g41
VnV RayneHCS
p1074
sg43
Nssa(dp1075
g38
I2244200496
sg32
VWeaponDrop
p1076
sg180
I0
sg44
(lp1077
I2758383128
asg35
VPT1M22.356192S
p1078
sg183
I0
sg184
VP0DT0H0M1.5667S
p1079
sg39
(dp1080
g41
VnV RayneHCS
p1081
sg43
Nssa(dp1082
g32
VImpulse
p1083
sg39
(dp1084
g41
VnV RayneHCS
p1085
sg43
Nssg280
I3435524855
sg35
VPT1M22.362165S
p1086
sa(dp1087
g38
I313138863
sg39
(dp1088
g41
VTL StelluR
p1089
sg43
Nssg44
(lp1090
I1095363701
asg32
VWeaponPickup
p1091
sg35
VPT1M23.3472255S
p1092
sa(dp1093
g38
I4096745987
sg39
(dp1094
g41
VTL StelluR
p1095
sg43
Nssg44
(lp1096
I2758383128
asg32
VWeaponPickup
p1097
sg35
VPT1M23.3472255S
p1098
sa(dp1099
g32
VPlayerSpawn
p1100
sg39
(dp1101
g41
VTL StelluR
p1102
sg43
Nssg35
VPT1M23.3472255S
p1103
sa(dp1104
g38
I313138863
sg39
(dp1105
g41
VLiquid Eco
p1106
sg43
Nssg44
(lp1107
I1095363701
asg32
VWeaponPickup
p1108
sg35
VPT1M24.6632846S
p1109
sa(dp1110
g38
I4096745987
sg39
(dp1111
g41
VLiquid Eco
p1112
sg43
Nssg44
(lp1113
I2758383128
asg32
VWeaponPickup
p1114
sg35
VPT1M24.6632846S
p1115
sa(dp1116
g32
VPlayerSpawn
p1117
sg39
(dp1118
g41
VLiquid Eco
p1119
sg43
Nssg35
VPT1M24.6642769S
p1120
sa(dp1121
g38
I313138863
sg32
VWeaponDrop
p1122
sg180
I0
sg44
(lp1123
I1095363701
asg35
VPT1M26.1783298S
p1124
sg183
I0
sg184
VP0DT0H0M1.1833S
p1125
sg39
(dp1126
g41
VTL StelluR
p1127
sg43
Nssa(dp1128
g38
I2133511419
sg39
(dp1129
g41
VTL StelluR
p1130
sg43
Nssg44
(lp1131
I2758383128
asg32
VWeaponPickup
p1132
sg35
VPT1M26.1783298S
p1133
sa(dp1134
g38
I313138863
sg39
(dp1135
g41
VTL Danoxide
p1136
sg43
Nssg44
(lp1137
I1095363701
asg32
VWeaponPickup
p1138
sg35
VPT1M28.4804248S
p1139
sa(dp1140
g38
I4096745987
sg39
(dp1141
g41
VTL Danoxide
p1142
sg43
Nssg44
(lp1143
I2758383128
asg32
VWeaponPickup
p1144
sg35
VPT1M28.4804248S
p1145
sa(dp1146
g32
VPlayerSpawn
p1147
sg39
(dp1148
g41
VTL Danoxide
p1149
sg43
Nssg35
VPT1M28.4804248S
p1150
sa(dp1151
g38
I313138863
sg39
(dp1152
g41
VnV RayneHCS
p1153
sg43
Nssg44
(lp1154
I1095363701
asg32
VWeaponPickup
p1155
sg35
VPT1M30.3634964S
p1156
sa(dp1157
g38
I4096745987
sg39
(dp1158
g41
VnV RayneHCS
p1159
sg43
Nssg44
(lp1160
I2758383128
asg32
VWeaponPickup
p1161
sg35
VPT1M30.3634964S
p1162
sa(dp1163
g32
VPlayerSpawn
p1164
sg39
(dp1165
g41
VnV RayneHCS
p1166
sg43
Nssg35
VPT1M30.3634964S
p1167
sa(dp1168
g201
I2133511419
sg202
I00
sg203
I01
sg204
(dp1169
g41
VnV Mikwen HCS
p1170
sg43
Nssg207
(lp1171
I2758383128
asg209
I00
sg210
I00
sg211
I1
sg212
I0
sg213
I1
sg214
(dp1172
Vy
F-11.3170538
sVx
F-10.4314938
sVz
F0.17483992900000001
ssg216
(dp1173
Vy
F-11.688143699999999
sVx
F-10.5244312
sVz
F0.33710479999999998
ssg218
I00
sg219
(dp1174
g41
VTL StelluR
p1175
sg43
Nssg222
(lp1176
sg224
(lp1177
sg228
I00
sg35
VPT1M30.4804762S
p1178
sg32
VDeath
p1179
sg231
I1
sa(dp1180
g32
VMedal
p1181
sg39
(dp1182
g41
VnV Mikwen HCS
p1183
sg43
Nssg236
I2287626681
sg35
VPT1M30.4814987S
p1184
sa(dp1185
g38
I2133511419
sg32
VWeaponDrop
p1186
sg180
I8
sg44
(lp1187
I2758383128
asg35
VPT1M30.4814987S
p1188
sg183
I1
sg184
VP0DT0H0M1.8833S
p1189
sg39
(dp1190
g41
VTL StelluR
p1191
sg43
Nssa(dp1192
g38
I4096745987
sg32
VWeaponDrop
p1193
sg180
I0
sg44
(lp1194
I2758383128
asg35
VPT1M30.4814987S
p1195
sg183
I0
sg184
VP0DT0H0M4.0667S
p1196
sg39
(dp1197
g41
VTL StelluR
p1198
sg43
Nssa(dp1199
g201
I2670072722
sg202
I00
sg203
I00
sg204
(dp1200
g41
VnV eL ToWn
p1201
sg43
Nssg207
(lp1202
I2758383128
asg209
I00
sg210
I01
sg211
I1
sg212
I0
sg213
I1
sg214
(dp1203
Vy
F-12.4238272
sVx
F-4.5367179999999996
sVz
F4.0483722699999998
ssg216
(dp1204
Vy
F-11.331389400000001
sVx
F-5.6006483999999999
sVz
F2.0006849999999998
ssg218
I00
sg219
(dp1205
g41
VLiquid Eco
p1206
sg43
Nssg222
(lp1207
sg224
(lp1208
sg228
I00
sg35
VPT1M32.1625417S
p1209
sg32
VDeath
p1210
sg231
I1
sa(dp1211
g38
I313138863
sg32
VWeaponDrop
p1212
sg180
I6
sg44
(lp1213
I1095363701
asg35
VPT1M32.1645509S
p1214
sg183
I4
sg184
VP0DT0H0M3.3667S
p1215
sg39
(dp1216
g41
VLiquid Eco
p1217
sg43
Nssa(dp1218
g38
I4096745987
sg32
VWeaponDrop
p1219
sg180
I3
sg44
(lp1220
I2758383128
asg35
VPT1M32.1645509S
p1221
sg183
I2
sg184
VP0DT0H0M4.1333S
p1222
sg39
(dp1223
g41
VLiquid Eco
p1224
sg43
Nssa(dp1225
g201
I4096745987
sg202
I00
sg203
I00
sg204
(dp1226
g41
VTL Danoxide
p1227
sg43
Nssg207
(lp1228
I2758383128
asg209
I00
sg210
I01
sg211
I1
sg212
I0
sg213
I1
sg214
(dp1229
Vy
F-12.068809999999999
sVx
F3.138093
sVz
F1.3894599999999999
ssg216
(dp1230
Vy
F-15.2251549
sVx
F-5.0633807199999996
sVz
F2.2418117500000001
ssg218
I00
sg219
(dp1231
g41
VnV eL ToWn
p1232
sg43
Nssg222
(lp1233
sg224
(lp1234
(dp1235
g41
VLiquid Eco
p1236
sg43
Nsasg228
I01
sg35
VPT1M33.2965843S
p1237
sg32
VDeath
p1238
sg231
I1
sa(dp1239
g32
VMedal
p1240
sg39
(dp1241
g41
VTL Danoxide
p1242
sg43
Nssg236
I3261908037
sg35
VPT1M33.2976088S
p1243
sa(dp1244
g38
I2670072722
sg32
VWeaponDrop
p1245
sg180
I7
sg44
(lp1246
I2758383128
asg35
VPT1M33.2985861S
p1247
sg183
I5
sg184
VP0DT0H0M19.0333S
p1248
sg39
(dp1249
g41
VnV eL ToWn
p1250
sg43
Nssa(dp1251
g38
I424645655
sg32
VWeaponDrop
p1252
sg180
I54
sg44
(lp1253
I1327094800
asg35
VPT1M33.2985861S
p1254
sg183
I22
sg184
VP0DT0H0M25.2000S
p1255
sg39
(dp1256
g41
VnV eL ToWn
p1257
sg43
Nssa(dp1258
g201
I2670072722
sg202
I00
sg203
I00
sg204
(dp1259
g41
VnV eL ToWn
p1260
sg43
Nssg207
(lp1261
I2758383128
asg209
I00
sg210
I01
sg211
I1
sg212
I0
sg213
I1
sg214
(dp1262
Vy
F-16.100359000000001
sVx
F-4.7509284000000003
sVz
F2.8470687899999998
ssg216
(dp1263
Vy
F-11.8683672
sVx
F2.1149269999999998
sVz
F1.3843771199999999
ssg218
I00
sg219
(dp1264
g41
VTL Danoxide
p1265
sg43
Nssg222
(lp1266
sg224
(lp1267
(dp1268
g41
VnV Pistola HCS
p1269
sg43
Nsasg228
I00
sg35
VPT1M33.7966035S
p1270
sg32
VDeath
p1271
sg231
I1
sa(dp1272
g32
VMedal
p1273
sg39
(dp1274
g41
VnV eL ToWn
p1275
sg43
Nssg236
I285057226
sg35
VPT1M33.7986047S
p1276
sa(dp1277
g38
I313138863
sg32
VWeaponDrop
p1278
sg180
I0
sg44
(lp1279
I1095363701
asg35
VPT1M33.7986047S
p1280
sg183
I0
sg184
VP0DT0H0M0.3000S
p1281
sg39
(dp1282
g41
VTL Danoxide
p1283
sg43
Nssa(dp1284
g38
I4096745987
sg32
VWeaponDrop
p1285
sg180
I6
sg44
(lp1286
I2758383128
asg35
VPT1M33.7986047S
p1287
sg183
I3
sg184
VP0DT0H0M5.0167S
p1288
sg39
(dp1289
g41
VTL Danoxide
p1290
sg43
Nssa(dp1291
g201
I4096745987
sg202
I00
sg203
I00
sg204
(dp1292
g41
VnV Mikwen HCS
p1293
sg43
Nssg207
(lp1294
I2758383128
asg209
I00
sg210
I01
sg211
I1
sg212
I0
sg213
I1
sg214
(dp1295
Vy
F-11.354268100000001
sVx
F-4.7567706100000002
sVz
F-0.112890348
ssg216
(dp1296
Vy
F-2.51643515
sVx
F-7.0704459999999996
sVz
F-0.17651602599999999
ssg218
I00
sg219
(dp1297
g41
VTL Spartan HCS
p1298
sg43
Nssg222
(lp1299
sg224
(lp1300
sg228
I01
sg35
VPT1M34.1796173S
p1301
sg32
VDeath
p1302
sg231
I1
sa(dp1303
g32
VMedal
p1304
sg39
(dp1305
g41
VnV Mikwen HCS
p1306
sg43
Nssg236
I3261908037
sg35
VPT1M34.1816419S
p1307
sa(dp1308
g32
VMedal
p1309
sg39
(dp1310
g41
VnV Mikwen HCS
p1311
sg43
Nssg236
I2078758684
sg35
VPT1M34.1816419S
p1312
sa(dp1313
g38
I313138863
sg32
VWeaponDrop
p1314
sg180
I0
sg44
(lp1315
I1095363701
asg35
VPT1M34.1826421S
p1316
sg183
I0
sg184
VP0DT0H0M0.8167S
p1317
sg39
(dp1318
g41
VTL Spartan HCS
p1319
sg43
Nssa(dp1320
g38
I4096745987
sg32
VWeaponDrop
p1321
sg180
I15
sg44
(lp1322
I2758383128
asg35
VPT1M34.1826421S
p1323
sg183
I9
sg184
VP0DT0H0M15.8000S
p1324
sg39
(dp1325
g41
VTL Spartan HCS
p1326
sg43
Nssa(dp1327
g38
I2244200496
sg39
(dp1328
g41
VnV Pistola HCS
p1329
sg43
Nssg44
(lp1330
I2758383128
asg32
VWeaponPickup
p1331
sg35
VPT1M36.4117044S
p1332
sa(dp1333
g32
VImpulse
p1334
sg39
(dp1335
g41
VnV Pistola HCS
p1336
sg43
Nssg280
I4191318012
sg35
VPT1M36.4127387S
p1337
sa(dp1338
g38
I2244200496
sg32
VWeaponDrop
p1339
sg180
I0
sg44
(lp1340
I2758383128
asg35
VPT1M37.9617837S
p1341
sg183
I0
sg184
VP0DT0H0M1.3833S
p1342
sg39
(dp1343
g41
VnV Pistola HCS
p1344
sg43
Nssa(dp1345
g32
VImpulse
p1346
sg39
(dp1347
g41
VnV Pistola HCS
p1348
sg43
Nssg280
I3435524855
sg35
VPT1M37.962788S
p1349
sa(dp1350
g38
I313138863
sg39
(dp1351
g41
VTL StelluR
p1352
sg43
Nssg44
(lp1353
I1095363701
asg32
VWeaponPickup
p1354
sg35
VPT1M38.4968069S
p1355
sa(dp1356
g38
I4096745987
sg39
(dp1357
g41
VTL StelluR
p1358
sg43
Nssg44
(lp1359
I2758383128
asg32
VWeaponPickup
p1360
sg35
VPT1M38.4968069S
p1361
sa(dp1362
g32
VPlayerSpawn
p1363
sg39
(dp1364
g41
VTL StelluR
p1365
sg43
Nssg35
VPT1M38.4968069S
p1366
sa(dp1367
g38
I2244200496
sg39
(dp1368
g41
VnV Pistola HCS
p1369
sg43
Nssg44
(lp1370
I2758383128
asg32
VWeaponPickup
p1371
sg35
VPT1M39.3958271S
p1372
sa(dp1373
g32
VImpulse
p1374
sg39
(dp1375
g41
VnV Pistola HCS
p1376
sg43
Nssg280
I4191318012
sg35
VPT1M39.3958271S
p1377
sa(dp1378
g38
I2244200496
sg32
VWeaponDrop
p1379
sg180
I0
sg44
(lp1380
I2758383128
asg35
VPT1M39.9788416S
p1381
sg183
I0
sg184
VP0DT0H0M0.4167S
p1382
sg39
(dp1383
g41
VnV Pistola HCS
p1384
sg43
Nssa(dp1385
g32
VImpulse
p1386
sg39
(dp1387
g41
VnV Pistola HCS
p1388
sg43
Nssg280
I3435524855
sg35
VPT1M39.9788416S
p1389
sa(dp1390
g38
I313138863
sg39
(dp1391
g41
VLiquid Eco
p1392
sg43
Nssg44
(lp1393
I1095363701
asg32
VWeaponPickup
p1394
sg35
VPT1M40.1798494S
p1395
sa(dp1396
g38
I4096745987
sg39
(dp1397
g41
VLiquid Eco
p1398
sg43
Nssg44
(lp1399
I2758383128
asg32
VWeaponPickup
p1400
sg35
VPT1M40.1808488S
p1401
sa(dp1402
g32
VPlayerSpawn
p1403
sg39
(dp1404
g41
VLiquid Eco
p1405
sg43
Nssg35
VPT1M40.1808488S
p1406
sa(dp1407
g38
I313138863
sg32
VWeaponDrop
p1408
sg180
I0
sg44
(lp1409
I1095363701
asg35
VPT1M40.3448817S
p1410
sg183
I0
sg184
VP0DT0H0M0.8833S
p1411
sg39
(dp1412
g41
VTL StelluR
p1413
sg43
Nssa(dp1414
g38
I2670072722
sg39
(dp1415
g41
VTL StelluR
p1416
sg43
Nssg44
(lp1417
I2758383128
asg32
VWeaponPickup
p1418
sg35
VPT1M40.3458783S
p1419
sa(dp1420
g38
I2244200496
sg39
(dp1421
g41
VnV Pistola HCS
p1422
sg43
Nssg44
(lp1423
I2758383128
asg32
VWeaponPickup
p1424
sg35
VPT1M41.1119059S
p1425
sa(dp1426
g32
VImpulse
p1427
sg39
(dp1428
g41
VnV Pistola HCS
p1429
sg43
Nssg280
I4191318012
sg35
VPT1M41.1128849S
p1430
sa(dp1431
g38
I313138863
sg39
(dp1432
g41
VnV eL ToWn
p1433
sg43
Nssg44
(lp1434
I1095363701
asg32
VWeaponPickup
p1435
sg35
VPT1M41.3139267S
p1436
sa(dp1437
g38
I4096745987
sg39
(dp1438
g41
VnV eL ToWn
p1439
sg43
Nssg44
(lp1440
I2758383128
asg32
VWeaponPickup
p1441
sg35
VPT1M41.3139267S
p1442
sa(dp1443
g32
VPlayerSpawn
p1444
sg39
(dp1445
g41
VnV eL ToWn
p1446
sg43
Nssg35
VPT1M41.3139267S
p1447
sa(dp1448
g38
I2244200496
sg32
VWeaponDrop
p1449
sg180
I0
sg44
(lp1450
I2758383128
asg35
VPT1M41.76191S
p1451
sg183
I0
sg184
VP0DT0H0M0.4833S
p1452
sg39
(dp1453
g41
VnV Pistola HCS
p1454
sg43
Nssa(dp1455
g32
VImpulse
p1456
sg39
(dp1457
g41
VnV Pistola HCS
p1458
sg43
Nssg280
I3435524855
sg35
VPT1M41.76291S
p1459
sa(dp1460
g38
I313138863
sg39
(dp1461
g41
VTL Danoxide
p1462
sg43
Nssg44
(lp1463
I1095363701
asg32
VWeaponPickup
p1464
sg35
VPT1M41.8139352S
p1465
sa(dp1466
g38
I4096745987
sg39
(dp1467
g41
VTL Danoxide
p1468
sg43
Nssg44
(lp1469
I2758383128
asg32
VWeaponPickup
p1470
sg35
VPT1M41.8139352S
p1471
sa(dp1472
g32
VPlayerSpawn
p1473
sg39
(dp1474
g41
VTL Danoxide
p1475
sg43
Nssg35
VPT1M41.8139352S
p1476
sa(dp1477
g38
I313138863
sg39
(dp1478
g41
VTL Spartan HCS
p1479
sg43
Nssg44
(lp1480
I1095363701
asg32
VWeaponPickup
p1481
sg35
VPT1M42.1969511S
p1482
sa(dp1483
g38
I4096745987
sg39
(dp1484
g41
VTL Spartan HCS
p1485
sg43
Nssg44
(lp1486
I2758383128
asg32
VWeaponPickup
p1487
sg35
VPT1M42.1969511S
p1488
sa(dp1489
g32
VPlayerSpawn
p1490
sg39
(dp1491
g41
VTL Spartan HCS
p1492
sg43
Nssg35
VPT1M42.1969511S
p1493
sa(dp1494
g201
I4096745987
sg202
I00
sg203
I00
sg204
(dp1495
g41
VTL StelluR
p1496
sg43
Nssg207
(lp1497
I2758383128
asg209
I00
sg210
I01
sg211
I1
sg212
I0
sg213
I1
sg214
(dp1498
Vy
F-11.833220499999999
sVx
F1.12402081
sVz
F2.2656433599999999
ssg216
(dp1499
Vy
F-2.7521867800000002
sVx
F7.4596996300000002
sVz
F3.0597062099999999
ssg218
I00
sg219
(dp1500
g41
VnV Mikwen HCS
p1501
sg43
Nssg222
(lp1502
sg224
(lp1503
sg228
I01
sg35
VPT1M42.8469521S
p1504
sg32
VDeath
p1505
sg231
I1
sa(dp1506
g32
VImpulse
p1507
sg39
(dp1508
g41
VTL StelluR
p1509
sg43
Nssg280
I3174430457
sg35
VPT1M42.8479765S
p1510
sa(dp1511
g32
VMedal
p1512
sg39
(dp1513
g41
VTL StelluR
p1514
sg43
Nssg236
I3653057799
sg35
VPT1M42.848974S
p1515
sa(dp1516
g38
I2133511419
sg32
VWeaponDrop
p1517
sg180
I4
sg44
(lp1518
I2758383128
asg35
VPT1M42.848974S
p1519
sg183
I3
sg184
VP0DT0H0M7.2000S
p1520
sg39
(dp1521
g41
VnV Mikwen HCS
p1522
sg43
Nssa(dp1523
g38
I2133511419
sg32
VWeaponDrop
p1524
sg180
I0
sg44
(lp1525
I2758383128
asg35
VPT1M42.848974S
p1526
sg183
I0
sg184
VP0DT0S
p1527
sg39
(dp1528
g41
VnV Mikwen HCS
p1529
sg43
Nssa(dp1530
g38
I4096745987
sg32
VWeaponDrop
p1531
sg180
I8
sg44
(lp1532
I2758383128
asg35
VPT1M42.848974S
p1533
sg183
I6
sg184
VP0DT0H0M18.9167S
p1534
sg39
(dp1535
g41
VnV Mikwen HCS
p1536
sg43
Nssa(dp1537
g38
I2244200496
sg39
(dp1538
g41
VnV Pistola HCS
p1539
sg43
Nssg44
(lp1540
I2758383128
asg32
VWeaponPickup
p1541
sg35
VPT1M43.0119779S
p1542
sa(dp1543
g32
VImpulse
p1544
sg39
(dp1545
g41
VnV Pistola HCS
p1546
sg43
Nssg280
I4191318012
sg35
VPT1M43.0129578S
p1547
sa(dp1548
g38
I313138863
sg32
VWeaponDrop
p1549
sg180
I0
sg44
(lp1550
I1095363701
asg35
VPT1M43.2449905S
p1551
sg183
I0
sg184
VP0DT0H0M0.6167S
p1552
sg39
(dp1553
g41
VLiquid Eco
p1554
sg43
Nssa(dp1555
g38
I2133511419
sg39
(dp1556
g41
VLiquid Eco
p1557
sg43
Nssg44
(lp1558
I2758383128
asg32
VWeaponPickup
p1559
sg35
VPT1M43.2449905S
p1560
sa(dp1561
g38
I2244200496
sg32
VWeaponDrop
p1562
sg180
I0
sg44
(lp1563
I2758383128
asg35
VPT1M43.6450058S
p1564
sg183
I0
sg184
VP0DT0H0M0.4667S
p1565
sg39
(dp1566
g41
VnV Pistola HCS
p1567
sg43
Nssa(dp1568
g32
VImpulse
p1569
sg39
(dp1570
g41
VnV Pistola HCS
p1571
sg43
Nssg280
I3435524855
sg35
VPT1M43.6460057S
p1572
sa(dp1573
g38
I2244200496
sg39
(dp1574
g41
VnV RayneHCS
p1575
sg43
Nssg44
(lp1576
I2758383128
asg32
VWeaponPickup
p1577
sg35
VPT1M44.1790048S
p1578
sa(dp1579
g32
VImpulse
p1580
sg39
(dp1581
g41
VnV RayneHCS
p1582
sg43
Nssg280
I4191318012
sg35
VPT1M44.1790048S
p1583
sa(dp1584
g38
I2244200496
sg32
VWeaponDrop
p1585
sg180
I0
sg44
(lp1586
I2758383128
asg35
VPT1M45.5620746S
p1587
sg183
I0
sg184
VP0DT0H0M1.2333S
p1588
sg39
(dp1589
g41
VnV RayneHCS
p1590
sg43
Nssa(dp1591
g32
VImpulse
p1592
sg39
(dp1593
g41
VnV RayneHCS
p1594
sg43
Nssg280
I3435524855
sg35
VPT1M45.5630613S
p1595
sa(dp1596
g38
I313138863
sg32
VWeaponDrop
p1597
sg180
I0
sg44
(lp1598
I1095363701
asg35
VPT1M46.3780898S
p1599
sg183
I0
sg184
VP0DT0H0M3.3833S
p1600
sg39
(dp1601
g41
VTL Spartan HCS
p1602
sg43
Nssa(dp1603
g38
I2650887244
sg39
(dp1604
g41
VTL Spartan HCS
p1605
sg43
Nssg44
(lp1606
I2758383128
asg32
VWeaponPickup
p1607
sg35
VPT1M46.3790885S
p1608
sa(dp1609
g38
I2244200496
sg39
(dp1610
g41
VnV RayneHCS
p1611
sg43
Nssg44
(lp1612
I2758383128
asg32
VWeaponPickup
p1613
sg35
VPT1M46.5281119S
p1614
sa(dp1615
g32
VImpulse
p1616
sg39
(dp1617
g41
VnV RayneHCS
p1618
sg43
Nssg280
I4191318012
sg35
VPT1M46.5291141S
p1619
sa(dp1620
g32
VMedal
p1621
sg39
(dp1622
g41
VnV RayneHCS
p1623
sg43
Nssg236
I3886151616
sg35
VPT1M46.7381006S
p1624
sa(dp1625
g32
VMedal
p1626
sg39
(dp1627
g41
VnV Pistola HCS
p1628
sg43
Nssg236
I1494478183
sg35
VPT1M46.7381006S
p1629
sa(dp1630
g32
VImpulse
p1631
sg39
(dp1632
g41
VnV RayneHCS
p1633
sg43
Nssg280
I2944278681
sg35
VPT1M46.7381006S
p1634
sa(dp1635
g38
I2244200496
sg32
VWeaponDrop
p1636
sg180
I0
sg44
(lp1637
I2758383128
asg35
VPT1M46.7481234S
p1638
sg183
I0
sg184
VP0DT0H0M0.0500S
p1639
sg39
(dp1640
g41
VnV RayneHCS
p1641
sg43
Nssa(dp1642
g38
I4096745987
sg32
VWeaponDrop
p1643
sg180
I4
sg44
(lp1644
I2758383128
asg35
VPT1M49.3121999S
p1645
sg183
I3
sg184
VP0DT0H0M7.1333S
p1646
sg39
(dp1647
g41
VTL Danoxide
p1648
sg43
Nssa(dp1649
g38
I424645655
sg39
(dp1650
g41
VTL Danoxide
p1651
sg43
Nssg44
(lp1652
I1327094800
asg32
VWeaponPickup
p1653
sg35
VPT1M49.3121999S
p1654
sa(dp1655
g38
I313138863
sg39
(dp1656
g41
VnV Mikwen HCS
p1657
sg43
Nssg44
(lp1658
I1095363701
asg32
VWeaponPickup
p1659
sg35
VPT1M50.8632604S
p1660
sa(dp1661
g38
I4096745987
sg39
(dp1662
g41
VnV Mikwen HCS
p1663
sg43
Nssg44
(lp1664
I2758383128
asg32
VWeaponPickup
p1665
sg35
VPT1M50.8642815S
p1666
sa(dp1667
g32
VPlayerSpawn
p1668
sg39
(dp1669
g41
VnV Mikwen HCS
p1670
sg43
Nssg35
VPT1M50.8642815S
p1671
sa(dp1672
g38
I313138863
sg32
VWeaponDrop
p1673
sg180
I0
sg44
(lp1674
I1095363701
asg35
VPT1M53.1953515S
p1675
sg183
I0
sg184
VP0DT0H0M1.3500S
p1676
sg39
(dp1677
g41
VnV Mikwen HCS
p1678
sg43
Nssa(dp1679
g38
I2133511419
sg39
(dp1680
g41
VnV Mikwen HCS
p1681
sg43
Nssg44
(lp1682
I2758383128
asg32
VWeaponPickup
p1683
sg35
VPT1M53.1953515S
p1684
sa(dp1685
g38
I4096745987
sg32
VWeaponDrop
p1686
sg180
I15
sg44
(lp1687
I2758383128
asg35
VPT1M58.3955487S
p1688
sg183
I9
sg184
VP0DT0H0M13.1167S
p1689
sg39
(dp1690
g41
VTL StelluR
p1691
sg43
Nssa(dp1692
g38
I4108759423
sg39
(dp1693
g41
VTL StelluR
p1694
sg43
Nssg44
(lp1695
I2758383128
asg32
VWeaponPickup
p1696
sg35
VPT1M58.3955487S
p1697
sa(dp1698
g201
I4096745987
sg202
I00
sg203
I00
sg204
(dp1699
g41
VTL Spartan HCS
p1700
sg43
Nssg207
(lp1701
I2758383128
asg209
I00
sg210
I01
sg211
I1
sg212
I0
sg213
I1
sg214
(dp1702
Vy
F13.883089999999999
sVx
F7.0454826400000004
sVz
F2.2559187399999998
ssg216
(dp1703
Vy
F12.0598183
sVx
F-12.286376000000001
sVz
F2.1496033699999999
ssg218
I00
sg219
(dp1704
g41
VnV RayneHCS
p1705
sg43
Nssg222
(lp1706
sg224
(lp1707
(dp1708
g41
VLiquid Eco
p1709
sg43
Nsasg228
I00
sg35
VPT1M59.1135767S
p1710
sg32
VDeath
p1711
sg231
I1
sa(dp1712
g32
VMedal
p1713
sg39
(dp1714
g41
VTL Spartan HCS
p1715
sg43
Nssg236
I352859864
sg35
VPT1M59.1135767S
p1716
sa(dp1717
g32
VImpulse
p1718
sg39
(dp1719
g41
VTL Spartan HCS
p1720
sg43
Nssg280
I2556889090
sg35
VPT1M59.1135767S
p1721
sa(dp1722
g38
I313138863
sg32
VWeaponDrop
p1723
sg180
I0
sg44
(lp1724
I1095363701
asg35
VPT1M59.1145974S
p1725
sg183
I0
sg184
VP0DT0H0M1.0000S
p1726
sg39
(dp1727
g41
VnV RayneHCS
p1728
sg43
Nssa(dp1729
g38
I4096745987
sg32
VWeaponDrop
p1730
sg180
I6
sg44
(lp1731
I2758383128
asg35
VPT1M59.1145974S
p1732
sg183
I3
sg184
VP0DT0H0M26.4667S
p1733
sg39
(dp1734
g41
VnV RayneHCS
p1735
sg43
Nssa(dp1736
g201
I4108759423
sg202
I00
sg203
I00
sg204
(dp1737
g41
VTL StelluR
p1738
sg43
Nssg207
(lp1739
I2758383128
asg209
I00
sg210
I01
sg211
I1
sg212
I0
sg213
I1
sg214
(dp1740
Vy
F2.930393
sVx
F-5.5104410000000001
sVz
F3.8792514800000002
ssg216
(dp1741
Vy
F5.2433486
sVx
F-18.638467800000001
sVz
F2.4065136900000001
ssg218
I00
sg219
(dp1742
g41
VnV eL ToWn
p1743
sg43
Nssg222
(lp1744
sg224
(lp1745
(dp1746
g41
VTL Danoxide
p1747
sg43
Nsasg228
I01
sg35
VPT2M2.0626879S
p1748
sg32
VDeath
p1749
sg231
I1
sa(dp1750
g32
VMedal
p1751
sg39
(dp1752
g41
VTL StelluR
p1753
sg43
Nssg236
I3261908037
sg35
VPT2M2.0647091S
p1754
sa(dp1755
g38
I313138863
sg32
VWeaponDrop
p1756
sg180
I0
sg44
(lp1757
I1095363701
asg35
VPT2M2.0647091S
p1758
sg183
I0
sg184
VP0DT0H0M0.9500S
p1759
sg39
(dp1760
g41
VnV eL ToWn
p1761
sg43
Nssa(dp1762
g38
I4096745987
sg32
VWeaponDrop
p1763
sg180
I8
sg44
(lp1764
I2758383128
asg35
VPT2M2.0647091S
p1765
sg183
I4
sg184
VP0DT0H0M19.8000S
p1766
sg39
(dp1767
g41
VnV eL ToWn
p1768
sg43
Nssa(dp1769
g201
I4108759423
sg202
I00
sg203
I00
sg204
(dp1770
g41
VnV Pistola HCS
p1771
sg43
Nssg207
(lp1772
I2758383128
asg209
I00
sg210
I01
sg211
I1
sg212
I0
sg213
I1
sg214
(dp1773
Vy
F12.2000771
sVx
F-3.85696387
sVz
F2.0006849999999998
ssg216
(dp1774
Vy
F13.473093
sVx
F8.7057230000000008
sVz
F2.8594632099999999
ssg218
I00
sg219
(dp1775
g41
VTL Spartan HCS
p1776
sg43
Nssg222
(lp1777
sg224
(lp1778
sg228
I01
sg35
VPT2M3.7797548S
p1779
sg32
VDeath
p1780
sg231
I1
sa(dp1781
g32
VMedal
p1782
sg39
(dp1783
g41
VnV Pistola HCS
p1784
sg43
Nssg236
I3261908037
sg35
VPT2M3.7817553S
p1785
sa(dp1786
g38
I2650887244
sg32
VWeaponDrop
p1787
sg180
I0
sg44
(lp1788
I2758383128
asg35
VPT2M3.7817553S
p1789
sg183
I0
sg184
VP0DT0H0M7.2833S
p1790
sg39
(dp1791
g41
VTL Spartan HCS
p1792
sg43
Nssa(dp1793
g38
I4096745987
sg32
VWeaponDrop
p1794
sg180
I9
sg44
(lp1795
I2758383128
asg35
VPT2M3.7817553S
p1796
sg183
I6
sg184
VP0DT0H0M10.9167S
p1797
sg39
(dp1798
g41
VTL Spartan HCS
p1799
sg43
Nssa(dp1800
g201
I4096745987
sg202
I00
sg203
I00
sg204
(dp1801
g41
VLiquid Eco
p1802
sg43
Nssg207
(lp1803
I2758383128
asg209
I00
sg210
I01
sg211
I1
sg212
I0
sg213
I1
sg214
(dp1804
Vy
F3.4042460000000001
sVx
F-16.5212784
sVz
F4.7197036700000004
ssg216
(dp1805
Vy
F10.809051500000001
sVx
F-12.4682245
sVz
F0.57482069999999996
ssg218
I00
sg219
(dp1806
g41
VnV Mikwen HCS
p1807
sg43
Nssg222
(lp1808
sg224
(lp1809
(dp1810
g41
VTL Danoxide
p1811
sg43
Nsasg228
I01
sg35
VPT2M4.6127872S
p1812
sg32
VDeath
p1813
sg231
I1
sa(dp1814
g32
VMedal
p1815
sg39
(dp1816
g41
VLiquid Eco
p1817
sg43
Nssg236
I3261908037
sg35
VPT2M4.6138129S
p1818
sa(dp1819
g38
I2133511419
sg32
VWeaponDrop
p1820
sg180
I0
sg44
(lp1821
I2758383128
asg35
VPT2M4.6148136S
p1822
sg183
I0
sg184
VP0DT0H0M0.8667S
p1823
sg39
(dp1824
g41
VnV Mikwen HCS
p1825
sg43
Nssa(dp1826
g38
I4096745987
sg32
VWeaponDrop
p1827
sg180
I10
sg44
(lp1828
I2758383128
asg35
VPT2M4.6148136S
p1829
sg183
I6
sg184
VP0DT0H0M11.5333S
p1830
sg39
(dp1831
g41
VnV Mikwen HCS
p1832
sg43
Nssa(dp1833
g201
I4108759423
sg202
I00
sg203
I00
sg204
(dp1834
g41
VTL StelluR
p1835
sg43
Nssg207
(lp1836
I2758383128
asg209
I00
sg210
I01
sg211
I1
sg212
I0
sg213
I1
sg214
(dp1837
Vy
F11.359374000000001
sVx
F-7.3058753000000003
sVz
F3.0310533
ssg216
(dp1838
Vy
F12.6686049
sVx
F-4.5401635200000001
sVz
F2.0006849999999998
ssg218
I00
sg219
(dp1839
g41
VnV Pistola HCS
p1840
sg43
Nssg222
(lp1841
sg224
(lp1842
(dp1843
g41
VTL Spartan HCS
p1844
sg43
Nsasg228
I01
sg35
VPT2M6.5458873S
p1845
sg32
VDeath
p1846
sg231
I1
sa(dp1847
g32
VMedal
p1848
sg39
(dp1849
g41
VTL StelluR
p1850
sg43
Nssg236
I3261908037
sg35
VPT2M6.5478828S
p1851
sa(dp1852
g32
VMedal
p1853
sg39
(dp1854
g41
VTL StelluR
p1855
sg43
Nssg236
I2078758684
sg35
VPT2M6.5478828S
p1856
sa(dp1857
g38
I313138863
sg32
VWeaponDrop
p1858
sg180
I0
sg44
(lp1859
I1095363701
asg35
VPT2M6.5488855S
p1860
sg183
I0
sg184
VP0DT0H0M1.1333S
p1861
sg39
(dp1862
g41
VnV Pistola HCS
p1863
sg43
Nssa(dp1864
g38
I4108759423
sg32
VWeaponDrop
p1865
sg180
I43
sg44
(lp1866
I2758383128
asg35
VPT2M6.5488855S
p1867
sg183
I20
sg184
VP0DT0H0M51.3000S
p1868
sg39
(dp1869
g41
VnV Pistola HCS
p1870
sg43
Nssa(dp1871
g38
I313138863
sg39
(dp1872
g41
VnV RayneHCS
p1873
sg43
Nssg44
(lp1874
I1095363701
asg32
VWeaponPickup
p1875
sg35
VPT2M7.1299019S
p1876
sa(dp1877
g38
I4096745987
sg39
(dp1878
g41
VnV RayneHCS
p1879
sg43
Nssg44
(lp1880
I2758383128
asg32
VWeaponPickup
p1881
sg35
VPT2M7.1299019S
p1882
sa(dp1883
g32
VPlayerSpawn
p1884
sg39
(dp1885
g41
VnV RayneHCS
p1886
sg43
Nssg35
VPT2M7.1299019S
p1887
sa(dp1888
g32
VMedal
p1889
sg39
(dp1890
g41
VLiquid Eco
p1891
sg43
Nssg236
I3400287617
sg35
VPT2M8.4149603S
p1892
sa(dp1893
g38
I2244200496
sg39
(dp1894
g41
VTL Danoxide
p1895
sg43
Nssg44
(lp1896
I2758383128
asg32
VWeaponPickup
p1897
sg35
VPT2M9.7450038S
p1898
sa(dp1899
g32
VImpulse
p1900
sg39
(dp1901
g41
VTL Danoxide
p1902
sg43
Nssg280
I4191318012
sg35
VPT2M9.7459864S
p1903
sa(dp1904
g32
VImpulse
p1905
sg39
(dp1906
g41
VTL Danoxide
p1907
sg43
Nssg280
I1039658009
sg35
VPT2M9.7459864S
p1908
sa(dp1909
g38
I313138863
sg39
(dp1910
g41
VnV eL ToWn
p1911
sg43
Nssg44
(lp1912
I1095363701
asg32
VWeaponPickup
p1913
sg35
VPT2M10.0800048S
p1914
sa(dp1915
g38
I4096745987
sg39
(dp1916
g41
VnV eL ToWn
p1917
sg43
Nssg44
(lp1918
I2758383128
asg32
VWeaponPickup
p1919
sg35
VPT2M10.0810214S
p1920
sa(dp1921
g32
VPlayerSpawn
p1922
sg39
(dp1923
g41
VnV eL ToWn
p1924
sg43
Nssg35
VPT2M10.0810214S
p1925
sa(dp1926
g201
I4106030681
sg202
I00
sg203
I00
sg204
(dp1927
g41
VnV RayneHCS
p1928
sg43
Nssg207
(lp1929
sg209
I00
sg210
I01
sg211
I1
sg212
I0
sg213
I1
sg214
(dp1930
Vy
F13.277550700000001
sVx
F3.3639492999999998
sVz
F1.3891185500000001
ssg216
(dp1931
Vy
F13.2531157
sVx
F-5.8444294899999996
sVz
F2.8009967800000002
ssg218
I00
sg219
(dp1932
g41
VTL Danoxide
p1933
sg43
Nssg222
(lp1934
sg224
(lp1935
sg228
I00
sg35
VPT2M10.0959969S
p1936
sg32
VDeath
p1937
sg231
I1
sa(dp1938
g32
VMedal
p1939
sg39
(dp1940
g41
VnV RayneHCS
p1941
sg43
Nssg236
I2028249938
sg35
VPT2M10.0970197S
p1942
sa(dp1943
g32
VImpulse
p1944
sg39
(dp1945
g41
VnV RayneHCS
p1946
sg43
Nssg280
I2299858338
sg35
VPT2M10.0970197S
p1947
sa(dp1948
g38
I313138863
sg32
VWeaponDrop
p1949
sg180
I0
sg44
(lp1950
I1095363701
asg35
VPT2M10.0970197S
p1951
sg183
I0
sg184
VP0DT0H0M0.3667S
p1952
sg39
(dp1953
g41
VTL Danoxide
p1954
sg43
Nssa(dp1955
g38
I424645655
sg32
VWeaponDrop
p1956
sg180
I43
sg44
(lp1957
I1327094800
asg35
VPT2M10.0970197S
p1958
sg183
I17
sg184
VP0DT0H0M20.6000S
p1959
sg39
(dp1960
g41
VTL Danoxide
p1961
sg43
Nssa(dp1962
g38
I2244200496
sg32
VWeaponDrop
p1963
sg180
I0
sg44
(lp1964
I2758383128
asg35
VPT2M10.0970197S
p1965
sg183
I0
sg184
VP0DT0H0M0.1833S
p1966
sg39
(dp1967
g41
VTL Danoxide
p1968
sg43
Nssa(dp1969
g32
VImpulse
p1970
sg39
(dp1971
g41
VTL Danoxide
p1972
sg43
Nssg280
I3435524855
sg35
VPT2M10.1120358S
p1973
sa(dp1974
g38
I313138863
sg39
(dp1975
g41
VTL Spartan HCS
p1976
sg43
Nssg44
(lp1977
I1095363701
asg32
VWeaponPickup
p1978
sg35
VPT2M11.7970862S
p1979
sa(dp1980
g38
I4096745987
sg39
(dp1981
g41
VTL Spartan HCS
p1982
sg43
Nssg44
(lp1983
I2758383128
asg32
VWeaponPickup
p1984
sg35
VPT2M11.7970862S
p1985
sa(dp1986
g32
VPlayerSpawn
p1987
sg39
(dp1988
g41
VTL Spartan HCS
p1989
sg43
Nssg35
VPT2M11.7970862S
p1990
sa(dp1991
g38
I313138863
sg39
(dp1992
g41
VnV Mikwen HCS
p1993
sg43
Nssg44
(lp1994
I1095363701
asg32
VWeaponPickup
p1995
sg35
VPT2M12.6312579S
p1996
sa(dp1997
g38
I4096745987
sg39
(dp1998
g41
VnV Mikwen HCS
p1999
sg43
Nssg44
(lp2000
I2758383128
asg32
VWeaponPickup
p2001
sg35
VPT2M12.6312579S
p2002
sa(dp2003
g32
VPlayerSpawn
p2004
sg39
(dp2005
g41
VnV Mikwen HCS
p2006
sg43
Nssg35
VPT2M12.6312579S
p2007
sa(dp2008
g38
I313138863
sg39
(dp2009
g41
VnV Pistola HCS
p2010
sg43
Nssg44
(lp2011
I1095363701
asg32
VWeaponPickup
p2012
sg35
VPT2M14.564193S
p2013
sa(dp2014
g38
I4096745987
sg39
(dp2015
g41
VnV Pistola HCS
p2016
sg43
Nssg44
(lp2017
I2758383128
asg32
VWeaponPickup
p2018
sg35
VPT2M14.564193S
p2019
sa(dp2020
g32
VPlayerSpawn
p2021
sg39
(dp2022
g41
VnV Pistola HCS
p2023
sg43
Nssg35
VPT2M14.564193S
p2024
sa(dp2025
g201
I4108759423
sg202
I00
sg203
I00
sg204
(dp2026
g41
VTL StelluR
p2027
sg43
Nssg207
(lp2028
I2758383128
asg209
I00
sg210
I01
sg211
I1
sg212
I0
sg213
I1
sg214
(dp2029
Vy
F12.792290700000001
sVx
F-12.633373300000001
sVz
F1.99762654
ssg216
(dp2030
Vy
F15.0498981
sVx
F-2.46367884
sVz
F2.7153832900000001
ssg218
I00
sg219
(dp2031
g41
VnV RayneHCS
p2032
sg43
Nssg222
(lp2033
sg224
(lp2034
sg228
I01
sg35
VPT2M14.6291964S
p2035
sg32
VDeath
p2036
sg231
I1
sa(dp2037
g32
VMedal
p2038
sg39
(dp2039
g41
VTL StelluR
p2040
sg43
Nssg236
I3261908037
sg35
VPT2M14.6311707S
p2041
sa(dp2042
g38
I313138863
sg32
VWeaponDrop
p2043
sg180
I0
sg44
(lp2044
I1095363701
asg35
VPT2M14.6321955S
p2045
sg183
I0
sg184
VP0DT0H0M1.4167S
p2046
sg39
(dp2047
g41
VnV RayneHCS
p2048
sg43
Nssa(dp2049
g38
I4096745987
sg32
VWeaponDrop
p2050
sg180
I8
sg44
(lp2051
I2758383128
asg35
VPT2M14.6321955S
p2052
sg183
I7
sg184
VP0DT0H0M6.0833S
p2053
sg39
(dp2054
g41
VnV RayneHCS
p2055
sg43
Nssa(dp2056
g201
I4096745987
sg202
I00
sg203
I00
sg204
(dp2057
g41
VnV eL ToWn
p2058
sg43
Nssg207
(lp2059
I2758383128
asg209
I00
sg210
I01
sg211
I1
sg212
I0
sg213
I1
sg214
(dp2060
Vy
F14.0997734
sVx
F-1.2182716099999999
sVz
F2.5953595599999999
ssg216
(dp2061
Vy
F12.0971174
sVx
F-12.766660699999999
sVz
F2.26546621
ssg218
I00
sg219
(dp2062
g41
VTL StelluR
p2063
sg43
Nssg222
(lp2064
sg224
(lp2065
(dp2066
g41
VnV RayneHCS
p2067
sg43
Nsasg228
I01
sg35
VPT2M14.9461841S
p2068
sg32
VDeath
p2069
sg231
I1
sa(dp2070
g32
VMedal
p2071
sg39
(dp2072
g41
VnV eL ToWn
p2073
sg43
Nssg236
I3261908037
sg35
VPT2M14.9482075S
p2074
sa(dp2075
g38
I2670072722
sg32
VWeaponDrop
p2076
sg180
I3
sg44
(lp2077
I2758383128
asg35
VPT2M14.9482075S
p2078
sg183
I2
sg184
VP0DT0H0M9.0000S
p2079
sg39
(dp2080
g41
VTL StelluR
p2081
sg43
Nssa(dp2082
g38
I4108759423
sg32
VWeaponDrop
p2083
sg180
I24
sg44
(lp2084
I2758383128
asg35
VPT2M14.9482075S
p2085
sg183
I17
sg184
VP0DT0H0M13.4500S
p2086
sg39
(dp2087
g41
VTL StelluR
p2088
sg43
Nssa(dp2089
g38
I313138863
sg39
(dp2090
g41
VTL Danoxide
p2091
sg43
Nssg44
(lp2092
I1095363701
asg32
VWeaponPickup
p2093
sg35
VPT2M18.1133386S
p2094
sa(dp2095
g38
I4096745987
sg39
(dp2096
g41
VTL Danoxide
p2097
sg43
Nssg44
(lp2098
I2758383128
asg32
VWeaponPickup
p2099
sg35
VPT2M18.1143061S
p2100
sa(dp2101
g32
VPlayerSpawn
p2102
sg39
(dp2103
g41
VTL Danoxide
p2104
sg43
Nssg35
VPT2M18.1143061S
p2105
sa(dp2106
g201
I4096745987
sg202
I00
sg203
I00
sg204
(dp2107
g41
VnV eL ToWn
p2108
sg43
Nssg207
(lp2109
I2758383128
asg209
I00
sg210
I01
sg211
I1
sg212
I0
sg213
I1
sg214
(dp2110
Vy
F15.9430332
sVx
F-5.52147436
sVz
F2.8773430000000002
ssg216
(dp2111
Vy
F10.982233000000001
sVx
F-6.2171435400000004
sVz
F2.0006849999999998
ssg218
I00
sg219
(dp2112
g41
VLiquid Eco
p2113
sg43
Nssg222
(lp2114
sg224
(lp2115
(dp2116
g41
VnV Mikwen HCS
p2117
sg43
Nsasg228
I01
sg35
VPT2M18.7963314S
p2118
sg32
VDeath
p2119
sg231
I1
sa(dp2120
g32
VMedal
p2121
sg39
(dp2122
g41
VnV eL ToWn
p2123
sg43
Nssg236
I164204247
sg35
VPT2M18.7983579S
p2124
sa(dp2125
g32
VMedal
p2126
sg39
(dp2127
g41
VnV eL ToWn
p2128
sg43
Nssg236
I3261908037
sg35
VPT2M18.7983579S
p2129
sa(dp2130
g32
VMedal
p2131
sg39
(dp2132
g41
VnV eL ToWn
p2133
sg43
Nssg236
I2078758684
sg35
VPT2M18.7983579S
p2134
sa(dp2135
g38
I2133511419
sg32
VWeaponDrop
p2136
sg180
I20
sg44
(lp2137
I2758383128
asg35
VPT2M18.7983579S
p2138
sg183
I10
sg184
VP0DT0H0M8.7500S
p2139
sg39
(dp2140
g41
VLiquid Eco
p2141
sg43
Nssa(dp2142
g38
I4096745987
sg32
VWeaponDrop
p2143
sg180
I22
sg44
(lp2144
I2758383128
asg35
VPT2M18.7983579S
p2145
sg183
I10
sg184
VP0DT0H0M29.2500S
p2146
sg39
(dp2147
g41
VLiquid Eco
p2148
sg43
Nssa(dp2149
g38
I313138863
sg32
VWeaponDrop
p2150
sg180
I0
sg44
(lp2151
I1095363701
asg35
VPT2M19.5284003S
p2152
sg183
I0
sg184
VP0DT0H0M2.2500S
p2153
sg39
(dp2154
g41
VTL Spartan HCS
p2155
sg43
Nssa(dp2156
g38
I2670072722
sg39
(dp2157
g41
VTL Spartan HCS
p2158
sg43
Nssg44
(lp2159
I2758383128
asg32
VWeaponPickupPad
p2160
sg35
VPT2M19.5284003S
p2161
sa(dp2162
g38
I2670072722
sg39
(dp2163
g41
VTL Spartan HCS
p2164
sg43
Nssg44
(lp2165
I2758383128
asg32
VWeaponPickup
p2166
sg35
VPT2M19.5284003S
p2167
sa(dp2168
g32
VMedal
p2169
sg39
(dp2170
g41
VnV eL ToWn
p2171
sg43
Nssg236
I3400287617
sg35
VPT2M21.1284234S
p2172
sa(dp2173
g38
I313138863
sg39
(dp2174
g41
VnV RayneHCS
p2175
sg43
Nssg44
(lp2176
I1095363701
asg32
VWeaponPickup
p2177
sg35
VPT2M22.6464905S
p2178
sa(dp2179
g38
I4096745987
sg39
(dp2180
g41
VnV RayneHCS
p2181
sg43
Nssg44
(lp2182
I2758383128
asg32
VWeaponPickup
p2183
sg35
VPT2M22.6475045S
p2184
sa(dp2185
g32
VPlayerSpawn
p2186
sg39
(dp2187
g41
VnV RayneHCS
p2188
sg43
Nssg35
VPT2M22.6475045S
p2189
sa(dp2190
g38
I313138863
sg39
(dp2191
g41
VTL StelluR
p2192
sg43
Nssg44
(lp2193
I1095363701
asg32
VWeaponPickup
p2194
sg35
VPT2M22.9634924S
p2195
sa(dp2196
g38
I4096745987
sg39
(dp2197
g41
VTL StelluR
p2198
sg43
Nssg44
(lp2199
I2758383128
asg32
VWeaponPickup
p2200
sg35
VPT2M22.9634924S
p2201
sa(dp2202
g32
VPlayerSpawn
p2203
sg39
(dp2204
g41
VTL StelluR
p2205
sg43
Nssg35
VPT2M22.9634924S
p2206
sa(dp2207
g201
I4096745987
sg202
I00
sg203
I00
sg204
(dp2208
g41
VnV Pistola HCS
p2209
sg43
Nssg207
(lp2210
I2758383128
asg209
I00
sg210
I01
sg211
I1
sg212
I0
sg213
I1
sg214
(dp2211
Vy
F-1.66153193
sVx
F2.2365396
sVz
F4.3496519999999999
ssg216
(dp2212
Vy
F2.966215
sVx
F-5.0841836899999997
sVz
F3.1226434699999999
ssg218
I00
sg219
(dp2213
g41
VTL Spartan HCS
p2214
sg43
Nssg222
(lp2215
sg224
(lp2216
(dp2217
g41
VnV eL ToWn
p2218
sg43
Nsasg228
I01
sg35
VPT2M23.6965196S
p2219
sg32
VDeath
p2220
sg231
I1
sa(dp2221
g32
VMedal
p2222
sg39
(dp2223
g41
VnV Pistola HCS
p2224
sg43
Nssg236
I3261908037
sg35
VPT2M23.6985245S
p2225
sa(dp2226
g38
I2670072722
sg32
VWeaponDrop
p2227
sg180
I2
sg44
(lp2228
I2758383128
asg35
VPT2M23.6995441S
p2229
sg183
I1
sg184
VP0DT0H0M4.1667S
p2230
sg39
(dp2231
g41
VTL Spartan HCS
p2232
sg43
Nssa(dp2233
g38
I4096745987
sg32
VWeaponDrop
p2234
sg180
I0
sg44
(lp2235
I2758383128
asg35
VPT2M23.6995441S
p2236
sg183
I0
sg184
VP0DT0H0M5.4833S
p2237
sg39
(dp2238
g41
VTL Spartan HCS
p2239
sg43
Nssa(dp2240
g38
I313138863
sg32
VWeaponDrop
p2241
sg180
I0
sg44
(lp2242
I1095363701
asg35
VPT2M26.4946266S
p2243
sg183
I0
sg184
VP0DT0H0M2.6167S
p2244
sg39
(dp2245
g41
VTL StelluR
p2246
sg43
Nssa(dp2247
g38
I2133511419
sg39
(dp2248
g41
VTL StelluR
p2249
sg43
Nssg44
(lp2250
I2758383128
asg32
VWeaponPickup
p2251
sg35
VPT2M26.4956261S
p2252
sa(dp2253
g38
I313138863
sg39
(dp2254
g41
VLiquid Eco
p2255
sg43
Nssg44
(lp2256
I1095363701
asg32
VWeaponPickup
p2257
sg35
VPT2M26.813664S
p2258
sa(dp2259
g38
I4096745987
sg39
(dp2260
g41
VLiquid Eco
p2261
sg43
Nssg44
(lp2262
I2758383128
asg32
VWeaponPickup
p2263
sg35
VPT2M26.813664S
p2264
sa(dp2265
g32
VPlayerSpawn
p2266
sg39
(dp2267
g41
VLiquid Eco
p2268
sg43
Nssg35
VPT2M26.813664S
p2269
sa(dp2270
g32
VMedal
p2271
sg39
(dp2272
g41
VnV eL ToWn
p2273
sg43
Nssg236
I3400287617
sg35
VPT2M26.9616678S
p2274
sa(dp2275
g32
VMedal
p2276
sg39
(dp2277
g41
VnV eL ToWn
p2278
sg43
Nssg236
I2380717523
sg35
VPT2M27.0636716S
p2279
sa(dp2280
g32
VImpulse
p2281
sg39
(dp2282
g41
VnV eL ToWn
p2283
sg43
Nssg280
I1063951891
sg35
VPT2M27.0636716S
p2284
sa(dp2285
g38
I4096745987
sg32
VWeaponDrop
p2286
sg180
I15
sg44
(lp2287
I2758383128
asg35
VPT2M27.4116969S
p2288
sg183
I6
sg184
VP0DT0H0M16.5000S
p2289
sg39
(dp2290
g41
VnV eL ToWn
p2291
sg43
Nssa(dp2292
g38
I424645655
sg39
(dp2293
g41
VnV eL ToWn
p2294
sg43
Nssg44
(lp2295
I1327094800
asg32
VWeaponPickup
p2296
sg35
VPT2M27.4116969S
p2297
sa(dp2298
g38
I313138863
sg32
VWeaponDrop
p2299
sg180
I0
sg44
(lp2300
I1095363701
asg35
VPT2M27.4946978S
p2301
sg183
I0
sg184
VP0DT0H0M1.5167S
p2302
sg39
(dp2303
g41
VnV Pistola HCS
p2304
sg43
Nssa(dp2305
g38
I2670072722
sg39
(dp2306
g41
VnV Pistola HCS
p2307
sg43
Nssg44
(lp2308
I2758383128
asg32
VWeaponPickup
p2309
sg35
VPT2M27.4956665S
p2310
sa(dp2311
g38
I4096745987
sg32
VWeaponDrop
p2312
sg180
I5
sg44
(lp2313
I2758383128
asg35
VPT2M29.4287406S
p2314
sg183
I2
sg184
VP0DT0H0M13.5000S
p2315
sg39
(dp2316
g41
VnV Mikwen HCS
p2317
sg43
Nssa(dp2318
g38
I424645655
sg39
(dp2319
g41
VnV Mikwen HCS
p2320
sg43
Nssg44
(lp2321
I1327094800
asg32
VWeaponPickup
p2322
sg35
VPT2M29.4287406S
p2323
sa(dp2324
g201
I4096745987
sg202
I00
sg203
I00
sg204
(dp2325
g41
VTL StelluR
p2326
sg43
Nssg207
(lp2327
I2758383128
asg209
I00
sg210
I01
sg211
I1
sg212
I0
sg213
I1
sg214
(dp2328
Vy
F-10.549901
sVx
F-4.0997834199999996
sVz
F-0.091683894399999993
ssg216
(dp2329
Vy
F1.6958930000000001
sVx
F-13.8438015
sVz
F4.3213090000000003
ssg218
I00
sg219
(dp2330
g41
VnV Mikwen HCS
p2331
sg43
Nssg222
(lp2332
sg224
(lp2333
(dp2334
g41
VTL Danoxide
p2335
sg43
Nsasg228
I00
sg35
VPT2M30.629786S
p2336
sg32
VDeath
p2337
sg231
I1
sa(dp2338
g32
VMedal
p2339
sg39
(dp2340
g41
VTL StelluR
p2341
sg43
Nssg236
I352859864
sg35
VPT2M30.629786S
p2342
sa(dp2343
g32
VImpulse
p2344
sg39
(dp2345
g41
VTL StelluR
p2346
sg43
Nssg280
I2556889090
sg35
VPT2M30.629786S
p2347
sa(dp2348
g38
I313138863
sg32
VWeaponDrop
p2349
sg180
I16
sg44
(lp2350
I1095363701
asg35
VPT2M30.6317864S
p2351
sg183
I7
sg184
VP0DT0H0M3.3000S
p2352
sg39
(dp2353
g41
VnV Mikwen HCS
p2354
sg43
Nssa(dp2355
g38
I424645655
sg32
VWeaponDrop
p2356
sg180
I0
sg44
(lp2357
I1327094800
asg35
VPT2M30.6317864S
p2358
sg183
I0
sg184
VP0DT0H0M1.2000S
p2359
sg39
(dp2360
g41
VnV Mikwen HCS
p2361
sg43
Nssa(dp2362
g201
I4096745987
sg202
I00
sg203
I00
sg204
(dp2363
g41
VnV Pistola HCS
p2364
sg43
Nssg207
(lp2365
I2758383128
asg209
I00
sg210
I01
sg211
I1
sg212
I0
sg213
I1
sg214
(dp2366
Vy
F-1.44430149
sVx
F-7.8390674599999999
sVz
F3.1245071900000001
ssg216
(dp2367
Vy
F-4.7748603799999998
sVx
F-17.8672714
sVz
F2.9844119999999998
ssg218
I00
sg219
(dp2368
g41
VTL Danoxide
p2369
sg43
Nssg222
(lp2370
sg224
(lp2371
sg228
I01
sg35
VPT2M30.9127972S
p2372
sg32
VDeath
p2373
sg231
I1
sa(dp2374
g32
VMedal
p2375
sg39
(dp2376
g41
VnV Pistola HCS
p2377
sg43
Nssg236
I3261908037
sg35
VPT2M30.9138148S
p2378
sa(dp2379
g38
I4096745987
sg32
VWeaponDrop
p2380
sg180
I6
sg44
(lp2381
I2758383128
asg35
VPT2M30.9148162S
p2382
sg183
I4
sg184
VP0DT0H0M12.3500S
p2383
sg39
(dp2384
g41
VTL Danoxide
p2385
sg43
Nssa(dp2386
g38
I313138863
sg32
VWeaponDrop
p2387
sg180
I0
sg44
(lp2388
I1095363701
asg35
VPT2M30.9148162S
p2389
sg183
I0
sg184
VP0DT0H0M0.4500S
p2390
sg39
(dp2391
g41
VTL Danoxide
p2392
sg43
Nssa(dp2393
g38
I313138863
sg39
(dp2394
g41
VTL Spartan HCS
p2395
sg43
Nssg44
(lp2396
I1095363701
asg32
VWeaponPickup
p2397
sg35
VPT2M31.7128284S
p2398
sa(dp2399
g38
I4096745987
sg39
(dp2400
g41
VTL Spartan HCS
p2401
sg43
Nssg44
(lp2402
I2758383128
asg32
VWeaponPickup
p2403
sg35
VPT2M31.7138508S
p2404
sa(dp2405
g32
VPlayerSpawn
p2406
sg39
(dp2407
g41
VTL Spartan HCS
p2408
sg43
Nssg35
VPT2M31.7138508S
p2409
sa(dp2410
g201
I2670072722
sg202
I00
sg203
I00
sg204
(dp2411
g41
VnV Pistola HCS
p2412
sg43
Nssg207
(lp2413
I2758383128
asg209
I00
sg210
I01
sg211
I1
sg212
I0
sg213
I1
sg214
(dp2414
Vy
F-2.1974719999999999
sVx
F-7.2071949999999996
sVz
F3.81714463
ssg216
(dp2415
Vy
F-10.770448699999999
sVx
F-4.2829103499999999
sVz
F2.0006849999999998
ssg218
I00
sg219
(dp2416
g41
VLiquid Eco
p2417
sg43
Nssg222
(lp2418
sg224
(lp2419
sg228
I00
sg35
VPT2M32.9628763S
p2420
sg32
VDeath
p2421
sg231
I1
sa(dp2422
g32
VMedal
p2423
sg39
(dp2424
g41
VnV Pistola HCS
p2425
sg43
Nssg236
I2078758684
sg35
VPT2M32.9638941S
p2426
sa(dp2427
g38
I313138863
sg32
VWeaponDrop
p2428
sg180
I0
sg44
(lp2429
I1095363701
asg35
VPT2M32.9638941S
p2430
sg183
I0
sg184
VP0DT0H0M1.0333S
p2431
sg39
(dp2432
g41
VLiquid Eco
p2433
sg43
Nssa(dp2434
g38
I4096745987
sg32
VWeaponDrop
p2435
sg180
I2
sg44
(lp2436
I2758383128
asg35
VPT2M32.9638941S
p2437
sg183
I1
sg184
VP0DT0H0M5.1167S
p2438
sg39
(dp2439
g41
VLiquid Eco
p2440
sg43
Nssa(dp2441
g201
I4096745987
sg202
I00
sg203
I00
sg204
(dp2442
g41
VTL Spartan HCS
p2443
sg43
Nssg207
(lp2444
I2758383128
asg209
I00
sg210
I01
sg211
I1
sg212
I0
sg213
I1
sg214
(dp2445
Vy
F-5.9511804599999998
sVx
F-18.013803500000002
sVz
F2.05024052
ssg216
(dp2446
Vy
F-1.129653
sVx
F-7.7618390000000002
sVz
F3.12451363
ssg218
I00
sg219
(dp2447
g41
VnV Pistola HCS
p2448
sg43
Nssg222
(lp2449
sg224
(lp2450
(dp2451
g41
VTL Danoxide
p2452
sg43
Nsasg228
I01
sg35
VPT2M34.5959632S
p2453
sg32
VDeath
p2454
sg231
I1
sa(dp2455
g32
VMedal
p2456
sg39
(dp2457
g41
VTL Spartan HCS
p2458
sg43
Nssg236
I3261908037
sg35
VPT2M34.5979611S
p2459
sa(dp2460
g38
I2670072722
sg32
VWeaponDrop
p2461
sg180
I1
sg44
(lp2462
I2758383128
asg35
VPT2M34.598962S
p2463
sg183
I1
sg184
VP0DT0H0M2.9333S
p2464
sg39
(dp2465
g41
VnV Pistola HCS
p2466
sg43
Nssa(dp2467
g38
I4096745987
sg32
VWeaponDrop
p2468
sg180
I9
sg44
(lp2469
I2758383128
asg35
VPT2M34.598962S
p2470
sg183
I5
sg184
VP0DT0H0M15.5833S
p2471
sg39
(dp2472
g41
VnV Pistola HCS
p2473
sg43
Nssa(dp2474
g38
I2244200496
sg39
(dp2475
g41
VnV RayneHCS
p2476
sg43
Nssg44
(lp2477
I2758383128
asg32
VWeaponPickup
p2478
sg35
VPT2M36.5450382S
p2479
sa(dp2480
g32
VImpulse
p2481
sg39
(dp2482
g41
VnV RayneHCS
p2483
sg43
Nssg280
I4191318012
sg35
VPT2M36.5460136S
p2484
sa(dp2485
g32
VImpulse
p2486
sg39
(dp2487
g41
VnV RayneHCS
p2488
sg43
Nssg280
I1039658009
sg35
VPT2M36.5460136S
p2489
sa(dp2490
g38
I2492868984
sg39
(dp2491
g41
VnV eL ToWn
p2492
sg43
Nssg44
(lp2493
I2758383128
asg32
VWeaponPickup
p2494
sg35
VPT2M37.1120354S
p2495
sa(dp2496
g201
I313138863
sg202
I00
sg203
I01
sg204
(dp2497
g41
VTL Spartan HCS
p2498
sg43
Nssg207
(lp2499
I1095363701
asg209
I00
sg210
I00
sg211
I1
sg212
I0
sg213
I1
sg214
(dp2500
Vy
F-0.22233153899999999
sVx
F-15.082653000000001
sVz
F-0.182641044
ssg216
(dp2501
Vy
F0.39526593700000001
sVx
F-14.947016700000001
sVz
F-0.178522721
ssg218
I00
sg219
(dp2502
g41
VnV eL ToWn
p2503
sg43
Nssg222
(lp2504
sg224
(lp2505
(dp2506
g41
VTL StelluR
p2507
sg43
Nsasg228
I00
sg35
VPT2M37.4130466S
p2508
sg32
VDeath
p2509
sg231
I1
sa(dp2510
g32
VMedal
p2511
sg39
(dp2512
g41
VTL Spartan HCS
p2513
sg43
Nssg236
I2287626681
sg35
VPT2M37.414073S
p2514
sa(dp2515
g32
VMedal
p2516
sg39
(dp2517
g41
VTL Spartan HCS
p2518
sg43
Nssg236
I2078758684
sg35
VPT2M37.414073S
p2519
sa(dp2520
g38
I2492868984
sg32
VWeaponDrop
p2521
sg180
I0
sg44
(lp2522
I2758383128
asg35
VPT2M37.414073S
p2523
sg183
I0
sg184
VP0DT0H0M0.1167S
p2524
sg39
(dp2525
g41
VnV eL ToWn
p2526
sg43
Nssa(dp2527
g38
I313138863
sg32
VWeaponDrop
p2528
sg180
I0
sg44
(lp2529
I1095363701
asg35
VPT2M37.4150469S
p2530
sg183
I0
sg184
VP0DT0H0M1.0333S
p2531
sg39
(dp2532
g41
VnV eL ToWn
p2533
sg43
Nssa(dp2534
g38
I424645655
sg32
VWeaponDrop
p2535
sg180
I6
sg44
(lp2536
I1327094800
asg35
VPT2M37.4150469S
p2537
sg183
I2
sg184
VP0DT0H0M9.6833S
p2538
sg39
(dp2539
g41
VnV eL ToWn
p2540
sg43
Nssa(dp2541
g38
I313138863
sg32
VWeaponDrop
p2542
sg180
I12
sg44
(lp2543
I1095363701
asg35
VPT2M37.7620603S
p2544
sg183
I10
sg184
VP0DT0H0M3.2500S
p2545
sg39
(dp2546
g41
VTL Spartan HCS
p2547
sg43
Nssa(dp2548
g38
I313138863
sg32
VWeaponDrop
p2549
sg180
I0
sg44
(lp2550
I1095363701
asg35
VPT2M37.7620603S
p2551
sg183
I0
sg184
VP0DT0S
p2552
sg39
(dp2553
g41
VTL Spartan HCS
p2554
sg43
Nssa(dp2555
g38
I424645655
sg39
(dp2556
g41
VTL Spartan HCS
p2557
sg43
Nssg44
(lp2558
I1327094800
asg32
VWeaponPickup
p2559
sg35
VPT2M37.7620603S
p2560
sa(dp2561
g38
I313138863
sg39
(dp2562
g41
VnV Mikwen HCS
p2563
sg43
Nssg44
(lp2564
I1095363701
asg32
VWeaponPickup
p2565
sg35
VPT2M38.6471185S
p2566
sa(dp2567
g38
I4096745987
sg39
(dp2568
g41
VnV Mikwen HCS
p2569
sg43
Nssg44
(lp2570
I2758383128
asg32
VWeaponPickup
p2571
sg35
VPT2M38.6471185S
p2572
sa(dp2573
g32
VPlayerSpawn
p2574
sg39
(dp2575
g41
VnV Mikwen HCS
p2576
sg43
Nssg35
VPT2M38.6471185S
p2577
sa(dp2578
g38
I313138863
sg39
(dp2579
g41
VTL Danoxide
p2580
sg43
Nssg44
(lp2581
I1095363701
asg32
VWeaponPickup
p2582
sg35
VPT2M38.9311052S
p2583
sa(dp2584
g38
I4096745987
sg39
(dp2585
g41
VTL Danoxide
p2586
sg43
Nssg44
(lp2587
I2758383128
asg32
VWeaponPickup
p2588
sg35
VPT2M38.9311052S
p2589
sa(dp2590
g32
VPlayerSpawn
p2591
sg39
(dp2592
g41
VTL Danoxide
p2593
sg43
Nssg35
VPT2M38.9311052S
p2594
sa(dp2595
g38
I2244200496
sg32
VWeaponDrop
p2596
sg180
I6
sg44
(lp2597
I2758383128
asg35
VPT2M39.3781324S
p2598
sg183
I2
sg184
VP0DT0H0M2.6667S
p2599
sg39
(dp2600
g41
VnV RayneHCS
p2601
sg43
Nssa(dp2602
g32
VImpulse
p2603
sg39
(dp2604
g41
VnV RayneHCS
p2605
sg43
Nssg280
I3435524855
sg35
VPT2M39.3791446S
p2606
sa(dp2607
g38
I313138863
sg39
(dp2608
g41
VLiquid Eco
p2609
sg43
Nssg44
(lp2610
I1095363701
asg32
VWeaponPickup
p2611
sg35
VPT2M40.9802091S
p2612
sa(dp2613
g38
I4096745987
sg39
(dp2614
g41
VLiquid Eco
p2615
sg43
Nssg44
(lp2616
I2758383128
asg32
VWeaponPickup
p2617
sg35
VPT2M40.9802091S
p2618
sa(dp2619
g32
VPlayerSpawn
p2620
sg39
(dp2621
g41
VLiquid Eco
p2622
sg43
Nssg35
VPT2M40.9802091S
p2623
sa(dp2624
g38
I313138863
sg39
(dp2625
g41
VnV Pistola HCS
p2626
sg43
Nssg44
(lp2627
I1095363701
asg32
VWeaponPickup
p2628
sg35
VPT2M42.614273S
p2629
sa(dp2630
g38
I4096745987
sg39
(dp2631
g41
VnV Pistola HCS
p2632
sg43
Nssg44
(lp2633
I2758383128
asg32
VWeaponPickup
p2634
sg35
VPT2M42.614273S
p2635
sa(dp2636
g32
VPlayerSpawn
p2637
sg39
(dp2638
g41
VnV Pistola HCS
p2639
sg43
Nssg35
VPT2M42.614273S
p2640
sa(dp2641
g38
I4096745987
sg32
VWeaponDrop
p2642
sg180
I0
sg44
(lp2643
I2758383128
asg35
VPT2M44.2953209S
p2644
sg183
I0
sg184
VP0DT0H0M4.9000S
p2645
sg39
(dp2646
g41
VTL Danoxide
p2647
sg43
Nssa(dp2648
g38
I4108759423
sg39
(dp2649
g41
VTL Danoxide
p2650
sg43
Nssg44
(lp2651
I2758383128
asg32
VWeaponPickup
p2652
sg35
VPT2M44.2953209S
p2653
sa(dp2654
g38
I313138863
sg32
VWeaponDrop
p2655
sg180
I0
sg44
(lp2656
I1095363701
asg35
VPT2M44.4113419S
p2657
sg183
I0
sg184
VP0DT0H0M1.2333S
p2658
sg39
(dp2659
g41
VnV Pistola HCS
p2660
sg43
Nssa(dp2661
g38
I2133511419
sg39
(dp2662
g41
VnV Pistola HCS
p2663
sg43
Nssg44
(lp2664
I2758383128
asg32
VWeaponPickup
p2665
sg35
VPT2M44.4123389S
p2666
sa(dp2667
g38
I313138863
sg39
(dp2668
g41
VnV eL ToWn
p2669
sg43
Nssg44
(lp2670
I1095363701
asg32
VWeaponPickup
p2671
sg35
VPT2M45.4303605S
p2672
sa(dp2673
g38
I4096745987
sg39
(dp2674
g41
VnV eL ToWn
p2675
sg43
Nssg44
(lp2676
I2758383128
asg32
VWeaponPickup
p2677
sg35
VPT2M45.4303605S
p2678
sa(dp2679
g32
VPlayerSpawn
p2680
sg39
(dp2681
g41
VnV eL ToWn
p2682
sg43
Nssg35
VPT2M45.4303605S
p2683
sa(dp2684
g32
VMedal
p2685
sg39
(dp2686
g41
VTL Spartan HCS
p2687
sg43
Nssg236
I2380717523
sg35
VPT2M47.0954192S
p2688
sa(dp2689
g32
VImpulse
p2690
sg39
(dp2691
g41
VTL Spartan HCS
p2692
sg43
Nssg280
I1063951891
sg35
VPT2M47.0954192S
p2693
sa(dp2694
g38
I313138863
sg32
VWeaponDrop
p2695
sg180
I0
sg44
(lp2696
I1095363701
asg35
VPT2M47.37843S
p2697
sg183
I0
sg184
VP0DT0H0M0.8667S
p2698
sg39
(dp2699
g41
VnV eL ToWn
p2700
sg43
Nssa(dp2701
g38
I2133511419
sg39
(dp2702
g41
VnV eL ToWn
p2703
sg43
Nssg44
(lp2704
I2758383128
asg32
VWeaponPickup
p2705
sg35
VPT2M47.37843S
p2706
sa(dp2707
g201
I4108759423
sg202
I00
sg203
I00
sg204
(dp2708
g41
VTL Danoxide
p2709
sg43
Nssg207
(lp2710
I2758383128
asg209
I00
sg210
I01
sg211
I1
sg212
I0
sg213
I1
sg214
(dp2711
Vy
F1.7082088
sVx
F3.3877640000000002
sVz
F3.80519366
ssg216
(dp2712
Vy
F-8.8863325100000008
sVx
F-2.1021109999999998
sVz
F3.7871096099999999
ssg218
I00
sg219
(dp2713
g41
VnV RayneHCS
p2714
sg43
Nssg222
(lp2715
sg224
(lp2716
sg228
I00
sg35
VPT2M47.4634327S
p2717
sg32
VDeath
p2718
sg231
I1
sa(dp2719
g38
I313138863
sg32
VWeaponDrop
p2720
sg180
I2
sg44
(lp2721
I1095363701
asg35
VPT2M47.4644565S
p2722
sg183
I1
sg184
VP0DT0H0M6.7833S
p2723
sg39
(dp2724
g41
VnV RayneHCS
p2725
sg43
Nssa(dp2726
g38
I4096745987
sg32
VWeaponDrop
p2727
sg180
I6
sg44
(lp2728
I2758383128
asg35
VPT2M47.4644565S
p2729
sg183
I2
sg184
VP0DT0H0M15.3667S
p2730
sg39
(dp2731
g41
VnV RayneHCS
p2732
sg43
Nssa(dp2733
g201
I313138863
sg202
I00
sg203
I01
sg204
(dp2734
g41
VnV Mikwen HCS
p2735
sg43
Nssg207
(lp2736
I1095363701
asg209
I00
sg210
I00
sg211
I1
sg212
I0
sg213
I1
sg214
(dp2737
Vy
F-4.7949323699999997
sVx
F-18.342662799999999
sVz
F2.7938122700000001
ssg216
(dp2738
Vy
F-5.1301509999999997
sVx
F-18.4307175
sVz
F2.5959430000000001
ssg218
I00
sg219
(dp2739
g41
VTL Spartan HCS
p2740
sg43
Nssg222
(lp2741
sg224
(lp2742
sg228
I00
sg35
VPT2M49.6635181S
p2743
sg32
VDeath
p2744
sg231
I1
sa(dp2745
g32
VMedal
p2746
sg39
(dp2747
g41
VnV Mikwen HCS
p2748
sg43
Nssg236
I250435527
sg35
VPT2M49.6645412S
p2749
sa(dp2750
g38
I424645655
sg32
VWeaponDrop
p2751
sg180
I12
sg44
(lp2752
I1327094800
asg35
VPT2M49.6645412S
p2753
sg183
I9
sg184
VP0DT0H0M10.6833S
p2754
sg39
(dp2755
g41
VTL Spartan HCS
p2756
sg43
Nssa(dp2757
g38
I424645655
sg32
VWeaponDrop
p2758
sg180
I0
sg44
(lp2759
I1327094800
asg35
VPT2M49.6645412S
p2760
sg183
I0
sg184
VP0DT0S
p2761
sg39
(dp2762
g41
VTL Spartan HCS
p2763
sg43
Nssa(dp2764
g38
I4096745987
sg32
VWeaponDrop
p2765
sg180
I4
sg44
(lp2766
I2758383128
asg35
VPT2M49.6655426S
p2767
sg183
I3
sg184
VP0DT0H0M4.0167S
p2768
sg39
(dp2769
g41
VTL Spartan HCS
p2770
sg43
Nssa(dp2771
g32
VMedal
p2772
sg39
(dp2773
g41
VnV Mikwen HCS
p2774
sg43
Nssg236
I3400287617
sg35
VPT2M53.6616973S
p2775
sa(dp2776
g38
I4096745987
sg32
VWeaponDrop
p2777
sg180
I4
sg44
(lp2778
I2758383128
asg35
VPT2M55.0447486S
p2779
sg183
I2
sg184
VP0DT0H0M11.2167S
p2780
sg39
(dp2781
g41
VnV Mikwen HCS
p2782
sg43
Nssa(dp2783
g38
I424645655
sg39
(dp2784
g41
VnV Mikwen HCS
p2785
sg43
Nssg44
(lp2786
I1327094800
asg32
VWeaponPickup
p2787
sg35
VPT2M55.0457485S
p2788
sa(dp2789
g38
I313138863
sg39
(dp2790
g41
VnV RayneHCS
p2791
sg43
Nssg44
(lp2792
I1095363701
asg32
VWeaponPickup
p2793
sg35
VPT2M55.4797414S
p2794
sa(dp2795
g38
I4096745987
sg39
(dp2796
g41
VnV RayneHCS
p2797
sg43
Nssg44
(lp2798
I2758383128
asg32
VWeaponPickup
p2799
sg35
VPT2M55.4807672S
p2800
sa(dp2801
g32
VPlayerSpawn
p2802
sg39
(dp2803
g41
VnV RayneHCS
p2804
sg43
Nssg35
VPT2M55.4807672S
p2805
sa(dp2806
g201
I4096745987
sg202
I00
sg203
I00
sg204
(dp2807
g41
VLiquid Eco
p2808
sg43
Nssg207
(lp2809
I2758383128
asg209
I00
sg210
I01
sg211
I1
sg212
I0
sg213
I1
sg214
(dp2810
Vy
F-4.0210375799999998
sVx
F7.0536894800000001
sVz
F3.1454393899999999
ssg216
(dp2811
Vy
F1.2454942499999999
sVx
F7.71208429
sVz
F4.1019350000000001
ssg218
I00
sg219
(dp2812
g41
VnV Pistola HCS
p2813
sg43
Nssg222
(lp2814
sg224
(lp2815
(dp2816
g41
VTL Danoxide
p2817
sg43
Nsasg228
I01
sg35
VPT2M55.94578S
p2818
sg32
VDeath
p2819
sg231
I1
sa(dp2820
g32
VMedal
p2821
sg39
(dp2822
g41
VLiquid Eco
p2823
sg43
Nssg236
I3261908037
sg35
VPT2M55.9477752S
p2824
sa(dp2825
g38
I2133511419
sg32
VWeaponDrop
p2826
sg180
I15
sg44
(lp2827
I2758383128
asg35
VPT2M55.9477752S
p2828
sg183
I9
sg184
VP0DT0H0M5.5333S
p2829
sg39
(dp2830
g41
VnV Pistola HCS
p2831
sg43
Nssa(dp2832
g38
I4096745987
sg32
VWeaponDrop
p2833
sg180
I0
sg44
(lp2834
I2758383128
asg35
VPT2M55.9477752S
p2835
sg183
I0
sg184
VP0DT0H0M6.5667S
p2836
sg39
(dp2837
g41
VnV Pistola HCS
p2838
sg43
Nssa(dp2839
g38
I313138863
sg39
(dp2840
g41
VTL Spartan HCS
p2841
sg43
Nssg44
(lp2842
I1095363701
asg32
VWeaponPickup
p2843
sg35
VPT2M57.6798262S
p2844
sa(dp2845
g38
I4096745987
sg39
(dp2846
g41
VTL Spartan HCS
p2847
sg43
Nssg44
(lp2848
I2758383128
asg32
VWeaponPickup
p2849
sg35
VPT2M57.6798262S
p2850
sa(dp2851
g32
VPlayerSpawn
p2852
sg39
(dp2853
g41
VTL Spartan HCS
p2854
sg43
Nssg35
VPT2M57.6808493S
p2855
sa(dp2856
g201
I2133511419
sg202
I00
sg203
I00
sg204
(dp2857
g41
VTL StelluR
p2858
sg43
Nssg207
(lp2859
I2758383128
asg209
I00
sg210
I01
sg211
I1
sg212
I0
sg213
I1
sg214
(dp2860
Vy
F-3.2399499999999999
sVx
F-19.910789999999999
sVz
F2.9808802600000002
ssg216
(dp2861
Vy
F-0.83766969999999996
sVx
F-15.7142439
sVz
F3.4162075500000002
ssg218
I00
sg219
(dp2862
g41
VnV Mikwen HCS
p2863
sg43
Nssg222
(lp2864
sg224
(lp2865
(dp2866
g41
VTL Danoxide
p2867
sg43
Nsasg228
I00
sg35
VPT2M59.7129024S
p2868
sg32
VDeath
p2869
sg231
I1
sa(dp2870
g38
I313138863
sg32
VWeaponDrop
p2871
sg180
I8
sg44
(lp2872
I1095363701
asg35
VPT2M59.7149034S
p2873
sg183
I7
sg184
VP0DT0H0M5.1833S
p2874
sg39
(dp2875
g41
VnV Mikwen HCS
p2876
sg43
Nssa(dp2877
g38
I313138863
sg32
VWeaponDrop
p2878
sg180
I0
sg44
(lp2879
I1095363701
asg35
VPT2M59.7149034S
p2880
sg183
I0
sg184
VP0DT0S
p2881
sg39
(dp2882
g41
VnV Mikwen HCS
p2883
sg43
Nssa(dp2884
g38
I424645655
sg32
VWeaponDrop
p2885
sg180
I12
sg44
(lp2886
I1327094800
asg35
VPT2M59.7149034S
p2887
sg183
I3
sg184
VP0DT0H0M4.6667S
p2888
sg39
(dp2889
g41
VnV Mikwen HCS
p2890
sg43
Nssa(dp2891
g32
VMedal
p2892
sg39
(dp2893
g41
VLiquid Eco
p2894
sg43
Nssg236
I3400287617
sg35
VPT2M59.99494S
p2895
sa(dp2896
g201
I4096745987
sg202
I00
sg203
I00
sg204
(dp2897
g41
VnV RayneHCS
p2898
sg43
Nssg207
(lp2899
I2758383128
asg209
I00
sg210
I01
sg211
I1
sg212
I0
sg213
I1
sg214
(dp2900
Vy
F16.112365700000002
sVx
F-3.1770601300000001
sVz
F2.0006847400000001
ssg216
(dp2901
Vy
F1.581688
sVx
F8.5068429999999999
sVz
F3.1352370000000001
ssg218
I00
sg219
(dp2902
g41
VTL Danoxide
p2903
sg43
Nssg222
(lp2904
sg224
(lp2905
(dp2906
g41
VnV Mikwen HCS
p2907
sg43
Nsasg228
I01
sg35
VPT3M0.079917S
p2908
sg32
VDeath
p2909
sg231
I1
sa(dp2910
g32
VMedal
p2911
sg39
(dp2912
g41
VnV RayneHCS
p2913
sg43
Nssg236
I3261908037
sg35
VPT3M0.0809194S
p2914
sa(dp2915
g38
I313138863
sg32
VWeaponDrop
p2916
sg180
I0
sg44
(lp2917
I1095363701
asg35
VPT3M0.0819381S
p2918
sg183
I0
sg184
VP0DT0H0M0.4667S
p2919
sg39
(dp2920
g41
VTL Danoxide
p2921
sg43
Nssa(dp2922
g38
I4108759423
sg32
VWeaponDrop
p2923
sg180
I26
sg44
(lp2924
I2758383128
asg35
VPT3M0.0819381S
p2925
sg183
I11
sg184
VP0DT0H0M15.7833S
p2926
sg39
(dp2927
g41
VTL Danoxide
p2928
sg43
Nssa(dp2929
g38
I313138863
sg39
(dp2930
g41
VnV Pistola HCS
p2931
sg43
Nssg44
(lp2932
I1095363701
asg32
VWeaponPickup
p2933
sg35
VPT3M3.9640854S
p2934
sa(dp2935
g38
I4096745987
sg39
(dp2936
g41
VnV Pistola HCS
p2937
sg43
Nssg44
(lp2938
I2758383128
asg32
VWeaponPickup
p2939
sg35
VPT3M3.9640854S
p2940
sa(dp2941
g32
VPlayerSpawn
p2942
sg39
(dp2943
g41
VnV Pistola HCS
p2944
sg43
Nssg35
VPT3M3.9640854S
p2945
sa(dp2946
g38
I313138863
sg32
VWeaponDrop
p2947
sg180
I0
sg44
(lp2948
I1095363701
asg35
VPT3M5.7121336S
p2949
sg183
I0
sg184
VP0DT0H0M0.8167S
p2950
sg39
(dp2951
g41
VLiquid Eco
p2952
sg43
Nssa(dp2953
g38
I2133511419
sg39
(dp2954
g41
VLiquid Eco
p2955
sg43
Nssg44
(lp2956
I2758383128
asg32
VWeaponPickup
p2957
sg35
VPT3M5.7121336S
p2958
sa(dp2959
g38
I4096745987
sg32
VWeaponDrop
p2960
sg180
I10
sg44
(lp2961
I2758383128
asg35
VPT3M6.4951769S
p2962
sg183
I6
sg184
VP0DT0H0M24.2667S
p2963
sg39
(dp2964
g41
VLiquid Eco
p2965
sg43
Nssa(dp2966
g38
I313138863
sg39
(dp2967
g41
VLiquid Eco
p2968
sg43
Nssg44
(lp2969
I1095363701
asg32
VWeaponPickup
p2970
sg35
VPT3M6.4951769S
p2971
sa(dp2972
g38
I313138863
sg39
(dp2973
g41
VnV Mikwen HCS
p2974
sg43
Nssg44
(lp2975
I1095363701
asg32
VWeaponPickup
p2976
sg35
VPT3M7.7302667S
p2977
sa(dp2978
g38
I4096745987
sg39
(dp2979
g41
VnV Mikwen HCS
p2980
sg43
Nssg44
(lp2981
I2758383128
asg32
VWeaponPickup
p2982
sg35
VPT3M7.7302667S
p2983
sa(dp2984
g32
VPlayerSpawn
p2985
sg39
(dp2986
g41
VnV Mikwen HCS
p2987
sg43
Nssg35
VPT3M7.7302667S
p2988
sa(dp2989
g38
I313138863
sg39
(dp2990
g41
VTL Danoxide
p2991
sg43
Nssg44
(lp2992
I1095363701
asg32
VWeaponPickup
p2993
sg35
VPT3M8.0972251S
p2994
sa(dp2995
g38
I4096745987
sg39
(dp2996
g41
VTL Danoxide
p2997
sg43
Nssg44
(lp2998
I2758383128
asg32
VWeaponPickup
p2999
sg35
VPT3M8.0972251S
p3000
sa(dp3001
g32
VPlayerSpawn
p3002
sg39
(dp3003
g41
VTL Danoxide
p3004
sg43
Nssg35
VPT3M8.0972251S
p3005
sa(dp3006
g38
I313138863
sg32
VWeaponDrop
p3007
sg180
I0
sg44
(lp3008
I1095363701
asg35
VPT3M8.1452475S
p3009
sg183
I0
sg184
VP0DT0H0M1.6500S
p3010
sg39
(dp3011
g41
VLiquid Eco
p3012
sg43
Nssa(dp3013
g38
I4108759423
sg39
(dp3014
g41
VLiquid Eco
p3015
sg43
Nssg44
(lp3016
I2758383128
asg32
VWeaponPickup
p3017
sg35
VPT3M8.1452475S
p3018
sa(dp3019
g201
I2133511419
sg202
I00
sg203
I00
sg204
(dp3020
g41
VnV eL ToWn
p3021
sg43
Nssg207
(lp3022
I2758383128
asg209
I00
sg210
I01
sg211
I1
sg212
I0
sg213
I1
sg214
(dp3023
Vy
F0.74942869999999995
sVx
F-18.0540466
sVz
F3.9347453099999998
ssg216
(dp3024
Vy
F0.89538549999999995
sVx
F-15.760438000000001
sVz
F3.7845067999999999
ssg218
I00
sg219
(dp3025
g41
VTL StelluR
p3026
sg43
Nssg222
(lp3027
sg224
(lp3028
(dp3029
g41
VnV RayneHCS
p3030
sg43
Nsasg228
I00
sg35
VPT3M9.6792853S
p3031
sg32
VDeath
p3032
sg231
I1
sa(dp3033
g38
I2133511419
sg32
VWeaponDrop
p3034
sg180
I15
sg44
(lp3035
I2758383128
asg35
VPT3M9.6813113S
p3036
sg183
I11
sg184
VP0DT0H0M12.0833S
p3037
sg39
(dp3038
g41
VTL StelluR
p3039
sg43
Nssa(dp3040
g38
I4096745987
sg32
VWeaponDrop
p3041
sg180
I18
sg44
(lp3042
I2758383128
asg35
VPT3M9.6813113S
p3043
sg183
I9
sg184
VP0DT0H0M32.0167S
p3044
sg39
(dp3045
g41
VTL StelluR
p3046
sg43
Nssa(dp3047
g38
I313138863
sg32
VWeaponDrop
p3048
sg180
I0
sg44
(lp3049
I1095363701
asg35
VPT3M9.845291S
p3050
sg183
I0
sg184
VP0DT0H0M1.0500S
p3051
sg39
(dp3052
g41
VnV Pistola HCS
p3053
sg43
Nssa(dp3054
g38
I2133511419
sg39
(dp3055
g41
VnV Pistola HCS
p3056
sg43
Nssg44
(lp3057
I2758383128
asg32
VWeaponPickup
p3058
sg35
VPT3M9.845291S
p3059
sa(dp3060
g201
I313138863
sg202
I00
sg203
I00
sg204
(dp3061
g41
VnV RayneHCS
p3062
sg43
Nssg207
(lp3063
I1095363701
asg209
I00
sg210
I01
sg211
I1
sg212
I0
sg213
I1
sg214
(dp3064
Vy
F8.8268240000000002
sVx
F-15.0156727
sVz
F1.6149934500000001
ssg216
(dp3065
Vy
F8.1959780000000002
sVx
F-13.454676600000001
sVz
F1.4464484500000001
ssg218
I00
sg219
(dp3066
g41
VTL Spartan HCS
p3067
sg43
Nssg222
(lp3068
sg224
(lp3069
(dp3070
g41
VnV Pistola HCS
p3071
sg43
Nsasg228
I00
sg35
VPT3M12.0793781S
p3072
sg32
VDeath
p3073
sg231
I1
sa(dp3074
g38
I313138863
sg32
VWeaponDrop
p3075
sg180
I8
sg44
(lp3076
I1095363701
asg35
VPT3M12.0814032S
p3077
sg183
I8
sg184
VP0DT0H0M5.7333S
p3078
sg39
(dp3079
g41
VTL Spartan HCS
p3080
sg43
Nssa(dp3081
g38
I4096745987
sg32
VWeaponDrop
p3082
sg180
I0
sg44
(lp3083
I2758383128
asg35
VPT3M12.0814032S
p3084
sg183
I0
sg184
VP0DT0H0M8.6667S
p3085
sg39
(dp3086
g41
VTL Spartan HCS
p3087
sg43
Nssa(dp3088
g38
I3190813201
sg32
VWeaponDrop
p3089
sg180
I11
sg44
(lp3090
sg35
VPT3M12.0823775S
p3091
sg183
I0
sg184
VPT0S
p3092
sg39
(dp3093
g41
VTL Spartan HCS
p3094
sg43
Nssa(dp3095
g38
I4096745987
sg32
VWeaponDrop
p3096
sg180
I0
sg44
(lp3097
I2758383128
asg35
VPT3M13.3454265S
p3098
sg183
I0
sg184
VP0DT0H0M4.5333S
p3099
sg39
(dp3100
g41
VTL Danoxide
p3101
sg43
Nssa(dp3102
g38
I4108759423
sg39
(dp3103
g41
VTL Danoxide
p3104
sg43
Nssg44
(lp3105
I2758383128
asg32
VWeaponPickup
p3106
sg35
VPT3M13.3454265S
p3107
sa(dp3108
g201
I4108759423
sg202
I00
sg203
I00
sg204
(dp3109
g41
VLiquid Eco
p3110
sg43
Nssg207
(lp3111
I2758383128
asg209
I00
sg210
I01
sg211
I1
sg212
I0
sg213
I1
sg214
(dp3112
Vy
F6.24294233
sVx
F9.3164739999999995
sVz
F3.0911550000000001
ssg216
(dp3113
Vy
F7.4532966600000004
sVx
F-18.918430000000001
sVz
F1.5790945300000001
ssg218
I00
sg219
(dp3114
g41
VnV RayneHCS
p3115
sg43
Nssg222
(lp3116
sg224
(lp3117
(dp3118
g41
VTL Spartan HCS
p3119
sg43
Nsasg228
I01
sg35
VPT3M14.1134568S
p3120
sg32
VDeath
p3121
sg231
I1
sa(dp3122
g32
VMedal
p3123
sg39
(dp3124
g41
VLiquid Eco
p3125
sg43
Nssg236
I3261908037
sg35
VPT3M14.114478S
p3126
sa(dp3127
g38
I313138863
sg32
VWeaponDrop
p3128
sg180
I11
sg44
(lp3129
I1095363701
asg35
VPT3M14.1154803S
p3130
sg183
I6
sg184
VP0DT0H0M5.1000S
p3131
sg39
(dp3132
g41
VnV RayneHCS
p3133
sg43
Nssa(dp3134
g38
I4096745987
sg32
VWeaponDrop
p3135
sg180
I8
sg44
(lp3136
I2758383128
asg35
VPT3M14.1154803S
p3137
sg183
I5
sg184
VP0DT0H0M13.5333S
p3138
sg39
(dp3139
g41
VnV RayneHCS
p3140
sg43
Nssa(dp3141
g201
I4108759423
sg202
I00
sg203
I00
sg204
(dp3142
g41
VTL Danoxide
p3143
sg43
Nssg207
(lp3144
I2758383128
asg209
I00
sg210
I01
sg211
I1
sg212
I0
sg213
I1
sg214
(dp3145
Vy
F1.13273168
sVx
F-2.6587073800000001
sVz
F3.1809663800000001
ssg216
(dp3146
Vy
F10.199011799999999
sVx
F-2.3079934099999999
sVz
F3.4280986800000002
ssg218
I00
sg219
(dp3147
g41
VnV Mikwen HCS
p3148
sg43
Nssg222
(lp3149
sg224
(lp3150
sg228
I01
sg35
VPT3M17.3465802S
p3151
sg32
VDeath
p3152
sg231
I1
sa(dp3153
g32
VImpulse
p3154
sg39
(dp3155
g41
VTL Danoxide
p3156
sg43
Nssg280
I3174430457
sg35
VPT3M17.3485807S
p3157
sa(dp3158
g32
VMedal
p3159
sg39
(dp3160
g41
VTL Danoxide
p3161
sg43
Nssg236
I3098362934
sg35
VPT3M17.3496029S
p3162
sa(dp3163
g38
I4096745987
sg32
VWeaponDrop
p3164
sg180
I7
sg44
(lp3165
I2758383128
asg35
VPT3M17.3506022S
p3166
sg183
I5
sg184
VP0DT0H0M6.0500S
p3167
sg39
(dp3168
g41
VnV Mikwen HCS
p3169
sg43
Nssa(dp3170
g38
I313138863
sg32
VWeaponDrop
p3171
sg180
I8
sg44
(lp3172
I1095363701
asg35
VPT3M17.3506022S
p3173
sg183
I1
sg184
VP0DT0H0M3.5667S
p3174
sg39
(dp3175
g41
VnV Mikwen HCS
p3176
sg43
Nssa(dp3177
g38
I313138863
sg39
(dp3178
g41
VTL StelluR
p3179
sg43
Nssg44
(lp3180
I1095363701
asg32
VWeaponPickup
p3181
sg35
VPT3M17.6966152S
p3182
sa(dp3183
g38
I4096745987
sg39
(dp3184
g41
VTL StelluR
p3185
sg43
Nssg44
(lp3186
I2758383128
asg32
VWeaponPickup
p3187
sg35
VPT3M17.6966152S
p3188
sa(dp3189
g32
VPlayerSpawn
p3190
sg39
(dp3191
g41
VTL StelluR
p3192
sg43
Nssg35
VPT3M17.6966152S
p3193
sa(dp3194
g38
I313138863
sg39
(dp3195
g41
VTL Spartan HCS
p3196
sg43
Nssg44
(lp3197
I1095363701
asg32
VWeaponPickup
p3198
sg35
VPT3M20.0967048S
p3199
sa(dp3200
g38
I4096745987
sg39
(dp3201
g41
VTL Spartan HCS
p3202
sg43
Nssg44
(lp3203
I2758383128
asg32
VWeaponPickup
p3204
sg35
VPT3M20.0967048S
p3205
sa(dp3206
g32
VPlayerSpawn
p3207
sg39
(dp3208
g41
VTL Spartan HCS
p3209
sg43
Nssg35
VPT3M20.0967048S
p3210
sa(dp3211
g38
I313138863
sg39
(dp3212
g41
VnV RayneHCS
p3213
sg43
Nssg44
(lp3214
I1095363701
asg32
VWeaponPickup
p3215
sg35
VPT3M22.1297715S
p3216
sa(dp3217
g38
I4096745987
sg39
(dp3218
g41
VnV RayneHCS
p3219
sg43
Nssg44
(lp3220
I2758383128
asg32
VWeaponPickup
p3221
sg35
VPT3M22.130782S
p3222
sa(dp3223
g32
VPlayerSpawn
p3224
sg39
(dp3225
g41
VnV RayneHCS
p3226
sg43
Nssg35
VPT3M22.130782S
p3227
sa(dp3228
g38
I313138863
sg39
(dp3229
g41
VnV Mikwen HCS
p3230
sg43
Nssg44
(lp3231
I1095363701
asg32
VWeaponPickup
p3232
sg35
VPT3M25.3628886S
p3233
sa(dp3234
g38
I4096745987
sg39
(dp3235
g41
VnV Mikwen HCS
p3236
sg43
Nssg44
(lp3237
I2758383128
asg32
VWeaponPickup
p3238
sg35
VPT3M25.363912S
p3239
sa(dp3240
g32
VPlayerSpawn
p3241
sg39
(dp3242
g41
VnV Mikwen HCS
p3243
sg43
Nssg35
VPT3M25.363912S
p3244
sa(dp3245
g38
I313138863
sg32
VWeaponDrop
p3246
sg180
I0
sg44
(lp3247
I1095363701
asg35
VPT3M26.7449655S
p3248
sg183
I0
sg184
VP0DT0H0M0.8500S
p3249
sg39
(dp3250
g41
VTL Danoxide
p3251
sg43
Nssa(dp3252
g38
I424645655
sg39
(dp3253
g41
VTL Danoxide
p3254
sg43
Nssg44
(lp3255
I1327094800
asg32
VWeaponPickup
p3256
sg35
VPT3M26.7449655S
p3257
sa(dp3258
g201
I4096745987
sg202
I00
sg203
I00
sg204
(dp3259
g41
VnV eL ToWn
p3260
sg43
Nssg207
(lp3261
I2758383128
asg209
I00
sg210
I01
sg211
I1
sg212
I0
sg213
I1
sg214
(dp3262
Vy
F-10.559341399999999
sVx
F-8.9353590000000001
sVz
F3.429802
ssg216
(dp3263
Vy
F-9.6773389999999999
sVx
F-13.322962800000001
sVz
F1.78937912
ssg218
I00
sg219
(dp3264
g41
VTL StelluR
p3265
sg43
Nssg222
(lp3266
sg224
(lp3267
sg228
I01
sg35
VPT3M26.7629413S
p3268
sg32
VDeath
p3269
sg231
I1
sa(dp3270
g32
VMedal
p3271
sg39
(dp3272
g41
VnV eL ToWn
p3273
sg43
Nssg236
I3261908037
sg35
VPT3M26.7649665S
p3274
sa(dp3275
g38
I313138863
sg32
VWeaponDrop
p3276
sg180
I0
sg44
(lp3277
I1095363701
asg35
VPT3M26.7649665S
p3278
sg183
I0
sg184
VP0DT0H0M0.7333S
p3279
sg39
(dp3280
g41
VTL StelluR
p3281
sg43
Nssa(dp3282
g38
I4096745987
sg32
VWeaponDrop
p3283
sg180
I2
sg44
(lp3284
I2758383128
asg35
VPT3M26.7649665S
p3285
sg183
I1
sg184
VP0DT0H0M8.3333S
p3286
sg39
(dp3287
g41
VTL StelluR
p3288
sg43
Nssa(dp3289
g201
I4096745987
sg202
I00
sg203
I00
sg204
(dp3290
g41
VnV Mikwen HCS
p3291
sg43
Nssg207
(lp3292
I2758383128
asg209
I00
sg210
I01
sg211
I1
sg212
I0
sg213
I1
sg214
(dp3293
Vy
F12.9372635
sVx
F-1.0651345299999999
sVz
F2.0006849999999998
ssg216
(dp3294
Vy
F13.298825300000001
sVx
F8.4123570000000001
sVz
F2.4219787099999999
ssg218
I00
sg219
(dp3295
g41
VLiquid Eco
p3296
sg43
Nssg222
(lp3297
sg224
(lp3298
sg228
I01
sg35
VPT3M34.2462288S
p3299
sg32
VDeath
p3300
sg231
I1
sa(dp3301
g32
VMedal
p3302
sg39
(dp3303
g41
VnV Mikwen HCS
p3304
sg43
Nssg236
I3261908037
sg35
VPT3M34.2482521S
p3305
sa(dp3306
g38
I2133511419
sg32
VWeaponDrop
p3307
sg180
I0
sg44
(lp3308
I2758383128
asg35
VPT3M34.249269S
p3309
sg183
I0
sg184
VP0DT0H0M3.2333S
p3310
sg39
(dp3311
g41
VLiquid Eco
p3312
sg43
Nssa(dp3313
g38
I4108759423
sg32
VWeaponDrop
p3314
sg180
I19
sg44
(lp3315
I2758383128
asg35
VPT3M34.249269S
p3316
sg183
I8
sg184
VP0DT0H0M23.3000S
p3317
sg39
(dp3318
g41
VLiquid Eco
p3319
sg43
Nssa(dp3320
g38
I313138863
sg39
(dp3321
g41
VTL StelluR
p3322
sg43
Nssg44
(lp3323
I1095363701
asg32
VWeaponPickup
p3324
sg35
VPT3M34.7802742S
p3325
sa(dp3326
g38
I4096745987
sg39
(dp3327
g41
VTL StelluR
p3328
sg43
Nssg44
(lp3329
I2758383128
asg32
VWeaponPickup
p3330
sg35
VPT3M34.7802742S
p3331
sa(dp3332
g32
VPlayerSpawn
p3333
sg39
(dp3334
g41
VTL StelluR
p3335
sg43
Nssg35
VPT3M34.7802742S
p3336
sa(dp3337
g38
I4096745987
sg32
VWeaponDrop
p3338
sg180
I2
sg44
(lp3339
I2758383128
asg35
VPT3M37.4453522S
p3340
sg183
I0
sg184
VP0DT0H0M8.9833S
p3341
sg39
(dp3342
g41
VnV RayneHCS
p3343
sg43
Nssa(dp3344
g38
I2133511419
sg39
(dp3345
g41
VnV RayneHCS
p3346
sg43
Nssg44
(lp3347
I2758383128
asg32
VWeaponPickup
p3348
sg35
VPT3M37.4453522S
p3349
sa(dp3350
g38
I313138863
sg32
VWeaponDrop
p3351
sg180
I0
sg44
(lp3352
I1095363701
asg35
VPT3M38.4953924S
p3353
sg183
I0
sg184
VP0DT0H0M6.5167S
p3354
sg39
(dp3355
g41
VnV RayneHCS
p3356
sg43
Nssa(dp3357
g38
I4096745987
sg39
(dp3358
g41
VnV RayneHCS
p3359
sg43
Nssg44
(lp3360
I2758383128
asg32
VWeaponPickup
p3361
sg35
VPT3M38.4953924S
p3362
sa(dp3363
g38
I313138863
sg32
VWeaponDrop
p3364
sg180
I0
sg44
(lp3365
I1095363701
asg35
VPT3M40.0284595S
p3366
sg183
I0
sg184
VP0DT0H0M1.1167S
p3367
sg39
(dp3368
g41
VTL StelluR
p3369
sg43
Nssa(dp3370
g38
I2133511419
sg39
(dp3371
g41
VTL StelluR
p3372
sg43
Nssg44
(lp3373
I2758383128
asg32
VWeaponPickup
p3374
sg35
VPT3M40.0284595S
p3375
sa(dp3376
g201
I4096745987
sg202
I00
sg203
I00
sg204
(dp3377
g41
VnV eL ToWn
p3378
sg43
Nssg207
(lp3379
I2758383128
asg209
I00
sg210
I01
sg211
I1
sg212
I0
sg213
I1
sg214
(dp3380
Vy
F-7.0724163100000004
sVx
F-0.6974844
sVz
F-0.211834833
ssg216
(dp3381
Vy
F-5.3286156699999996
sVx
F-17.310237900000001
sVz
F3.2166356999999999
ssg218
I00
sg219
(dp3382
g41
VTL Danoxide
p3383
sg43
Nssg222
(lp3384
sg224
(lp3385
(dp3386
g41
VnV Mikwen HCS
p3387
sg43
Nsasg228
I00
sg35
VPT3M40.4624915S
p3388
sg32
VDeath
p3389
sg231
I1
sa(dp3390
g38
I424645655
sg32
VWeaponDrop
p3391
sg180
I18
sg44
(lp3392
I1327094800
asg35
VPT3M40.4644991S
p3393
sg183
I16
sg184
VP0DT0H0M13.7167S
p3394
sg39
(dp3395
g41
VTL Danoxide
p3396
sg43
Nssa(dp3397
g38
I4108759423
sg32
VWeaponDrop
p3398
sg180
I11
sg44
(lp3399
I2758383128
asg35
VPT3M40.4644991S
p3400
sg183
I7
sg184
VP0DT0H0M13.2667S
p3401
sg39
(dp3402
g41
VTL Danoxide
p3403
sg43
Nssa(dp3404
g38
I313138863
sg39
(dp3405
g41
VLiquid Eco
p3406
sg43
Nssg44
(lp3407
I1095363701
asg32
VWeaponPickup
p3408
sg35
VPT3M42.2635355S
p3409
sa(dp3410
g38
I4096745987
sg39
(dp3411
g41
VLiquid Eco
p3412
sg43
Nssg44
(lp3413
I2758383128
asg32
VWeaponPickup
p3414
sg35
VPT3M42.2645353S
p3415
sa(dp3416
g32
VPlayerSpawn
p3417
sg39
(dp3418
g41
VLiquid Eco
p3419
sg43
Nssg35
VPT3M42.2645353S
p3420
sa(dp3421
g38
I4096745987
sg32
VWeaponDrop
p3422
sg180
I0
sg44
(lp3423
I2758383128
asg35
VPT3M44.5946283S
p3424
sg183
I0
sg184
VP0DT0H0M6.1000S
p3425
sg39
(dp3426
g41
VnV RayneHCS
p3427
sg43
Nssa(dp3428
g38
I4108759423
sg39
(dp3429
g41
VnV RayneHCS
p3430
sg43
Nssg44
(lp3431
I2758383128
asg32
VWeaponPickup
p3432
sg35
VPT3M44.5946283S
p3433
sa(dp3434
g38
I313138863
sg39
(dp3435
g41
VTL Danoxide
p3436
sg43
Nssg44
(lp3437
I1095363701
asg32
VWeaponPickup
p3438
sg35
VPT3M48.4798S
p3439
sa(dp3440
g38
I4096745987
sg39
(dp3441
g41
VTL Danoxide
p3442
sg43
Nssg44
(lp3443
I2758383128
asg32
VWeaponPickup
p3444
sg35
VPT3M48.4798S
p3445
sa(dp3446
g32
VPlayerSpawn
p3447
sg39
(dp3448
g41
VTL Danoxide
p3449
sg43
Nssg35
VPT3M48.4798S
p3450
sa(dp3451
g201
I4096745987
sg202
I00
sg203
I00
sg204
(dp3452
g41
VnV eL ToWn
p3453
sg43
Nssg207
(lp3454
I2758383128
asg209
I00
sg210
I01
sg211
I1
sg212
I0
sg213
I1
sg214
(dp3455
Vy
F-8.0084079999999993
sVx
F-5.4706745100000003
sVz
F-0.051493495700000003
ssg216
(dp3456
Vy
F-15.752694099999999
sVx
F-3.2756502599999999
sVz
F0.64253854799999999
ssg218
I00
sg219
(dp3457
g41
VTL StelluR
p3458
sg43
Nssg222
(lp3459
sg224
(lp3460
(dp3461
g41
VnV RayneHCS
p3462
sg43
Nsasg228
I01
sg35
VPT3M50.9798723S
p3463
sg32
VDeath
p3464
sg231
I1
sa(dp3465
g32
VMedal
p3466
sg39
(dp3467
g41
VnV eL ToWn
p3468
sg43
Nssg236
I2838259753
sg35
VPT3M50.9798723S
p3469
sa(dp3470
g32
VImpulse
p3471
sg39
(dp3472
g41
VnV eL ToWn
p3473
sg43
Nssg280
I2556889090
sg35
VPT3M50.9798723S
p3474
sa(dp3475
g32
VMedal
p3476
sg39
(dp3477
g41
VnV eL ToWn
p3478
sg43
Nssg236
I3261908037
sg35
VPT3M50.9808732S
p3479
sa(dp3480
g38
I2133511419
sg32
VWeaponDrop
p3481
sg180
I0
sg44
(lp3482
I2758383128
asg35
VPT3M50.9818767S
p3483
sg183
I0
sg184
VP0DT0H0M0.4167S
p3484
sg39
(dp3485
g41
VTL StelluR
p3486
sg43
Nssa(dp3487
g38
I4096745987
sg32
VWeaponDrop
p3488
sg180
I15
sg44
(lp3489
I2758383128
asg35
VPT3M50.9818767S
p3490
sg183
I8
sg184
VP0DT0H0M14.6667S
p3491
sg39
(dp3492
g41
VTL StelluR
p3493
sg43
Nssa(dp3494
g201
I4096745987
sg202
I00
sg203
I00
sg204
(dp3495
g41
VTL Danoxide
p3496
sg43
Nssg207
(lp3497
I2758383128
asg209
I00
sg210
I01
sg211
I1
sg212
I0
sg213
I1
sg214
(dp3498
Vy
F-5.0735573799999996
sVx
F9.4091470000000008
sVz
F3.1123995799999999
ssg216
(dp3499
Vy
F-7.1431736900000002
sVx
F-10.627062799999999
sVz
F-0.20137432199999999
ssg218
I00
sg219
(dp3500
g41
VnV eL ToWn
p3501
sg43
Nssg222
(lp3502
sg224
(lp3503
(dp3504
g41
VTL StelluR
p3505
sg43
Nsa(dp3506
g41
VLiquid Eco
p3507
sg43
Nsasg228
I01
sg35
VPT3M53.0459512S
p3508
sg32
VDeath
p3509
sg231
I1
sa(dp3510
g32
VMedal
p3511
sg39
(dp3512
g41
VTL Danoxide
p3513
sg43
Nssg236
I3261908037
sg35
VPT3M53.047977S
p3514
sa(dp3515
g38
I2133511419
sg32
VWeaponDrop
p3516
sg180
I24
sg44
(lp3517
I2758383128
asg35
VPT3M53.047977S
p3518
sg183
I8
sg184
VP0DT0H0M12.0333S
p3519
sg39
(dp3520
g41
VnV eL ToWn
p3521
sg43
Nssa(dp3522
g38
I4096745987
sg32
VWeaponDrop
p3523
sg180
I24
sg44
(lp3524
I2758383128
asg35
VPT3M53.047977S
p3525
sg183
I14
sg184
VP0DT0H0M54.7167S
p3526
sg39
(dp3527
g41
VnV eL ToWn
p3528
sg43
Nssa(dp3529
g201
I313138863
sg202
I00
sg203
I00
sg204
(dp3530
g41
VTL Spartan HCS
p3531
sg43
Nssg207
(lp3532
I1095363701
asg209
I00
sg210
I01
sg211
I1
sg212
I0
sg213
I1
sg214
(dp3533
Vy
F-8.7828350000000004
sVx
F-5.9730239999999997
sVz
F1.9056847100000001
ssg216
(dp3534
Vy
F-7.808281
sVx
F-0.63248309999999996
sVz
F0.095981029999999995
ssg218
I00
sg219
(dp3535
g41
VnV Mikwen HCS
p3536
sg43
Nssg222
(lp3537
sg224
(lp3538
(dp3539
g41
VLiquid Eco
p3540
sg43
Nsasg228
I00
sg35
VPT3M54.3470007S
p3541
sg32
VDeath
p3542
sg231
I1
sa(dp3543
g38
I313138863
sg32
VWeaponDrop
p3544
sg180
I0
sg44
(lp3545
I1095363701
asg35
VPT3M54.3490387S
p3546
sg183
I0
sg184
VP0DT0H0M0.6833S
p3547
sg39
(dp3548
g41
VnV Mikwen HCS
p3549
sg43
Nssa(dp3550
g38
I4096745987
sg32
VWeaponDrop
p3551
sg180
I19
sg44
(lp3552
I2758383128
asg35
VPT3M54.3490387S
p3553
sg183
I12
sg184
VP0DT0H0M28.3000S
p3554
sg39
(dp3555
g41
VnV Mikwen HCS
p3556
sg43
Nssa(dp3557
g38
I313138863
sg39
(dp3558
g41
VTL StelluR
p3559
sg43
Nssg44
(lp3560
I1095363701
asg32
VWeaponPickup
p3561
sg35
VPT3M58.9961802S
p3562
sa(dp3563
g38
I4096745987
sg39
(dp3564
g41
VTL StelluR
p3565
sg43
Nssg44
(lp3566
I2758383128
asg32
VWeaponPickup
p3567
sg35
VPT3M58.997198S
p3568
sa(dp3569
g32
VPlayerSpawn
p3570
sg39
(dp3571
g41
VTL StelluR
p3572
sg43
Nssg35
VPT3M58.997198S
p3573
sa(dp3574
g38
I313138863
sg32
VWeaponDrop
p3575
sg180
I1
sg44
(lp3576
I1095363701
asg35
VPT3M59.9462161S
p3577
sg183
I0
sg184
VPT0S
p3578
sg39
(dp3579
g41
VTL Spartan HCS
p3580
sg43
Nssa(dp3581
g38
I313138863
sg39
(dp3582
g41
VnV eL ToWn
p3583
sg43
Nssg44
(lp3584
I1095363701
asg32
VWeaponPickup
p3585
sg35
VPT4M1.0632851S
p3586
sa(dp3587
g38
I4096745987
sg39
(dp3588
g41
VnV eL ToWn
p3589
sg43
Nssg44
(lp3590
I2758383128
asg32
VWeaponPickup
p3591
sg35
VPT4M1.0632851S
p3592
sa(dp3593
g32
VPlayerSpawn
p3594
sg39
(dp3595
g41
VnV eL ToWn
p3596
sg43
Nssg35
VPT4M1.0632851S
p3597
sa(dp3598
g201
I313138863
sg202
I00
sg203
I00
sg204
(dp3599
g41
VTL Spartan HCS
p3600
sg43
Nssg207
(lp3601
I1095363701
asg209
I00
sg210
I01
sg211
I1
sg212
I0
sg213
I1
sg214
(dp3602
Vy
F-12.4863243
sVx
F-7.1834160000000002
sVz
F2.82542348
ssg216
(dp3603
Vy
F-14.1434183
sVx
F-12.181017900000001
sVz
F1.39902353
ssg218
I00
sg219
(dp3604
g41
VnV Pistola HCS
p3605
sg43
Nssg222
(lp3606
sg224
(lp3607
(dp3608
g41
VLiquid Eco
p3609
sg43
Nsasg228
I00
sg35
VPT4M1.596279S
p3610
sg32
VDeath
p3611
sg231
I1
sa(dp3612
g32
VMedal
p3613
sg39
(dp3614
g41
VTL Spartan HCS
p3615
sg43
Nssg236
I2838259753
sg35
VPT4M1.596279S
p3616
sa(dp3617
g32
VImpulse
p3618
sg39
(dp3619
g41
VTL Spartan HCS
p3620
sg43
Nssg280
I2556889090
sg35
VPT4M1.596279S
p3621
sa(dp3622
g38
I2133511419
sg32
VWeaponDrop
p3623
sg180
I13
sg44
(lp3624
I2758383128
asg35
VPT4M1.5983026S
p3625
sg183
I7
sg184
VP0DT0H0M4.1333S
p3626
sg39
(dp3627
g41
VnV Pistola HCS
p3628
sg43
Nssa(dp3629
g38
I4096745987
sg32
VWeaponDrop
p3630
sg180
I16
sg44
(lp3631
I2758383128
asg35
VPT4M1.5983026S
p3632
sg183
I8
sg184
VP0DT0H0M52.4500S
p3633
sg39
(dp3634
g41
VnV Pistola HCS
p3635
sg43
Nssa(dp3636
g38
I313138863
sg39
(dp3637
g41
VnV Mikwen HCS
p3638
sg43
Nssg44
(lp3639
I1095363701
asg32
VWeaponPickup
p3640
sg35
VPT4M2.3633332S
p3641
sa(dp3642
g38
I4096745987
sg39
(dp3643
g41
VnV Mikwen HCS
p3644
sg43
Nssg44
(lp3645
I2758383128
asg32
VWeaponPickup
p3646
sg35
VPT4M2.3633332S
p3647
sa(dp3648
g32
VPlayerSpawn
p3649
sg39
(dp3650
g41
VnV Mikwen HCS
p3651
sg43
Nssg35
VPT4M2.3633332S
p3652
sa(dp3653
g201
I4096745987
sg202
I00
sg203
I00
sg204
(dp3654
g41
VTL Danoxide
p3655
sg43
Nssg207
(lp3656
I2758383128
asg209
I00
sg210
I01
sg211
I1
sg212
I0
sg213
I1
sg214
(dp3657
Vy
F1.0109781
sVx
F5.2999005300000004
sVz
F3.54588532
ssg216
(dp3658
Vy
F0.68043184300000004
sVx
F-2.3165183100000002
sVz
F3.7878425099999999
ssg218
I00
sg219
(dp3659
g41
VnV RayneHCS
p3660
sg43
Nssg222
(lp3661
sg224
(lp3662
sg228
I01
sg35
VPT4M2.8623664S
p3663
sg32
VDeath
p3664
sg231
I1
sa(dp3665
g32
VMedal
p3666
sg39
(dp3667
g41
VTL Danoxide
p3668
sg43
Nssg236
I3261908037
sg35
VPT4M2.8663507S
p3669
sa(dp3670
g38
I4108759423
sg32
VWeaponDrop
p3671
sg180
I33
sg44
(lp3672
I2758383128
asg35
VPT4M2.8663507S
p3673
sg183
I14
sg184
VP0DT0H0M18.2667S
p3674
sg39
(dp3675
g41
VnV RayneHCS
p3676
sg43
Nssa(dp3677
g38
I2133511419
sg32
VWeaponDrop
p3678
sg180
I0
sg44
(lp3679
I2758383128
asg35
VPT4M2.8663507S
p3680
sg183
I0
sg184
VP0DT0H0M0.8667S
p3681
sg39
(dp3682
g41
VnV RayneHCS
p3683
sg43
Nssa(dp3684
g38
I313138863
sg32
VWeaponDrop
p3685
sg180
I19
sg44
(lp3686
I1095363701
asg35
VPT4M3.7613863S
p3687
sg183
I9
sg184
VP0DT0H0M27.8667S
p3688
sg39
(dp3689
g41
VTL Spartan HCS
p3690
sg43
Nssa(dp3691
g38
I2133511419
sg39
(dp3692
g41
VTL Spartan HCS
p3693
sg43
Nssg44
(lp3694
I2758383128
asg32
VWeaponPickup
p3695
sg35
VPT4M3.7613863S
p3696
sa(dp3697
g38
I313138863
sg32
VWeaponDrop
p3698
sg180
I1
sg44
(lp3699
I1095363701
asg35
VPT4M8.9615819S
p3700
sg183
I1
sg184
VP0DT0H0M1.1667S
p3701
sg39
(dp3702
g41
VTL Danoxide
p3703
sg43
Nssa(dp3704
g38
I2650887244
sg39
(dp3705
g41
VTL Danoxide
p3706
sg43
Nssg44
(lp3707
I2758383128
asg32
VWeaponPickup
p3708
sg35
VPT4M8.9615819S
p3709
sa(dp3710
g201
I4096745987
sg202
I00
sg203
I00
sg204
(dp3711
g41
VLiquid Eco
p3712
sg43
Nssg207
(lp3713
I2758383128
asg209
I00
sg210
I01
sg211
I1
sg212
I0
sg213
I1
sg214
(dp3714
Vy
F-3.5044403100000001
sVx
F-18.712732299999999
sVz
F2.8233009999999998
ssg216
(dp3715
Vy
F4.7265240000000004
sVx
F-19.3790932
sVz
F2.5547127700000001
ssg218
I00
sg219
(dp3716
g41
VnV eL ToWn
p3717
sg43
Nssg222
(lp3718
sg224
(lp3719
(dp3720
g41
VTL Spartan HCS
p3721
sg43
Nsasg228
I01
sg35
VPT4M9.3795844S
p3722
sg32
VDeath
p3723
sg231
I1
sa(dp3724
g32
VMedal
p3725
sg39
(dp3726
g41
VLiquid Eco
p3727
sg43
Nssg236
I3261908037
sg35
VPT4M9.3805805S
p3728
sa(dp3729
g38
I4096745987
sg32
VWeaponDrop
p3730
sg180
I5
sg44
(lp3731
I2758383128
asg35
VPT4M9.3816006S
p3732
sg183
I2
sg184
VP0DT0H0M7.6500S
p3733
sg39
(dp3734
g41
VnV eL ToWn
p3735
sg43
Nssa(dp3736
g38
I313138863
sg32
VWeaponDrop
p3737
sg180
I0
sg44
(lp3738
I1095363701
asg35
VPT4M9.3816006S
p3739
sg183
I0
sg184
VP0DT0H0M0.6667S
p3740
sg39
(dp3741
g41
VnV eL ToWn
p3742
sg43
Nssa(dp3743
g38
I313138863
sg39
(dp3744
g41
VnV Pistola HCS
p3745
sg43
Nssg44
(lp3746
I1095363701
asg32
VWeaponPickup
p3747
sg35
VPT4M9.6136272S
p3748
sa(dp3749
g38
I4096745987
sg39
(dp3750
g41
VnV Pistola HCS
p3751
sg43
Nssg44
(lp3752
I2758383128
asg32
VWeaponPickup
p3753
sg35
VPT4M9.6136272S
p3754
sa(dp3755
g32
VPlayerSpawn
p3756
sg39
(dp3757
g41
VnV Pistola HCS
p3758
sg43
Nssg35
VPT4M9.6136272S
p3759
sa(dp3760
g38
I313138863
sg39
(dp3761
g41
VnV RayneHCS
p3762
sg43
Nssg44
(lp3763
I1095363701
asg32
VWeaponPickup
p3764
sg35
VPT4M10.8796357S
p3765
sa(dp3766
g38
I4096745987
sg39
(dp3767
g41
VnV RayneHCS
p3768
sg43
Nssg44
(lp3769
I2758383128
asg32
VWeaponPickup
p3770
sg35
VPT4M10.8806381S
p3771
sa(dp3772
g32
VPlayerSpawn
p3773
sg39
(dp3774
g41
VnV RayneHCS
p3775
sg43
Nssg35
VPT4M10.8806381S
p3776
sa(dp3777
g38
I4096745987
sg32
VWeaponDrop
p3778
sg180
I0
sg44
(lp3779
I2758383128
asg35
VPT4M11.6446936S
p3780
sg183
I0
sg184
VP0DT0H0M17.6833S
p3781
sg39
(dp3782
g41
VTL Spartan HCS
p3783
sg43
Nssa(dp3784
g38
I424645655
sg39
(dp3785
g41
VTL Spartan HCS
p3786
sg43
Nssg44
(lp3787
I1327094800
asg32
VWeaponPickup
p3788
sg35
VPT4M11.6446936S
p3789
sa(dp3790
g38
I313138863
sg39
(dp3791
g41
VnV eL ToWn
p3792
sg43
Nssg44
(lp3793
I1095363701
asg32
VWeaponPickup
p3794
sg35
VPT4M17.3969167S
p3795
sa(dp3796
g38
I4096745987
sg39
(dp3797
g41
VnV eL ToWn
p3798
sg43
Nssg44
(lp3799
I2758383128
asg32
VWeaponPickup
p3800
sg35
VPT4M17.3969167S
p3801
sa(dp3802
g32
VPlayerSpawn
p3803
sg39
(dp3804
g41
VnV eL ToWn
p3805
sg43
Nssg35
VPT4M17.3969167S
p3806
sa(dp3807
g201
I2650887244
sg202
I00
sg203
I00
sg204
(dp3808
g41
VTL Danoxide
p3809
sg43
Nssg207
(lp3810
I2758383128
asg209
I00
sg210
I01
sg211
I1
sg212
I0
sg213
I1
sg214
(dp3811
Vy
F10.6481447
sVx
F-11.0296106
sVz
F0.33930706999999999
ssg216
(dp3812
Vy
F10.288867
sVx
F-10.9196863
sVz
F0.27533942500000003
ssg218
I00
sg219
(dp3813
g41
VnV RayneHCS
p3814
sg43
Nssg222
(lp3815
sg224
(lp3816
sg228
I00
sg35
VPT4M18.1799166S
p3817
sg32
VDeath
p3818
sg231
I1
sa(dp3819
g38
I313138863
sg32
VWeaponDrop
p3820
sg180
I0
sg44
(lp3821
I1095363701
asg35
VPT4M18.1809363S
p3822
sg183
I0
sg184
VP0DT0H0M3.2667S
p3823
sg39
(dp3824
g41
VnV RayneHCS
p3825
sg43
Nssa(dp3826
g38
I4096745987
sg32
VWeaponDrop
p3827
sg180
I0
sg44
(lp3828
I2758383128
asg35
VPT4M18.1819355S
p3829
sg183
I0
sg184
VP0DT0H0M4.0333S
p3830
sg39
(dp3831
g41
VnV RayneHCS
p3832
sg43
Nssa(dp3833
g201
I3190813201
sg202
I00
sg203
I00
sg204
(dp3834
g41
VnV Mikwen HCS
p3835
sg43
Nssg207
(lp3836
sg209
I00
sg210
I01
sg211
I1
sg212
I0
sg213
I1
sg214
(dp3837
Vy
F10.8393269
sVx
F-8.5813629999999996
sVz
F-0.069186479999999995
ssg216
(dp3838
Vy
F10.5862322
sVx
F-10.8351212
sVz
F0.31245040000000002
ssg218
I00
sg219
(dp3839
g41
VTL Danoxide
p3840
sg43
Nssg222
(lp3841
sg224
(lp3842
(dp3843
g41
VnV RayneHCS
p3844
sg43
Nsasg228
I00
sg35
VPT4M18.6629355S
p3845
sg32
VDeath
p3846
sg231
I1
sa(dp3847
g38
I2650887244
sg32
VWeaponDrop
p3848
sg180
I0
sg44
(lp3849
I2758383128
asg35
VPT4M18.6639572S
p3850
sg183
I0
sg184
VP0DT0H0M8.2667S
p3851
sg39
(dp3852
g41
VTL Danoxide
p3853
sg43
Nssa(dp3854
g38
I4096745987
sg32
VWeaponDrop
p3855
sg180
I19
sg44
(lp3856
I2758383128
asg35
VPT4M18.6639572S
p3857
sg183
I11
sg184
VP0DT0H0M20.7500S
p3858
sg39
(dp3859
g41
VTL Danoxide
p3860
sg43
Nssa(dp3861
g38
I313138863
sg32
VWeaponDrop
p3862
sg180
I0
sg44
(lp3863
I1095363701
asg35
VPT4M23.8111569S
p3864
sg183
I0
sg184
VP0DT0H0M6.7833S
p3865
sg39
(dp3866
g41
VnV Mikwen HCS
p3867
sg43
Nssa(dp3868
g38
I2133511419
sg39
(dp3869
g41
VnV Mikwen HCS
p3870
sg43
Nssg44
(lp3871
I2758383128
asg32
VWeaponPickup
p3872
sg35
VPT4M23.8121334S
p3873
sa(dp3874
g38
I313138863
sg39
(dp3875
g41
VnV RayneHCS
p3876
sg43
Nssg44
(lp3877
I1095363701
asg32
VWeaponPickup
p3878
sg35
VPT4M26.1962246S
p3879
sa(dp3880
g38
I4096745987
sg39
(dp3881
g41
VnV RayneHCS
p3882
sg43
Nssg44
(lp3883
I2758383128
asg32
VWeaponPickup
p3884
sg35
VPT4M26.1962246S
p3885
sa(dp3886
g32
VPlayerSpawn
p3887
sg39
(dp3888
g41
VnV RayneHCS
p3889
sg43
Nssg35
VPT4M26.1972243S
p3890
sa(dp3891
g38
I313138863
sg39
(dp3892
g41
VTL Danoxide
p3893
sg43
Nssg44
(lp3894
I1095363701
asg32
VWeaponPickup
p3895
sg35
VPT4M26.6792421S
p3896
sa(dp3897
g38
I4096745987
sg39
(dp3898
g41
VTL Danoxide
p3899
sg43
Nssg44
(lp3900
I2758383128
asg32
VWeaponPickup
p3901
sg35
VPT4M26.6804724S
p3902
sa(dp3903
g32
VPlayerSpawn
p3904
sg39
(dp3905
g41
VTL Danoxide
p3906
sg43
Nssg35
VPT4M26.6804724S
p3907
sa(dp3908
g201
I313138863
sg202
I00
sg203
I00
sg204
(dp3909
g41
VTL StelluR
p3910
sg43
Nssg207
(lp3911
I1095363701
asg209
I00
sg210
I01
sg211
I1
sg212
I0
sg213
I1
sg214
(dp3912
Vy
F-0.44450855299999997
sVx
F8.8865549999999995
sVz
F4.0759334599999999
ssg216
(dp3913
Vy
F0.60625929999999995
sVx
F8.2567789999999999
sVz
F3.952499
ssg218
I00
sg219
(dp3914
g41
VnV eL ToWn
p3915
sg43
Nssg222
(lp3916
sg224
(lp3917
(dp3918
g41
VTL Spartan HCS
p3919
sg43
Nsasg228
I00
sg35
VPT4M26.7292448S
p3920
sg32
VDeath
p3921
sg231
I1
sa(dp3922
g38
I313138863
sg32
VWeaponDrop
p3923
sg180
I9
sg44
(lp3924
I1095363701
asg35
VPT4M26.7312649S
p3925
sg183
I6
sg184
VP0DT0H0M1.8667S
p3926
sg39
(dp3927
g41
VnV eL ToWn
p3928
sg43
Nssa(dp3929
g38
I4096745987
sg32
VWeaponDrop
p3930
sg180
I8
sg44
(lp3931
I2758383128
asg35
VPT4M26.7312649S
p3932
sg183
I5
sg184
VP0DT0H0M7.4667S
p3933
sg39
(dp3934
g41
VnV eL ToWn
p3935
sg43
Nssa(dp3936
g38
I2133511419
sg32
VWeaponDrop
p3937
sg180
I16
sg44
(lp3938
I2758383128
asg35
VPT4M28.2783489S
p3939
sg183
I8
sg184
VP0DT0H0M7.5833S
p3940
sg39
(dp3941
g41
VTL Spartan HCS
p3942
sg43
Nssa(dp3943
g38
I2670072722
sg39
(dp3944
g41
VTL Spartan HCS
p3945
sg43
Nssg44
(lp3946
I2758383128
asg32
VWeaponPickupPad
p3947
sg35
VPT4M28.2783489S
p3948
sa(dp3949
g38
I2670072722
sg39
(dp3950
g41
VTL Spartan HCS
p3951
sg43
Nssg44
(lp3952
I2758383128
asg32
VWeaponPickup
p3953
sg35
VPT4M28.2783489S
p3954
sa(dp3955
g38
I313138863
sg32
VWeaponDrop
p3956
sg180
I8
sg44
(lp3957
I1095363701
asg35
VPT4M30.3114001S
p3958
sg183
I4
sg184
VP0DT0H0M3.9167S
p3959
sg39
(dp3960
g41
VTL StelluR
p3961
sg43
Nssa(dp3962
g38
I4108759423
sg39
(dp3963
g41
VTL StelluR
p3964
sg43
Nssg44
(lp3965
I2758383128
asg32
VWeaponPickup
p3966
sg35
VPT4M30.3114001S
p3967
sa(dp3968
g32
VMedal
p3969
sg39
(dp3970
g41
VTL StelluR
p3971
sg43
Nssg236
I3400287617
sg35
VPT4M30.6953957S
p3972
sa(dp3973
g201
I4096745987
sg202
I00
sg203
I00
sg204
(dp3974
g41
VnV RayneHCS
p3975
sg43
Nssg207
(lp3976
I2758383128
asg209
I00
sg210
I01
sg211
I1
sg212
I0
sg213
I1
sg214
(dp3977
Vy
F10.205931700000001
sVx
F-3.5004937599999999
sVz
F2.5767347799999998
ssg216
(dp3978
Vy
F1.8037711400000001
sVx
F-6.3415270000000001
sVz
F3.11739159
ssg218
I00
sg219
(dp3979
g41
VTL Spartan HCS
p3980
sg43
Nssg222
(lp3981
sg224
(lp3982
sg228
I00
sg35
VPT4M33.195493S
p3983
sg32
VDeath
p3984
sg231
I1
sa(dp3985
g38
I2670072722
sg32
VWeaponDrop
p3986
sg180
I4
sg44
(lp3987
I2758383128
asg35
VPT4M33.197516S
p3988
sg183
I3
sg184
VP0DT0H0M4.9167S
p3989
sg39
(dp3990
g41
VTL Spartan HCS
p3991
sg43
Nssa(dp3992
g38
I424645655
sg32
VWeaponDrop
p3993
sg180
I9
sg44
(lp3994
I1327094800
asg35
VPT4M33.197516S
p3995
sg183
I4
sg184
VP0DT0H0M15.0500S
p3996
sg39
(dp3997
g41
VTL Spartan HCS
p3998
sg43
Nssa(dp3999
g201
I4096745987
sg202
I00
sg203
I00
sg204
(dp4000
g41
VTL Danoxide
p4001
sg43
Nssg207
(lp4002
I2758383128
asg209
I00
sg210
I01
sg211
I1
sg212
I0
sg213
I1
sg214
(dp4003
Vy
F12.0431671
sVx
F-14.410834299999999
sVz
F1.1947276600000001
ssg216
(dp4004
Vy
F9.7645
sVx
F-9.4341849999999994
sVz
F4.2102320000000004
ssg218
I00
sg219
(dp4005
g41
VnV Mikwen HCS
p4006
sg43
Nssg222
(lp4007
sg224
(lp4008
sg228
I00
sg35
VPT4M34.1637558S
p4009
sg32
VDeath
p4010
sg231
I1
sa(dp4011
g38
I2133511419
sg32
VWeaponDrop
p4012
sg180
I0
sg44
(lp4013
I2758383128
asg35
VPT4M34.1645521S
p4014
sg183
I0
sg184
VP0DT0H0M3.8000S
p4015
sg39
(dp4016
g41
VnV Mikwen HCS
p4017
sg43
Nssa(dp4018
g38
I4096745987
sg32
VWeaponDrop
p4019
sg180
I14
sg44
(lp4020
I2758383128
asg35
VPT4M34.1645521S
p4021
sg183
I8
sg184
VP0DT0H0M21.2167S
p4022
sg39
(dp4023
g41
VnV Mikwen HCS
p4024
sg43
Nssa(dp4025
g38
I313138863
sg39
(dp4026
g41
VnV eL ToWn
p4027
sg43
Nssg44
(lp4028
I1095363701
asg32
VWeaponPickup
p4029
sg35
VPT4M34.746582S
p4030
sa(dp4031
g38
I4096745987
sg39
(dp4032
g41
VnV eL ToWn
p4033
sg43
Nssg44
(lp4034
I2758383128
asg32
VWeaponPickup
p4035
sg35
VPT4M34.746582S
p4036
sa(dp4037
g32
VPlayerSpawn
p4038
sg39
(dp4039
g41
VnV eL ToWn
p4040
sg43
Nssg35
VPT4M34.746582S
p4041
sa(dp4042
g32
VMedal
p4043
sg39
(dp4044
g41
VTL StelluR
p4045
sg43
Nssg236
I3400287617
sg35
VPT4M35.4455795S
p4046
sa(dp4047
g201
I4096745987
sg202
I00
sg203
I00
sg204
(dp4048
g41
VLiquid Eco
p4049
sg43
Nssg207
(lp4050
I2758383128
asg209
I00
sg210
I01
sg211
I1
sg212
I0
sg213
I1
sg214
(dp4051
Vy
F10.1564608
sVx
F-16.346879999999999
sVz
F2.4202539999999999
ssg216
(dp4052
Vy
F12.3600721
sVx
F-9.922644
sVz
F2.6499955700000002
ssg218
I00
sg219
(dp4053
g41
VnV Pistola HCS
p4054
sg43
Nssg222
(lp4055
sg224
(lp4056
(dp4057
g41
VTL StelluR
p4058
sg43
Nsa(dp4059
g41
VTL Danoxide
p4060
sg43
Nsasg228
I01
sg35
VPT4M36.112605S
p4061
sg32
VDeath
p4062
sg231
I1
sa(dp4063
g32
VMedal
p4064
sg39
(dp4065
g41
VLiquid Eco
p4066
sg43
Nssg236
I3261908037
sg35
VPT4M36.1136292S
p4067
sa(dp4068
g38
I313138863
sg32
VWeaponDrop
p4069
sg180
I0
sg44
(lp4070
I1095363701
asg35
VPT4M36.114644S
p4071
sg183
I0
sg184
VP0DT0H0M4.2000S
p4072
sg39
(dp4073
g41
VnV Pistola HCS
p4074
sg43
Nssa(dp4075
g38
I4096745987
sg32
VWeaponDrop
p4076
sg180
I12
sg44
(lp4077
I2758383128
asg35
VPT4M36.114644S
p4078
sg183
I4
sg184
VP0DT0H0M22.3000S
p4079
sg39
(dp4080
g41
VnV Pistola HCS
p4081
sg43
Nssa(dp4082
g38
I2244200496
sg39
(dp4083
g41
VLiquid Eco
p4084
sg43
Nssg44
(lp4085
I2758383128
asg32
VWeaponPickup
p4086
sg35
VPT4M40.078758S
p4087
sa(dp4088
g32
VImpulse
p4089
sg39
(dp4090
g41
VLiquid Eco
p4091
sg43
Nssg280
I4191318012
sg35
VPT4M40.078758S
p4092
sa(dp4093
g32
VImpulse
p4094
sg39
(dp4095
g41
VLiquid Eco
p4096
sg43
Nssg280
I1039658009
sg35
VPT4M40.078758S
p4097
sa(dp4098
g38
I2244200496
sg32
VWeaponDrop
p4099
sg180
I0
sg44
(lp4100
I2758383128
asg35
VPT4M41.1447983S
p4101
sg183
I0
sg184
VP0DT0H0M0.9167S
p4102
sg39
(dp4103
g41
VLiquid Eco
p4104
sg43
Nssa(dp4105
g32
VImpulse
p4106
sg39
(dp4107
g41
VLiquid Eco
p4108
sg43
Nssg280
I3435524855
sg35
VPT4M41.1457981S
p4109
sa(dp4110
g38
I313138863
sg39
(dp4111
g41
VTL Spartan HCS
p4112
sg43
Nssg44
(lp4113
I1095363701
asg32
VWeaponPickup
p4114
sg35
VPT4M41.2128012S
p4115
sa(dp4116
g38
I4096745987
sg39
(dp4117
g41
VTL Spartan HCS
p4118
sg43
Nssg44
(lp4119
I2758383128
asg32
VWeaponPickup
p4120
sg35
VPT4M41.2138009S
p4121
sa(dp4122
g32
VPlayerSpawn
p4123
sg39
(dp4124
g41
VTL Spartan HCS
p4125
sg43
Nssg35
VPT4M41.2138009S
p4126
sa(dp4127
g38
I313138863
sg39
(dp4128
g41
VnV Mikwen HCS
p4129
sg43
Nssg44
(lp4130
I1095363701
asg32
VWeaponPickup
p4131
sg35
VPT4M42.1798736S
p4132
sa(dp4133
g38
I4096745987
sg39
(dp4134
g41
VnV Mikwen HCS
p4135
sg43
Nssg44
(lp4136
I2758383128
asg32
VWeaponPickup
p4137
sg35
VPT4M42.1798736S
p4138
sa(dp4139
g32
VPlayerSpawn
p4140
sg39
(dp4141
g41
VnV Mikwen HCS
p4142
sg43
Nssg35
VPT4M42.1798736S
p4143
sa(dp4144
g201
I4096745987
sg202
I00
sg203
I00
sg204
(dp4145
g41
VnV eL ToWn
p4146
sg43
Nssg207
(lp4147
I2758383128
asg209
I00
sg210
I01
sg211
I1
sg212
I0
sg213
I1
sg214
(dp4148
Vy
F0.026513175999999999
sVx
F-3.63231182
sVz
F3.1246040000000002
ssg216
(dp4149
Vy
F0.104663968
sVx
F6.6432914700000003
sVz
F3.1342120000000002
ssg218
I00
sg219
(dp4150
g41
VTL StelluR
p4151
sg43
Nssg222
(lp4152
sg224
(lp4153
sg228
I01
sg35
VPT4M42.662856S
p4154
sg32
VDeath
p4155
sg231
I1
sa(dp4156
g32
VMedal
p4157
sg39
(dp4158
g41
VnV eL ToWn
p4159
sg43
Nssg236
I3261908037
sg35
VPT4M42.6648756S
p4160
sa(dp4161
g38
I4108759423
sg32
VWeaponDrop
p4162
sg180
I9
sg44
(lp4163
I2758383128
asg35
VPT4M42.665887S
p4164
sg183
I5
sg184
VP0DT0H0M12.3500S
p4165
sg39
(dp4166
g41
VTL StelluR
p4167
sg43
Nssa(dp4168
g38
I4096745987
sg32
VWeaponDrop
p4169
sg180
I9
sg44
(lp4170
I2758383128
asg35
VPT4M42.665887S
p4171
sg183
I6
sg184
VP0DT0H0M27.4000S
p4172
sg39
(dp4173
g41
VTL StelluR
p4174
sg43
Nssa(dp4175
g38
I2244200496
sg39
(dp4176
g41
VLiquid Eco
p4177
sg43
Nssg44
(lp4178
I2758383128
asg32
VWeaponPickup
p4179
sg35
VPT4M42.7278594S
p4180
sa(dp4181
g32
VImpulse
p4182
sg39
(dp4183
g41
VLiquid Eco
p4184
sg43
Nssg280
I4191318012
sg35
VPT4M42.7288792S
p4185
sa(dp4186
g38
I2244200496
sg32
VWeaponDrop
p4187
sg180
I0
sg44
(lp4188
I2758383128
asg35
VPT4M43.1949021S
p4189
sg183
I0
sg184
VP0DT0H0M0.3167S
p4190
sg39
(dp4191
g41
VLiquid Eco
p4192
sg43
Nssa(dp4193
g32
VImpulse
p4194
sg39
(dp4195
g41
VLiquid Eco
p4196
sg43
Nssg280
I3435524855
sg35
VPT4M43.195877S
p4197
sa(dp4198
g38
I313138863
sg39
(dp4199
g41
VnV Pistola HCS
p4200
sg43
Nssg44
(lp4201
I1095363701
asg32
VWeaponPickup
p4202
sg35
VPT4M44.1299356S
p4203
sa(dp4204
g38
I4096745987
sg39
(dp4205
g41
VnV Pistola HCS
p4206
sg43
Nssg44
(lp4207
I2758383128
asg32
VWeaponPickup
p4208
sg35
VPT4M44.1299356S
p4209
sa(dp4210
g32
VPlayerSpawn
p4211
sg39
(dp4212
g41
VnV Pistola HCS
p4213
sg43
Nssg35
VPT4M44.1299356S
p4214
sa(dp4215
g201
I313138863
sg202
I00
sg203
I00
sg204
(dp4216
g41
VTL Danoxide
p4217
sg43
Nssg207
(lp4218
I1095363701
asg209
I00
sg210
I01
sg211
I1
sg212
I0
sg213
I1
sg214
(dp4219
Vy
F12.093997999999999
sVx
F-16.65204
sVz
F1.9002409
ssg216
(dp4220
Vy
F11.094615900000001
sVx
F-12.941968900000001
sVz
F1.20874846
ssg218
I00
sg219
(dp4221
g41
VnV RayneHCS
p4222
sg43
Nssg222
(lp4223
sg224
(lp4224
sg228
I00
sg35
VPT4M44.3629211S
p4225
sg32
VDeath
p4226
sg231
I1
sa(dp4227
g38
I4096745987
sg32
VWeaponDrop
p4228
sg180
I3
sg44
(lp4229
I2758383128
asg35
VPT4M44.3639463S
p4230
sg183
I3
sg184
VP0DT0H0M12.0000S
p4231
sg39
(dp4232
g41
VnV RayneHCS
p4233
sg43
Nssa(dp4234
g38
I313138863
sg32
VWeaponDrop
p4235
sg180
I0
sg44
(lp4236
I1095363701
asg35
VPT4M44.3649471S
p4237
sg183
I0
sg184
VP0DT0H0M6.1667S
p4238
sg39
(dp4239
g41
VnV RayneHCS
p4240
sg43
Nssa(dp4241
g38
I2492868984
sg39
(dp4242
g41
VnV Mikwen HCS
p4243
sg43
Nssg44
(lp4244
I2758383128
asg32
VWeaponPickup
p4245
sg35
VPT4M44.7619369S
p4246
sa(dp4247
g38
I2244200496
sg39
(dp4248
g41
VLiquid Eco
p4249
sg43
Nssg44
(lp4250
I2758383128
asg32
VWeaponPickup
p4251
sg35
VPT4M44.8449621S
p4252
sa(dp4253
g32
VImpulse
p4254
sg39
(dp4255
g41
VLiquid Eco
p4256
sg43
Nssg280
I4191318012
sg35
VPT4M44.8462818S
p4257
sa(dp4258
g38
I2492868984
sg32
VWeaponDrop
p4259
sg180
I0
sg44
(lp4260
I2758383128
asg35
VPT4M45.929981S
p4261
sg183
I0
sg184
VP0DT0H0M1.0000S
p4262
sg39
(dp4263
g41
VnV Mikwen HCS
p4264
sg43
Nssa(dp4265
g201
I4096745987
sg202
I00
sg203
I00
sg204
(dp4266
g41
VnV Pistola HCS
p4267
sg43
Nssg207
(lp4268
I2758383128
asg209
I00
sg210
I01
sg211
I1
sg212
I0
sg213
I1
sg214
(dp4269
Vy
F11.1127
sVx
F-9.659808
sVz
F0.78632400000000002
ssg216
(dp4270
Vy
F9.9813980000000004
sVx
F-12.4153948
sVz
F0.62169116700000004
ssg218
I00
sg219
(dp4271
g41
VTL Danoxide
p4272
sg43
Nssg222
(lp4273
sg224
(lp4274
(dp4275
g41
VnV RayneHCS
p4276
sg43
Nsasg228
I01
sg35
VPT4M46.2290182S
p4277
sg32
VDeath
p4278
sg231
I1
sa(dp4279
g32
VMedal
p4280
sg39
(dp4281
g41
VnV Pistola HCS
p4282
sg43
Nssg236
I3261908037
sg35
VPT4M46.2310158S
p4283
sa(dp4284
g38
I313138863
sg32
VWeaponDrop
p4285
sg180
I12
sg44
(lp4286
I1095363701
asg35
VPT4M46.2310158S
p4287
sg183
I3
sg184
VP0DT0H0M9.5833S
p4288
sg39
(dp4289
g41
VTL Danoxide
p4290
sg43
Nssa(dp4291
g38
I4096745987
sg32
VWeaponDrop
p4292
sg180
I6
sg44
(lp4293
I2758383128
asg35
VPT4M46.2310158S
p4294
sg183
I4
sg184
VP0DT0H0M9.9667S
p4295
sg39
(dp4296
g41
VTL Danoxide
p4297
sg43
Nssa(dp4298
g38
I313138863
sg32
VWeaponDrop
p4299
sg180
I0
sg44
(lp4300
I1095363701
asg35
VPT4M47.0280467S
p4301
sg183
I0
sg184
VP0DT0H0M1.0833S
p4302
sg39
(dp4303
g41
VnV Pistola HCS
p4304
sg43
Nssa(dp4305
g38
I2650887244
sg39
(dp4306
g41
VnV Pistola HCS
p4307
sg43
Nssg44
(lp4308
I2758383128
asg32
VWeaponPickup
p4309
sg35
VPT4M47.0280467S
p4310
sa(dp4311
g38
I2244200496
sg32
VWeaponDrop
p4312
sg180
I0
sg44
(lp4313
I2758383128
asg35
VPT4M47.3110597S
p4314
sg183
I0
sg184
VP0DT0H0M2.3167S
p4315
sg39
(dp4316
g41
VLiquid Eco
p4317
sg43
Nssa(dp4318
g32
VImpulse
p4319
sg39
(dp4320
g41
VLiquid Eco
p4321
sg43
Nssg280
I3435524855
sg35
VPT4M47.3120352S
p4322
sa(dp4323
g38
I2244200496
sg39
(dp4324
g41
VLiquid Eco
p4325
sg43
Nssg44
(lp4326
I2758383128
asg32
VWeaponPickup
p4327
sg35
VPT4M48.46208S
p4328
sa(dp4329
g32
VImpulse
p4330
sg39
(dp4331
g41
VLiquid Eco
p4332
sg43
Nssg280
I4191318012
sg35
VPT4M48.46208S
p4333
sa(dp4334
g38
I2244200496
sg32
VWeaponDrop
p4335
sg180
I0
sg44
(lp4336
I2758383128
asg35
VPT4M49.0451309S
p4337
sg183
I0
sg184
VP0DT0H0M0.4333S
p4338
sg39
(dp4339
g41
VLiquid Eco
p4340
sg43
Nssa(dp4341
g32
VImpulse
p4342
sg39
(dp4343
g41
VLiquid Eco
p4344
sg43
Nssg280
I3435524855
sg35
VPT4M49.0451309S
p4345
sa(dp4346
g201
I4096745987
sg202
I00
sg203
I00
sg204
(dp4347
g41
VnV Mikwen HCS
p4348
sg43
Nssg207
(lp4349
I2758383128
asg209
I00
sg210
I01
sg211
I1
sg212
I0
sg213
I1
sg214
(dp4350
Vy
F-2.8005588100000001
sVx
F-5.6045832600000001
sVz
F-0.17180083700000001
ssg216
(dp4351
Vy
F-6.1965170000000001
sVx
F3.27529979
sVz
F1.3382404999999999
ssg218
I00
sg219
(dp4352
g41
VLiquid Eco
p4353
sg43
Nssg222
(lp4354
sg224
(lp4355
(dp4356
g41
VnV eL ToWn
p4357
sg43
Nsasg228
I01
sg35
VPT4M49.2961104S
p4358
sg32
VDeath
p4359
sg231
I1
sa(dp4360
g32
VMedal
p4361
sg39
(dp4362
g41
VnV Mikwen HCS
p4363
sg43
Nssg236
I164204247
sg35
VPT4M49.2971351S
p4364
sa(dp4365
g32
VMedal
p4366
sg39
(dp4367
g41
VnV Mikwen HCS
p4368
sg43
Nssg236
I3261908037
sg35
VPT4M49.2971351S
p4369
sa(dp4370
g38
I313138863
sg32
VWeaponDrop
p4371
sg180
I17
sg44
(lp4372
I1095363701
asg35
VPT4M49.2981333S
p4373
sg183
I13
sg184
VP0DT0H0M7.7667S
p4374
sg39
(dp4375
g41
VLiquid Eco
p4376
sg43
Nssa(dp4377
g38
I4096745987
sg32
VWeaponDrop
p4378
sg180
I32
sg44
(lp4379
I2758383128
asg35
VPT4M49.2981333S
p4380
sg183
I12
sg184
VP0DT0H0M55.2833S
p4381
sg39
(dp4382
g41
VLiquid Eco
p4383
sg43
Nssa(dp4384
g201
I313138863
sg202
I00
sg203
I00
sg204
(dp4385
g41
VTL Spartan HCS
p4386
sg43
Nssg207
(lp4387
I1095363701
asg209
I00
sg210
I01
sg211
I1
sg212
I0
sg213
I1
sg214
(dp4388
Vy
F-2.04684854
sVx
F-1.9332118
sVz
F2.6117234200000001
ssg216
(dp4389
Vy
F-8.0404029999999995
sVx
F-5.2113413800000004
sVz
F-0.050950825200000001
ssg218
I00
sg219
(dp4390
g41
VnV eL ToWn
p4391
sg43
Nssg222
(lp4392
sg224
(lp4393
sg228
I00
sg35
VPT4M50.2791488S
p4394
sg32
VDeath
p4395
sg231
I1
sa(dp4396
g38
I313138863
sg32
VWeaponDrop
p4397
sg180
I0
sg44
(lp4398
I1095363701
asg35
VPT4M50.2811761S
p4399
sg183
I0
sg184
VP0DT0H0M0.8333S
p4400
sg39
(dp4401
g41
VnV eL ToWn
p4402
sg43
Nssa(dp4403
g38
I4096745987
sg32
VWeaponDrop
p4404
sg180
I6
sg44
(lp4405
I2758383128
asg35
VPT4M50.2811761S
p4406
sg183
I1
sg184
VP0DT0H0M14.7000S
p4407
sg39
(dp4408
g41
VnV eL ToWn
p4409
sg43
Nssa(dp4410
g38
I313138863
sg39
(dp4411
g41
VTL StelluR
p4412
sg43
Nssg44
(lp4413
I1095363701
asg32
VWeaponPickup
p4414
sg35
VPT4M50.6801863S
p4415
sa(dp4416
g38
I4096745987
sg39
(dp4417
g41
VTL StelluR
p4418
sg43
Nssg44
(lp4419
I2758383128
asg32
VWeaponPickup
p4420
sg35
VPT4M50.6801863S
p4421
sa(dp4422
g32
VPlayerSpawn
p4423
sg39
(dp4424
g41
VTL StelluR
p4425
sg43
Nssg35
VPT4M50.6801863S
p4426
sa(dp4427
g38
I313138863
sg39
(dp4428
g41
VnV RayneHCS
p4429
sg43
Nssg44
(lp4430
I1095363701
asg32
VWeaponPickup
p4431
sg35
VPT4M52.3802517S
p4432
sa(dp4433
g38
I4096745987
sg39
(dp4434
g41
VnV RayneHCS
p4435
sg43
Nssg44
(lp4436
I2758383128
asg32
VWeaponPickup
p4437
sg35
VPT4M52.3802517S
p4438
sa(dp4439
g32
VPlayerSpawn
p4440
sg39
(dp4441
g41
VnV RayneHCS
p4442
sg43
Nssg35
VPT4M52.3802517S
p4443
sa(dp4444
g201
I313138863
sg202
I00
sg203
I00
sg204
(dp4445
g41
VnV Mikwen HCS
p4446
sg43
Nssg207
(lp4447
I1095363701
asg209
I00
sg210
I01
sg211
I1
sg212
I0
sg213
I1
sg214
(dp4448
Vy
F-3.7675163700000001
sVx
F-0.36540827199999998
sVz
F-0.178438291
ssg216
(dp4449
Vy
F-6.1420050000000002
sVx
F-1.47005677
sVz
F-0.193583846
ssg218
I00
sg219
(dp4450
g41
VTL Spartan HCS
p4451
sg43
Nssg222
(lp4452
sg224
(lp4453
sg228
I00
sg35
VPT4M52.6972427S
p4454
sg32
VDeath
p4455
sg231
I1
sa(dp4456
g32
VMedal
p4457
sg39
(dp4458
g41
VnV Mikwen HCS
p4459
sg43
Nssg236
I2078758684
sg35
VPT4M52.6982487S
p4460
sa(dp4461
g38
I313138863
sg32
VWeaponDrop
p4462
sg180
I16
sg44
(lp4463
I1095363701
asg35
VPT4M52.6992658S
p4464
sg183
I11
sg184
VP0DT0H0M10.1000S
p4465
sg39
(dp4466
g41
VTL Spartan HCS
p4467
sg43
Nssa(dp4468
g38
I4096745987
sg32
VWeaponDrop
p4469
sg180
I0
sg44
(lp4470
I2758383128
asg35
VPT4M52.6992658S
p4471
sg183
I0
sg184
VP0DT0H0M1.3833S
p4472
sg39
(dp4473
g41
VTL Spartan HCS
p4474
sg43
Nssa(dp4475
g38
I313138863
sg39
(dp4476
g41
VTL Danoxide
p4477
sg43
Nssg44
(lp4478
I1095363701
asg32
VWeaponPickup
p4479
sg35
VPT4M54.2463254S
p4480
sa(dp4481
g38
I4096745987
sg39
(dp4482
g41
VTL Danoxide
p4483
sg43
Nssg44
(lp4484
I2758383128
asg32
VWeaponPickup
p4485
sg35
VPT4M54.2463254S
p4486
sa(dp4487
g32
VPlayerSpawn
p4488
sg39
(dp4489
g41
VTL Danoxide
p4490
sg43
Nssg35
VPT4M54.2463254S
p4491
sa(dp4492
g201
I4096745987
sg202
I00
sg203
I00
sg204
(dp4493
g41
VTL StelluR
p4494
sg43
Nssg207
(lp4495
I2758383128
asg209
I00
sg210
I01
sg211
I1
sg212
I0
sg213
I1
sg214
(dp4496
Vy
F-6.4447383900000004
sVx
F7.9196806000000004
sVz
F4.2308073000000004
ssg216
(dp4497
Vy
F-6.2440179999999996
sVx
F-0.59263169999999998
sVz
F-0.20049884900000001
ssg218
I00
sg219
(dp4498
g41
VnV Mikwen HCS
p4499
sg43
Nssg222
(lp4500
sg224
(lp4501
sg228
I01
sg35
VPT4M54.9123276S
p4502
sg32
VDeath
p4503
sg231
I1
sa(dp4504
g32
VMedal
p4505
sg39
(dp4506
g41
VTL StelluR
p4507
sg43
Nssg236
I3261908037
sg35
VPT4M54.9143496S
p4508
sa(dp4509
g38
I313138863
sg32
VWeaponDrop
p4510
sg180
I19
sg44
(lp4511
I1095363701
asg35
VPT4M54.915355S
p4512
sg183
I14
sg184
VP0DT0H0M5.9833S
p4513
sg39
(dp4514
g41
VnV Mikwen HCS
p4515
sg43
Nssa(dp4516
g38
I4096745987
sg32
VWeaponDrop
p4517
sg180
I3
sg44
(lp4518
I2758383128
asg35
VPT4M54.915355S
p4519
sg183
I2
sg184
VP0DT0H0M5.7333S
p4520
sg39
(dp4521
g41
VnV Mikwen HCS
p4522
sg43
Nssa(dp4523
g38
I2244200496
sg39
(dp4524
g41
VnV Pistola HCS
p4525
sg43
Nssg44
(lp4526
I2758383128
asg32
VWeaponPickup
p4527
sg35
VPT4M55.8613623S
p4528
sa(dp4529
g32
VImpulse
p4530
sg39
(dp4531
g41
VnV Pistola HCS
p4532
sg43
Nssg280
I4191318012
sg35
VPT4M55.8623631S
p4533
sa(dp4534
g32
VImpulse
p4535
sg39
(dp4536
g41
VnV Pistola HCS
p4537
sg43
Nssg280
I1039658009
sg35
VPT4M55.8623631S
p4538
sa(dp4539
g38
I313138863
sg39
(dp4540
g41
VLiquid Eco
p4541
sg43
Nssg44
(lp4542
I1095363701
asg32
VWeaponPickup
p4543
sg35
VPT4M57.313444S
p4544
sa(dp4545
g38
I4096745987
sg39
(dp4546
g41
VLiquid Eco
p4547
sg43
Nssg44
(lp4548
I2758383128
asg32
VWeaponPickup
p4549
sg35
VPT4M57.313444S
p4550
sa(dp4551
g32
VPlayerSpawn
p4552
sg39
(dp4553
g41
VLiquid Eco
p4554
sg43
Nssg35
VPT4M57.313444S
p4555
sa(dp4556
g38
I313138863
sg39
(dp4557
g41
VnV eL ToWn
p4558
sg43
Nssg44
(lp4559
I1095363701
asg32
VWeaponPickup
p4560
sg35
VPT4M58.2974803S
p4561
sa(dp4562
g38
I4096745987
sg39
(dp4563
g41
VnV eL ToWn
p4564
sg43
Nssg44
(lp4565
I2758383128
asg32
VWeaponPickup
p4566
sg35
VPT4M58.2974803S
p4567
sa(dp4568
g32
VPlayerSpawn
p4569
sg39
(dp4570
g41
VnV eL ToWn
p4571
sg43
Nssg35
VPT4M58.2974803S
p4572
sa(dp4573
g38
I2244200496
sg39
(dp4574
g41
VTL StelluR
p4575
sg43
Nssg44
(lp4576
I2758383128
asg32
VWeaponPickup
p4577
sg35
VPT4M58.5944942S
p4578
sa(dp4579
g32
VImpulse
p4580
sg39
(dp4581
g41
VTL StelluR
p4582
sg43
Nssg280
I4191318012
sg35
VPT4M58.595493S
p4583
sa(dp4584
g38
I2244200496
sg32
VWeaponDrop
p4585
sg180
I0
sg44
(lp4586
I2758383128
asg35
VPT4M58.87848S
p4587
sg183
I0
sg184
VP0DT0H0M2.8500S
p4588
sg39
(dp4589
g41
VnV Pistola HCS
p4590
sg43
Nssa(dp4591
g32
VImpulse
p4592
sg39
(dp4593
g41
VnV Pistola HCS
p4594
sg43
Nssg280
I3435524855
sg35
VPT4M58.87848S
p4595
sa(dp4596
g38
I313138863
sg39
(dp4597
g41
VTL Spartan HCS
p4598
sg43
Nssg44
(lp4599
I1095363701
asg32
VWeaponPickup
p4600
sg35
VPT5M0.7135751S
p4601
sa(dp4602
g38
I4096745987
sg39
(dp4603
g41
VTL Spartan HCS
p4604
sg43
Nssg44
(lp4605
I2758383128
asg32
VWeaponPickup
p4606
sg35
VPT5M0.7135751S
p4607
sa(dp4608
g32
VPlayerSpawn
p4609
sg39
(dp4610
g41
VTL Spartan HCS
p4611
sg43
Nssg35
VPT5M0.7135751S
p4612
sa(dp4613
g38
I313138863
sg39
(dp4614
g41
VnV Mikwen HCS
p4615
sg43
Nssg44
(lp4616
I1095363701
asg32
VWeaponPickup
p4617
sg35
VPT5M2.9296352S
p4618
sa(dp4619
g38
I4096745987
sg39
(dp4620
g41
VnV Mikwen HCS
p4621
sg43
Nssg44
(lp4622
I2758383128
asg32
VWeaponPickup
p4623
sg35
VPT5M2.9296352S
p4624
sa(dp4625
g32
VPlayerSpawn
p4626
sg39
(dp4627
g41
VnV Mikwen HCS
p4628
sg43
Nssg35
VPT5M2.9306565S
p4629
sa(dp4630
g38
I2244200496
sg39
(dp4631
g41
VnV eL ToWn
p4632
sg43
Nssg44
(lp4633
I2758383128
asg32
VWeaponPickup
p4634
sg35
VPT5M3.0116614S
p4635
sa(dp4636
g32
VImpulse
p4637
sg39
(dp4638
g41
VnV eL ToWn
p4639
sg43
Nssg280
I4191318012
sg35
VPT5M3.0116614S
p4640
sa(dp4641
g201
I4096745987
sg202
I00
sg203
I00
sg204
(dp4642
g41
VTL Spartan HCS
p4643
sg43
Nssg207
(lp4644
I2758383128
asg209
I00
sg210
I01
sg211
I1
sg212
I0
sg213
I1
sg214
(dp4645
Vy
F-18.925748800000001
sVx
F-7.2872133300000002
sVz
F2.0006847400000001
ssg216
(dp4646
Vy
F-14.6755028
sVx
F-4.7632830000000004
sVz
F2.0006847400000001
ssg218
I00
sg219
(dp4647
g41
VnV Pistola HCS
p4648
sg43
Nssg222
(lp4649
sg224
(lp4650
(dp4651
g41
VTL StelluR
p4652
sg43
Nsasg228
I01
sg35
VPT5M3.3296498S
p4653
sg32
VDeath
p4654
sg231
I1
sa(dp4655
g32
VMedal
p4656
sg39
(dp4657
g41
VTL Spartan HCS
p4658
sg43
Nssg236
I3261908037
sg35
VPT5M3.3306535S
p4659
sa(dp4660
g38
I2650887244
sg32
VWeaponDrop
p4661
sg180
I0
sg44
(lp4662
I2758383128
asg35
VPT5M3.3316696S
p4663
sg183
I0
sg184
VP0DT0H0M12.9667S
p4664
sg39
(dp4665
g41
VnV Pistola HCS
p4666
sg43
Nssa(dp4667
g38
I4096745987
sg32
VWeaponDrop
p4668
sg180
I1
sg44
(lp4669
I2758383128
asg35
VPT5M3.3316696S
p4670
sg183
I1
sg184
VP0DT0H0M2.3000S
p4671
sg39
(dp4672
g41
VnV Pistola HCS
p4673
sg43
Nssa(dp4674
g38
I2244200496
sg32
VWeaponDrop
p4675
sg180
I0
sg44
(lp4676
I2758383128
asg35
VPT5M4.6117267S
p4677
sg183
I0
sg184
VP0DT0H0M1.4500S
p4678
sg39
(dp4679
g41
VnV eL ToWn
p4680
sg43
Nssa(dp4681
g32
VImpulse
p4682
sg39
(dp4683
g41
VnV eL ToWn
p4684
sg43
Nssg280
I3435524855
sg35
VPT5M4.6117267S
p4685
sa(dp4686
g38
I2244200496
sg39
(dp4687
g41
VnV eL ToWn
p4688
sg43
Nssg44
(lp4689
I2758383128
asg32
VWeaponPickup
p4690
sg35
VPT5M5.8287696S
p4691
sa(dp4692
g32
VImpulse
p4693
sg39
(dp4694
g41
VnV eL ToWn
p4695
sg43
Nssg280
I4191318012
sg35
VPT5M5.8287696S
p4696
sa(dp4697
g38
I2244200496
sg32
VWeaponDrop
p4698
sg180
I0
sg44
(lp4699
I2758383128
asg35
VPT5M6.6948069S
p4700
sg183
I0
sg184
VP0DT0H0M0.7167S
p4701
sg39
(dp4702
g41
VnV eL ToWn
p4703
sg43
Nssa(dp4704
g32
VImpulse
p4705
sg39
(dp4706
g41
VnV eL ToWn
p4707
sg43
Nssg280
I3435524855
sg35
VPT5M6.6958229S
p4708
sa(dp4709
g38
I2244200496
sg39
(dp4710
g41
VnV eL ToWn
p4711
sg43
Nssg44
(lp4712
I2758383128
asg32
VWeaponPickup
p4713
sg35
VPT5M7.7618206S
p4714
sa(dp4715
g32
VImpulse
p4716
sg39
(dp4717
g41
VnV eL ToWn
p4718
sg43
Nssg280
I4191318012
sg35
VPT5M7.7628207S
p4719
sa(dp4720
g201
I4096745987
sg202
I00
sg203
I00
sg204
(dp4721
g41
VTL Danoxide
p4722
sg43
Nssg207
(lp4723
I2758383128
asg209
I00
sg210
I01
sg211
I1
sg212
I0
sg213
I1
sg214
(dp4724
Vy
F-2.3076763200000001
sVx
F-0.78434110000000001
sVz
F-0.16574366400000001
ssg216
(dp4725
Vy
F9.7427910000000004
sVx
F-6.10211039
sVz
F0.327178776
ssg218
I00
sg219
(dp4726
g41
VnV eL ToWn
p4727
sg43
Nssg222
(lp4728
sg224
(lp4729
(dp4730
g41
VTL Spartan HCS
p4731
sg43
Nsa(dp4732
g41
VTL StelluR
p4733
sg43
Nsasg228
I00
sg35
VPT5M8.745858S
p4734
sg32
VDeath
p4735
sg231
I1
sa(dp4736
g32
VMedal
p4737
sg39
(dp4738
g41
VTL Danoxide
p4739
sg43
Nssg236
I2028249938
sg35
VPT5M8.7468784S
p4740
sa(dp4741
g32
VImpulse
p4742
sg39
(dp4743
g41
VTL Danoxide
p4744
sg43
Nssg280
I2299858338
sg35
VPT5M8.7468784S
p4745
sa(dp4746
g38
I313138863
sg32
VWeaponDrop
p4747
sg180
I0
sg44
(lp4748
I1095363701
asg35
VPT5M8.7478841S
p4749
sg183
I0
sg184
VP0DT0H0M0.7833S
p4750
sg39
(dp4751
g41
VnV eL ToWn
p4752
sg43
Nssa(dp4753
g38
I4096745987
sg32
VWeaponDrop
p4754
sg180
I0
sg44
(lp4755
I2758383128
asg35
VPT5M8.7478841S
p4756
sg183
I0
sg184
VP0DT0H0M6.6667S
p4757
sg39
(dp4758
g41
VnV eL ToWn
p4759
sg43
Nssa(dp4760
g38
I2244200496
sg32
VWeaponDrop
p4761
sg180
I0
sg44
(lp4762
I2758383128
asg35
VPT5M8.7478841S
p4763
sg183
I0
sg184
VP0DT0H0M0.8333S
p4764
sg39
(dp4765
g41
VnV eL ToWn
p4766
sg43
Nssa(dp4767
g32
VImpulse
p4768
sg39
(dp4769
g41
VnV eL ToWn
p4770
sg43
Nssg280
I3435524855
sg35
VPT5M8.7618587S
p4771
sa(dp4772
g38
I313138863
sg32
VWeaponDrop
p4773
sg180
I0
sg44
(lp4774
I1095363701
asg35
VPT5M10.2119144S
p4775
sg183
I0
sg184
VP0DT0H0M0.8667S
p4776
sg39
(dp4777
g41
VTL Spartan HCS
p4778
sg43
Nssa(dp4779
g38
I2133511419
sg39
(dp4780
g41
VTL Spartan HCS
p4781
sg43
Nssg44
(lp4782
I2758383128
asg32
VWeaponPickup
p4783
sg35
VPT5M10.2119144S
p4784
sa(dp4785
g38
I313138863
sg39
(dp4786
g41
VnV Pistola HCS
p4787
sg43
Nssg44
(lp4788
I1095363701
asg32
VWeaponPickup
p4789
sg35
VPT5M11.3469807S
p4790
sa(dp4791
g38
I4096745987
sg39
(dp4792
g41
VnV Pistola HCS
p4793
sg43
Nssg44
(lp4794
I2758383128
asg32
VWeaponPickup
p4795
sg35
VPT5M11.3469807S
p4796
sa(dp4797
g32
VPlayerSpawn
p4798
sg39
(dp4799
g41
VnV Pistola HCS
p4800
sg43
Nssg35
VPT5M11.3469807S
p4801
sa(dp4802
g201
I313138863
sg202
I00
sg203
I00
sg204
(dp4803
g41
VnV RayneHCS
p4804
sg43
Nssg207
(lp4805
I1095363701
asg209
I00
sg210
I01
sg211
I1
sg212
I0
sg213
I1
sg214
(dp4806
Vy
F-13.747560500000001
sVx
F-1.30350721
sVz
F2.4025720000000002
ssg216
(dp4807
Vy
F-13.088116599999999
sVx
F-8.022824
sVz
F2.4766557200000001
ssg218
I00
sg219
(dp4808
g41
VTL StelluR
p4809
sg43
Nssg222
(lp4810
sg224
(lp4811
sg228
I00
sg35
VPT5M12.7800121S
p4812
sg32
VDeath
p4813
sg231
I1
sa(dp4814
g32
VMedal
p4815
sg39
(dp4816
g41
VnV RayneHCS
p4817
sg43
Nssg236
I2028249938
sg35
VPT5M12.7810127S
p4818
sa(dp4819
g32
VImpulse
p4820
sg39
(dp4821
g41
VnV RayneHCS
p4822
sg43
Nssg280
I2299858338
sg35
VPT5M12.7810127S
p4823
sa(dp4824
g38
I313138863
sg32
VWeaponDrop
p4825
sg180
I0
sg44
(lp4826
I1095363701
asg35
VPT5M12.782031S
p4827
sg183
I0
sg184
VP0DT0H0M0.7000S
p4828
sg39
(dp4829
g41
VTL StelluR
p4830
sg43
Nssa(dp4831
g38
I4096745987
sg32
VWeaponDrop
p4832
sg180
I8
sg44
(lp4833
I2758383128
asg35
VPT5M12.782031S
p4834
sg183
I6
sg184
VP0DT0H0M7.3667S
p4835
sg39
(dp4836
g41
VTL StelluR
p4837
sg43
Nssa(dp4838
g38
I2244200496
sg32
VWeaponDrop
p4839
sg180
I11
sg44
(lp4840
I2758383128
asg35
VPT5M12.782031S
p4841
sg183
I6
sg184
VP0DT0H0M14.0333S
p4842
sg39
(dp4843
g41
VTL StelluR
p4844
sg43
Nssa(dp4845
g32
VImpulse
p4846
sg39
(dp4847
g41
VTL StelluR
p4848
sg43
Nssg280
I3435524855
sg35
VPT5M12.7950378S
p4849
sa(dp4850
g201
I313138863
sg202
I00
sg203
I00
sg204
(dp4851
g41
VnV Mikwen HCS
p4852
sg43
Nssg207
(lp4853
I1095363701
asg209
I00
sg210
I01
sg211
I1
sg212
I0
sg213
I1
sg214
(dp4854
Vy
F10.1787033
sVx
F-15.126282700000001
sVz
F1.0776969199999999
ssg216
(dp4855
Vy
F9.7124030000000001
sVx
F-11.5109844
sVz
F1.21658182
ssg218
I00
sg219
(dp4856
g41
VLiquid Eco
p4857
sg43
Nssg222
(lp4858
sg224
(lp4859
sg228
I00
sg35
VPT5M13.8630534S
p4860
sg32
VDeath
p4861
sg231
I1
sa(dp4862
g38
I313138863
sg32
VWeaponDrop
p4863
sg180
I5
sg44
(lp4864
I1095363701
asg35
VPT5M13.8650791S
p4865
sg183
I5
sg184
VP0DT0H0M4.9333S
p4866
sg39
(dp4867
g41
VLiquid Eco
p4868
sg43
Nssa(dp4869
g38
I4096745987
sg32
VWeaponDrop
p4870
sg180
I2
sg44
(lp4871
I2758383128
asg35
VPT5M13.8650791S
p4872
sg183
I0
sg184
VP0DT0H0M11.6167S
p4873
sg39
(dp4874
g41
VLiquid Eco
p4875
sg43
Nssa(dp4876
g38
I2244200496
sg39
(dp4877
g41
VnV Pistola HCS
p4878
sg43
Nssg44
(lp4879
I2758383128
asg32
VWeaponPickup
p4880
sg35
VPT5M15.4111149S
p4881
sa(dp4882
g32
VImpulse
p4883
sg39
(dp4884
g41
VnV Pistola HCS
p4885
sg43
Nssg280
I4191318012
sg35
VPT5M15.4121371S
p4886
sa(dp4887
g201
I2133511419
sg202
I00
sg203
I00
sg204
(dp4888
g41
VTL Spartan HCS
p4889
sg43
Nssg207
(lp4890
I2758383128
asg209
I00
sg210
I01
sg211
I1
sg212
I0
sg213
I1
sg214
(dp4891
Vy
F-12.370756099999999
sVx
F-12.163970000000001
sVz
F1.3191409999999999
ssg216
(dp4892
Vy
F-12.8313942
sVx
F-8.8002040000000008
sVz
F2.0006847400000001
ssg218
I00
sg219
(dp4893
g41
VnV RayneHCS
p4894
sg43
Nssg222
(lp4895
sg224
(lp4896
(dp4897
g41
VTL StelluR
p4898
sg43
Nsasg228
I00
sg35
VPT5M15.9792559S
p4899
sg32
VDeath
p4900
sg231
I1
sa(dp4901
g38
I313138863
sg32
VWeaponDrop
p4902
sg180
I24
sg44
(lp4903
I1095363701
asg35
VPT5M15.9811598S
p4904
sg183
I12
sg184
VP0DT0H0M7.3500S
p4905
sg39
(dp4906
g41
VnV RayneHCS
p4907
sg43
Nssa(dp4908
g38
I4096745987
sg32
VWeaponDrop
p4909
sg180
I5
sg44
(lp4910
I2758383128
asg35
VPT5M15.9811598S
p4911
sg183
I4
sg184
VP0DT0H0M16.2500S
p4912
sg39
(dp4913
g41
VnV RayneHCS
p4914
sg43
Nssa(dp4915
g38
I313138863
sg39
(dp4916
g41
VnV eL ToWn
p4917
sg43
Nssg44
(lp4918
I1095363701
asg32
VWeaponPickup
p4919
sg35
VPT5M16.7631666S
p4920
sa(dp4921
g38
I4096745987
sg39
(dp4922
g41
VnV eL ToWn
p4923
sg43
Nssg44
(lp4924
I2758383128
asg32
VWeaponPickup
p4925
sg35
VPT5M16.7631666S
p4926
sa(dp4927
g32
VPlayerSpawn
p4928
sg39
(dp4929
g41
VnV eL ToWn
p4930
sg43
Nssg35
VPT5M16.7631666S
p4931
sa(dp4932
g38
I2244200496
sg32
VWeaponDrop
p4933
sg180
I0
sg44
(lp4934
I2758383128
asg35
VPT5M17.0282004S
p4935
sg183
I0
sg184
VP0DT0H0M1.4667S
p4936
sg39
(dp4937
g41
VnV Pistola HCS
p4938
sg43
Nssa(dp4939
g32
VImpulse
p4940
sg39
(dp4941
g41
VnV Pistola HCS
p4942
sg43
Nssg280
I3435524855
sg35
VPT5M17.0291765S
p4943
sa(dp4944
g38
I2244200496
sg39
(dp4945
g41
VTL Spartan HCS
p4946
sg43
Nssg44
(lp4947
I2758383128
asg32
VWeaponPickup
p4948
sg35
VPT5M17.2951866S
p4949
sa(dp4950
g32
VImpulse
p4951
sg39
(dp4952
g41
VTL Spartan HCS
p4953
sg43
Nssg280
I4191318012
sg35
VPT5M17.2951866S
p4954
sa(dp4955
g38
I2244200496
sg39
(dp4956
g41
VnV Pistola HCS
p4957
sg43
Nssg44
(lp4958
I2758383128
asg32
VWeaponPickup
p4959
sg35
VPT5M17.6452S
p4960
sa(dp4961
g32
VImpulse
p4962
sg39
(dp4963
g41
VnV Pistola HCS
p4964
sg43
Nssg280
I4191318012
sg35
VPT5M17.6452S
p4965
sa(dp4966
g38
I2244200496
sg32
VWeaponDrop
p4967
sg180
I0
sg44
(lp4968
I2758383128
asg35
VPT5M17.6782319S
p4969
sg183
I0
sg184
VP0DT0H0M0.2167S
p4970
sg39
(dp4971
g41
VTL Spartan HCS
p4972
sg43
Nssa(dp4973
g32
VImpulse
p4974
sg39
(dp4975
g41
VTL Spartan HCS
p4976
sg43
Nssg280
I3435524855
sg35
VPT5M17.679205S
p4977
sa(dp4978
g38
I313138863
sg39
(dp4979
g41
VTL StelluR
p4980
sg43
Nssg44
(lp4981
I1095363701
asg32
VWeaponPickup
p4982
sg35
VPT5M20.7963444S
p4983
sa(dp4984
g38
I4096745987
sg39
(dp4985
g41
VTL StelluR
p4986
sg43
Nssg44
(lp4987
I2758383128
asg32
VWeaponPickup
p4988
sg35
VPT5M20.7963444S
p4989
sa(dp4990
g32
VPlayerSpawn
p4991
sg39
(dp4992
g41
VTL StelluR
p4993
sg43
Nssg35
VPT5M20.7963444S
p4994
sa(dp4995
g38
I313138863
sg32
VWeaponDrop
p4996
sg180
I0
sg44
(lp4997
I1095363701
asg35
VPT5M21.7613577S
p4998
sg183
I0
sg184
VP0DT0H0M1.0167S
p4999
sg39
(dp5000
g41
VnV eL ToWn
p5001
sg43
Nssa(dp5002
g38
I524558978
sg39
(dp5003
g41
VnV eL ToWn
p5004
sg43
Nssg44
(lp5005
I2758383128
asg32
VWeaponPickup
p5006
sg35
VPT5M21.7613577S
p5007
sa(dp5008
g38
I313138863
sg39
(dp5009
g41
VLiquid Eco
p5010
sg43
Nssg44
(lp5011
I1095363701
asg32
VWeaponPickup
p5012
sg35
VPT5M21.8793632S
p5013
sa(dp5014
g38
I4096745987
sg39
(dp5015
g41
VLiquid Eco
p5016
sg43
Nssg44
(lp5017
I2758383128
asg32
VWeaponPickup
p5018
sg35
VPT5M21.8807112S
p5019
sa(dp5020
g32
VPlayerSpawn
p5021
sg39
(dp5022
g41
VLiquid Eco
p5023
sg43
Nssg35
VPT5M21.8807112S
p5024
sa(dp5025
g38
I313138863
sg32
VWeaponDrop
p5026
sg180
I0
sg44
(lp5027
I1095363701
asg35
VPT5M22.5444119S
p5028
sg183
I0
sg184
VP0DT0H0M0.6333S
p5029
sg39
(dp5030
g41
VTL StelluR
p5031
sg43
Nssa(dp5032
g38
I2650887244
sg39
(dp5033
g41
VTL StelluR
p5034
sg43
Nssg44
(lp5035
I2758383128
asg32
VWeaponPickup
p5036
sg35
VPT5M22.545402S
p5037
sa(dp5038
g38
I313138863
sg39
(dp5039
g41
VnV RayneHCS
p5040
sg43
Nssg44
(lp5041
I1095363701
asg32
VWeaponPickup
p5042
sg35
VPT5M23.9964689S
p5043
sa(dp5044
g38
I4096745987
sg39
(dp5045
g41
VnV RayneHCS
p5046
sg43
Nssg44
(lp5047
I2758383128
asg32
VWeaponPickup
p5048
sg35
VPT5M23.9964689S
p5049
sa(dp5050
g32
VPlayerSpawn
p5051
sg39
(dp5052
g41
VnV RayneHCS
p5053
sg43
Nssg35
VPT5M23.9974664S
p5054
sa(dp5055
g38
I4096745987
sg32
VWeaponDrop
p5056
sg180
I13
sg44
(lp5057
I2758383128
asg35
VPT5M26.9615795S
p5058
sg183
I8
sg184
VP0DT0H0M18.0667S
p5059
sg39
(dp5060
g41
VTL Spartan HCS
p5061
sg43
Nssa(dp5062
g38
I313138863
sg39
(dp5063
g41
VTL Spartan HCS
p5064
sg43
Nssg44
(lp5065
I1095363701
asg32
VWeaponPickup
p5066
sg35
VPT5M26.9615795S
p5067
sa(dp5068
g38
I2244200496
sg39
(dp5069
g41
VTL Spartan HCS
p5070
sg43
Nssg44
(lp5071
I2758383128
asg32
VWeaponPickup
p5072
sg35
VPT5M27.9116122S
p5073
sa(dp5074
g32
VImpulse
p5075
sg39
(dp5076
g41
VTL Spartan HCS
p5077
sg43
Nssg280
I4191318012
sg35
VPT5M27.9125939S
p5078
sa(dp5079
g38
I2244200496
sg32
VWeaponDrop
p5080
sg180
I0
sg44
(lp5081
I2758383128
asg35
VPT5M28.7776453S
p5082
sg183
I0
sg184
VP0DT0H0M0.7000S
p5083
sg39
(dp5084
g41
VTL Spartan HCS
p5085
sg43
Nssa(dp5086
g32
VImpulse
p5087
sg39
(dp5088
g41
VTL Spartan HCS
p5089
sg43
Nssg280
I3435524855
sg35
VPT5M28.7786272S
p5090
sa(dp5091
g201
I3168248199
sg202
I00
sg203
I00
sg204
(dp5092
g41
VTL Danoxide
p5093
sg43
Nssg207
(lp5094
sg209
I00
sg210
I00
sg211
I1
sg212
I0
sg213
I1
sg214
(dp5095
Vy
F0.26797923400000001
sVx
F11.122004499999999
sVz
F2.0877947799999999
ssg216
(dp5096
Vy
F0.45624744900000003
sVx
F11.423611599999999
sVz
F1.7879373999999999
ssg218
I01
sg219
(dp5097
g41
VnV eL ToWn
p5098
sg43
Nssg222
(lp5099
sg224
(lp5100
(dp5101
g41
VLiquid Eco
p5102
sg43
Nsasg228
I00
sg35
VPT5M31.3957271S
p5103
sg32
VDeath
p5104
sg231
I1
sa(dp5105
g32
VMedal
p5106
sg39
(dp5107
g41
VTL Danoxide
p5108
sg43
Nssg236
I298813630
sg35
VPT5M31.3967276S
p5109
sa(dp5110
g38
I4096745987
sg32
VWeaponDrop
p5111
sg180
I0
sg44
(lp5112
I2758383128
asg35
VPT5M31.3977537S
p5113
sg183
I0
sg184
VP0DT0H0M10.4167S
p5114
sg39
(dp5115
g41
VnV eL ToWn
p5116
sg43
Nssa(dp5117
g38
I524558978
sg32
VWeaponDrop
p5118
sg180
I1
sg44
(lp5119
I2758383128
asg35
VPT5M31.3977537S
p5120
sg183
I0
sg184
VP0DT0H0M3.2000S
p5121
sg39
(dp5122
g41
VnV eL ToWn
p5123
sg43
Nssa(dp5124
g201
I4096745987
sg202
I00
sg203
I00
sg204
(dp5125
g41
VnV RayneHCS
p5126
sg43
Nssg207
(lp5127
I2758383128
asg209
I00
sg210
I01
sg211
I1
sg212
I0
sg213
I1
sg214
(dp5128
Vy
F-5.0619936000000001
sVx
F-19.071384399999999
sVz
F2.3861103099999998
ssg216
(dp5129
Vy
F-13.079662300000001
sVx
F-8.5322610000000001
sVz
F-0.091616929999999999
ssg218
I00
sg219
(dp5130
g41
VTL StelluR
p5131
sg43
Nssg222
(lp5132
sg224
(lp5133
(dp5134
g41
VnV Mikwen HCS
p5135
sg43
Nsasg228
I01
sg35
VPT5M32.4457729S
p5136
sg32
VDeath
p5137
sg231
I1
sa(dp5138
g32
VMedal
p5139
sg39
(dp5140
g41
VnV RayneHCS
p5141
sg43
Nssg236
I2838259753
sg35
VPT5M32.4457729S
p5142
sa(dp5143
g32
VImpulse
p5144
sg39
(dp5145
g41
VnV RayneHCS
p5146
sg43
Nssg280
I2556889090
sg35
VPT5M32.4467698S
p5147
sa(dp5148
g32
VMedal
p5149
sg39
(dp5150
g41
VnV RayneHCS
p5151
sg43
Nssg236
I3261908037
sg35
VPT5M32.4477938S
p5152
sa(dp5153
g38
I2650887244
sg32
VWeaponDrop
p5154
sg180
I0
sg44
(lp5155
I2758383128
asg35
VPT5M32.4487936S
p5156
sg183
I0
sg184
VP0DT0H0M1.6500S
p5157
sg39
(dp5158
g41
VTL StelluR
p5159
sg43
Nssa(dp5160
g38
I4096745987
sg32
VWeaponDrop
p5161
sg180
I9
sg44
(lp5162
I2758383128
asg35
VPT5M32.4487936S
p5163
sg183
I4
sg184
VP0DT0H0M9.3667S
p5164
sg39
(dp5165
g41
VTL StelluR
p5166
sg43
Nssa(dp5167
g38
I313138863
sg32
VWeaponDrop
p5168
sg180
I0
sg44
(lp5169
I1095363701
asg35
VPT5M32.6277942S
p5170
sg183
I0
sg184
VP0DT0H0M3.8833S
p5171
sg39
(dp5172
g41
VTL Spartan HCS
p5173
sg43
Nssa(dp5174
g38
I4096745987
sg39
(dp5175
g41
VTL Spartan HCS
p5176
sg43
Nssg44
(lp5177
I2758383128
asg32
VWeaponPickup
p5178
sg35
VPT5M32.6287762S
p5179
sa(dp5180
g38
I4096745987
sg32
VWeaponDrop
p5181
sg180
I5
sg44
(lp5182
I2758383128
asg35
VPT5M36.0449367S
p5183
sg183
I2
sg184
VP0DT0H0M10.0333S
p5184
sg39
(dp5185
g41
VnV RayneHCS
p5186
sg43
Nssa(dp5187
g38
I424645655
sg39
(dp5188
g41
VnV RayneHCS
p5189
sg43
Nssg44
(lp5190
I1327094800
asg32
VWeaponPickup
p5191
sg35
VPT5M36.0449367S
p5192
sa(dp5193
g38
I313138863
sg39
(dp5194
g41
VnV eL ToWn
p5195
sg43
Nssg44
(lp5196
I1095363701
asg32
VWeaponPickup
p5197
sg35
VPT5M39.4130599S
p5198
sa(dp5199
g38
I4096745987
sg39
(dp5200
g41
VnV eL ToWn
p5201
sg43
Nssg44
(lp5202
I2758383128
asg32
VWeaponPickup
p5203
sg35
VPT5M39.4130599S
p5204
sa(dp5205
g32
VPlayerSpawn
p5206
sg39
(dp5207
g41
VnV eL ToWn
p5208
sg43
Nssg35
VPT5M39.4130599S
p5209
sa(dp5210
g38
I313138863
sg39
(dp5211
g41
VTL StelluR
p5212
sg43
Nssg44
(lp5213
I1095363701
asg32
VWeaponPickup
p5214
sg35
VPT5M40.4630765S
p5215
sa(dp5216
g38
I4096745987
sg39
(dp5217
g41
VTL StelluR
p5218
sg43
Nssg44
(lp5219
I2758383128
asg32
VWeaponPickup
p5220
sg35
VPT5M40.4630765S
p5221
sa(dp5222
g32
VPlayerSpawn
p5223
sg39
(dp5224
g41
VTL StelluR
p5225
sg43
Nssg35
VPT5M40.4630765S
p5226
sa(dp5227
g201
I4096745987
sg202
I00
sg203
I00
sg204
(dp5228
g41
VnV Mikwen HCS
p5229
sg43
Nssg207
(lp5230
I2758383128
asg209
I00
sg210
I01
sg211
I1
sg212
I0
sg213
I1
sg214
(dp5231
Vy
F4.17058325
sVx
F-14.769729999999999
sVz
F0.55812390000000001
ssg216
(dp5232
Vy
F-1.98165751
sVx
F5.8183020000000001
sVz
F0.651280046
ssg218
I00
sg219
(dp5233
g41
VLiquid Eco
p5234
sg43
Nssg222
(lp5235
sg224
(lp5236
sg228
I01
sg35
VPT5M40.6460825S
p5237
sg32
VDeath
p5238
sg231
I1
sa(dp5239
g32
VMedal
p5240
sg39
(dp5241
g41
VnV Mikwen HCS
p5242
sg43
Nssg236
I3261908037
sg35
VPT5M40.6480821S
p5243
sa(dp5244
g38
I313138863
sg32
VWeaponDrop
p5245
sg180
I0
sg44
(lp5246
I1095363701
asg35
VPT5M40.6491069S
p5247
sg183
I0
sg184
VP0DT0H0M3.1833S
p5248
sg39
(dp5249
g41
VLiquid Eco
p5250
sg43
Nssa(dp5251
g38
I4096745987
sg32
VWeaponDrop
p5252
sg180
I3
sg44
(lp5253
I2758383128
asg35
VPT5M40.6491069S
p5254
sg183
I0
sg184
VP0DT0H0M15.5833S
p5255
sg39
(dp5256
g41
VLiquid Eco
p5257
sg43
Nssa(dp5258
g38
I2244200496
sg39
(dp5259
g41
VTL Spartan HCS
p5260
sg43
Nssg44
(lp5261
I2758383128
asg32
VWeaponPickup
p5262
sg35
VPT5M40.8110892S
p5263
sa(dp5264
g32
VImpulse
p5265
sg39
(dp5266
g41
VTL Spartan HCS
p5267
sg43
Nssg280
I4191318012
sg35
VPT5M40.8121097S
p5268
sa(dp5269
g201
I2244200496
sg202
I00
sg203
I00
sg204
(dp5270
g41
VnV Pistola HCS
p5271
sg43
Nssg207
(lp5272
I2758383128
asg209
I00
sg210
I01
sg211
I1
sg212
I0
sg213
I1
sg214
(dp5273
Vy
F15.457371699999999
sVx
F-5.1826367400000004
sVz
F2.25351524
ssg216
(dp5274
Vy
F10.759934400000001
sVx
F-0.065215880000000004
sVz
F1.8552861199999999
ssg218
I00
sg219
(dp5275
g41
VTL Danoxide
p5276
sg43
Nssg222
(lp5277
sg224
(lp5278
(dp5279
g41
VnV eL ToWn
p5280
sg43
Nsasg228
I01
sg35
VPT5M48.5963878S
p5281
sg32
VDeath
p5282
sg231
I1
sa(dp5283
g32
VImpulse
p5284
sg39
(dp5285
g41
VnV Pistola HCS
p5286
sg43
Nssg280
I3514632335
sg35
VPT5M48.5974072S
p5287
sa(dp5288
g32
VMedal
p5289
sg39
(dp5290
g41
VnV Pistola HCS
p5291
sg43
Nssg236
I2299864088
sg35
VPT5M48.5974072S
p5292
sa(dp5293
g32
VMedal
p5294
sg39
(dp5295
g41
VnV Pistola HCS
p5296
sg43
Nssg236
I3261908037
sg35
VPT5M48.5974072S
p5297
sa(dp5298
g38
I313138863
sg32
VWeaponDrop
p5299
sg180
I15
sg44
(lp5300
I1095363701
asg35
VPT5M48.5974072S
p5301
sg183
I7
sg184
VP0DT0H0M9.1000S
p5302
sg39
(dp5303
g41
VTL Danoxide
p5304
sg43
Nssa(dp5305
g38
I4096745987
sg32
VWeaponDrop
p5306
sg180
I25
sg44
(lp5307
I2758383128
asg35
VPT5M48.5974072S
p5308
sg183
I9
sg184
VP0DT0H0M45.2500S
p5309
sg39
(dp5310
g41
VTL Danoxide
p5311
sg43
Nssa(dp5312
g38
I313138863
sg39
(dp5313
g41
VLiquid Eco
p5314
sg43
Nssg44
(lp5315
I1095363701
asg32
VWeaponPickup
p5316
sg35
VPT5M48.6634133S
p5317
sa(dp5318
g38
I4096745987
sg39
(dp5319
g41
VLiquid Eco
p5320
sg43
Nssg44
(lp5321
I2758383128
asg32
VWeaponPickup
p5322
sg35
VPT5M48.6634133S
p5323
sa(dp5324
g32
VPlayerSpawn
p5325
sg39
(dp5326
g41
VLiquid Eco
p5327
sg43
Nssg35
VPT5M48.6634133S
p5328
sa(dp5329
g201
I3190813201
sg202
I00
sg203
I00
sg204
(dp5330
g41
VnV Mikwen HCS
p5331
sg43
Nssg207
(lp5332
sg209
I00
sg210
I01
sg211
I1
sg212
I0
sg213
I1
sg214
(dp5333
Vy
F-10.5622454
sVx
F-8.4177669999999996
sVz
F3.4251785300000002
ssg216
(dp5334
Vy
F-10.425762199999999
sVx
F-7.6086720000000003
sVz
F2.0006849999999998
ssg218
I00
sg219
(dp5335
g41
VTL StelluR
p5336
sg43
Nssg222
(lp5337
sg224
(lp5338
(dp5339
g41
VnV RayneHCS
p5340
sg43
Nsasg228
I00
sg35
VPT5M49.1294094S
p5341
sg32
VDeath
p5342
sg231
I1
sa(dp5343
g38
I313138863
sg32
VWeaponDrop
p5344
sg180
I0
sg44
(lp5345
I1095363701
asg35
VPT5M49.1314088S
p5346
sg183
I0
sg184
VP0DT0H0M0.6667S
p5347
sg39
(dp5348
g41
VTL StelluR
p5349
sg43
Nssa(dp5350
g38
I4096745987
sg32
VWeaponDrop
p5351
sg180
I2
sg44
(lp5352
I2758383128
asg35
VPT5M49.1314088S
p5353
sg183
I1
sg184
VP0DT0H0M8.0000S
p5354
sg39
(dp5355
g41
VTL StelluR
p5356
sg43
Nssa(dp5357
g38
I2244200496
sg32
VWeaponDrop
p5358
sg180
I13
sg44
(lp5359
I2758383128
asg35
VPT5M49.7944575S
p5360
sg183
I5
sg184
VP0DT0H0M32.0000S
p5361
sg39
(dp5362
g41
VnV Pistola HCS
p5363
sg43
Nssa(dp5364
g32
VImpulse
p5365
sg39
(dp5366
g41
VnV Pistola HCS
p5367
sg43
Nssg280
I3435524855
sg35
VPT5M49.7954693S
p5368
sa(dp5369
g38
I2244200496
sg39
(dp5370
g41
VnV Pistola HCS
p5371
sg43
Nssg44
(lp5372
I2758383128
asg32
VWeaponPickup
p5373
sg35
VPT5M50.4114845S
p5374
sa(dp5375
g32
VImpulse
p5376
sg39
(dp5377
g41
VnV Pistola HCS
p5378
sg43
Nssg280
I4191318012
sg35
VPT5M50.4124577S
p5379
sa(dp5380
g201
I4106030681
sg202
I00
sg203
I00
sg204
(dp5381
g41
VLiquid Eco
p5382
sg43
Nssg207
(lp5383
sg209
I00
sg210
I01
sg211
I1
sg212
I0
sg213
I1
sg214
(dp5384
Vy
F-5.7569856599999998
sVx
F8.9722340000000003
sVz
F3.1308724899999998
ssg216
(dp5385
Vy
F-14.112628900000001
sVx
F-4.0517716400000001
sVz
F2.0006847400000001
ssg218
I00
sg219
(dp5386
g41
VnV Mikwen HCS
p5387
sg43
Nssg222
(lp5388
sg224
(lp5389
sg228
I00
sg35
VPT5M53.3955715S
p5390
sg32
VDeath
p5391
sg231
I1
sa(dp5392
g38
I313138863
sg32
VWeaponDrop
p5393
sg180
I21
sg44
(lp5394
I1095363701
asg35
VPT5M53.3975942S
p5395
sg183
I15
sg184
VP0DT0H0M14.1000S
p5396
sg39
(dp5397
g41
VnV Mikwen HCS
p5398
sg43
Nssa(dp5399
g38
I4096745987
sg32
VWeaponDrop
p5400
sg180
I25
sg44
(lp5401
I2758383128
asg35
VPT5M53.3975942S
p5402
sg183
I14
sg184
VP0DT0H0M36.3667S
p5403
sg39
(dp5404
g41
VnV Mikwen HCS
p5405
sg43
Nssa(dp5406
g38
I2244200496
sg32
VWeaponDrop
p5407
sg180
I2
sg44
(lp5408
I2758383128
asg35
VPT5M54.9776381S
p5409
sg183
I0
sg184
VP0DT0H0M14.0000S
p5410
sg39
(dp5411
g41
VTL Spartan HCS
p5412
sg43
Nssa(dp5413
g32
VImpulse
p5414
sg39
(dp5415
g41
VTL Spartan HCS
p5416
sg43
Nssg280
I3435524855
sg35
VPT5M54.9786337S
p5417
sa(dp5418
g38
I313138863
sg39
(dp5419
g41
VTL Danoxide
p5420
sg43
Nssg44
(lp5421
I1095363701
asg32
VWeaponPickup
p5422
sg35
VPT5M56.6126965S
p5423
sa(dp5424
g38
I4096745987
sg39
(dp5425
g41
VTL Danoxide
p5426
sg43
Nssg44
(lp5427
I2758383128
asg32
VWeaponPickup
p5428
sg35
VPT5M56.6126965S
p5429
sa(dp5430
g32
VPlayerSpawn
p5431
sg39
(dp5432
g41
VTL Danoxide
p5433
sg43
Nssg35
VPT5M56.6126965S
p5434
sa(dp5435
g201
I4096745987
sg202
I00
sg203
I00
sg204
(dp5436
g41
VnV eL ToWn
p5437
sg43
Nssg207
(lp5438
I2758383128
asg209
I00
sg210
I01
sg211
I1
sg212
I0
sg213
I1
sg214
(dp5439
Vy
F0.090836360000000005
sVx
F7.3828889999999996
sVz
F3.1342120000000002
ssg216
(dp5440
Vy
F-3.7078688099999999
sVx
F5.9376889999999998
sVz
F4.1454589999999998
ssg218
I00
sg219
(dp5441
g41
VLiquid Eco
p5442
sg43
Nssg222
(lp5443
sg224
(lp5444
sg228
I01
sg35
VPT5M56.7467022S
p5445
sg32
VDeath
p5446
sg231
I1
sa(dp5447
g32
VMedal
p5448
sg39
(dp5449
g41
VnV RayneHCS
p5450
sg43
Nssg236
I824733727
sg35
VPT5M56.7467022S
p5451
sa(dp5452
g32
VMedal
p5453
sg39
(dp5454
g41
VnV eL ToWn
p5455
sg43
Nssg236
I3261908037
sg35
VPT5M56.7487215S
p5456
sa(dp5457
g38
I313138863
sg32
VWeaponDrop
p5458
sg180
I0
sg44
(lp5459
I1095363701
asg35
VPT5M56.7497035S
p5460
sg183
I0
sg184
VP0DT0H0M0.4833S
p5461
sg39
(dp5462
g41
VLiquid Eco
p5463
sg43
Nssa(dp5464
g38
I4096745987
sg32
VWeaponDrop
p5465
sg180
I6
sg44
(lp5466
I2758383128
asg35
VPT5M56.7497035S
p5467
sg183
I2
sg184
VP0DT0H0M7.6000S
p5468
sg39
(dp5469
g41
VLiquid Eco
p5470
sg43
Nssa(dp5471
g38
I313138863
sg39
(dp5472
g41
VTL StelluR
p5473
sg43
Nssg44
(lp5474
I1095363701
asg32
VWeaponPickup
p5475
sg35
VPT5M57.1467494S
p5476
sa(dp5477
g38
I4096745987
sg39
(dp5478
g41
VTL StelluR
p5479
sg43
Nssg44
(lp5480
I2758383128
asg32
VWeaponPickup
p5481
sg35
VPT5M57.1467494S
p5482
sa(dp5483
g32
VPlayerSpawn
p5484
sg39
(dp5485
g41
VTL StelluR
p5486
sg43
Nssg35
VPT5M57.1467494S
p5487
sa(dp5488
g201
I424645655
sg202
I00
sg203
I00
sg204
(dp5489
g41
VnV RayneHCS
p5490
sg43
Nssg207
(lp5491
I1327094800
asg209
I00
sg210
I01
sg211
I1
sg212
I0
sg213
I1
sg214
(dp5492
Vy
F-14.6242266
sVx
F-3.7617397299999999
sVz
F2.7374960000000002
ssg216
(dp5493
Vy
F-11.961806299999999
sVx
F3.3109495600000001
sVz
F2.0298705099999999
ssg218
I00
sg219
(dp5494
g41
VTL Spartan HCS
p5495
sg43
Nssg222
(lp5496
sg224
(lp5497
(dp5498
g41
VnV Pistola HCS
p5499
sg43
Nsasg228
I01
sg35
VPT5M57.1967412S
p5500
sg32
VDeath
p5501
sg231
I1
sa(dp5502
g32
VMedal
p5503
sg39
(dp5504
g41
VnV RayneHCS
p5505
sg43
Nssg236
I3261908037
sg35
VPT5M57.1977558S
p5506
sa(dp5507
g38
I2133511419
sg32
VWeaponDrop
p5508
sg180
I16
sg44
(lp5509
I2758383128
asg35
VPT5M57.1977558S
p5510
sg183
I6
sg184
VP0DT0H0M13.4667S
p5511
sg39
(dp5512
g41
VTL Spartan HCS
p5513
sg43
Nssa(dp5514
g38
I4096745987
sg32
VWeaponDrop
p5515
sg180
I0
sg44
(lp5516
I2758383128
asg35
VPT5M57.1977558S
p5517
sg183
I0
sg184
VP0DT0H0M5.2833S
p5518
sg39
(dp5519
g41
VTL Spartan HCS
p5520
sg43
Nssa(dp5521
g38
I313138863
sg39
(dp5522
g41
VnV Mikwen HCS
p5523
sg43
Nssg44
(lp5524
I1095363701
asg32
VWeaponPickup
p5525
sg35
VPT6M1.4128811S
p5526
sa(dp5527
g38
I4096745987
sg39
(dp5528
g41
VnV Mikwen HCS
p5529
sg43
Nssg44
(lp5530
I2758383128
asg32
VWeaponPickup
p5531
sg35
VPT6M1.4128811S
p5532
sa(dp5533
g32
VPlayerSpawn
p5534
sg39
(dp5535
g41
VnV Mikwen HCS
p5536
sg43
Nssg35
VPT6M1.4128811S
p5537
sa(dp5538
g32
VMedal
p5539
sg39
(dp5540
g41
VnV RayneHCS
p5541
sg43
Nssg236
I2380717523
sg35
VPT6M2.0449337S
p5542
sa(dp5543
g32
VMedal
p5544
sg39
(dp5545
g41
VnV eL ToWn
p5546
sg43
Nssg236
I2380717523
sg35
VPT6M2.0449337S
p5547
sa(dp5548
g32
VImpulse
p5549
sg39
(dp5550
g41
VnV RayneHCS
p5551
sg43
Nssg280
I1063951891
sg35
VPT6M2.0449337S
p5552
sa(dp5553
g32
VImpulse
p5554
sg39
(dp5555
g41
VnV eL ToWn
p5556
sg43
Nssg280
I1063951891
sg35
VPT6M2.0449337S
p5557
sa(dp5558
g32
VMedal
p5559
sg39
(dp5560
g41
VnV Pistola HCS
p5561
sg43
Nssg236
I3886151616
sg35
VPT6M2.9949589S
p5562
sa(dp5563
g32
VMedal
p5564
sg39
(dp5565
g41
VnV eL ToWn
p5566
sg43
Nssg236
I1494478183
sg35
VPT6M2.9949589S
p5567
sa(dp5568
g32
VImpulse
p5569
sg39
(dp5570
g41
VnV Pistola HCS
p5571
sg43
Nssg280
I2944278681
sg35
VPT6M2.9949589S
p5572
sa(dp5573
g38
I2244200496
sg32
VWeaponDrop
p5574
sg180
I6
sg44
(lp5575
I2758383128
asg35
VPT6M2.9959414S
p5576
sg183
I4
sg184
VP0DT0H0M12.4333S
p5577
sg39
(dp5578
g41
VnV Pistola HCS
p5579
sg43
Nssa(dp5580
g201
I4106030681
sg202
I00
sg203
I00
sg204
(dp5581
g41
VTL StelluR
p5582
sg43
Nssg207
(lp5583
sg209
I00
sg210
I01
sg211
I1
sg212
I0
sg213
I1
sg214
(dp5584
Vy
F-4.3357882500000002
sVx
F4.7275790000000004
sVz
F0.98298099999999999
ssg216
(dp5585
Vy
F-10.510245299999999
sVx
F2.0456261599999999
sVz
F1.8856254800000001
ssg218
I00
sg219
(dp5586
g41
VnV RayneHCS
p5587
sg43
Nssg222
(lp5588
sg224
(lp5589
(dp5590
g41
VTL Danoxide
p5591
sg43
Nsasg228
I00
sg35
VPT6M3.3619554S
p5592
sg32
VDeath
p5593
sg231
I1
sa(dp5594
g38
I313138863
sg32
VWeaponDrop
p5595
sg180
I0
sg44
(lp5596
I1095363701
asg35
VPT6M3.3639784S
p5597
sg183
I0
sg184
VP0DT0H0M3.3500S
p5598
sg39
(dp5599
g41
VnV RayneHCS
p5600
sg43
Nssa(dp5601
g38
I424645655
sg32
VWeaponDrop
p5602
sg180
I27
sg44
(lp5603
I1327094800
asg35
VPT6M3.3639784S
p5604
sg183
I14
sg184
VP0DT0H0M25.9833S
p5605
sg39
(dp5606
g41
VnV RayneHCS
p5607
sg43
Nssa(dp5608
g201
I4106030681
sg202
I00
sg203
I00
sg204
(dp5609
g41
VTL StelluR
p5610
sg43
Nssg207
(lp5611
sg209
I00
sg210
I01
sg211
I1
sg212
I0
sg213
I1
sg214
(dp5612
Vy
F-4.3357882500000002
sVx
F4.7275790000000004
sVz
F0.98298099999999999
ssg216
(dp5613
Vy
F-9.0739520000000002
sVx
F2.3634567299999998
sVz
F1.8056733599999999
ssg218
I00
sg219
(dp5614
g41
VnV eL ToWn
p5615
sg43
Nssg222
(lp5616
sg224
(lp5617
(dp5618
g41
VTL Danoxide
p5619
sg43
Nsasg228
I00
sg35
VPT6M3.364954S
p5620
sg32
VDeath
p5621
sg231
I1
sa(dp5622
g32
VMedal
p5623
sg39
(dp5624
g41
VTL StelluR
p5625
sg43
Nssg236
I2531822079
sg35
VPT6M3.3659933S
p5626
sa(dp5627
g32
VMedal
p5628
sg39
(dp5629
g41
VTL StelluR
p5630
sg43
Nssg236
I2078758684
sg35
VPT6M3.3659933S
p5631
sa(dp5632
g38
I313138863
sg32
VWeaponDrop
p5633
sg180
I0
sg44
(lp5634
I1095363701
asg35
VPT6M3.3659933S
p5635
sg183
I0
sg184
VP0DT0H0M1.5333S
p5636
sg39
(dp5637
g41
VnV eL ToWn
p5638
sg43
Nssa(dp5639
g38
I4096745987
sg32
VWeaponDrop
p5640
sg180
I12
sg44
(lp5641
I2758383128
asg35
VPT6M3.3659933S
p5642
sg183
I8
sg184
VP0DT0H0M22.4167S
p5643
sg39
(dp5644
g41
VnV eL ToWn
p5645
sg43
Nssa(dp5646
g38
I313138863
sg39
(dp5647
g41
VLiquid Eco
p5648
sg43
Nssg44
(lp5649
I1095363701
asg32
VWeaponPickup
p5650
sg35
VPT6M4.7630314S
p5651
sa(dp5652
g38
I4096745987
sg39
(dp5653
g41
VLiquid Eco
p5654
sg43
Nssg44
(lp5655
I2758383128
asg32
VWeaponPickup
p5656
sg35
VPT6M4.7630314S
p5657
sa(dp5658
g32
VPlayerSpawn
p5659
sg39
(dp5660
g41
VLiquid Eco
p5661
sg43
Nssg35
VPT6M4.7630314S
p5662
sa(dp5663
g38
I313138863
sg39
(dp5664
g41
VTL Spartan HCS
p5665
sg43
Nssg44
(lp5666
I1095363701
asg32
VWeaponPickup
p5667
sg35
VPT6M5.2130514S
p5668
sa(dp5669
g38
I4096745987
sg39
(dp5670
g41
VTL Spartan HCS
p5671
sg43
Nssg44
(lp5672
I2758383128
asg32
VWeaponPickup
p5673
sg35
VPT6M5.2130514S
p5674
sa(dp5675
g32
VPlayerSpawn
p5676
sg39
(dp5677
g41
VTL Spartan HCS
p5678
sg43
Nssg35
VPT6M5.2130514S
p5679
sa(dp5680
g38
I4096745987
sg32
VWeaponDrop
p5681
sg180
I0
sg44
(lp5682
I2758383128
asg35
VPT6M7.1781242S
p5683
sg183
I0
sg184
VP0DT0H0M1.6000S
p5684
sg39
(dp5685
g41
VLiquid Eco
p5686
sg43
Nssa(dp5687
g38
I424645655
sg39
(dp5688
g41
VLiquid Eco
p5689
sg43
Nssg44
(lp5690
I1327094800
asg32
VWeaponPickup
p5691
sg35
VPT6M7.1781242S
p5692
sa(dp5693
g38
I313138863
sg32
VWeaponDrop
p5694
sg180
I0
sg44
(lp5695
I1095363701
asg35
VPT6M10.3942497S
p5696
sg183
I0
sg184
VP0DT0H0M1.1333S
p5697
sg39
(dp5698
g41
VTL StelluR
p5699
sg43
Nssa(dp5700
g38
I2133511419
sg39
(dp5701
g41
VTL StelluR
p5702
sg43
Nssg44
(lp5703
I2758383128
asg32
VWeaponPickup
p5704
sg35
VPT6M10.3952256S
p5705
sa(dp5706
g38
I313138863
sg39
(dp5707
g41
VnV RayneHCS
p5708
sg43
Nssg44
(lp5709
I1095363701
asg32
VWeaponPickup
p5710
sg35
VPT6M11.3792627S
p5711
sa(dp5712
g38
I4096745987
sg39
(dp5713
g41
VnV RayneHCS
p5714
sg43
Nssg44
(lp5715
I2758383128
asg32
VWeaponPickup
p5716
sg35
VPT6M11.3802869S
p5717
sa(dp5718
g32
VPlayerSpawn
p5719
sg39
(dp5720
g41
VnV RayneHCS
p5721
sg43
Nssg35
VPT6M11.3802869S
p5722
sa(dp5723
g38
I313138863
sg39
(dp5724
g41
VnV eL ToWn
p5725
sg43
Nssg44
(lp5726
I1095363701
asg32
VWeaponPickup
p5727
sg35
VPT6M11.4122642S
p5728
sa(dp5729
g38
I4096745987
sg39
(dp5730
g41
VnV eL ToWn
p5731
sg43
Nssg44
(lp5732
I2758383128
asg32
VWeaponPickup
p5733
sg35
VPT6M11.4132824S
p5734
sa(dp5735
g32
VPlayerSpawn
p5736
sg39
(dp5737
g41
VnV eL ToWn
p5738
sg43
Nssg35
VPT6M11.4132824S
p5739
sa(dp5740
g38
I4096745987
sg32
VWeaponDrop
p5741
sg180
I0
sg44
(lp5742
I2758383128
asg35
VPT6M13.3283399S
p5743
sg183
I0
sg184
VP0DT0H0M7.3000S
p5744
sg39
(dp5745
g41
VTL Spartan HCS
p5746
sg43
Nssa(dp5747
g38
I424645655
sg39
(dp5748
g41
VTL Spartan HCS
p5749
sg43
Nssg44
(lp5750
I1327094800
asg32
VWeaponPickup
p5751
sg35
VPT6M13.3283399S
p5752
sa(dp5753
g201
I2133511419
sg202
I00
sg203
I00
sg204
(dp5754
g41
VTL StelluR
p5755
sg43
Nssg207
(lp5756
I2758383128
asg209
I00
sg210
I01
sg211
I1
sg212
I0
sg213
I1
sg214
(dp5757
Vy
F13.3290854
sVx
F-6.5047025700000001
sVz
F2.0006847400000001
ssg216
(dp5758
Vy
F16.9791813
sVx
F-7.2170560000000004
sVz
F2.0006849999999998
ssg218
I00
sg219
(dp5759
g41
VnV RayneHCS
p5760
sg43
Nssg222
(lp5761
sg224
(lp5762
(dp5763
g41
VTL Danoxide
p5764
sg43
Nsasg228
I00
sg35
VPT6M18.0955206S
p5765
sg32
VDeath
p5766
sg231
I1
sa(dp5767
g32
VMedal
p5768
sg39
(dp5769
g41
VTL StelluR
p5770
sg43
Nssg236
I2838259753
sg35
VPT6M18.0955206S
p5771
sa(dp5772
g32
VImpulse
p5773
sg39
(dp5774
g41
VTL StelluR
p5775
sg43
Nssg280
I2556889090
sg35
VPT6M18.0955206S
p5776
sa(dp5777
g38
I313138863
sg32
VWeaponDrop
p5778
sg180
I0
sg44
(lp5779
I1095363701
asg35
VPT6M18.0975428S
p5780
sg183
I0
sg184
VP0DT0H0M0.7667S
p5781
sg39
(dp5782
g41
VnV RayneHCS
p5783
sg43
Nssa(dp5784
g38
I4096745987
sg32
VWeaponDrop
p5785
sg180
I12
sg44
(lp5786
I2758383128
asg35
VPT6M18.0975428S
p5787
sg183
I6
sg184
VP0DT0H0M5.9500S
p5788
sg39
(dp5789
g41
VnV RayneHCS
p5790
sg43
Nssa(dp5791
g201
I4096745987
sg202
I00
sg203
I00
sg204
(dp5792
g41
VnV eL ToWn
p5793
sg43
Nssg207
(lp5794
I2758383128
asg209
I00
sg210
I01
sg211
I1
sg212
I0
sg213
I1
sg214
(dp5795
Vy
F9.2666789999999999
sVx
F-2.791258
sVz
F3.6763198400000001
ssg216
(dp5796
Vy
F0.17185415300000001
sVx
F-1.14191628
sVz
F3.57816672
ssg218
I00
sg219
(dp5797
g41
VTL Spartan HCS
p5798
sg43
Nssg222
(lp5799
sg224
(lp5800
sg228
I01
sg35
VPT6M18.1125216S
p5801
sg32
VDeath
p5802
sg231
I1
sa(dp5803
g32
VImpulse
p5804
sg39
(dp5805
g41
VnV eL ToWn
p5806
sg43
Nssg280
I3174430457
sg35
VPT6M18.1145404S
p5807
sa(dp5808
g32
VMedal
p5809
sg39
(dp5810
g41
VnV eL ToWn
p5811
sg43
Nssg236
I3653057799
sg35
VPT6M18.1145404S
p5812
sa(dp5813
g38
I313138863
sg32
VWeaponDrop
p5814
sg180
I0
sg44
(lp5815
I1095363701
asg35
VPT6M18.1145404S
p5816
sg183
I0
sg184
VP0DT0H0M0.8167S
p5817
sg39
(dp5818
g41
VTL Spartan HCS
p5819
sg43
Nssa(dp5820
g38
I424645655
sg32
VWeaponDrop
p5821
sg180
I9
sg44
(lp5822
I1327094800
asg35
VPT6M18.1145404S
p5823
sg183
I9
sg184
VP0DT0H0M4.7833S
p5824
sg39
(dp5825
g41
VTL Spartan HCS
p5826
sg43
Nssa(dp5827
g201
I4096745987
sg202
I00
sg203
I01
sg204
(dp5828
g41
VnV Mikwen HCS
p5829
sg43
Nssg207
(lp5830
I2758383128
asg209
I00
sg210
I00
sg211
I1
sg212
I0
sg213
I1
sg214
(dp5831
Vy
F10.161484700000001
sVx
F-6.8715596200000002
sVz
F2.10443735
ssg216
(dp5832
Vy
F10.136167500000001
sVx
F-6.2578682900000002
sVz
F2.0742673900000002
ssg218
I00
sg219
(dp5833
g41
VTL StelluR
p5834
sg43
Nssg222
(lp5835
sg224
(lp5836
(dp5837
g41
VnV RayneHCS
p5838
sg43
Nsa(dp5839
g41
VnV Pistola HCS
p5840
sg43
Nsasg228
I00
sg35
VPT6M19.7125929S
p5841
sg32
VDeath
p5842
sg231
I1
sa(dp5843
g32
VMedal
p5844
sg39
(dp5845
g41
VnV Mikwen HCS
p5846
sg43
Nssg236
I2287626681
sg35
VPT6M19.7136017S
p5847
sa(dp5848
g38
I4096745987
sg32
VWeaponDrop
p5849
sg180
I3
sg44
(lp5850
I2758383128
asg35
VPT6M19.7146096S
p5851
sg183
I2
sg184
VP0DT0H0M16.3167S
p5852
sg39
(dp5853
g41
VTL StelluR
p5854
sg43
Nssa(dp5855
g38
I2133511419
sg32
VWeaponDrop
p5856
sg180
I29
sg44
(lp5857
I2758383128
asg35
VPT6M19.7146096S
p5858
sg183
I10
sg184
VP0DT0H0M5.1167S
p5859
sg39
(dp5860
g41
VTL StelluR
p5861
sg43
Nssa(dp5862
g38
I313138863
sg32
VWeaponDrop
p5863
sg180
I0
sg44
(lp5864
I1095363701
asg35
VPT6M22.2446803S
p5865
sg183
I0
sg184
VP0DT0H0M0.9500S
p5866
sg39
(dp5867
g41
VnV eL ToWn
p5868
sg43
Nssa(dp5869
g38
I2133511419
sg39
(dp5870
g41
VnV eL ToWn
p5871
sg43
Nssg44
(lp5872
I2758383128
asg32
VWeaponPickup
p5873
sg35
VPT6M22.2446803S
p5874
sa(dp5875
g38
I313138863
sg39
(dp5876
g41
VnV RayneHCS
p5877
sg43
Nssg44
(lp5878
I1095363701
asg32
VWeaponPickup
p5879
sg35
VPT6M26.1128295S
p5880
sa(dp5881
g38
I4096745987
sg39
(dp5882
g41
VnV RayneHCS
p5883
sg43
Nssg44
(lp5884
I2758383128
asg32
VWeaponPickup
p5885
sg35
VPT6M26.1138529S
p5886
sa(dp5887
g32
VPlayerSpawn
p5888
sg39
(dp5889
g41
VnV RayneHCS
p5890
sg43
Nssg35
VPT6M26.1138529S
p5891
sa(dp5892
g38
I313138863
sg39
(dp5893
g41
VTL Spartan HCS
p5894
sg43
Nssg44
(lp5895
I1095363701
asg32
VWeaponPickup
p5896
sg35
VPT6M26.1288289S
p5897
sa(dp5898
g38
I4096745987
sg39
(dp5899
g41
VTL Spartan HCS
p5900
sg43
Nssg44
(lp5901
I2758383128
asg32
VWeaponPickup
p5902
sg35
VPT6M26.129854S
p5903
sa(dp5904
g32
VPlayerSpawn
p5905
sg39
(dp5906
g41
VTL Spartan HCS
p5907
sg43
Nssg35
VPT6M26.129854S
p5908
sa(dp5909
g38
I313138863
sg39
(dp5910
g41
VTL StelluR
p5911
sg43
Nssg44
(lp5912
I1095363701
asg32
VWeaponPickup
p5913
sg35
VPT6M27.7298916S
p5914
sa(dp5915
g38
I4096745987
sg39
(dp5916
g41
VTL StelluR
p5917
sg43
Nssg44
(lp5918
I2758383128
asg32
VWeaponPickup
p5919
sg35
VPT6M27.7298916S
p5920
sa(dp5921
g32
VPlayerSpawn
p5922
sg39
(dp5923
g41
VTL StelluR
p5924
sg43
Nssg35
VPT6M27.7298916S
p5925
sa(dp5926
g201
I424645655
sg202
I00
sg203
I00
sg204
(dp5927
g41
VLiquid Eco
p5928
sg43
Nssg207
(lp5929
I1327094800
asg209
I00
sg210
I01
sg211
I1
sg212
I0
sg213
I1
sg214
(dp5930
Vy
F15.139299400000001
sVx
F8.2817519999999991
sVz
F2.84832668
ssg216
(dp5931
Vy
F9.9696130000000007
sVx
F3.8611655200000001
sVz
F0.97164819999999996
ssg218
I00
sg219
(dp5932
g41
VnV eL ToWn
p5933
sg43
Nssg222
(lp5934
sg224
(lp5935
sg228
I01
sg35
VPT6M28.9789388S
p5936
sg32
VDeath
p5937
sg231
I1
sa(dp5938
g32
VMedal
p5939
sg39
(dp5940
g41
VLiquid Eco
p5941
sg43
Nssg236
I3261908037
sg35
VPT6M28.9819378S
p5942
sa(dp5943
g38
I2133511419
sg32
VWeaponDrop
p5944
sg180
I11
sg44
(lp5945
I2758383128
asg35
VPT6M28.9819378S
p5946
sg183
I3
sg184
VP0DT0H0M2.2333S
p5947
sg39
(dp5948
g41
VnV eL ToWn
p5949
sg43
Nssa(dp5950
g38
I4096745987
sg32
VWeaponDrop
p5951
sg180
I10
sg44
(lp5952
I2758383128
asg35
VPT6M28.9819378S
p5953
sg183
I5
sg184
VP0DT0H0M14.3833S
p5954
sg39
(dp5955
g41
VnV eL ToWn
p5956
sg43
Nssa(dp5957
g201
I4096745987
sg202
I00
sg203
I00
sg204
(dp5958
g41
VnV RayneHCS
p5959
sg43
Nssg207
(lp5960
I2758383128
asg209
I00
sg210
I01
sg211
I1
sg212
I0
sg213
I1
sg214
(dp5961
Vy
F9.9999079999999996
sVx
F-4.8620986899999998
sVz
F2.0006849999999998
ssg216
(dp5962
Vy
F0.89500849999999998
sVx
F-13.5225306
sVz
F4.0643330000000004
ssg218
I00
sg219
(dp5963
g41
VTL Danoxide
p5964
sg43
Nssg222
(lp5965
sg224
(lp5966
(dp5967
g41
VnV Mikwen HCS
p5968
sg43
Nsasg228
I01
sg35
VPT6M33.1460992S
p5969
sg32
VDeath
p5970
sg231
I1
sa(dp5971
g32
VMedal
p5972
sg39
(dp5973
g41
VnV RayneHCS
p5974
sg43
Nssg236
I3261908037
sg35
VPT6M33.1480988S
p5975
sa(dp5976
g38
I313138863
sg32
VWeaponDrop
p5977
sg180
I0
sg44
(lp5978
I1095363701
asg35
VPT6M33.1480988S
p5979
sg183
I0
sg184
VP0DT0H0M2.1500S
p5980
sg39
(dp5981
g41
VTL Danoxide
p5982
sg43
Nssa(dp5983
g38
I4096745987
sg32
VWeaponDrop
p5984
sg180
I29
sg44
(lp5985
I2758383128
asg35
VPT6M33.1480988S
p5986
sg183
I13
sg184
VP0DT0H0M34.3833S
p5987
sg39
(dp5988
g41
VTL Danoxide
p5989
sg43
Nssa(dp5990
g38
I313138863
sg32
VWeaponDrop
p5991
sg180
I0
sg44
(lp5992
I1095363701
asg35
VPT6M35.1271746S
p5993
sg183
I0
sg184
VP0DT0H0M3.1833S
p5994
sg39
(dp5995
g41
VTL StelluR
p5996
sg43
Nssa(dp5997
g38
I2670072722
sg39
(dp5998
g41
VTL StelluR
p5999
sg43
Nssg44
(lp6000
I2758383128
asg32
VWeaponPickupPad
p6001
sg35
VPT6M35.1271746S
p6002
sa(dp6003
g38
I2670072722
sg39
(dp6004
g41
VTL StelluR
p6005
sg43
Nssg44
(lp6006
I2758383128
asg32
VWeaponPickup
p6007
sg35
VPT6M35.1271746S
p6008
sa(dp6009
g201
I4096745987
sg202
I00
sg203
I00
sg204
(dp6010
g41
VnV RayneHCS
p6011
sg43
Nssg207
(lp6012
I2758383128
asg209
I00
sg210
I01
sg211
I1
sg212
I0
sg213
I1
sg214
(dp6013
Vy
F12.896956400000001
sVx
F-3.3971106999999998
sVz
F2.0006849999999998
ssg216
(dp6014
Vy
F14.407060599999999
sVx
F6.3072480000000004
sVz
F2.6183445500000002
ssg218
I00
sg219
(dp6015
g41
VLiquid Eco
p6016
sg43
Nssg222
(lp6017
sg224
(lp6018
(dp6019
g41
VnV Mikwen HCS
p6020
sg43
Nsasg228
I01
sg35
VPT6M35.7291978S
p6021
sg32
VDeath
p6022
sg231
I1
sa(dp6023
g32
VMedal
p6024
sg39
(dp6025
g41
VnV RayneHCS
p6026
sg43
Nssg236
I2838259753
sg35
VPT6M35.7291978S
p6027
sa(dp6028
g32
VImpulse
p6029
sg39
(dp6030
g41
VnV RayneHCS
p6031
sg43
Nssg280
I2556889090
sg35
VPT6M35.7291978S
p6032
sa(dp6033
g32
VMedal
p6034
sg39
(dp6035
g41
VnV RayneHCS
p6036
sg43
Nssg236
I3261908037
sg35
VPT6M35.731197S
p6037
sa(dp6038
g32
VMedal
p6039
sg39
(dp6040
g41
VnV RayneHCS
p6041
sg43
Nssg236
I2078758684
sg35
VPT6M35.731197S
p6042
sa(dp6043
g38
I313138863
sg32
VWeaponDrop
p6044
sg180
I0
sg44
(lp6045
I1095363701
asg35
VPT6M35.731197S
p6046
sg183
I0
sg184
VP0DT0H0M0.8167S
p6047
sg39
(dp6048
g41
VLiquid Eco
p6049
sg43
Nssa(dp6050
g38
I424645655
sg32
VWeaponDrop
p6051
sg180
I54
sg44
(lp6052
I1327094800
asg35
VPT6M35.731197S
p6053
sg183
I25
sg184
VP0DT0H0M28.5500S
p6054
sg39
(dp6055
g41
VLiquid Eco
p6056
sg43
Nssa(dp6057
g38
I313138863
sg39
(dp6058
g41
VnV eL ToWn
p6059
sg43
Nssg44
(lp6060
I1095363701
asg32
VWeaponPickup
p6061
sg35
VPT6M36.9962702S
p6062
sa(dp6063
g38
I4096745987
sg39
(dp6064
g41
VnV eL ToWn
p6065
sg43
Nssg44
(lp6066
I2758383128
asg32
VWeaponPickup
p6067
sg35
VPT6M36.9962702S
p6068
sa(dp6069
g32
VPlayerSpawn
p6070
sg39
(dp6071
g41
VnV eL ToWn
p6072
sg43
Nssg35
VPT6M36.9962702S
p6073
sa(dp6074
g201
I2670072722
sg202
I00
sg203
I00
sg204
(dp6075
g41
VTL StelluR
p6076
sg43
Nssg207
(lp6077
I2758383128
asg209
I00
sg210
I01
sg211
I1
sg212
I0
sg213
I1
sg214
(dp6078
Vy
F2.2501008499999999
sVx
F-5.5443425199999998
sVz
F3.1196248500000001
ssg216
(dp6079
Vy
F14.2663393
sVx
F-2.9829366199999998
sVz
F2.0006849999999998
ssg218
I00
sg219
(dp6080
g41
VnV RayneHCS
p6081
sg43
Nssg222
(lp6082
sg224
(lp6083
(dp6084
g41
VLiquid Eco
p6085
sg43
Nsasg228
I00
sg35
VPT6M38.9123198S
p6086
sg32
VDeath
p6087
sg231
I1
sa(dp6088
g38
I313138863
sg32
VWeaponDrop
p6089
sg180
I0
sg44
(lp6090
I1095363701
asg35
VPT6M38.9143464S
p6091
sg183
I0
sg184
VP0DT0H0M0.7667S
p6092
sg39
(dp6093
g41
VnV RayneHCS
p6094
sg43
Nssa(dp6095
g38
I4096745987
sg32
VWeaponDrop
p6096
sg180
I9
sg44
(lp6097
I2758383128
asg35
VPT6M38.9143464S
p6098
sg183
I3
sg184
VP0DT0H0M12.0333S
p6099
sg39
(dp6100
g41
VnV RayneHCS
p6101
sg43
Nssa(dp6102
g201
I4096745987
sg202
I00
sg203
I00
sg204
(dp6103
g41
VnV Pistola HCS
p6104
sg43
Nssg207
(lp6105
I2758383128
asg209
I00
sg210
I01
sg211
I1
sg212
I0
sg213
I1
sg214
(dp6106
Vy
F1.76533484
sVx
F-15.129921899999999
sVz
F4.7752275500000003
ssg216
(dp6107
Vy
F-0.021984057500000001
sVx
F-10.5174866
sVz
F3.1245319999999999
ssg218
I00
sg219
(dp6108
g41
VTL StelluR
p6109
sg43
Nssg222
(lp6110
sg224
(lp6111
(dp6112
g41
VnV eL ToWn
p6113
sg43
Nsasg228
I01
sg35
VPT6M40.995423S
p6114
sg32
VDeath
p6115
sg231
I1
sa(dp6116
g32
VMedal
p6117
sg39
(dp6118
g41
VnV Pistola HCS
p6119
sg43
Nssg236
I3261908037
sg35
VPT6M40.9974341S
p6120
sa(dp6121
g38
I2670072722
sg32
VWeaponDrop
p6122
sg180
I1
sg44
(lp6123
I2758383128
asg35
VPT6M40.9984331S
p6124
sg183
I1
sg184
VP0DT0H0M2.2667S
p6125
sg39
(dp6126
g41
VTL StelluR
p6127
sg43
Nssa(dp6128
g38
I4096745987
sg32
VWeaponDrop
p6129
sg180
I2
sg44
(lp6130
I2758383128
asg35
VPT6M40.9984331S
p6131
sg183
I0
sg184
VP0DT0H0M7.8167S
p6132
sg39
(dp6133
g41
VTL StelluR
p6134
sg43
Nssa(dp6135
g38
I313138863
sg39
(dp6136
g41
VTL Danoxide
p6137
sg43
Nssg44
(lp6138
I1095363701
asg32
VWeaponPickup
p6139
sg35
VPT6M41.1624065S
p6140
sa(dp6141
g38
I4096745987
sg39
(dp6142
g41
VTL Danoxide
p6143
sg43
Nssg44
(lp6144
I2758383128
asg32
VWeaponPickup
p6145
sg35
VPT6M41.1634297S
p6146
sa(dp6147
g32
VPlayerSpawn
p6148
sg39
(dp6149
g41
VTL Danoxide
p6150
sg43
Nssg35
VPT6M41.1634297S
p6151
sa(dp6152
g38
I4096745987
sg32
VWeaponDrop
p6153
sg180
I18
sg44
(lp6154
I2758383128
asg35
VPT6M43.3445123S
p6155
sg183
I9
sg184
VP0DT0H0M36.3000S
p6156
sg39
(dp6157
g41
VnV Pistola HCS
p6158
sg43
Nssa(dp6159
g38
I424645655
sg39
(dp6160
g41
VnV Pistola HCS
p6161
sg43
Nssg44
(lp6162
I1327094800
asg32
VWeaponPickup
p6163
sg35
VPT6M43.3445123S
p6164
sa(dp6165
g38
I313138863
sg39
(dp6166
g41
VLiquid Eco
p6167
sg43
Nssg44
(lp6168
I1095363701
asg32
VWeaponPickup
p6169
sg35
VPT6M43.7465555S
p6170
sa(dp6171
g38
I4096745987
sg39
(dp6172
g41
VLiquid Eco
p6173
sg43
Nssg44
(lp6174
I2758383128
asg32
VWeaponPickup
p6175
sg35
VPT6M43.7465555S
p6176
sa(dp6177
g32
VPlayerSpawn
p6178
sg39
(dp6179
g41
VLiquid Eco
p6180
sg43
Nssg35
VPT6M43.7465555S
p6181
sa(dp6182
g38
I313138863
sg39
(dp6183
g41
VnV RayneHCS
p6184
sg43
Nssg44
(lp6185
I1095363701
asg32
VWeaponPickup
p6186
sg35
VPT6M46.9296478S
p6187
sa(dp6188
g38
I4096745987
sg39
(dp6189
g41
VnV RayneHCS
p6190
sg43
Nssg44
(lp6191
I2758383128
asg32
VWeaponPickup
p6192
sg35
VPT6M46.9296478S
p6193
sa(dp6194
g32
VPlayerSpawn
p6195
sg39
(dp6196
g41
VnV RayneHCS
p6197
sg43
Nssg35
VPT6M46.9296478S
p6198
sa(dp6199
g38
I313138863
sg32
VWeaponDrop
p6200
sg180
I14
sg44
(lp6201
I1095363701
asg35
VPT6M47.4616489S
p6202
sg183
I8
sg184
VP0DT0H0M10.6333S
p6203
sg39
(dp6204
g41
VnV Pistola HCS
p6205
sg43
Nssa(dp6206
g38
I4096745987
sg39
(dp6207
g41
VnV Pistola HCS
p6208
sg43
Nssg44
(lp6209
I2758383128
asg32
VWeaponPickup
p6210
sg35
VPT6M47.4616489S
p6211
sa(dp6212
g38
I3190813201
sg32
VWeaponDrop
p6213
sg180
I22
sg44
(lp6214
sg35
VPT6M47.978691S
p6215
sg183
I1
sg184
VPT0S
p6216
sg39
(dp6217
g41
VTL Spartan HCS
p6218
sg43
Nssa(dp6219
g38
I2492868984
sg39
(dp6220
g41
VnV Mikwen HCS
p6221
sg43
Nssg44
(lp6222
I2758383128
asg32
VWeaponPickup
p6223
sg35
VPT6M48.8287012S
p6224
sa(dp6225
g38
I313138863
sg39
(dp6226
g41
VTL StelluR
p6227
sg43
Nssg44
(lp6228
I1095363701
asg32
VWeaponPickup
p6229
sg35
VPT6M49.0137094S
p6230
sa(dp6231
g38
I4096745987
sg39
(dp6232
g41
VTL StelluR
p6233
sg43
Nssg44
(lp6234
I2758383128
asg32
VWeaponPickup
p6235
sg35
VPT6M49.0137094S
p6236
sa(dp6237
g32
VPlayerSpawn
p6238
sg39
(dp6239
g41
VTL StelluR
p6240
sg43
Nssg35
VPT6M49.0137094S
p6241
sa(dp6242
g38
I2492868984
sg32
VWeaponDrop
p6243
sg180
I0
sg44
(lp6244
I2758383128
asg35
VPT6M49.9627437S
p6245
sg183
I0
sg184
VP0DT0H0M0.9833S
p6246
sg39
(dp6247
g41
VnV Mikwen HCS
p6248
sg43
Nssa(dp6249
g201
I4096745987
sg202
I00
sg203
I00
sg204
(dp6250
g41
VnV RayneHCS
p6251
sg43
Nssg207
(lp6252
I2758383128
asg209
I00
sg210
I01
sg211
I1
sg212
I0
sg213
I1
sg214
(dp6253
Vy
F10.0536671
sVx
F-4.8648014100000001
sVz
F2.0006849999999998
ssg216
(dp6254
Vy
F-2.2463772299999998
sVx
F-14.280551000000001
sVz
F4.1572775799999997
ssg218
I00
sg219
(dp6255
g41
VTL Spartan HCS
p6256
sg43
Nssg222
(lp6257
sg224
(lp6258
(dp6259
g41
VnV Pistola HCS
p6260
sg43
Nsasg228
I00
sg35
VPT6M50.912781S
p6261
sg32
VDeath
p6262
sg231
I1
sa(dp6263
g38
I313138863
sg32
VWeaponDrop
p6264
sg180
I2
sg44
(lp6265
I1095363701
asg35
VPT6M50.9147863S
p6266
sg183
I0
sg184
VP0DT0H0M11.8000S
p6267
sg39
(dp6268
g41
VTL Spartan HCS
p6269
sg43
Nssa(dp6270
g38
I4096745987
sg32
VWeaponDrop
p6271
sg180
I3
sg44
(lp6272
I2758383128
asg35
VPT6M50.9157832S
p6273
sg183
I2
sg184
VP0DT0H0M12.9833S
p6274
sg39
(dp6275
g41
VTL Spartan HCS
p6276
sg43
Nssa(dp6277
g38
I4096745987
sg32
VWeaponDrop
p6278
sg180
I0
sg44
(lp6279
I2758383128
asg35
VPT6M51.5118045S
p6280
sg183
I0
sg184
VP0DT0H0M1.6667S
p6281
sg39
(dp6282
g41
VnV Pistola HCS
p6283
sg43
Nssa(dp6284
g38
I2670072722
sg39
(dp6285
g41
VnV Pistola HCS
p6286
sg43
Nssg44
(lp6287
I2758383128
asg32
VWeaponPickup
p6288
sg35
VPT6M51.5118045S
p6289
sa(dp6290
g201
I2670072722
sg202
I00
sg203
I00
sg204
(dp6291
g41
VnV Pistola HCS
p6292
sg43
Nssg207
(lp6293
I2758383128
asg209
I00
sg210
I01
sg211
I1
sg212
I0
sg213
I1
sg214
(dp6294
Vy
F-5.6209692999999996
sVx
F-10.5112972
sVz
F-0.19609916199999999
ssg216
(dp6295
Vy
F-8.9724339999999998
sVx
F-15.8908968
sVz
F1.7755844599999999
ssg218
I00
sg219
(dp6296
g41
VTL StelluR
p6297
sg43
Nssg222
(lp6298
sg224
(lp6299
(dp6300
g41
VnV eL ToWn
p6301
sg43
Nsa(dp6302
g41
VnV Mikwen HCS
p6303
sg43
Nsasg228
I00
sg35
VPT6M55.2119468S
p6304
sg32
VDeath
p6305
sg231
I1
sa(dp6306
g38
I313138863
sg32
VWeaponDrop
p6307
sg180
I0
sg44
(lp6308
I1095363701
asg35
VPT6M55.2139475S
p6309
sg183
I0
sg184
VP0DT0H0M0.6333S
p6310
sg39
(dp6311
g41
VTL StelluR
p6312
sg43
Nssa(dp6313
g38
I4096745987
sg32
VWeaponDrop
p6314
sg180
I6
sg44
(lp6315
I2758383128
asg35
VPT6M55.2139475S
p6316
sg183
I4
sg184
VP0DT0H0M5.5667S
p6317
sg39
(dp6318
g41
VTL StelluR
p6319
sg43
Nssa(dp6320
g201
I4096745987
sg202
I00
sg203
I00
sg204
(dp6321
g41
VTL Danoxide
p6322
sg43
Nssg207
(lp6323
I2758383128
asg209
I00
sg210
I01
sg211
I1
sg212
I0
sg213
I1
sg214
(dp6324
Vy
F-8.4778099999999998
sVx
F-2.33383918
sVz
F3.4300625299999998
ssg216
(dp6325
Vy
F-5.6265087100000004
sVx
F-10.212081899999999
sVz
F-0.19327491499999999
ssg218
I00
sg219
(dp6326
g41
VnV Pistola HCS
p6327
sg43
Nssg222
(lp6328
sg224
(lp6329
(dp6330
g41
VTL StelluR
p6331
sg43
Nsa(dp6332
g41
VLiquid Eco
p6333
sg43
Nsasg228
I01
sg35
VPT6M55.4289537S
p6334
sg32
VDeath
p6335
sg231
I1
sa(dp6336
g32
VMedal
p6337
sg39
(dp6338
g41
VTL Danoxide
p6339
sg43
Nssg236
I3261908037
sg35
VPT6M55.4299791S
p6340
sa(dp6341
g38
I2670072722
sg32
VWeaponDrop
p6342
sg180
I3
sg44
(lp6343
I2758383128
asg35
VPT6M55.4309916S
p6344
sg183
I3
sg184
VP0DT0H0M3.3500S
p6345
sg39
(dp6346
g41
VnV Pistola HCS
p6347
sg43
Nssa(dp6348
g38
I424645655
sg32
VWeaponDrop
p6349
sg180
I18
sg44
(lp6350
I1327094800
asg35
VPT6M55.4309916S
p6351
sg183
I9
sg184
VP0DT0H0M6.2333S
p6352
sg39
(dp6353
g41
VnV Pistola HCS
p6354
sg43
Nssa(dp6355
g38
I313138863
sg39
(dp6356
g41
VTL Spartan HCS
p6357
sg43
Nssg44
(lp6358
I1095363701
asg32
VWeaponPickup
p6359
sg35
VPT6M58.9290894S
p6360
sa(dp6361
g38
I4096745987
sg39
(dp6362
g41
VTL Spartan HCS
p6363
sg43
Nssg44
(lp6364
I2758383128
asg32
VWeaponPickup
p6365
sg35
VPT6M58.930107S
p6366
sa(dp6367
g32
VPlayerSpawn
p6368
sg39
(dp6369
g41
VTL Spartan HCS
p6370
sg43
Nssg35
VPT6M58.930107S
p6371
sa(dp6372
g201
I313138863
sg202
I00
sg203
I00
sg204
(dp6373
g41
VnV RayneHCS
p6374
sg43
Nssg207
(lp6375
I1095363701
asg209
I00
sg210
I01
sg211
I1
sg212
I0
sg213
I1
sg214
(dp6376
Vy
F5.5343270000000002
sVx
F-14.9499712
sVz
F0.47524613100000002
ssg216
(dp6377
Vy
F1.57828462
sVx
F-16.646516800000001
sVz
F0.65652245300000001
ssg218
I00
sg219
(dp6378
g41
VLiquid Eco
p6379
sg43
Nssg222
(lp6380
sg224
(lp6381
sg228
I00
sg35
VPT7M0.1471362S
p6382
sg32
VDeath
p6383
sg231
I1
sa(dp6384
g38
I313138863
sg32
VWeaponDrop
p6385
sg180
I27
sg44
(lp6386
I1095363701
asg35
VPT7M0.1481604S
p6387
sg183
I10
sg184
VP0DT0H0M8.0000S
p6388
sg39
(dp6389
g41
VLiquid Eco
p6390
sg43
Nssa(dp6391
g38
I4096745987
sg32
VWeaponDrop
p6392
sg180
I6
sg44
(lp6393
I2758383128
asg35
VPT7M0.1481604S
p6394
sg183
I3
sg184
VP0DT0H0M8.3833S
p6395
sg39
(dp6396
g41
VLiquid Eco
p6397
sg43
Nssa(dp6398
g38
I2244200496
sg39
(dp6399
g41
VnV eL ToWn
p6400
sg43
Nssg44
(lp6401
I2758383128
asg32
VWeaponPickup
p6402
sg35
VPT7M1.0451705S
p6403
sa(dp6404
g32
VImpulse
p6405
sg39
(dp6406
g41
VnV eL ToWn
p6407
sg43
Nssg280
I4191318012
sg35
VPT7M1.0451705S
p6408
sa(dp6409
g32
VImpulse
p6410
sg39
(dp6411
g41
VnV eL ToWn
p6412
sg43
Nssg280
I1039658009
sg35
VPT7M1.0451705S
p6413
sa(dp6414
g38
I2244200496
sg32
VWeaponDrop
p6415
sg180
I0
sg44
(lp6416
I2758383128
asg35
VPT7M1.5612142S
p6417
sg183
I0
sg184
VP0DT0H0M0.3667S
p6418
sg39
(dp6419
g41
VnV eL ToWn
p6420
sg43
Nssa(dp6421
g32
VImpulse
p6422
sg39
(dp6423
g41
VnV eL ToWn
p6424
sg43
Nssg280
I3435524855
sg35
VPT7M1.5622147S
p6425
sa(dp6426
g38
I2244200496
sg39
(dp6427
g41
VnV eL ToWn
p6428
sg43
Nssg44
(lp6429
I2758383128
asg32
VWeaponPickup
p6430
sg35
VPT7M2.8112559S
p6431
sa(dp6432
g32
VImpulse
p6433
sg39
(dp6434
g41
VnV eL ToWn
p6435
sg43
Nssg280
I4191318012
sg35
VPT7M2.8122571S
p6436
sa(dp6437
g38
I313138863
sg39
(dp6438
g41
VTL StelluR
p6439
sg43
Nssg44
(lp6440
I1095363701
asg32
VWeaponPickup
p6441
sg35
VPT7M3.2462548S
p6442
sa(dp6443
g38
I4096745987
sg39
(dp6444
g41
VTL StelluR
p6445
sg43
Nssg44
(lp6446
I2758383128
asg32
VWeaponPickup
p6447
sg35
VPT7M3.2462548S
p6448
sa(dp6449
g32
VPlayerSpawn
p6450
sg39
(dp6451
g41
VTL StelluR
p6452
sg43
Nssg35
VPT7M3.2462548S
p6453
sa(dp6454
g38
I313138863
sg39
(dp6455
g41
VnV Pistola HCS
p6456
sg43
Nssg44
(lp6457
I1095363701
asg32
VWeaponPickup
p6458
sg35
VPT7M3.4622629S
p6459
sa(dp6460
g38
I4096745987
sg39
(dp6461
g41
VnV Pistola HCS
p6462
sg43
Nssg44
(lp6463
I2758383128
asg32
VWeaponPickup
p6464
sg35
VPT7M3.4632865S
p6465
sa(dp6466
g32
VPlayerSpawn
p6467
sg39
(dp6468
g41
VnV Pistola HCS
p6469
sg43
Nssg35
VPT7M3.4632865S
p6470
sa(dp6471
g201
I4096745987
sg202
I00
sg203
I00
sg204
(dp6472
g41
VnV Mikwen HCS
p6473
sg43
Nssg207
(lp6474
I2758383128
asg209
I00
sg210
I01
sg211
I1
sg212
I0
sg213
I1
sg214
(dp6475
Vy
F1.29354715
sVx
F-4.1867570000000001
sVz
F3.1164035800000001
ssg216
(dp6476
Vy
F1.5127699999999999
sVx
F2.0905573400000002
sVz
F3.140841
ssg218
I00
sg219
(dp6477
g41
VTL Spartan HCS
p6478
sg43
Nssg222
(lp6479
sg224
(lp6480
sg228
I01
sg35
VPT7M4.5463056S
p6481
sg32
VDeath
p6482
sg231
I1
sa(dp6483
g32
VImpulse
p6484
sg39
(dp6485
g41
VnV Mikwen HCS
p6486
sg43
Nssg280
I3174430457
sg35
VPT7M4.5473271S
p6487
sa(dp6488
g32
VMedal
p6489
sg39
(dp6490
g41
VnV Mikwen HCS
p6491
sg43
Nssg236
I3653057799
sg35
VPT7M4.5473271S
p6492
sa(dp6493
g38
I4096745987
sg32
VWeaponDrop
p6494
sg180
I2
sg44
(lp6495
I2758383128
asg35
VPT7M4.5483269S
p6496
sg183
I0
sg184
VP0DT0H0M4.7667S
p6497
sg39
(dp6498
g41
VTL Spartan HCS
p6499
sg43
Nssa(dp6500
g38
I313138863
sg32
VWeaponDrop
p6501
sg180
I0
sg44
(lp6502
I1095363701
asg35
VPT7M4.5483269S
p6503
sg183
I0
sg184
VP0DT0H0M0.8333S
p6504
sg39
(dp6505
g41
VTL Spartan HCS
p6506
sg43
Nssa(dp6507
g38
I2244200496
sg32
VWeaponDrop
p6508
sg180
I0
sg44
(lp6509
I2758383128
asg35
VPT7M5.4613398S
p6510
sg183
I0
sg184
VP0DT0H0M2.5000S
p6511
sg39
(dp6512
g41
VnV eL ToWn
p6513
sg43
Nssa(dp6514
g32
VImpulse
p6515
sg39
(dp6516
g41
VnV eL ToWn
p6517
sg43
Nssg280
I3435524855
sg35
VPT7M5.4623404S
p6518
sa(dp6519
g201
I4096745987
sg202
I00
sg203
I00
sg204
(dp6520
g41
VTL Danoxide
p6521
sg43
Nssg207
(lp6522
I2758383128
asg209
I00
sg210
I01
sg211
I1
sg212
I0
sg213
I1
sg214
(dp6523
Vy
F-10.563108400000001
sVx
F-6.1406609999999997
sVz
F-0.096608700000000006
ssg216
(dp6524
Vy
F-0.75822925600000002
sVx
F-5.3149540000000002
sVz
F0.063751310000000005
ssg218
I00
sg219
(dp6525
g41
VnV eL ToWn
p6526
sg43
Nssg222
(lp6527
sg224
(lp6528
(dp6529
g41
VTL StelluR
p6530
sg43
Nsasg228
I01
sg35
VPT7M6.1623658S
p6531
sg32
VDeath
p6532
sg231
I1
sa(dp6533
g32
VMedal
p6534
sg39
(dp6535
g41
VTL Danoxide
p6536
sg43
Nssg236
I164204247
sg35
VPT7M6.1633898S
p6537
sa(dp6538
g32
VMedal
p6539
sg39
(dp6540
g41
VTL Danoxide
p6541
sg43
Nssg236
I3261908037
sg35
VPT7M6.1633898S
p6542
sa(dp6543
g38
I313138863
sg32
VWeaponDrop
p6544
sg180
I0
sg44
(lp6545
I1095363701
asg35
VPT7M6.1643666S
p6546
sg183
I0
sg184
VP0DT0H0M0.7333S
p6547
sg39
(dp6548
g41
VnV eL ToWn
p6549
sg43
Nssa(dp6550
g38
I4096745987
sg32
VWeaponDrop
p6551
sg180
I20
sg44
(lp6552
I2758383128
asg35
VPT7M6.1643666S
p6553
sg183
I11
sg184
VP0DT0H0M25.5500S
p6554
sg39
(dp6555
g41
VnV eL ToWn
p6556
sg43
Nssa(dp6557
g38
I313138863
sg32
VWeaponDrop
p6558
sg180
I6
sg44
(lp6559
I1095363701
asg35
VPT7M7.0944245S
p6560
sg183
I2
sg184
VP0DT0H0M3.3167S
p6561
sg39
(dp6562
g41
VTL Danoxide
p6563
sg43
Nssa(dp6564
g38
I2133511419
sg39
(dp6565
g41
VTL Danoxide
p6566
sg43
Nssg44
(lp6567
I2758383128
asg32
VWeaponPickup
p6568
sg35
VPT7M7.0944245S
p6569
sa(dp6570
g38
I313138863
sg39
(dp6571
g41
VLiquid Eco
p6572
sg43
Nssg44
(lp6573
I1095363701
asg32
VWeaponPickup
p6574
sg35
VPT7M8.1634788S
p6575
sa(dp6576
g38
I4096745987
sg39
(dp6577
g41
VLiquid Eco
p6578
sg43
Nssg44
(lp6579
I2758383128
asg32
VWeaponPickup
p6580
sg35
VPT7M8.1634788S
p6581
sa(dp6582
g32
VPlayerSpawn
p6583
sg39
(dp6584
g41
VLiquid Eco
p6585
sg43
Nssg35
VPT7M8.1634788S
p6586
sa(dp6587
g38
I4096745987
sg32
VWeaponDrop
p6588
sg180
I10
sg44
(lp6589
I2758383128
asg35
VPT7M10.5445368S
p6590
sg183
I4
sg184
VP0DT0H0M15.7500S
p6591
sg39
(dp6592
g41
VnV RayneHCS
p6593
sg43
Nssa(dp6594
g38
I424645655
sg39
(dp6595
g41
VnV RayneHCS
p6596
sg43
Nssg44
(lp6597
I1327094800
asg32
VWeaponPickup
p6598
sg35
VPT7M10.5445368S
p6599
sa(dp6600
g38
I313138863
sg32
VWeaponDrop
p6601
sg180
I0
sg44
(lp6602
I1095363701
asg35
VPT7M12.1115988S
p6603
sg183
I0
sg184
VP0DT0H0M1.5500S
p6604
sg39
(dp6605
g41
VTL StelluR
p6606
sg43
Nssa(dp6607
g38
I2650887244
sg39
(dp6608
g41
VTL StelluR
p6609
sg43
Nssg44
(lp6610
I2758383128
asg32
VWeaponPickup
p6611
sg35
VPT7M12.1115988S
p6612
sa(dp6613
g38
I313138863
sg39
(dp6614
g41
VTL Spartan HCS
p6615
sg43
Nssg44
(lp6616
I1095363701
asg32
VWeaponPickup
p6617
sg35
VPT7M12.5626135S
p6618
sa(dp6619
g38
I4096745987
sg39
(dp6620
g41
VTL Spartan HCS
p6621
sg43
Nssg44
(lp6622
I2758383128
asg32
VWeaponPickup
p6623
sg35
VPT7M12.563637S
p6624
sa(dp6625
g32
VPlayerSpawn
p6626
sg39
(dp6627
g41
VTL Spartan HCS
p6628
sg43
Nssg35
VPT7M12.563637S
p6629
sa(dp6630
g201
I313138863
sg202
I00
sg203
I00
sg204
(dp6631
g41
VnV Mikwen HCS
p6632
sg43
Nssg207
(lp6633
I1095363701
asg209
I00
sg210
I01
sg211
I1
sg212
I0
sg213
I1
sg214
(dp6634
Vy
F-1.55441988
sVx
F1.668852
sVz
F0.83948230000000001
ssg216
(dp6635
Vy
F-1.8810200699999999
sVx
F5.1762986199999999
sVz
F0.63397099999999995
ssg218
I00
sg219
(dp6636
g41
VTL StelluR
p6637
sg43
Nssg222
(lp6638
sg224
(lp6639
(dp6640
g41
VnV Pistola HCS
p6641
sg43
Nsasg228
I00
sg35
VPT7M13.8966722S
p6642
sg32
VDeath
p6643
sg231
I1
sa(dp6644
g38
I2650887244
sg32
VWeaponDrop
p6645
sg180
I0
sg44
(lp6646
I2758383128
asg35
VPT7M13.8986817S
p6647
sg183
I0
sg184
VP0DT0H0M0.9500S
p6648
sg39
(dp6649
g41
VTL StelluR
p6650
sg43
Nssa(dp6651
g38
I4096745987
sg32
VWeaponDrop
p6652
sg180
I6
sg44
(lp6653
I2758383128
asg35
VPT7M13.8986817S
p6654
sg183
I3
sg184
VP0DT0H0M8.1500S
p6655
sg39
(dp6656
g41
VTL StelluR
p6657
sg43
Nssa(dp6658
g38
I313138863
sg39
(dp6659
g41
VnV eL ToWn
p6660
sg43
Nssg44
(lp6661
I1095363701
asg32
VWeaponPickup
p6662
sg35
VPT7M14.1796982S
p6663
sa(dp6664
g38
I4096745987
sg39
(dp6665
g41
VnV eL ToWn
p6666
sg43
Nssg44
(lp6667
I2758383128
asg32
VWeaponPickup
p6668
sg35
VPT7M14.1796982S
p6669
sa(dp6670
g32
VPlayerSpawn
p6671
sg39
(dp6672
g41
VnV eL ToWn
p6673
sg43
Nssg35
VPT7M14.1796982S
p6674
sa(dp6675
g38
I313138863
sg32
VWeaponDrop
p6676
sg180
I18
sg44
(lp6677
I1095363701
asg35
VPT7M15.0777326S
p6678
sg183
I10
sg184
VP0DT0H0M8.7500S
p6679
sg39
(dp6680
g41
VnV Mikwen HCS
p6681
sg43
Nssa(dp6682
g38
I2650887244
sg39
(dp6683
g41
VnV Mikwen HCS
p6684
sg43
Nssg44
(lp6685
I2758383128
asg32
VWeaponPickup
p6686
sg35
VPT7M15.0777326S
p6687
sa(dp6688
g38
I2244200496
sg39
(dp6689
g41
VnV Mikwen HCS
p6690
sg43
Nssg44
(lp6691
I2758383128
asg32
VWeaponPickup
p6692
sg35
VPT7M18.6948934S
p6693
sa(dp6694
g32
VImpulse
p6695
sg39
(dp6696
g41
VnV Mikwen HCS
p6697
sg43
Nssg280
I4191318012
sg35
VPT7M18.6948934S
p6698
sa(dp6699
g38
I4096745987
sg32
VWeaponDrop
p6700
sg180
I0
sg44
(lp6701
I2758383128
asg35
VPT7M19.2778923S
p6702
sg183
I0
sg184
VP0DT0H0M11.1500S
p6703
sg39
(dp6704
g41
VnV Pistola HCS
p6705
sg43
Nssa(dp6706
g38
I4108759423
sg39
(dp6707
g41
VnV Pistola HCS
p6708
sg43
Nssg44
(lp6709
I2758383128
asg32
VWeaponPickup
p6710
sg35
VPT7M19.2778923S
p6711
sa(dp6712
g201
I424645655
sg202
I00
sg203
I00
sg204
(dp6713
g41
VnV RayneHCS
p6714
sg43
Nssg207
(lp6715
I1327094800
asg209
I00
sg210
I01
sg211
I1
sg212
I0
sg213
I1
sg214
(dp6716
Vy
F-0.81284755500000005
sVx
F-18.100418099999999
sVz
F3.565134
ssg216
(dp6717
Vy
F-2.64522433
sVx
F-19.4956779
sVz
F3.0393915200000001
ssg218
I00
sg219
(dp6718
g41
VLiquid Eco
p6719
sg43
Nssg222
(lp6720
sg224
(lp6721
sg228
I00
sg35
VPT7M19.4618775S
p6722
sg32
VDeath
p6723
sg231
I1
sa(dp6724
g38
I313138863
sg32
VWeaponDrop
p6725
sg180
I1
sg44
(lp6726
I1095363701
asg35
VPT7M19.4639004S
p6727
sg183
I0
sg184
VP0DT0H0M1.9167S
p6728
sg39
(dp6729
g41
VLiquid Eco
p6730
sg43
Nssa(dp6731
g38
I4096745987
sg32
VWeaponDrop
p6732
sg180
I7
sg44
(lp6733
I2758383128
asg35
VPT7M19.4639004S
p6734
sg183
I3
sg184
VP0DT0H0M9.3833S
p6735
sg39
(dp6736
g41
VLiquid Eco
p6737
sg43
Nssa(dp6738
g38
I2244200496
sg32
VWeaponDrop
p6739
sg180
I0
sg44
(lp6740
I2758383128
asg35
VPT7M19.5608814S
p6741
sg183
I0
sg184
VP0DT0H0M0.7000S
p6742
sg39
(dp6743
g41
VnV Mikwen HCS
p6744
sg43
Nssa(dp6745
g32
VImpulse
p6746
sg39
(dp6747
g41
VnV Mikwen HCS
p6748
sg43
Nssg280
I3435524855
sg35
VPT7M19.5619058S
p6749
sa(dp6750
g38
I2244200496
sg39
(dp6751
g41
VnV Mikwen HCS
p6752
sg43
Nssg44
(lp6753
I2758383128
asg32
VWeaponPickup
p6754
sg35
VPT7M20.4949174S
p6755
sa(dp6756
g32
VImpulse
p6757
sg39
(dp6758
g41
VnV Mikwen HCS
p6759
sg43
Nssg280
I4191318012
sg35
VPT7M20.4949174S
p6760
sa(dp6761
g201
I4096745987
sg202
I00
sg203
I00
sg204
(dp6762
g41
VTL Danoxide
p6763
sg43
Nssg207
(lp6764
I2758383128
asg209
I00
sg210
I01
sg211
I1
sg212
I0
sg213
I1
sg214
(dp6765
Vy
F-10.2954121
sVx
F-6.0339460000000003
sVz
F-0.091635703999999998
ssg216
(dp6766
Vy
F8.0479939999999992
sVx
F-4.9938190000000002
sVz
F0.99455130000000003
ssg218
I00
sg219
(dp6767
g41
VnV Mikwen HCS
p6768
sg43
Nssg222
(lp6769
sg224
(lp6770
sg228
I01
sg35
VPT7M20.9629359S
p6771
sg32
VDeath
p6772
sg231
I1
sa(dp6773
g32
VMedal
p6774
sg39
(dp6775
g41
VTL Danoxide
p6776
sg43
Nssg236
I2028249938
sg35
VPT7M20.9639594S
p6777
sa(dp6778
g32
VImpulse
p6779
sg39
(dp6780
g41
VTL Danoxide
p6781
sg43
Nssg280
I2299858338
sg35
VPT7M20.9639594S
p6782
sa(dp6783
g32
VMedal
p6784
sg39
(dp6785
g41
VTL Danoxide
p6786
sg43
Nssg236
I3261908037
sg35
VPT7M20.9649581S
p6787
sa(dp6788
g38
I2650887244
sg32
VWeaponDrop
p6789
sg180
I0
sg44
(lp6790
I2758383128
asg35
VPT7M20.9659351S
p6791
sg183
I0
sg184
VP0DT0H0M4.6333S
p6792
sg39
(dp6793
g41
VnV Mikwen HCS
p6794
sg43
Nssa(dp6795
g38
I4096745987
sg32
VWeaponDrop
p6796
sg180
I35
sg44
(lp6797
I2758383128
asg35
VPT7M20.9659351S
p6798
sg183
I20
sg184
VP0DT0H1M4.1500S
p6799
sg39
(dp6800
g41
VnV Mikwen HCS
p6801
sg43
Nssa(dp6802
g38
I4096745987
sg32
VWeaponDrop
p6803
sg180
I0
sg44
(lp6804
I2758383128
asg35
VPT7M20.9659351S
p6805
sg183
I0
sg184
VP0DT0S
p6806
sg39
(dp6807
g41
VnV Mikwen HCS
p6808
sg43
Nssa(dp6809
g38
I2244200496
sg32
VWeaponDrop
p6810
sg180
I0
sg44
(lp6811
I2758383128
asg35
VPT7M20.9659351S
p6812
sg183
I0
sg184
VP0DT0H0M0.3000S
p6813
sg39
(dp6814
g41
VnV Mikwen HCS
p6815
sg43
Nssa(dp6816
g32
VImpulse
p6817
sg39
(dp6818
g41
VnV Mikwen HCS
p6819
sg43
Nssg280
I3435524855
sg35
VPT7M20.9779539S
p6820
sa(dp6821
g38
I313138863
sg39
(dp6822
g41
VTL StelluR
p6823
sg43
Nssg44
(lp6824
I1095363701
asg32
VWeaponPickup
p6825
sg35
VPT7M21.9129894S
p6826
sa(dp6827
g38
I4096745987
sg39
(dp6828
g41
VTL StelluR
p6829
sg43
Nssg44
(lp6830
I2758383128
asg32
VWeaponPickup
p6831
sg35
VPT7M21.9129894S
p6832
sa(dp6833
g32
VPlayerSpawn
p6834
sg39
(dp6835
g41
VTL StelluR
p6836
sg43
Nssg35
VPT7M21.9129894S
p6837
sa(dp6838
g32
VMedal
p6839
sg39
(dp6840
g41
VnV RayneHCS
p6841
sg43
Nssg236
I3400287617
sg35
VPT7M22.4780184S
p6842
sa(dp6843
g38
I2244200496
sg39
(dp6844
g41
VnV eL ToWn
p6845
sg43
Nssg44
(lp6846
I2758383128
asg32
VWeaponPickup
p6847
sg35
VPT7M23.1450194S
p6848
sa(dp6849
g32
VImpulse
p6850
sg39
(dp6851
g41
VnV eL ToWn
p6852
sg43
Nssg280
I4191318012
sg35
VPT7M23.1450194S
p6853
sa(dp6854
g38
I2244200496
sg32
VWeaponDrop
p6855
sg180
I0
sg44
(lp6856
I2758383128
asg35
VPT7M24.2450612S
p6857
sg183
I0
sg184
VP0DT0H0M0.9500S
p6858
sg39
(dp6859
g41
VnV eL ToWn
p6860
sg43
Nssa(dp6861
g32
VImpulse
p6862
sg39
(dp6863
g41
VnV eL ToWn
p6864
sg43
Nssg280
I3435524855
sg35
VPT7M24.2450612S
p6865
sa(dp6866
g38
I2244200496
sg39
(dp6867
g41
VnV eL ToWn
p6868
sg43
Nssg44
(lp6869
I2758383128
asg32
VWeaponPickup
p6870
sg35
VPT7M25.4451075S
p6871
sa(dp6872
g32
VImpulse
p6873
sg39
(dp6874
g41
VnV eL ToWn
p6875
sg43
Nssg280
I4191318012
sg35
VPT7M25.4461074S
p6876
sa(dp6877
g38
I313138863
sg39
(dp6878
g41
VLiquid Eco
p6879
sg43
Nssg44
(lp6880
I1095363701
asg32
VWeaponPickup
p6881
sg35
VPT7M27.4791859S
p6882
sa(dp6883
g38
I4096745987
sg39
(dp6884
g41
VLiquid Eco
p6885
sg43
Nssg44
(lp6886
I2758383128
asg32
VWeaponPickup
p6887
sg35
VPT7M27.4802073S
p6888
sa(dp6889
g32
VPlayerSpawn
p6890
sg39
(dp6891
g41
VLiquid Eco
p6892
sg43
Nssg35
VPT7M27.4802073S
p6893
sa(dp6894
g38
I2244200496
sg39
(dp6895
g41
VTL Spartan HCS
p6896
sg43
Nssg44
(lp6897
I2758383128
asg32
VWeaponPickup
p6898
sg35
VPT7M28.2454415S
p6899
sa(dp6900
g32
VImpulse
p6901
sg39
(dp6902
g41
VTL Spartan HCS
p6903
sg43
Nssg280
I4191318012
sg35
VPT7M28.2454415S
p6904
sa(dp6905
g32
VImpulse
p6906
sg39
(dp6907
g41
VTL Spartan HCS
p6908
sg43
Nssg280
I1039658009
sg35
VPT7M28.2462165S
p6909
sa(dp6910
g201
I424645655
sg202
I00
sg203
I00
sg204
(dp6911
g41
VnV RayneHCS
p6912
sg43
Nssg207
(lp6913
I1327094800
asg209
I00
sg210
I01
sg211
I1
sg212
I0
sg213
I1
sg214
(dp6914
Vy
F15.2883873
sVx
F-7.989382
sVz
F2.0006849999999998
ssg216
(dp6915
Vy
F14.8708916
sVx
F-5.5942926399999999
sVz
F2.0006849999999998
ssg218
I00
sg219
(dp6916
g41
VTL Spartan HCS
p6917
sg43
Nssg222
(lp6918
sg224
(lp6919
(dp6920
g41
VnV eL ToWn
p6921
sg43
Nsasg228
I01
sg35
VPT7M28.5122251S
p6922
sg32
VDeath
p6923
sg231
I1
sa(dp6924
g32
VMedal
p6925
sg39
(dp6926
g41
VnV RayneHCS
p6927
sg43
Nssg236
I2028249938
sg35
VPT7M28.5142249S
p6928
sa(dp6929
g32
VImpulse
p6930
sg39
(dp6931
g41
VnV RayneHCS
p6932
sg43
Nssg280
I2299858338
sg35
VPT7M28.5142249S
p6933
sa(dp6934
g32
VMedal
p6935
sg39
(dp6936
g41
VnV RayneHCS
p6937
sg43
Nssg236
I3261908037
sg35
VPT7M28.5142249S
p6938
sa(dp6939
g38
I313138863
sg32
VWeaponDrop
p6940
sg180
I0
sg44
(lp6941
I1095363701
asg35
VPT7M28.5152656S
p6942
sg183
I0
sg184
VP0DT0H0M7.4333S
p6943
sg39
(dp6944
g41
VTL Spartan HCS
p6945
sg43
Nssa(dp6946
g38
I4096745987
sg32
VWeaponDrop
p6947
sg180
I2
sg44
(lp6948
I2758383128
asg35
VPT7M28.5152656S
p6949
sg183
I1
sg184
VP0DT0H0M8.4167S
p6950
sg39
(dp6951
g41
VTL Spartan HCS
p6952
sg43
Nssa(dp6953
g38
I2244200496
sg32
VWeaponDrop
p6954
sg180
I0
sg44
(lp6955
I2758383128
asg35
VPT7M28.5152656S
p6956
sg183
I0
sg184
VP0DT0H0M0.1000S
p6957
sg39
(dp6958
g41
VTL Spartan HCS
p6959
sg43
Nssa(dp6960
g32
VImpulse
p6961
sg39
(dp6962
g41
VTL Spartan HCS
p6963
sg43
Nssg280
I3435524855
sg35
VPT7M28.5282257S
p6964
sa(dp6965
g201
I313138863
sg202
I00
sg203
I00
sg204
(dp6966
g41
VTL StelluR
p6967
sg43
Nssg207
(lp6968
I1095363701
asg209
I00
sg210
I01
sg211
I1
sg212
I0
sg213
I1
sg214
(dp6969
Vy
F1.4094878399999999
sVx
F-5.2904289999999996
sVz
F0.4177131
ssg216
(dp6970
Vy
F1.6215847699999999
sVx
F-3.6707367899999999
sVz
F0.57777655100000003
ssg218
I00
sg219
(dp6971
g41
VnV Pistola HCS
p6972
sg43
Nssg222
(lp6973
sg224
(lp6974
(dp6975
g41
VTL Danoxide
p6976
sg43
Nsasg228
I00
sg35
VPT7M28.8792389S
p6977
sg32
VDeath
p6978
sg231
I1
sa(dp6979
g38
I313138863
sg32
VWeaponDrop
p6980
sg180
I0
sg44
(lp6981
I1095363701
asg35
VPT7M28.8802626S
p6982
sg183
I0
sg184
VP0DT0H0M4.6667S
p6983
sg39
(dp6984
g41
VnV Pistola HCS
p6985
sg43
Nssa(dp6986
g38
I4108759423
sg32
VWeaponDrop
p6987
sg180
I9
sg44
(lp6988
I2758383128
asg35
VPT7M28.8802626S
p6989
sg183
I3
sg184
VP0DT0H0M9.6000S
p6990
sg39
(dp6991
g41
VnV Pistola HCS
p6992
sg43
Nssa(dp6993
g38
I313138863
sg39
(dp6994
g41
VnV Mikwen HCS
p6995
sg43
Nssg44
(lp6996
I1095363701
asg32
VWeaponPickup
p6997
sg35
VPT7M28.9802659S
p6998
sa(dp6999
g38
I4096745987
sg39
(dp7000
g41
VnV Mikwen HCS
p7001
sg43
Nssg44
(lp7002
I2758383128
asg32
VWeaponPickup
p7003
sg35
VPT7M28.9802659S
p7004
sa(dp7005
g32
VPlayerSpawn
p7006
sg39
(dp7007
g41
VnV Mikwen HCS
p7008
sg43
Nssg35
VPT7M28.9802659S
p7009
sa(dp7010
g32
VMedal
p7011
sg39
(dp7012
g41
VnV RayneHCS
p7013
sg43
Nssg236
I2380717523
sg35
VPT7M30.5613242S
p7014
sa(dp7015
g32
VMedal
p7016
sg39
(dp7017
g41
VnV eL ToWn
p7018
sg43
Nssg236
I2380717523
sg35
VPT7M30.5623038S
p7019
sa(dp7020
g32
VImpulse
p7021
sg39
(dp7022
g41
VnV RayneHCS
p7023
sg43
Nssg280
I1063951891
sg35
VPT7M30.5623038S
p7024
sa(dp7025
g32
VImpulse
p7026
sg39
(dp7027
g41
VnV eL ToWn
p7028
sg43
Nssg280
I1063951891
sg35
VPT7M30.5623038S
p7029
sa(dp7030
g32
VMedal
p7031
sg39
(dp7032
g41
VnV eL ToWn
p7033
sg43
Nssg236
I3886151616
sg35
VPT7M30.5623038S
p7034
sa(dp7035
g32
VMedal
p7036
sg39
(dp7037
g41
VnV Mikwen HCS
p7038
sg43
Nssg236
I1494478183
sg35
VPT7M30.5623038S
p7039
sa(dp7040
g32
VImpulse
p7041
sg39
(dp7042
g41
VnV eL ToWn
p7043
sg43
Nssg280
I2944278681
sg35
VPT7M30.5623038S
p7044
sa(dp7045
g32
VRoundEnd
p7046
sg34
I0
sg35
VPT7M30.5633055S
p7047
sassb.