ccopy_reg
_reconstructor
p1
(c__main__
match_breakdown
p2
c__builtin__
object
p3
NtRp4
(dp5
S'details'
p6
(dp7
VIsCompleteSetOfEvents
p8
I01
sVLinks
p9
(dp10
VUgcFilmManifest
p11
(dp12
VAuthenticationLifetimeExtensionSupported
p13
I00
sVQueryString
p14
V?view=film-manifest
p15
sVRetryPolicyId
p16
Vexponentialretry
p17
sVPath
p18
V/h5/films/57d49aa6-1a28-43c0-9ac6-083dac9bb84e
p19
sVAcknowledgementTypeId
p20
I0
sVAuthorityId
p21
Vugc
p22
sVTopicName
p23
V
ssVStatsMatchDetails
p24
(dp25
g13
I00
sg14
Nsg16
Vexponentialretry
p26
sg18
Vh5/custom/matches/57d49aa6-1a28-43c0-9ac6-083dac9bb84e
p27
sg20
I0
sg21
Vspartanstats
p28
sg23
V
sssVGameEvents
p29
(lp30
(dp31
VEventName
p32
VRoundStart
p33
sVRoundIndex
p34
I0
sVTimeSinceStart
p35
VPT0.0650027S
p36
sa(dp37
VWeaponStockId
p38
I313138863
sVPlayer
p39
(dp40
VGamertag
p41
VnV eL ToWn
p42
sVXuid
p43
NssVWeaponAttachmentIds
p44
(lp45
I1095363701
asg32
VWeaponPickup
p46
sg35
VPT16.1646212S
p47
sa(dp48
g38
I4096745987
sg39
(dp49
g41
VnV eL ToWn
p50
sg43
Nssg44
(lp51
I2758383128
asg32
VWeaponPickup
p52
sg35
VPT16.1646212S
p53
sa(dp54
g32
VPlayerSpawn
p55
sg39
(dp56
g41
VnV eL ToWn
p57
sg43
Nssg35
VPT16.1646212S
p58
sa(dp59
g38
I313138863
sg39
(dp60
g41
VOG ACE HCS
p61
sg43
Nssg44
(lp62
I1095363701
asg32
VWeaponPickup
p63
sg35
VPT16.177622S
p64
sa(dp65
g38
I4096745987
sg39
(dp66
g41
VOG ACE HCS
p67
sg43
Nssg44
(lp68
I2758383128
asg32
VWeaponPickup
p69
sg35
VPT16.177622S
p70
sa(dp71
g32
VPlayerSpawn
p72
sg39
(dp73
g41
VOG ACE HCS
p74
sg43
Nssg35
VPT16.1839319S
p75
sa(dp76
g38
I313138863
sg39
(dp77
g41
VOG Maniac HCS
p78
sg43
Nssg44
(lp79
I1095363701
asg32
VWeaponPickup
p80
sg35
VPT16.1956223S
p81
sa(dp82
g38
I4096745987
sg39
(dp83
g41
VOG Maniac HCS
p84
sg43
Nssg44
(lp85
I2758383128
asg32
VWeaponPickup
p86
sg35
VPT16.1956223S
p87
sa(dp88
g32
VPlayerSpawn
p89
sg39
(dp90
g41
VOG Maniac HCS
p91
sg43
Nssg35
VPT16.1956223S
p92
sa(dp93
g38
I313138863
sg39
(dp94
g41
VnV Pistola HCS
p95
sg43
Nssg44
(lp96
I1095363701
asg32
VWeaponPickup
p97
sg35
VPT16.2056222S
p98
sa(dp99
g38
I4096745987
sg39
(dp100
g41
VnV Pistola HCS
p101
sg43
Nssg44
(lp102
I2758383128
asg32
VWeaponPickup
p103
sg35
VPT16.206623S
p104
sa(dp105
g32
VPlayerSpawn
p106
sg39
(dp107
g41
VnV Pistola HCS
p108
sg43
Nssg35
VPT16.206623S
p109
sa(dp110
g38
I313138863
sg39
(dp111
g41
VnV RayneHCS
p112
sg43
Nssg44
(lp113
I1095363701
asg32
VWeaponPickup
p114
sg35
VPT16.2166231S
p115
sa(dp116
g38
I4096745987
sg39
(dp117
g41
VnV RayneHCS
p118
sg43
Nssg44
(lp119
I2758383128
asg32
VWeaponPickup
p120
sg35
VPT16.217623S
p121
sa(dp122
g32
VPlayerSpawn
p123
sg39
(dp124
g41
VnV RayneHCS
p125
sg43
Nssg35
VPT16.217623S
p126
sa(dp127
g38
I313138863
sg39
(dp128
g41
VOG APG HCS
p129
sg43
Nssg44
(lp130
I1095363701
asg32
VWeaponPickup
p131
sg35
VPT16.2338175S
p132
sa(dp133
g38
I4096745987
sg39
(dp134
g41
VOG APG HCS
p135
sg43
Nssg44
(lp136
I2758383128
asg32
VWeaponPickup
p137
sg35
VPT16.2338175S
p138
sa(dp139
g32
VPlayerSpawn
p140
sg39
(dp141
g41
VOG APG HCS
p142
sg43
Nssg35
VPT16.2338175S
p143
sa(dp144
g38
I313138863
sg39
(dp145
g41
VOG Str8 SickHCS
p146
sg43
Nssg44
(lp147
I1095363701
asg32
VWeaponPickup
p148
sg35
VPT16.2446237S
p149
sa(dp150
g38
I4096745987
sg39
(dp151
g41
VOG Str8 SickHCS
p152
sg43
Nssg44
(lp153
I2758383128
asg32
VWeaponPickup
p154
sg35
VPT16.2456249S
p155
sa(dp156
g32
VPlayerSpawn
p157
sg39
(dp158
g41
VOG Str8 SickHCS
p159
sg43
Nssg35
VPT16.2456249S
p160
sa(dp161
g38
I313138863
sg39
(dp162
g41
VnV Mikwen HCS
p163
sg43
Nssg44
(lp164
I1095363701
asg32
VWeaponPickup
p165
sg35
VPT16.2756256S
p166
sa(dp167
g38
I4096745987
sg39
(dp168
g41
VnV Mikwen HCS
p169
sg43
Nssg44
(lp170
I2758383128
asg32
VWeaponPickup
p171
sg35
VPT16.2756256S
p172
sa(dp173
g32
VPlayerSpawn
p174
sg39
(dp175
g41
VnV Mikwen HCS
p176
sg43
Nssg35
VPT16.2756256S
p177
sa(dp178
g38
I2492868984
sg39
(dp179
g41
VnV RayneHCS
p180
sg43
Nssg44
(lp181
I2758383128
asg32
VWeaponPickup
p182
sg35
VPT24.1949287S
p183
sa(dp184
VKillerWeaponStockId
p185
I4096745987
sVIsAssassination
p186
I00
sVIsMelee
p187
I00
sVKiller
p188
(dp189
g41
VOG Str8 SickHCS
p190
sg43
NssVKillerWeaponAttachmentIds
p191
(lp192
I2758383128
asVIsGroundPound
p193
I00
sVIsWeapon
p194
I01
sVDeathDisposition
p195
I1
sVVictimStockId
p196
I0
sVVictimAgent
p197
I1
sVKillerWorldLocation
p198
(dp199
Vy
F7.2649239999999997
sVx
F-1.42552185
sVz
F4.8005924200000001
ssVVictimWorldLocation
p200
(dp201
Vy
F2.1848213699999999
sVx
F7.7575125700000003
sVz
F3.200726
ssVIsShoulderBash
p202
I00
sVVictim
p203
(dp204
g41
VnV RayneHCS
p205
sg43
NssVVictimAttachmentIds
p206
(lp207
sVAssistants
p208
(lp209
(dp210
g41
VOG APG HCS
p211
sg43
NsasVIsHeadshot
p212
I01
sg35
VPT25.1339653S
p213
sg32
VDeath
p214
sVKillerAgent
p215
I1
sa(dp216
g32
VMedal
p217
sg39
(dp218
g41
VOG Str8 SickHCS
p219
sg43
NssVMedalId
p220
I3261908037
sg35
VPT25.1359659S
p221
sa(dp222
g32
VMedal
p223
sg39
(dp224
g41
VOG Str8 SickHCS
p225
sg43
Nssg220
I3001183151
sg35
VPT25.1359659S
p226
sa(dp227
g38
I2492868984
sg32
VWeaponDrop
p228
sVShotsFired
p229
I0
sg44
(lp230
I2758383128
asg35
VPT25.1999677S
p231
sVShotsLanded
p232
I0
sVTimeWeaponActiveAsPrimary
p233
VP0DT0H0M0.7833S
p234
sg39
(dp235
g41
VnV RayneHCS
p236
sg43
Nssa(dp237
g38
I313138863
sg32
VWeaponDrop
p238
sg229
I0
sg44
(lp239
I1095363701
asg35
VPT25.2009681S
p240
sg232
I0
sg233
VP0DT0H0M1.0833S
p241
sg39
(dp242
g41
VnV RayneHCS
p243
sg43
Nssa(dp244
g38
I4096745987
sg32
VWeaponDrop
p245
sg229
I0
sg44
(lp246
I2758383128
asg35
VPT25.2009681S
p247
sg232
I0
sg233
VP0DT0H0M7.0333S
p248
sg39
(dp249
g41
VnV RayneHCS
p250
sg43
Nssa(dp251
g38
I313138863
sg32
VWeaponDrop
p252
sg229
I0
sg44
(lp253
I1095363701
asg35
VPT28.676593S
p254
sg232
I0
sg233
VP0DT0H0M1.9333S
p255
sg39
(dp256
g41
VOG Maniac HCS
p257
sg43
Nssa(dp258
g38
I669296699
sg39
(dp259
g41
VOG Maniac HCS
p260
sg43
Nssg44
(lp261
I2758383128
asg32
VWeaponPickupPad
p262
sg35
VPT28.676593S
p263
sa(dp264
g38
I669296699
sg39
(dp265
g41
VOG Maniac HCS
p266
sg43
Nssg44
(lp267
I2758383128
asg32
VWeaponPickup
p268
sg35
VPT28.6781184S
p269
sa(dp270
g38
I313138863
sg32
VWeaponDrop
p271
sg229
I0
sg44
(lp272
I1095363701
asg35
VPT32.0565201S
p273
sg232
I0
sg233
VP0DT0H0M5.4500S
p274
sg39
(dp275
g41
VnV Mikwen HCS
p276
sg43
Nssa(dp277
g38
I723388907
sg39
(dp278
g41
VnV Mikwen HCS
p279
sg43
Nssg44
(lp280
I89283061
asg32
VWeaponPickup
p281
sg35
VPT32.0565872S
p282
sa(dp283
g38
I313138863
sg39
(dp284
g41
VnV RayneHCS
p285
sg43
Nssg44
(lp286
I1095363701
asg32
VWeaponPickup
p287
sg35
VPT33.2530364S
p288
sa(dp289
g38
I4096745987
sg39
(dp290
g41
VnV RayneHCS
p291
sg43
Nssg44
(lp292
I2758383128
asg32
VWeaponPickup
p293
sg35
VPT33.2532772S
p294
sa(dp295
g32
VPlayerSpawn
p296
sg39
(dp297
g41
VnV RayneHCS
p298
sg43
Nssg35
VPT33.2532772S
p299
sa(dp300
g185
I4106030681
sg186
I00
sg187
I00
sg188
(dp301
g41
VOG APG HCS
p302
sg43
Nssg191
(lp303
sg193
I00
sg194
I00
sg195
I2
sg196
I0
sg197
I0
sg198
(dp304
Vy
F-5.3334455500000004
sVx
F11.2038946
sVz
F1.5641750000000001
ssg200
(dp305
Vy
F-4.2828470000000003
sVx
F21.1420174
sVz
F1.20812583
ssg202
I00
sg203
(dp306
S'Gamertag'
p307
S'None'
p308
ssg206
(lp309
sg208
(lp310
sg212
I00
sg35
VPT35.7733739S
p311
sg32
VDeath
p312
sg215
I1
sa(dp313
g38
I313138863
sg32
VWeaponDrop
p314
sg229
I0
sg44
(lp315
I1095363701
asg35
VPT36.4554864S
p316
sg232
I0
sg233
VP0DT0H0M1.0000S
p317
sg39
(dp318
g41
VnV RayneHCS
p319
sg43
Nssa(dp320
g38
I524558978
sg39
(dp321
g41
VnV RayneHCS
p322
sg43
Nssg44
(lp323
I2758383128
asg32
VWeaponPickup
p324
sg35
VPT36.4554864S
p325
sa(dp326
g185
I4096745987
sg186
I00
sg187
I00
sg188
(dp327
g41
VnV eL ToWn
p328
sg43
Nssg191
(lp329
I2758383128
asg193
I00
sg194
I01
sg195
I1
sg196
I0
sg197
I1
sg198
(dp330
Vy
F8.7896929999999998
sVx
F1.202016
sVz
F2.4913957099999999
ssg200
(dp331
Vy
F8.5829570000000004
sVx
F-4.6374769999999996
sVz
F3.60000038
ssg202
I00
sg203
(dp332
g41
VOG Str8 SickHCS
p333
sg43
Nssg206
(lp334
sg208
(lp335
(dp336
g41
VnV Mikwen HCS
p337
sg43
Nsasg212
I01
sg35
VPT37.5944441S
p338
sg32
VDeath
p339
sg215
I1
sa(dp340
g32
VMedal
p341
sg39
(dp342
g41
VnV eL ToWn
p343
sg43
Nssg220
I3261908037
sg35
VPT37.5954436S
p344
sa(dp345
g38
I4096745987
sg32
VWeaponDrop
p346
sg229
I17
sg44
(lp347
I2758383128
asg35
VPT37.5964435S
p348
sg232
I9
sg233
VP0DT0H0M16.0333S
p349
sg39
(dp350
g41
VOG Str8 SickHCS
p351
sg43
Nssa(dp352
g38
I313138863
sg32
VWeaponDrop
p353
sg229
I0
sg44
(lp354
I1095363701
asg35
VPT37.603444S
p355
sg232
I0
sg233
VP0DT0H0M5.1833S
p356
sg39
(dp357
g41
VOG Str8 SickHCS
p358
sg43
Nssa(dp359
g185
I313138863
sg186
I00
sg187
I00
sg188
(dp360
g41
VnV eL ToWn
p361
sg43
Nssg191
(lp362
I1095363701
asg193
I00
sg194
I01
sg195
I1
sg196
I0
sg197
I1
sg198
(dp363
Vy
F12.1648417
sVx
F-2.6167926800000001
sVz
F2.4816095800000002
ssg200
(dp364
Vy
F12.5904293
sVx
F-5.9370770000000004
sVz
F2.3407747699999999
ssg202
I00
sg203
(dp365
g41
VOG ACE HCS
p366
sg43
Nssg206
(lp367
sg208
(lp368
(dp369
g41
VnV Mikwen HCS
p370
sg43
Nsasg212
I00
sg35
VPT40.4895645S
p371
sg32
VDeath
p372
sg215
I1
sa(dp373
g32
VMedal
p374
sg39
(dp375
g41
VnV eL ToWn
p376
sg43
Nssg220
I2838259753
sg35
VPT40.4905549S
p377
sa(dp378
g32
VImpulse
p379
sg39
(dp380
g41
VnV eL ToWn
p381
sg43
NssVImpulseId
p382
I2556889090
sg35
VPT40.4905549S
p383
sa(dp384
g32
VMedal
p385
sg39
(dp386
g41
VnV eL ToWn
p387
sg43
Nssg220
I2078758684
sg35
VPT40.4975555S
p388
sa(dp389
g38
I313138863
sg32
VWeaponDrop
p390
sg229
I0
sg44
(lp391
I1095363701
asg35
VPT40.4975555S
p392
sg232
I0
sg233
VP0DT0H0M1.9167S
p393
sg39
(dp394
g41
VOG ACE HCS
p395
sg43
Nssa(dp396
g38
I4096745987
sg32
VWeaponDrop
p397
sg229
I11
sg44
(lp398
I2758383128
asg35
VPT40.4975555S
p399
sg232
I3
sg233
VP0DT0H0M22.2833S
p400
sg39
(dp401
g41
VOG ACE HCS
p402
sg43
Nssa(dp403
g185
I4096745987
sg186
I00
sg187
I00
sg188
(dp404
g41
VOG APG HCS
p405
sg43
Nssg191
(lp406
I2758383128
asg193
I00
sg194
I01
sg195
I1
sg196
I0
sg197
I1
sg198
(dp407
Vy
F-1.9351061599999999
sVx
F3.7743723400000002
sVz
F1.21603858
ssg200
(dp408
Vy
F13.6050062
sVx
F-3.30513477
sVz
F2.2644114499999999
ssg202
I00
sg203
(dp409
g41
VnV eL ToWn
p410
sg43
Nssg206
(lp411
sg208
(lp412
sg212
I01
sg35
VPT40.9625734S
p413
sg32
VDeath
p414
sg215
I1
sa(dp415
g32
VImpulse
p416
sg39
(dp417
g41
VOG APG HCS
p418
sg43
Nssg382
I3174430457
sg35
VPT40.9635732S
p419
sa(dp420
g32
VMedal
p421
sg39
(dp422
g41
VOG APG HCS
p423
sg43
Nssg220
I3653057799
sg35
VPT40.9645779S
p424
sa(dp425
g38
I313138863
sg32
VWeaponDrop
p426
sg229
I17
sg44
(lp427
I1095363701
asg35
VPT40.9655732S
p428
sg232
I13
sg233
VP0DT0H0M3.4667S
p429
sg39
(dp430
g41
VnV eL ToWn
p431
sg43
Nssa(dp432
g38
I4096745987
sg32
VWeaponDrop
p433
sg229
I4
sg44
(lp434
I2758383128
asg35
VPT40.9655732S
p435
sg232
I3
sg233
VP0DT0H0M21.2167S
p436
sg39
(dp437
g41
VnV eL ToWn
p438
sg43
Nssa(dp439
g185
I313138863
sg186
I00
sg187
I00
sg188
(dp440
g41
VnV Pistola HCS
p441
sg43
Nssg191
(lp442
I1095363701
asg193
I00
sg194
I01
sg195
I1
sg196
I0
sg197
I1
sg198
(dp443
Vy
F-2.4844341299999999
sVx
F5.0476965900000001
sVz
F0.80010139999999996
ssg200
(dp444
Vy
F1.4499932499999999
sVx
F3.36745143
sVz
F-0.0189597011
ssg202
I00
sg203
(dp445
g41
VOG APG HCS
p446
sg43
Nssg206
(lp447
sg208
(lp448
sg212
I00
sg35
VPT42.8043747S
p449
sg32
VDeath
p450
sg215
I1
sa(dp451
g38
I313138863
sg32
VWeaponDrop
p452
sg229
I0
sg44
(lp453
I1095363701
asg35
VPT42.8056434S
p454
sg232
I0
sg233
VP0DT0H0M2.2833S
p455
sg39
(dp456
g41
VOG APG HCS
p457
sg43
Nssa(dp458
g38
I4096745987
sg32
VWeaponDrop
p459
sg229
I14
sg44
(lp460
I2758383128
asg35
VPT42.8056434S
p461
sg232
I9
sg233
VP0DT0H0M24.1500S
p462
sg39
(dp463
g41
VOG APG HCS
p464
sg43
Nssa(dp465
g38
I313138863
sg39
(dp466
g41
VOG Str8 SickHCS
p467
sg43
Nssg44
(lp468
I1095363701
asg32
VWeaponPickup
p469
sg35
VPT45.6077525S
p470
sa(dp471
g38
I4096745987
sg39
(dp472
g41
VOG Str8 SickHCS
p473
sg43
Nssg44
(lp474
I2758383128
asg32
VWeaponPickup
p475
sg35
VPT45.6077525S
p476
sa(dp477
g32
VPlayerSpawn
p478
sg39
(dp479
g41
VOG Str8 SickHCS
p480
sg43
Nssg35
VPT45.6077525S
p481
sa(dp482
g38
I313138863
sg39
(dp483
g41
VOG ACE HCS
p484
sg43
Nssg44
(lp485
I1095363701
asg32
VWeaponPickup
p486
sg35
VPT48.6408683S
p487
sa(dp488
g38
I4096745987
sg39
(dp489
g41
VOG ACE HCS
p490
sg43
Nssg44
(lp491
I2758383128
asg32
VWeaponPickup
p492
sg35
VPT48.6408683S
p493
sa(dp494
g32
VPlayerSpawn
p495
sg39
(dp496
g41
VOG ACE HCS
p497
sg43
Nssg35
VPT48.6408683S
p498
sa(dp499
g38
I313138863
sg39
(dp500
g41
VnV eL ToWn
p501
sg43
Nssg44
(lp502
I1095363701
asg32
VWeaponPickup
p503
sg35
VPT49.1131021S
p504
sa(dp505
g38
I4096745987
sg39
(dp506
g41
VnV eL ToWn
p507
sg43
Nssg44
(lp508
I2758383128
asg32
VWeaponPickup
p509
sg35
VPT49.1138866S
p510
sa(dp511
g32
VPlayerSpawn
p512
sg39
(dp513
g41
VnV eL ToWn
p514
sg43
Nssg35
VPT49.1138866S
p515
sa(dp516
g38
I313138863
sg39
(dp517
g41
VOG APG HCS
p518
sg43
Nssg44
(lp519
I1095363701
asg32
VWeaponPickup
p520
sg35
VPT50.9409569S
p521
sa(dp522
g38
I4096745987
sg39
(dp523
g41
VOG APG HCS
p524
sg43
Nssg44
(lp525
I2758383128
asg32
VWeaponPickup
p526
sg35
VPT50.9409569S
p527
sa(dp528
g32
VPlayerSpawn
p529
sg39
(dp530
g41
VOG APG HCS
p531
sg43
Nssg35
VPT50.9409569S
p532
sa(dp533
g185
I723388907
sg186
I00
sg187
I00
sg188
(dp534
g41
VnV Mikwen HCS
p535
sg43
Nssg191
(lp536
I89283061
asg193
I00
sg194
I01
sg195
I1
sg196
I0
sg197
I1
sg198
(dp537
Vy
F-5.4353656800000003
sVx
F21.530082700000001
sVz
F0.79821324299999996
ssg200
(dp538
Vy
F-2.0545819999999999
sVx
F23.1598167
sVz
F-0.0064161119999999999
ssg202
I00
sg203
(dp539
g41
VOG ACE HCS
p540
sg43
Nssg206
(lp541
sg208
(lp542
(dp543
g41
VnV Pistola HCS
p544
sg43
Nsasg212
I00
sg35
VPT57.1421948S
p545
sg32
VDeath
p546
sg215
I1
sa(dp547
g38
I313138863
sg32
VWeaponDrop
p548
sg229
I0
sg44
(lp549
I1095363701
asg35
VPT57.1501943S
p550
sg232
I0
sg233
VP0DT0H0M0.6167S
p551
sg39
(dp552
g41
VOG ACE HCS
p553
sg43
Nssa(dp554
g38
I4096745987
sg32
VWeaponDrop
p555
sg229
I10
sg44
(lp556
I2758383128
asg35
VPT57.1501943S
p557
sg232
I4
sg233
VP0DT0H0M7.8833S
p558
sg39
(dp559
g41
VOG ACE HCS
p560
sg43
Nssa(dp561
g185
I4096745987
sg186
I00
sg187
I00
sg188
(dp562
g41
VOG APG HCS
p563
sg43
Nssg191
(lp564
I2758383128
asg193
I00
sg194
I01
sg195
I1
sg196
I0
sg197
I1
sg198
(dp565
Vy
F13.307230000000001
sVx
F6.4555170000000004
sVz
F3.31581116
ssg200
(dp566
Vy
F10.0213366
sVx
F11.7541952
sVz
F3.1995623100000001
ssg202
I00
sg203
(dp567
g41
VnV RayneHCS
p568
sg43
Nssg206
(lp569
sg208
(lp570
(dp571
g41
VOG Str8 SickHCS
p572
sg43
Nsasg212
I01
sg35
VPT58.8432602S
p573
sg32
VDeath
p574
sg215
I1
sa(dp575
g32
VMedal
p576
sg39
(dp577
g41
VOG APG HCS
p578
sg43
Nssg220
I3261908037
sg35
VPT58.84426S
p579
sa(dp580
g38
I524558978
sg32
VWeaponDrop
p581
sg229
I1
sg44
(lp582
I2758383128
asg35
VPT58.8452605S
p583
sg232
I0
sg233
VP0DT0H0M7.6667S
p584
sg39
(dp585
g41
VnV RayneHCS
p586
sg43
Nssa(dp587
g38
I4096745987
sg32
VWeaponDrop
p588
sg229
I1
sg44
(lp589
I2758383128
asg35
VPT58.8452605S
p590
sg232
I0
sg233
VP0DT0H0M16.7833S
p591
sg39
(dp592
g41
VnV RayneHCS
p593
sg43
Nssa(dp594
g38
I4096745987
sg32
VWeaponDrop
p595
sg229
I10
sg44
(lp596
I2758383128
asg35
VPT59.4607417S
p597
sg232
I1
sg233
VP0DT0H0M21.6500S
p598
sg39
(dp599
g41
VnV Mikwen HCS
p600
sg43
Nssa(dp601
g38
I424645655
sg39
(dp602
g41
VnV Mikwen HCS
p603
sg43
Nssg44
(lp604
I1327094800
asg32
VWeaponPickup
p605
sg35
VPT59.4608751S
p606
sa(dp607
g185
I4096745987
sg186
I00
sg187
I00
sg188
(dp608
g41
VnV eL ToWn
p609
sg43
Nssg191
(lp610
I2758383128
asg193
I00
sg194
I01
sg195
I1
sg196
I0
sg197
I1
sg198
(dp611
Vy
F-1.15584219
sVx
F-0.39835533499999998
sVz
F4.7542450000000001
ssg200
(dp612
Vy
F13.282837900000001
sVx
F2.5924317800000001
sVz
F3.1987402399999998
ssg202
I00
sg203
(dp613
g41
VOG APG HCS
p614
sg43
Nssg206
(lp615
sg208
(lp616
sg212
I01
sg35
VPT1M0.0113051S
p617
sg32
VDeath
p618
sg215
I1
sa(dp619
g32
VMedal
p620
sg39
(dp621
g41
VnV eL ToWn
p622
sg43
Nssg220
I3261908037
sg35
VPT1M0.0193373S
p623
sa(dp624
g38
I313138863
sg32
VWeaponDrop
p625
sg229
I0
sg44
(lp626
I1095363701
asg35
VPT1M0.0194036S
p627
sg232
I0
sg233
VP0DT0H0M1.3167S
p628
sg39
(dp629
g41
VOG APG HCS
p630
sg43
Nssa(dp631
g38
I4096745987
sg32
VWeaponDrop
p632
sg229
I6
sg44
(lp633
I2758383128
asg35
VPT1M0.0194036S
p634
sg232
I5
sg233
VP0DT0H0M7.7667S
p635
sg39
(dp636
g41
VOG APG HCS
p637
sg43
Nssa(dp638
g185
I4096745987
sg186
I00
sg187
I00
sg188
(dp639
g41
VOG Str8 SickHCS
p640
sg43
Nssg191
(lp641
I2758383128
asg193
I00
sg194
I01
sg195
I1
sg196
I0
sg197
I1
sg198
(dp642
Vy
F10.9548883
sVx
F17.226968800000002
sVz
F3.1995618299999999
ssg200
(dp643
Vy
F-0.098433450000000006
sVx
F15.412086499999999
sVz
F2.0789019999999998
ssg202
I00
sg203
(dp644
g41
VnV Mikwen HCS
p645
sg43
Nssg206
(lp646
sg208
(lp647
(dp648
g41
VOG ACE HCS
p649
sg43
Nsasg212
I01
sg35
VPT1M1.3613564S
p650
sg32
VDeath
p651
sg215
I1
sa(dp652
g32
VMedal
p653
sg39
(dp654
g41
VOG Str8 SickHCS
p655
sg43
Nssg220
I3261908037
sg35
VPT1M1.3623569S
p656
sa(dp657
g38
I723388907
sg32
VWeaponDrop
p658
sg229
I68
sg44
(lp659
I89283061
asg35
VPT1M1.3633567S
p660
sg232
I25
sg233
VP0DT0H0M15.8500S
p661
sg39
(dp662
g41
VnV Mikwen HCS
p663
sg43
Nssa(dp664
g38
I424645655
sg32
VWeaponDrop
p665
sg229
I3
sg44
(lp666
I1327094800
asg35
VPT1M1.3633567S
p667
sg232
I3
sg233
VP0DT0H0M1.9000S
p668
sg39
(dp669
g41
VnV Mikwen HCS
p670
sg43
Nssa(dp671
g38
I313138863
sg39
(dp672
g41
VOG ACE HCS
p673
sg43
Nssg44
(lp674
I1095363701
asg32
VWeaponPickup
p675
sg35
VPT1M5.159503S
p676
sa(dp677
g38
I4096745987
sg39
(dp678
g41
VOG ACE HCS
p679
sg43
Nssg44
(lp680
I2758383128
asg32
VWeaponPickup
p681
sg35
VPT1M5.1605029S
p682
sa(dp683
g32
VPlayerSpawn
p684
sg39
(dp685
g41
VOG ACE HCS
p686
sg43
Nssg35
VPT1M5.1605029S
p687
sa(dp688
g38
I313138863
sg39
(dp689
g41
VnV RayneHCS
p690
sg43
Nssg44
(lp691
I1095363701
asg32
VWeaponPickup
p692
sg35
VPT1M6.8625682S
p693
sa(dp694
g38
I4096745987
sg39
(dp695
g41
VnV RayneHCS
p696
sg43
Nssg44
(lp697
I2758383128
asg32
VWeaponPickup
p698
sg35
VPT1M6.8625682S
p699
sa(dp700
g32
VPlayerSpawn
p701
sg39
(dp702
g41
VnV RayneHCS
p703
sg43
Nssg35
VPT1M6.8625682S
p704
sa(dp705
g38
I313138863
sg39
(dp706
g41
VOG APG HCS
p707
sg43
Nssg44
(lp708
I1095363701
asg32
VWeaponPickup
p709
sg35
VPT1M8.0286134S
p710
sa(dp711
g38
I4096745987
sg39
(dp712
g41
VOG APG HCS
p713
sg43
Nssg44
(lp714
I2758383128
asg32
VWeaponPickup
p715
sg35
VPT1M8.0286134S
p716
sa(dp717
g32
VPlayerSpawn
p718
sg39
(dp719
g41
VOG APG HCS
p720
sg43
Nssg35
VPT1M8.0286134S
p721
sa(dp722
g38
I313138863
sg39
(dp723
g41
VnV Mikwen HCS
p724
sg43
Nssg44
(lp725
I1095363701
asg32
VWeaponPickup
p726
sg35
VPT1M9.3946648S
p727
sa(dp728
g38
I4096745987
sg39
(dp729
g41
VnV Mikwen HCS
p730
sg43
Nssg44
(lp731
I2758383128
asg32
VWeaponPickup
p732
sg35
VPT1M9.3956658S
p733
sa(dp734
g32
VPlayerSpawn
p735
sg39
(dp736
g41
VnV Mikwen HCS
p737
sg43
Nssg35
VPT1M9.3956658S
p738
sa(dp739
g185
I4096745987
sg186
I00
sg187
I00
sg188
(dp740
g41
VOG ACE HCS
p741
sg43
Nssg191
(lp742
I2758383128
asg193
I00
sg194
I01
sg195
I1
sg196
I0
sg197
I1
sg198
(dp743
Vy
F-5.8561525300000001
sVx
F13.193434699999999
sVz
F3.69400263
ssg200
(dp744
Vy
F5.0954639999999998
sVx
F19.505357700000001
sVz
F-0.0059528649999999999
ssg202
I00
sg203
(dp745
g41
VnV Pistola HCS
p746
sg43
Nssg206
(lp747
sg208
(lp748
(dp749
g41
VOG Str8 SickHCS
p750
sg43
Nsasg212
I01
sg35
VPT1M9.4606675S
p751
sg32
VDeath
p752
sg215
I1
sa(dp753
g32
VMedal
p754
sg39
(dp755
g41
VOG ACE HCS
p756
sg43
Nssg220
I2838259753
sg35
VPT1M9.4606675S
p757
sa(dp758
g32
VImpulse
p759
sg39
(dp760
g41
VOG ACE HCS
p761
sg43
Nssg382
I2556889090
sg35
VPT1M9.4606675S
p762
sa(dp763
g32
VMedal
p764
sg39
(dp765
g41
VOG Maniac HCS
p766
sg43
Nssg220
I824733727
sg35
VPT1M9.4606675S
p767
sa(dp768
g32
VMedal
p769
sg39
(dp770
g41
VOG ACE HCS
p771
sg43
Nssg220
I3261908037
sg35
VPT1M9.4626672S
p772
sa(dp773
g38
I313138863
sg32
VWeaponDrop
p774
sg229
I38
sg44
(lp775
I1095363701
asg35
VPT1M9.4686681S
p776
sg232
I18
sg233
VP0DT0H0M10.1833S
p777
sg39
(dp778
g41
VnV Pistola HCS
p779
sg43
Nssa(dp780
g38
I4096745987
sg32
VWeaponDrop
p781
sg229
I14
sg44
(lp782
I2758383128
asg35
VPT1M9.4686681S
p783
sg232
I9
sg233
VP0DT0H0M42.8333S
p784
sg39
(dp785
g41
VnV Pistola HCS
p786
sg43
Nssa(dp787
g185
I313138863
sg186
I00
sg187
I00
sg188
(dp788
g41
VnV eL ToWn
p789
sg43
Nssg191
(lp790
I1095363701
asg193
I00
sg194
I01
sg195
I1
sg196
I0
sg197
I1
sg198
(dp791
Vy
F8.8830620000000007
sVx
F17.2773781
sVz
F3.1995619999999998
ssg200
(dp792
Vy
F4.7996059999999998
sVx
F15.2411671
sVz
F2.0914864500000001
ssg202
I00
sg203
(dp793
g41
VOG Str8 SickHCS
p794
sg43
Nssg206
(lp795
sg208
(lp796
(dp797
g41
VnV Pistola HCS
p798
sg43
Nsasg212
I00
sg35
VPT1M11.5397474S
p799
sg32
VDeath
p800
sg215
I1
sa(dp801
g38
I313138863
sg32
VWeaponDrop
p802
sg229
I28
sg44
(lp803
I1095363701
asg35
VPT1M11.5467467S
p804
sg232
I14
sg233
VP0DT0H0M13.8667S
p805
sg39
(dp806
g41
VOG Str8 SickHCS
p807
sg43
Nssa(dp808
g38
I4096745987
sg32
VWeaponDrop
p809
sg229
I7
sg44
(lp810
I2758383128
asg35
VPT1M11.5467467S
p811
sg232
I4
sg233
VP0DT0H0M11.9333S
p812
sg39
(dp813
g41
VOG Str8 SickHCS
p814
sg43
Nssa(dp815
g38
I313138863
sg32
VWeaponDrop
p816
sg229
I0
sg44
(lp817
I1095363701
asg35
VPT1M12.1717758S
p818
sg232
I0
sg233
VP0DT0H0M1.0500S
p819
sg39
(dp820
g41
VnV Mikwen HCS
p821
sg43
Nssa(dp822
g38
I1579758889
sg39
(dp823
g41
VnV Mikwen HCS
p824
sg43
Nssg44
(lp825
I2758383128
asg32
VWeaponPickup
p826
sg35
VPT1M12.1717758S
p827
sa(dp828
g185
I4096745987
sg186
I00
sg187
I00
sg188
(dp829
g41
VOG ACE HCS
p830
sg43
Nssg191
(lp831
I2758383128
asg193
I00
sg194
I00
sg195
I2
sg196
I0
sg197
I0
sg198
(dp832
Vy
F-6.0652229999999996
sVx
F12.6245995
sVz
F3.6936979999999999
ssg200
(dp833
Vy
F9.3494270000000004
sVx
F12.289108300000001
sVz
F5.504264
ssg202
I00
sg203
(dp834
g307
g308
ssg206
(lp835
sg208
(lp836
sg212
I00
sg35
VPT1M12.3077771S
p837
sg32
VDeath
p838
sg215
I1
sa(dp839
g185
I1579758889
sg186
I00
sg187
I00
sg188
(dp840
g41
VnV Mikwen HCS
p841
sg43
Nssg191
(lp842
I2758383128
asg193
I00
sg194
I01
sg195
I1
sg196
I0
sg197
I1
sg198
(dp843
Vy
F-2.8210890000000002
sVx
F3.4013059999999999
sVz
F0.67702799999999996
ssg200
(dp844
Vy
F6.0038729999999996
sVx
F20.091182700000001
sVz
F-0.0060320496600000002
ssg202
I00
sg203
(dp845
g41
VOG Maniac HCS
p846
sg43
Nssg206
(lp847
sg208
(lp848
(dp849
g41
VnV eL ToWn
p850
sg43
Nsasg212
I00
sg35
VPT1M16.0269196S
p851
sg32
VDeath
p852
sg215
I1
sa(dp853
g38
I669296699
sg32
VWeaponDrop
p854
sg229
I4
sg44
(lp855
I2758383128
asg35
VPT1M16.0289196S
p856
sg232
I0
sg233
VP0DT0H0M42.0333S
p857
sg39
(dp858
g41
VOG Maniac HCS
p859
sg43
Nssa(dp860
g38
I4096745987
sg32
VWeaponDrop
p861
sg229
I3
sg44
(lp862
I2758383128
asg35
VPT1M16.0289196S
p863
sg232
I0
sg233
VP0DT0H0M15.6167S
p864
sg39
(dp865
g41
VOG Maniac HCS
p866
sg43
Nssa(dp867
g185
I4106030681
sg186
I00
sg187
I00
sg188
(dp868
g41
VOG APG HCS
p869
sg43
Nssg191
(lp870
sg193
I00
sg194
I01
sg195
I1
sg196
I0
sg197
I1
sg198
(dp871
Vy
F-9.1008980000000008
sVx
F14.8409672
sVz
F2.9618775799999999
ssg200
(dp872
Vy
F8.0094385100000007
sVx
F18.69961
sVz
F3.3030424100000002
ssg202
I00
sg203
(dp873
g41
VnV eL ToWn
p874
sg43
Nssg206
(lp875
sg208
(lp876
(dp877
g41
VOG Str8 SickHCS
p878
sg43
Nsa(dp879
g41
VOG ACE HCS
p880
sg43
Nsasg212
I00
sg35
VPT1M16.3269308S
p881
sg32
VDeath
p882
sg215
I1
sa(dp883
g32
VMedal
p884
sg39
(dp885
g41
VOG APG HCS
p886
sg43
Nssg220
I3491849182
sg35
VPT1M16.3279317S
p887
sa(dp888
g38
I313138863
sg32
VWeaponDrop
p889
sg229
I36
sg44
(lp890
I1095363701
asg35
VPT1M16.3290256S
p891
sg232
I16
sg233
VP0DT0H0M6.7167S
p892
sg39
(dp893
g41
VnV eL ToWn
p894
sg43
Nssa(dp895
g38
I4096745987
sg32
VWeaponDrop
p896
sg229
I8
sg44
(lp897
I2758383128
asg35
VPT1M16.3290256S
p898
sg232
I5
sg233
VP0DT0H0M20.5000S
p899
sg39
(dp900
g41
VnV eL ToWn
p901
sg43
Nssa(dp902
g38
I313138863
sg39
(dp903
g41
VnV Pistola HCS
p904
sg43
Nssg44
(lp905
I1095363701
asg32
VWeaponPickup
p906
sg35
VPT1M17.4859742S
p907
sa(dp908
g38
I4096745987
sg39
(dp909
g41
VnV Pistola HCS
p910
sg43
Nssg44
(lp911
I2758383128
asg32
VWeaponPickup
p912
sg35
VPT1M17.4859742S
p913
sa(dp914
g32
VPlayerSpawn
p915
sg39
(dp916
g41
VnV Pistola HCS
p917
sg43
Nssg35
VPT1M17.4859742S
p918
sa(dp919
g38
I313138863
sg32
VWeaponDrop
p920
sg229
I0
sg44
(lp921
I1095363701
asg35
VPT1M18.2220031S
p922
sg232
I0
sg233
VP0DT0H0M2.5833S
p923
sg39
(dp924
g41
VnV RayneHCS
p925
sg43
Nssa(dp926
g38
I524558978
sg39
(dp927
g41
VnV RayneHCS
p928
sg43
Nssg44
(lp929
I2758383128
asg32
VWeaponPickup
p930
sg35
VPT1M18.2220031S
p931
sa(dp932
g38
I313138863
sg39
(dp933
g41
VOG Str8 SickHCS
p934
sg43
Nssg44
(lp935
I1095363701
asg32
VWeaponPickup
p936
sg35
VPT1M19.5440548S
p937
sa(dp938
g38
I4096745987
sg39
(dp939
g41
VOG Str8 SickHCS
p940
sg43
Nssg44
(lp941
I2758383128
asg32
VWeaponPickup
p942
sg35
VPT1M19.5450552S
p943
sa(dp944
g32
VPlayerSpawn
p945
sg39
(dp946
g41
VOG Str8 SickHCS
p947
sg43
Nssg35
VPT1M19.5450552S
p948
sa(dp949
g185
I313138863
sg186
I00
sg187
I00
sg188
(dp950
g41
VOG ACE HCS
p951
sg43
Nssg191
(lp952
I1095363701
asg193
I00
sg194
I01
sg195
I1
sg196
I0
sg197
I1
sg198
(dp953
Vy
F-6.2509284000000003
sVx
F15.6577644
sVz
F1.6750004300000001
ssg200
(dp954
Vy
F-3.6079225500000001
sVx
F7.0903
sVz
F0.95855869999999999
ssg202
I00
sg203
(dp955
g41
VnV Mikwen HCS
p956
sg43
Nssg206
(lp957
sg208
(lp958
(dp959
g41
VOG APG HCS
p960
sg43
Nsasg212
I00
sg35
VPT1M22.4007937S
p961
sg32
VDeath
p962
sg215
I1
sa(dp963
g32
VMedal
p964
sg39
(dp965
g41
VOG ACE HCS
p966
sg43
Nssg220
I2838259753
sg35
VPT1M22.4011643S
p967
sa(dp968
g32
VImpulse
p969
sg39
(dp970
g41
VOG ACE HCS
p971
sg43
Nssg382
I2556889090
sg35
VPT1M22.4011643S
p972
sa(dp973
g38
I1579758889
sg32
VWeaponDrop
p974
sg229
I4
sg44
(lp975
I2758383128
asg35
VPT1M22.4021639S
p976
sg232
I2
sg233
VP0DT0H0M3.1500S
p977
sg39
(dp978
g41
VnV Mikwen HCS
p979
sg43
Nssa(dp980
g38
I4096745987
sg32
VWeaponDrop
p981
sg229
I11
sg44
(lp982
I2758383128
asg35
VPT1M22.4021639S
p983
sg232
I6
sg233
VP0DT0H0M8.8167S
p984
sg39
(dp985
g41
VnV Mikwen HCS
p986
sg43
Nssa(dp987
g185
I4096745987
sg186
I00
sg187
I00
sg188
(dp988
g41
VnV Pistola HCS
p989
sg43
Nssg191
(lp990
I2758383128
asg193
I00
sg194
I01
sg195
I1
sg196
I0
sg197
I1
sg198
(dp991
Vy
F-5.1088366499999998
sVx
F2.4079816300000001
sVz
F5.1523209999999997
ssg200
(dp992
Vy
F-4.5041813900000003
sVx
F23.2599163
sVz
F0.8162353
ssg202
I00
sg203
(dp993
g41
VOG APG HCS
p994
sg43
Nssg206
(lp995
sg208
(lp996
(dp997
g41
VnV Mikwen HCS
p998
sg43
Nsasg212
I00
sg35
VPT1M22.6571743S
p999
sg32
VDeath
p1000
sg215
I1
sa(dp1001
g32
VMedal
p1002
sg39
(dp1003
g41
VnV RayneHCS
p1004
sg43
Nssg220
I824733727
sg35
VPT1M22.6581745S
p1005
sa(dp1006
g38
I4096745987
sg32
VWeaponDrop
p1007
sg229
I18
sg44
(lp1008
I2758383128
asg35
VPT1M22.6591747S
p1009
sg232
I9
sg233
VP0DT0H0M13.7833S
p1010
sg39
(dp1011
g41
VOG APG HCS
p1012
sg43
Nssa(dp1013
g38
I313138863
sg32
VWeaponDrop
p1014
sg229
I0
sg44
(lp1015
I1095363701
asg35
VPT1M22.6663382S
p1016
sg232
I0
sg233
VP0DT0H0M0.8333S
p1017
sg39
(dp1018
g41
VOG APG HCS
p1019
sg43
Nssa(dp1020
g185
I4096745987
sg186
I00
sg187
I00
sg188
(dp1021
g41
VnV RayneHCS
p1022
sg43
Nssg191
(lp1023
I2758383128
asg193
I00
sg194
I01
sg195
I1
sg196
I0
sg197
I1
sg198
(dp1024
Vy
F8.7115069999999992
sVx
F16.2263184
sVz
F3.1995619999999998
ssg200
(dp1025
Vy
F-6.4836320000000001
sVx
F16.5291271
sVz
F1.6799087500000001
ssg202
I00
sg203
(dp1026
g41
VOG ACE HCS
p1027
sg43
Nssg206
(lp1028
sg208
(lp1029
(dp1030
g41
VnV Mikwen HCS
p1031
sg43
Nsasg212
I01
sg35
VPT1M23.3456177S
p1032
sg32
VDeath
p1033
sg215
I1
sa(dp1034
g32
VMedal
p1035
sg39
(dp1036
g41
VnV RayneHCS
p1037
sg43
Nssg220
I3261908037
sg35
VPT1M23.3462001S
p1038
sa(dp1039
g38
I313138863
sg32
VWeaponDrop
p1040
sg229
I22
sg44
(lp1041
I1095363701
asg35
VPT1M23.3471997S
p1042
sg232
I6
sg233
VP0DT0H0M4.4167S
p1043
sg39
(dp1044
g41
VOG ACE HCS
p1045
sg43
Nssa(dp1046
g38
I4096745987
sg32
VWeaponDrop
p1047
sg229
I15
sg44
(lp1048
I2758383128
asg35
VPT1M23.3471997S
p1049
sg232
I2
sg233
VP0DT0H0M13.6500S
p1050
sg39
(dp1051
g41
VOG ACE HCS
p1052
sg43
Nssa(dp1053
g38
I313138863
sg39
(dp1054
g41
VOG Maniac HCS
p1055
sg43
Nssg44
(lp1056
I1095363701
asg32
VWeaponPickup
p1057
sg35
VPT1M24.1452321S
p1058
sa(dp1059
g38
I4096745987
sg39
(dp1060
g41
VOG Maniac HCS
p1061
sg43
Nssg44
(lp1062
I2758383128
asg32
VWeaponPickup
p1063
sg35
VPT1M24.1462321S
p1064
sa(dp1065
g32
VPlayerSpawn
p1066
sg39
(dp1067
g41
VOG Maniac HCS
p1068
sg43
Nssg35
VPT1M24.1462321S
p1069
sa(dp1070
g38
I313138863
sg39
(dp1071
g41
VnV eL ToWn
p1072
sg43
Nssg44
(lp1073
I1095363701
asg32
VWeaponPickup
p1074
sg35
VPT1M24.4602445S
p1075
sa(dp1076
g38
I4096745987
sg39
(dp1077
g41
VnV eL ToWn
p1078
sg43
Nssg44
(lp1079
I2758383128
asg32
VWeaponPickup
p1080
sg35
VPT1M24.4602445S
p1081
sa(dp1082
g32
VPlayerSpawn
p1083
sg39
(dp1084
g41
VnV eL ToWn
p1085
sg43
Nssg35
VPT1M24.4602445S
p1086
sa(dp1087
g38
I313138863
sg32
VWeaponDrop
p1088
sg229
I0
sg44
(lp1089
I1095363701
asg35
VPT1M27.0086919S
p1090
sg232
I0
sg233
VP0DT0H0M1.2333S
p1091
sg39
(dp1092
g41
VnV eL ToWn
p1093
sg43
Nssa(dp1094
g38
I669296699
sg39
(dp1095
g41
VnV eL ToWn
p1096
sg43
Nssg44
(lp1097
I2758383128
asg32
VWeaponPickup
p1098
sg35
VPT1M27.0086919S
p1099
sa(dp1100
g38
I313138863
sg39
(dp1101
g41
VnV Mikwen HCS
p1102
sg43
Nssg44
(lp1103
I1095363701
asg32
VWeaponPickup
p1104
sg35
VPT1M30.5444774S
p1105
sa(dp1106
g38
I4096745987
sg39
(dp1107
g41
VnV Mikwen HCS
p1108
sg43
Nssg44
(lp1109
I2758383128
asg32
VWeaponPickup
p1110
sg35
VPT1M30.5444774S
p1111
sa(dp1112
g32
VPlayerSpawn
p1113
sg39
(dp1114
g41
VnV Mikwen HCS
p1115
sg43
Nssg35
VPT1M30.5444774S
p1116
sa(dp1117
g38
I313138863
sg39
(dp1118
g41
VOG APG HCS
p1119
sg43
Nssg44
(lp1120
I1095363701
asg32
VWeaponPickup
p1121
sg35
VPT1M30.7794867S
p1122
sa(dp1123
g38
I4096745987
sg39
(dp1124
g41
VOG APG HCS
p1125
sg43
Nssg44
(lp1126
I2758383128
asg32
VWeaponPickup
p1127
sg35
VPT1M30.7794867S
p1128
sa(dp1129
g32
VPlayerSpawn
p1130
sg39
(dp1131
g41
VOG APG HCS
p1132
sg43
Nssg35
VPT1M30.7794867S
p1133
sa(dp1134
g38
I313138863
sg39
(dp1135
g41
VOG ACE HCS
p1136
sg43
Nssg44
(lp1137
I1095363701
asg32
VWeaponPickup
p1138
sg35
VPT1M31.3585087S
p1139
sa(dp1140
g38
I4096745987
sg39
(dp1141
g41
VOG ACE HCS
p1142
sg43
Nssg44
(lp1143
I2758383128
asg32
VWeaponPickup
p1144
sg35
VPT1M31.3585087S
p1145
sa(dp1146
g32
VPlayerSpawn
p1147
sg39
(dp1148
g41
VOG ACE HCS
p1149
sg43
Nssg35
VPT1M31.3585087S
p1150
sa(dp1151
g38
I4096745987
sg32
VWeaponDrop
p1152
sg229
I0
sg44
(lp1153
I2758383128
asg35
VPT1M33.8106011S
p1154
sg232
I0
sg233
VP0DT0H0M1.7167S
p1155
sg39
(dp1156
g41
VOG ACE HCS
p1157
sg43
Nssa(dp1158
g38
I424645655
sg39
(dp1159
g41
VOG ACE HCS
p1160
sg43
Nssg44
(lp1161
I1327094800
asg32
VWeaponPickup
p1162
sg35
VPT1M33.8106011S
p1163
sa(dp1164
g185
I4096745987
sg186
I00
sg187
I00
sg188
(dp1165
g41
VOG Maniac HCS
p1166
sg43
Nssg191
(lp1167
I2758383128
asg193
I00
sg194
I01
sg195
I1
sg196
I0
sg197
I1
sg198
(dp1168
Vy
F10.2970171
sVx
F13.8434811
sVz
F3.1995619999999998
ssg200
(dp1169
Vy
F5.1173169999999999
sVx
F18.329055799999999
sVz
F2.75941181
ssg202
I00
sg203
(dp1170
g41
VnV RayneHCS
p1171
sg43
Nssg206
(lp1172
sg208
(lp1173
sg212
I01
sg35
VPT1M34.2906214S
p1174
sg32
VDeath
p1175
sg215
I1
sa(dp1176
g32
VMedal
p1177
sg39
(dp1178
g41
VOG Maniac HCS
p1179
sg43
Nssg220
I3261908037
sg35
VPT1M34.2970096S
p1180
sa(dp1181
g38
I524558978
sg32
VWeaponDrop
p1182
sg229
I2
sg44
(lp1183
I2758383128
asg35
VPT1M34.2976212S
p1184
sg232
I1
sg233
VP0DT0H0M13.3000S
p1185
sg39
(dp1186
g41
VnV RayneHCS
p1187
sg43
Nssa(dp1188
g38
I524558978
sg32
VWeaponDrop
p1189
sg229
I0
sg44
(lp1190
I2758383128
asg35
VPT1M34.2976212S
p1191
sg232
I0
sg233
VP0DT0S
p1192
sg39
(dp1193
g41
VnV RayneHCS
p1194
sg43
Nssa(dp1195
g38
I4096745987
sg32
VWeaponDrop
p1196
sg229
I5
sg44
(lp1197
I2758383128
asg35
VPT1M34.2976212S
p1198
sg232
I2
sg233
VP0DT0H0M11.4333S
p1199
sg39
(dp1200
g41
VnV RayneHCS
p1201
sg43
Nssa(dp1202
g185
I4096745987
sg186
I00
sg187
I00
sg188
(dp1203
g41
VnV Pistola HCS
p1204
sg43
Nssg191
(lp1205
I2758383128
asg193
I00
sg194
I01
sg195
I1
sg196
I0
sg197
I1
sg198
(dp1206
Vy
F-3.7847585700000002
sVx
F4.5871496199999999
sVz
F0.80006265600000004
ssg200
(dp1207
Vy
F5.3627609999999999
sVx
F5.2864994999999997
sVz
F-0.054898232200000001
ssg202
I00
sg203
(dp1208
g41
VOG Str8 SickHCS
p1209
sg43
Nssg206
(lp1210
sg208
(lp1211
(dp1212
g41
VnV Mikwen HCS
p1213
sg43
Nsasg212
I01
sg35
VPT1M35.8276794S
p1214
sg32
VDeath
p1215
sg215
I1
sa(dp1216
g32
VMedal
p1217
sg39
(dp1218
g41
VnV Pistola HCS
p1219
sg43
Nssg220
I2838259753
sg35
VPT1M35.8286803S
p1220
sa(dp1221
g32
VImpulse
p1222
sg39
(dp1223
g41
VnV Pistola HCS
p1224
sg43
Nssg382
I2556889090
sg35
VPT1M35.8286803S
p1225
sa(dp1226
g32
VMedal
p1227
sg39
(dp1228
g41
VnV Pistola HCS
p1229
sg43
Nssg220
I3261908037
sg35
VPT1M35.8296797S
p1230
sa(dp1231
g38
I313138863
sg32
VWeaponDrop
p1232
sg229
I11
sg44
(lp1233
I1095363701
asg35
VPT1M35.8296797S
p1234
sg232
I5
sg233
VP0DT0H0M3.6167S
p1235
sg39
(dp1236
g41
VOG Str8 SickHCS
p1237
sg43
Nssa(dp1238
g38
I4096745987
sg32
VWeaponDrop
p1239
sg229
I8
sg44
(lp1240
I2758383128
asg35
VPT1M35.8296797S
p1241
sg232
I5
sg233
VP0DT0H0M12.5500S
p1242
sg39
(dp1243
g41
VOG Str8 SickHCS
p1244
sg43
Nssa(dp1245
g185
I4096745987
sg186
I00
sg187
I00
sg188
(dp1246
g41
VOG APG HCS
p1247
sg43
Nssg191
(lp1248
I2758383128
asg193
I00
sg194
I01
sg195
I1
sg196
I0
sg197
I1
sg198
(dp1249
Vy
F-0.40899846000000001
sVx
F-4.4230365799999998
sVz
F0.39945173299999998
ssg200
(dp1250
Vy
F-0.70837729999999999
sVx
F15.143117
sVz
F-0.0431538224
ssg202
I00
sg203
(dp1251
g41
VnV Mikwen HCS
p1252
sg43
Nssg206
(lp1253
sg208
(lp1254
(dp1255
g41
VOG Maniac HCS
p1256
sg43
Nsa(dp1257
g41
VOG Str8 SickHCS
p1258
sg43
Nsasg212
I01
sg35
VPT1M36.1236914S
p1259
sg32
VDeath
p1260
sg215
I1
sa(dp1261
g32
VMedal
p1262
sg39
(dp1263
g41
VOG APG HCS
p1264
sg43
Nssg220
I3261908037
sg35
VPT1M36.1246914S
p1265
sa(dp1266
g38
I313138863
sg32
VWeaponDrop
p1267
sg229
I0
sg44
(lp1268
I1095363701
asg35
VPT1M36.13069S
p1269
sg232
I0
sg233
VP0DT0H0M0.7000S
p1270
sg39
(dp1271
g41
VnV Mikwen HCS
p1272
sg43
Nssa(dp1273
g38
I4096745987
sg32
VWeaponDrop
p1274
sg229
I6
sg44
(lp1275
I2758383128
asg35
VPT1M36.13069S
p1276
sg232
I4
sg233
VP0DT0H0M4.8833S
p1277
sg39
(dp1278
g41
VnV Mikwen HCS
p1279
sg43
Nssa(dp1280
g185
I669296699
sg186
I00
sg187
I00
sg188
(dp1281
g41
VnV eL ToWn
p1282
sg43
Nssg191
(lp1283
I2758383128
asg193
I00
sg194
I01
sg195
I1
sg196
I0
sg197
I1
sg198
(dp1284
Vy
F-11.8567543
sVx
F15.2085724
sVz
F3.21723056
ssg200
(dp1285
Vy
F10.449109999999999
sVx
F16.94088
sVz
F3.2463095200000001
ssg202
I00
sg203
(dp1286
g41
VOG Maniac HCS
p1287
sg43
Nssg206
(lp1288
sg208
(lp1289
(dp1290
g41
VnV RayneHCS
p1291
sg43
Nsasg212
I01
sg35
VPT1M37.1597636S
p1292
sg32
VDeath
p1293
sg215
I1
sa(dp1294
g32
VMedal
p1295
sg39
(dp1296
g41
VnV eL ToWn
p1297
sg43
Nssg220
I848240062
sg35
VPT1M37.1657307S
p1298
sa(dp1299
g38
I313138863
sg32
VWeaponDrop
p1300
sg229
I0
sg44
(lp1301
I1095363701
asg35
VPT1M37.1657307S
p1302
sg232
I0
sg233
VP0DT0H0M1.0333S
p1303
sg39
(dp1304
g41
VOG Maniac HCS
p1305
sg43
Nssa(dp1306
g38
I4096745987
sg32
VWeaponDrop
p1307
sg229
I8
sg44
(lp1308
I2758383128
asg35
VPT1M37.1657307S
p1309
sg232
I4
sg233
VP0DT0H0M11.9667S
p1310
sg39
(dp1311
g41
VOG Maniac HCS
p1312
sg43
Nssa(dp1313
g38
I313138863
sg32
VWeaponDrop
p1314
sg229
I0
sg44
(lp1315
I1095363701
asg35
VPT1M37.9102647S
p1316
sg232
I0
sg233
VP0DT0H0M1.0500S
p1317
sg39
(dp1318
g41
VOG ACE HCS
p1319
sg43
Nssa(dp1320
g38
I723388907
sg39
(dp1321
g41
VOG ACE HCS
p1322
sg43
Nssg44
(lp1323
I89283061
asg32
VWeaponPickup
p1324
sg35
VPT1M37.9102647S
p1325
sa(dp1326
g185
I3190813201
sg186
I00
sg187
I00
sg188
(dp1327
g41
VnV Pistola HCS
p1328
sg43
Nssg191
(lp1329
sg193
I00
sg194
I01
sg195
I1
sg196
I0
sg197
I1
sg198
(dp1330
Vy
F-0.061437465300000001
sVx
F3.9276592699999999
sVz
F0.75391810000000004
ssg200
(dp1331
Vy
F1.2552694099999999
sVx
F0.39157989999999998
sVz
F0.32881182399999997
ssg202
I00
sg203
(dp1332
g41
VOG APG HCS
p1333
sg43
Nssg206
(lp1334
sg208
(lp1335
sg212
I00
sg35
VPT1M39.007802S
p1336
sg32
VDeath
p1337
sg215
I1
sa(dp1338
g32
VMedal
p1339
sg39
(dp1340
g41
VnV Pistola HCS
p1341
sg43
Nssg220
I2078758684
sg35
VPT1M39.0088024S
p1342
sa(dp1343
g38
I313138863
sg32
VWeaponDrop
p1344
sg229
I7
sg44
(lp1345
I1095363701
asg35
VPT1M39.0098018S
p1346
sg232
I1
sg233
VP0DT0H0M1.8833S
p1347
sg39
(dp1348
g41
VOG APG HCS
p1349
sg43
Nssa(dp1350
g38
I4096745987
sg32
VWeaponDrop
p1351
sg229
I7
sg44
(lp1352
I2758383128
asg35
VPT1M39.0098018S
p1353
sg232
I5
sg233
VP0DT0H0M6.3333S
p1354
sg39
(dp1355
g41
VOG APG HCS
p1356
sg43
Nssa(dp1357
g38
I313138863
sg39
(dp1358
g41
VnV RayneHCS
p1359
sg43
Nssg44
(lp1360
I1095363701
asg32
VWeaponPickup
p1361
sg35
VPT1M42.3109294S
p1362
sa(dp1363
g38
I4096745987
sg39
(dp1364
g41
VnV RayneHCS
p1365
sg43
Nssg44
(lp1366
I2758383128
asg32
VWeaponPickup
p1367
sg35
VPT1M42.3109294S
p1368
sa(dp1369
g32
VPlayerSpawn
p1370
sg39
(dp1371
g41
VnV RayneHCS
p1372
sg43
Nssg35
VPT1M42.3109294S
p1373
sa(dp1374
g38
I313138863
sg39
(dp1375
g41
VOG Str8 SickHCS
p1376
sg43
Nssg44
(lp1377
I1095363701
asg32
VWeaponPickup
p1378
sg35
VPT1M43.8579888S
p1379
sa(dp1380
g38
I4096745987
sg39
(dp1381
g41
VOG Str8 SickHCS
p1382
sg43
Nssg44
(lp1383
I2758383128
asg32
VWeaponPickup
p1384
sg35
VPT1M43.8589891S
p1385
sa(dp1386
g32
VPlayerSpawn
p1387
sg39
(dp1388
g41
VOG Str8 SickHCS
p1389
sg43
Nssg35
VPT1M43.8589891S
p1390
sa(dp1391
g38
I313138863
sg39
(dp1392
g41
VnV Mikwen HCS
p1393
sg43
Nssg44
(lp1394
I1095363701
asg32
VWeaponPickup
p1395
sg35
VPT1M44.1279994S
p1396
sa(dp1397
g38
I4096745987
sg39
(dp1398
g41
VnV Mikwen HCS
p1399
sg43
Nssg44
(lp1400
I2758383128
asg32
VWeaponPickup
p1401
sg35
VPT1M44.1279994S
p1402
sa(dp1403
g32
VPlayerSpawn
p1404
sg39
(dp1405
g41
VnV Mikwen HCS
p1406
sg43
Nssg35
VPT1M44.1279994S
p1407
sa(dp1408
g38
I313138863
sg39
(dp1409
g41
VOG Maniac HCS
p1410
sg43
Nssg44
(lp1411
I1095363701
asg32
VWeaponPickup
p1412
sg35
VPT1M45.1780394S
p1413
sa(dp1414
g38
I4096745987
sg39
(dp1415
g41
VOG Maniac HCS
p1416
sg43
Nssg44
(lp1417
I2758383128
asg32
VWeaponPickup
p1418
sg35
VPT1M45.1780394S
p1419
sa(dp1420
g32
VPlayerSpawn
p1421
sg39
(dp1422
g41
VOG Maniac HCS
p1423
sg43
Nssg35
VPT1M45.1780394S
p1424
sa(dp1425
g38
I313138863
sg39
(dp1426
g41
VOG APG HCS
p1427
sg43
Nssg44
(lp1428
I1095363701
asg32
VWeaponPickup
p1429
sg35
VPT1M47.0241101S
p1430
sa(dp1431
g38
I4096745987
sg39
(dp1432
g41
VOG APG HCS
p1433
sg43
Nssg44
(lp1434
I2758383128
asg32
VWeaponPickup
p1435
sg35
VPT1M47.0241101S
p1436
sa(dp1437
g32
VPlayerSpawn
p1438
sg39
(dp1439
g41
VOG APG HCS
p1440
sg43
Nssg35
VPT1M47.0241101S
p1441
sa(dp1442
g185
I313138863
sg186
I00
sg187
I00
sg188
(dp1443
g41
VnV Mikwen HCS
p1444
sg43
Nssg191
(lp1445
I1095363701
asg193
I00
sg194
I01
sg195
I1
sg196
I0
sg197
I1
sg198
(dp1446
Vy
F-5.1972329999999998
sVx
F-1.52502084
sVz
F3.8521719999999999
ssg200
(dp1447
Vy
F-8.3351410000000001
sVx
F-6.9931063699999996
sVz
F3.2162883299999998
ssg202
I00
sg203
(dp1448
g41
VOG APG HCS
p1449
sg43
Nssg206
(lp1450
sg208
(lp1451
(dp1452
g41
VnV RayneHCS
p1453
sg43
Nsasg212
I00
sg35
VPT1M51.5877757S
p1454
sg32
VDeath
p1455
sg215
I1
sa(dp1456
g38
I313138863
sg32
VWeaponDrop
p1457
sg229
I0
sg44
(lp1458
I1095363701
asg35
VPT1M51.589287S
p1459
sg232
I0
sg233
VP0DT0H0M1.1333S
p1460
sg39
(dp1461
g41
VOG APG HCS
p1462
sg43
Nssa(dp1463
g38
I4096745987
sg32
VWeaponDrop
p1464
sg229
I5
sg44
(lp1465
I2758383128
asg35
VPT1M51.589287S
p1466
sg232
I2
sg233
VP0DT0H0M3.4333S
p1467
sg39
(dp1468
g41
VOG APG HCS
p1469
sg43
Nssa(dp1470
g185
I313138863
sg186
I00
sg187
I00
sg188
(dp1471
g41
VOG Maniac HCS
p1472
sg43
Nssg191
(lp1473
I1095363701
asg193
I00
sg194
I01
sg195
I1
sg196
I0
sg197
I1
sg198
(dp1474
Vy
F-4.8786930000000002
sVx
F17.596212399999999
sVz
F1.78466415
ssg200
(dp1475
Vy
F-3.8641130000000001
sVx
F10.717650000000001
sVz
F1.3607758299999999
ssg202
I00
sg203
(dp1476
g41
VnV eL ToWn
p1477
sg43
Nssg206
(lp1478
sg208
(lp1479
(dp1480
g41
VOG ACE HCS
p1481
sg43
Nsa(dp1482
g41
VOG Str8 SickHCS
p1483
sg43
Nsasg212
I00
sg35
VPT1M52.2923124S
p1484
sg32
VDeath
p1485
sg215
I1
sa(dp1486
g38
I669296699
sg32
VWeaponDrop
p1487
sg229
I1
sg44
(lp1488
I2758383128
asg35
VPT1M52.2943128S
p1489
sg232
I1
sg233
VP0DT0H0M17.6000S
p1490
sg39
(dp1491
g41
VnV eL ToWn
p1492
sg43
Nssa(dp1493
g38
I4096745987
sg32
VWeaponDrop
p1494
sg229
I0
sg44
(lp1495
I2758383128
asg35
VPT1M52.2943128S
p1496
sg232
I0
sg233
VP0DT0H0M9.0000S
p1497
sg39
(dp1498
g41
VnV eL ToWn
p1499
sg43
Nssa(dp1500
g185
I4096745987
sg186
I00
sg187
I00
sg188
(dp1501
g41
VOG Str8 SickHCS
p1502
sg43
Nssg191
(lp1503
I2758383128
asg193
I00
sg194
I01
sg195
I1
sg196
I0
sg197
I1
sg198
(dp1504
Vy
F6.9475059999999997
sVx
F15.186489999999999
sVz
F3.4468567399999999
ssg200
(dp1505
Vy
F-2.1083400000000001
sVx
F15.3238287
sVz
F1.2045363200000001
ssg202
I00
sg203
(dp1506
g41
VnV Pistola HCS
p1507
sg43
Nssg206
(lp1508
sg208
(lp1509
sg212
I01
sg35
VPT1M54.6604031S
p1510
sg32
VDeath
p1511
sg215
I1
sa(dp1512
g32
VMedal
p1513
sg39
(dp1514
g41
VOG Str8 SickHCS
p1515
sg43
Nssg220
I2782465081
sg35
VPT1M54.6614034S
p1516
sa(dp1517
g32
VMedal
p1518
sg39
(dp1519
g41
VOG Str8 SickHCS
p1520
sg43
Nssg220
I2494364276
sg35
VPT1M54.6614034S
p1521
sa(dp1522
g32
VImpulse
p1523
sg39
(dp1524
g41
VOG Str8 SickHCS
p1525
sg43
Nssg382
I3174430457
sg35
VPT1M54.6624044S
p1526
sa(dp1527
g32
VMedal
p1528
sg39
(dp1529
g41
VOG Str8 SickHCS
p1530
sg43
Nssg220
I3653057799
sg35
VPT1M54.6690718S
p1531
sa(dp1532
g38
I313138863
sg32
VWeaponDrop
p1533
sg229
I2
sg44
(lp1534
I1095363701
asg35
VPT1M54.6694024S
p1535
sg232
I0
sg233
VP0DT0H0M2.6333S
p1536
sg39
(dp1537
g41
VnV Pistola HCS
p1538
sg43
Nssa(dp1539
g38
I4096745987
sg32
VWeaponDrop
p1540
sg229
I23
sg44
(lp1541
I2758383128
asg35
VPT1M54.6694024S
p1542
sg232
I10
sg233
VP0DT0H0M34.4167S
p1543
sg39
(dp1544
g41
VnV Pistola HCS
p1545
sg43
Nssa(dp1546
g38
I313138863
sg32
VWeaponDrop
p1547
sg229
I7
sg44
(lp1548
I1095363701
asg35
VPT1M55.4609714S
p1549
sg232
I3
sg233
VP0DT0H0M6.9667S
p1550
sg39
(dp1551
g41
VOG Maniac HCS
p1552
sg43
Nssa(dp1553
g38
I669296699
sg39
(dp1554
g41
VOG Maniac HCS
p1555
sg43
Nssg44
(lp1556
I2758383128
asg32
VWeaponPickup
p1557
sg35
VPT1M55.4610384S
p1558
sa(dp1559
g185
I723388907
sg186
I00
sg187
I00
sg188
(dp1560
g41
VOG ACE HCS
p1561
sg43
Nssg191
(lp1562
I89283061
asg193
I00
sg194
I01
sg195
I1
sg196
I0
sg197
I1
sg198
(dp1563
Vy
F-9.5506770000000003
sVx
F3.38399172
sVz
F3.2006962300000001
ssg200
(dp1564
Vy
F-9.0541990000000006
sVx
F1.7587862000000001
sVz
F4.0973076800000001
ssg202
I00
sg203
(dp1565
g41
VnV Mikwen HCS
p1566
sg43
Nssg206
(lp1567
sg208
(lp1568
sg212
I00
sg35
VPT1M57.7725223S
p1569
sg32
VDeath
p1570
sg215
I1
sa(dp1571
g38
I313138863
sg32
VWeaponDrop
p1572
sg229
I30
sg44
(lp1573
I1095363701
asg35
VPT1M57.7745221S
p1574
sg232
I11
sg233
VP0DT0H0M7.5667S
p1575
sg39
(dp1576
g41
VnV Mikwen HCS
p1577
sg43
Nssa(dp1578
g38
I4096745987
sg32
VWeaponDrop
p1579
sg229
I0
sg44
(lp1580
I2758383128
asg35
VPT1M57.7745221S
p1581
sg232
I0
sg233
VP0DT0H0M6.0667S
p1582
sg39
(dp1583
g41
VnV Mikwen HCS
p1584
sg43
Nssa(dp1585
g38
I313138863
sg39
(dp1586
g41
VOG APG HCS
p1587
sg43
Nssg44
(lp1588
I1095363701
asg32
VWeaponPickup
p1589
sg35
VPT1M59.6085936S
p1590
sa(dp1591
g38
I4096745987
sg39
(dp1592
g41
VOG APG HCS
p1593
sg43
Nssg44
(lp1594
I2758383128
asg32
VWeaponPickup
p1595
sg35
VPT1M59.6085936S
p1596
sa(dp1597
g32
VPlayerSpawn
p1598
sg39
(dp1599
g41
VOG APG HCS
p1600
sg43
Nssg35
VPT1M59.6085936S
p1601
sa(dp1602
g38
I313138863
sg39
(dp1603
g41
VnV eL ToWn
p1604
sg43
Nssg44
(lp1605
I1095363701
asg32
VWeaponPickup
p1606
sg35
VPT2M0.3106204S
p1607
sa(dp1608
g38
I4096745987
sg39
(dp1609
g41
VnV eL ToWn
p1610
sg43
Nssg44
(lp1611
I2758383128
asg32
VWeaponPickup
p1612
sg35
VPT2M0.3106204S
p1613
sa(dp1614
g32
VPlayerSpawn
p1615
sg39
(dp1616
g41
VnV eL ToWn
p1617
sg43
Nssg35
VPT2M0.3106204S
p1618
sa(dp1619
g38
I313138863
sg39
(dp1620
g41
VnV Pistola HCS
p1621
sg43
Nssg44
(lp1622
I1095363701
asg32
VWeaponPickup
p1623
sg35
VPT2M2.6693666S
p1624
sa(dp1625
g38
I4096745987
sg39
(dp1626
g41
VnV Pistola HCS
p1627
sg43
Nssg44
(lp1628
I2758383128
asg32
VWeaponPickup
p1629
sg35
VPT2M2.6697112S
p1630
sa(dp1631
g32
VPlayerSpawn
p1632
sg39
(dp1633
g41
VnV Pistola HCS
p1634
sg43
Nssg35
VPT2M2.6697112S
p1635
sa(dp1636
g38
I313138863
sg32
VWeaponDrop
p1637
sg229
I0
sg44
(lp1638
I1095363701
asg35
VPT2M3.5447434S
p1639
sg232
I0
sg233
VP0DT0H0M1.4833S
p1640
sg39
(dp1641
g41
VnV eL ToWn
p1642
sg43
Nssa(dp1643
g38
I723388907
sg39
(dp1644
g41
VnV eL ToWn
p1645
sg43
Nssg44
(lp1646
I89283061
asg32
VWeaponPickup
p1647
sg35
VPT2M3.5447434S
p1648
sa(dp1649
g185
I4096745987
sg186
I00
sg187
I00
sg188
(dp1650
g41
VOG Str8 SickHCS
p1651
sg43
Nssg191
(lp1652
I2758383128
asg193
I00
sg194
I00
sg195
I2
sg196
I0
sg197
I0
sg198
(dp1653
Vy
F12.9656944
sVx
F2.8434925099999999
sVz
F3.2012040000000002
ssg200
(dp1654
Vy
F3.6524624800000001
sVx
F-2.4600274600000001
sVz
F3.2003424200000001
ssg202
I00
sg203
(dp1655
g307
g308
ssg206
(lp1656
sg208
(lp1657
sg212
I00
sg35
VPT2M5.1588102S
p1658
sg32
VDeath
p1659
sg215
I1
sa(dp1660
g38
I313138863
sg39
(dp1661
g41
VnV Mikwen HCS
p1662
sg43
Nssg44
(lp1663
I1095363701
asg32
VWeaponPickup
p1664
sg35
VPT2M5.7958311S
p1665
sa(dp1666
g38
I4096745987
sg39
(dp1667
g41
VnV Mikwen HCS
p1668
sg43
Nssg44
(lp1669
I2758383128
asg32
VWeaponPickup
p1670
sg35
VPT2M5.7958311S
p1671
sa(dp1672
g32
VPlayerSpawn
p1673
sg39
(dp1674
g41
VnV Mikwen HCS
p1675
sg43
Nssg35
VPT2M5.7958311S
p1676
sa(dp1677
g38
I4096745987
sg32
VWeaponDrop
p1678
sg229
I0
sg44
(lp1679
I2758383128
asg35
VPT2M6.025669S
p1680
sg232
I0
sg233
VP0DT0H0M2.6500S
p1681
sg39
(dp1682
g41
VnV Pistola HCS
p1683
sg43
Nssa(dp1684
g38
I424645655
sg39
(dp1685
g41
VnV Pistola HCS
p1686
sg43
Nssg44
(lp1687
I1327094800
asg32
VWeaponPickup
p1688
sg35
VPT2M6.0258395S
p1689
sa(dp1690
g185
I424645655
sg186
I00
sg187
I00
sg188
(dp1691
g41
VnV Pistola HCS
p1692
sg43
Nssg191
(lp1693
I1327094800
asg193
I00
sg194
I01
sg195
I1
sg196
I0
sg197
I1
sg198
(dp1694
Vy
F-7.7432556200000002
sVx
F-6.6801533700000002
sVz
F3.9170970000000001
ssg200
(dp1695
Vy
F-9.6370020000000007
sVx
F3.4836874
sVz
F4.0590260000000002
ssg202
I00
sg203
(dp1696
g41
VOG ACE HCS
p1697
sg43
Nssg206
(lp1698
sg208
(lp1699
(dp1700
g41
VnV RayneHCS
p1701
sg43
Nsasg212
I01
sg35
VPT2M10.055994S
p1702
sg32
VDeath
p1703
sg215
I1
sa(dp1704
g32
VMedal
p1705
sg39
(dp1706
g41
VnV Pistola HCS
p1707
sg43
Nssg220
I3261908037
sg35
VPT2M10.0635155S
p1708
sa(dp1709
g38
I723388907
sg32
VWeaponDrop
p1710
sg229
I27
sg44
(lp1711
I89283061
asg35
VPT2M10.0639993S
p1712
sg232
I11
sg233
VP0DT0H0M16.5167S
p1713
sg39
(dp1714
g41
VOG ACE HCS
p1715
sg43
Nssa(dp1716
g38
I424645655
sg32
VWeaponDrop
p1717
sg229
I13
sg44
(lp1718
I1327094800
asg35
VPT2M10.0639993S
p1719
sg232
I7
sg233
VP0DT0H0M19.4167S
p1720
sg39
(dp1721
g41
VOG ACE HCS
p1722
sg43
Nssa(dp1723
g38
I313138863
sg32
VWeaponDrop
p1724
sg229
I17
sg44
(lp1725
I1095363701
asg35
VPT2M12.5233475S
p1726
sg232
I7
sg233
VP0DT0H0M14.2333S
p1727
sg39
(dp1728
g41
VnV RayneHCS
p1729
sg43
Nssa(dp1730
g38
I723388907
sg39
(dp1731
g41
VnV RayneHCS
p1732
sg43
Nssg44
(lp1733
I89283061
asg32
VWeaponPickup
p1734
sg35
VPT2M12.5233475S
p1735
sa(dp1736
g185
I4096745987
sg186
I00
sg187
I00
sg188
(dp1737
g41
VOG APG HCS
p1738
sg43
Nssg191
(lp1739
I2758383128
asg193
I00
sg194
I01
sg195
I1
sg196
I0
sg197
I1
sg198
(dp1740
Vy
F12.5431414
sVx
F8.8074010000000005
sVz
F4.2777814899999997
ssg200
(dp1741
Vy
F10.310988399999999
sVx
F-1.39789462
sVz
F1.59955823
ssg202
I00
sg203
(dp1742
g41
VnV eL ToWn
p1743
sg43
Nssg206
(lp1744
sg208
(lp1745
sg212
I01
sg35
VPT2M12.7960994S
p1746
sg32
VDeath
p1747
sg215
I1
sa(dp1748
g32
VMedal
p1749
sg39
(dp1750
g41
VOG APG HCS
p1751
sg43
Nssg220
I3261908037
sg35
VPT2M12.7980993S
p1752
sa(dp1753
g38
I723388907
sg32
VWeaponDrop
p1754
sg229
I0
sg44
(lp1755
I89283061
asg35
VPT2M12.7980993S
p1756
sg232
I0
sg233
VP0DT0H0M0.5333S
p1757
sg39
(dp1758
g41
VnV eL ToWn
p1759
sg43
Nssa(dp1760
g38
I4096745987
sg32
VWeaponDrop
p1761
sg229
I7
sg44
(lp1762
I2758383128
asg35
VPT2M12.7980993S
p1763
sg232
I4
sg233
VP0DT0H0M10.4667S
p1764
sg39
(dp1765
g41
VnV eL ToWn
p1766
sg43
Nssa(dp1767
g185
I313138863
sg186
I00
sg187
I00
sg188
(dp1768
g41
VnV Mikwen HCS
p1769
sg43
Nssg191
(lp1770
I1095363701
asg193
I00
sg194
I01
sg195
I1
sg196
I0
sg197
I1
sg198
(dp1771
Vy
F-11.5244894
sVx
F10.198286100000001
sVz
F4.0106650000000004
ssg200
(dp1772
Vy
F-8.0481300000000005
sVx
F11.184618
sVz
F3.2011766399999999
ssg202
I00
sg203
(dp1773
g41
VOG Maniac HCS
p1774
sg43
Nssg206
(lp1775
sg208
(lp1776
sg212
I00
sg35
VPT2M13.4981269S
p1777
sg32
VDeath
p1778
sg215
I1
sa(dp1779
g38
I669296699
sg32
VWeaponDrop
p1780
sg229
I0
sg44
(lp1781
I2758383128
asg35
VPT2M13.5061273S
p1782
sg232
I0
sg233
VP0DT0H0M17.6500S
p1783
sg39
(dp1784
g41
VOG Maniac HCS
p1785
sg43
Nssa(dp1786
g38
I4096745987
sg32
VWeaponDrop
p1787
sg229
I0
sg44
(lp1788
I2758383128
asg35
VPT2M13.5061273S
p1789
sg232
I0
sg233
VP0DT0H0M3.7000S
p1790
sg39
(dp1791
g41
VOG Maniac HCS
p1792
sg43
Nssa(dp1793
g185
I424645655
sg186
I00
sg187
I00
sg188
(dp1794
g41
VnV Pistola HCS
p1795
sg43
Nssg191
(lp1796
I1327094800
asg193
I00
sg194
I01
sg195
I1
sg196
I0
sg197
I1
sg198
(dp1797
Vy
F4.3448589999999996
sVx
F-3.6227958199999999
sVz
F3.16503215
ssg200
(dp1798
Vy
F11.55129
sVx
F11.3471365
sVz
F4.1011185599999997
ssg202
I00
sg203
(dp1799
g41
VOG APG HCS
p1800
sg43
Nssg206
(lp1801
sg208
(lp1802
(dp1803
g41
VnV eL ToWn
p1804
sg43
Nsasg212
I01
sg35
VPT2M15.1251893S
p1805
sg32
VDeath
p1806
sg215
I1
sa(dp1807
g32
VMedal
p1808
sg39
(dp1809
g41
VnV Pistola HCS
p1810
sg43
Nssg220
I3261908037
sg35
VPT2M15.1261886S
p1811
sa(dp1812
g38
I313138863
sg32
VWeaponDrop
p1813
sg229
I0
sg44
(lp1814
I1095363701
asg35
VPT2M15.1271887S
p1815
sg232
I0
sg233
VP0DT0H0M0.7833S
p1816
sg39
(dp1817
g41
VOG APG HCS
p1818
sg43
Nssa(dp1819
g38
I4096745987
sg32
VWeaponDrop
p1820
sg229
I8
sg44
(lp1821
I2758383128
asg35
VPT2M15.1271887S
p1822
sg232
I5
sg233
VP0DT0H0M14.7333S
p1823
sg39
(dp1824
g41
VOG APG HCS
p1825
sg43
Nssa(dp1826
g38
I313138863
sg32
VWeaponDrop
p1827
sg229
I18
sg44
(lp1828
I1095363701
asg35
VPT2M15.2551925S
p1829
sg232
I14
sg233
VP0DT0H0M8.0833S
p1830
sg39
(dp1831
g41
VnV Mikwen HCS
p1832
sg43
Nssa(dp1833
g38
I669296699
sg39
(dp1834
g41
VnV Mikwen HCS
p1835
sg43
Nssg44
(lp1836
I2758383128
asg32
VWeaponPickup
p1837
sg35
VPT2M15.2619115S
p1838
sa(dp1839
g38
I313138863
sg39
(dp1840
g41
VOG ACE HCS
p1841
sg43
Nssg44
(lp1842
I1095363701
asg32
VWeaponPickup
p1843
sg35
VPT2M18.0733025S
p1844
sa(dp1845
g38
I4096745987
sg39
(dp1846
g41
VOG ACE HCS
p1847
sg43
Nssg44
(lp1848
I2758383128
asg32
VWeaponPickup
p1849
sg35
VPT2M18.074303S
p1850
sa(dp1851
g32
VPlayerSpawn
p1852
sg39
(dp1853
g41
VOG ACE HCS
p1854
sg43
Nssg35
VPT2M18.074303S
p1855
sa(dp1856
g185
I313138863
sg186
I00
sg187
I00
sg188
(dp1857
g41
VOG Str8 SickHCS
p1858
sg43
Nssg191
(lp1859
I1095363701
asg193
I00
sg194
I01
sg195
I1
sg196
I0
sg197
I1
sg198
(dp1860
Vy
F6.472251
sVx
F3.1497647799999999
sVz
F-0.0058210194100000003
ssg200
(dp1861
Vy
F3.143481
sVx
F0.126808316
sVz
F0.94813499999999995
ssg202
I00
sg203
(dp1862
g41
VnV Pistola HCS
p1863
sg43
Nssg206
(lp1864
sg208
(lp1865
sg212
I00
sg35
VPT2M19.796368S
p1866
sg32
VDeath
p1867
sg215
I1
sa(dp1868
g38
I313138863
sg32
VWeaponDrop
p1869
sg229
I0
sg44
(lp1870
I1095363701
asg35
VPT2M19.8033678S
p1871
sg232
I0
sg233
VP0DT0H0M0.7000S
p1872
sg39
(dp1873
g41
VnV Pistola HCS
p1874
sg43
Nssa(dp1875
g38
I424645655
sg32
VWeaponDrop
p1876
sg229
I24
sg44
(lp1877
I1327094800
asg35
VPT2M19.8033678S
p1878
sg232
I9
sg233
VP0DT0H0M13.7833S
p1879
sg39
(dp1880
g41
VnV Pistola HCS
p1881
sg43
Nssa(dp1882
g185
I669296699
sg186
I00
sg187
I00
sg188
(dp1883
g41
VnV Mikwen HCS
p1884
sg43
Nssg191
(lp1885
I2758383128
asg193
I00
sg194
I01
sg195
I1
sg196
I0
sg197
I1
sg198
(dp1886
Vy
F-4.7380547499999999
sVx
F8.5155779999999996
sVz
F5.5752410000000001
ssg200
(dp1887
Vy
F5.8133900000000001
sVx
F3.23162818
sVz
F-0.005844325
ssg202
I00
sg203
(dp1888
g41
VOG Str8 SickHCS
p1889
sg43
Nssg206
(lp1890
sg208
(lp1891
(dp1892
g41
VnV RayneHCS
p1893
sg43
Nsa(dp1894
g41
VnV Pistola HCS
p1895
sg43
Nsasg212
I01
sg35
VPT2M20.1093809S
p1896
sg32
VDeath
p1897
sg215
I1
sa(dp1898
g32
VMedal
p1899
sg39
(dp1900
g41
VnV Mikwen HCS
p1901
sg43
Nssg220
I848240062
sg35
VPT2M20.1103811S
p1902
sa(dp1903
g38
I313138863
sg32
VWeaponDrop
p1904
sg229
I29
sg44
(lp1905
I1095363701
asg35
VPT2M20.1172383S
p1906
sg232
I13
sg233
VP0DT0H0M10.6500S
p1907
sg39
(dp1908
g41
VOG Str8 SickHCS
p1909
sg43
Nssa(dp1910
g38
I313138863
sg32
VWeaponDrop
p1911
sg229
I0
sg44
(lp1912
I1095363701
asg35
VPT2M20.1172383S
p1913
sg232
I0
sg233
VP0DT0S
p1914
sg39
(dp1915
g41
VOG Str8 SickHCS
p1916
sg43
Nssa(dp1917
g38
I4096745987
sg32
VWeaponDrop
p1918
sg229
I21
sg44
(lp1919
I2758383128
asg35
VPT2M20.1172383S
p1920
sg232
I12
sg233
VP0DT0H0M25.6000S
p1921
sg39
(dp1922
g41
VOG Str8 SickHCS
p1923
sg43
Nssa(dp1924
g38
I313138863
sg39
(dp1925
g41
VnV eL ToWn
p1926
sg43
Nssg44
(lp1927
I1095363701
asg32
VWeaponPickup
p1928
sg35
VPT2M20.8074078S
p1929
sa(dp1930
g38
I4096745987
sg39
(dp1931
g41
VnV eL ToWn
p1932
sg43
Nssg44
(lp1933
I2758383128
asg32
VWeaponPickup
p1934
sg35
VPT2M20.8074078S
p1935
sa(dp1936
g32
VPlayerSpawn
p1937
sg39
(dp1938
g41
VnV eL ToWn
p1939
sg43
Nssg35
VPT2M20.8074078S
p1940
sa(dp1941
g38
I313138863
sg39
(dp1942
g41
VOG Maniac HCS
p1943
sg43
Nssg44
(lp1944
I1095363701
asg32
VWeaponPickup
p1945
sg35
VPT2M21.5074345S
p1946
sa(dp1947
g38
I4096745987
sg39
(dp1948
g41
VOG Maniac HCS
p1949
sg43
Nssg44
(lp1950
I2758383128
asg32
VWeaponPickup
p1951
sg35
VPT2M21.5074345S
p1952
sa(dp1953
g32
VPlayerSpawn
p1954
sg39
(dp1955
g41
VOG Maniac HCS
p1956
sg43
Nssg35
VPT2M21.5074345S
p1957
sa(dp1958
g38
I313138863
sg39
(dp1959
g41
VOG APG HCS
p1960
sg43
Nssg44
(lp1961
I1095363701
asg32
VWeaponPickup
p1962
sg35
VPT2M23.1454976S
p1963
sa(dp1964
g38
I4096745987
sg39
(dp1965
g41
VOG APG HCS
p1966
sg43
Nssg44
(lp1967
I2758383128
asg32
VWeaponPickup
p1968
sg35
VPT2M23.1454976S
p1969
sa(dp1970
g32
VPlayerSpawn
p1971
sg39
(dp1972
g41
VOG APG HCS
p1973
sg43
Nssg35
VPT2M23.1454976S
p1974
sa(dp1975
g185
I4096745987
sg186
I00
sg187
I00
sg188
(dp1976
g41
VOG APG HCS
p1977
sg43
Nssg191
(lp1978
I2758383128
asg193
I00
sg194
I01
sg195
I1
sg196
I0
sg197
I1
sg198
(dp1979
Vy
F13.173690000000001
sVx
F7.8693970000000002
sVz
F4.2596716900000002
ssg200
(dp1980
Vy
F0.74424179999999995
sVx
F-0.054102275499999998
sVz
F1.4822637999999999
ssg202
I00
sg203
(dp1981
g41
VnV RayneHCS
p1982
sg43
Nssg206
(lp1983
sg208
(lp1984
sg212
I01
sg35
VPT2M27.6106683S
p1985
sg32
VDeath
p1986
sg215
I1
sa(dp1987
g32
VMedal
p1988
sg39
(dp1989
g41
VOG APG HCS
p1990
sg43
Nssg220
I3261908037
sg35
VPT2M27.6192166S
p1991
sa(dp1992
g38
I723388907
sg32
VWeaponDrop
p1993
sg229
I13
sg44
(lp1994
I89283061
asg35
VPT2M27.6196687S
p1995
sg232
I4
sg233
VP0DT0H0M3.6667S
p1996
sg39
(dp1997
g41
VnV RayneHCS
p1998
sg43
Nssa(dp1999
g38
I4096745987
sg32
VWeaponDrop
p2000
sg229
I7
sg44
(lp2001
I2758383128
asg35
VPT2M27.6196687S
p2002
sg232
I4
sg233
VP0DT0H0M27.4000S
p2003
sg39
(dp2004
g41
VnV RayneHCS
p2005
sg43
Nssa(dp2006
g38
I313138863
sg39
(dp2007
g41
VnV Pistola HCS
p2008
sg43
Nssg44
(lp2009
I1095363701
asg32
VWeaponPickup
p2010
sg35
VPT2M27.8256766S
p2011
sa(dp2012
g38
I4096745987
sg39
(dp2013
g41
VnV Pistola HCS
p2014
sg43
Nssg44
(lp2015
I2758383128
asg32
VWeaponPickup
p2016
sg35
VPT2M27.826677S
p2017
sa(dp2018
g32
VPlayerSpawn
p2019
sg39
(dp2020
g41
VnV Pistola HCS
p2021
sg43
Nssg35
VPT2M27.826677S
p2022
sa(dp2023
g38
I313138863
sg39
(dp2024
g41
VOG Str8 SickHCS
p2025
sg43
Nssg44
(lp2026
I1095363701
asg32
VWeaponPickup
p2027
sg35
VPT2M28.1246885S
p2028
sa(dp2029
g38
I4096745987
sg39
(dp2030
g41
VOG Str8 SickHCS
p2031
sg43
Nssg44
(lp2032
I2758383128
asg32
VWeaponPickup
p2033
sg35
VPT2M28.1256883S
p2034
sa(dp2035
g32
VPlayerSpawn
p2036
sg39
(dp2037
g41
VOG Str8 SickHCS
p2038
sg43
Nssg35
VPT2M28.1256883S
p2039
sa(dp2040
g38
I2492868984
sg39
(dp2041
g41
VOG APG HCS
p2042
sg43
Nssg44
(lp2043
I2758383128
asg32
VWeaponPickup
p2044
sg35
VPT2M31.1098022S
p2045
sa(dp2046
g185
I669296699
sg186
I00
sg187
I00
sg188
(dp2047
g41
VnV Mikwen HCS
p2048
sg43
Nssg191
(lp2049
I2758383128
asg193
I00
sg194
I01
sg195
I1
sg196
I0
sg197
I1
sg198
(dp2050
Vy
F-10.811825799999999
sVx
F6.7945437399999999
sVz
F3.2011766399999999
ssg200
(dp2051
Vy
F4.4635014499999999
sVx
F6.6334776900000003
sVz
F3.2007184
ssg202
I00
sg203
(dp2052
g41
VOG APG HCS
p2053
sg43
Nssg206
(lp2054
sg208
(lp2055
(dp2056
g41
VnV RayneHCS
p2057
sg43
Nsasg212
I01
sg35
VPT2M31.2098066S
p2058
sg32
VDeath
p2059
sg215
I1
sa(dp2060
g32
VMedal
p2061
sg39
(dp2062
g41
VnV Mikwen HCS
p2063
sg43
Nssg220
I848240062
sg35
VPT2M31.2108062S
p2064
sa(dp2065
g38
I313138863
sg32
VWeaponDrop
p2066
sg229
I0
sg44
(lp2067
I1095363701
asg35
VPT2M31.2108062S
p2068
sg232
I0
sg233
VP0DT0H0M1.0500S
p2069
sg39
(dp2070
g41
VOG APG HCS
p2071
sg43
Nssa(dp2072
g38
I4096745987
sg32
VWeaponDrop
p2073
sg229
I7
sg44
(lp2074
I2758383128
asg35
VPT2M31.2108062S
p2075
sg232
I6
sg233
VP0DT0H0M7.0167S
p2076
sg39
(dp2077
g41
VOG APG HCS
p2078
sg43
Nssa(dp2079
g38
I313138863
sg32
VWeaponDrop
p2080
sg229
I0
sg44
(lp2081
I1095363701
asg35
VPT2M33.7921486S
p2082
sg232
I0
sg233
VP0DT0H0M1.5500S
p2083
sg39
(dp2084
g41
VnV eL ToWn
p2085
sg43
Nssa(dp2086
g38
I723388907
sg39
(dp2087
g41
VnV eL ToWn
p2088
sg43
Nssg44
(lp2089
I89283061
asg32
VWeaponPickup
p2090
sg35
VPT2M33.7921486S
p2091
sa(dp2092
g38
I313138863
sg39
(dp2093
g41
VnV RayneHCS
p2094
sg43
Nssg44
(lp2095
I1095363701
asg32
VWeaponPickup
p2096
sg35
VPT2M35.7909825S
p2097
sa(dp2098
g38
I4096745987
sg39
(dp2099
g41
VnV RayneHCS
p2100
sg43
Nssg44
(lp2101
I2758383128
asg32
VWeaponPickup
p2102
sg35
VPT2M35.7919835S
p2103
sa(dp2104
g32
VPlayerSpawn
p2105
sg39
(dp2106
g41
VnV RayneHCS
p2107
sg43
Nssg35
VPT2M35.7919835S
p2108
sa(dp2109
g38
I4096745987
sg32
VWeaponDrop
p2110
sg229
I0
sg44
(lp2111
I2758383128
asg35
VPT2M37.6220513S
p2112
sg232
I0
sg233
VP0DT0H0M0.9500S
p2113
sg39
(dp2114
g41
VnV RayneHCS
p2115
sg43
Nssa(dp2116
g38
I424645655
sg39
(dp2117
g41
VnV RayneHCS
p2118
sg43
Nssg44
(lp2119
I1327094800
asg32
VWeaponPickup
p2120
sg35
VPT2M37.6220513S
p2121
sa(dp2122
g38
I313138863
sg32
VWeaponDrop
p2123
sg229
I0
sg44
(lp2124
I1095363701
asg35
VPT2M39.0913083S
p2125
sg232
I0
sg233
VP0DT0H0M1.6000S
p2126
sg39
(dp2127
g41
VnV Pistola HCS
p2128
sg43
Nssa(dp2129
g38
I723388907
sg39
(dp2130
g41
VnV Pistola HCS
p2131
sg43
Nssg44
(lp2132
I89283061
asg32
VWeaponPickup
p2133
sg35
VPT2M39.0913083S
p2134
sa(dp2135
g38
I313138863
sg39
(dp2136
g41
VOG APG HCS
p2137
sg43
Nssg44
(lp2138
I1095363701
asg32
VWeaponPickup
p2139
sg35
VPT2M39.3401188S
p2140
sa(dp2141
g38
I4096745987
sg39
(dp2142
g41
VOG APG HCS
p2143
sg43
Nssg44
(lp2144
I2758383128
asg32
VWeaponPickup
p2145
sg35
VPT2M39.3411192S
p2146
sa(dp2147
g32
VPlayerSpawn
p2148
sg39
(dp2149
g41
VOG APG HCS
p2150
sg43
Nssg35
VPT2M39.3411192S
p2151
sa(dp2152
g185
I723388907
sg186
I00
sg187
I00
sg188
(dp2153
g41
VnV eL ToWn
p2154
sg43
Nssg191
(lp2155
I89283061
asg193
I00
sg194
I01
sg195
I1
sg196
I0
sg197
I1
sg198
(dp2156
Vy
F9.5363190000000007
sVx
F-2.7992968600000001
sVz
F1.60634911
ssg200
(dp2157
Vy
F11.77863
sVx
F-3.6431713100000001
sVz
F1.60622931
ssg202
I00
sg203
(dp2158
g41
VOG Maniac HCS
p2159
sg43
Nssg206
(lp2160
sg208
(lp2161
(dp2162
g41
VnV Mikwen HCS
p2163
sg43
Nsasg212
I00
sg35
VPT2M58.3917663S
p2164
sg32
VDeath
p2165
sg215
I1
sa(dp2166
g38
I313138863
sg32
VWeaponDrop
p2167
sg229
I17
sg44
(lp2168
I1095363701
asg35
VPT2M58.3997662S
p2169
sg232
I8
sg233
VP0DT0H0M7.3667S
p2170
sg39
(dp2171
g41
VOG Maniac HCS
p2172
sg43
Nssa(dp2173
g38
I4096745987
sg32
VWeaponDrop
p2174
sg229
I9
sg44
(lp2175
I2758383128
asg35
VPT2M58.3997662S
p2176
sg232
I3
sg233
VP0DT0H0M29.4000S
p2177
sg39
(dp2178
g41
VOG Maniac HCS
p2179
sg43
Nssa(dp2180
g185
I723388907
sg186
I01
sg187
I00
sg188
(dp2181
g41
VnV Pistola HCS
p2182
sg43
Nssg191
(lp2183
I89283061
asg193
I00
sg194
I00
sg195
I1
sg196
I0
sg197
I1
sg198
(dp2184
Vy
F-6.8967679999999998
sVx
F7.0950646400000004
sVz
F3.1872029999999998
ssg200
(dp2185
Vy
F-6.5307789999999999
sVx
F6.8327220000000004
sVz
F3.23707557
ssg202
I00
sg203
(dp2186
g41
VOG ACE HCS
p2187
sg43
Nssg206
(lp2188
sg208
(lp2189
(dp2190
g41
VnV RayneHCS
p2191
sg43
Nsasg212
I00
sg35
VPT3M3.7089523S
p2192
sg32
VDeath
p2193
sg215
I1
sa(dp2194
g32
VMedal
p2195
sg39
(dp2196
g41
VnV Pistola HCS
p2197
sg43
Nssg220
I3270120991
sg35
VPT3M3.7099529S
p2198
sa(dp2199
g38
I4096745987
sg32
VWeaponDrop
p2200
sg229
I33
sg44
(lp2201
I2758383128
asg35
VPT3M3.7109531S
p2202
sg232
I16
sg233
VP0DT0H0M44.2333S
p2203
sg39
(dp2204
g41
VOG ACE HCS
p2205
sg43
Nssa(dp2206
g38
I4096745987
sg32
VWeaponDrop
p2207
sg229
I0
sg44
(lp2208
I2758383128
asg35
VPT3M3.7109531S
p2209
sg232
I0
sg233
VP0DT0S
p2210
sg39
(dp2211
g41
VOG ACE HCS
p2212
sg43
Nssa(dp2213
g38
I313138863
sg32
VWeaponDrop
p2214
sg229
I0
sg44
(lp2215
I1095363701
asg35
VPT3M3.7173011S
p2216
sg232
I0
sg233
VP0DT0H0M1.2833S
p2217
sg39
(dp2218
g41
VOG ACE HCS
p2219
sg43
Nssa(dp2220
g38
I313138863
sg39
(dp2221
g41
VOG Maniac HCS
p2222
sg43
Nssg44
(lp2223
I1095363701
asg32
VWeaponPickup
p2224
sg35
VPT3M6.4122409S
p2225
sa(dp2226
g38
I4096745987
sg39
(dp2227
g41
VOG Maniac HCS
p2228
sg43
Nssg44
(lp2229
I2758383128
asg32
VWeaponPickup
p2230
sg35
VPT3M6.4130563S
p2231
sa(dp2232
g32
VPlayerSpawn
p2233
sg39
(dp2234
g41
VOG Maniac HCS
p2235
sg43
Nssg35
VPT3M6.4130563S
p2236
sa(dp2237
g38
I313138863
sg39
(dp2238
g41
VOG ACE HCS
p2239
sg43
Nssg44
(lp2240
I1095363701
asg32
VWeaponPickup
p2241
sg35
VPT3M11.840265S
p2242
sa(dp2243
g38
I4096745987
sg39
(dp2244
g41
VOG ACE HCS
p2245
sg43
Nssg44
(lp2246
I2758383128
asg32
VWeaponPickup
p2247
sg35
VPT3M11.840265S
p2248
sa(dp2249
g32
VPlayerSpawn
p2250
sg39
(dp2251
g41
VOG ACE HCS
p2252
sg43
Nssg35
VPT3M11.840265S
p2253
sa(dp2254
g185
I313138863
sg186
I00
sg187
I00
sg188
(dp2255
g41
VOG APG HCS
p2256
sg43
Nssg191
(lp2257
I1095363701
asg193
I00
sg194
I01
sg195
I1
sg196
I0
sg197
I1
sg198
(dp2258
Vy
F7.7798242599999998
sVx
F14.299301099999999
sVz
F4.0686850000000003
ssg200
(dp2259
Vy
F9.189292
sVx
F17.262218499999999
sVz
F4.2090120000000004
ssg202
I00
sg203
(dp2260
g41
VnV eL ToWn
p2261
sg43
Nssg206
(lp2262
sg208
(lp2263
sg212
I00
sg35
VPT3M12.9913086S
p2264
sg32
VDeath
p2265
sg215
I1
sa(dp2266
g38
I723388907
sg32
VWeaponDrop
p2267
sg229
I31
sg44
(lp2268
I89283061
asg35
VPT3M12.9943838S
p2269
sg232
I8
sg233
VP0DT0H0M9.7333S
p2270
sg39
(dp2271
g41
VnV eL ToWn
p2272
sg43
Nssa(dp2273
g38
I723388907
sg32
VWeaponDrop
p2274
sg229
I0
sg44
(lp2275
I89283061
asg35
VPT3M12.9943838S
p2276
sg232
I0
sg233
VP0DT0S
p2277
sg39
(dp2278
g41
VnV eL ToWn
p2279
sg43
Nssa(dp2280
g38
I4096745987
sg32
VWeaponDrop
p2281
sg229
I11
sg44
(lp2282
I2758383128
asg35
VPT3M12.9943838S
p2283
sg232
I6
sg233
VP0DT0H0M40.6667S
p2284
sg39
(dp2285
g41
VnV eL ToWn
p2286
sg43
Nssa(dp2287
g185
I4096745987
sg186
I00
sg187
I00
sg188
(dp2288
g41
VnV Mikwen HCS
p2289
sg43
Nssg191
(lp2290
I2758383128
asg193
I00
sg194
I01
sg195
I1
sg196
I0
sg197
I1
sg198
(dp2291
Vy
F13.6766758
sVx
F19.1656017
sVz
F3.21912646
ssg200
(dp2292
Vy
F10.7568254
sVx
F22.27272
sVz
F-0.00312867761
ssg202
I00
sg203
(dp2293
g41
VOG Maniac HCS
p2294
sg43
Nssg206
(lp2295
sg208
(lp2296
sg212
I01
sg35
VPT3M16.0446356S
p2297
sg32
VDeath
p2298
sg215
I1
sa(dp2299
g32
VMedal
p2300
sg39
(dp2301
g41
VnV Mikwen HCS
p2302
sg43
Nssg220
I3261908037
sg35
VPT3M16.0464258S
p2303
sa(dp2304
g38
I313138863
sg32
VWeaponDrop
p2305
sg229
I0
sg44
(lp2306
I1095363701
asg35
VPT3M16.0474259S
p2307
sg232
I0
sg233
VP0DT0H0M0.9667S
p2308
sg39
(dp2309
g41
VOG Maniac HCS
p2310
sg43
Nssa(dp2311
g38
I4096745987
sg32
VWeaponDrop
p2312
sg229
I3
sg44
(lp2313
I2758383128
asg35
VPT3M16.0474259S
p2314
sg232
I0
sg233
VP0DT0H0M8.5500S
p2315
sg39
(dp2316
g41
VOG Maniac HCS
p2317
sg43
Nssa(dp2318
g32
VMedal
p2319
sg39
(dp2320
g41
VOG APG HCS
p2321
sg43
Nssg220
I3400287617
sg35
VPT3M16.7914541S
p2322
sa(dp2323
g185
I4096745987
sg186
I00
sg187
I00
sg188
(dp2324
g41
VnV Mikwen HCS
p2325
sg43
Nssg191
(lp2326
I2758383128
asg193
I00
sg194
I01
sg195
I1
sg196
I0
sg197
I1
sg198
(dp2327
Vy
F14.5652256
sVx
F15.552433000000001
sVz
F4.0024629999999997
ssg200
(dp2328
Vy
F7.5764050000000003
sVx
F15.7185822
sVz
F3.547498
ssg202
I00
sg203
(dp2329
g41
VOG APG HCS
p2330
sg43
Nssg206
(lp2331
sg208
(lp2332
sg212
I01
sg35
VPT3M20.2105863S
p2333
sg32
VDeath
p2334
sg215
I1
sa(dp2335
g32
VMedal
p2336
sg39
(dp2337
g41
VnV Mikwen HCS
p2338
sg43
Nssg220
I3261908037
sg35
VPT3M20.2115863S
p2339
sa(dp2340
g32
VMedal
p2341
sg39
(dp2342
g41
VnV Mikwen HCS
p2343
sg43
Nssg220
I2430242797
sg35
VPT3M20.2115863S
p2344
sa(dp2345
g32
VMedal
p2346
sg39
(dp2347
g41
VnV Mikwen HCS
p2348
sg43
Nssg220
I2078758684
sg35
VPT3M20.2115863S
p2349
sa(dp2350
g38
I313138863
sg32
VWeaponDrop
p2351
sg229
I36
sg44
(lp2352
I1095363701
asg35
VPT3M20.2125859S
p2353
sg232
I18
sg233
VP0DT0H0M9.2167S
p2354
sg39
(dp2355
g41
VOG APG HCS
p2356
sg43
Nssa(dp2357
g38
I313138863
sg32
VWeaponDrop
p2358
sg229
I0
sg44
(lp2359
I1095363701
asg35
VPT3M20.2125859S
p2360
sg232
I0
sg233
VP0DT0S
p2361
sg39
(dp2362
g41
VOG APG HCS
p2363
sg43
Nssa(dp2364
g38
I4096745987
sg32
VWeaponDrop
p2365
sg229
I19
sg44
(lp2366
I2758383128
asg35
VPT3M20.2125859S
p2367
sg232
I6
sg233
VP0DT0H0M31.5333S
p2368
sg39
(dp2369
g41
VOG APG HCS
p2370
sg43
Nssa(dp2371
g38
I313138863
sg39
(dp2372
g41
VnV eL ToWn
p2373
sg43
Nssg44
(lp2374
I1095363701
asg32
VWeaponPickup
p2375
sg35
VPT3M21.0126172S
p2376
sa(dp2377
g38
I4096745987
sg39
(dp2378
g41
VnV eL ToWn
p2379
sg43
Nssg44
(lp2380
I2758383128
asg32
VWeaponPickup
p2381
sg35
VPT3M21.0126172S
p2382
sa(dp2383
g32
VPlayerSpawn
p2384
sg39
(dp2385
g41
VnV eL ToWn
p2386
sg43
Nssg35
VPT3M21.0126172S
p2387
sa(dp2388
g32
VMedal
p2389
sg39
(dp2390
g41
VnV Mikwen HCS
p2391
sg43
Nssg220
I3400287617
sg35
VPT3M23.509711S
p2392
sa(dp2393
g38
I313138863
sg39
(dp2394
g41
VOG Maniac HCS
p2395
sg43
Nssg44
(lp2396
I1095363701
asg32
VWeaponPickup
p2397
sg35
VPT3M24.0567337S
p2398
sa(dp2399
g38
I4096745987
sg39
(dp2400
g41
VOG Maniac HCS
p2401
sg43
Nssg44
(lp2402
I2758383128
asg32
VWeaponPickup
p2403
sg35
VPT3M24.06325S
p2404
sa(dp2405
g32
VPlayerSpawn
p2406
sg39
(dp2407
g41
VOG Maniac HCS
p2408
sg43
Nssg35
VPT3M24.0633175S
p2409
sa(dp2410
g38
I313138863
sg32
VWeaponDrop
p2411
sg229
I0
sg44
(lp2412
I1095363701
asg35
VPT3M25.4605718S
p2413
sg232
I0
sg233
VP0DT0H0M1.4000S
p2414
sg39
(dp2415
g41
VOG Maniac HCS
p2416
sg43
Nssa(dp2417
g38
I524558978
sg39
(dp2418
g41
VOG Maniac HCS
p2419
sg43
Nssg44
(lp2420
I2758383128
asg32
VWeaponPickup
p2421
sg35
VPT3M25.4607877S
p2422
sa(dp2423
g185
I4096745987
sg186
I00
sg187
I00
sg188
(dp2424
g41
VnV eL ToWn
p2425
sg43
Nssg191
(lp2426
I2758383128
asg193
I00
sg194
I00
sg195
I2
sg196
I0
sg197
I0
sg198
(dp2427
Vy
F11.7054148
sVx
F16.749610000000001
sVz
F4.0890370000000003
ssg200
(dp2428
Vy
F9.3494270000000004
sVx
F12.289108300000001
sVz
F5.504264
ssg202
I00
sg203
(dp2429
g307
g308
ssg206
(lp2430
sg208
(lp2431
sg212
I00
sg35
VPT3M26.4768265S
p2432
sg32
VDeath
p2433
sg215
I1
sa(dp2434
g38
I313138863
sg39
(dp2435
g41
VOG APG HCS
p2436
sg43
Nssg44
(lp2437
I1095363701
asg32
VWeaponPickup
p2438
sg35
VPT3M28.2248944S
p2439
sa(dp2440
g38
I4096745987
sg39
(dp2441
g41
VOG APG HCS
p2442
sg43
Nssg44
(lp2443
I2758383128
asg32
VWeaponPickup
p2444
sg35
VPT3M28.2248944S
p2445
sa(dp2446
g32
VPlayerSpawn
p2447
sg39
(dp2448
g41
VOG APG HCS
p2449
sg43
Nssg35
VPT3M28.2248944S
p2450
sa(dp2451
g38
I313138863
sg32
VWeaponDrop
p2452
sg229
I0
sg44
(lp2453
I1095363701
asg35
VPT3M28.823916S
p2454
sg232
I0
sg233
VP0DT0H0M2.0833S
p2455
sg39
(dp2456
g41
VOG ACE HCS
p2457
sg43
Nssa(dp2458
g38
I723388907
sg39
(dp2459
g41
VOG ACE HCS
p2460
sg43
Nssg44
(lp2461
I89283061
asg32
VWeaponPickup
p2462
sg35
VPT3M28.823916S
p2463
sa(dp2464
g38
I4096745987
sg32
VWeaponDrop
p2465
sg229
I0
sg44
(lp2466
I2758383128
asg35
VPT3M30.0059607S
p2467
sg232
I0
sg233
VP0DT0H0M0.2500S
p2468
sg39
(dp2469
g41
VOG Maniac HCS
p2470
sg43
Nssa(dp2471
g38
I424645655
sg39
(dp2472
g41
VOG Maniac HCS
p2473
sg43
Nssg44
(lp2474
I1327094800
asg32
VWeaponPickup
p2475
sg35
VPT3M30.0059607S
p2476
sa(dp2477
g185
I4096745987
sg186
I00
sg187
I00
sg188
(dp2478
g41
VnV Mikwen HCS
p2479
sg43
Nssg191
(lp2480
I2758383128
asg193
I00
sg194
I00
sg195
I2
sg196
I0
sg197
I0
sg198
(dp2481
Vy
F-2.3199255499999998
sVx
F23.370429999999999
sVz
F-0.0064117014399999997
ssg200
(dp2482
Vy
F-4.2828464500000001
sVx
F21.1420174
sVz
F1.208126
ssg202
I00
sg203
(dp2483
g307
g308
ssg206
(lp2484
sg208
(lp2485
sg212
I00
sg35
VPT3M33.4250933S
p2486
sg32
VDeath
p2487
sg215
I1
sa(dp2488
g185
I669296699
sg186
I00
sg187
I00
sg188
(dp2489
g41
VnV Mikwen HCS
p2490
sg43
Nssg191
(lp2491
I2758383128
asg193
I00
sg194
I01
sg195
I1
sg196
I0
sg197
I1
sg198
(dp2492
Vy
F-1.2002191499999999
sVx
F20.5622635
sVz
F2.15381885
ssg200
(dp2493
Vy
F0.79583360000000003
sVx
F-4.6389760000000004
sVz
F0.50677930000000004
ssg202
I00
sg203
(dp2494
g41
VOG Str8 SickHCS
p2495
sg43
Nssg206
(lp2496
sg208
(lp2497
sg212
I01
sg35
VPT3M40.6563716S
p2498
sg32
VDeath
p2499
sg215
I1
sa(dp2500
g32
VMedal
p2501
sg39
(dp2502
g41
VnV Mikwen HCS
p2503
sg43
Nssg220
I848240062
sg35
VPT3M40.6573707S
p2504
sa(dp2505
g38
I313138863
sg32
VWeaponDrop
p2506
sg229
I20
sg44
(lp2507
I1095363701
asg35
VPT3M40.6573707S
p2508
sg232
I3
sg233
VP0DT0H0M26.8000S
p2509
sg39
(dp2510
g41
VOG Str8 SickHCS
p2511
sg43
Nssa(dp2512
g38
I4096745987
sg32
VWeaponDrop
p2513
sg229
I14
sg44
(lp2514
I2758383128
asg35
VPT3M40.6573707S
p2515
sg232
I7
sg233
VP0DT0H0M45.5000S
p2516
sg39
(dp2517
g41
VOG Str8 SickHCS
p2518
sg43
Nssa(dp2519
g185
I3190813201
sg186
I00
sg187
I00
sg188
(dp2520
g41
VnV Pistola HCS
p2521
sg43
Nssg191
(lp2522
sg193
I00
sg194
I01
sg195
I1
sg196
I0
sg197
I1
sg198
(dp2523
Vy
F-5.5470604899999998
sVx
F7.6104419999999999
sVz
F3.19718575
ssg200
(dp2524
Vy
F9.1710480000000008
sVx
F-6.8281980000000004
sVz
F3.5827
ssg202
I00
sg203
(dp2525
g41
VOG Maniac HCS
p2526
sg43
Nssg206
(lp2527
sg208
(lp2528
sg212
I00
sg35
VPT3M40.8903804S
p2529
sg32
VDeath
p2530
sg215
I1
sa(dp2531
g32
VMedal
p2532
sg39
(dp2533
g41
VnV Pistola HCS
p2534
sg43
Nssg220
I3491849182
sg35
VPT3M40.892386S
p2535
sa(dp2536
g38
I524558978
sg32
VWeaponDrop
p2537
sg229
I0
sg44
(lp2538
I2758383128
asg35
VPT3M40.892386S
p2539
sg232
I0
sg233
VP0DT0H0M8.6000S
p2540
sg39
(dp2541
g41
VOG Maniac HCS
p2542
sg43
Nssa(dp2543
g38
I424645655
sg32
VWeaponDrop
p2544
sg229
I0
sg44
(lp2545
I1327094800
asg35
VPT3M40.892386S
p2546
sg232
I0
sg233
VP0DT0H0M6.5833S
p2547
sg39
(dp2548
g41
VOG Maniac HCS
p2549
sg43
Nssa(dp2550
g38
I723388907
sg32
VWeaponDrop
p2551
sg229
I0
sg44
(lp2552
I89283061
asg35
VPT3M45.7408512S
p2553
sg232
I0
sg233
VP0DT0H0M6.3500S
p2554
sg39
(dp2555
g41
VOG ACE HCS
p2556
sg43
Nssa(dp2557
g38
I524558978
sg39
(dp2558
g41
VOG ACE HCS
p2559
sg43
Nssg44
(lp2560
I2758383128
asg32
VWeaponPickup
p2561
sg35
VPT3M45.7408512S
p2562
sa(dp2563
g185
I313138863
sg186
I00
sg187
I01
sg188
(dp2564
g41
VOG APG HCS
p2565
sg43
Nssg191
(lp2566
I1095363701
asg193
I00
sg194
I00
sg195
I1
sg196
I0
sg197
I1
sg198
(dp2567
Vy
F-7.3502702700000002
sVx
F-2.3901805899999999
sVz
F3.7200765599999999
ssg200
(dp2568
Vy
F-7.7186620000000001
sVx
F-2.2284982200000001
sVz
F3.6123569999999998
ssg202
I00
sg203
(dp2569
g41
VnV Pistola HCS
p2570
sg43
Nssg206
(lp2571
sg208
(lp2572
sg212
I00
sg35
VPT3M47.1906216S
p2573
sg32
VDeath
p2574
sg215
I1
sa(dp2575
g32
VMedal
p2576
sg39
(dp2577
g41
VOG APG HCS
p2578
sg43
Nssg220
I2782465081
sg35
VPT3M47.1916213S
p2579
sa(dp2580
g32
VMedal
p2581
sg39
(dp2582
g41
VOG APG HCS
p2583
sg43
Nssg220
I2287626681
sg35
VPT3M47.1926215S
p2584
sa(dp2585
g38
I723388907
sg32
VWeaponDrop
p2586
sg229
I68
sg44
(lp2587
I89283061
asg35
VPT3M47.1926215S
p2588
sg232
I29
sg233
VP0DT0H0M50.9667S
p2589
sg39
(dp2590
g41
VnV Pistola HCS
p2591
sg43
Nssa(dp2592
g38
I723388907
sg32
VWeaponDrop
p2593
sg229
I0
sg44
(lp2594
I89283061
asg35
VPT3M47.1926215S
p2595
sg232
I0
sg233
VP0DT0S
p2596
sg39
(dp2597
g41
VnV Pistola HCS
p2598
sg43
Nssa(dp2599
g38
I4096745987
sg32
VWeaponDrop
p2600
sg229
I8
sg44
(lp2601
I2758383128
asg35
VPT3M47.193634S
p2602
sg232
I3
sg233
VP0DT0H0M26.5667S
p2603
sg39
(dp2604
g41
VnV Pistola HCS
p2605
sg43
Nssa(dp2606
g185
I424645655
sg186
I00
sg187
I00
sg188
(dp2607
g41
VnV RayneHCS
p2608
sg43
Nssg191
(lp2609
I1327094800
asg193
I00
sg194
I01
sg195
I1
sg196
I0
sg197
I1
sg198
(dp2610
Vy
F-7.4679212599999998
sVx
F-6.6276029999999997
sVz
F3.21391487
ssg200
(dp2611
Vy
F-6.2540469999999999
sVx
F-2.3747987699999999
sVz
F3.3465492700000001
ssg202
I00
sg203
(dp2612
g41
VOG APG HCS
p2613
sg43
Nssg206
(lp2614
sg208
(lp2615
(dp2616
g41
VnV Pistola HCS
p2617
sg43
Nsasg212
I01
sg35
VPT3M48.1726594S
p2618
sg32
VDeath
p2619
sg215
I1
sa(dp2620
g32
VMedal
p2621
sg39
(dp2622
g41
VnV RayneHCS
p2623
sg43
Nssg220
I3261908037
sg35
VPT3M48.1746593S
p2624
sa(dp2625
g38
I313138863
sg32
VWeaponDrop
p2626
sg229
I10
sg44
(lp2627
I1095363701
asg35
VPT3M48.1756599S
p2628
sg232
I6
sg233
VP0DT0H0M3.7000S
p2629
sg39
(dp2630
g41
VOG APG HCS
p2631
sg43
Nssa(dp2632
g38
I313138863
sg32
VWeaponDrop
p2633
sg229
I0
sg44
(lp2634
I1095363701
asg35
VPT3M48.1756599S
p2635
sg232
I0
sg233
VP0DT0S
p2636
sg39
(dp2637
g41
VOG APG HCS
p2638
sg43
Nssa(dp2639
g38
I4096745987
sg32
VWeaponDrop
p2640
sg229
I3
sg44
(lp2641
I2758383128
asg35
VPT3M48.1816598S
p2642
sg232
I1
sg233
VP0DT0H0M16.2500S
p2643
sg39
(dp2644
g41
VOG APG HCS
p2645
sg43
Nssa(dp2646
g38
I313138863
sg39
(dp2647
g41
VOG Str8 SickHCS
p2648
sg43
Nssg44
(lp2649
I1095363701
asg32
VWeaponPickup
p2650
sg35
VPT3M48.6876797S
p2651
sa(dp2652
g38
I4096745987
sg39
(dp2653
g41
VOG Str8 SickHCS
p2654
sg43
Nssg44
(lp2655
I2758383128
asg32
VWeaponPickup
p2656
sg35
VPT3M48.6876797S
p2657
sa(dp2658
g32
VPlayerSpawn
p2659
sg39
(dp2660
g41
VOG Str8 SickHCS
p2661
sg43
Nssg35
VPT3M48.6876797S
p2662
sa(dp2663
g38
I313138863
sg39
(dp2664
g41
VOG Maniac HCS
p2665
sg43
Nssg44
(lp2666
I1095363701
asg32
VWeaponPickup
p2667
sg35
VPT3M48.9096884S
p2668
sa(dp2669
g38
I4096745987
sg39
(dp2670
g41
VOG Maniac HCS
p2671
sg43
Nssg44
(lp2672
I2758383128
asg32
VWeaponPickup
p2673
sg35
VPT3M48.9106884S
p2674
sa(dp2675
g32
VPlayerSpawn
p2676
sg39
(dp2677
g41
VOG Maniac HCS
p2678
sg43
Nssg35
VPT3M48.9106884S
p2679
sa(dp2680
g38
I313138863
sg39
(dp2681
g41
VnV Pistola HCS
p2682
sg43
Nssg44
(lp2683
I1095363701
asg32
VWeaponPickup
p2684
sg35
VPT3M55.2079301S
p2685
sa(dp2686
g38
I4096745987
sg39
(dp2687
g41
VnV Pistola HCS
p2688
sg43
Nssg44
(lp2689
I2758383128
asg32
VWeaponPickup
p2690
sg35
VPT3M55.2089302S
p2691
sa(dp2692
g32
VPlayerSpawn
p2693
sg39
(dp2694
g41
VnV Pistola HCS
p2695
sg43
Nssg35
VPT3M55.2089302S
p2696
sa(dp2697
g38
I313138863
sg39
(dp2698
g41
VOG APG HCS
p2699
sg43
Nssg44
(lp2700
I1095363701
asg32
VWeaponPickup
p2701
sg35
VPT3M56.1859668S
p2702
sa(dp2703
g38
I4096745987
sg39
(dp2704
g41
VOG APG HCS
p2705
sg43
Nssg44
(lp2706
I2758383128
asg32
VWeaponPickup
p2707
sg35
VPT3M56.1859668S
p2708
sa(dp2709
g32
VPlayerSpawn
p2710
sg39
(dp2711
g41
VOG APG HCS
p2712
sg43
Nssg35
VPT3M56.1859668S
p2713
sa(dp2714
g38
I313138863
sg32
VWeaponDrop
p2715
sg229
I0
sg44
(lp2716
I1095363701
asg35
VPT3M58.2095826S
p2717
sg232
I0
sg233
VP0DT0H0M1.0333S
p2718
sg39
(dp2719
g41
VnV Pistola HCS
p2720
sg43
Nssa(dp2721
g38
I723388907
sg39
(dp2722
g41
VnV Pistola HCS
p2723
sg43
Nssg44
(lp2724
I89283061
asg32
VWeaponPickup
p2725
sg35
VPT3M58.2095826S
p2726
sa(dp2727
g38
I313138863
sg32
VWeaponDrop
p2728
sg229
I2
sg44
(lp2729
I1095363701
asg35
VPT3M58.8380684S
p2730
sg232
I0
sg233
VP0DT0H0M3.9500S
p2731
sg39
(dp2732
g41
VnV RayneHCS
p2733
sg43
Nssa(dp2734
g38
I1579758889
sg39
(dp2735
g41
VnV RayneHCS
p2736
sg43
Nssg44
(lp2737
I2758383128
asg32
VWeaponPickup
p2738
sg35
VPT3M58.8380684S
p2739
sa(dp2740
g38
I4096745987
sg32
VWeaponDrop
p2741
sg229
I0
sg44
(lp2742
I2758383128
asg35
VPT3M59.3766599S
p2743
sg232
I0
sg233
VP0DT0H0M9.9000S
p2744
sg39
(dp2745
g41
VOG Str8 SickHCS
p2746
sg43
Nssa(dp2747
g38
I424645655
sg39
(dp2748
g41
VOG Str8 SickHCS
p2749
sg43
Nssg44
(lp2750
I1327094800
asg32
VWeaponPickup
p2751
sg35
VPT3M59.3770901S
p2752
sa(dp2753
g185
I4096745987
sg186
I00
sg187
I00
sg188
(dp2754
g41
VnV Pistola HCS
p2755
sg43
Nssg191
(lp2756
I2758383128
asg193
I00
sg194
I01
sg195
I1
sg196
I0
sg197
I1
sg198
(dp2757
Vy
F-2.1831070000000001
sVx
F-5.7218027100000004
sVz
F3.2000005200000001
ssg200
(dp2758
Vy
F4.4456949999999997
sVx
F-11.6261005
sVz
F2.4552292800000002
ssg202
I00
sg203
(dp2759
g41
VOG ACE HCS
p2760
sg43
Nssg206
(lp2761
sg208
(lp2762
(dp2763
g41
VnV RayneHCS
p2764
sg43
Nsasg212
I01
sg35
VPT4M2.2111986S
p2765
sg32
VDeath
p2766
sg215
I1
sa(dp2767
g32
VMedal
p2768
sg39
(dp2769
g41
VnV Pistola HCS
p2770
sg43
Nssg220
I2838259753
sg35
VPT4M2.2111986S
p2771
sa(dp2772
g32
VImpulse
p2773
sg39
(dp2774
g41
VnV Pistola HCS
p2775
sg43
Nssg382
I2556889090
sg35
VPT4M2.2111986S
p2776
sa(dp2777
g32
VMedal
p2778
sg39
(dp2779
g41
VnV Pistola HCS
p2780
sg43
Nssg220
I3261908037
sg35
VPT4M2.2131989S
p2781
sa(dp2782
g38
I524558978
sg32
VWeaponDrop
p2783
sg229
I2
sg44
(lp2784
I2758383128
asg35
VPT4M2.2195893S
p2785
sg232
I2
sg233
VP0DT0H0M13.2333S
p2786
sg39
(dp2787
g41
VOG ACE HCS
p2788
sg43
Nssa(dp2789
g38
I524558978
sg32
VWeaponDrop
p2790
sg229
I0
sg44
(lp2791
I2758383128
asg35
VPT4M2.2195893S
p2792
sg232
I0
sg233
VP0DT0S
p2793
sg39
(dp2794
g41
VOG ACE HCS
p2795
sg43
Nssa(dp2796
g38
I4096745987
sg32
VWeaponDrop
p2797
sg229
I13
sg44
(lp2798
I2758383128
asg35
VPT4M2.2195893S
p2799
sg232
I4
sg233
VP0DT0H0M28.7000S
p2800
sg39
(dp2801
g41
VOG ACE HCS
p2802
sg43
Nssa(dp2803
g38
I4096745987
sg32
VWeaponDrop
p2804
sg229
I8
sg44
(lp2805
I2758383128
asg35
VPT4M3.6933708S
p2806
sg232
I2
sg233
VP0DT0H0M40.3833S
p2807
sg39
(dp2808
g41
VnV eL ToWn
p2809
sg43
Nssa(dp2810
g38
I424645655
sg39
(dp2811
g41
VnV eL ToWn
p2812
sg43
Nssg44
(lp2813
I1327094800
asg32
VWeaponPickup
p2814
sg35
VPT4M3.6933708S
p2815
sa(dp2816
g185
I424645655
sg186
I00
sg187
I00
sg188
(dp2817
g41
VOG Str8 SickHCS
p2818
sg43
Nssg191
(lp2819
I1327094800
asg193
I00
sg194
I01
sg195
I1
sg196
I0
sg197
I1
sg198
(dp2820
Vy
F-11.2351046
sVx
F8.5220900000000004
sVz
F3.2011766399999999
ssg200
(dp2821
Vy
F-9.2261505100000001
sVx
F2.1562051800000002
sVz
F3.2003133300000002
ssg202
I00
sg203
(dp2822
g41
VnV Mikwen HCS
p2823
sg43
Nssg206
(lp2824
sg208
(lp2825
(dp2826
g41
VOG APG HCS
p2827
sg43
Nsasg212
I01
sg35
VPT4M5.9287524S
p2828
sg32
VDeath
p2829
sg215
I1
sa(dp2830
g32
VMedal
p2831
sg39
(dp2832
g41
VOG Str8 SickHCS
p2833
sg43
Nssg220
I3261908037
sg35
VPT4M5.9303416S
p2834
sa(dp2835
g38
I669296699
sg32
VWeaponDrop
p2836
sg229
I10
sg44
(lp2837
I2758383128
asg35
VPT4M5.9313422S
p2838
sg232
I5
sg233
VP0DT0H1M17.0500S
p2839
sg39
(dp2840
g41
VnV Mikwen HCS
p2841
sg43
Nssa(dp2842
g38
I4096745987
sg32
VWeaponDrop
p2843
sg229
I29
sg44
(lp2844
I2758383128
asg35
VPT4M5.9313422S
p2845
sg232
I12
sg233
VP0DT0H0M34.7667S
p2846
sg39
(dp2847
g41
VnV Mikwen HCS
p2848
sg43
Nssa(dp2849
g38
I4096745987
sg32
VWeaponDrop
p2850
sg229
I0
sg44
(lp2851
I2758383128
asg35
VPT4M5.9313422S
p2852
sg232
I0
sg233
VP0DT0S
p2853
sg39
(dp2854
g41
VnV Mikwen HCS
p2855
sg43
Nssa(dp2856
g38
I313138863
sg32
VWeaponDrop
p2857
sg229
I0
sg44
(lp2858
I1095363701
asg35
VPT4M8.0926689S
p2859
sg232
I0
sg233
VP0DT0H0M1.2833S
p2860
sg39
(dp2861
g41
VOG Str8 SickHCS
p2862
sg43
Nssa(dp2863
g38
I669296699
sg39
(dp2864
g41
VOG Str8 SickHCS
p2865
sg43
Nssg44
(lp2866
I2758383128
asg32
VWeaponPickup
p2867
sg35
VPT4M8.0926689S
p2868
sa(dp2869
g38
I1579758889
sg32
VWeaponDrop
p2870
sg229
I7
sg44
(lp2871
I2758383128
asg35
VPT4M9.1554652S
p2872
sg232
I7
sg233
VP0DT0H0M5.9167S
p2873
sg39
(dp2874
g41
VnV RayneHCS
p2875
sg43
Nssa(dp2876
g38
I723388907
sg39
(dp2877
g41
VnV RayneHCS
p2878
sg43
Nssg44
(lp2879
I89283061
asg32
VWeaponPickup
p2880
sg35
VPT4M9.1554652S
p2881
sa(dp2882
g38
I313138863
sg39
(dp2883
g41
VOG ACE HCS
p2884
sg43
Nssg44
(lp2885
I1095363701
asg32
VWeaponPickup
p2886
sg35
VPT4M10.2285067S
p2887
sa(dp2888
g38
I4096745987
sg39
(dp2889
g41
VOG ACE HCS
p2890
sg43
Nssg44
(lp2891
I2758383128
asg32
VWeaponPickup
p2892
sg35
VPT4M10.2285067S
p2893
sa(dp2894
g32
VPlayerSpawn
p2895
sg39
(dp2896
g41
VOG ACE HCS
p2897
sg43
Nssg35
VPT4M10.2285067S
p2898
sa(dp2899
g185
I723388907
sg186
I00
sg187
I00
sg188
(dp2900
g41
VnV Pistola HCS
p2901
sg43
Nssg191
(lp2902
I89283061
asg193
I00
sg194
I01
sg195
I1
sg196
I0
sg197
I1
sg198
(dp2903
Vy
F-10.590844199999999
sVx
F4.2971334499999996
sVz
F3.3428304199999999
ssg200
(dp2904
Vy
F-7.606922
sVx
F3.9427754899999998
sVz
F3.5417550000000002
ssg202
I00
sg203
(dp2905
g41
VOG Str8 SickHCS
p2906
sg43
Nssg206
(lp2907
sg208
(lp2908
(dp2909
g41
VnV eL ToWn
p2910
sg43
Nsasg212
I00
sg35
VPT4M10.6455231S
p2911
sg32
VDeath
p2912
sg215
I1
sa(dp2913
g32
VMedal
p2914
sg39
(dp2915
g41
VnV Pistola HCS
p2916
sg43
Nssg220
I466059351
sg35
VPT4M10.6475225S
p2917
sa(dp2918
g38
I669296699
sg32
VWeaponDrop
p2919
sg229
I0
sg44
(lp2920
I2758383128
asg35
VPT4M10.6535213S
p2921
sg232
I0
sg233
VP0DT0H0M2.5500S
p2922
sg39
(dp2923
g41
VOG Str8 SickHCS
p2924
sg43
Nssa(dp2925
g38
I424645655
sg32
VWeaponDrop
p2926
sg229
I12
sg44
(lp2927
I1327094800
asg35
VPT4M10.6535213S
p2928
sg232
I5
sg233
VP0DT0H0M8.2333S
p2929
sg39
(dp2930
g41
VOG Str8 SickHCS
p2931
sg43
Nssa(dp2932
g185
I313138863
sg186
I00
sg187
I01
sg188
(dp2933
g41
VOG APG HCS
p2934
sg43
Nssg191
(lp2935
I1095363701
asg193
I00
sg194
I00
sg195
I1
sg196
I0
sg197
I1
sg198
(dp2936
Vy
F12.127421399999999
sVx
F-2.0575130000000001
sVz
F1.6003018600000001
ssg200
(dp2937
Vy
F12.3764143
sVx
F-2.06141233
sVz
F1.5997950999999999
ssg202
I00
sg203
(dp2938
g41
VnV RayneHCS
p2939
sg43
Nssg206
(lp2940
sg208
(lp2941
sg212
I00
sg35
VPT4M12.6735999S
p2942
sg32
VDeath
p2943
sg215
I1
sa(dp2944
g32
VMedal
p2945
sg39
(dp2946
g41
VOG APG HCS
p2947
sg43
Nssg220
I250435527
sg35
VPT4M12.6756003S
p2948
sa(dp2949
g38
I723388907
sg32
VWeaponDrop
p2950
sg229
I9
sg44
(lp2951
I89283061
asg35
VPT4M12.6756003S
p2952
sg232
I7
sg233
VP0DT0H0M3.5167S
p2953
sg39
(dp2954
g41
VnV RayneHCS
p2955
sg43
Nssa(dp2956
g38
I723388907
sg32
VWeaponDrop
p2957
sg229
I0
sg44
(lp2958
I89283061
asg35
VPT4M12.6756003S
p2959
sg232
I0
sg233
VP0DT0S
p2960
sg39
(dp2961
g41
VnV RayneHCS
p2962
sg43
Nssa(dp2963
g38
I424645655
sg32
VWeaponDrop
p2964
sg229
I78
sg44
(lp2965
I1327094800
asg35
VPT4M12.6819847S
p2966
sg232
I33
sg233
VP0DT0H1M22.4833S
p2967
sg39
(dp2968
g41
VnV RayneHCS
p2969
sg43
Nssa(dp2970
g185
I723388907
sg186
I00
sg187
I01
sg188
(dp2971
g41
VnV RayneHCS
p2972
sg43
Nssg191
(lp2973
I89283061
asg193
I00
sg194
I00
sg195
I1
sg196
I0
sg197
I1
sg198
(dp2974
Vy
F12.3764143
sVx
F-2.06141233
sVz
F1.5997950999999999
ssg200
(dp2975
Vy
F12.127421399999999
sVx
F-2.0575130000000001
sVz
F1.6003018600000001
ssg202
I00
sg203
(dp2976
g41
VOG APG HCS
p2977
sg43
Nssg206
(lp2978
sg208
(lp2979
sg212
I00
sg35
VPT4M12.6819847S
p2980
sg32
VDeath
p2981
sg215
I1
sa(dp2982
g32
VMedal
p2983
sg39
(dp2984
g41
VnV RayneHCS
p2985
sg43
Nssg220
I250435527
sg35
VPT4M12.682601S
p2986
sa(dp2987
g38
I313138863
sg32
VWeaponDrop
p2988
sg229
I6
sg44
(lp2989
I1095363701
asg35
VPT4M12.682601S
p2990
sg232
I4
sg233
VP0DT0H0M2.6500S
p2991
sg39
(dp2992
g41
VOG APG HCS
p2993
sg43
Nssa(dp2994
g38
I313138863
sg32
VWeaponDrop
p2995
sg229
I0
sg44
(lp2996
I1095363701
asg35
VPT4M12.682601S
p2997
sg232
I0
sg233
VP0DT0S
p2998
sg39
(dp2999
g41
VOG APG HCS
p3000
sg43
Nssa(dp3001
g38
I4096745987
sg32
VWeaponDrop
p3002
sg229
I8
sg44
(lp3003
I2758383128
asg35
VPT4M12.6836018S
p3004
sg232
I3
sg233
VP0DT0H0M13.8333S
p3005
sg39
(dp3006
g41
VOG APG HCS
p3007
sg43
Nssa(dp3008
g38
I723388907
sg32
VWeaponDrop
p3009
sg229
I34
sg44
(lp3010
I89283061
asg35
VPT4M13.0590886S
p3011
sg232
I8
sg233
VP0DT0H0M6.5000S
p3012
sg39
(dp3013
g41
VnV Pistola HCS
p3014
sg43
Nssa(dp3015
g38
I424645655
sg39
(dp3016
g41
VnV Pistola HCS
p3017
sg43
Nssg44
(lp3018
I1327094800
asg32
VWeaponPickup
p3019
sg35
VPT4M13.0590886S
p3020
sa(dp3021
g38
I313138863
sg39
(dp3022
g41
VnV Mikwen HCS
p3023
sg43
Nssg44
(lp3024
I1095363701
asg32
VWeaponPickup
p3025
sg35
VPT4M13.9396493S
p3026
sa(dp3027
g38
I4096745987
sg39
(dp3028
g41
VnV Mikwen HCS
p3029
sg43
Nssg44
(lp3030
I2758383128
asg32
VWeaponPickup
p3031
sg35
VPT4M13.9406494S
p3032
sa(dp3033
g32
VPlayerSpawn
p3034
sg39
(dp3035
g41
VnV Mikwen HCS
p3036
sg43
Nssg35
VPT4M13.9406494S
p3037
sa(dp3038
g38
I4096745987
sg32
VWeaponDrop
p3039
sg229
I3
sg44
(lp3040
I2758383128
asg35
VPT4M15.0762802S
p3041
sg232
I2
sg233
VP0DT0H0M10.8000S
p3042
sg39
(dp3043
g41
VnV Pistola HCS
p3044
sg43
Nssa(dp3045
g38
I669296699
sg39
(dp3046
g41
VnV Pistola HCS
p3047
sg43
Nssg44
(lp3048
I2758383128
asg32
VWeaponPickup
p3049
sg35
VPT4M15.0763473S
p3050
sa(dp3051
g38
I313138863
sg39
(dp3052
g41
VOG Str8 SickHCS
p3053
sg43
Nssg44
(lp3054
I1095363701
asg32
VWeaponPickup
p3055
sg35
VPT4M18.653504S
p3056
sa(dp3057
g38
I4096745987
sg39
(dp3058
g41
VOG Str8 SickHCS
p3059
sg43
Nssg44
(lp3060
I2758383128
asg32
VWeaponPickup
p3061
sg35
VPT4M18.6538302S
p3062
sa(dp3063
g32
VPlayerSpawn
p3064
sg39
(dp3065
g41
VOG Str8 SickHCS
p3066
sg43
Nssg35
VPT4M18.6538302S
p3067
sa(dp3068
g38
I313138863
sg39
(dp3069
g41
VnV RayneHCS
p3070
sg43
Nssg44
(lp3071
I1095363701
asg32
VWeaponPickup
p3072
sg35
VPT4M20.6909084S
p3073
sa(dp3074
g38
I4096745987
sg39
(dp3075
g41
VnV RayneHCS
p3076
sg43
Nssg44
(lp3077
I2758383128
asg32
VWeaponPickup
p3078
sg35
VPT4M20.6909084S
p3079
sa(dp3080
g32
VPlayerSpawn
p3081
sg39
(dp3082
g41
VnV RayneHCS
p3083
sg43
Nssg35
VPT4M20.6909084S
p3084
sa(dp3085
g38
I313138863
sg39
(dp3086
g41
VOG APG HCS
p3087
sg43
Nssg44
(lp3088
I1095363701
asg32
VWeaponPickup
p3089
sg35
VPT4M20.7289099S
p3090
sa(dp3091
g38
I4096745987
sg39
(dp3092
g41
VOG APG HCS
p3093
sg43
Nssg44
(lp3094
I2758383128
asg32
VWeaponPickup
p3095
sg35
VPT4M20.7289099S
p3096
sa(dp3097
g32
VPlayerSpawn
p3098
sg39
(dp3099
g41
VOG APG HCS
p3100
sg43
Nssg35
VPT4M20.7289099S
p3101
sa(dp3102
g185
I4096745987
sg186
I00
sg187
I00
sg188
(dp3103
g41
VOG Str8 SickHCS
p3104
sg43
Nssg191
(lp3105
I2758383128
asg193
I00
sg194
I00
sg195
I2
sg196
I0
sg197
I0
sg198
(dp3106
Vy
F12.984268200000001
sVx
F4.1883516299999997
sVz
F3.2150888399999999
ssg200
(dp3107
Vy
F3.6524624800000001
sVx
F-2.4600274600000001
sVz
F3.2003424200000001
ssg202
I00
sg203
(dp3108
g307
g308
ssg206
(lp3109
sg208
(lp3110
sg212
I00
sg35
VPT4M28.2071971S
p3111
sg32
VDeath
p3112
sg215
I1
sa(dp3113
g38
I313138863
sg32
VWeaponDrop
p3114
sg229
I0
sg44
(lp3115
I1095363701
asg35
VPT4M28.321997S
p3116
sg232
I0
sg233
VP0DT0H0M2.5000S
p3117
sg39
(dp3118
g41
VnV eL ToWn
p3119
sg43
Nssa(dp3120
g38
I723388907
sg39
(dp3121
g41
VnV eL ToWn
p3122
sg43
Nssg44
(lp3123
I89283061
asg32
VWeaponPickup
p3124
sg35
VPT4M28.3222013S
p3125
sa(dp3126
g185
I313138863
sg186
I00
sg187
I00
sg188
(dp3127
g41
VnV RayneHCS
p3128
sg43
Nssg191
(lp3129
I1095363701
asg193
I00
sg194
I01
sg195
I1
sg196
I0
sg197
I1
sg198
(dp3130
Vy
F-3.6663568
sVx
F13.563592
sVz
F1.6750004300000001
ssg200
(dp3131
Vy
F-5.0937549999999998
sVx
F17.209386800000001
sVz
F4.3418345499999997
ssg202
I00
sg203
(dp3132
g41
VOG APG HCS
p3133
sg43
Nssg206
(lp3134
sg208
(lp3135
(dp3136
g41
VnV Mikwen HCS
p3137
sg43
Nsasg212
I00
sg35
VPT4M37.4245514S
p3138
sg32
VDeath
p3139
sg215
I1
sa(dp3140
g38
I313138863
sg32
VWeaponDrop
p3141
sg229
I8
sg44
(lp3142
I1095363701
asg35
VPT4M37.4315504S
p3143
sg232
I0
sg233
VP0DT0H0M4.1333S
p3144
sg39
(dp3145
g41
VOG APG HCS
p3146
sg43
Nssa(dp3147
g38
I4096745987
sg32
VWeaponDrop
p3148
sg229
I6
sg44
(lp3149
I2758383128
asg35
VPT4M37.4315504S
p3150
sg232
I5
sg233
VP0DT0H0M12.5667S
p3151
sg39
(dp3152
g41
VOG APG HCS
p3153
sg43
Nssa(dp3154
g185
I313138863
sg186
I00
sg187
I00
sg188
(dp3155
g41
VOG Str8 SickHCS
p3156
sg43
Nssg191
(lp3157
I1095363701
asg193
I00
sg194
I01
sg195
I1
sg196
I0
sg197
I1
sg198
(dp3158
Vy
F-11.5811625
sVx
F8.2383360000000003
sVz
F3.2011766399999999
ssg200
(dp3159
Vy
F-7.9762779999999998
sVx
F11.5635843
sVz
F3.651494
ssg202
I00
sg203
(dp3160
g41
VnV Pistola HCS
p3161
sg43
Nssg206
(lp3162
sg208
(lp3163
sg212
I00
sg35
VPT4M41.707715S
p3164
sg32
VDeath
p3165
sg215
I1
sa(dp3166
g38
I424645655
sg32
VWeaponDrop
p3167
sg229
I6
sg44
(lp3168
I1327094800
asg35
VPT4M41.7157152S
p3169
sg232
I5
sg233
VP0DT0H0M3.6667S
p3170
sg39
(dp3171
g41
VnV Pistola HCS
p3172
sg43
Nssa(dp3173
g38
I669296699
sg32
VWeaponDrop
p3174
sg229
I4
sg44
(lp3175
I2758383128
asg35
VPT4M41.7157152S
p3176
sg232
I0
sg233
VP0DT0H0M24.5000S
p3177
sg39
(dp3178
g41
VnV Pistola HCS
p3179
sg43
Nssa(dp3180
g38
I2492868984
sg39
(dp3181
g41
VnV RayneHCS
p3182
sg43
Nssg44
(lp3183
I2758383128
asg32
VWeaponPickup
p3184
sg35
VPT4M42.0397287S
p3185
sa(dp3186
g38
I2492868984
sg32
VWeaponDrop
p3187
sg229
I0
sg44
(lp3188
I2758383128
asg35
VPT4M43.1777719S
p3189
sg232
I0
sg233
VP0DT0H0M0.9833S
p3190
sg39
(dp3191
g41
VnV RayneHCS
p3192
sg43
Nssa(dp3193
g38
I313138863
sg32
VWeaponDrop
p3194
sg229
I32
sg44
(lp3195
I1095363701
asg35
VPT4M43.8897981S
p3196
sg232
I16
sg233
VP0DT0H0M12.6000S
p3197
sg39
(dp3198
g41
VOG Str8 SickHCS
p3199
sg43
Nssa(dp3200
g38
I669296699
sg39
(dp3201
g41
VOG Str8 SickHCS
p3202
sg43
Nssg44
(lp3203
I2758383128
asg32
VWeaponPickup
p3204
sg35
VPT4M43.8897981S
p3205
sa(dp3206
g38
I313138863
sg39
(dp3207
g41
VOG APG HCS
p3208
sg43
Nssg44
(lp3209
I1095363701
asg32
VWeaponPickup
p3210
sg35
VPT4M45.4460481S
p3211
sa(dp3212
g38
I4096745987
sg39
(dp3213
g41
VOG APG HCS
p3214
sg43
Nssg44
(lp3215
I2758383128
asg32
VWeaponPickup
p3216
sg35
VPT4M45.4468589S
p3217
sa(dp3218
g32
VPlayerSpawn
p3219
sg39
(dp3220
g41
VOG APG HCS
p3221
sg43
Nssg35
VPT4M45.4468589S
p3222
sa(dp3223
g32
VMedal
p3224
sg39
(dp3225
g41
VOG Str8 SickHCS
p3226
sg43
Nssg220
I3400287617
sg35
VPT4M45.7898716S
p3227
sa(dp3228
g38
I313138863
sg39
(dp3229
g41
VnV Pistola HCS
p3230
sg43
Nssg44
(lp3231
I1095363701
asg32
VWeaponPickup
p3232
sg35
VPT4M49.7280238S
p3233
sa(dp3234
g38
I4096745987
sg39
(dp3235
g41
VnV Pistola HCS
p3236
sg43
Nssg44
(lp3237
I2758383128
asg32
VWeaponPickup
p3238
sg35
VPT4M49.7280238S
p3239
sa(dp3240
g32
VPlayerSpawn
p3241
sg39
(dp3242
g41
VnV Pistola HCS
p3243
sg43
Nssg35
VPT4M49.7280238S
p3244
sa(dp3245
g185
I4096745987
sg186
I00
sg187
I01
sg188
(dp3246
g41
VOG Maniac HCS
p3247
sg43
Nssg191
(lp3248
I2758383128
asg193
I00
sg194
I00
sg195
I1
sg196
I0
sg197
I1
sg198
(dp3249
Vy
F-8.0139899999999997
sVx
F7.4596010000000001
sVz
F3.2022385600000001
ssg200
(dp3250
Vy
F-8.3577729999999999
sVx
F7.3804129999999999
sVz
F3.2011766399999999
ssg202
I00
sg203
(dp3251
g41
VnV Mikwen HCS
p3252
sg43
Nssg206
(lp3253
sg208
(lp3254
sg212
I00
sg35
VPT4M49.9450315S
p3255
sg32
VDeath
p3256
sg215
I1
sa(dp3257
g32
VMedal
p3258
sg39
(dp3259
g41
VOG Maniac HCS
p3260
sg43
Nssg220
I2838259753
sg35
VPT4M49.9450315S
p3261
sa(dp3262
g32
VImpulse
p3263
sg39
(dp3264
g41
VOG Maniac HCS
p3265
sg43
Nssg382
I2556889090
sg35
VPT4M49.9450315S
p3266
sa(dp3267
g32
VMedal
p3268
sg39
(dp3269
g41
VOG Maniac HCS
p3270
sg43
Nssg220
I2782465081
sg35
VPT4M49.9460319S
p3271
sa(dp3272
g32
VMedal
p3273
sg39
(dp3274
g41
VOG Maniac HCS
p3275
sg43
Nssg220
I250435527
sg35
VPT4M49.9460319S
p3276
sa(dp3277
g38
I313138863
sg32
VWeaponDrop
p3278
sg229
I1
sg44
(lp3279
I1095363701
asg35
VPT4M49.9470319S
p3280
sg232
I0
sg233
VP0DT0H0M9.3500S
p3281
sg39
(dp3282
g41
VnV Mikwen HCS
p3283
sg43
Nssa(dp3284
g38
I4096745987
sg32
VWeaponDrop
p3285
sg229
I21
sg44
(lp3286
I2758383128
asg35
VPT4M49.9535752S
p3287
sg232
I10
sg233
VP0DT0H0M26.6500S
p3288
sg39
(dp3289
g41
VnV Mikwen HCS
p3290
sg43
Nssa(dp3291
g38
I313138863
sg32
VWeaponDrop
p3292
sg229
I5
sg44
(lp3293
I1095363701
asg35
VPT4M53.9243529S
p3294
sg232
I0
sg233
VP0DT0H0M7.0167S
p3295
sg39
(dp3296
g41
VOG ACE HCS
p3297
sg43
Nssa(dp3298
g38
I2133511419
sg39
(dp3299
g41
VOG ACE HCS
p3300
sg43
Nssg44
(lp3301
I2758383128
asg32
VWeaponPickup
p3302
sg35
VPT4M53.9243529S
p3303
sa(dp3304
g185
I424645655
sg186
I00
sg187
I00
sg188
(dp3305
g41
VnV eL ToWn
p3306
sg43
Nssg191
(lp3307
I1327094800
asg193
I00
sg194
I01
sg195
I1
sg196
I0
sg197
I1
sg198
(dp3308
Vy
F8.4799480000000003
sVx
F17.448085800000001
sVz
F3.2009048500000001
ssg200
(dp3309
Vy
F-6.0181217199999999
sVx
F7.4873185199999996
sVz
F3.5900838400000001
ssg202
I00
sg203
(dp3310
g41
VOG Maniac HCS
p3311
sg43
Nssg206
(lp3312
sg208
(lp3313
(dp3314
g41
VnV RayneHCS
p3315
sg43
Nsasg212
I01
sg35
VPT4M56.7572929S
p3316
sg32
VDeath
p3317
sg215
I1
sa(dp3318
g32
VMedal
p3319
sg39
(dp3320
g41
VnV eL ToWn
p3321
sg43
Nssg220
I3261908037
sg35
VPT4M56.7592935S
p3322
sa(dp3323
g38
I313138863
sg32
VWeaponDrop
p3324
sg229
I26
sg44
(lp3325
I1095363701
asg35
VPT4M56.7602933S
p3326
sg232
I7
sg233
VP0DT0H0M17.7333S
p3327
sg39
(dp3328
g41
VOG Maniac HCS
p3329
sg43
Nssa(dp3330
g38
I4096745987
sg32
VWeaponDrop
p3331
sg229
I22
sg44
(lp3332
I2758383128
asg35
VPT4M56.7602933S
p3333
sg232
I11
sg233
VP0DT0H0M50.0167S
p3334
sg39
(dp3335
g41
VOG Maniac HCS
p3336
sg43
Nssa(dp3337
g38
I4096745987
sg32
VWeaponDrop
p3338
sg229
I0
sg44
(lp3339
I2758383128
asg35
VPT4M56.7602933S
p3340
sg232
I0
sg233
VP0DT0S
p3341
sg39
(dp3342
g41
VOG Maniac HCS
p3343
sg43
Nssa(dp3344
g38
I313138863
sg39
(dp3345
g41
VnV Mikwen HCS
p3346
sg43
Nssg44
(lp3347
I1095363701
asg32
VWeaponPickup
p3348
sg35
VPT4M58.0613438S
p3349
sa(dp3350
g38
I4096745987
sg39
(dp3351
g41
VnV Mikwen HCS
p3352
sg43
Nssg44
(lp3353
I2758383128
asg32
VWeaponPickup
p3354
sg35
VPT4M58.0613438S
p3355
sa(dp3356
g32
VPlayerSpawn
p3357
sg39
(dp3358
g41
VnV Mikwen HCS
p3359
sg43
Nssg35
VPT4M58.0613438S
p3360
sa(dp3361
g185
I4096745987
sg186
I00
sg187
I00
sg188
(dp3362
g41
VOG Str8 SickHCS
p3363
sg43
Nssg191
(lp3364
I2758383128
asg193
I00
sg194
I01
sg195
I1
sg196
I0
sg197
I1
sg198
(dp3365
Vy
F-4.8525743500000003
sVx
F16.467487299999998
sVz
F2.3582117600000001
ssg200
(dp3366
Vy
F-3.6383139999999998
sVx
F7.8590460000000002
sVz
F0.80007050000000002
ssg202
I00
sg203
(dp3367
g41
VnV RayneHCS
p3368
sg43
Nssg206
(lp3369
sg208
(lp3370
sg212
I01
sg35
VPT4M59.1263834S
p3371
sg32
VDeath
p3372
sg215
I1
sa(dp3373
g32
VMedal
p3374
sg39
(dp3375
g41
VOG Str8 SickHCS
p3376
sg43
Nssg220
I3261908037
sg35
VPT4M59.1350046S
p3377
sa(dp3378
g38
I313138863
sg32
VWeaponDrop
p3379
sg229
I35
sg44
(lp3380
I1095363701
asg35
VPT4M59.1353846S
p3381
sg232
I12
sg233
VP0DT0H0M10.1667S
p3382
sg39
(dp3383
g41
VnV RayneHCS
p3384
sg43
Nssa(dp3385
g38
I4096745987
sg32
VWeaponDrop
p3386
sg229
I17
sg44
(lp3387
I2758383128
asg35
VPT4M59.1353846S
p3388
sg232
I9
sg233
VP0DT0H0M27.1667S
p3389
sg39
(dp3390
g41
VnV RayneHCS
p3391
sg43
Nssa(dp3392
g185
I4096745987
sg186
I00
sg187
I00
sg188
(dp3393
g41
VnV Pistola HCS
p3394
sg43
Nssg191
(lp3395
I2758383128
asg193
I00
sg194
I01
sg195
I1
sg196
I0
sg197
I1
sg198
(dp3396
Vy
F-2.3813524199999998
sVx
F16.052762999999999
sVz
F0.90791129999999998
ssg200
(dp3397
Vy
F5.2788343400000004
sVx
F10.6044283
sVz
F0.66621983100000004
ssg202
I00
sg203
(dp3398
g41
VOG ACE HCS
p3399
sg43
Nssg206
(lp3400
sg208
(lp3401
sg212
I01
sg35
VPT5M1.5074756S
p3402
sg32
VDeath
p3403
sg215
I1
sa(dp3404
g32
VMedal
p3405
sg39
(dp3406
g41
VnV Pistola HCS
p3407
sg43
Nssg220
I2766284219
sg35
VPT5M1.5155793S
p3408
sa(dp3409
g38
I2133511419
sg32
VWeaponDrop
p3410
sg229
I24
sg44
(lp3411
I2758383128
asg35
VPT5M1.5157124S
p3412
sg232
I7
sg233
VP0DT0H0M5.0833S
p3413
sg39
(dp3414
g41
VOG ACE HCS
p3415
sg43
Nssa(dp3416
g38
I4096745987
sg32
VWeaponDrop
p3417
sg229
I30
sg44
(lp3418
I2758383128
asg35
VPT5M1.5157124S
p3419
sg232
I7
sg233
VP0DT0H0M39.0833S
p3420
sg39
(dp3421
g41
VOG ACE HCS
p3422
sg43
Nssa(dp3423
g38
I313138863
sg39
(dp3424
g41
VOG Maniac HCS
p3425
sg43
Nssg44
(lp3426
I1095363701
asg32
VWeaponPickup
p3427
sg35
VPT5M4.7776018S
p3428
sa(dp3429
g38
I4096745987
sg39
(dp3430
g41
VOG Maniac HCS
p3431
sg43
Nssg44
(lp3432
I2758383128
asg32
VWeaponPickup
p3433
sg35
VPT5M4.7776018S
p3434
sa(dp3435
g32
VPlayerSpawn
p3436
sg39
(dp3437
g41
VOG Maniac HCS
p3438
sg43
Nssg35
VPT5M4.7776018S
p3439
sa(dp3440
g32
VMedal
p3441
sg39
(dp3442
g41
VnV Pistola HCS
p3443
sg43
Nssg220
I3400287617
sg35
VPT5M5.4396263S
p3444
sa(dp3445
g38
I313138863
sg32
VWeaponDrop
p3446
sg229
I0
sg44
(lp3447
I1095363701
asg35
VPT5M6.3777S
p3448
sg232
I0
sg233
VP0DT0H0M1.2500S
p3449
sg39
(dp3450
g41
VOG Maniac HCS
p3451
sg43
Nssa(dp3452
g38
I723388907
sg39
(dp3453
g41
VOG Maniac HCS
p3454
sg43
Nssg44
(lp3455
I89283061
asg32
VWeaponPickup
p3456
sg35
VPT5M6.3777666S
p3457
sa(dp3458
g38
I313138863
sg39
(dp3459
g41
VnV RayneHCS
p3460
sg43
Nssg44
(lp3461
I1095363701
asg32
VWeaponPickup
p3462
sg35
VPT5M7.1436931S
p3463
sa(dp3464
g38
I4096745987
sg39
(dp3465
g41
VnV RayneHCS
p3466
sg43
Nssg44
(lp3467
I2758383128
asg32
VWeaponPickup
p3468
sg35
VPT5M7.1436931S
p3469
sa(dp3470
g32
VPlayerSpawn
p3471
sg39
(dp3472
g41
VnV RayneHCS
p3473
sg43
Nssg35
VPT5M7.1436931S
p3474
sa(dp3475
g38
I4096745987
sg32
VWeaponDrop
p3476
sg229
I0
sg44
(lp3477
I2758383128
asg35
VPT5M9.3047741S
p3478
sg232
I0
sg233
VP0DT0H0M2.7000S
p3479
sg39
(dp3480
g41
VOG Maniac HCS
p3481
sg43
Nssa(dp3482
g38
I424645655
sg39
(dp3483
g41
VOG Maniac HCS
p3484
sg43
Nssg44
(lp3485
I1327094800
asg32
VWeaponPickup
p3486
sg35
VPT5M9.3047741S
p3487
sa(dp3488
g185
I313138863
sg186
I00
sg187
I00
sg188
(dp3489
g41
VnV Mikwen HCS
p3490
sg43
Nssg191
(lp3491
I1095363701
asg193
I00
sg194
I01
sg195
I1
sg196
I0
sg197
I1
sg198
(dp3492
Vy
F-5.0873227099999996
sVx
F5.5519432999999996
sVz
F0.79999184599999995
ssg200
(dp3493
Vy
F-4.4138002399999996
sVx
F12.8678083
sVz
F2.35941863
ssg202
I00
sg203
(dp3494
g41
VOG APG HCS
p3495
sg43
Nssg206
(lp3496
sg208
(lp3497
(dp3498
g41
VnV eL ToWn
p3499
sg43
Nsa(dp3500
g41
VnV Pistola HCS
p3501
sg43
Nsasg212
I00
sg35
VPT5M9.3437767S
p3502
sg32
VDeath
p3503
sg215
I1
sa(dp3504
g32
VMedal
p3505
sg39
(dp3506
g41
VnV Mikwen HCS
p3507
sg43
Nssg220
I2838259753
sg35
VPT5M9.344777S
p3508
sa(dp3509
g32
VImpulse
p3510
sg39
(dp3511
g41
VnV Mikwen HCS
p3512
sg43
Nssg382
I2556889090
sg35
VPT5M9.344777S
p3513
sa(dp3514
g38
I313138863
sg32
VWeaponDrop
p3515
sg229
I18
sg44
(lp3516
I1095363701
asg35
VPT5M9.3521699S
p3517
sg232
I11
sg233
VP0DT0H0M7.2000S
p3518
sg39
(dp3519
g41
VOG APG HCS
p3520
sg43
Nssa(dp3521
g38
I4096745987
sg32
VWeaponDrop
p3522
sg229
I12
sg44
(lp3523
I2758383128
asg35
VPT5M9.3521699S
p3524
sg232
I5
sg233
VP0DT0H0M16.6000S
p3525
sg39
(dp3526
g41
VOG APG HCS
p3527
sg43
Nssa(dp3528
g185
I313138863
sg186
I00
sg187
I01
sg188
(dp3529
g41
VnV Pistola HCS
p3530
sg43
Nssg191
(lp3531
I1095363701
asg193
I00
sg194
I00
sg195
I1
sg196
I0
sg197
I1
sg198
(dp3532
Vy
F-5.4112324699999999
sVx
F23.3912315
sVz
F0.79926085499999999
ssg200
(dp3533
Vy
F-5.4086350000000003
sVx
F23.621244399999998
sVz
F0.79432930000000002
ssg202
I00
sg203
(dp3534
g41
VOG Str8 SickHCS
p3535
sg43
Nssg206
(lp3536
sg208
(lp3537
(dp3538
g41
VnV Mikwen HCS
p3539
sg43
Nsasg212
I00
sg35
VPT5M9.3521699S
p3540
sg32
VDeath
p3541
sg215
I1
sa(dp3542
g32
VMedal
p3543
sg39
(dp3544
g41
VnV Pistola HCS
p3545
sg43
Nssg220
I2287626681
sg35
VPT5M9.3527769S
p3546
sa(dp3547
g38
I669296699
sg32
VWeaponDrop
p3548
sg229
I3
sg44
(lp3549
I2758383128
asg35
VPT5M9.3537767S
p3550
sg232
I0
sg233
VP0DT0H0M16.5000S
p3551
sg39
(dp3552
g41
VOG Str8 SickHCS
p3553
sg43
Nssa(dp3554
g38
I4096745987
sg32
VWeaponDrop
p3555
sg229
I11
sg44
(lp3556
I2758383128
asg35
VPT5M9.3537767S
p3557
sg232
I6
sg233
VP0DT0H0M21.4833S
p3558
sg39
(dp3559
g41
VOG Str8 SickHCS
p3560
sg43
Nssa(dp3561
g185
I669296699
sg186
I00
sg187
I01
sg188
(dp3562
g41
VOG Str8 SickHCS
p3563
sg43
Nssg191
(lp3564
I2758383128
asg193
I00
sg194
I00
sg195
I1
sg196
I0
sg197
I1
sg198
(dp3565
Vy
F-5.4086350000000003
sVx
F23.621244399999998
sVz
F1.01932931
ssg200
(dp3566
Vy
F-5.4112324699999999
sVx
F23.3912315
sVz
F0.79926085499999999
ssg202
I00
sg203
(dp3567
g41
VnV Pistola HCS
p3568
sg43
Nssg206
(lp3569
sg208
(lp3570
(dp3571
g41
VOG APG HCS
p3572
sg43
Nsasg212
I00
sg35
VPT5M9.3537767S
p3573
sg32
VDeath
p3574
sg215
I1
sa(dp3575
g32
VMedal
p3576
sg39
(dp3577
g41
VOG Str8 SickHCS
p3578
sg43
Nssg220
I2287626681
sg35
VPT5M9.3547771S
p3579
sa(dp3580
g38
I313138863
sg32
VWeaponDrop
p3581
sg229
I33
sg44
(lp3582
I1095363701
asg35
VPT5M9.3617773S
p3583
sg232
I13
sg233
VP0DT0H0M9.9333S
p3584
sg39
(dp3585
g41
VnV Pistola HCS
p3586
sg43
Nssa(dp3587
g38
I313138863
sg32
VWeaponDrop
p3588
sg229
I0
sg44
(lp3589
I1095363701
asg35
VPT5M9.3617773S
p3590
sg232
I0
sg233
VP0DT0S
p3591
sg39
(dp3592
g41
VnV Pistola HCS
p3593
sg43
Nssa(dp3594
g38
I4096745987
sg32
VWeaponDrop
p3595
sg229
I2
sg44
(lp3596
I2758383128
asg35
VPT5M9.3617773S
p3597
sg232
I1
sg233
VP0DT0H0M9.5833S
p3598
sg39
(dp3599
g41
VnV Pistola HCS
p3600
sg43
Nssa(dp3601
g38
I313138863
sg39
(dp3602
g41
VOG ACE HCS
p3603
sg43
Nssg44
(lp3604
I1095363701
asg32
VWeaponPickup
p3605
sg35
VPT5M9.5267844S
p3606
sa(dp3607
g38
I4096745987
sg39
(dp3608
g41
VOG ACE HCS
p3609
sg43
Nssg44
(lp3610
I2758383128
asg32
VWeaponPickup
p3611
sg35
VPT5M9.5267844S
p3612
sa(dp3613
g32
VPlayerSpawn
p3614
sg39
(dp3615
g41
VOG ACE HCS
p3616
sg43
Nssg35
VPT5M9.5267844S
p3617
sa(dp3618
g38
I313138863
sg32
VWeaponDrop
p3619
sg229
I12
sg44
(lp3620
I1095363701
asg35
VPT5M15.043158S
p3621
sg232
I4
sg233
VP0DT0H0M5.7000S
p3622
sg39
(dp3623
g41
VnV Mikwen HCS
p3624
sg43
Nssa(dp3625
g38
I669296699
sg39
(dp3626
g41
VnV Mikwen HCS
p3627
sg43
Nssg44
(lp3628
I2758383128
asg32
VWeaponPickup
p3629
sg35
VPT5M15.043158S
p3630
sa(dp3631
g38
I313138863
sg39
(dp3632
g41
VOG APG HCS
p3633
sg43
Nssg44
(lp3634
I1095363701
asg32
VWeaponPickup
p3635
sg35
VPT5M17.3580846S
p3636
sa(dp3637
g38
I4096745987
sg39
(dp3638
g41
VOG APG HCS
p3639
sg43
Nssg44
(lp3640
I2758383128
asg32
VWeaponPickup
p3641
sg35
VPT5M17.3580846S
p3642
sa(dp3643
g32
VPlayerSpawn
p3644
sg39
(dp3645
g41
VOG APG HCS
p3646
sg43
Nssg35
VPT5M17.3580846S
p3647
sa(dp3648
g38
I313138863
sg39
(dp3649
g41
VOG Str8 SickHCS
p3650
sg43
Nssg44
(lp3651
I1095363701
asg32
VWeaponPickup
p3652
sg35
VPT5M17.3950858S
p3653
sa(dp3654
g38
I4096745987
sg39
(dp3655
g41
VOG Str8 SickHCS
p3656
sg43
Nssg44
(lp3657
I2758383128
asg32
VWeaponPickup
p3658
sg35
VPT5M17.3950858S
p3659
sa(dp3660
g32
VPlayerSpawn
p3661
sg39
(dp3662
g41
VOG Str8 SickHCS
p3663
sg43
Nssg35
VPT5M17.3950858S
p3664
sa(dp3665
g38
I313138863
sg39
(dp3666
g41
VnV Pistola HCS
p3667
sg43
Nssg44
(lp3668
I1095363701
asg32
VWeaponPickup
p3669
sg35
VPT5M17.4292706S
p3670
sa(dp3671
g38
I4096745987
sg39
(dp3672
g41
VnV Pistola HCS
p3673
sg43
Nssg44
(lp3674
I2758383128
asg32
VWeaponPickup
p3675
sg35
VPT5M17.4295953S
p3676
sa(dp3677
g32
VPlayerSpawn
p3678
sg39
(dp3679
g41
VnV Pistola HCS
p3680
sg43
Nssg35
VPT5M17.4295953S
p3681
sa(dp3682
g38
I313138863
sg32
VWeaponDrop
p3683
sg229
I0
sg44
(lp3684
I1095363701
asg35
VPT5M19.0429748S
p3685
sg232
I0
sg233
VP0DT0H0M0.9000S
p3686
sg39
(dp3687
g41
VOG Str8 SickHCS
p3688
sg43
Nssa(dp3689
g38
I524558978
sg39
(dp3690
g41
VOG Str8 SickHCS
p3691
sg43
Nssg44
(lp3692
I2758383128
asg32
VWeaponPickup
p3693
sg35
VPT5M19.0431479S
p3694
sa(dp3695
g38
I313138863
sg32
VWeaponDrop
p3696
sg229
I0
sg44
(lp3697
I1095363701
asg35
VPT5M20.7935567S
p3698
sg232
I0
sg233
VP0DT0H0M1.5333S
p3699
sg39
(dp3700
g41
VOG APG HCS
p3701
sg43
Nssa(dp3702
g38
I723388907
sg39
(dp3703
g41
VOG APG HCS
p3704
sg43
Nssg44
(lp3705
I89283061
asg32
VWeaponPickup
p3706
sg35
VPT5M20.7936237S
p3707
sa(dp3708
g185
I424645655
sg186
I00
sg187
I00
sg188
(dp3709
g41
VnV eL ToWn
p3710
sg43
Nssg191
(lp3711
I1327094800
asg193
I00
sg194
I01
sg195
I1
sg196
I0
sg197
I1
sg198
(dp3712
Vy
F5.6389180000000003
sVx
F8.2186149999999998
sVz
F3.20066571
ssg200
(dp3713
Vy
F12.149911899999999
sVx
F3.6602049999999999
sVz
F3.3635094200000002
ssg202
I00
sg203
(dp3714
g41
VOG ACE HCS
p3715
sg43
Nssg206
(lp3716
sg208
(lp3717
(dp3718
g41
VnV RayneHCS
p3719
sg43
Nsasg212
I00
sg35
VPT5M21.5112438S
p3720
sg32
VDeath
p3721
sg215
I1
sa(dp3722
g32
VMedal
p3723
sg39
(dp3724
g41
VnV eL ToWn
p3725
sg43
Nssg220
I2838259753
sg35
VPT5M21.5112438S
p3726
sa(dp3727
g32
VImpulse
p3728
sg39
(dp3729
g41
VnV eL ToWn
p3730
sg43
Nssg382
I2556889090
sg35
VPT5M21.5112438S
p3731
sa(dp3732
g38
I313138863
sg32
VWeaponDrop
p3733
sg229
I10
sg44
(lp3734
I1095363701
asg35
VPT5M21.5132435S
p3735
sg232
I8
sg233
VP0DT0H0M3.8000S
p3736
sg39
(dp3737
g41
VOG ACE HCS
p3738
sg43
Nssa(dp3739
g38
I4096745987
sg32
VWeaponDrop
p3740
sg229
I0
sg44
(lp3741
I2758383128
asg35
VPT5M21.5132435S
p3742
sg232
I0
sg233
VP0DT0H0M8.1833S
p3743
sg39
(dp3744
g41
VOG ACE HCS
p3745
sg43
Nssa(dp3746
g38
I4096745987
sg32
VWeaponDrop
p3747
sg229
I0
sg44
(lp3748
I2758383128
asg35
VPT5M24.2441687S
p3749
sg232
I0
sg233
VP0DT0H0M6.0833S
p3750
sg39
(dp3751
g41
VnV Pistola HCS
p3752
sg43
Nssa(dp3753
g38
I424645655
sg39
(dp3754
g41
VnV Pistola HCS
p3755
sg43
Nssg44
(lp3756
I1327094800
asg32
VWeaponPickup
p3757
sg35
VPT5M24.2443482S
p3758
sa(dp3759
g38
I313138863
sg39
(dp3760
g41
VOG ACE HCS
p3761
sg43
Nssg44
(lp3762
I1095363701
asg32
VWeaponPickup
p3763
sg35
VPT5M29.5285521S
p3764
sa(dp3765
g38
I4096745987
sg39
(dp3766
g41
VOG ACE HCS
p3767
sg43
Nssg44
(lp3768
I2758383128
asg32
VWeaponPickup
p3769
sg35
VPT5M29.5285521S
p3770
sa(dp3771
g32
VPlayerSpawn
p3772
sg39
(dp3773
g41
VOG ACE HCS
p3774
sg43
Nssg35
VPT5M29.5285521S
p3775
sa(dp3776
g185
I4096745987
sg186
I00
sg187
I00
sg188
(dp3777
g41
VnV RayneHCS
p3778
sg43
Nssg191
(lp3779
I2758383128
asg193
I00
sg194
I00
sg195
I2
sg196
I0
sg197
I0
sg198
(dp3780
Vy
F6.8584569999999996
sVx
F12.6241474
sVz
F5.2350435299999996
ssg200
(dp3781
Vy
F9.3494270000000004
sVx
F12.289108300000001
sVz
F5.504264
ssg202
I00
sg203
(dp3782
g307
g308
ssg206
(lp3783
sg208
(lp3784
sg212
I00
sg35
VPT5M30.7295977S
p3785
sg32
VDeath
p3786
sg215
I1
sa(dp3787
g38
I4096745987
sg32
VWeaponDrop
p3788
sg229
I0
sg44
(lp3789
I2758383128
asg35
VPT5M33.7727145S
p3790
sg232
I0
sg233
VP0DT0H0M3.6500S
p3791
sg39
(dp3792
g41
VOG ACE HCS
p3793
sg43
Nssa(dp3794
g38
I424645655
sg39
(dp3795
g41
VOG ACE HCS
p3796
sg43
Nssg44
(lp3797
I1327094800
asg32
VWeaponPickup
p3798
sg35
VPT5M33.7727145S
p3799
sa(dp3800
g185
I424645655
sg186
I00
sg187
I00
sg188
(dp3801
g41
VnV Pistola HCS
p3802
sg43
Nssg191
(lp3803
I1327094800
asg193
I00
sg194
I01
sg195
I1
sg196
I0
sg197
I1
sg198
(dp3804
Vy
F-5.0192632699999997
sVx
F7.7979859999999999
sVz
F1.7099982499999999
ssg200
(dp3805
Vy
F-2.6127166700000002
sVx
F6.175573
sVz
F1.57383955
ssg202
I00
sg203
(dp3806
g41
VOG ACE HCS
p3807
sg43
Nssg206
(lp3808
sg208
(lp3809
(dp3810
g41
VnV eL ToWn
p3811
sg43
Nsasg212
I01
sg35
VPT5M46.9286308S
p3812
sg32
VDeath
p3813
sg215
I1
sa(dp3814
g32
VMedal
p3815
sg39
(dp3816
g41
VnV Pistola HCS
p3817
sg43
Nssg220
I3261908037
sg35
VPT5M46.9301829S
p3818
sa(dp3819
g38
I313138863
sg32
VWeaponDrop
p3820
sg229
I0
sg44
(lp3821
I1095363701
asg35
VPT5M46.9301829S
p3822
sg232
I0
sg233
VP0DT0H0M0.4667S
p3823
sg39
(dp3824
g41
VOG ACE HCS
p3825
sg43
Nssa(dp3826
g38
I424645655
sg32
VWeaponDrop
p3827
sg229
I15
sg44
(lp3828
I1327094800
asg35
VPT5M46.9301829S
p3829
sg232
I7
sg233
VP0DT0H0M13.1667S
p3830
sg39
(dp3831
g41
VOG ACE HCS
p3832
sg43
Nssa(dp3833
g185
I4096745987
sg186
I00
sg187
I00
sg188
(dp3834
g41
VOG APG HCS
p3835
sg43
Nssg191
(lp3836
I2758383128
asg193
I00
sg194
I01
sg195
I1
sg196
I0
sg197
I1
sg198
(dp3837
Vy
F-10.967651399999999
sVx
F-0.092875644600000001
sVz
F3.2013902700000001
ssg200
(dp3838
Vy
F-7.9186682700000004
sVx
F4.0320453599999997
sVz
F3.8022689999999999
ssg202
I00
sg203
(dp3839
g41
VnV Mikwen HCS
p3840
sg43
Nssg206
(lp3841
sg208
(lp3842
sg212
I01
sg35
VPT5M47.4581999S
p3843
sg32
VDeath
p3844
sg215
I1
sa(dp3845
g32
VMedal
p3846
sg39
(dp3847
g41
VOG APG HCS
p3848
sg43
Nssg220
I3261908037
sg35
VPT5M47.4667083S
p3849
sa(dp3850
g38
I669296699
sg32
VWeaponDrop
p3851
sg229
I2
sg44
(lp3852
I2758383128
asg35
VPT5M47.4673231S
p3853
sg232
I0
sg233
VP0DT0H0M27.8833S
p3854
sg39
(dp3855
g41
VnV Mikwen HCS
p3856
sg43
Nssa(dp3857
g38
I4096745987
sg32
VWeaponDrop
p3858
sg229
I10
sg44
(lp3859
I2758383128
asg35
VPT5M47.4673231S
p3860
sg232
I5
sg233
VP0DT0H0M15.7000S
p3861
sg39
(dp3862
g41
VnV Mikwen HCS
p3863
sg43
Nssa(dp3864
g185
I4096745987
sg186
I00
sg187
I00
sg188
(dp3865
g41
VOG Str8 SickHCS
p3866
sg43
Nssg191
(lp3867
I2758383128
asg193
I00
sg194
I01
sg195
I1
sg196
I0
sg197
I1
sg198
(dp3868
Vy
F8.3749179999999992
sVx
F9.3121290000000005
sVz
F0.8690464
ssg200
(dp3869
Vy
F3.5734393600000001
sVx
F8.5305
sVz
F0.59650389999999998
ssg202
I00
sg203
(dp3870
g41
VnV eL ToWn
p3871
sg43
Nssg206
(lp3872
sg208
(lp3873
sg212
I01
sg35
VPT5M53.0913802S
p3874
sg32
VDeath
p3875
sg215
I1
sa(dp3876
g32
VMedal
p3877
sg39
(dp3878
g41
VOG Str8 SickHCS
p3879
sg43
Nssg220
I3261908037
sg35
VPT5M53.0933799S
p3880
sa(dp3881
g38
I424645655
sg32
VWeaponDrop
p3882
sg229
I101
sg44
(lp3883
I1327094800
asg35
VPT5M53.0933799S
p3884
sg232
I34
sg233
VP0DT0H1M43.0333S
p3885
sg39
(dp3886
g41
VnV eL ToWn
p3887
sg43
Nssa(dp3888
g38
I723388907
sg32
VWeaponDrop
p3889
sg229
I0
sg44
(lp3890
I89283061
asg35
VPT5M53.0943809S
p3891
sg232
I0
sg233
VP0DT0H0M5.9500S
p3892
sg39
(dp3893
g41
VnV eL ToWn
p3894
sg43
Nssa(dp3895
g38
I313138863
sg39
(dp3896
g41
VOG ACE HCS
p3897
sg43
Nssg44
(lp3898
I1095363701
asg32
VWeaponPickup
p3899
sg35
VPT5M54.9404401S
p3900
sa(dp3901
g38
I4096745987
sg39
(dp3902
g41
VOG ACE HCS
p3903
sg43
Nssg44
(lp3904
I2758383128
asg32
VWeaponPickup
p3905
sg35
VPT5M54.94144S
p3906
sa(dp3907
g32
VPlayerSpawn
p3908
sg39
(dp3909
g41
VOG ACE HCS
p3910
sg43
Nssg35
VPT5M54.94144S
p3911
sa(dp3912
g38
I313138863
sg39
(dp3913
g41
VnV Mikwen HCS
p3914
sg43
Nssg44
(lp3915
I1095363701
asg32
VWeaponPickup
p3916
sg35
VPT5M55.4754566S
p3917
sa(dp3918
g38
I4096745987
sg39
(dp3919
g41
VnV Mikwen HCS
p3920
sg43
Nssg44
(lp3921
I2758383128
asg32
VWeaponPickup
p3922
sg35
VPT5M55.4764578S
p3923
sa(dp3924
g32
VPlayerSpawn
p3925
sg39
(dp3926
g41
VnV Mikwen HCS
p3927
sg43
Nssg35
VPT5M55.4764578S
p3928
sa(dp3929
g38
I313138863
sg32
VWeaponDrop
p3930
sg229
I0
sg44
(lp3931
I1095363701
asg35
VPT5M56.8044981S
p3932
sg232
I0
sg233
VP0DT0H0M0.9167S
p3933
sg39
(dp3934
g41
VOG ACE HCS
p3935
sg43
Nssa(dp3936
g38
I723388907
sg39
(dp3937
g41
VOG ACE HCS
p3938
sg43
Nssg44
(lp3939
I89283061
asg32
VWeaponPickup
p3940
sg35
VPT5M56.8044981S
p3941
sa(dp3942
g38
I313138863
sg39
(dp3943
g41
VnV eL ToWn
p3944
sg43
Nssg44
(lp3945
I1095363701
asg32
VWeaponPickup
p3946
sg35
VPT6M1.1116626S
p3947
sa(dp3948
g38
I4096745987
sg39
(dp3949
g41
VnV eL ToWn
p3950
sg43
Nssg44
(lp3951
I2758383128
asg32
VWeaponPickup
p3952
sg35
VPT6M1.1116626S
p3953
sa(dp3954
g32
VPlayerSpawn
p3955
sg39
(dp3956
g41
VnV eL ToWn
p3957
sg43
Nssg35
VPT6M1.1116626S
p3958
sa(dp3959
g185
I4106030681
sg186
I00
sg187
I00
sg188
(dp3960
g41
VnV Mikwen HCS
p3961
sg43
Nssg191
(lp3962
sg193
I00
sg194
I01
sg195
I1
sg196
I0
sg197
I1
sg198
(dp3963
Vy
F-8.6997560000000007
sVx
F15.290795299999999
sVz
F3.1288399999999998
ssg200
(dp3964
Vy
F4.1933035900000002
sVx
F14.297193500000001
sVz
F-0.0059000550000000004
ssg202
I00
sg203
(dp3965
g41
VOG Str8 SickHCS
p3966
sg43
Nssg206
(lp3967
sg208
(lp3968
sg212
I00
sg35
VPT6M1.1189053S
p3969
sg32
VDeath
p3970
sg215
I1
sa(dp3971
g38
I524558978
sg32
VWeaponDrop
p3972
sg229
I1
sg44
(lp3973
I2758383128
asg35
VPT6M1.1206667S
p3974
sg232
I0
sg233
VP0DT0H0M36.4333S
p3975
sg39
(dp3976
g41
VOG Str8 SickHCS
p3977
sg43
Nssa(dp3978
g38
I4096745987
sg32
VWeaponDrop
p3979
sg229
I3
sg44
(lp3980
I2758383128
asg35
VPT6M1.1206667S
p3981
sg232
I2
sg233
VP0DT0H0M6.2667S
p3982
sg39
(dp3983
g41
VOG Str8 SickHCS
p3984
sg43
Nssa(dp3985
g185
I723388907
sg186
I00
sg187
I00
sg188
(dp3986
g41
VOG APG HCS
p3987
sg43
Nssg191
(lp3988
I89283061
asg193
I00
sg194
I01
sg195
I1
sg196
I0
sg197
I1
sg198
(dp3989
Vy
F-6.6061880000000004
sVx
F16.166027100000001
sVz
F2.5223231300000002
ssg200
(dp3990
Vy
F-9.9474020000000003
sVx
F15.0423679
sVz
F3.198207
ssg202
I00
sg203
(dp3991
g41
VnV Mikwen HCS
p3992
sg43
Nssg206
(lp3993
sg208
(lp3994
sg212
I00
sg35
VPT6M1.5966805S
p3995
sg32
VDeath
p3996
sg215
I1
sa(dp3997
g38
I313138863
sg32
VWeaponDrop
p3998
sg229
I0
sg44
(lp3999
I1095363701
asg35
VPT6M1.5986809S
p4000
sg232
I0
sg233
VP0DT0H0M0.6667S
p4001
sg39
(dp4002
g41
VnV Mikwen HCS
p4003
sg43
Nssa(dp4004
g38
I4096745987
sg32
VWeaponDrop
p4005
sg229
I6
sg44
(lp4006
I2758383128
asg35
VPT6M1.5986809S
p4007
sg232
I6
sg233
VP0DT0H0M5.4500S
p4008
sg39
(dp4009
g41
VnV Mikwen HCS
p4010
sg43
Nssa(dp4011
g185
I4096745987
sg186
I00
sg187
I00
sg188
(dp4012
g41
VnV RayneHCS
p4013
sg43
Nssg191
(lp4014
I2758383128
asg193
I00
sg194
I01
sg195
I1
sg196
I0
sg197
I1
sg198
(dp4015
Vy
F0.92197370000000001
sVx
F15.6549149
sVz
F1.52207029
ssg200
(dp4016
Vy
F-11.6373053
sVx
F15.305309299999999
sVz
F3.2320537599999999
ssg202
I00
sg203
(dp4017
g41
VOG APG HCS
p4018
sg43
Nssg206
(lp4019
sg208
(lp4020
(dp4021
g41
VnV Mikwen HCS
p4022
sg43
Nsasg212
I01
sg35
VPT6M3.7597638S
p4023
sg32
VDeath
p4024
sg215
I1
sa(dp4025
g32
VMedal
p4026
sg39
(dp4027
g41
VnV RayneHCS
p4028
sg43
Nssg220
I3261908037
sg35
VPT6M3.7668227S
p4029
sa(dp4030
g38
I723388907
sg32
VWeaponDrop
p4031
sg229
I27
sg44
(lp4032
I89283061
asg35
VPT6M3.7669557S
p4033
sg232
I15
sg233
VP0DT0H0M21.0167S
p4034
sg39
(dp4035
g41
VOG APG HCS
p4036
sg43
Nssa(dp4037
g38
I4096745987
sg32
VWeaponDrop
p4038
sg229
I14
sg44
(lp4039
I2758383128
asg35
VPT6M3.7669557S
p4040
sg232
I10
sg233
VP0DT0H0M23.7333S
p4041
sg39
(dp4042
g41
VOG APG HCS
p4043
sg43
Nssa(dp4044
g38
I313138863
sg39
(dp4045
g41
VOG Str8 SickHCS
p4046
sg43
Nssg44
(lp4047
I1095363701
asg32
VWeaponPickup
p4048
sg35
VPT6M9.1279704S
p4049
sa(dp4050
g38
I4096745987
sg39
(dp4051
g41
VOG Str8 SickHCS
p4052
sg43
Nssg44
(lp4053
I2758383128
asg32
VWeaponPickup
p4054
sg35
VPT6M9.1279704S
p4055
sa(dp4056
g32
VPlayerSpawn
p4057
sg39
(dp4058
g41
VOG Str8 SickHCS
p4059
sg43
Nssg35
VPT6M9.1289702S
p4060
sa(dp4061
g38
I313138863
sg39
(dp4062
g41
VnV Mikwen HCS
p4063
sg43
Nssg44
(lp4064
I1095363701
asg32
VWeaponPickup
p4065
sg35
VPT6M9.6099888S
p4066
sa(dp4067
g38
I4096745987
sg39
(dp4068
g41
VnV Mikwen HCS
p4069
sg43
Nssg44
(lp4070
I2758383128
asg32
VWeaponPickup
p4071
sg35
VPT6M9.6109889S
p4072
sa(dp4073
g32
VPlayerSpawn
p4074
sg39
(dp4075
g41
VnV Mikwen HCS
p4076
sg43
Nssg35
VPT6M9.6109889S
p4077
sa(dp4078
g38
I313138863
sg32
VWeaponDrop
p4079
sg229
I0
sg44
(lp4080
I1095363701
asg35
VPT6M11.2575462S
p4081
sg232
I0
sg233
VP0DT0H0M0.7833S
p4082
sg39
(dp4083
g41
VnV Mikwen HCS
p4084
sg43
Nssa(dp4085
g38
I723388907
sg39
(dp4086
g41
VnV Mikwen HCS
p4087
sg43
Nssg44
(lp4088
I89283061
asg32
VWeaponPickup
p4089
sg35
VPT6M11.2575462S
p4090
sa(dp4091
g38
I313138863
sg39
(dp4092
g41
VOG APG HCS
p4093
sg43
Nssg44
(lp4094
I1095363701
asg32
VWeaponPickup
p4095
sg35
VPT6M11.7740725S
p4096
sa(dp4097
g38
I4096745987
sg39
(dp4098
g41
VOG APG HCS
p4099
sg43
Nssg44
(lp4100
I2758383128
asg32
VWeaponPickup
p4101
sg35
VPT6M11.7740725S
p4102
sa(dp4103
g32
VPlayerSpawn
p4104
sg39
(dp4105
g41
VOG APG HCS
p4106
sg43
Nssg35
VPT6M11.7740725S
p4107
sa(dp4108
g185
I424645655
sg186
I00
sg187
I00
sg188
(dp4109
g41
VnV Pistola HCS
p4110
sg43
Nssg191
(lp4111
I1327094800
asg193
I00
sg194
I01
sg195
I1
sg196
I0
sg197
I1
sg198
(dp4112
Vy
F-5.7637369999999999
sVx
F6.7335320000000003
sVz
F3.19718575
ssg200
(dp4113
Vy
F-1.99330378
sVx
F3.00084281
sVz
F0.26284229999999997
ssg202
I00
sg203
(dp4114
g41
VOG ACE HCS
p4115
sg43
Nssg206
(lp4116
sg208
(lp4117
(dp4118
g41
VnV eL ToWn
p4119
sg43
Nsasg212
I01
sg35
VPT6M14.5611702S
p4120
sg32
VDeath
p4121
sg215
I1
sa(dp4122
g32
VMedal
p4123
sg39
(dp4124
g41
VnV Pistola HCS
p4125
sg43
Nssg220
I2838259753
sg35
VPT6M14.5611702S
p4126
sa(dp4127
g32
VImpulse
p4128
sg39
(dp4129
g41
VnV Pistola HCS
p4130
sg43
Nssg382
I2556889090
sg35
VPT6M14.5611702S
p4131
sa(dp4132
g32
VMedal
p4133
sg39
(dp4134
g41
VnV Pistola HCS
p4135
sg43
Nssg220
I3261908037
sg35
VPT6M14.5621701S
p4136
sa(dp4137
g38
I723388907
sg32
VWeaponDrop
p4138
sg229
I23
sg44
(lp4139
I89283061
asg35
VPT6M14.5691701S
p4140
sg232
I9
sg233
VP0DT0H0M5.2667S
p4141
sg39
(dp4142
g41
VOG ACE HCS
p4143
sg43
Nssa(dp4144
g38
I4096745987
sg32
VWeaponDrop
p4145
sg229
I1
sg44
(lp4146
I2758383128
asg35
VPT6M14.5701704S
p4147
sg232
I0
sg233
VP0DT0H0M13.4333S
p4148
sg39
(dp4149
g41
VOG ACE HCS
p4150
sg43
Nssa(dp4151
g38
I4096745987
sg32
VWeaponDrop
p4152
sg229
I0
sg44
(lp4153
I2758383128
asg35
VPT6M16.0092154S
p4154
sg232
I0
sg233
VP0DT0H0M5.1833S
p4155
sg39
(dp4156
g41
VnV Mikwen HCS
p4157
sg43
Nssa(dp4158
g38
I424645655
sg39
(dp4159
g41
VnV Mikwen HCS
p4160
sg43
Nssg44
(lp4161
I1327094800
asg32
VWeaponPickup
p4162
sg35
VPT6M16.0092154S
p4163
sa(dp4164
g38
I313138863
sg32
VWeaponDrop
p4165
sg229
I0
sg44
(lp4166
I1095363701
asg35
VPT6M19.8253367S
p4167
sg232
I0
sg233
VP0DT0H0M1.4833S
p4168
sg39
(dp4169
g41
VnV Pistola HCS
p4170
sg43
Nssa(dp4171
g38
I723388907
sg39
(dp4172
g41
VnV Pistola HCS
p4173
sg43
Nssg44
(lp4174
I89283061
asg32
VWeaponPickup
p4175
sg35
VPT6M19.8253367S
p4176
sa(dp4177
g185
I424645655
sg186
I00
sg187
I00
sg188
(dp4178
g41
VOG Maniac HCS
p4179
sg43
Nssg191
(lp4180
I1327094800
asg193
I00
sg194
I01
sg195
I1
sg196
I0
sg197
I1
sg198
(dp4181
Vy
F10.2462368
sVx
F10.4534349
sVz
F3.1995623100000001
ssg200
(dp4182
Vy
F12.1982079
sVx
F20.561285000000002
sVz
F2.7282489999999999
ssg202
I00
sg203
(dp4183
g41
VnV RayneHCS
p4184
sg43
Nssg206
(lp4185
sg208
(lp4186
(dp4187
g41
VOG Str8 SickHCS
p4188
sg43
Nsasg212
I01
sg35
VPT6M21.910405S
p4189
sg32
VDeath
p4190
sg215
I1
sa(dp4191
g32
VMedal
p4192
sg39
(dp4193
g41
VOG Maniac HCS
p4194
sg43
Nssg220
I2838259753
sg35
VPT6M21.910405S
p4195
sa(dp4196
g32
VImpulse
p4197
sg39
(dp4198
g41
VOG Maniac HCS
p4199
sg43
Nssg382
I2556889090
sg35
VPT6M21.910405S
p4200
sa(dp4201
g32
VMedal
p4202
sg39
(dp4203
g41
VOG Str8 SickHCS
p4204
sg43
Nssg220
I824733727
sg35
VPT6M21.9114058S
p4205
sa(dp4206
g32
VMedal
p4207
sg39
(dp4208
g41
VOG Maniac HCS
p4209
sg43
Nssg220
I3261908037
sg35
VPT6M21.919406S
p4210
sa(dp4211
g38
I313138863
sg32
VWeaponDrop
p4212
sg229
I16
sg44
(lp4213
I1095363701
asg35
VPT6M21.9204058S
p4214
sg232
I9
sg233
VP0DT0H0M16.0333S
p4215
sg39
(dp4216
g41
VnV RayneHCS
p4217
sg43
Nssa(dp4218
g38
I4096745987
sg32
VWeaponDrop
p4219
sg229
I15
sg44
(lp4220
I2758383128
asg35
VPT6M21.9204058S
p4221
sg232
I6
sg233
VP0DT0H0M58.6167S
p4222
sg39
(dp4223
g41
VnV RayneHCS
p4224
sg43
Nssa(dp4225
g38
I313138863
sg39
(dp4226
g41
VOG ACE HCS
p4227
sg43
Nssg44
(lp4228
I1095363701
asg32
VWeaponPickup
p4229
sg35
VPT6M22.5744263S
p4230
sa(dp4231
g38
I4096745987
sg39
(dp4232
g41
VOG ACE HCS
p4233
sg43
Nssg44
(lp4234
I2758383128
asg32
VWeaponPickup
p4235
sg35
VPT6M22.5744263S
p4236
sa(dp4237
g32
VPlayerSpawn
p4238
sg39
(dp4239
g41
VOG ACE HCS
p4240
sg43
Nssg35
VPT6M22.5754273S
p4241
sa(dp4242
g185
I424645655
sg186
I00
sg187
I00
sg188
(dp4243
g41
VnV Pistola HCS
p4244
sg43
Nssg191
(lp4245
I1327094800
asg193
I00
sg194
I01
sg195
I1
sg196
I0
sg197
I1
sg198
(dp4246
Vy
F6.5565509999999998
sVx
F-2.6596393599999999
sVz
F3.8348412500000002
ssg200
(dp4247
Vy
F10.519535100000001
sVx
F9.2001670000000004
sVz
F3.1995623100000001
ssg202
I00
sg203
(dp4248
g41
VOG Str8 SickHCS
p4249
sg43
Nssg206
(lp4250
sg208
(lp4251
(dp4252
g41
VnV Mikwen HCS
p4253
sg43
Nsa(dp4254
g41
VnV RayneHCS
p4255
sg43
Nsasg212
I01
sg35
VPT6M23.4784554S
p4256
sg32
VDeath
p4257
sg215
I1
sa(dp4258
g32
VMedal
p4259
sg39
(dp4260
g41
VnV Pistola HCS
p4261
sg43
Nssg220
I3261908037
sg35
VPT6M23.4864539S
p4262
sa(dp4263
g38
I313138863
sg32
VWeaponDrop
p4264
sg229
I0
sg44
(lp4265
I1095363701
asg35
VPT6M23.4874558S
p4266
sg232
I0
sg233
VP0DT0H0M1.0333S
p4267
sg39
(dp4268
g41
VOG Str8 SickHCS
p4269
sg43
Nssa(dp4270
g38
I4096745987
sg32
VWeaponDrop
p4271
sg229
I4
sg44
(lp4272
I2758383128
asg35
VPT6M23.4874558S
p4273
sg232
I1
sg233
VP0DT0H0M13.3167S
p4274
sg39
(dp4275
g41
VOG Str8 SickHCS
p4276
sg43
Nssa(dp4277
g38
I313138863
sg32
VWeaponDrop
p4278
sg229
I0
sg44
(lp4279
I1095363701
asg35
VPT6M24.4044842S
p4280
sg232
I0
sg233
VP0DT0H0M1.2833S
p4281
sg39
(dp4282
g41
VOG ACE HCS
p4283
sg43
Nssa(dp4284
g38
I723388907
sg39
(dp4285
g41
VOG ACE HCS
p4286
sg43
Nssg44
(lp4287
I89283061
asg32
VWeaponPickup
p4288
sg35
VPT6M24.4044842S
p4289
sa(dp4290
g185
I424645655
sg186
I00
sg187
I00
sg188
(dp4291
g41
VnV Pistola HCS
p4292
sg43
Nssg191
(lp4293
I1327094800
asg193
I00
sg194
I01
sg195
I1
sg196
I0
sg197
I1
sg198
(dp4294
Vy
F9.8263444900000003
sVx
F0.43674429999999997
sVz
F3.4789235600000001
ssg200
(dp4295
Vy
F10.6143131
sVx
F11.0886984
sVz
F3.9277277000000002
ssg202
I00
sg203
(dp4296
g41
VOG Maniac HCS
p4297
sg43
Nssg206
(lp4298
sg208
(lp4299
(dp4300
g41
VnV Mikwen HCS
p4301
sg43
Nsasg212
I00
sg35
VPT6M25.3905162S
p4302
sg32
VDeath
p4303
sg215
I1
sa(dp4304
g32
VMedal
p4305
sg39
(dp4306
g41
VnV Pistola HCS
p4307
sg43
Nssg220
I2078758684
sg35
VPT6M25.3925623S
p4308
sa(dp4309
g38
I723388907
sg32
VWeaponDrop
p4310
sg229
I0
sg44
(lp4311
I89283061
asg35
VPT6M25.3995886S
p4312
sg232
I0
sg233
VP0DT0H0M0.5833S
p4313
sg39
(dp4314
g41
VOG Maniac HCS
p4315
sg43
Nssa(dp4316
g38
I424645655
sg32
VWeaponDrop
p4317
sg229
I66
sg44
(lp4318
I1327094800
asg35
VPT6M25.3995886S
p4319
sg232
I21
sg233
VP0DT0H1M15.9667S
p4320
sg39
(dp4321
g41
VOG Maniac HCS
p4322
sg43
Nssa(dp4323
g185
I4096745987
sg186
I00
sg187
I00
sg188
(dp4324
g41
VOG APG HCS
p4325
sg43
Nssg191
(lp4326
I2758383128
asg193
I00
sg194
I01
sg195
I1
sg196
I0
sg197
I1
sg198
(dp4327
Vy
F3.4573683700000002
sVx
F14.897960700000001
sVz
F2.5656132700000001
ssg200
(dp4328
Vy
F10.58268
sVx
F17.1589432
sVz
F3.1995618299999999
ssg202
I00
sg203
(dp4329
g41
VnV Mikwen HCS
p4330
sg43
Nssg206
(lp4331
sg208
(lp4332
(dp4333
g41
VOG Str8 SickHCS
p4334
sg43
Nsa(dp4335
g41
VOG Maniac HCS
p4336
sg43
Nsasg212
I01
sg35
VPT6M26.592555S
p4337
sg32
VDeath
p4338
sg215
I1
sa(dp4339
g32
VMedal
p4340
sg39
(dp4341
g41
VOG APG HCS
p4342
sg43
Nssg220
I3261908037
sg35
VPT6M26.5945549S
p4343
sa(dp4344
g38
I723388907
sg32
VWeaponDrop
p4345
sg229
I30
sg44
(lp4346
I89283061
asg35
VPT6M26.5945549S
p4347
sg232
I11
sg233
VP0DT0H0M5.5500S
p4348
sg39
(dp4349
g41
VnV Mikwen HCS
p4350
sg43
Nssa(dp4351
g38
I424645655
sg32
VWeaponDrop
p4352
sg229
I9
sg44
(lp4353
I1327094800
asg35
VPT6M26.5945549S
p4354
sg232
I3
sg233
VP0DT0H0M5.4667S
p4355
sg39
(dp4356
g41
VnV Mikwen HCS
p4357
sg43
Nssa(dp4358
g38
I313138863
sg39
(dp4359
g41
VnV RayneHCS
p4360
sg43
Nssg44
(lp4361
I1095363701
asg32
VWeaponPickup
p4362
sg35
VPT6M29.9236623S
p4363
sa(dp4364
g38
I4096745987
sg39
(dp4365
g41
VnV RayneHCS
p4366
sg43
Nssg44
(lp4367
I2758383128
asg32
VWeaponPickup
p4368
sg35
VPT6M29.9236623S
p4369
sa(dp4370
g32
VPlayerSpawn
p4371
sg39
(dp4372
g41
VnV RayneHCS
p4373
sg43
Nssg35
VPT6M29.9236623S
p4374
sa(dp4375
g185
I723388907
sg186
I00
sg187
I01
sg188
(dp4376
g41
VOG ACE HCS
p4377
sg43
Nssg191
(lp4378
I89283061
asg193
I00
sg194
I00
sg195
I1
sg196
I0
sg197
I1
sg198
(dp4379
Vy
F9.8616050000000008
sVx
F5.6767770000000004
sVz
F3.2404470000000001
ssg200
(dp4380
Vy
F9.7980029999999996
sVx
F6.0918483700000001
sVz
F3.3594188699999998
ssg202
I00
sg203
(dp4381
g41
VnV Pistola HCS
p4382
sg43
Nssg206
(lp4383
sg208
(lp4384
sg212
I00
sg35
VPT6M30.974802S
p4385
sg32
VDeath
p4386
sg215
I1
sa(dp4387
g32
VMedal
p4388
sg39
(dp4389
g41
VOG ACE HCS
p4390
sg43
Nssg220
I2782465081
sg35
VPT6M30.974802S
p4391
sa(dp4392
g32
VMedal
p4393
sg39
(dp4394
g41
VOG ACE HCS
p4395
sg43
Nssg220
I2287626681
sg35
VPT6M30.975695S
p4396
sa(dp4397
g38
I723388907
sg32
VWeaponDrop
p4398
sg229
I4
sg44
(lp4399
I89283061
asg35
VPT6M30.9767328S
p4400
sg232
I1
sg233
VP0DT0H0M4.2167S
p4401
sg39
(dp4402
g41
VnV Pistola HCS
p4403
sg43
Nssa(dp4404
g38
I424645655
sg32
VWeaponDrop
p4405
sg229
I63
sg44
(lp4406
I1327094800
asg35
VPT6M30.9830451S
p4407
sg232
I24
sg233
VP0DT0H1M1.6500S
p4408
sg39
(dp4409
g41
VnV Pistola HCS
p4410
sg43
Nssa(dp4411
g38
I313138863
sg39
(dp4412
g41
VOG Str8 SickHCS
p4413
sg43
Nssg44
(lp4414
I1095363701
asg32
VWeaponPickup
p4415
sg35
VPT6M31.4897124S
p4416
sa(dp4417
g38
I4096745987
sg39
(dp4418
g41
VOG Str8 SickHCS
p4419
sg43
Nssg44
(lp4420
I2758383128
asg32
VWeaponPickup
p4421
sg35
VPT6M31.4897124S
p4422
sa(dp4423
g32
VPlayerSpawn
p4424
sg39
(dp4425
g41
VOG Str8 SickHCS
p4426
sg43
Nssg35
VPT6M31.4897124S
p4427
sa(dp4428
g38
I313138863
sg39
(dp4429
g41
VOG Maniac HCS
p4430
sg43
Nssg44
(lp4431
I1095363701
asg32
VWeaponPickup
p4432
sg35
VPT6M33.4077733S
p4433
sa(dp4434
g38
I4096745987
sg39
(dp4435
g41
VOG Maniac HCS
p4436
sg43
Nssg44
(lp4437
I2758383128
asg32
VWeaponPickup
p4438
sg35
VPT6M33.4087733S
p4439
sa(dp4440
g32
VPlayerSpawn
p4441
sg39
(dp4442
g41
VOG Maniac HCS
p4443
sg43
Nssg35
VPT6M33.4087733S
p4444
sa(dp4445
g38
I313138863
sg39
(dp4446
g41
VnV Mikwen HCS
p4447
sg43
Nssg44
(lp4448
I1095363701
asg32
VWeaponPickup
p4449
sg35
VPT6M34.6118121S
p4450
sa(dp4451
g38
I4096745987
sg39
(dp4452
g41
VnV Mikwen HCS
p4453
sg43
Nssg44
(lp4454
I2758383128
asg32
VWeaponPickup
p4455
sg35
VPT6M34.6118121S
p4456
sa(dp4457
g32
VPlayerSpawn
p4458
sg39
(dp4459
g41
VnV Mikwen HCS
p4460
sg43
Nssg35
VPT6M34.6118121S
p4461
sa(dp4462
g32
VMedal
p4463
sg39
(dp4464
g41
VOG ACE HCS
p4465
sg43
Nssg220
I3400287617
sg35
VPT6M34.825818S
p4466
sa(dp4467
g38
I313138863
sg32
VWeaponDrop
p4468
sg229
I0
sg44
(lp4469
I1095363701
asg35
VPT6M36.8548836S
p4470
sg232
I0
sg233
VP0DT0H0M6.1500S
p4471
sg39
(dp4472
g41
VOG APG HCS
p4473
sg43
Nssa(dp4474
g38
I669296699
sg39
(dp4475
g41
VOG APG HCS
p4476
sg43
Nssg44
(lp4477
I2758383128
asg32
VWeaponPickupPad
p4478
sg35
VPT6M36.8594199S
p4479
sa(dp4480
g38
I669296699
sg39
(dp4481
g41
VOG APG HCS
p4482
sg43
Nssg44
(lp4483
I2758383128
asg32
VWeaponPickup
p4484
sg35
VPT6M36.8596179S
p4485
sa(dp4486
g38
I4096745987
sg32
VWeaponDrop
p4487
sg229
I3
sg44
(lp4488
I2758383128
asg35
VPT6M37.4241368S
p4489
sg232
I2
sg233
VP0DT0H0M19.0500S
p4490
sg39
(dp4491
g41
VOG APG HCS
p4492
sg43
Nssa(dp4493
g38
I723388907
sg39
(dp4494
g41
VOG APG HCS
p4495
sg43
Nssg44
(lp4496
I89283061
asg32
VWeaponPickup
p4497
sg35
VPT6M37.4241368S
p4498
sa(dp4499
g38
I313138863
sg39
(dp4500
g41
VnV Pistola HCS
p4501
sg43
Nssg44
(lp4502
I1095363701
asg32
VWeaponPickup
p4503
sg35
VPT6M39.0069626S
p4504
sa(dp4505
g38
I4096745987
sg39
(dp4506
g41
VnV Pistola HCS
p4507
sg43
Nssg44
(lp4508
I2758383128
asg32
VWeaponPickup
p4509
sg35
VPT6M39.0069626S
p4510
sa(dp4511
g32
VPlayerSpawn
p4512
sg39
(dp4513
g41
VnV Pistola HCS
p4514
sg43
Nssg35
VPT6M39.0069626S
p4515
sa(dp4516
g185
I4096745987
sg186
I00
sg187
I00
sg188
(dp4517
g41
VnV RayneHCS
p4518
sg43
Nssg191
(lp4519
I2758383128
asg193
I00
sg194
I01
sg195
I1
sg196
I0
sg197
I1
sg198
(dp4520
Vy
F-3.931279
sVx
F1.8876061399999999
sVz
F5.1532783499999999
ssg200
(dp4521
Vy
F8.597467
sVx
F8.5034589999999994
sVz
F3.2186203
ssg202
I00
sg203
(dp4522
g41
VOG APG HCS
p4523
sg43
Nssg206
(lp4524
sg208
(lp4525
(dp4526
g41
VnV eL ToWn
p4527
sg43
Nsasg212
I01
sg35
VPT6M41.3560273S
p4528
sg32
VDeath
p4529
sg215
I1
sa(dp4530
g32
VMedal
p4531
sg39
(dp4532
g41
VnV RayneHCS
p4533
sg43
Nssg220
I3261908037
sg35
VPT6M41.3570274S
p4534
sa(dp4535
g38
I669296699
sg32
VWeaponDrop
p4536
sg229
I2
sg44
(lp4537
I2758383128
asg35
VPT6M41.3570274S
p4538
sg232
I0
sg233
VP0DT0H0M2.5667S
p4539
sg39
(dp4540
g41
VOG APG HCS
p4541
sg43
Nssa(dp4542
g38
I723388907
sg32
VWeaponDrop
p4543
sg229
I0
sg44
(lp4544
I89283061
asg35
VPT6M41.3570274S
p4545
sg232
I0
sg233
VP0DT0H0M1.8000S
p4546
sg39
(dp4547
g41
VOG APG HCS
p4548
sg43
Nssa(dp4549
g185
I4096745987
sg186
I00
sg187
I00
sg188
(dp4550
g41
VnV eL ToWn
p4551
sg43
Nssg191
(lp4552
I2758383128
asg193
I00
sg194
I01
sg195
I1
sg196
I0
sg197
I1
sg198
(dp4553
Vy
F10.15583
sVx
F14.783110000000001
sVz
F3.7938928600000001
ssg200
(dp4554
Vy
F10.253068000000001
sVx
F3.9895668
sVz
F2.9474255999999999
ssg202
I00
sg203
(dp4555
g41
VOG ACE HCS
p4556
sg43
Nssg206
(lp4557
sg208
(lp4558
(dp4559
g41
VnV RayneHCS
p4560
sg43
Nsa(dp4561
g41
VnV Mikwen HCS
p4562
sg43
Nsasg212
I01
sg35
VPT6M42.1060513S
p4563
sg32
VDeath
p4564
sg215
I1
sa(dp4565
g32
VMedal
p4566
sg39
(dp4567
g41
VnV eL ToWn
p4568
sg43
Nssg220
I3261908037
sg35
VPT6M42.1130584S
p4569
sa(dp4570
g38
I723388907
sg32
VWeaponDrop
p4571
sg229
I25
sg44
(lp4572
I89283061
asg35
VPT6M42.1140517S
p4573
sg232
I12
sg233
VP0DT0H0M11.5500S
p4574
sg39
(dp4575
g41
VOG ACE HCS
p4576
sg43
Nssa(dp4577
g38
I723388907
sg32
VWeaponDrop
p4578
sg229
I0
sg44
(lp4579
I89283061
asg35
VPT6M42.1140517S
p4580
sg232
I0
sg233
VP0DT0S
p4581
sg39
(dp4582
g41
VOG ACE HCS
p4583
sg43
Nssa(dp4584
g38
I4096745987
sg32
VWeaponDrop
p4585
sg229
I7
sg44
(lp4586
I2758383128
asg35
VPT6M42.1140517S
p4587
sg232
I3
sg233
VP0DT0H0M6.6833S
p4588
sg39
(dp4589
g41
VOG ACE HCS
p4590
sg43
Nssa(dp4591
g185
I4096745987
sg186
I00
sg187
I00
sg188
(dp4592
g41
VOG Str8 SickHCS
p4593
sg43
Nssg191
(lp4594
I2758383128
asg193
I00
sg194
I01
sg195
I1
sg196
I0
sg197
I1
sg198
(dp4595
Vy
F-7.4592229999999997
sVx
F15.5281763
sVz
F1.9768269999999999
ssg200
(dp4596
Vy
F7.6869740000000002
sVx
F15.4273653
sVz
F3.0098220000000002
ssg202
I00
sg203
(dp4597
g41
VnV eL ToWn
p4598
sg43
Nssg206
(lp4599
sg208
(lp4600
(dp4601
g41
VOG ACE HCS
p4602
sg43
Nsasg212
I01
sg35
VPT6M43.3100895S
p4603
sg32
VDeath
p4604
sg215
I1
sa(dp4605
g32
VMedal
p4606
sg39
(dp4607
g41
VOG Str8 SickHCS
p4608
sg43
Nssg220
I3261908037
sg35
VPT6M43.31209S
p4609
sa(dp4610
g38
I4096745987
sg32
VWeaponDrop
p4611
sg229
I16
sg44
(lp4612
I2758383128
asg35
VPT6M43.3173605S
p4613
sg232
I7
sg233
VP0DT0H0M34.1500S
p4614
sg39
(dp4615
g41
VnV eL ToWn
p4616
sg43
Nssa(dp4617
g38
I313138863
sg32
VWeaponDrop
p4618
sg229
I23
sg44
(lp4619
I1095363701
asg35
VPT6M43.3173605S
p4620
sg232
I13
sg233
VP0DT0H0M8.0333S
p4621
sg39
(dp4622
g41
VnV eL ToWn
p4623
sg43
Nssa(dp4624
g185
I4096745987
sg186
I00
sg187
I00
sg188
(dp4625
g41
VOG Maniac HCS
p4626
sg43
Nssg191
(lp4627
I2758383128
asg193
I00
sg194
I01
sg195
I1
sg196
I0
sg197
I1
sg198
(dp4628
Vy
F8.0740079999999992
sVx
F-5.1772732699999997
sVz
F4.1410819999999999
ssg200
(dp4629
Vy
F4.45104933
sVx
F6.7428836800000003
sVz
F3.8176641500000001
ssg202
I00
sg203
(dp4630
g41
VnV Mikwen HCS
p4631
sg43
Nssg206
(lp4632
sg208
(lp4633
sg212
I00
sg35
VPT6M47.7082308S
p4634
sg32
VDeath
p4635
sg215
I1
sa(dp4636
g38
I313138863
sg32
VWeaponDrop
p4637
sg229
I0
sg44
(lp4638
I1095363701
asg35
VPT6M47.7092307S
p4639
sg232
I0
sg233
VP0DT0H0M6.0667S
p4640
sg39
(dp4641
g41
VnV Mikwen HCS
p4642
sg43
Nssa(dp4643
g38
I4096745987
sg32
VWeaponDrop
p4644
sg229
I4
sg44
(lp4645
I2758383128
asg35
VPT6M47.7092307S
p4646
sg232
I2
sg233
VP0DT0H0M7.0333S
p4647
sg39
(dp4648
g41
VnV Mikwen HCS
p4649
sg43
Nssa(dp4650
g38
I313138863
sg39
(dp4651
g41
VOG APG HCS
p4652
sg43
Nssg44
(lp4653
I1095363701
asg32
VWeaponPickup
p4654
sg35
VPT6M49.3742841S
p4655
sa(dp4656
g38
I4096745987
sg39
(dp4657
g41
VOG APG HCS
p4658
sg43
Nssg44
(lp4659
I2758383128
asg32
VWeaponPickup
p4660
sg35
VPT6M49.3752844S
p4661
sa(dp4662
g32
VPlayerSpawn
p4663
sg39
(dp4664
g41
VOG APG HCS
p4665
sg43
Nssg35
VPT6M49.3752844S
p4666
sa(dp4667
g38
I2492868984
sg39
(dp4668
g41
VnV RayneHCS
p4669
sg43
Nssg44
(lp4670
I2758383128
asg32
VWeaponPickup
p4671
sg35
VPT6M49.6382923S
p4672
sa(dp4673
g185
I4106030681
sg186
I00
sg187
I00
sg188
(dp4674
g41
VnV Pistola HCS
p4675
sg43
Nssg191
(lp4676
sg193
I00
sg194
I00
sg195
I2
sg196
I0
sg197
I0
sg198
(dp4677
Vy
F2.8500981300000001
sVx
F15.941597
sVz
F1.0262105500000001
ssg200
(dp4678
Vy
F-4.2828464500000001
sVx
F21.1420174
sVz
F1.208126
ssg202
I00
sg203
(dp4679
g307
g308
ssg206
(lp4680
sg208
(lp4681
sg212
I00
sg35
VPT6M50.1093081S
p4682
sg32
VDeath
p4683
sg215
I1
sa(dp4684
g185
I47178948
sg186
I00
sg187
I00
sg188
(dp4685
g41
VnV Pistola HCS
p4686
sg43
Nssg191
(lp4687
sg193
I00
sg194
I01
sg195
I1
sg196
I0
sg197
I1
sg198
(dp4688
Vy
F2.8500981300000001
sVx
F15.941597
sVz
F1.0262105500000001
ssg200
(dp4689
Vy
F-4.8024563799999997
sVx
F20.023040000000002
sVz
F0.94988070000000002
ssg202
I00
sg203
(dp4690
g41
VOG Str8 SickHCS
p4691
sg43
Nssg206
(lp4692
sg208
(lp4693
sg212
I00
sg35
VPT6M50.1093081S
p4694
sg32
VDeath
p4695
sg215
I1
sa(dp4696
g38
I4096745987
sg32
VWeaponDrop
p4697
sg229
I3
sg44
(lp4698
I2758383128
asg35
VPT6M50.1113079S
p4699
sg232
I2
sg233
VP0DT0H0M11.0500S
p4700
sg39
(dp4701
g41
VOG Str8 SickHCS
p4702
sg43
Nssa(dp4703
g38
I313138863
sg32
VWeaponDrop
p4704
sg229
I15
sg44
(lp4705
I1095363701
asg35
VPT6M50.1178381S
p4706
sg232
I8
sg233
VP0DT0H0M7.5500S
p4707
sg39
(dp4708
g41
VOG Str8 SickHCS
p4709
sg43
Nssa(dp4710
g38
I313138863
sg39
(dp4711
g41
VOG ACE HCS
p4712
sg43
Nssg44
(lp4713
I1095363701
asg32
VWeaponPickup
p4714
sg35
VPT6M50.1213088S
p4715
sa(dp4716
g38
I4096745987
sg39
(dp4717
g41
VOG ACE HCS
p4718
sg43
Nssg44
(lp4719
I2758383128
asg32
VWeaponPickup
p4720
sg35
VPT6M50.1213088S
p4721
sa(dp4722
g32
VPlayerSpawn
p4723
sg39
(dp4724
g41
VOG ACE HCS
p4725
sg43
Nssg35
VPT6M50.1213088S
p4726
sa(dp4727
g38
I2492868984
sg32
VWeaponDrop
p4728
sg229
I0
sg44
(lp4729
I2758383128
asg35
VPT6M50.7773293S
p4730
sg232
I0
sg233
VP0DT0H0M0.9833S
p4731
sg39
(dp4732
g41
VnV RayneHCS
p4733
sg43
Nssa(dp4734
g38
I313138863
sg32
VWeaponDrop
p4735
sg229
I0
sg44
(lp4736
I1095363701
asg35
VPT6M51.0213364S
p4737
sg232
I0
sg233
VP0DT0H0M1.2167S
p4738
sg39
(dp4739
g41
VOG APG HCS
p4740
sg43
Nssa(dp4741
g38
I723388907
sg39
(dp4742
g41
VOG APG HCS
p4743
sg43
Nssg44
(lp4744
I89283061
asg32
VWeaponPickup
p4745
sg35
VPT6M51.0213364S
p4746
sa(dp4747
g38
I313138863
sg39
(dp4748
g41
VnV eL ToWn
p4749
sg43
Nssg44
(lp4750
I1095363701
asg32
VWeaponPickup
p4751
sg35
VPT6M51.324346S
p4752
sa(dp4753
g38
I4096745987
sg39
(dp4754
g41
VnV eL ToWn
p4755
sg43
Nssg44
(lp4756
I2758383128
asg32
VWeaponPickup
p4757
sg35
VPT6M51.3253471S
p4758
sa(dp4759
g32
VPlayerSpawn
p4760
sg39
(dp4761
g41
VnV eL ToWn
p4762
sg43
Nssg35
VPT6M51.3253471S
p4763
sa(dp4764
g38
I4096745987
sg32
VWeaponDrop
p4765
sg229
I0
sg44
(lp4766
I2758383128
asg35
VPT6M52.375379S
p4767
sg232
I0
sg233
VP0DT0H0M1.4500S
p4768
sg39
(dp4769
g41
VOG ACE HCS
p4770
sg43
Nssa(dp4771
g38
I424645655
sg39
(dp4772
g41
VOG ACE HCS
p4773
sg43
Nssg44
(lp4774
I1327094800
asg32
VWeaponPickup
p4775
sg35
VPT6M52.375379S
p4776
sa(dp4777
g38
I313138863
sg39
(dp4778
g41
VnV Mikwen HCS
p4779
sg43
Nssg44
(lp4780
I1095363701
asg32
VWeaponPickup
p4781
sg35
VPT6M55.7434884S
p4782
sa(dp4783
g38
I4096745987
sg39
(dp4784
g41
VnV Mikwen HCS
p4785
sg43
Nssg44
(lp4786
I2758383128
asg32
VWeaponPickup
p4787
sg35
VPT6M55.7434884S
p4788
sa(dp4789
g32
VPlayerSpawn
p4790
sg39
(dp4791
g41
VnV Mikwen HCS
p4792
sg43
Nssg35
VPT6M55.7434884S
p4793
sa(dp4794
g38
I313138863
sg32
VWeaponDrop
p4795
sg229
I0
sg44
(lp4796
I1095363701
asg35
VPT6M56.5230974S
p4797
sg232
I0
sg233
VP0DT0H0M2.0333S
p4798
sg39
(dp4799
g41
VOG ACE HCS
p4800
sg43
Nssa(dp4801
g38
I723388907
sg39
(dp4802
g41
VOG ACE HCS
p4803
sg43
Nssg44
(lp4804
I89283061
asg32
VWeaponPickup
p4805
sg35
VPT6M56.5235129S
p4806
sa(dp4807
g38
I313138863
sg32
VWeaponDrop
p4808
sg229
I0
sg44
(lp4809
I1095363701
asg35
VPT6M56.9915265S
p4810
sg232
I0
sg233
VP0DT0H0M0.7833S
p4811
sg39
(dp4812
g41
VnV Mikwen HCS
p4813
sg43
Nssa(dp4814
g38
I4153405209
sg39
(dp4815
g41
VnV Mikwen HCS
p4816
sg43
Nssg44
(lp4817
I2758383128
asg32
VWeaponPickup
p4818
sg35
VPT6M56.9915265S
p4819
sa(dp4820
g38
I313138863
sg39
(dp4821
g41
VOG Str8 SickHCS
p4822
sg43
Nssg44
(lp4823
I1095363701
asg32
VWeaponPickup
p4824
sg35
VPT6M58.1177529S
p4825
sa(dp4826
g38
I4096745987
sg39
(dp4827
g41
VOG Str8 SickHCS
p4828
sg43
Nssg44
(lp4829
I2758383128
asg32
VWeaponPickup
p4830
sg35
VPT6M58.1177529S
p4831
sa(dp4832
g32
VPlayerSpawn
p4833
sg39
(dp4834
g41
VOG Str8 SickHCS
p4835
sg43
Nssg35
VPT6M58.1177529S
p4836
sa(dp4837
g38
I4096745987
sg32
VWeaponDrop
p4838
sg229
I8
sg44
(lp4839
I2758383128
asg35
VPT6M58.2237832S
p4840
sg232
I5
sg233
VP0DT0H0M18.3667S
p4841
sg39
(dp4842
g41
VnV Pistola HCS
p4843
sg43
Nssa(dp4844
g38
I424645655
sg39
(dp4845
g41
VnV Pistola HCS
p4846
sg43
Nssg44
(lp4847
I1327094800
asg32
VWeaponPickup
p4848
sg35
VPT6M58.2237832S
p4849
sa(dp4850
g38
I4096745987
sg32
VWeaponDrop
p4851
sg229
I0
sg44
(lp4852
I2758383128
asg35
VPT6M59.474438S
p4853
sg232
I0
sg233
VP0DT0H0M7.8167S
p4854
sg39
(dp4855
g41
VnV eL ToWn
p4856
sg43
Nssa(dp4857
g38
I424645655
sg39
(dp4858
g41
VnV eL ToWn
p4859
sg43
Nssg44
(lp4860
I1327094800
asg32
VWeaponPickup
p4861
sg35
VPT6M59.4746067S
p4862
sa(dp4863
g38
I4153405209
sg32
VWeaponDrop
p4864
sg229
I0
sg44
(lp4865
I2758383128
asg35
VPT7M0.3572496S
p4866
sg232
I0
sg233
VP0DT0H0M0.5333S
p4867
sg39
(dp4868
g41
VnV Mikwen HCS
p4869
sg43
Nssa(dp4870
g38
I2133511419
sg39
(dp4871
g41
VnV Mikwen HCS
p4872
sg43
Nssg44
(lp4873
I2758383128
asg32
VWeaponPickup
p4874
sg35
VPT7M0.357316S
p4875
sa(dp4876
g185
I313138863
sg186
I00
sg187
I00
sg188
(dp4877
g41
VnV RayneHCS
p4878
sg43
Nssg191
(lp4879
I1095363701
asg193
I00
sg194
I01
sg195
I1
sg196
I0
sg197
I1
sg198
(dp4880
Vy
F5.5991070000000001
sVx
F-0.55965584499999999
sVz
F0.66128600000000004
ssg200
(dp4881
Vy
F4.4066380000000001
sVx
F5.6085233700000003
sVz
F-0.041138380000000002
ssg202
I00
sg203
(dp4882
g41
VOG Maniac HCS
p4883
sg43
Nssg206
(lp4884
sg208
(lp4885
(dp4886
g41
VnV Mikwen HCS
p4887
sg43
Nsa(dp4888
g41
VnV eL ToWn
p4889
sg43
Nsasg212
I00
sg35
VPT7M7.7108715S
p4890
sg32
VDeath
p4891
sg215
I1
sa(dp4892
g38
I313138863
sg32
VWeaponDrop
p4893
sg229
I9
sg44
(lp4894
I1095363701
asg35
VPT7M7.7188709S
p4895
sg232
I2
sg233
VP0DT0H0M5.5000S
p4896
sg39
(dp4897
g41
VOG Maniac HCS
p4898
sg43
Nssa(dp4899
g38
I4096745987
sg32
VWeaponDrop
p4900
sg229
I22
sg44
(lp4901
I2758383128
asg35
VPT7M7.7188709S
p4902
sg232
I12
sg233
VP0DT0H0M28.7833S
p4903
sg39
(dp4904
g41
VOG Maniac HCS
p4905
sg43
Nssa(dp4906
g185
I424645655
sg186
I00
sg187
I00
sg188
(dp4907
g41
VOG ACE HCS
p4908
sg43
Nssg191
(lp4909
I1327094800
asg193
I00
sg194
I01
sg195
I1
sg196
I0
sg197
I1
sg198
(dp4910
Vy
F-4.7897243500000002
sVx
F5.7600819999999997
sVz
F2.8594751399999998
ssg200
(dp4911
Vy
F12.571936600000001
sVx
F4.7148866700000003
sVz
F3.20686626
ssg202
I00
sg203
(dp4912
g41
VnV Pistola HCS
p4913
sg43
Nssg206
(lp4914
sg208
(lp4915
(dp4916
g41
VOG Str8 SickHCS
p4917
sg43
Nsasg212
I00
sg35
VPT7M9.6229318S
p4918
sg32
VDeath
p4919
sg215
I1
sa(dp4920
g38
I313138863
sg32
VWeaponDrop
p4921
sg229
I0
sg44
(lp4922
I1095363701
asg35
VPT7M9.6249321S
p4923
sg232
I0
sg233
VP0DT0H0M0.8500S
p4924
sg39
(dp4925
g41
VnV Pistola HCS
p4926
sg43
Nssa(dp4927
g38
I424645655
sg32
VWeaponDrop
p4928
sg229
I24
sg44
(lp4929
I1327094800
asg35
VPT7M9.6249321S
p4930
sg232
I11
sg233
VP0DT0H0M11.4000S
p4931
sg39
(dp4932
g41
VnV Pistola HCS
p4933
sg43
Nssa(dp4934
g185
I2133511419
sg186
I00
sg187
I00
sg188
(dp4935
g41
VnV Mikwen HCS
p4936
sg43
Nssg191
(lp4937
I2758383128
asg193
I00
sg194
I01
sg195
I1
sg196
I0
sg197
I1
sg198
(dp4938
Vy
F-4.136196
sVx
F7.6683149999999998
sVz
F0.80004339999999996
ssg200
(dp4939
Vy
F-4.0575103800000001
sVx
F4.2812442800000001
sVz
F1.514548
ssg202
I00
sg203
(dp4940
g41
VOG ACE HCS
p4941
sg43
Nssg206
(lp4942
sg208
(lp4943
(dp4944
g41
VnV Pistola HCS
p4945
sg43
Nsasg212
I00
sg35
VPT7M11.5889951S
p4946
sg32
VDeath
p4947
sg215
I1
sa(dp4948
g38
I723388907
sg32
VWeaponDrop
p4949
sg229
I0
sg44
(lp4950
I89283061
asg35
VPT7M11.596092S
p4951
sg232
I0
sg233
VP0DT0H0M8.7167S
p4952
sg39
(dp4953
g41
VOG ACE HCS
p4954
sg43
Nssa(dp4955
g38
I424645655
sg32
VWeaponDrop
p4956
sg229
I12
sg44
(lp4957
I1327094800
asg35
VPT7M11.596092S
p4958
sg232
I6
sg233
VP0DT0H0M9.2667S
p4959
sg39
(dp4960
g41
VOG ACE HCS
p4961
sg43
Nssa(dp4962
g185
I4096745987
sg186
I00
sg187
I00
sg188
(dp4963
g41
VOG APG HCS
p4964
sg43
Nssg191
(lp4965
I2758383128
asg193
I00
sg194
I01
sg195
I1
sg196
I0
sg197
I1
sg198
(dp4966
Vy
F7.7093980000000002
sVx
F-1.8617239000000001
sVz
F3.1999993299999998
ssg200
(dp4967
Vy
F7.9120325999999999
sVx
F9.8120709999999995
sVz
F-0.0059016644999999998
ssg202
I00
sg203
(dp4968
g41
VnV RayneHCS
p4969
sg43
Nssg206
(lp4970
sg208
(lp4971
(dp4972
g41
VOG Str8 SickHCS
p4973
sg43
Nsasg212
I01
sg35
VPT7M14.9091008S
p4974
sg32
VDeath
p4975
sg215
I1
sa(dp4976
g32
VMedal
p4977
sg39
(dp4978
g41
VOG APG HCS
p4979
sg43
Nssg220
I3261908037
sg35
VPT7M14.9101012S
p4980
sa(dp4981
g38
I313138863
sg32
VWeaponDrop
p4982
sg229
I16
sg44
(lp4983
I1095363701
asg35
VPT7M14.9162749S
p4984
sg232
I7
sg233
VP0DT0H0M9.1333S
p4985
sg39
(dp4986
g41
VnV RayneHCS
p4987
sg43
Nssa(dp4988
g38
I4096745987
sg32
VWeaponDrop
p4989
sg229
I10
sg44
(lp4990
I2758383128
asg35
VPT7M14.9162749S
p4991
sg232
I6
sg233
VP0DT0H0M34.8500S
p4992
sg39
(dp4993
g41
VnV RayneHCS
p4994
sg43
Nssa(dp4995
g38
I313138863
sg39
(dp4996
g41
VOG Maniac HCS
p4997
sg43
Nssg44
(lp4998
I1095363701
asg32
VWeaponPickup
p4999
sg35
VPT7M15.7101274S
p5000
sa(dp5001
g38
I4096745987
sg39
(dp5002
g41
VOG Maniac HCS
p5003
sg43
Nssg44
(lp5004
I2758383128
asg32
VWeaponPickup
p5005
sg35
VPT7M15.7101274S
p5006
sa(dp5007
g32
VPlayerSpawn
p5008
sg39
(dp5009
g41
VOG Maniac HCS
p5010
sg43
Nssg35
VPT7M15.7101274S
p5011
sa(dp5012
g38
I313138863
sg39
(dp5013
g41
VnV Pistola HCS
p5014
sg43
Nssg44
(lp5015
I1095363701
asg32
VWeaponPickup
p5016
sg35
VPT7M17.6411892S
p5017
sa(dp5018
g38
I4096745987
sg39
(dp5019
g41
VnV Pistola HCS
p5020
sg43
Nssg44
(lp5021
I2758383128
asg32
VWeaponPickup
p5022
sg35
VPT7M17.6421896S
p5023
sa(dp5024
g32
VPlayerSpawn
p5025
sg39
(dp5026
g41
VnV Pistola HCS
p5027
sg43
Nssg35
VPT7M17.6421896S
p5028
sa(dp5029
g185
I3190813201
sg186
I00
sg187
I00
sg188
(dp5030
g41
VnV eL ToWn
p5031
sg43
Nssg191
(lp5032
sg193
I00
sg194
I01
sg195
I1
sg196
I0
sg197
I1
sg198
(dp5033
Vy
F-2.28403044
sVx
F9.2371859999999995
sVz
F3.2220244400000002
ssg200
(dp5034
Vy
F6.75800467
sVx
F8.2790309999999998
sVz
F0.0012944340700000001
ssg202
I00
sg203
(dp5035
g41
VOG Str8 SickHCS
p5036
sg43
Nssg206
(lp5037
sg208
(lp5038
(dp5039
g41
VnV RayneHCS
p5040
sg43
Nsasg212
I00
sg35
VPT7M18.6262207S
p5041
sg32
VDeath
p5042
sg215
I1
sa(dp5043
g38
I313138863
sg32
VWeaponDrop
p5044
sg229
I28
sg44
(lp5045
I1095363701
asg35
VPT7M18.6282196S
p5046
sg232
I13
sg233
VP0DT0H0M7.6000S
p5047
sg39
(dp5048
g41
VOG Str8 SickHCS
p5049
sg43
Nssa(dp5050
g38
I4096745987
sg32
VWeaponDrop
p5051
sg229
I5
sg44
(lp5052
I2758383128
asg35
VPT7M18.6282196S
p5053
sg232
I0
sg233
VP0DT0H0M12.9000S
p5054
sg39
(dp5055
g41
VOG Str8 SickHCS
p5056
sg43
Nssa(dp5057
g38
I313138863
sg39
(dp5058
g41
VOG ACE HCS
p5059
sg43
Nssg44
(lp5060
I1095363701
asg32
VWeaponPickup
p5061
sg35
VPT7M19.6082519S
p5062
sa(dp5063
g38
I4096745987
sg39
(dp5064
g41
VOG ACE HCS
p5065
sg43
Nssg44
(lp5066
I2758383128
asg32
VWeaponPickup
p5067
sg35
VPT7M19.6082519S
p5068
sa(dp5069
g32
VPlayerSpawn
p5070
sg39
(dp5071
g41
VOG ACE HCS
p5072
sg43
Nssg35
VPT7M19.6082519S
p5073
sa(dp5074
g38
I4096745987
sg32
VWeaponDrop
p5075
sg229
I0
sg44
(lp5076
I2758383128
asg35
VPT7M20.7252858S
p5077
sg232
I0
sg233
VP0DT0H0M2.1167S
p5078
sg39
(dp5079
g41
VnV Pistola HCS
p5080
sg43
Nssa(dp5081
g38
I424645655
sg39
(dp5082
g41
VnV Pistola HCS
p5083
sg43
Nssg44
(lp5084
I1327094800
asg32
VWeaponPickup
p5085
sg35
VPT7M20.7252858S
p5086
sa(dp5087
g185
I723388907
sg186
I00
sg187
I00
sg188
(dp5088
g41
VOG APG HCS
p5089
sg43
Nssg191
(lp5090
I89283061
asg193
I00
sg194
I01
sg195
I1
sg196
I0
sg197
I1
sg198
(dp5091
Vy
F-0.460512221
sVx
F8.8658300000000008
sVz
F-0.051976367799999999
ssg200
(dp5092
Vy
F3.0614599999999998
sVx
F9.9041490000000003
sVz
F-0.053592085800000001
ssg202
I00
sg203
(dp5093
g41
VnV Mikwen HCS
p5094
sg43
Nssg206
(lp5095
sg208
(lp5096
sg212
I00
sg35
VPT7M20.9589121S
p5097
sg32
VDeath
p5098
sg215
I1
sa(dp5099
g38
I2133511419
sg32
VWeaponDrop
p5100
sg229
I44
sg44
(lp5101
I2758383128
asg35
VPT7M20.9612952S
p5102
sg232
I17
sg233
VP0DT0H0M15.2500S
p5103
sg39
(dp5104
g41
VnV Mikwen HCS
p5105
sg43
Nssa(dp5106
g38
I4096745987
sg32
VWeaponDrop
p5107
sg229
I1
sg44
(lp5108
I2758383128
asg35
VPT7M20.9612952S
p5109
sg232
I0
sg233
VP0DT0H0M8.6500S
p5110
sg39
(dp5111
g41
VnV Mikwen HCS
p5112
sg43
Nssa(dp5113
g185
I424645655
sg186
I00
sg187
I00
sg188
(dp5114
g41
VnV eL ToWn
p5115
sg43
Nssg191
(lp5116
I1327094800
asg193
I00
sg194
I01
sg195
I1
sg196
I0
sg197
I1
sg198
(dp5117
Vy
F0.101933971
sVx
F6.6382126799999996
sVz
F-0.054883750000000002
ssg200
(dp5118
Vy
F-0.9075742
sVx
F9.6797730000000008
sVz
F0.13482788200000001
ssg202
I00
sg203
(dp5119
g41
VOG APG HCS
p5120
sg43
Nssg206
(lp5121
sg208
(lp5122
(dp5123
g41
VnV Mikwen HCS
p5124
sg43
Nsasg212
I01
sg35
VPT7M21.5763145S
p5125
sg32
VDeath
p5126
sg215
I1
sa(dp5127
g32
VMedal
p5128
sg39
(dp5129
g41
VnV eL ToWn
p5130
sg43
Nssg220
I3261908037
sg35
VPT7M21.5793139S
p5131
sa(dp5132
g32
VMedal
p5133
sg39
(dp5134
g41
VnV eL ToWn
p5135
sg43
Nssg220
I2078758684
sg35
VPT7M21.5793139S
p5136
sa(dp5137
g38
I723388907
sg32
VWeaponDrop
p5138
sg229
I60
sg44
(lp5139
I89283061
asg35
VPT7M21.5860124S
p5140
sg232
I24
sg233
VP0DT0H0M8.2167S
p5141
sg39
(dp5142
g41
VOG APG HCS
p5143
sg43
Nssa(dp5144
g38
I4096745987
sg32
VWeaponDrop
p5145
sg229
I12
sg44
(lp5146
I2758383128
asg35
VPT7M21.5860124S
p5147
sg232
I8
sg233
VP0DT0H0M22.7667S
p5148
sg39
(dp5149
g41
VOG APG HCS
p5150
sg43
Nssa(dp5151
g38
I313138863
sg39
(dp5152
g41
VnV RayneHCS
p5153
sg43
Nssg44
(lp5154
I1095363701
asg32
VWeaponPickup
p5155
sg35
VPT7M22.9423588S
p5156
sa(dp5157
g38
I4096745987
sg39
(dp5158
g41
VnV RayneHCS
p5159
sg43
Nssg44
(lp5160
I2758383128
asg32
VWeaponPickup
p5161
sg35
VPT7M22.9423588S
p5162
sa(dp5163
g32
VPlayerSpawn
p5164
sg39
(dp5165
g41
VnV RayneHCS
p5166
sg43
Nssg35
VPT7M22.9423588S
p5167
sa(dp5168
g38
I313138863
sg39
(dp5169
g41
VOG Str8 SickHCS
p5170
sg43
Nssg44
(lp5171
I1095363701
asg32
VWeaponPickup
p5172
sg35
VPT7M26.6394778S
p5173
sa(dp5174
g38
I4096745987
sg39
(dp5175
g41
VOG Str8 SickHCS
p5176
sg43
Nssg44
(lp5177
I2758383128
asg32
VWeaponPickup
p5178
sg35
VPT7M26.6394778S
p5179
sa(dp5180
g32
VPlayerSpawn
p5181
sg39
(dp5182
g41
VOG Str8 SickHCS
p5183
sg43
Nssg35
VPT7M26.6394778S
p5184
sa(dp5185
g185
I4096745987
sg186
I00
sg187
I00
sg188
(dp5186
g41
VOG Maniac HCS
p5187
sg43
Nssg191
(lp5188
I2758383128
asg193
I00
sg194
I01
sg195
I1
sg196
I0
sg197
I1
sg198
(dp5189
Vy
F11.9194412
sVx
F12.6757908
sVz
F3.6134740000000001
ssg200
(dp5190
Vy
F7.1558310000000001
sVx
F16.386340000000001
sVz
F2.6751990000000001
ssg202
I00
sg203
(dp5191
g41
VnV Pistola HCS
p5192
sg43
Nssg206
(lp5193
sg208
(lp5194
sg212
I01
sg35
VPT7M26.8934846S
p5195
sg32
VDeath
p5196
sg215
I1
sa(dp5197
g32
VMedal
p5198
sg39
(dp5199
g41
VOG Maniac HCS
p5200
sg43
Nssg220
I3261908037
sg35
VPT7M26.9026603S
p5201
sa(dp5202
g38
I424645655
sg32
VWeaponDrop
p5203
sg229
I5
sg44
(lp5204
I1327094800
asg35
VPT7M26.9026603S
p5205
sg232
I4
sg233
VP0DT0H0M6.1667S
p5206
sg39
(dp5207
g41
VnV Pistola HCS
p5208
sg43
Nssa(dp5209
g38
I313138863
sg32
VWeaponDrop
p5210
sg229
I0
sg44
(lp5211
I1095363701
asg35
VPT7M26.9034854S
p5212
sg232
I0
sg233
VP0DT0H0M0.9667S
p5213
sg39
(dp5214
g41
VnV Pistola HCS
p5215
sg43
Nssa(dp5216
g185
I424645655
sg186
I00
sg187
I00
sg188
(dp5217
g41
VnV eL ToWn
p5218
sg43
Nssg191
(lp5219
I1327094800
asg193
I00
sg194
I01
sg195
I1
sg196
I0
sg197
I1
sg198
(dp5220
Vy
F1.2386548500000001
sVx
F0.65891509999999998
sVz
F0.41644300000000001
ssg200
(dp5221
Vy
F10.336116799999999
sVx
F-1.21054244
sVz
F2.6840171800000001
ssg202
I00
sg203
(dp5222
g41
VOG ACE HCS
p5223
sg43
Nssg206
(lp5224
sg208
(lp5225
sg212
I01
sg35
VPT7M27.3584992S
p5226
sg32
VDeath
p5227
sg215
I1
sa(dp5228
g32
VMedal
p5229
sg39
(dp5230
g41
VnV eL ToWn
p5231
sg43
Nssg220
I3261908037
sg35
VPT7M27.3614992S
p5232
sa(dp5233
g38
I313138863
sg32
VWeaponDrop
p5234
sg229
I0
sg44
(lp5235
I1095363701
asg35
VPT7M27.3679431S
p5236
sg232
I0
sg233
VP0DT0H0M1.7000S
p5237
sg39
(dp5238
g41
VOG ACE HCS
p5239
sg43
Nssa(dp5240
g38
I4096745987
sg32
VWeaponDrop
p5241
sg229
I5
sg44
(lp5242
I2758383128
asg35
VPT7M27.3679431S
p5243
sg232
I4
sg233
VP0DT0H0M6.0500S
p5244
sg39
(dp5245
g41
VOG ACE HCS
p5246
sg43
Nssa(dp5247
g38
I313138863
sg32
VWeaponDrop
p5248
sg229
I0
sg44
(lp5249
I1095363701
asg35
VPT7M28.4400384S
p5250
sg232
I0
sg233
VP0DT0H0M1.0667S
p5251
sg39
(dp5252
g41
VOG Str8 SickHCS
p5253
sg43
Nssa(dp5254
g38
I723388907
sg39
(dp5255
g41
VOG Str8 SickHCS
p5256
sg43
Nssg44
(lp5257
I89283061
asg32
VWeaponPickup
p5258
sg35
VPT7M28.4400384S
p5259
sa(dp5260
g38
I313138863
sg39
(dp5261
g41
VnV Mikwen HCS
p5262
sg43
Nssg44
(lp5263
I1095363701
asg32
VWeaponPickup
p5264
sg35
VPT7M28.972551S
p5265
sa(dp5266
g38
I4096745987
sg39
(dp5267
g41
VnV Mikwen HCS
p5268
sg43
Nssg44
(lp5269
I2758383128
asg32
VWeaponPickup
p5270
sg35
VPT7M28.972551S
p5271
sa(dp5272
g32
VPlayerSpawn
p5273
sg39
(dp5274
g41
VnV Mikwen HCS
p5275
sg43
Nssg35
VPT7M28.972551S
p5276
sa(dp5277
g38
I313138863
sg39
(dp5278
g41
VOG APG HCS
p5279
sg43
Nssg44
(lp5280
I1095363701
asg32
VWeaponPickup
p5281
sg35
VPT7M29.5895713S
p5282
sa(dp5283
g38
I4096745987
sg39
(dp5284
g41
VOG APG HCS
p5285
sg43
Nssg44
(lp5286
I2758383128
asg32
VWeaponPickup
p5287
sg35
VPT7M29.5895713S
p5288
sa(dp5289
g32
VPlayerSpawn
p5290
sg39
(dp5291
g41
VOG APG HCS
p5292
sg43
Nssg35
VPT7M29.5895713S
p5293
sa(dp5294
g185
I723388907
sg186
I00
sg187
I01
sg188
(dp5295
g41
VOG Str8 SickHCS
p5296
sg43
Nssg191
(lp5297
I89283061
asg193
I00
sg194
I00
sg195
I1
sg196
I0
sg197
I1
sg198
(dp5298
Vy
F0.24363684699999999
sVx
F-8.5555120000000002
sVz
F1.5449544200000001
ssg200
(dp5299
Vy
F-0.21284171900000001
sVx
F-9.2309249999999992
sVz
F2.363661
ssg202
I00
sg203
(dp5300
g41
VnV eL ToWn
p5301
sg43
Nssg206
(lp5302
sg208
(lp5303
(dp5304
g41
VOG ACE HCS
p5305
sg43
Nsasg212
I00
sg35
VPT7M32.2639993S
p5306
sg32
VDeath
p5307
sg215
I1
sa(dp5308
g32
VMedal
p5309
sg39
(dp5310
g41
VOG Str8 SickHCS
p5311
sg43
Nssg220
I2287626681
sg35
VPT7M32.2647681S
p5312
sa(dp5313
g38
I424645655
sg32
VWeaponDrop
p5314
sg229
I42
sg44
(lp5315
I1327094800
asg35
VPT7M32.2656563S
p5316
sg232
I19
sg233
VP0DT0H0M32.7833S
p5317
sg39
(dp5318
g41
VnV eL ToWn
p5319
sg43
Nssa(dp5320
g38
I313138863
sg32
VWeaponDrop
p5321
sg229
I0
sg44
(lp5322
I1095363701
asg35
VPT7M32.2656563S
p5323
sg232
I0
sg233
VP0DT0H0M0.3333S
p5324
sg39
(dp5325
g41
VnV eL ToWn
p5326
sg43
Nssa(dp5327
g185
I4106030681
sg186
I00
sg187
I00
sg188
(dp5328
g41
VnV RayneHCS
p5329
sg43
Nssg191
(lp5330
sg193
I00
sg194
I00
sg195
I2
sg196
I0
sg197
I0
sg198
(dp5331
Vy
F-8.6155200000000001
sVx
F6.9271099999999999
sVz
F3.2011766399999999
ssg200
(dp5332
Vy
F9.3560909999999993
sVx
F12.2893705
sVz
F5.5042634000000001
ssg202
I00
sg203
(dp5333
g307
g308
ssg206
(lp5334
sg208
(lp5335
sg212
I00
sg35
VPT7M33.4066933S
p5336
sg32
VDeath
p5337
sg215
I1
sa(dp5338
g185
I47178948
sg186
I00
sg187
I00
sg188
(dp5339
g41
VnV RayneHCS
p5340
sg43
Nssg191
(lp5341
sg193
I00
sg194
I01
sg195
I1
sg196
I0
sg197
I1
sg198
(dp5342
Vy
F-8.6155200000000001
sVx
F6.9271099999999999
sVz
F3.2011766399999999
ssg200
(dp5343
Vy
F9.4369589999999999
sVx
F12.598820699999999
sVz
F5.5046350000000004
ssg202
I00
sg203
(dp5344
g41
VOG Maniac HCS
p5345
sg43
Nssg206
(lp5346
sg208
(lp5347
sg212
I00
sg35
VPT7M33.4066933S
p5348
sg32
VDeath
p5349
sg215
I1
sa(dp5350
g38
I4096745987
sg32
VWeaponDrop
p5351
sg229
I4
sg44
(lp5352
I2758383128
asg35
VPT7M33.4366946S
p5353
sg232
I3
sg233
VP0DT0H0M16.6833S
p5354
sg39
(dp5355
g41
VOG Maniac HCS
p5356
sg43
Nssa(dp5357
g38
I313138863
sg32
VWeaponDrop
p5358
sg229
I0
sg44
(lp5359
I1095363701
asg35
VPT7M33.4432561S
p5360
sg232
I0
sg233
VP0DT0H0M1.0000S
p5361
sg39
(dp5362
g41
VOG Maniac HCS
p5363
sg43
Nssa(dp5364
g38
I313138863
sg39
(dp5365
g41
VnV Pistola HCS
p5366
sg43
Nssg44
(lp5367
I1095363701
asg32
VWeaponPickup
p5368
sg35
VPT7M34.9067414S
p5369
sa(dp5370
g38
I4096745987
sg39
(dp5371
g41
VnV Pistola HCS
p5372
sg43
Nssg44
(lp5373
I2758383128
asg32
VWeaponPickup
p5374
sg35
VPT7M34.9067414S
p5375
sa(dp5376
g32
VPlayerSpawn
p5377
sg39
(dp5378
g41
VnV Pistola HCS
p5379
sg43
Nssg35
VPT7M34.9067414S
p5380
sa(dp5381
g38
I313138863
sg39
(dp5382
g41
VOG ACE HCS
p5383
sg43
Nssg44
(lp5384
I1095363701
asg32
VWeaponPickup
p5385
sg35
VPT7M35.3817564S
p5386
sa(dp5387
g38
I4096745987
sg39
(dp5388
g41
VOG ACE HCS
p5389
sg43
Nssg44
(lp5390
I2758383128
asg32
VWeaponPickup
p5391
sg35
VPT7M35.3817564S
p5392
sa(dp5393
g32
VPlayerSpawn
p5394
sg39
(dp5395
g41
VOG ACE HCS
p5396
sg43
Nssg35
VPT7M35.3817564S
p5397
sa(dp5398
g38
I313138863
sg39
(dp5399
g41
VnV eL ToWn
p5400
sg43
Nssg44
(lp5401
I1095363701
asg32
VWeaponPickup
p5402
sg35
VPT7M40.2669121S
p5403
sa(dp5404
g38
I4096745987
sg39
(dp5405
g41
VnV eL ToWn
p5406
sg43
Nssg44
(lp5407
I2758383128
asg32
VWeaponPickup
p5408
sg35
VPT7M40.2669121S
p5409
sa(dp5410
g32
VPlayerSpawn
p5411
sg39
(dp5412
g41
VnV eL ToWn
p5413
sg43
Nssg35
VPT7M40.2669121S
p5414
sa(dp5415
g38
I313138863
sg39
(dp5416
g41
VOG Maniac HCS
p5417
sg43
Nssg44
(lp5418
I1095363701
asg32
VWeaponPickup
p5419
sg35
VPT7M41.4229504S
p5420
sa(dp5421
g38
I4096745987
sg39
(dp5422
g41
VOG Maniac HCS
p5423
sg43
Nssg44
(lp5424
I2758383128
asg32
VWeaponPickup
p5425
sg35
VPT7M41.4229504S
p5426
sa(dp5427
g32
VPlayerSpawn
p5428
sg39
(dp5429
g41
VOG Maniac HCS
p5430
sg43
Nssg35
VPT7M41.4229504S
p5431
sa(dp5432
g185
I2460880172
sg186
I00
sg187
I00
sg188
(dp5433
g41
VnV Pistola HCS
p5434
sg43
Nssg191
(lp5435
sg193
I00
sg194
I01
sg195
I1
sg196
I0
sg197
I1
sg198
(dp5436
Vy
F6.0926914200000004
sVx
F-3.0950324500000002
sVz
F2.2862832499999999
ssg200
(dp5437
Vy
F8.8284099999999999
sVx
F-3.2443504299999999
sVz
F3.40952229
ssg202
I00
sg203
(dp5438
g41
VOG Str8 SickHCS
p5439
sg43
Nssg206
(lp5440
sg208
(lp5441
sg212
I00
sg35
VPT7M44.6880539S
p5442
sg32
VDeath
p5443
sg215
I1
sa(dp5444
g32
VMedal
p5445
sg39
(dp5446
g41
VnV Pistola HCS
p5447
sg43
Nssg220
I2251767925
sg35
VPT7M44.6940526S
p5448
sa(dp5449
g38
I723388907
sg32
VWeaponDrop
p5450
sg229
I5
sg44
(lp5451
I89283061
asg35
VPT7M44.6950539S
p5452
sg232
I3
sg233
VP0DT0H0M5.4167S
p5453
sg39
(dp5454
g41
VOG Str8 SickHCS
p5455
sg43
Nssa(dp5456
g38
I723388907
sg32
VWeaponDrop
p5457
sg229
I0
sg44
(lp5458
I89283061
asg35
VPT7M44.6950539S
p5459
sg232
I0
sg233
VP0DT0S
p5460
sg39
(dp5461
g41
VOG Str8 SickHCS
p5462
sg43
Nssa(dp5463
g38
I4096745987
sg32
VWeaponDrop
p5464
sg229
I2
sg44
(lp5465
I2758383128
asg35
VPT7M44.6950539S
p5466
sg232
I0
sg233
VP0DT0H0M11.5667S
p5467
sg39
(dp5468
g41
VOG Str8 SickHCS
p5469
sg43
Nssa(dp5470
g32
VRoundEnd
p5471
sg34
I0
sg35
VPT7M44.7050547S
p5472
sassb.