ccopy_reg
_reconstructor
p1
(c__main__
match_breakdown
p2
c__builtin__
object
p3
NtRp4
(dp5
S'details'
p6
(dp7
VIsCompleteSetOfEvents
p8
I01
sVLinks
p9
(dp10
VUgcFilmManifest
p11
(dp12
VAuthenticationLifetimeExtensionSupported
p13
I00
sVQueryString
p14
V?view=film-manifest
p15
sVRetryPolicyId
p16
Vexponentialretry
p17
sVPath
p18
V/h5/films/fd8e3d8a-e0bd-4ade-a5a3-bbc8dab2ea31
p19
sVAcknowledgementTypeId
p20
I0
sVAuthorityId
p21
Vugc
p22
sVTopicName
p23
V
ssVStatsMatchDetails
p24
(dp25
g13
I00
sg14
Nsg16
Vexponentialretry
p26
sg18
Vh5/custom/matches/fd8e3d8a-e0bd-4ade-a5a3-bbc8dab2ea31
p27
sg20
I0
sg21
Vspartanstats
p28
sg23
V
sssVGameEvents
p29
(lp30
(dp31
VEventName
p32
VRoundStart
p33
sVRoundIndex
p34
I0
sVTimeSinceStart
p35
VPT0.1654331S
p36
sa(dp37
VWeaponStockId
p38
I313138863
sVPlayer
p39
(dp40
VGamertag
p41
VRNG Ninja HCS
p42
sVXuid
p43
NssVWeaponAttachmentIds
p44
(lp45
I1095363701
asg32
VWeaponPickup
p46
sg35
VPT16.2502083S
p47
sa(dp48
g38
I4096745987
sg39
(dp49
g41
VRNG Ninja HCS
p50
sg43
Nssg44
(lp51
I2758383128
asg32
VWeaponPickup
p52
sg35
VPT16.2512087S
p53
sa(dp54
g32
VPlayerSpawn
p55
sg39
(dp56
g41
VRNG Ninja HCS
p57
sg43
Nssg35
VPT16.2512087S
p58
sa(dp59
g38
I313138863
sg39
(dp60
g41
VRNG Victory X
p61
sg43
Nssg44
(lp62
I1095363701
asg32
VWeaponPickup
p63
sg35
VPT16.2692089S
p64
sa(dp65
g38
I4096745987
sg39
(dp66
g41
VRNG Victory X
p67
sg43
Nssg44
(lp68
I2758383128
asg32
VWeaponPickup
p69
sg35
VPT16.2702089S
p70
sa(dp71
g32
VPlayerSpawn
p72
sg39
(dp73
g41
VRNG Victory X
p74
sg43
Nssg35
VPT16.2702089S
p75
sa(dp76
g38
I313138863
sg39
(dp77
g41
VALG RyaNoob
p78
sg43
Nssg44
(lp79
I1095363701
asg32
VWeaponPickup
p80
sg35
VPT16.2892086S
p81
sa(dp82
g38
I4096745987
sg39
(dp83
g41
VALG RyaNoob
p84
sg43
Nssg44
(lp85
I2758383128
asg32
VWeaponPickup
p86
sg35
VPT16.290209S
p87
sa(dp88
g32
VPlayerSpawn
p89
sg39
(dp90
g41
VALG RyaNoob
p91
sg43
Nssg35
VPT16.290209S
p92
sa(dp93
g38
I313138863
sg39
(dp94
g41
VRNG Penguin HCS
p95
sg43
Nssg44
(lp96
I1095363701
asg32
VWeaponPickup
p97
sg35
VPT16.3073466S
p98
sa(dp99
g38
I4096745987
sg39
(dp100
g41
VRNG Penguin HCS
p101
sg43
Nssg44
(lp102
I2758383128
asg32
VWeaponPickup
p103
sg35
VPT16.3074794S
p104
sa(dp105
g32
VPlayerSpawn
p106
sg39
(dp107
g41
VRNG Penguin HCS
p108
sg43
Nssg35
VPT16.3074794S
p109
sa(dp110
g38
I313138863
sg39
(dp111
g41
VRNG Commonly
p112
sg43
Nssg44
(lp113
I1095363701
asg32
VWeaponPickup
p114
sg35
VPT16.3192094S
p115
sa(dp116
g38
I4096745987
sg39
(dp117
g41
VRNG Commonly
p118
sg43
Nssg44
(lp119
I2758383128
asg32
VWeaponPickup
p120
sg35
VPT16.3192094S
p121
sa(dp122
g32
VPlayerSpawn
p123
sg39
(dp124
g41
VRNG Commonly
p125
sg43
Nssg35
VPT16.3192094S
p126
sa(dp127
g38
I313138863
sg39
(dp128
g41
VALG ContrA HCS
p129
sg43
Nssg44
(lp130
I1095363701
asg32
VWeaponPickup
p131
sg35
VPT16.3392094S
p132
sa(dp133
g38
I4096745987
sg39
(dp134
g41
VALG ContrA HCS
p135
sg43
Nssg44
(lp136
I2758383128
asg32
VWeaponPickup
p137
sg35
VPT16.3392094S
p138
sa(dp139
g32
VPlayerSpawn
p140
sg39
(dp141
g41
VALG ContrA HCS
p142
sg43
Nssg35
VPT16.3392094S
p143
sa(dp144
g38
I313138863
sg39
(dp145
g41
VALGPredevonator
p146
sg43
Nssg44
(lp147
I1095363701
asg32
VWeaponPickup
p148
sg35
VPT16.3492092S
p149
sa(dp150
g38
I4096745987
sg39
(dp151
g41
VALGPredevonator
p152
sg43
Nssg44
(lp153
I2758383128
asg32
VWeaponPickup
p154
sg35
VPT16.3502102S
p155
sa(dp156
g32
VPlayerSpawn
p157
sg39
(dp158
g41
VALGPredevonator
p159
sg43
Nssg35
VPT16.3502102S
p160
sa(dp161
g38
I313138863
sg39
(dp162
g41
VALG Goofy HCS
p163
sg43
Nssg44
(lp164
I1095363701
asg32
VWeaponPickup
p165
sg35
VPT16.3663545S
p166
sa(dp167
g38
I4096745987
sg39
(dp168
g41
VALG Goofy HCS
p169
sg43
Nssg44
(lp170
I2758383128
asg32
VWeaponPickup
p171
sg35
VPT16.3672102S
p172
sa(dp173
g32
VPlayerSpawn
p174
sg39
(dp175
g41
VALG Goofy HCS
p176
sg43
Nssg35
VPT16.3672102S
p177
sa(dp178
VKillerWeaponStockId
p179
I4096745987
sVIsAssassination
p180
I00
sVIsMelee
p181
I00
sVKiller
p182
(dp183
g41
VALG ContrA HCS
p184
sg43
NssVKillerWeaponAttachmentIds
p185
(lp186
I2758383128
asVIsGroundPound
p187
I00
sVIsWeapon
p188
I01
sVDeathDisposition
p189
I1
sVVictimStockId
p190
I0
sVVictimAgent
p191
I1
sVKillerWorldLocation
p192
(dp193
Vy
F10.1622925
sVx
F10.1937113
sVz
F0.083226439999999999
ssVVictimWorldLocation
p194
(dp195
Vy
F-1.5508390000000001
sVx
F11.589483299999999
sVz
F-0.69480264199999997
ssVIsShoulderBash
p196
I00
sVVictim
p197
(dp198
g41
VRNG Victory X
p199
sg43
NssVVictimAttachmentIds
p200
(lp201
sVAssistants
p202
(lp203
(dp204
g41
VALGPredevonator
p205
sg43
NsasVIsHeadshot
p206
I01
sg35
VPT23.4242988S
p207
sg32
VDeath
p208
sVKillerAgent
p209
I1
sa(dp210
g32
VMedal
p211
sg39
(dp212
g41
VALG ContrA HCS
p213
sg43
NssVMedalId
p214
I3261908037
sg35
VPT23.4342996S
p215
sa(dp216
g32
VMedal
p217
sg39
(dp218
g41
VALG ContrA HCS
p219
sg43
Nssg214
I3001183151
sg35
VPT23.4342996S
p220
sa(dp221
g38
I313138863
sg32
VWeaponDrop
p222
sVShotsFired
p223
I0
sg44
(lp224
I1095363701
asg35
VPT23.4373103S
p225
sVShotsLanded
p226
I0
sVTimeWeaponActiveAsPrimary
p227
VP0DT0H0M1.0000S
p228
sg39
(dp229
g41
VRNG Victory X
p230
sg43
Nssa(dp231
g38
I4096745987
sg32
VWeaponDrop
p232
sg223
I3
sg44
(lp233
I2758383128
asg35
VPT23.4373103S
p234
sg226
I2
sg227
VP0DT0H0M5.9500S
p235
sg39
(dp236
g41
VRNG Victory X
p237
sg43
Nssa(dp238
g179
I313138863
sg180
I00
sg181
I00
sg182
(dp239
g41
VRNG Penguin HCS
p240
sg43
Nssg185
(lp241
I1095363701
asg187
I00
sg188
I01
sg189
I1
sg190
I0
sg191
I1
sg192
(dp242
Vy
F0.205795482
sVx
F2.3348672399999999
sVz
F3.9204902599999998
ssg194
(dp243
Vy
F-2.0687181899999998
sVx
F1.58055842
sVz
F3.0914764400000001
ssg196
I00
sg197
(dp244
g41
VALG RyaNoob
p245
sg43
Nssg200
(lp246
sg202
(lp247
(dp248
g41
VRNG Ninja HCS
p249
sg43
Nsasg206
I00
sg35
VPT25.3653256S
p250
sg32
VDeath
p251
sg209
I1
sa(dp252
g38
I313138863
sg32
VWeaponDrop
p253
sg223
I17
sg44
(lp254
I1095363701
asg35
VPT25.3733251S
p255
sg226
I3
sg227
VP0DT0H0M5.0500S
p256
sg39
(dp257
g41
VALG RyaNoob
p258
sg43
Nssa(dp259
g38
I4096745987
sg32
VWeaponDrop
p260
sg223
I0
sg44
(lp261
I2758383128
asg35
VPT25.3753252S
p262
sg226
I0
sg227
VP0DT0H0M3.8333S
p263
sg39
(dp264
g41
VALG RyaNoob
p265
sg43
Nssa(dp266
g38
I2492868984
sg39
(dp267
g41
VRNG Ninja HCS
p268
sg43
Nssg44
(lp269
I2758383128
asg32
VWeaponPickup
p270
sg35
VPT27.0163461S
p271
sa(dp272
g179
I313138863
sg180
I00
sg181
I00
sg182
(dp273
g41
VALG Goofy HCS
p274
sg43
Nssg185
(lp275
I1095363701
asg187
I00
sg188
I01
sg189
I1
sg190
I0
sg191
I1
sg192
(dp276
Vy
F3.1568230000000002
sVx
F3.0657637100000001
sVz
F5.0131230000000002
ssg194
(dp277
Vy
F0.0455153659
sVx
F5.2329689999999998
sVz
F3.7001571700000002
ssg196
I00
sg197
(dp278
g41
VRNG Penguin HCS
p279
sg43
Nssg200
(lp280
sg202
(lp281
(dp282
g41
VALG RyaNoob
p283
sg43
Nsasg206
I00
sg35
VPT27.7833559S
p284
sg32
VDeath
p285
sg209
I1
sa(dp286
g38
I313138863
sg32
VWeaponDrop
p287
sg223
I25
sg44
(lp288
I1095363701
asg35
VPT27.7923563S
p289
sg226
I14
sg227
VP0DT0H0M7.2500S
p290
sg39
(dp291
g41
VRNG Penguin HCS
p292
sg43
Nssa(dp293
g38
I4096745987
sg32
VWeaponDrop
p294
sg223
I0
sg44
(lp295
I2758383128
asg35
VPT27.7923563S
p296
sg226
I0
sg227
VP0DT0H0M4.0333S
p297
sg39
(dp298
g41
VRNG Penguin HCS
p299
sg43
Nssa(dp300
g38
I2492868984
sg32
VWeaponDrop
p301
sg223
I0
sg44
(lp302
I2758383128
asg35
VPT28.1523609S
p303
sg226
I0
sg227
VP0DT0H0M0.9833S
p304
sg39
(dp305
g41
VRNG Ninja HCS
p306
sg43
Nssa(dp307
g38
I2492868984
sg39
(dp308
g41
VALG ContrA HCS
p309
sg43
Nssg44
(lp310
I2758383128
asg32
VWeaponPickup
p311
sg35
VPT28.3823639S
p312
sa(dp313
g179
I4096745987
sg180
I00
sg181
I00
sg182
(dp314
g41
VALGPredevonator
p315
sg43
Nssg185
(lp316
I2758383128
asg187
I00
sg188
I01
sg189
I1
sg190
I0
sg191
I1
sg192
(dp317
Vy
F9.4130190000000002
sVx
F8.4664129999999993
sVz
F0.0045338870000000003
ssg194
(dp318
Vy
F1.97146606
sVx
F12.850481
sVz
F1.46059644
ssg196
I00
sg197
(dp319
g41
VRNG Commonly
p320
sg43
Nssg200
(lp321
sg202
(lp322
(dp323
g41
VALG ContrA HCS
p324
sg43
Nsasg206
I01
sg35
VPT29.0052645S
p325
sg32
VDeath
p326
sg209
I1
sa(dp327
g32
VMedal
p328
sg39
(dp329
g41
VALGPredevonator
p330
sg43
Nssg214
I2838259753
sg35
VPT29.0054645S
p331
sa(dp332
g32
VImpulse
p333
sg39
(dp334
g41
VALGPredevonator
p335
sg43
NssVImpulseId
p336
I2556889090
sg35
VPT29.0054645S
p337
sa(dp338
g32
VMedal
p339
sg39
(dp340
g41
VALGPredevonator
p341
sg43
Nssg214
I3261908037
sg35
VPT29.0063709S
p342
sa(dp343
g38
I313138863
sg32
VWeaponDrop
p344
sg223
I5
sg44
(lp345
I1095363701
asg35
VPT29.0063709S
p346
sg226
I3
sg227
VP0DT0H0M5.2000S
p347
sg39
(dp348
g41
VRNG Commonly
p349
sg43
Nssa(dp350
g38
I4096745987
sg32
VWeaponDrop
p351
sg223
I8
sg44
(lp352
I2758383128
asg35
VPT29.0063709S
p353
sg226
I3
sg227
VP0DT0H0M7.2833S
p354
sg39
(dp355
g41
VRNG Commonly
p356
sg43
Nssa(dp357
g38
I2492868984
sg32
VWeaponDrop
p358
sg223
I0
sg44
(lp359
I2758383128
asg35
VPT29.6863808S
p360
sg226
I0
sg227
VP0DT0H0M0.3833S
p361
sg39
(dp362
g41
VALG ContrA HCS
p363
sg43
Nssa(dp364
g38
I313138863
sg39
(dp365
g41
VRNG Victory X
p366
sg43
Nssg44
(lp367
I1095363701
asg32
VWeaponPickup
p368
sg35
VPT31.5514048S
p369
sa(dp370
g38
I4096745987
sg39
(dp371
g41
VRNG Victory X
p372
sg43
Nssg44
(lp373
I2758383128
asg32
VWeaponPickup
p374
sg35
VPT31.5514048S
p375
sa(dp376
g32
VPlayerSpawn
p377
sg39
(dp378
g41
VRNG Victory X
p379
sg43
Nssg35
VPT31.5514048S
p380
sa(dp381
g32
VMedal
p382
sg39
(dp383
g41
VALG Goofy HCS
p384
sg43
Nssg214
I3400287617
sg35
VPT31.9694095S
p385
sa(dp386
g38
I313138863
sg39
(dp387
g41
VALG RyaNoob
p388
sg43
Nssg44
(lp389
I1095363701
asg32
VWeaponPickup
p390
sg35
VPT33.5004299S
p391
sa(dp392
g38
I4096745987
sg39
(dp393
g41
VALG RyaNoob
p394
sg43
Nssg44
(lp395
I2758383128
asg32
VWeaponPickup
p396
sg35
VPT33.5004299S
p397
sa(dp398
g32
VPlayerSpawn
p399
sg39
(dp400
g41
VALG RyaNoob
p401
sg43
Nssg35
VPT33.5004299S
p402
sa(dp403
g38
I313138863
sg32
VWeaponDrop
p404
sg223
I0
sg44
(lp405
I1095363701
asg35
VPT33.5974301S
p406
sg226
I0
sg227
VP0DT0H0M1.5333S
p407
sg39
(dp408
g41
VALGPredevonator
p409
sg43
Nssa(dp410
g38
I723388907
sg39
(dp411
g41
VALGPredevonator
p412
sg43
Nssg44
(lp413
I89283061
asg32
VWeaponPickup
p414
sg35
VPT33.5974301S
p415
sa(dp416
g38
I313138863
sg32
VWeaponDrop
p417
sg223
I0
sg44
(lp418
I1095363701
asg35
VPT35.2998449S
p419
sg226
I0
sg227
VP0DT0H0M4.4667S
p420
sg39
(dp421
g41
VALG ContrA HCS
p422
sg43
Nssa(dp423
g38
I2902827823
sg39
(dp424
g41
VALG ContrA HCS
p425
sg43
Nssg44
(lp426
I2758383128
asg32
VWeaponPickupPad
p427
sg35
VPT35.2998449S
p428
sa(dp429
g38
I2902827823
sg39
(dp430
g41
VALG ContrA HCS
p431
sg43
Nssg44
(lp432
I2758383128
asg32
VWeaponPickup
p433
sg35
VPT35.301452S
p434
sa(dp435
g38
I313138863
sg39
(dp436
g41
VRNG Penguin HCS
p437
sg43
Nssg44
(lp438
I1095363701
asg32
VWeaponPickup
p439
sg35
VPT35.9044608S
p440
sa(dp441
g38
I4096745987
sg39
(dp442
g41
VRNG Penguin HCS
p443
sg43
Nssg44
(lp444
I2758383128
asg32
VWeaponPickup
p445
sg35
VPT35.9044608S
p446
sa(dp447
g32
VPlayerSpawn
p448
sg39
(dp449
g41
VRNG Penguin HCS
p450
sg43
Nssg35
VPT35.9044608S
p451
sa(dp452
g38
I313138863
sg32
VWeaponDrop
p453
sg223
I0
sg44
(lp454
I1095363701
asg35
VPT37.1144758S
p455
sg226
I0
sg227
VP0DT0H0M1.3833S
p456
sg39
(dp457
g41
VRNG Victory X
p458
sg43
Nssa(dp459
g38
I2015271382
sg39
(dp460
g41
VRNG Victory X
p461
sg43
Nssg44
(lp462
I2758383128
asg32
VWeaponPickup
p463
sg35
VPT37.1144758S
p464
sa(dp465
g38
I313138863
sg39
(dp466
g41
VRNG Commonly
p467
sg43
Nssg44
(lp468
I1095363701
asg32
VWeaponPickup
p469
sg35
VPT37.134476S
p470
sa(dp471
g38
I4096745987
sg39
(dp472
g41
VRNG Commonly
p473
sg43
Nssg44
(lp474
I2758383128
asg32
VWeaponPickup
p475
sg35
VPT37.134476S
p476
sa(dp477
g32
VPlayerSpawn
p478
sg39
(dp479
g41
VRNG Commonly
p480
sg43
Nssg35
VPT37.134476S
p481
sa(dp482
g179
I313138863
sg180
I00
sg181
I00
sg182
(dp483
g41
VRNG Ninja HCS
p484
sg43
Nssg185
(lp485
I1095363701
asg187
I00
sg188
I01
sg189
I1
sg190
I0
sg191
I1
sg192
(dp486
Vy
F5.0436553999999996
sVx
F0.87982249999999995
sVz
F0.0045416355100000002
ssg194
(dp487
Vy
F8.3724779999999992
sVx
F-0.86375844499999999
sVz
F1.38455689
ssg196
I00
sg197
(dp488
g41
VALG Goofy HCS
p489
sg43
Nssg200
(lp490
sg202
(lp491
sg206
I00
sg35
VPT37.3194785S
p492
sg32
VDeath
p493
sg209
I1
sa(dp494
g38
I313138863
sg32
VWeaponDrop
p495
sg223
I31
sg44
(lp496
I1095363701
asg35
VPT37.3214776S
p497
sg226
I13
sg227
VP0DT0H0M13.3667S
p498
sg39
(dp499
g41
VALG Goofy HCS
p500
sg43
Nssa(dp501
g38
I4096745987
sg32
VWeaponDrop
p502
sg223
I0
sg44
(lp503
I2758383128
asg35
VPT37.3214776S
p504
sg226
I0
sg227
VP0DT0H0M7.2667S
p505
sg39
(dp506
g41
VALG Goofy HCS
p507
sg43
Nssa(dp508
g32
VMedal
p509
sg39
(dp510
g41
VALGPredevonator
p511
sg43
Nssg214
I3565443938
sg35
VPT39.3565046S
p512
sa(dp513
g32
VMedal
p514
sg39
(dp515
g41
VALG RyaNoob
p516
sg43
Nssg214
I3565443938
sg35
VPT39.3565046S
p517
sa(dp518
g38
I4096745987
sg32
VWeaponDrop
p519
sg223
I5
sg44
(lp520
I2758383128
asg35
VPT42.5863111S
p521
sg226
I2
sg227
VP0DT0H0M17.0000S
p522
sg39
(dp523
g41
VRNG Ninja HCS
p524
sg43
Nssa(dp525
g38
I424645655
sg39
(dp526
g41
VRNG Ninja HCS
p527
sg43
Nssg44
(lp528
I1327094800
asg32
VWeaponPickup
p529
sg35
VPT42.5865453S
p530
sa(dp531
g179
I4096745987
sg180
I00
sg181
I00
sg182
(dp532
g41
VALG ContrA HCS
p533
sg43
Nssg185
(lp534
I2758383128
asg187
I00
sg188
I01
sg189
I1
sg190
I0
sg191
I1
sg192
(dp535
Vy
F-10.0958395
sVx
F8.6602399999999999
sVz
F3.1404116200000001
ssg194
(dp536
Vy
F-8.9468990000000002
sVx
F7.4168443699999997
sVz
F1.11156666
ssg196
I00
sg197
(dp537
g41
VRNG Commonly
p538
sg43
Nssg200
(lp539
sg202
(lp540
sg206
I01
sg35
VPT44.1535656S
p541
sg32
VDeath
p542
sg209
I1
sa(dp543
g32
VMedal
p544
sg39
(dp545
g41
VALG ContrA HCS
p546
sg43
Nssg214
I3261908037
sg35
VPT44.1545657S
p547
sa(dp548
g38
I313138863
sg32
VWeaponDrop
p549
sg223
I0
sg44
(lp550
I1095363701
asg35
VPT44.1555653S
p551
sg226
I0
sg227
VP0DT0H0M2.5000S
p552
sg39
(dp553
g41
VRNG Commonly
p554
sg43
Nssa(dp555
g38
I4096745987
sg32
VWeaponDrop
p556
sg223
I1
sg44
(lp557
I2758383128
asg35
VPT44.1555653S
p558
sg226
I0
sg227
VP0DT0H0M4.4667S
p559
sg39
(dp560
g41
VRNG Commonly
p561
sg43
Nssa(dp562
g179
I2015271382
sg180
I01
sg181
I00
sg182
(dp563
g41
VRNG Victory X
p564
sg43
Nssg185
(lp565
I2758383128
asg187
I00
sg188
I00
sg189
I1
sg190
I0
sg191
I1
sg192
(dp566
Vy
F-10.327077900000001
sVx
F9.7660490000000006
sVz
F3.0547173000000001
ssg194
(dp567
Vy
F-9.9753139999999991
sVx
F9.7371669999999995
sVz
F3.1403884899999999
ssg196
I00
sg197
(dp568
g41
VALG ContrA HCS
p569
sg43
Nssg200
(lp570
sg202
(lp571
sg206
I00
sg35
VPT44.8985751S
p572
sg32
VDeath
p573
sg209
I1
sa(dp574
g32
VMedal
p575
sg39
(dp576
g41
VRNG Victory X
p577
sg43
Nssg214
I2077162827
sg35
VPT44.9057521S
p578
sa(dp579
g38
I2902827823
sg32
VWeaponDrop
p580
sg223
I1
sg44
(lp581
I2758383128
asg35
VPT44.9058187S
p582
sg226
I1
sg227
VP0DT0H0M7.4500S
p583
sg39
(dp584
g41
VALG ContrA HCS
p585
sg43
Nssa(dp586
g38
I4096745987
sg32
VWeaponDrop
p587
sg223
I13
sg44
(lp588
I2758383128
asg35
VPT44.9075736S
p589
sg226
I5
sg227
VP0DT0H0M15.9000S
p590
sg39
(dp591
g41
VALG ContrA HCS
p592
sg43
Nssa(dp593
g38
I313138863
sg39
(dp594
g41
VALG Goofy HCS
p595
sg43
Nssg44
(lp596
I1095363701
asg32
VWeaponPickup
p597
sg35
VPT45.3845815S
p598
sa(dp599
g38
I4096745987
sg39
(dp600
g41
VALG Goofy HCS
p601
sg43
Nssg44
(lp602
I2758383128
asg32
VWeaponPickup
p603
sg35
VPT45.3845815S
p604
sa(dp605
g32
VPlayerSpawn
p606
sg39
(dp607
g41
VALG Goofy HCS
p608
sg43
Nssg35
VPT45.3855817S
p609
sa(dp610
g38
I2015271382
sg32
VWeaponDrop
p611
sg223
I5
sg44
(lp612
I2758383128
asg35
VPT45.7977452S
p613
sg226
I5
sg227
VP0DT0H0M4.2167S
p614
sg39
(dp615
g41
VRNG Victory X
p616
sg43
Nssa(dp617
g38
I2015271382
sg32
VWeaponDrop
p618
sg223
I0
sg44
(lp619
I2758383128
asg35
VPT45.7977452S
p620
sg226
I0
sg227
VP0DT0S
p621
sg39
(dp622
g41
VRNG Victory X
p623
sg43
Nssa(dp624
g38
I2902827823
sg39
(dp625
g41
VRNG Victory X
p626
sg43
Nssg44
(lp627
I2758383128
asg32
VWeaponPickup
p628
sg35
VPT45.7977452S
p629
sa(dp630
g179
I4096745987
sg180
I00
sg181
I00
sg182
(dp631
g41
VALG RyaNoob
p632
sg43
Nssg185
(lp633
I2758383128
asg187
I00
sg188
I01
sg189
I1
sg190
I0
sg191
I1
sg192
(dp634
Vy
F-7.9100227399999996
sVx
F12.24506
sVz
F3.1403884899999999
ssg194
(dp635
Vy
F-7.5199222600000004
sVx
F10.4497938
sVz
F3.1403884899999999
ssg196
I00
sg197
(dp636
g41
VRNG Penguin HCS
p637
sg43
Nssg200
(lp638
sg202
(lp639
sg206
I00
sg35
VPT47.5646091S
p640
sg32
VDeath
p641
sg209
I1
sa(dp642
g38
I313138863
sg32
VWeaponDrop
p643
sg223
I0
sg44
(lp644
I1095363701
asg35
VPT47.5666089S
p645
sg226
I0
sg227
VP0DT0H0M7.9000S
p646
sg39
(dp647
g41
VRNG Penguin HCS
p648
sg43
Nssa(dp649
g38
I4096745987
sg32
VWeaponDrop
p650
sg223
I1
sg44
(lp651
I2758383128
asg35
VPT47.5666089S
p652
sg226
I0
sg227
VP0DT0H0M3.7000S
p653
sg39
(dp654
g41
VRNG Penguin HCS
p655
sg43
Nssa(dp656
g179
I2902827823
sg180
I00
sg181
I00
sg182
(dp657
g41
VRNG Victory X
p658
sg43
Nssg185
(lp659
I2758383128
asg187
I00
sg188
I01
sg189
I1
sg190
I0
sg191
I1
sg192
(dp660
Vy
F-9.3547740000000008
sVx
F9.8353780000000004
sVz
F3.86603546
ssg194
(dp661
Vy
F-7.9100227399999996
sVx
F12.24506
sVz
F3.1403884899999999
ssg196
I00
sg197
(dp662
g41
VALG RyaNoob
p663
sg43
Nssg200
(lp664
sg202
(lp665
sg206
I00
sg35
VPT47.5737158S
p666
sg32
VDeath
p667
sg209
I1
sa(dp668
g32
VMedal
p669
sg39
(dp670
g41
VRNG Victory X
p671
sg43
Nssg214
I2078758684
sg35
VPT47.5746094S
p672
sa(dp673
g38
I313138863
sg32
VWeaponDrop
p674
sg223
I0
sg44
(lp675
I1095363701
asg35
VPT47.5756092S
p676
sg226
I0
sg227
VP0DT0H0M0.6833S
p677
sg39
(dp678
g41
VALG RyaNoob
p679
sg43
Nssa(dp680
g38
I4096745987
sg32
VWeaponDrop
p681
sg223
I7
sg44
(lp682
I2758383128
asg35
VPT47.5756092S
p683
sg226
I1
sg227
VP0DT0H0M13.3333S
p684
sg39
(dp685
g41
VALG RyaNoob
p686
sg43
Nssa(dp687
g179
I723388907
sg180
I00
sg181
I01
sg182
(dp688
g41
VALGPredevonator
p689
sg43
Nssg185
(lp690
I89283061
asg187
I00
sg188
I00
sg189
I1
sg190
I0
sg191
I1
sg192
(dp691
Vy
F-0.203705415
sVx
F4.4060379999999997
sVz
F3.8083591499999998
ssg194
(dp692
Vy
F0.1902701
sVx
F4.2237963699999996
sVz
F3.7001571700000002
ssg196
I00
sg197
(dp693
g41
VRNG Ninja HCS
p694
sg43
Nssg200
(lp695
sg202
(lp696
sg206
I00
sg35
VPT50.4666466S
p697
sg32
VDeath
p698
sg209
I1
sa(dp699
g32
VMedal
p700
sg39
(dp701
g41
VALGPredevonator
p702
sg43
Nssg214
I2287626681
sg35
VPT50.4676461S
p703
sa(dp704
g38
I424645655
sg32
VWeaponDrop
p705
sg223
I6
sg44
(lp706
I1327094800
asg35
VPT50.4676461S
p707
sg226
I3
sg227
VP0DT0H0M7.8833S
p708
sg39
(dp709
g41
VRNG Ninja HCS
p710
sg43
Nssa(dp711
g38
I424645655
sg32
VWeaponDrop
p712
sg223
I0
sg44
(lp713
I1327094800
asg35
VPT50.4676461S
p714
sg226
I0
sg227
VP0DT0S
p715
sg39
(dp716
g41
VRNG Ninja HCS
p717
sg43
Nssa(dp718
g38
I313138863
sg32
VWeaponDrop
p719
sg223
I8
sg44
(lp720
I1095363701
asg35
VPT50.4756447S
p721
sg226
I5
sg227
VP0DT0H0M7.9667S
p722
sg39
(dp723
g41
VRNG Ninja HCS
p724
sg43
Nssa(dp725
g38
I313138863
sg32
VWeaponDrop
p726
sg223
I0
sg44
(lp727
I1095363701
asg35
VPT50.4756447S
p728
sg226
I0
sg227
VP0DT0S
p729
sg39
(dp730
g41
VRNG Ninja HCS
p731
sg43
Nssa(dp732
g38
I313138863
sg39
(dp733
g41
VRNG Commonly
p734
sg43
Nssg44
(lp735
I1095363701
asg32
VWeaponPickup
p736
sg35
VPT52.1646682S
p737
sa(dp738
g38
I4096745987
sg39
(dp739
g41
VRNG Commonly
p740
sg43
Nssg44
(lp741
I2758383128
asg32
VWeaponPickup
p742
sg35
VPT52.1656684S
p743
sa(dp744
g32
VPlayerSpawn
p745
sg39
(dp746
g41
VRNG Commonly
p747
sg43
Nssg35
VPT52.1656684S
p748
sa(dp749
g179
I424645655
sg180
I00
sg181
I01
sg182
(dp750
g41
VRNG Ninja HCS
p751
sg43
Nssg185
(lp752
I1327094800
asg187
I00
sg188
I00
sg189
I1
sg190
I0
sg191
I1
sg192
(dp753
Vy
F1.2678594599999999
sVx
F1.67113209
sVz
F3.1882662800000001
ssg194
(dp754
Vy
F2.0968819999999999
sVx
F4.72750425
sVz
F3.7001574000000002
ssg196
I00
sg197
(dp755
g41
VALGPredevonator
p756
sg43
Nssg200
(lp757
sg202
(lp758
sg206
I00
sg35
VPT52.301669S
p759
sg32
VDeath
p760
sg209
I1
sa(dp761
g32
VMedal
p762
sg39
(dp763
g41
VRNG Ninja HCS
p764
sg43
Nssg214
I2287626681
sg35
VPT52.3026696S
p765
sa(dp766
g32
VMedal
p767
sg39
(dp768
g41
VRNG Ninja HCS
p769
sg43
Nssg214
I285057226
sg35
VPT52.3026696S
p770
sa(dp771
g38
I723388907
sg32
VWeaponDrop
p772
sg223
I15
sg44
(lp773
I89283061
asg35
VPT52.3036702S
p774
sg226
I6
sg227
VP0DT0H0M6.3000S
p775
sg39
(dp776
g41
VALGPredevonator
p777
sg43
Nssa(dp778
g38
I723388907
sg32
VWeaponDrop
p779
sg223
I0
sg44
(lp780
I89283061
asg35
VPT52.3036702S
p781
sg226
I0
sg227
VP0DT0S
p782
sg39
(dp783
g41
VALGPredevonator
p784
sg43
Nssa(dp785
g38
I4096745987
sg32
VWeaponDrop
p786
sg223
I15
sg44
(lp787
I2758383128
asg35
VPT52.3036702S
p788
sg226
I5
sg227
VP0DT0H0M27.7500S
p789
sg39
(dp790
g41
VALGPredevonator
p791
sg43
Nssa(dp792
g38
I313138863
sg39
(dp793
g41
VALG ContrA HCS
p794
sg43
Nssg44
(lp795
I1095363701
asg32
VWeaponPickup
p796
sg35
VPT52.9212316S
p797
sa(dp798
g38
I4096745987
sg39
(dp799
g41
VALG ContrA HCS
p800
sg43
Nssg44
(lp801
I2758383128
asg32
VWeaponPickup
p802
sg35
VPT52.9216782S
p803
sa(dp804
g32
VPlayerSpawn
p805
sg39
(dp806
g41
VALG ContrA HCS
p807
sg43
Nssg35
VPT52.9216782S
p808
sa(dp809
g38
I313138863
sg39
(dp810
g41
VRNG Penguin HCS
p811
sg43
Nssg44
(lp812
I1095363701
asg32
VWeaponPickup
p813
sg35
VPT55.5817122S
p814
sa(dp815
g38
I4096745987
sg39
(dp816
g41
VRNG Penguin HCS
p817
sg43
Nssg44
(lp818
I2758383128
asg32
VWeaponPickup
p819
sg35
VPT55.5827121S
p820
sa(dp821
g32
VPlayerSpawn
p822
sg39
(dp823
g41
VRNG Penguin HCS
p824
sg43
Nssg35
VPT55.5827121S
p825
sa(dp826
g38
I313138863
sg39
(dp827
g41
VALG RyaNoob
p828
sg43
Nssg44
(lp829
I1095363701
asg32
VWeaponPickup
p830
sg35
VPT55.6207129S
p831
sa(dp832
g38
I4096745987
sg39
(dp833
g41
VALG RyaNoob
p834
sg43
Nssg44
(lp835
I2758383128
asg32
VWeaponPickup
p836
sg35
VPT55.6207129S
p837
sa(dp838
g32
VPlayerSpawn
p839
sg39
(dp840
g41
VALG RyaNoob
p841
sg43
Nssg35
VPT55.6207129S
p842
sa(dp843
g38
I313138863
sg32
VWeaponDrop
p844
sg223
I0
sg44
(lp845
I1095363701
asg35
VPT56.3297196S
p846
sg226
I0
sg227
VP0DT0H0M0.7167S
p847
sg39
(dp848
g41
VALG ContrA HCS
p849
sg43
Nssa(dp850
g38
I723388907
sg39
(dp851
g41
VALG ContrA HCS
p852
sg43
Nssg44
(lp853
I89283061
asg32
VWeaponPickup
p854
sg35
VPT56.3307217S
p855
sa(dp856
g38
I313138863
sg39
(dp857
g41
VRNG Ninja HCS
p858
sg43
Nssg44
(lp859
I1095363701
asg32
VWeaponPickup
p860
sg35
VPT58.4877496S
p861
sa(dp862
g38
I4096745987
sg39
(dp863
g41
VRNG Ninja HCS
p864
sg43
Nssg44
(lp865
I2758383128
asg32
VWeaponPickup
p866
sg35
VPT58.4877496S
p867
sa(dp868
g32
VPlayerSpawn
p869
sg39
(dp870
g41
VRNG Ninja HCS
p871
sg43
Nssg35
VPT58.4877496S
p872
sa(dp873
g179
I2460880172
sg180
I00
sg181
I00
sg182
(dp874
g41
VALG Goofy HCS
p875
sg43
Nssg185
(lp876
sg187
I00
sg188
I01
sg189
I1
sg190
I0
sg191
I1
sg192
(dp877
Vy
F-10.84909
sVx
F9.61538
sVz
F3.0041829999999998
ssg194
(dp878
Vy
F-12.645304700000001
sVx
F9.2347889999999992
sVz
F2.8379699999999999
ssg196
I00
sg197
(dp879
g41
VRNG Penguin HCS
p880
sg43
Nssg200
(lp881
sg202
(lp882
sg206
I00
sg35
VPT59.3817604S
p883
sg32
VDeath
p884
sg209
I1
sa(dp885
g32
VMedal
p886
sg39
(dp887
g41
VALG Goofy HCS
p888
sg43
Nssg214
I2251767925
sg35
VPT59.3827602S
p889
sa(dp890
g38
I313138863
sg32
VWeaponDrop
p891
sg223
I6
sg44
(lp892
I1095363701
asg35
VPT59.3895727S
p893
sg226
I5
sg227
VP0DT0H0M3.1333S
p894
sg39
(dp895
g41
VRNG Penguin HCS
p896
sg43
Nssa(dp897
g38
I4096745987
sg32
VWeaponDrop
p898
sg223
I0
sg44
(lp899
I2758383128
asg35
VPT59.3895727S
p900
sg226
I0
sg227
VP0DT0H0M0.6667S
p901
sg39
(dp902
g41
VRNG Penguin HCS
p903
sg43
Nssa(dp904
g179
I313138863
sg180
I00
sg181
I00
sg182
(dp905
g41
VRNG Penguin HCS
p906
sg43
Nssg185
(lp907
I1095363701
asg187
I00
sg188
I01
sg189
I1
sg190
I0
sg191
I1
sg192
(dp908
Vy
F-12.645304700000001
sVx
F9.2347889999999992
sVz
F2.9035700000000002
ssg194
(dp909
Vy
F-10.84909
sVx
F9.61538
sVz
F3.0041829999999998
ssg196
I00
sg197
(dp910
g41
VALG Goofy HCS
p911
sg43
Nssg200
(lp912
sg202
(lp913
(dp914
g41
VRNG Commonly
p915
sg43
Nsasg206
I00
sg35
VPT59.3897594S
p916
sg32
VDeath
p917
sg209
I1
sa(dp918
g38
I313138863
sg32
VWeaponDrop
p919
sg223
I1
sg44
(lp920
I1095363701
asg35
VPT59.3917605S
p921
sg226
I1
sg227
VP0DT0H0M5.1000S
p922
sg39
(dp923
g41
VALG Goofy HCS
p924
sg43
Nssa(dp925
g38
I4096745987
sg32
VWeaponDrop
p926
sg223
I3
sg44
(lp927
I2758383128
asg35
VPT59.3917605S
p928
sg226
I1
sg227
VP0DT0H0M8.9000S
p929
sg39
(dp930
g41
VALG Goofy HCS
p931
sg43
Nssa(dp932
g38
I313138863
sg39
(dp933
g41
VALGPredevonator
p934
sg43
Nssg44
(lp935
I1095363701
asg32
VWeaponPickup
p936
sg35
VPT1M0.3187737S
p937
sa(dp938
g38
I4096745987
sg39
(dp939
g41
VALGPredevonator
p940
sg43
Nssg44
(lp941
I2758383128
asg32
VWeaponPickup
p942
sg35
VPT1M0.3187737S
p943
sa(dp944
g32
VPlayerSpawn
p945
sg39
(dp946
g41
VALGPredevonator
p947
sg43
Nssg35
VPT1M0.3187737S
p948
sa(dp949
g179
I2902827823
sg180
I00
sg181
I00
sg182
(dp950
g41
VRNG Victory X
p951
sg43
Nssg185
(lp952
I2758383128
asg187
I00
sg188
I01
sg189
I1
sg190
I0
sg191
I1
sg192
(dp953
Vy
F-3.5694232000000001
sVx
F24.355194099999999
sVz
F2.4574885399999999
ssg194
(dp954
Vy
F-3.3897040000000001
sVx
F20.732067099999998
sVz
F3.28836751
ssg196
I00
sg197
(dp955
g41
VALG RyaNoob
p956
sg43
Nssg200
(lp957
sg202
(lp958
sg206
I00
sg35
VPT1M3.7698169S
p959
sg32
VDeath
p960
sg209
I1
sa(dp961
g38
I313138863
sg32
VWeaponDrop
p962
sg223
I6
sg44
(lp963
I1095363701
asg35
VPT1M3.7708165S
p964
sg226
I4
sg227
VP0DT0H0M3.4000S
p965
sg39
(dp966
g41
VALG RyaNoob
p967
sg43
Nssa(dp968
g38
I4096745987
sg32
VWeaponDrop
p969
sg223
I0
sg44
(lp970
I2758383128
asg35
VPT1M3.7708165S
p971
sg226
I0
sg227
VP0DT0H0M4.7500S
p972
sg39
(dp973
g41
VALG RyaNoob
p974
sg43
Nssa(dp975
g179
I4096745987
sg180
I00
sg181
I00
sg182
(dp976
g41
VALG ContrA HCS
p977
sg43
Nssg185
(lp978
I2758383128
asg187
I00
sg188
I01
sg189
I1
sg190
I0
sg191
I1
sg192
(dp979
Vy
F-9.6790789999999998
sVx
F13.8785191
sVz
F3.23463368
ssg194
(dp980
Vy
F-3.82647848
sVx
F22.8308754
sVz
F2.7129738300000001
ssg196
I00
sg197
(dp981
g41
VRNG Victory X
p982
sg43
Nssg200
(lp983
sg202
(lp984
(dp985
g41
VALG RyaNoob
p986
sg43
Nsasg206
I01
sg35
VPT1M6.0498457S
p987
sg32
VDeath
p988
sg209
I1
sa(dp989
g32
VMedal
p990
sg39
(dp991
g41
VALG ContrA HCS
p992
sg43
Nssg214
I3261908037
sg35
VPT1M6.0518452S
p993
sa(dp994
g38
I2902827823
sg32
VWeaponDrop
p995
sg223
I3
sg44
(lp996
I2758383128
asg35
VPT1M6.0518452S
p997
sg226
I2
sg227
VP0DT0H0M9.6500S
p998
sg39
(dp999
g41
VRNG Victory X
p1000
sg43
Nssa(dp1001
g38
I4096745987
sg32
VWeaponDrop
p1002
sg223
I5
sg44
(lp1003
I2758383128
asg35
VPT1M6.0518452S
p1004
sg226
I0
sg227
VP0DT0H0M19.2000S
p1005
sg39
(dp1006
g41
VRNG Victory X
p1007
sg43
Nssa(dp1008
g38
I313138863
sg39
(dp1009
g41
VRNG Penguin HCS
p1010
sg43
Nssg44
(lp1011
I1095363701
asg32
VWeaponPickup
p1012
sg35
VPT1M7.4038638S
p1013
sa(dp1014
g38
I4096745987
sg39
(dp1015
g41
VRNG Penguin HCS
p1016
sg43
Nssg44
(lp1017
I2758383128
asg32
VWeaponPickup
p1018
sg35
VPT1M7.4048671S
p1019
sa(dp1020
g32
VPlayerSpawn
p1021
sg39
(dp1022
g41
VRNG Penguin HCS
p1023
sg43
Nssg35
VPT1M7.4048671S
p1024
sa(dp1025
g38
I313138863
sg39
(dp1026
g41
VALG Goofy HCS
p1027
sg43
Nssg44
(lp1028
I1095363701
asg32
VWeaponPickup
p1029
sg35
VPT1M7.433864S
p1030
sa(dp1031
g38
I4096745987
sg39
(dp1032
g41
VALG Goofy HCS
p1033
sg43
Nssg44
(lp1034
I2758383128
asg32
VWeaponPickup
p1035
sg35
VPT1M7.433864S
p1036
sa(dp1037
g32
VPlayerSpawn
p1038
sg39
(dp1039
g41
VALG Goofy HCS
p1040
sg43
Nssg35
VPT1M7.433864S
p1041
sa(dp1042
g38
I313138863
sg39
(dp1043
g41
VALG RyaNoob
p1044
sg43
Nssg44
(lp1045
I1095363701
asg32
VWeaponPickup
p1046
sg35
VPT1M11.78792S
p1047
sa(dp1048
g38
I4096745987
sg39
(dp1049
g41
VALG RyaNoob
p1050
sg43
Nssg44
(lp1051
I2758383128
asg32
VWeaponPickup
p1052
sg35
VPT1M11.78792S
p1053
sa(dp1054
g32
VPlayerSpawn
p1055
sg39
(dp1056
g41
VALG RyaNoob
p1057
sg43
Nssg35
VPT1M11.78792S
p1058
sa(dp1059
g179
I4106030681
sg180
I00
sg181
I00
sg182
(dp1060
g41
VRNG Ninja HCS
p1061
sg43
Nssg185
(lp1062
sg187
I00
sg188
I01
sg189
I1
sg190
I0
sg191
I1
sg192
(dp1063
Vy
F10.756690000000001
sVx
F15.813370000000001
sVz
F1.605896
ssg194
(dp1064
Vy
F-10.9320126
sVx
F9.7934739999999998
sVz
F3.0112739999999998
ssg196
I00
sg197
(dp1065
g41
VALG ContrA HCS
p1066
sg43
Nssg200
(lp1067
sg202
(lp1068
(dp1069
g41
VRNG Penguin HCS
p1070
sg43
Nsasg206
I00
sg35
VPT1M12.5707471S
p1071
sg32
VDeath
p1072
sg209
I1
sa(dp1073
g32
VMedal
p1074
sg39
(dp1075
g41
VRNG Ninja HCS
p1076
sg43
Nssg214
I3491849182
sg35
VPT1M12.5719289S
p1077
sa(dp1078
g38
I4096745987
sg32
VWeaponDrop
p1079
sg223
I6
sg44
(lp1080
I2758383128
asg35
VPT1M12.5719289S
p1081
sg226
I4
sg227
VP0DT0H0M15.4500S
p1082
sg39
(dp1083
g41
VALG ContrA HCS
p1084
sg43
Nssa(dp1085
g38
I723388907
sg32
VWeaponDrop
p1086
sg223
I0
sg44
(lp1087
I89283061
asg35
VPT1M12.5729298S
p1088
sg226
I0
sg227
VP0DT0H0M3.4833S
p1089
sg39
(dp1090
g41
VALG ContrA HCS
p1091
sg43
Nssa(dp1092
g32
VMedal
p1093
sg39
(dp1094
g41
VRNG Ninja HCS
p1095
sg43
Nssg214
I3565443938
sg35
VPT1M12.9179339S
p1096
sa(dp1097
g32
VMedal
p1098
sg39
(dp1099
g41
VRNG Commonly
p1100
sg43
Nssg214
I3565443938
sg35
VPT1M12.9179339S
p1101
sa(dp1102
g38
I313138863
sg39
(dp1103
g41
VRNG Victory X
p1104
sg43
Nssg44
(lp1105
I1095363701
asg32
VWeaponPickup
p1106
sg35
VPT1M14.0649494S
p1107
sa(dp1108
g38
I4096745987
sg39
(dp1109
g41
VRNG Victory X
p1110
sg43
Nssg44
(lp1111
I2758383128
asg32
VWeaponPickup
p1112
sg35
VPT1M14.0649494S
p1113
sa(dp1114
g32
VPlayerSpawn
p1115
sg39
(dp1116
g41
VRNG Victory X
p1117
sg43
Nssg35
VPT1M14.0649494S
p1118
sa(dp1119
g179
I313138863
sg180
I00
sg181
I00
sg182
(dp1120
g41
VALG RyaNoob
p1121
sg43
Nssg185
(lp1122
I1095363701
asg187
I00
sg188
I01
sg189
I1
sg190
I0
sg191
I1
sg192
(dp1123
Vy
F-7.806978
sVx
F9.4715720000000001
sVz
F3.1403884899999999
ssg194
(dp1124
Vy
F-9.2758950000000002
sVx
F14.3466053
sVz
F2.86827326
ssg196
I00
sg197
(dp1125
g41
VRNG Penguin HCS
p1126
sg43
Nssg200
(lp1127
sg202
(lp1128
(dp1129
g41
VALG ContrA HCS
p1130
sg43
Nsa(dp1131
g41
VALGPredevonator
p1132
sg43
Nsasg206
I00
sg35
VPT1M16.9829864S
p1133
sg32
VDeath
p1134
sg209
I1
sa(dp1135
g38
I313138863
sg32
VWeaponDrop
p1136
sg223
I5
sg44
(lp1137
I1095363701
asg35
VPT1M16.9909856S
p1138
sg226
I2
sg227
VP0DT0H0M3.4000S
p1139
sg39
(dp1140
g41
VRNG Penguin HCS
p1141
sg43
Nssa(dp1142
g38
I4096745987
sg32
VWeaponDrop
p1143
sg223
I6
sg44
(lp1144
I2758383128
asg35
VPT1M16.9909856S
p1145
sg226
I2
sg227
VP0DT0H0M6.1833S
p1146
sg39
(dp1147
g41
VRNG Penguin HCS
p1148
sg43
Nssa(dp1149
g32
VMedal
p1150
sg39
(dp1151
g41
VALG RyaNoob
p1152
sg43
Nssg214
I3565443938
sg35
VPT1M18.4653889S
p1153
sa(dp1154
g32
VMedal
p1155
sg39
(dp1156
g41
VALG Goofy HCS
p1157
sg43
Nssg214
I1637841390
sg35
VPT1M18.4660044S
p1158
sa(dp1159
g32
VMedal
p1160
sg39
(dp1161
g41
VALG ContrA HCS
p1162
sg43
Nssg214
I1637841390
sg35
VPT1M18.4660044S
p1163
sa(dp1164
g179
I4096745987
sg180
I00
sg181
I00
sg182
(dp1165
g41
VRNG Ninja HCS
p1166
sg43
Nssg185
(lp1167
I2758383128
asg187
I00
sg188
I01
sg189
I1
sg190
I0
sg191
I1
sg192
(dp1168
Vy
F4.0136494599999999
sVx
F9.8406110000000009
sVz
F2.4213445199999999
ssg194
(dp1169
Vy
F-13.306253399999999
sVx
F0.25397002699999999
sVz
F1.80000162
ssg196
I00
sg197
(dp1170
g41
VALGPredevonator
p1171
sg43
Nssg200
(lp1172
sg202
(lp1173
(dp1174
g41
VRNG Commonly
p1175
sg43
Nsasg206
I00
sg35
VPT1M19.3340156S
p1176
sg32
VDeath
p1177
sg209
I1
sa(dp1178
g38
I313138863
sg32
VWeaponDrop
p1179
sg223
I0
sg44
(lp1180
I1095363701
asg35
VPT1M19.3360232S
p1181
sg226
I0
sg227
VP0DT0H0M2.0000S
p1182
sg39
(dp1183
g41
VALGPredevonator
p1184
sg43
Nssa(dp1185
g38
I4096745987
sg32
VWeaponDrop
p1186
sg223
I2
sg44
(lp1187
I2758383128
asg35
VPT1M19.3360232S
p1188
sg226
I0
sg227
VP0DT0H0M17.0167S
p1189
sg39
(dp1190
g41
VALGPredevonator
p1191
sg43
Nssa(dp1192
g38
I313138863
sg39
(dp1193
g41
VALG ContrA HCS
p1194
sg43
Nssg44
(lp1195
I1095363701
asg32
VWeaponPickup
p1196
sg35
VPT1M20.581032S
p1197
sa(dp1198
g38
I4096745987
sg39
(dp1199
g41
VALG ContrA HCS
p1200
sg43
Nssg44
(lp1201
I2758383128
asg32
VWeaponPickup
p1202
sg35
VPT1M20.5820322S
p1203
sa(dp1204
g32
VPlayerSpawn
p1205
sg39
(dp1206
g41
VALG ContrA HCS
p1207
sg43
Nssg35
VPT1M20.5820322S
p1208
sa(dp1209
g179
I4096745987
sg180
I00
sg181
I00
sg182
(dp1210
g41
VRNG Ninja HCS
p1211
sg43
Nssg185
(lp1212
I2758383128
asg187
I00
sg188
I01
sg189
I1
sg190
I0
sg191
I1
sg192
(dp1213
Vy
F4.1184296600000003
sVx
F10.5265808
sVz
F2.3947765799999998
ssg194
(dp1214
Vy
F-6.0412902800000001
sVx
F5.3140970000000003
sVz
F1.4690647100000001
ssg196
I00
sg197
(dp1215
g41
VALG Goofy HCS
p1216
sg43
Nssg200
(lp1217
sg202
(lp1218
(dp1219
g41
VRNG Victory X
p1220
sg43
Nsasg206
I01
sg35
VPT1M22.1000527S
p1221
sg32
VDeath
p1222
sg209
I1
sa(dp1223
g32
VMedal
p1224
sg39
(dp1225
g41
VRNG Ninja HCS
p1226
sg43
Nssg214
I2838259753
sg35
VPT1M22.1000527S
p1227
sa(dp1228
g32
VImpulse
p1229
sg39
(dp1230
g41
VRNG Ninja HCS
p1231
sg43
Nssg336
I2556889090
sg35
VPT1M22.1000527S
p1232
sa(dp1233
g32
VMedal
p1234
sg39
(dp1235
g41
VRNG Commonly
p1236
sg43
Nssg214
I824733727
sg35
VPT1M22.1000527S
p1237
sa(dp1238
g32
VMedal
p1239
sg39
(dp1240
g41
VRNG Ninja HCS
p1241
sg43
Nssg214
I3261908037
sg35
VPT1M22.1010519S
p1242
sa(dp1243
g32
VMedal
p1244
sg39
(dp1245
g41
VRNG Ninja HCS
p1246
sg43
Nssg214
I2078758684
sg35
VPT1M22.1020514S
p1247
sa(dp1248
g38
I313138863
sg32
VWeaponDrop
p1249
sg223
I0
sg44
(lp1250
I1095363701
asg35
VPT1M22.1020514S
p1251
sg226
I0
sg227
VP0DT0H0M0.7333S
p1252
sg39
(dp1253
g41
VALG Goofy HCS
p1254
sg43
Nssa(dp1255
g38
I4096745987
sg32
VWeaponDrop
p1256
sg223
I7
sg44
(lp1257
I2758383128
asg35
VPT1M22.1020514S
p1258
sg226
I4
sg227
VP0DT0H0M13.9333S
p1259
sg39
(dp1260
g41
VALG Goofy HCS
p1261
sg43
Nssa(dp1262
g179
I4096745987
sg180
I00
sg181
I00
sg182
(dp1263
g41
VALG ContrA HCS
p1264
sg43
Nssg185
(lp1265
I2758383128
asg187
I00
sg188
I01
sg189
I1
sg190
I0
sg191
I1
sg192
(dp1266
Vy
F-7.8449916799999997
sVx
F0.81734770000000001
sVz
F2.7219154799999998
ssg194
(dp1267
Vy
F-0.4729449
sVx
F9.2213460000000005
sVz
F3.4597647199999999
ssg196
I00
sg197
(dp1268
g41
VRNG Commonly
p1269
sg43
Nssg200
(lp1270
sg202
(lp1271
(dp1272
g41
VALG Goofy HCS
p1273
sg43
Nsasg206
I01
sg35
VPT1M23.5980707S
p1274
sg32
VDeath
p1275
sg209
I1
sa(dp1276
g32
VMedal
p1277
sg39
(dp1278
g41
VALG ContrA HCS
p1279
sg43
Nssg214
I3261908037
sg35
VPT1M23.6050701S
p1280
sa(dp1281
g38
I313138863
sg32
VWeaponDrop
p1282
sg223
I5
sg44
(lp1283
I1095363701
asg35
VPT1M23.6050701S
p1284
sg226
I0
sg227
VP0DT0H0M6.6500S
p1285
sg39
(dp1286
g41
VRNG Commonly
p1287
sg43
Nssa(dp1288
g38
I4096745987
sg32
VWeaponDrop
p1289
sg223
I17
sg44
(lp1290
I2758383128
asg35
VPT1M23.6050701S
p1291
sg226
I7
sg227
VP0DT0H0M24.7833S
p1292
sg39
(dp1293
g41
VRNG Commonly
p1294
sg43
Nssa(dp1295
g179
I4096745987
sg180
I00
sg181
I00
sg182
(dp1296
g41
VRNG Ninja HCS
p1297
sg43
Nssg185
(lp1298
I2758383128
asg187
I00
sg188
I01
sg189
I1
sg190
I0
sg191
I1
sg192
(dp1299
Vy
F-0.71988770000000002
sVx
F9.8432539999999999
sVz
F2.39467645
ssg194
(dp1300
Vy
F-6.5295763000000004
sVx
F0.28221517800000001
sVz
F2.2131726700000001
ssg196
I00
sg197
(dp1301
g41
VALG ContrA HCS
p1302
sg43
Nssg200
(lp1303
sg202
(lp1304
(dp1305
g41
VRNG Victory X
p1306
sg43
Nsasg206
I01
sg35
VPT1M24.2350781S
p1307
sg32
VDeath
p1308
sg209
I1
sa(dp1309
g32
VMedal
p1310
sg39
(dp1311
g41
VRNG Ninja HCS
p1312
sg43
Nssg214
I3261908037
sg35
VPT1M24.2360789S
p1313
sa(dp1314
g32
VMedal
p1315
sg39
(dp1316
g41
VRNG Ninja HCS
p1317
sg43
Nssg214
I2430242797
sg35
VPT1M24.2360789S
p1318
sa(dp1319
g32
VMedal
p1320
sg39
(dp1321
g41
VRNG Ninja HCS
p1322
sg43
Nssg214
I2763748638
sg35
VPT1M24.2370782S
p1323
sa(dp1324
g38
I313138863
sg32
VWeaponDrop
p1325
sg223
I0
sg44
(lp1326
I1095363701
asg35
VPT1M24.2434789S
p1327
sg226
I0
sg227
VP0DT0H0M0.4167S
p1328
sg39
(dp1329
g41
VALG ContrA HCS
p1330
sg43
Nssa(dp1331
g38
I4096745987
sg32
VWeaponDrop
p1332
sg223
I3
sg44
(lp1333
I2758383128
asg35
VPT1M24.2434789S
p1334
sg226
I1
sg227
VP0DT0H0M3.2333S
p1335
sg39
(dp1336
g41
VALG ContrA HCS
p1337
sg43
Nssa(dp1338
g38
I313138863
sg39
(dp1339
g41
VRNG Penguin HCS
p1340
sg43
Nssg44
(lp1341
I1095363701
asg32
VWeaponPickup
p1342
sg35
VPT1M24.9980888S
p1343
sa(dp1344
g38
I4096745987
sg39
(dp1345
g41
VRNG Penguin HCS
p1346
sg43
Nssg44
(lp1347
I2758383128
asg32
VWeaponPickup
p1348
sg35
VPT1M24.9980888S
p1349
sa(dp1350
g32
VPlayerSpawn
p1351
sg39
(dp1352
g41
VRNG Penguin HCS
p1353
sg43
Nssg35
VPT1M24.9980888S
p1354
sa(dp1355
g38
I4096745987
sg32
VWeaponDrop
p1356
sg223
I8
sg44
(lp1357
I2758383128
asg35
VPT1M25.1848826S
p1358
sg226
I5
sg227
VP0DT0H0M10.7833S
p1359
sg39
(dp1360
g41
VRNG Victory X
p1361
sg43
Nssa(dp1362
g38
I424645655
sg39
(dp1363
g41
VRNG Victory X
p1364
sg43
Nssg44
(lp1365
I1327094800
asg32
VWeaponPickup
p1366
sg35
VPT1M25.1850905S
p1367
sa(dp1368
g38
I4096745987
sg32
VWeaponDrop
p1369
sg223
I0
sg44
(lp1370
I2758383128
asg35
VPT1M27.0355876S
p1371
sg226
I0
sg227
VP0DT0H0M0.6333S
p1372
sg39
(dp1373
g41
VRNG Penguin HCS
p1374
sg43
Nssa(dp1375
g38
I424645655
sg39
(dp1376
g41
VRNG Penguin HCS
p1377
sg43
Nssg44
(lp1378
I1327094800
asg32
VWeaponPickup
p1379
sg35
VPT1M27.0356545S
p1380
sa(dp1381
g38
I313138863
sg39
(dp1382
g41
VALGPredevonator
p1383
sg43
Nssg44
(lp1384
I1095363701
asg32
VWeaponPickup
p1385
sg35
VPT1M27.3531187S
p1386
sa(dp1387
g38
I4096745987
sg39
(dp1388
g41
VALGPredevonator
p1389
sg43
Nssg44
(lp1390
I2758383128
asg32
VWeaponPickup
p1391
sg35
VPT1M27.3531187S
p1392
sa(dp1393
g32
VPlayerSpawn
p1394
sg39
(dp1395
g41
VALGPredevonator
p1396
sg43
Nssg35
VPT1M27.3541205S
p1397
sa(dp1398
g179
I313138863
sg180
I00
sg181
I00
sg182
(dp1399
g41
VRNG Ninja HCS
p1400
sg43
Nssg185
(lp1401
I1095363701
asg187
I00
sg188
I01
sg189
I1
sg190
I0
sg191
I1
sg192
(dp1402
Vy
F-10.753343599999999
sVx
F6.8911280000000001
sVz
F0.0045267939999999998
ssg194
(dp1403
Vy
F-8.2043660000000003
sVx
F11.527663199999999
sVz
F0.0045318305500000001
ssg196
I00
sg197
(dp1404
g41
VALG RyaNoob
p1405
sg43
Nssg200
(lp1406
sg202
(lp1407
(dp1408
g41
VRNG Victory X
p1409
sg43
Nsasg206
I00
sg35
VPT1M29.4531451S
p1410
sg32
VDeath
p1411
sg209
I1
sa(dp1412
g32
VMedal
p1413
sg39
(dp1414
g41
VRNG Ninja HCS
p1415
sg43
Nssg214
I2838259753
sg35
VPT1M29.4531451S
p1416
sa(dp1417
g32
VImpulse
p1418
sg39
(dp1419
g41
VRNG Ninja HCS
p1420
sg43
Nssg336
I2556889090
sg35
VPT1M29.4531451S
p1421
sa(dp1422
g38
I313138863
sg32
VWeaponDrop
p1423
sg223
I15
sg44
(lp1424
I1095363701
asg35
VPT1M29.4551451S
p1425
sg226
I3
sg227
VP0DT0H0M5.7833S
p1426
sg39
(dp1427
g41
VALG RyaNoob
p1428
sg43
Nssa(dp1429
g38
I4096745987
sg32
VWeaponDrop
p1430
sg223
I10
sg44
(lp1431
I2758383128
asg35
VPT1M29.4551451S
p1432
sg226
I5
sg227
VP0DT0H0M11.8833S
p1433
sg39
(dp1434
g41
VALG RyaNoob
p1435
sg43
Nssa(dp1436
g38
I313138863
sg39
(dp1437
g41
VALG Goofy HCS
p1438
sg43
Nssg44
(lp1439
I1095363701
asg32
VWeaponPickup
p1440
sg35
VPT1M30.1151543S
p1441
sa(dp1442
g38
I4096745987
sg39
(dp1443
g41
VALG Goofy HCS
p1444
sg43
Nssg44
(lp1445
I2758383128
asg32
VWeaponPickup
p1446
sg35
VPT1M30.1161542S
p1447
sa(dp1448
g32
VPlayerSpawn
p1449
sg39
(dp1450
g41
VALG Goofy HCS
p1451
sg43
Nssg35
VPT1M30.1161542S
p1452
sa(dp1453
g38
I313138863
sg39
(dp1454
g41
VRNG Commonly
p1455
sg43
Nssg44
(lp1456
I1095363701
asg32
VWeaponPickup
p1457
sg35
VPT1M31.6161771S
p1458
sa(dp1459
g38
I4096745987
sg39
(dp1460
g41
VRNG Commonly
p1461
sg43
Nssg44
(lp1462
I2758383128
asg32
VWeaponPickup
p1463
sg35
VPT1M31.6171735S
p1464
sa(dp1465
g32
VPlayerSpawn
p1466
sg39
(dp1467
g41
VRNG Commonly
p1468
sg43
Nssg35
VPT1M31.6171735S
p1469
sa(dp1470
g38
I313138863
sg39
(dp1471
g41
VALG ContrA HCS
p1472
sg43
Nssg44
(lp1473
I1095363701
asg32
VWeaponPickup
p1474
sg35
VPT1M32.2501813S
p1475
sa(dp1476
g38
I4096745987
sg39
(dp1477
g41
VALG ContrA HCS
p1478
sg43
Nssg44
(lp1479
I2758383128
asg32
VWeaponPickup
p1480
sg35
VPT1M32.2511895S
p1481
sa(dp1482
g32
VPlayerSpawn
p1483
sg39
(dp1484
g41
VALG ContrA HCS
p1485
sg43
Nssg35
VPT1M32.2511895S
p1486
sa(dp1487
g32
VMedal
p1488
sg39
(dp1489
g41
VRNG Victory X
p1490
sg43
Nssg214
I3565443938
sg35
VPT1M34.0836217S
p1491
sa(dp1492
g32
VMedal
p1493
sg39
(dp1494
g41
VRNG Penguin HCS
p1495
sg43
Nssg214
I3565443938
sg35
VPT1M34.0836217S
p1496
sa(dp1497
g38
I313138863
sg39
(dp1498
g41
VALG RyaNoob
p1499
sg43
Nssg44
(lp1500
I1095363701
asg32
VWeaponPickup
p1501
sg35
VPT1M37.470254S
p1502
sa(dp1503
g38
I4096745987
sg39
(dp1504
g41
VALG RyaNoob
p1505
sg43
Nssg44
(lp1506
I2758383128
asg32
VWeaponPickup
p1507
sg35
VPT1M37.470254S
p1508
sa(dp1509
g32
VPlayerSpawn
p1510
sg39
(dp1511
g41
VALG RyaNoob
p1512
sg43
Nssg35
VPT1M37.470254S
p1513
sa(dp1514
g179
I4106030681
sg180
I00
sg181
I00
sg182
(dp1515
g41
VALG ContrA HCS
p1516
sg43
Nssg185
(lp1517
sg187
I00
sg188
I01
sg189
I1
sg190
I0
sg191
I0
sg192
(dp1518
Vy
F9.6248039999999992
sVx
F17.324991199999999
sVz
F1.605896
ssg194
(dp1519
Vy
F13.6809177
sVx
F10.6369743
sVz
F4.0565652800000001
ssg196
I00
sg197
(dp1520
S'Gamertag'
p1521
S'None'
p1522
ssg200
(lp1523
sg202
(lp1524
sg206
I00
sg35
VPT1M39.9512802S
p1525
sg32
VDeath
p1526
sg209
I1
sa(dp1527
g179
I4106030681
sg180
I00
sg181
I00
sg182
(dp1528
g41
VALG ContrA HCS
p1529
sg43
Nssg185
(lp1530
sg187
I00
sg188
I01
sg189
I1
sg190
I0
sg191
I0
sg192
(dp1531
Vy
F9.6248039999999992
sVx
F17.324991199999999
sVz
F1.605896
ssg194
(dp1532
Vy
F13.6809177
sVx
F10.3329773
sVz
F4.0566089999999999
ssg196
I00
sg197
(dp1533
g1521
g1522
ssg200
(lp1534
sg202
(lp1535
sg206
I00
sg35
VPT1M39.9512802S
p1536
sg32
VDeath
p1537
sg209
I1
sa(dp1538
g179
I47178948
sg180
I00
sg181
I00
sg182
(dp1539
g41
VALG ContrA HCS
p1540
sg43
Nssg185
(lp1541
sg187
I00
sg188
I01
sg189
I1
sg190
I0
sg191
I1
sg192
(dp1542
Vy
F9.6248039999999992
sVx
F17.324991199999999
sVz
F1.605896
ssg194
(dp1543
Vy
F12.402361900000001
sVx
F11.743524600000001
sVz
F4.0073319999999999
ssg196
I00
sg197
(dp1544
g41
VRNG Penguin HCS
p1545
sg43
Nssg200
(lp1546
sg202
(lp1547
sg206
I00
sg35
VPT1M39.9522824S
p1548
sg32
VDeath
p1549
sg209
I1
sa(dp1550
g38
I313138863
sg32
VWeaponDrop
p1551
sg223
I0
sg44
(lp1552
I1095363701
asg35
VPT1M39.9600149S
p1553
sg226
I0
sg227
VP0DT0H0M2.2167S
p1554
sg39
(dp1555
g41
VRNG Penguin HCS
p1556
sg43
Nssa(dp1557
g38
I424645655
sg32
VWeaponDrop
p1558
sg223
I3
sg44
(lp1559
I1327094800
asg35
VPT1M39.9600149S
p1560
sg226
I0
sg227
VP0DT0H0M12.1000S
p1561
sg39
(dp1562
g41
VRNG Penguin HCS
p1563
sg43
Nssa(dp1564
g32
VMedal
p1565
sg39
(dp1566
g41
VALG Goofy HCS
p1567
sg43
Nssg214
I3565443938
sg35
VPT1M40.0992813S
p1568
sa(dp1569
g32
VMedal
p1570
sg39
(dp1571
g41
VALG ContrA HCS
p1572
sg43
Nssg214
I3565443938
sg35
VPT1M40.0992813S
p1573
sa(dp1574
g38
I313138863
sg32
VWeaponDrop
p1575
sg223
I0
sg44
(lp1576
I1095363701
asg35
VPT1M42.1953067S
p1577
sg226
I0
sg227
VP0DT0H0M0.7000S
p1578
sg39
(dp1579
g41
VALG ContrA HCS
p1580
sg43
Nssa(dp1581
g38
I723388907
sg39
(dp1582
g41
VALG ContrA HCS
p1583
sg43
Nssg44
(lp1584
I89283061
asg32
VWeaponPickup
p1585
sg35
VPT1M42.1953067S
p1586
sa(dp1587
g32
VMedal
p1588
sg39
(dp1589
g41
VALG RyaNoob
p1590
sg43
Nssg214
I2916014239
sg35
VPT1M43.367324S
p1591
sa(dp1592
g38
I313138863
sg32
VWeaponDrop
p1593
sg223
I7
sg44
(lp1594
I1095363701
asg35
VPT1M44.4500445S
p1595
sg226
I2
sg227
VP0DT0H0M5.5667S
p1596
sg39
(dp1597
g41
VRNG Ninja HCS
p1598
sg43
Nssa(dp1599
g38
I723388907
sg39
(dp1600
g41
VRNG Ninja HCS
p1601
sg43
Nssg44
(lp1602
I89283061
asg32
VWeaponPickup
p1603
sg35
VPT1M44.4503374S
p1604
sa(dp1605
g179
I723388907
sg180
I00
sg181
I00
sg182
(dp1606
g41
VRNG Ninja HCS
p1607
sg43
Nssg185
(lp1608
I89283061
asg187
I00
sg188
I01
sg189
I1
sg190
I0
sg191
I1
sg192
(dp1609
Vy
F-14.373473199999999
sVx
F9.308071
sVz
F2.2062072800000001
ssg194
(dp1610
Vy
F-11.0257816
sVx
F10.006141700000001
sVz
F2.8991162799999999
ssg196
I00
sg197
(dp1611
g41
VALG RyaNoob
p1612
sg43
Nssg200
(lp1613
sg202
(lp1614
(dp1615
g41
VRNG Victory X
p1616
sg43
Nsasg206
I00
sg35
VPT1M45.6523525S
p1617
sg32
VDeath
p1618
sg209
I1
sa(dp1619
g38
I313138863
sg32
VWeaponDrop
p1620
sg223
I0
sg44
(lp1621
I1095363701
asg35
VPT1M45.6606483S
p1622
sg226
I0
sg227
VP0DT0H0M3.6833S
p1623
sg39
(dp1624
g41
VALG RyaNoob
p1625
sg43
Nssa(dp1626
g38
I4096745987
sg32
VWeaponDrop
p1627
sg223
I2
sg44
(lp1628
I2758383128
asg35
VPT1M45.6607149S
p1629
sg226
I1
sg227
VP0DT0H0M4.5000S
p1630
sg39
(dp1631
g41
VALG RyaNoob
p1632
sg43
Nssa(dp1633
g38
I313138863
sg39
(dp1634
g41
VRNG Penguin HCS
p1635
sg43
Nssg44
(lp1636
I1095363701
asg32
VWeaponPickup
p1637
sg35
VPT1M47.9693828S
p1638
sa(dp1639
g38
I4096745987
sg39
(dp1640
g41
VRNG Penguin HCS
p1641
sg43
Nssg44
(lp1642
I2758383128
asg32
VWeaponPickup
p1643
sg35
VPT1M47.9693828S
p1644
sa(dp1645
g32
VPlayerSpawn
p1646
sg39
(dp1647
g41
VRNG Penguin HCS
p1648
sg43
Nssg35
VPT1M47.9693828S
p1649
sa(dp1650
g179
I424645655
sg180
I00
sg181
I00
sg182
(dp1651
g41
VRNG Victory X
p1652
sg43
Nssg185
(lp1653
I1327094800
asg187
I00
sg188
I01
sg189
I1
sg190
I0
sg191
I1
sg192
(dp1654
Vy
F-1.7744850000000001
sVx
F5.26492834
sVz
F4.2987820000000001
ssg194
(dp1655
Vy
F-0.61652530000000005
sVx
F13.742624299999999
sVz
F1.0630786400000001
ssg196
I00
sg197
(dp1656
g41
VALGPredevonator
p1657
sg43
Nssg200
(lp1658
sg202
(lp1659
sg206
I01
sg35
VPT1M49.0023958S
p1660
sg32
VDeath
p1661
sg209
I1
sa(dp1662
g32
VMedal
p1663
sg39
(dp1664
g41
VRNG Victory X
p1665
sg43
Nssg214
I2838259753
sg35
VPT1M49.0023958S
p1666
sa(dp1667
g32
VImpulse
p1668
sg39
(dp1669
g41
VRNG Victory X
p1670
sg43
Nssg336
I2556889090
sg35
VPT1M49.0023958S
p1671
sa(dp1672
g32
VMedal
p1673
sg39
(dp1674
g41
VRNG Ninja HCS
p1675
sg43
Nssg214
I824733727
sg35
VPT1M49.0023958S
p1676
sa(dp1677
g32
VMedal
p1678
sg39
(dp1679
g41
VRNG Commonly
p1680
sg43
Nssg214
I824733727
sg35
VPT1M49.0023958S
p1681
sa(dp1682
g32
VImpulse
p1683
sg39
(dp1684
g41
VRNG Victory X
p1685
sg43
Nssg336
I3174430457
sg35
VPT1M49.0105402S
p1686
sa(dp1687
g32
VMedal
p1688
sg39
(dp1689
g41
VRNG Victory X
p1690
sg43
Nssg214
I1080468863
sg35
VPT1M49.0113952S
p1691
sa(dp1692
g38
I4096745987
sg32
VWeaponDrop
p1693
sg223
I10
sg44
(lp1694
I2758383128
asg35
VPT1M49.012395S
p1695
sg226
I7
sg227
VP0DT0H0M21.0833S
p1696
sg39
(dp1697
g41
VALGPredevonator
p1698
sg43
Nssa(dp1699
g38
I313138863
sg32
VWeaponDrop
p1700
sg223
I0
sg44
(lp1701
I1095363701
asg35
VPT1M49.012395S
p1702
sg226
I0
sg227
VP0DT0H0M0.5667S
p1703
sg39
(dp1704
g41
VALGPredevonator
p1705
sg43
Nssa(dp1706
g32
VMedal
p1707
sg39
(dp1708
g41
VRNG Ninja HCS
p1709
sg43
Nssg214
I3400287617
sg35
VPT1M50.6685S
p1710
sa(dp1711
g179
I313138863
sg180
I00
sg181
I00
sg182
(dp1712
g41
VRNG Victory X
p1713
sg43
Nssg185
(lp1714
I1095363701
asg187
I00
sg188
I01
sg189
I1
sg190
I0
sg191
I1
sg192
(dp1715
Vy
F0.14044241599999999
sVx
F11.3178635
sVz
F2.9602515700000001
ssg194
(dp1716
Vy
F2.4993307599999999
sVx
F14.7022324
sVz
F0.80008789999999996
ssg196
I00
sg197
(dp1717
g41
VALG Goofy HCS
p1718
sg43
Nssg200
(lp1719
sg202
(lp1720
(dp1721
g41
VRNG Commonly
p1722
sg43
Nsasg206
I00
sg35
VPT1M52.2134365S
p1723
sg32
VDeath
p1724
sg209
I1
sa(dp1725
g32
VMedal
p1726
sg39
(dp1727
g41
VRNG Victory X
p1728
sg43
Nssg214
I2078758684
sg35
VPT1M52.2154363S
p1729
sa(dp1730
g38
I313138863
sg32
VWeaponDrop
p1731
sg223
I0
sg44
(lp1732
I1095363701
asg35
VPT1M52.2154363S
p1733
sg226
I0
sg227
VP0DT0H0M4.6667S
p1734
sg39
(dp1735
g41
VALG Goofy HCS
p1736
sg43
Nssa(dp1737
g38
I4096745987
sg32
VWeaponDrop
p1738
sg223
I0
sg44
(lp1739
I2758383128
asg35
VPT1M52.2154363S
p1740
sg226
I0
sg227
VP0DT0H0M17.4333S
p1741
sg39
(dp1742
g41
VALG Goofy HCS
p1743
sg43
Nssa(dp1744
g38
I313138863
sg39
(dp1745
g41
VALG RyaNoob
p1746
sg43
Nssg44
(lp1747
I1095363701
asg32
VWeaponPickup
p1748
sg35
VPT1M53.6634613S
p1749
sa(dp1750
g38
I4096745987
sg39
(dp1751
g41
VALG RyaNoob
p1752
sg43
Nssg44
(lp1753
I2758383128
asg32
VWeaponPickup
p1754
sg35
VPT1M53.6644559S
p1755
sa(dp1756
g32
VPlayerSpawn
p1757
sg39
(dp1758
g41
VALG RyaNoob
p1759
sg43
Nssg35
VPT1M53.6644559S
p1760
sa(dp1761
g38
I723388907
sg32
VWeaponDrop
p1762
sg223
I18
sg44
(lp1763
I89283061
asg35
VPT1M54.7472023S
p1764
sg226
I7
sg227
VP0DT0H0M6.3500S
p1765
sg39
(dp1766
g41
VRNG Ninja HCS
p1767
sg43
Nssa(dp1768
g38
I2015271382
sg39
(dp1769
g41
VRNG Ninja HCS
p1770
sg43
Nssg44
(lp1771
I2758383128
asg32
VWeaponPickup
p1772
sg35
VPT1M54.7474798S
p1773
sa(dp1774
g38
I313138863
sg39
(dp1775
g41
VALGPredevonator
p1776
sg43
Nssg44
(lp1777
I1095363701
asg32
VWeaponPickup
p1778
sg35
VPT1M57.0154985S
p1779
sa(dp1780
g38
I4096745987
sg39
(dp1781
g41
VALGPredevonator
p1782
sg43
Nssg44
(lp1783
I2758383128
asg32
VWeaponPickup
p1784
sg35
VPT1M57.0164985S
p1785
sa(dp1786
g32
VPlayerSpawn
p1787
sg39
(dp1788
g41
VALGPredevonator
p1789
sg43
Nssg35
VPT1M57.0164985S
p1790
sa(dp1791
g32
VMedal
p1792
sg39
(dp1793
g41
VRNG Ninja HCS
p1794
sg43
Nssg214
I3565443938
sg35
VPT1M57.3505026S
p1795
sa(dp1796
g32
VMedal
p1797
sg39
(dp1798
g41
VRNG Penguin HCS
p1799
sg43
Nssg214
I3565443938
sg35
VPT1M57.3505026S
p1800
sa(dp1801
g38
I313138863
sg39
(dp1802
g41
VALG Goofy HCS
p1803
sg43
Nssg44
(lp1804
I1095363701
asg32
VWeaponPickup
p1805
sg35
VPT2M0.2335396S
p1806
sa(dp1807
g38
I4096745987
sg39
(dp1808
g41
VALG Goofy HCS
p1809
sg43
Nssg44
(lp1810
I2758383128
asg32
VWeaponPickup
p1811
sg35
VPT2M0.2345398S
p1812
sa(dp1813
g32
VPlayerSpawn
p1814
sg39
(dp1815
g41
VALG Goofy HCS
p1816
sg43
Nssg35
VPT2M0.2345398S
p1817
sa(dp1818
g38
I313138863
sg32
VWeaponDrop
p1819
sg223
I0
sg44
(lp1820
I1095363701
asg35
VPT2M0.3285386S
p1821
sg226
I0
sg227
VP0DT0H0M4.9833S
p1822
sg39
(dp1823
g41
VRNG Penguin HCS
p1824
sg43
Nssa(dp1825
g38
I723388907
sg39
(dp1826
g41
VRNG Penguin HCS
p1827
sg43
Nssg44
(lp1828
I89283061
asg32
VWeaponPickup
p1829
sg35
VPT2M0.3352138S
p1830
sa(dp1831
g179
I4096745987
sg180
I00
sg181
I00
sg182
(dp1832
g41
VRNG Commonly
p1833
sg43
Nssg185
(lp1834
I2758383128
asg187
I00
sg188
I01
sg189
I1
sg190
I0
sg191
I1
sg192
(dp1835
Vy
F8.8595410000000001
sVx
F14.5010519
sVz
F2.7014062399999998
ssg194
(dp1836
Vy
F7.0292835199999999
sVx
F-0.389241636
sVz
F4.6632013299999997
ssg196
I00
sg197
(dp1837
g41
VALG RyaNoob
p1838
sg43
Nssg200
(lp1839
sg202
(lp1840
(dp1841
g41
VRNG Ninja HCS
p1842
sg43
Nsasg206
I01
sg35
VPT2M0.8365469S
p1843
sg32
VDeath
p1844
sg209
I1
sa(dp1845
g32
VMedal
p1846
sg39
(dp1847
g41
VRNG Commonly
p1848
sg43
Nssg214
I2494364276
sg35
VPT2M0.8365469S
p1849
sa(dp1850
g32
VMedal
p1851
sg39
(dp1852
g41
VRNG Commonly
p1853
sg43
Nssg214
I3261908037
sg35
VPT2M0.8375467S
p1854
sa(dp1855
g38
I313138863
sg32
VWeaponDrop
p1856
sg223
I0
sg44
(lp1857
I1095363701
asg35
VPT2M0.8385466S
p1858
sg226
I0
sg227
VP0DT0H0M0.6833S
p1859
sg39
(dp1860
g41
VALG RyaNoob
p1861
sg43
Nssa(dp1862
g38
I4096745987
sg32
VWeaponDrop
p1863
sg223
I7
sg44
(lp1864
I2758383128
asg35
VPT2M0.8385466S
p1865
sg226
I4
sg227
VP0DT0H0M6.4833S
p1866
sg39
(dp1867
g41
VALG RyaNoob
p1868
sg43
Nssa(dp1869
g179
I424645655
sg180
I00
sg181
I00
sg182
(dp1870
g41
VRNG Victory X
p1871
sg43
Nssg185
(lp1872
I1327094800
asg187
I00
sg188
I01
sg189
I1
sg190
I0
sg191
I1
sg192
(dp1873
Vy
F3.0608766100000002
sVx
F-7.28381729
sVz
F1.84591627
ssg194
(dp1874
Vy
F-0.214879036
sVx
F-1.01487482
sVz
F2.4000010000000001
ssg196
I00
sg197
(dp1875
g41
VALGPredevonator
p1876
sg43
Nssg200
(lp1877
sg202
(lp1878
(dp1879
g41
VRNG Penguin HCS
p1880
sg43
Nsa(dp1881
g41
VRNG Ninja HCS
p1882
sg43
Nsasg206
I01
sg35
VPT2M3.946587S
p1883
sg32
VDeath
p1884
sg209
I1
sa(dp1885
g32
VMedal
p1886
sg39
(dp1887
g41
VRNG Victory X
p1888
sg43
Nssg214
I2838259753
sg35
VPT2M3.946587S
p1889
sa(dp1890
g32
VImpulse
p1891
sg39
(dp1892
g41
VRNG Victory X
p1893
sg43
Nssg336
I2556889090
sg35
VPT2M3.946587S
p1894
sa(dp1895
g32
VMedal
p1896
sg39
(dp1897
g41
VRNG Commonly
p1898
sg43
Nssg214
I824733727
sg35
VPT2M3.9475873S
p1899
sa(dp1900
g32
VMedal
p1901
sg39
(dp1902
g41
VRNG Victory X
p1903
sg43
Nssg214
I3261908037
sg35
VPT2M3.9485867S
p1904
sa(dp1905
g38
I313138863
sg32
VWeaponDrop
p1906
sg223
I0
sg44
(lp1907
I1095363701
asg35
VPT2M3.955587S
p1908
sg226
I0
sg227
VP0DT0H0M0.6833S
p1909
sg39
(dp1910
g41
VALGPredevonator
p1911
sg43
Nssa(dp1912
g38
I4096745987
sg32
VWeaponDrop
p1913
sg223
I11
sg44
(lp1914
I2758383128
asg35
VPT2M3.955587S
p1915
sg226
I6
sg227
VP0DT0H0M6.2500S
p1916
sg39
(dp1917
g41
VALGPredevonator
p1918
sg43
Nssa(dp1919
g32
VMedal
p1920
sg39
(dp1921
g41
VRNG Commonly
p1922
sg43
Nssg214
I3400287617
sg35
VPT2M4.7816051S
p1923
sa(dp1924
g38
I313138863
sg39
(dp1925
g41
VALG RyaNoob
p1926
sg43
Nssg44
(lp1927
I1095363701
asg32
VWeaponPickup
p1928
sg35
VPT2M8.8476487S
p1929
sa(dp1930
g38
I4096745987
sg39
(dp1931
g41
VALG RyaNoob
p1932
sg43
Nssg44
(lp1933
I2758383128
asg32
VWeaponPickup
p1934
sg35
VPT2M8.8486499S
p1935
sa(dp1936
g32
VPlayerSpawn
p1937
sg39
(dp1938
g41
VALG RyaNoob
p1939
sg43
Nssg35
VPT2M8.8486499S
p1940
sa(dp1941
g179
I723388907
sg180
I00
sg181
I00
sg182
(dp1942
g41
VALG ContrA HCS
p1943
sg43
Nssg185
(lp1944
I89283061
asg187
I00
sg188
I01
sg189
I1
sg190
I0
sg191
I1
sg192
(dp1945
Vy
F11.568804699999999
sVx
F15.788023900000001
sVz
F1.605896
ssg194
(dp1946
Vy
F11.81362
sVx
F18.634654999999999
sVz
F1.67236209
ssg196
I00
sg197
(dp1947
g41
VRNG Commonly
p1948
sg43
Nssg200
(lp1949
sg202
(lp1950
sg206
I00
sg35
VPT2M11.3686818S
p1951
sg32
VDeath
p1952
sg209
I1
sa(dp1953
g32
VMedal
p1954
sg39
(dp1955
g41
VALG ContrA HCS
p1956
sg43
Nssg214
I1351381581
sg35
VPT2M11.3760363S
p1957
sa(dp1958
g32
VMedal
p1959
sg39
(dp1960
g41
VALG ContrA HCS
p1961
sg43
Nssg214
I2916014239
sg35
VPT2M11.3766813S
p1962
sa(dp1963
g38
I313138863
sg32
VWeaponDrop
p1964
sg223
I10
sg44
(lp1965
I1095363701
asg35
VPT2M11.3776821S
p1966
sg226
I3
sg227
VP0DT0H0M6.9333S
p1967
sg39
(dp1968
g41
VRNG Commonly
p1969
sg43
Nssa(dp1970
g38
I4096745987
sg32
VWeaponDrop
p1971
sg223
I20
sg44
(lp1972
I2758383128
asg35
VPT2M11.3776821S
p1973
sg226
I10
sg227
VP0DT0H0M32.8167S
p1974
sg39
(dp1975
g41
VRNG Commonly
p1976
sg43
Nssa(dp1977
g38
I313138863
sg39
(dp1978
g41
VALGPredevonator
p1979
sg43
Nssg44
(lp1980
I1095363701
asg32
VWeaponPickup
p1981
sg35
VPT2M11.9666899S
p1982
sa(dp1983
g38
I4096745987
sg39
(dp1984
g41
VALGPredevonator
p1985
sg43
Nssg44
(lp1986
I2758383128
asg32
VWeaponPickup
p1987
sg35
VPT2M11.9666899S
p1988
sa(dp1989
g32
VPlayerSpawn
p1990
sg39
(dp1991
g41
VALGPredevonator
p1992
sg43
Nssg35
VPT2M11.9666899S
p1993
sa(dp1994
g179
I4106030681
sg180
I00
sg181
I00
sg182
(dp1995
g41
VALG Goofy HCS
p1996
sg43
Nssg185
(lp1997
sg187
I00
sg188
I01
sg189
I1
sg190
I0
sg191
I1
sg192
(dp1998
Vy
F0.19986549000000001
sVx
F-0.0284596477
sVz
F2.3999466900000002
ssg194
(dp1999
Vy
F0.17355985900000001
sVx
F-9.2109509999999997
sVz
F1.800394
ssg196
I00
sg197
(dp2000
g41
VRNG Victory X
p2001
sg43
Nssg200
(lp2002
sg202
(lp2003
sg206
I00
sg35
VPT2M13.7287121S
p2004
sg32
VDeath
p2005
sg209
I1
sa(dp2006
g38
I313138863
sg32
VWeaponDrop
p2007
sg223
I10
sg44
(lp2008
I1095363701
asg35
VPT2M13.7368368S
p2009
sg226
I6
sg227
VP0DT0H0M2.0833S
p2010
sg39
(dp2011
g41
VRNG Victory X
p2012
sg43
Nssa(dp2013
g38
I424645655
sg32
VWeaponDrop
p2014
sg223
I72
sg44
(lp2015
I1327094800
asg35
VPT2M13.7368368S
p2016
sg226
I37
sg227
VP0DT0H0M46.8000S
p2017
sg39
(dp2018
g41
VRNG Victory X
p2019
sg43
Nssa(dp2020
g179
I723388907
sg180
I00
sg181
I00
sg182
(dp2021
g41
VRNG Penguin HCS
p2022
sg43
Nssg185
(lp2023
I89283061
asg187
I00
sg188
I01
sg189
I1
sg190
I0
sg191
I1
sg192
(dp2024
Vy
F13.963362699999999
sVx
F16.916122399999999
sVz
F2.5734727400000001
ssg194
(dp2025
Vy
F16.0366173
sVx
F11.7898817
sVz
F3.5167679999999999
ssg196
I00
sg197
(dp2026
g41
VALG ContrA HCS
p2027
sg43
Nssg200
(lp2028
sg202
(lp2029
(dp2030
g41
VRNG Commonly
p2031
sg43
Nsasg206
I00
sg35
VPT2M16.6467499S
p2032
sg32
VDeath
p2033
sg209
I1
sa(dp2034
g38
I723388907
sg32
VWeaponDrop
p2035
sg223
I43
sg44
(lp2036
I89283061
asg35
VPT2M16.6548881S
p2037
sg226
I15
sg227
VP0DT0H0M9.6333S
p2038
sg39
(dp2039
g41
VALG ContrA HCS
p2040
sg43
Nssa(dp2041
g38
I4096745987
sg32
VWeaponDrop
p2042
sg223
I14
sg44
(lp2043
I2758383128
asg35
VPT2M16.6548881S
p2044
sg226
I6
sg227
VP0DT0H0M34.0667S
p2045
sg39
(dp2046
g41
VALG ContrA HCS
p2047
sg43
Nssa(dp2048
g38
I313138863
sg39
(dp2049
g41
VRNG Commonly
p2050
sg43
Nssg44
(lp2051
I1095363701
asg32
VWeaponPickup
p2052
sg35
VPT2M19.3867843S
p2053
sa(dp2054
g38
I4096745987
sg39
(dp2055
g41
VRNG Commonly
p2056
sg43
Nssg44
(lp2057
I2758383128
asg32
VWeaponPickup
p2058
sg35
VPT2M19.3867843S
p2059
sa(dp2060
g32
VPlayerSpawn
p2061
sg39
(dp2062
g41
VRNG Commonly
p2063
sg43
Nssg35
VPT2M19.3867843S
p2064
sa(dp2065
g38
I313138863
sg39
(dp2066
g41
VRNG Victory X
p2067
sg43
Nssg44
(lp2068
I1095363701
asg32
VWeaponPickup
p2069
sg35
VPT2M21.750815S
p2070
sa(dp2071
g38
I4096745987
sg39
(dp2072
g41
VRNG Victory X
p2073
sg43
Nssg44
(lp2074
I2758383128
asg32
VWeaponPickup
p2075
sg35
VPT2M21.750815S
p2076
sa(dp2077
g32
VPlayerSpawn
p2078
sg39
(dp2079
g41
VRNG Victory X
p2080
sg43
Nssg35
VPT2M21.750815S
p2081
sa(dp2082
g179
I4096745987
sg180
I00
sg181
I00
sg182
(dp2083
g41
VALG Goofy HCS
p2084
sg43
Nssg185
(lp2085
I2758383128
asg187
I00
sg188
I01
sg189
I1
sg190
I0
sg191
I1
sg192
(dp2086
Vy
F10.1921234
sVx
F4.2248206100000001
sVz
F0.00453820825
ssg194
(dp2087
Vy
F8.2736509999999992
sVx
F11.283385300000001
sVz
F0.0045318305500000001
ssg196
I00
sg197
(dp2088
g41
VRNG Penguin HCS
p2089
sg43
Nssg200
(lp2090
sg202
(lp2091
(dp2092
g41
VALGPredevonator
p2093
sg43
Nsa(dp2094
g41
VALG RyaNoob
p2095
sg43
Nsasg206
I01
sg35
VPT2M22.9128303S
p2096
sg32
VDeath
p2097
sg209
I1
sa(dp2098
g32
VMedal
p2099
sg39
(dp2100
g41
VALG Goofy HCS
p2101
sg43
Nssg214
I3261908037
sg35
VPT2M22.9208292S
p2102
sa(dp2103
g38
I723388907
sg32
VWeaponDrop
p2104
sg223
I20
sg44
(lp2105
I89283061
asg35
VPT2M22.9208292S
p2106
sg226
I8
sg227
VP0DT0H0M11.4500S
p2107
sg39
(dp2108
g41
VRNG Penguin HCS
p2109
sg43
Nssa(dp2110
g38
I4096745987
sg32
VWeaponDrop
p2111
sg223
I11
sg44
(lp2112
I2758383128
asg35
VPT2M22.9208292S
p2113
sg226
I5
sg227
VP0DT0H0M18.5167S
p2114
sg39
(dp2115
g41
VRNG Penguin HCS
p2116
sg43
Nssa(dp2117
g38
I313138863
sg32
VWeaponDrop
p2118
sg223
I8
sg44
(lp2119
I1095363701
asg35
VPT2M23.7109137S
p2120
sg226
I1
sg227
VP0DT0H0M4.9667S
p2121
sg39
(dp2122
g41
VALG RyaNoob
p2123
sg43
Nssa(dp2124
g38
I2902827823
sg39
(dp2125
g41
VALG RyaNoob
p2126
sg43
Nssg44
(lp2127
I2758383128
asg32
VWeaponPickupPad
p2128
sg35
VPT2M23.7109137S
p2129
sa(dp2130
g38
I2902827823
sg39
(dp2131
g41
VALG RyaNoob
p2132
sg43
Nssg44
(lp2133
I2758383128
asg32
VWeaponPickup
p2134
sg35
VPT2M23.7134165S
p2135
sa(dp2136
g38
I313138863
sg39
(dp2137
g41
VALG ContrA HCS
p2138
sg43
Nssg44
(lp2139
I1095363701
asg32
VWeaponPickup
p2140
sg35
VPT2M24.6628524S
p2141
sa(dp2142
g38
I4096745987
sg39
(dp2143
g41
VALG ContrA HCS
p2144
sg43
Nssg44
(lp2145
I2758383128
asg32
VWeaponPickup
p2146
sg35
VPT2M24.6628524S
p2147
sa(dp2148
g32
VPlayerSpawn
p2149
sg39
(dp2150
g41
VALG ContrA HCS
p2151
sg43
Nssg35
VPT2M24.6628524S
p2152
sa(dp2153
g32
VMedal
p2154
sg39
(dp2155
g41
VRNG Commonly
p2156
sg43
Nssg214
I2916014239
sg35
VPT2M27.094883S
p2157
sa(dp2158
g179
I4106030681
sg180
I00
sg181
I00
sg182
(dp2159
g41
VALGPredevonator
p2160
sg43
Nssg185
(lp2161
sg187
I00
sg188
I01
sg189
I1
sg190
I0
sg191
I1
sg192
(dp2162
Vy
F7.8045992899999996
sVx
F0.47032469999999998
sVz
F3.80230618
ssg194
(dp2163
Vy
F-1.2224828000000001
sVx
F3.39726448
sVz
F3.95665836
ssg196
I00
sg197
(dp2164
g41
VRNG Commonly
p2165
sg43
Nssg200
(lp2166
sg202
(lp2167
sg206
I00
sg35
VPT2M27.1958845S
p2168
sg32
VDeath
p2169
sg209
I1
sa(dp2170
g38
I313138863
sg32
VWeaponDrop
p2171
sg223
I0
sg44
(lp2172
I1095363701
asg35
VPT2M27.2038846S
p2173
sg226
I0
sg227
VP0DT0H0M1.3667S
p2174
sg39
(dp2175
g41
VRNG Commonly
p2176
sg43
Nssa(dp2177
g38
I4096745987
sg32
VWeaponDrop
p2178
sg223
I4
sg44
(lp2179
I2758383128
asg35
VPT2M27.2038846S
p2180
sg226
I1
sg227
VP0DT0H0M6.4500S
p2181
sg39
(dp2182
g41
VRNG Commonly
p2183
sg43
Nssa(dp2184
g179
I4096745987
sg180
I00
sg181
I00
sg182
(dp2185
g41
VRNG Ninja HCS
p2186
sg43
Nssg185
(lp2187
I2758383128
asg187
I00
sg188
I01
sg189
I1
sg190
I0
sg191
I1
sg192
(dp2188
Vy
F-0.33570525099999998
sVx
F11.8393459
sVz
F-0.79765766900000001
ssg194
(dp2189
Vy
F4.4182815599999996
sVx
F12.249631900000001
sVz
F0.58072069999999998
ssg196
I00
sg197
(dp2190
g41
VALG Goofy HCS
p2191
sg43
Nssg200
(lp2192
sg202
(lp2193
sg206
I01
sg35
VPT2M29.9689202S
p2194
sg32
VDeath
p2195
sg209
I1
sa(dp2196
g32
VMedal
p2197
sg39
(dp2198
g41
VRNG Ninja HCS
p2199
sg43
Nssg214
I3261908037
sg35
VPT2M29.9699197S
p2200
sa(dp2201
g38
I313138863
sg32
VWeaponDrop
p2202
sg223
I10
sg44
(lp2203
I1095363701
asg35
VPT2M29.9709187S
p2204
sg226
I6
sg227
VP0DT0H0M5.0000S
p2205
sg39
(dp2206
g41
VALG Goofy HCS
p2207
sg43
Nssa(dp2208
g38
I4096745987
sg32
VWeaponDrop
p2209
sg223
I8
sg44
(lp2210
I2758383128
asg35
VPT2M29.9709187S
p2211
sg226
I3
sg227
VP0DT0H0M24.7333S
p2212
sg39
(dp2213
g41
VALG Goofy HCS
p2214
sg43
Nssa(dp2215
g38
I2492868984
sg39
(dp2216
g41
VRNG Ninja HCS
p2217
sg43
Nssg44
(lp2218
I2758383128
asg32
VWeaponPickup
p2219
sg35
VPT2M30.9012755S
p2220
sa(dp2221
g38
I313138863
sg39
(dp2222
g41
VRNG Penguin HCS
p2223
sg43
Nssg44
(lp2224
I1095363701
asg32
VWeaponPickup
p2225
sg35
VPT2M30.9329317S
p2226
sa(dp2227
g38
I4096745987
sg39
(dp2228
g41
VRNG Penguin HCS
p2229
sg43
Nssg44
(lp2230
I2758383128
asg32
VWeaponPickup
p2231
sg35
VPT2M30.9329317S
p2232
sa(dp2233
g32
VPlayerSpawn
p2234
sg39
(dp2235
g41
VRNG Penguin HCS
p2236
sg43
Nssg35
VPT2M30.9329317S
p2237
sa(dp2238
g179
I2902827823
sg180
I00
sg181
I00
sg182
(dp2239
g41
VALG RyaNoob
p2240
sg43
Nssg185
(lp2241
I2758383128
asg187
I00
sg188
I01
sg189
I1
sg190
I0
sg191
I1
sg192
(dp2242
Vy
F1.8809530000000001
sVx
F13.137237499999999
sVz
F1.62790525
ssg194
(dp2243
Vy
F0.33535027499999998
sVx
F11.524828899999999
sVz
F-0.79758300000000004
ssg196
I00
sg197
(dp2244
g41
VRNG Ninja HCS
p2245
sg43
Nssg200
(lp2246
sg202
(lp2247
(dp2248
g41
VALG Goofy HCS
p2249
sg43
Nsasg206
I00
sg35
VPT2M31.0479343S
p2250
sg32
VDeath
p2251
sg209
I1
sa(dp2252
g38
I2015271382
sg32
VWeaponDrop
p2253
sg223
I10
sg44
(lp2254
I2758383128
asg35
VPT2M31.0499365S
p2255
sg226
I3
sg227
VP0DT0H0M11.9500S
p2256
sg39
(dp2257
g41
VRNG Ninja HCS
p2258
sg43
Nssa(dp2259
g38
I4096745987
sg32
VWeaponDrop
p2260
sg223
I56
sg44
(lp2261
I2758383128
asg35
VPT2M31.0499365S
p2262
sg226
I24
sg227
VP0DT0H1M8.7000S
p2263
sg39
(dp2264
g41
VRNG Ninja HCS
p2265
sg43
Nssa(dp2266
g179
I4096745987
sg180
I00
sg181
I00
sg182
(dp2267
g41
VALGPredevonator
p2268
sg43
Nssg185
(lp2269
I2758383128
asg187
I00
sg188
I01
sg189
I1
sg190
I0
sg191
I1
sg192
(dp2270
Vy
F-0.0047404393600000002
sVx
F5.7217035300000001
sVz
F4.7425994899999999
ssg194
(dp2271
Vy
F-0.91007226699999999
sVx
F1.4759979999999999
sVz
F4.0059704800000002
ssg196
I00
sg197
(dp2272
g41
VRNG Victory X
p2273
sg43
Nssg200
(lp2274
sg202
(lp2275
sg206
I00
sg35
VPT2M32.8339569S
p2276
sg32
VDeath
p2277
sg209
I1
sa(dp2278
g38
I313138863
sg32
VWeaponDrop
p2279
sg223
I18
sg44
(lp2280
I1095363701
asg35
VPT2M32.8349571S
p2281
sg226
I8
sg227
VP0DT0H0M3.7000S
p2282
sg39
(dp2283
g41
VRNG Victory X
p2284
sg43
Nssa(dp2285
g38
I4096745987
sg32
VWeaponDrop
p2286
sg223
I4
sg44
(lp2287
I2758383128
asg35
VPT2M32.8349571S
p2288
sg226
I2
sg227
VP0DT0H0M7.3833S
p2289
sg39
(dp2290
g41
VRNG Victory X
p2291
sg43
Nssa(dp2292
g179
I4096745987
sg180
I00
sg181
I00
sg182
(dp2293
g41
VRNG Penguin HCS
p2294
sg43
Nssg185
(lp2295
I2758383128
asg187
I00
sg188
I01
sg189
I1
sg190
I0
sg191
I1
sg192
(dp2296
Vy
F-13.397851899999999
sVx
F6.3906855599999997
sVz
F3.2634325
ssg194
(dp2297
Vy
F0.73526233399999996
sVx
F5.2435374299999999
sVz
F3.7001574000000002
ssg196
I00
sg197
(dp2298
g41
VALGPredevonator
p2299
sg43
Nssg200
(lp2300
sg202
(lp2301
(dp2302
g41
VRNG Victory X
p2303
sg43
Nsasg206
I01
sg35
VPT2M34.8119812S
p2304
sg32
VDeath
p2305
sg209
I1
sa(dp2306
g32
VMedal
p2307
sg39
(dp2308
g41
VRNG Penguin HCS
p2309
sg43
Nssg214
I1351381581
sg35
VPT2M34.8199922S
p2310
sa(dp2311
g32
VMedal
p2312
sg39
(dp2313
g41
VRNG Penguin HCS
p2314
sg43
Nssg214
I3261908037
sg35
VPT2M34.8199922S
p2315
sa(dp2316
g38
I313138863
sg32
VWeaponDrop
p2317
sg223
I0
sg44
(lp2318
I1095363701
asg35
VPT2M34.820982S
p2319
sg226
I0
sg227
VP0DT0H0M0.7333S
p2320
sg39
(dp2321
g41
VALGPredevonator
p2322
sg43
Nssa(dp2323
g38
I4096745987
sg32
VWeaponDrop
p2324
sg223
I19
sg44
(lp2325
I2758383128
asg35
VPT2M34.820982S
p2326
sg226
I12
sg227
VP0DT0H0M22.1167S
p2327
sg39
(dp2328
g41
VALGPredevonator
p2329
sg43
Nssa(dp2330
g38
I313138863
sg39
(dp2331
g41
VRNG Commonly
p2332
sg43
Nssg44
(lp2333
I1095363701
asg32
VWeaponPickup
p2334
sg35
VPT2M35.2179876S
p2335
sa(dp2336
g38
I4096745987
sg39
(dp2337
g41
VRNG Commonly
p2338
sg43
Nssg44
(lp2339
I2758383128
asg32
VWeaponPickup
p2340
sg35
VPT2M35.2189875S
p2341
sa(dp2342
g32
VPlayerSpawn
p2343
sg39
(dp2344
g41
VRNG Commonly
p2345
sg43
Nssg35
VPT2M35.2189875S
p2346
sa(dp2347
g38
I313138863
sg39
(dp2348
g41
VALG Goofy HCS
p2349
sg43
Nssg44
(lp2350
I1095363701
asg32
VWeaponPickup
p2351
sg35
VPT2M37.9830226S
p2352
sa(dp2353
g38
I4096745987
sg39
(dp2354
g41
VALG Goofy HCS
p2355
sg43
Nssg44
(lp2356
I2758383128
asg32
VWeaponPickup
p2357
sg35
VPT2M37.9840226S
p2358
sa(dp2359
g32
VPlayerSpawn
p2360
sg39
(dp2361
g41
VALG Goofy HCS
p2362
sg43
Nssg35
VPT2M37.9840226S
p2363
sa(dp2364
g38
I313138863
sg39
(dp2365
g41
VRNG Ninja HCS
p2366
sg43
Nssg44
(lp2367
I1095363701
asg32
VWeaponPickup
p2368
sg35
VPT2M39.0660369S
p2369
sa(dp2370
g38
I4096745987
sg39
(dp2371
g41
VRNG Ninja HCS
p2372
sg43
Nssg44
(lp2373
I2758383128
asg32
VWeaponPickup
p2374
sg35
VPT2M39.0660369S
p2375
sa(dp2376
g32
VPlayerSpawn
p2377
sg39
(dp2378
g41
VRNG Ninja HCS
p2379
sg43
Nssg35
VPT2M39.0660369S
p2380
sa(dp2381
g38
I2492868984
sg39
(dp2382
g41
VALG Goofy HCS
p2383
sg43
Nssg44
(lp2384
I2758383128
asg32
VWeaponPickup
p2385
sg35
VPT2M39.3280404S
p2386
sa(dp2387
g38
I2492868984
sg32
VWeaponDrop
p2388
sg223
I0
sg44
(lp2389
I2758383128
asg35
VPT2M40.4660553S
p2390
sg226
I0
sg227
VP0DT0H0M0.2833S
p2391
sg39
(dp2392
g41
VALG Goofy HCS
p2393
sg43
Nssa(dp2394
g32
VMedal
p2395
sg39
(dp2396
g41
VALG ContrA HCS
p2397
sg43
Nssg214
I3565443938
sg35
VPT2M40.8122814S
p2398
sa(dp2399
g32
VMedal
p2400
sg39
(dp2401
g41
VALGPredevonator
p2402
sg43
Nssg214
I1637841390
sg35
VPT2M40.8122814S
p2403
sa(dp2404
g38
I313138863
sg39
(dp2405
g41
VRNG Victory X
p2406
sg43
Nssg44
(lp2407
I1095363701
asg32
VWeaponPickup
p2408
sg35
VPT2M40.8520573S
p2409
sa(dp2410
g38
I4096745987
sg39
(dp2411
g41
VRNG Victory X
p2412
sg43
Nssg44
(lp2413
I2758383128
asg32
VWeaponPickup
p2414
sg35
VPT2M40.8520573S
p2415
sa(dp2416
g32
VPlayerSpawn
p2417
sg39
(dp2418
g41
VRNG Victory X
p2419
sg43
Nssg35
VPT2M40.8520573S
p2420
sa(dp2421
g179
I4096745987
sg180
I00
sg181
I00
sg182
(dp2422
g41
VRNG Ninja HCS
p2423
sg43
Nssg185
(lp2424
I2758383128
asg187
I00
sg188
I01
sg189
I1
sg190
I0
sg191
I1
sg192
(dp2425
Vy
F17.914512599999998
sVx
F0.33101809999999998
sVz
F3.7000114900000001
ssg194
(dp2426
Vy
F3.3346230000000001
sVx
F5.5744699999999998
sVz
F3.7001571700000002
ssg196
I00
sg197
(dp2427
g41
VALG ContrA HCS
p2428
sg43
Nssg200
(lp2429
sg202
(lp2430
(dp2431
g41
VRNG Penguin HCS
p2432
sg43
Nsa(dp2433
g41
VRNG Commonly
p2434
sg43
Nsasg206
I00
sg35
VPT2M41.2120639S
p2435
sg32
VDeath
p2436
sg209
I1
sa(dp2437
g38
I313138863
sg32
VWeaponDrop
p2438
sg223
I0
sg44
(lp2439
I1095363701
asg35
VPT2M41.2200742S
p2440
sg226
I0
sg227
VP0DT0H0M0.4167S
p2441
sg39
(dp2442
g41
VALG ContrA HCS
p2443
sg43
Nssa(dp2444
g38
I4096745987
sg32
VWeaponDrop
p2445
sg223
I6
sg44
(lp2446
I2758383128
asg35
VPT2M41.2200742S
p2447
sg226
I5
sg227
VP0DT0H0M16.1333S
p2448
sg39
(dp2449
g41
VALG ContrA HCS
p2450
sg43
Nssa(dp2451
g38
I313138863
sg39
(dp2452
g41
VALGPredevonator
p2453
sg43
Nssg44
(lp2454
I1095363701
asg32
VWeaponPickup
p2455
sg35
VPT2M42.8300845S
p2456
sa(dp2457
g38
I4096745987
sg39
(dp2458
g41
VALGPredevonator
p2459
sg43
Nssg44
(lp2460
I2758383128
asg32
VWeaponPickup
p2461
sg35
VPT2M42.8310849S
p2462
sa(dp2463
g32
VPlayerSpawn
p2464
sg39
(dp2465
g41
VALGPredevonator
p2466
sg43
Nssg35
VPT2M42.8310849S
p2467
sa(dp2468
g32
VMedal
p2469
sg39
(dp2470
g41
VALGPredevonator
p2471
sg43
Nssg214
I2916014239
sg35
VPT2M45.711122S
p2472
sa(dp2473
g38
I313138863
sg32
VWeaponDrop
p2474
sg223
I0
sg44
(lp2475
I1095363701
asg35
VPT2M45.828924S
p2476
sg226
I0
sg227
VP0DT0H0M1.0500S
p2477
sg39
(dp2478
g41
VRNG Victory X
p2479
sg43
Nssa(dp2480
g38
I723388907
sg39
(dp2481
g41
VRNG Victory X
p2482
sg43
Nssg44
(lp2483
I89283061
asg32
VWeaponPickup
p2484
sg35
VPT2M45.8291226S
p2485
sa(dp2486
g32
VMedal
p2487
sg39
(dp2488
g41
VRNG Penguin HCS
p2489
sg43
Nssg214
I2916014239
sg35
VPT2M46.6301333S
p2490
sa(dp2491
g179
I313138863
sg180
I01
sg181
I00
sg182
(dp2492
g41
VRNG Penguin HCS
p2493
sg43
Nssg185
(lp2494
I1095363701
asg187
I00
sg188
I00
sg189
I1
sg190
I0
sg191
I1
sg192
(dp2495
Vy
F-10.5562305
sVx
F10.1798983
sVz
F3.1413000000000002
ssg194
(dp2496
Vy
F-11.05763
sVx
F9.971311
sVz
F2.949856
ssg196
I00
sg197
(dp2497
g41
VALG RyaNoob
p2498
sg43
Nssg200
(lp2499
sg202
(lp2500
(dp2501
g41
VRNG Ninja HCS
p2502
sg43
Nsasg206
I00
sg35
VPT2M46.8508475S
p2503
sg32
VDeath
p2504
sg209
I1
sa(dp2505
g32
VMedal
p2506
sg39
(dp2507
g41
VRNG Penguin HCS
p2508
sg43
Nssg214
I3270120991
sg35
VPT2M46.851135S
p2509
sa(dp2510
g38
I2902827823
sg32
VWeaponDrop
p2511
sg223
I2
sg44
(lp2512
I2758383128
asg35
VPT2M46.8521364S
p2513
sg226
I2
sg227
VP0DT0H0M23.1333S
p2514
sg39
(dp2515
g41
VALG RyaNoob
p2516
sg43
Nssa(dp2517
g38
I4096745987
sg32
VWeaponDrop
p2518
sg223
I0
sg44
(lp2519
I2758383128
asg35
VPT2M46.8521364S
p2520
sg226
I0
sg227
VP0DT0H0M9.9000S
p2521
sg39
(dp2522
g41
VALG RyaNoob
p2523
sg43
Nssa(dp2524
g179
I313138863
sg180
I00
sg181
I00
sg182
(dp2525
g41
VRNG Commonly
p2526
sg43
Nssg185
(lp2527
I1095363701
asg187
I00
sg188
I01
sg189
I1
sg190
I0
sg191
I1
sg192
(dp2528
Vy
F2.1618092099999999
sVx
F3.975101
sVz
F4.8396549999999996
ssg194
(dp2529
Vy
F7.2886004399999997
sVx
F-1.99851918
sVz
F2.9746868599999998
ssg196
I00
sg197
(dp2530
g41
VALG Goofy HCS
p2531
sg43
Nssg200
(lp2532
sg202
(lp2533
(dp2534
g41
VRNG Ninja HCS
p2535
sg43
Nsasg206
I00
sg35
VPT2M47.7671483S
p2536
sg32
VDeath
p2537
sg209
I1
sa(dp2538
g32
VMedal
p2539
sg39
(dp2540
g41
VRNG Commonly
p2541
sg43
Nssg214
I2838259753
sg35
VPT2M47.7671483S
p2542
sa(dp2543
g32
VImpulse
p2544
sg39
(dp2545
g41
VRNG Commonly
p2546
sg43
Nssg336
I2556889090
sg35
VPT2M47.7671483S
p2547
sa(dp2548
g38
I313138863
sg32
VWeaponDrop
p2549
sg223
I10
sg44
(lp2550
I1095363701
asg35
VPT2M47.7741462S
p2551
sg226
I4
sg227
VP0DT0H0M7.6500S
p2552
sg39
(dp2553
g41
VALG Goofy HCS
p2554
sg43
Nssa(dp2555
g38
I4096745987
sg32
VWeaponDrop
p2556
sg223
I0
sg44
(lp2557
I2758383128
asg35
VPT2M47.7741462S
p2558
sg226
I0
sg227
VP0DT0H0M1.8500S
p2559
sg39
(dp2560
g41
VALG Goofy HCS
p2561
sg43
Nssa(dp2562
g38
I313138863
sg32
VWeaponDrop
p2563
sg223
I15
sg44
(lp2564
I1095363701
asg35
VPT2M48.647678S
p2565
sg226
I1
sg227
VP0DT0H0M9.2000S
p2566
sg39
(dp2567
g41
VRNG Penguin HCS
p2568
sg43
Nssa(dp2569
g38
I313138863
sg32
VWeaponDrop
p2570
sg223
I0
sg44
(lp2571
I1095363701
asg35
VPT2M48.647678S
p2572
sg226
I0
sg227
VP0DT0S
p2573
sg39
(dp2574
g41
VRNG Penguin HCS
p2575
sg43
Nssa(dp2576
g38
I2902827823
sg39
(dp2577
g41
VRNG Penguin HCS
p2578
sg43
Nssg44
(lp2579
I2758383128
asg32
VWeaponPickup
p2580
sg35
VPT2M48.648159S
p2581
sa(dp2582
g38
I313138863
sg39
(dp2583
g41
VALG ContrA HCS
p2584
sg43
Nssg44
(lp2585
I1095363701
asg32
VWeaponPickup
p2586
sg35
VPT2M49.2351677S
p2587
sa(dp2588
g38
I4096745987
sg39
(dp2589
g41
VALG ContrA HCS
p2590
sg43
Nssg44
(lp2591
I2758383128
asg32
VWeaponPickup
p2592
sg35
VPT2M49.2351677S
p2593
sa(dp2594
g32
VPlayerSpawn
p2595
sg39
(dp2596
g41
VALG ContrA HCS
p2597
sg43
Nssg35
VPT2M49.2351677S
p2598
sa(dp2599
g179
I4096745987
sg180
I00
sg181
I00
sg182
(dp2600
g41
VRNG Victory X
p2601
sg43
Nssg185
(lp2602
I2758383128
asg187
I00
sg188
I01
sg189
I1
sg190
I0
sg191
I1
sg192
(dp2603
Vy
F11.087231600000001
sVx
F20.68346
sVz
F1.605896
ssg194
(dp2604
Vy
F6.56858349
sVx
F20.072970000000002
sVz
F1.6058961199999999
ssg196
I00
sg197
(dp2605
g41
VALGPredevonator
p2606
sg43
Nssg200
(lp2607
sg202
(lp2608
sg206
I01
sg35
VPT2M49.2429508S
p2609
sg32
VDeath
p2610
sg209
I1
sa(dp2611
g32
VMedal
p2612
sg39
(dp2613
g41
VRNG Victory X
p2614
sg43
Nssg214
I2838259753
sg35
VPT2M49.2431666S
p2615
sa(dp2616
g32
VImpulse
p2617
sg39
(dp2618
g41
VRNG Victory X
p2619
sg43
Nssg336
I2556889090
sg35
VPT2M49.2431666S
p2620
sa(dp2621
g32
VMedal
p2622
sg39
(dp2623
g41
VRNG Ninja HCS
p2624
sg43
Nssg214
I824733727
sg35
VPT2M49.2431666S
p2625
sa(dp2626
g32
VMedal
p2627
sg39
(dp2628
g41
VRNG Victory X
p2629
sg43
Nssg214
I2766284219
sg35
VPT2M49.2528078S
p2630
sa(dp2631
g38
I313138863
sg32
VWeaponDrop
p2632
sg223
I0
sg44
(lp2633
I1095363701
asg35
VPT2M49.2531666S
p2634
sg226
I0
sg227
VP0DT0H0M0.7667S
p2635
sg39
(dp2636
g41
VALGPredevonator
p2637
sg43
Nssa(dp2638
g38
I4096745987
sg32
VWeaponDrop
p2639
sg223
I6
sg44
(lp2640
I2758383128
asg35
VPT2M49.2531666S
p2641
sg226
I4
sg227
VP0DT0H0M5.6333S
p2642
sg39
(dp2643
g41
VALGPredevonator
p2644
sg43
Nssa(dp2645
g32
VMedal
p2646
sg39
(dp2647
g41
VRNG Ninja HCS
p2648
sg43
Nssg214
I3400287617
sg35
VPT2M51.5624585S
p2649
sa(dp2650
g179
I4096745987
sg180
I00
sg181
I00
sg182
(dp2651
g41
VALG ContrA HCS
p2652
sg43
Nssg185
(lp2653
I2758383128
asg187
I00
sg188
I01
sg189
I1
sg190
I0
sg191
I1
sg192
(dp2654
Vy
F-0.17456297600000001
sVx
F22.828851700000001
sVz
F0.80002844299999998
ssg194
(dp2655
Vy
F12.6524687
sVx
F15.262854600000001
sVz
F2.1780638699999999
ssg196
I00
sg197
(dp2656
g41
VRNG Victory X
p2657
sg43
Nssg200
(lp2658
sg202
(lp2659
(dp2660
g41
VALGPredevonator
p2661
sg43
Nsasg206
I01
sg35
VPT2M52.3122065S
p2662
sg32
VDeath
p2663
sg209
I1
sa(dp2664
g32
VMedal
p2665
sg39
(dp2666
g41
VALG ContrA HCS
p2667
sg43
Nssg214
I1351381581
sg35
VPT2M52.3192051S
p2668
sa(dp2669
g32
VMedal
p2670
sg39
(dp2671
g41
VALG ContrA HCS
p2672
sg43
Nssg214
I3261908037
sg35
VPT2M52.3192051S
p2673
sa(dp2674
g38
I723388907
sg32
VWeaponDrop
p2675
sg223
I16
sg44
(lp2676
I89283061
asg35
VPT2M52.3202069S
p2677
sg226
I9
sg227
VP0DT0H0M4.0833S
p2678
sg39
(dp2679
g41
VRNG Victory X
p2680
sg43
Nssa(dp2681
g38
I4096745987
sg32
VWeaponDrop
p2682
sg223
I2
sg44
(lp2683
I2758383128
asg35
VPT2M52.3202069S
p2684
sg226
I1
sg227
VP0DT0H0M6.3333S
p2685
sg39
(dp2686
g41
VRNG Victory X
p2687
sg43
Nssa(dp2688
g38
I313138863
sg39
(dp2689
g41
VALG RyaNoob
p2690
sg43
Nssg44
(lp2691
I1095363701
asg32
VWeaponPickup
p2692
sg35
VPT2M54.8632391S
p2693
sa(dp2694
g38
I4096745987
sg39
(dp2695
g41
VALG RyaNoob
p2696
sg43
Nssg44
(lp2697
I2758383128
asg32
VWeaponPickup
p2698
sg35
VPT2M54.864239S
p2699
sa(dp2700
g32
VPlayerSpawn
p2701
sg39
(dp2702
g41
VALG RyaNoob
p2703
sg43
Nssg35
VPT2M54.864239S
p2704
sa(dp2705
g32
VMedal
p2706
sg39
(dp2707
g41
VRNG Commonly
p2708
sg43
Nssg214
I3565443938
sg35
VPT2M55.0272403S
p2709
sa(dp2710
g32
VMedal
p2711
sg39
(dp2712
g41
VRNG Ninja HCS
p2713
sg43
Nssg214
I1637841390
sg35
VPT2M55.0272403S
p2714
sa(dp2715
g32
VMedal
p2716
sg39
(dp2717
g41
VALG ContrA HCS
p2718
sg43
Nssg214
I2916014239
sg35
VPT2M55.710248S
p2719
sa(dp2720
g38
I313138863
sg39
(dp2721
g41
VALG Goofy HCS
p2722
sg43
Nssg44
(lp2723
I1095363701
asg32
VWeaponPickup
p2724
sg35
VPT2M55.7782509S
p2725
sa(dp2726
g38
I4096745987
sg39
(dp2727
g41
VALG Goofy HCS
p2728
sg43
Nssg44
(lp2729
I2758383128
asg32
VWeaponPickup
p2730
sg35
VPT2M55.7792509S
p2731
sa(dp2732
g32
VPlayerSpawn
p2733
sg39
(dp2734
g41
VALG Goofy HCS
p2735
sg43
Nssg35
VPT2M55.7792509S
p2736
sa(dp2737
g38
I313138863
sg39
(dp2738
g41
VALGPredevonator
p2739
sg43
Nssg44
(lp2740
I1095363701
asg32
VWeaponPickup
p2741
sg35
VPT2M57.2511699S
p2742
sa(dp2743
g38
I4096745987
sg39
(dp2744
g41
VALGPredevonator
p2745
sg43
Nssg44
(lp2746
I2758383128
asg32
VWeaponPickup
p2747
sg35
VPT2M57.2512676S
p2748
sa(dp2749
g32
VPlayerSpawn
p2750
sg39
(dp2751
g41
VALGPredevonator
p2752
sg43
Nssg35
VPT2M57.2512676S
p2753
sa(dp2754
g179
I4096745987
sg180
I00
sg181
I00
sg182
(dp2755
g41
VRNG Ninja HCS
p2756
sg43
Nssg185
(lp2757
I2758383128
asg187
I00
sg188
I01
sg189
I1
sg190
I0
sg191
I1
sg192
(dp2758
Vy
F7.3771095300000002
sVx
F11.7638588
sVz
F2.3947753899999999
ssg194
(dp2759
Vy
F7.1984176599999996
sVx
F19.551273299999998
sVz
F2.47145963
ssg196
I00
sg197
(dp2760
g41
VALG ContrA HCS
p2761
sg43
Nssg200
(lp2762
sg202
(lp2763
(dp2764
g41
VRNG Victory X
p2765
sg43
Nsasg206
I01
sg35
VPT2M57.4542717S
p2766
sg32
VDeath
p2767
sg209
I1
sa(dp2768
g32
VMedal
p2769
sg39
(dp2770
g41
VRNG Ninja HCS
p2771
sg43
Nssg214
I3261908037
sg35
VPT2M57.4552725S
p2772
sa(dp2773
g38
I313138863
sg32
VWeaponDrop
p2774
sg223
I0
sg44
(lp2775
I1095363701
asg35
VPT2M57.4562719S
p2776
sg226
I0
sg227
VP0DT0H0M0.8500S
p2777
sg39
(dp2778
g41
VALG ContrA HCS
p2779
sg43
Nssa(dp2780
g38
I4096745987
sg32
VWeaponDrop
p2781
sg223
I10
sg44
(lp2782
I2758383128
asg35
VPT2M57.4562719S
p2783
sg226
I8
sg227
VP0DT0H0M7.3667S
p2784
sg39
(dp2785
g41
VALG ContrA HCS
p2786
sg43
Nssa(dp2787
g38
I313138863
sg39
(dp2788
g41
VRNG Victory X
p2789
sg43
Nssg44
(lp2790
I1095363701
asg32
VWeaponPickup
p2791
sg35
VPT3M0.3283092S
p2792
sa(dp2793
g38
I4096745987
sg39
(dp2794
g41
VRNG Victory X
p2795
sg43
Nssg44
(lp2796
I2758383128
asg32
VWeaponPickup
p2797
sg35
VPT3M0.3283092S
p2798
sa(dp2799
g32
VPlayerSpawn
p2800
sg39
(dp2801
g41
VRNG Victory X
p2802
sg43
Nssg35
VPT3M0.329309S
p2803
sa(dp2804
g179
I4096745987
sg180
I00
sg181
I00
sg182
(dp2805
g41
VALGPredevonator
p2806
sg43
Nssg185
(lp2807
I2758383128
asg187
I00
sg188
I01
sg189
I1
sg190
I0
sg191
I1
sg192
(dp2808
Vy
F-4.3810014700000002
sVx
F1.2407973999999999
sVz
F3.18511868
ssg194
(dp2809
Vy
F-7.0617947599999997
sVx
F3.5599815800000001
sVz
F0.00452628732
ssg196
I00
sg197
(dp2810
g41
VRNG Commonly
p2811
sg43
Nssg200
(lp2812
sg202
(lp2813
(dp2814
g41
VALG RyaNoob
p2815
sg43
Nsasg206
I01
sg35
VPT3M2.0407705S
p2816
sg32
VDeath
p2817
sg209
I1
sa(dp2818
g32
VMedal
p2819
sg39
(dp2820
g41
VALGPredevonator
p2821
sg43
Nssg214
I3261908037
sg35
VPT3M2.0413298S
p2822
sa(dp2823
g38
I313138863
sg32
VWeaponDrop
p2824
sg223
I28
sg44
(lp2825
I1095363701
asg35
VPT3M2.0423301S
p2826
sg226
I9
sg227
VP0DT0H0M9.4333S
p2827
sg39
(dp2828
g41
VRNG Commonly
p2829
sg43
Nssa(dp2830
g38
I4096745987
sg32
VWeaponDrop
p2831
sg223
I5
sg44
(lp2832
I2758383128
asg35
VPT3M2.0423301S
p2833
sg226
I1
sg227
VP0DT0H0M17.3500S
p2834
sg39
(dp2835
g41
VRNG Commonly
p2836
sg43
Nssa(dp2837
g38
I313138863
sg39
(dp2838
g41
VALG ContrA HCS
p2839
sg43
Nssg44
(lp2840
I1095363701
asg32
VWeaponPickup
p2841
sg35
VPT3M5.4613749S
p2842
sa(dp2843
g38
I4096745987
sg39
(dp2844
g41
VALG ContrA HCS
p2845
sg43
Nssg44
(lp2846
I2758383128
asg32
VWeaponPickup
p2847
sg35
VPT3M5.46845S
p2848
sa(dp2849
g32
VPlayerSpawn
p2850
sg39
(dp2851
g41
VALG ContrA HCS
p2852
sg43
Nssg35
VPT3M5.4685169S
p2853
sa(dp2854
g38
I313138863
sg32
VWeaponDrop
p2855
sg223
I0
sg44
(lp2856
I1095363701
asg35
VPT3M6.7443902S
p2857
sg226
I0
sg227
VP0DT0H0M1.0500S
p2858
sg39
(dp2859
g41
VRNG Victory X
p2860
sg43
Nssa(dp2861
g38
I723388907
sg39
(dp2862
g41
VRNG Victory X
p2863
sg43
Nssg44
(lp2864
I89283061
asg32
VWeaponPickup
p2865
sg35
VPT3M6.7443902S
p2866
sa(dp2867
g179
I4096745987
sg180
I00
sg181
I00
sg182
(dp2868
g41
VALG Goofy HCS
p2869
sg43
Nssg185
(lp2870
I2758383128
asg187
I00
sg188
I01
sg189
I1
sg190
I0
sg191
I1
sg192
(dp2871
Vy
F12.079915
sVx
F17.0823383
sVz
F1.605864
ssg194
(dp2872
Vy
F13.001379999999999
sVx
F18.274486499999998
sVz
F1.6057550899999999
ssg196
I00
sg197
(dp2873
g41
VRNG Victory X
p2874
sg43
Nssg200
(lp2875
sg202
(lp2876
sg206
I01
sg35
VPT3M8.2444095S
p2877
sg32
VDeath
p2878
sg209
I1
sa(dp2879
g32
VMedal
p2880
sg39
(dp2881
g41
VALG Goofy HCS
p2882
sg43
Nssg214
I1351381581
sg35
VPT3M8.252409S
p2883
sa(dp2884
g32
VMedal
p2885
sg39
(dp2886
g41
VALG Goofy HCS
p2887
sg43
Nssg214
I3261908037
sg35
VPT3M8.252409S
p2888
sa(dp2889
g32
VMedal
p2890
sg39
(dp2891
g41
VALG Goofy HCS
p2892
sg43
Nssg214
I2916014239
sg35
VPT3M8.2534097S
p2893
sa(dp2894
g38
I723388907
sg32
VWeaponDrop
p2895
sg223
I11
sg44
(lp2896
I89283061
asg35
VPT3M8.2534097S
p2897
sg226
I5
sg227
VP0DT0H0M1.5000S
p2898
sg39
(dp2899
g41
VRNG Victory X
p2900
sg43
Nssa(dp2901
g38
I4096745987
sg32
VWeaponDrop
p2902
sg223
I0
sg44
(lp2903
I2758383128
asg35
VPT3M8.2534097S
p2904
sg226
I0
sg227
VP0DT0H0M5.3667S
p2905
sg39
(dp2906
g41
VRNG Victory X
p2907
sg43
Nssa(dp2908
g38
I313138863
sg39
(dp2909
g41
VRNG Commonly
p2910
sg43
Nssg44
(lp2911
I1095363701
asg32
VWeaponPickup
p2912
sg35
VPT3M10.0154328S
p2913
sa(dp2914
g38
I4096745987
sg39
(dp2915
g41
VRNG Commonly
p2916
sg43
Nssg44
(lp2917
I2758383128
asg32
VWeaponPickup
p2918
sg35
VPT3M10.0154328S
p2919
sa(dp2920
g32
VPlayerSpawn
p2921
sg39
(dp2922
g41
VRNG Commonly
p2923
sg43
Nssg35
VPT3M10.0154328S
p2924
sa(dp2925
g179
I4096745987
sg180
I00
sg181
I00
sg182
(dp2926
g41
VRNG Commonly
p2927
sg43
Nssg185
(lp2928
I2758383128
asg187
I00
sg188
I01
sg189
I1
sg190
I0
sg191
I1
sg192
(dp2929
Vy
F0.57358810000000005
sVx
F24.363084799999999
sVz
F2.8315877899999999
ssg194
(dp2930
Vy
F11.37872
sVx
F17.897638300000001
sVz
F1.6188504699999999
ssg196
I00
sg197
(dp2931
g41
VALG Goofy HCS
p2932
sg43
Nssg200
(lp2933
sg202
(lp2934
(dp2935
g41
VRNG Victory X
p2936
sg43
Nsa(dp2937
g41
VRNG Ninja HCS
p2938
sg43
Nsasg206
I00
sg35
VPT3M12.2314607S
p2939
sg32
VDeath
p2940
sg209
I1
sa(dp2941
g38
I313138863
sg32
VWeaponDrop
p2942
sg223
I0
sg44
(lp2943
I1095363701
asg35
VPT3M12.2405573S
p2944
sg226
I0
sg227
VP0DT0H0M0.8667S
p2945
sg39
(dp2946
g41
VALG Goofy HCS
p2947
sg43
Nssa(dp2948
g38
I4096745987
sg32
VWeaponDrop
p2949
sg223
I10
sg44
(lp2950
I2758383128
asg35
VPT3M12.2406239S
p2951
sg226
I7
sg227
VP0DT0H0M15.5833S
p2952
sg39
(dp2953
g41
VALG Goofy HCS
p2954
sg43
Nssa(dp2955
g38
I313138863
sg32
VWeaponDrop
p2956
sg223
I0
sg44
(lp2957
I1095363701
asg35
VPT3M12.9934705S
p2958
sg226
I0
sg227
VP0DT0H0M0.9667S
p2959
sg39
(dp2960
g41
VALGPredevonator
p2961
sg43
Nssa(dp2962
g38
I2015271382
sg39
(dp2963
g41
VALGPredevonator
p2964
sg43
Nssg44
(lp2965
I2758383128
asg32
VWeaponPickup
p2966
sg35
VPT3M12.9934705S
p2967
sa(dp2968
g32
VMedal
p2969
sg39
(dp2970
g41
VALG RyaNoob
p2971
sg43
Nssg214
I3565443938
sg35
VPT3M13.3780334S
p2972
sa(dp2973
g32
VMedal
p2974
sg39
(dp2975
g41
VALG ContrA HCS
p2976
sg43
Nssg214
I3565443938
sg35
VPT3M13.3780334S
p2977
sa(dp2978
g38
I313138863
sg39
(dp2979
g41
VRNG Victory X
p2980
sg43
Nssg44
(lp2981
I1095363701
asg32
VWeaponPickup
p2982
sg35
VPT3M16.2625127S
p2983
sa(dp2984
g38
I4096745987
sg39
(dp2985
g41
VRNG Victory X
p2986
sg43
Nssg44
(lp2987
I2758383128
asg32
VWeaponPickup
p2988
sg35
VPT3M16.2625127S
p2989
sa(dp2990
g32
VPlayerSpawn
p2991
sg39
(dp2992
g41
VRNG Victory X
p2993
sg43
Nssg35
VPT3M16.2625127S
p2994
sa(dp2995
g179
I2902827823
sg180
I00
sg181
I00
sg182
(dp2996
g41
VRNG Penguin HCS
p2997
sg43
Nssg185
(lp2998
I2758383128
asg187
I00
sg188
I01
sg189
I1
sg190
I0
sg191
I1
sg192
(dp2999
Vy
F-9.847334
sVx
F14.407895999999999
sVz
F2.8453254700000001
ssg194
(dp3000
Vy
F-8.4946374900000006
sVx
F10.1923218
sVz
F3.1403884899999999
ssg196
I00
sg197
(dp3001
g41
VALGPredevonator
p3002
sg43
Nssg200
(lp3003
sg202
(lp3004
sg206
I00
sg35
VPT3M16.2815128S
p3005
sg32
VDeath
p3006
sg209
I1
sa(dp3007
g32
VMedal
p3008
sg39
(dp3009
g41
VRNG Penguin HCS
p3010
sg43
Nssg214
I1351381581
sg35
VPT3M16.282513S
p3011
sa(dp3012
g38
I2015271382
sg32
VWeaponDrop
p3013
sg223
I0
sg44
(lp3014
I2758383128
asg35
VPT3M16.2835121S
p3015
sg226
I0
sg227
VP0DT0H0M0.4000S
p3016
sg39
(dp3017
g41
VALGPredevonator
p3018
sg43
Nssa(dp3019
g38
I4096745987
sg32
VWeaponDrop
p3020
sg223
I3
sg44
(lp3021
I2758383128
asg35
VPT3M16.2835121S
p3022
sg226
I1
sg227
VP0DT0H0M17.6667S
p3023
sg39
(dp3024
g41
VALGPredevonator
p3025
sg43
Nssa(dp3026
g32
VMedal
p3027
sg39
(dp3028
g41
VRNG Penguin HCS
p3029
sg43
Nssg214
I2916014239
sg35
VPT3M17.1648249S
p3030
sa(dp3031
g38
I313138863
sg39
(dp3032
g41
VALG Goofy HCS
p3033
sg43
Nssg44
(lp3034
I1095363701
asg32
VWeaponPickup
p3035
sg35
VPT3M20.2465636S
p3036
sa(dp3037
g38
I4096745987
sg39
(dp3038
g41
VALG Goofy HCS
p3039
sg43
Nssg44
(lp3040
I2758383128
asg32
VWeaponPickup
p3041
sg35
VPT3M20.2465636S
p3042
sa(dp3043
g32
VPlayerSpawn
p3044
sg39
(dp3045
g41
VALG Goofy HCS
p3046
sg43
Nssg35
VPT3M20.2465636S
p3047
sa(dp3048
g38
I313138863
sg32
VWeaponDrop
p3049
sg223
I25
sg44
(lp3050
I1095363701
asg35
VPT3M20.4950682S
p3051
sg226
I8
sg227
VP0DT0H0M6.9500S
p3052
sg39
(dp3053
g41
VRNG Ninja HCS
p3054
sg43
Nssa(dp3055
g38
I723388907
sg39
(dp3056
g41
VRNG Ninja HCS
p3057
sg43
Nssg44
(lp3058
I89283061
asg32
VWeaponPickup
p3059
sg35
VPT3M20.4955777S
p3060
sa(dp3061
g32
VMedal
p3062
sg39
(dp3063
g41
VRNG Ninja HCS
p3064
sg43
Nssg214
I3565443938
sg35
VPT3M21.0125723S
p3065
sa(dp3066
g32
VMedal
p3067
sg39
(dp3068
g41
VRNG Victory X
p3069
sg43
Nssg214
I3565443938
sg35
VPT3M21.0125723S
p3070
sa(dp3071
g38
I313138863
sg39
(dp3072
g41
VALGPredevonator
p3073
sg43
Nssg44
(lp3074
I1095363701
asg32
VWeaponPickup
p3075
sg35
VPT3M24.2956154S
p3076
sa(dp3077
g38
I4096745987
sg39
(dp3078
g41
VALGPredevonator
p3079
sg43
Nssg44
(lp3080
I2758383128
asg32
VWeaponPickup
p3081
sg35
VPT3M24.2966157S
p3082
sa(dp3083
g32
VPlayerSpawn
p3084
sg39
(dp3085
g41
VALGPredevonator
p3086
sg43
Nssg35
VPT3M24.2966157S
p3087
sa(dp3088
g179
I4096745987
sg180
I00
sg181
I00
sg182
(dp3089
g41
VALG Goofy HCS
p3090
sg43
Nssg185
(lp3091
I2758383128
asg187
I00
sg188
I01
sg189
I1
sg190
I0
sg191
I1
sg192
(dp3092
Vy
F4.6571373899999999
sVx
F3.3206458099999998
sVz
F4.5669374500000002
ssg194
(dp3093
Vy
F13.3682394
sVx
F3.8956209999999998
sVz
F3.4631416800000001
ssg196
I00
sg197
(dp3094
g41
VRNG Ninja HCS
p3095
sg43
Nssg200
(lp3096
sg202
(lp3097
sg206
I01
sg35
VPT3M26.5946446S
p3098
sg32
VDeath
p3099
sg209
I1
sa(dp3100
g32
VMedal
p3101
sg39
(dp3102
g41
VALG Goofy HCS
p3103
sg43
Nssg214
I3261908037
sg35
VPT3M26.6036443S
p3104
sa(dp3105
g38
I723388907
sg32
VWeaponDrop
p3106
sg223
I0
sg44
(lp3107
I89283061
asg35
VPT3M26.6046447S
p3108
sg226
I0
sg227
VP0DT0H0M0.6000S
p3109
sg39
(dp3110
g41
VRNG Ninja HCS
p3111
sg43
Nssa(dp3112
g38
I4096745987
sg32
VWeaponDrop
p3113
sg223
I34
sg44
(lp3114
I2758383128
asg35
VPT3M26.6046447S
p3115
sg226
I15
sg227
VP0DT0H0M39.9833S
p3116
sg39
(dp3117
g41
VRNG Ninja HCS
p3118
sg43
Nssa(dp3119
g179
I4096745987
sg180
I00
sg181
I01
sg182
(dp3120
g41
VRNG Penguin HCS
p3121
sg43
Nssg185
(lp3122
I2758383128
asg187
I00
sg188
I00
sg189
I1
sg190
I0
sg191
I1
sg192
(dp3123
Vy
F-9.71653652
sVx
F13.288819999999999
sVz
F3.1417658300000002
ssg194
(dp3124
Vy
F-9.4697759999999995
sVx
F13.0416861
sVz
F3.12614036
ssg196
I00
sg197
(dp3125
g41
VALG ContrA HCS
p3126
sg43
Nssg200
(lp3127
sg202
(lp3128
sg206
I00
sg35
VPT3M27.5666575S
p3129
sg32
VDeath
p3130
sg209
I1
sa(dp3131
g32
VMedal
p3132
sg39
(dp3133
g41
VRNG Penguin HCS
p3134
sg43
Nssg214
I1351381581
sg35
VPT3M27.5676691S
p3135
sa(dp3136
g32
VMedal
p3137
sg39
(dp3138
g41
VRNG Penguin HCS
p3139
sg43
Nssg214
I250435527
sg35
VPT3M27.5676691S
p3140
sa(dp3141
g32
VMedal
p3142
sg39
(dp3143
g41
VRNG Penguin HCS
p3144
sg43
Nssg214
I2916014239
sg35
VPT3M27.5676691S
p3145
sa(dp3146
g32
VMedal
p3147
sg39
(dp3148
g41
VRNG Penguin HCS
p3149
sg43
Nssg214
I2896365521
sg35
VPT3M27.5676691S
p3150
sa(dp3151
g38
I4096745987
sg32
VWeaponDrop
p3152
sg223
I15
sg44
(lp3153
I2758383128
asg35
VPT3M27.5743383S
p3154
sg226
I11
sg227
VP0DT0H0M21.3333S
p3155
sg39
(dp3156
g41
VALG ContrA HCS
p3157
sg43
Nssa(dp3158
g38
I4096745987
sg32
VWeaponDrop
p3159
sg223
I0
sg44
(lp3160
I2758383128
asg35
VPT3M27.5743383S
p3161
sg226
I0
sg227
VP0DT0S
p3162
sg39
(dp3163
g41
VALG ContrA HCS
p3164
sg43
Nssa(dp3165
g38
I313138863
sg32
VWeaponDrop
p3166
sg223
I0
sg44
(lp3167
I1095363701
asg35
VPT3M27.5746573S
p3168
sg226
I0
sg227
VP0DT0H0M0.6333S
p3169
sg39
(dp3170
g41
VALG ContrA HCS
p3171
sg43
Nssa(dp3172
g179
I4096745987
sg180
I00
sg181
I01
sg182
(dp3173
g41
VALG ContrA HCS
p3174
sg43
Nssg185
(lp3175
I2758383128
asg187
I00
sg188
I00
sg189
I1
sg190
I0
sg191
I1
sg192
(dp3176
Vy
F-9.4697759999999995
sVx
F13.0416861
sVz
F3.3511402600000002
ssg194
(dp3177
Vy
F-9.71653652
sVx
F13.288819999999999
sVz
F3.1417658300000002
ssg196
I00
sg197
(dp3178
g41
VRNG Penguin HCS
p3179
sg43
Nssg200
(lp3180
sg202
(lp3181
sg206
I00
sg35
VPT3M27.5746573S
p3182
sg32
VDeath
p3183
sg209
I1
sa(dp3184
g32
VMedal
p3185
sg39
(dp3186
g41
VALG ContrA HCS
p3187
sg43
Nssg214
I250435527
sg35
VPT3M27.5766571S
p3188
sa(dp3189
g38
I4096745987
sg32
VWeaponDrop
p3190
sg223
I8
sg44
(lp3191
I2758383128
asg35
VPT3M27.5766571S
p3192
sg226
I5
sg227
VP0DT0H0M10.1500S
p3193
sg39
(dp3194
g41
VRNG Penguin HCS
p3195
sg43
Nssa(dp3196
g38
I4096745987
sg32
VWeaponDrop
p3197
sg223
I0
sg44
(lp3198
I2758383128
asg35
VPT3M27.5766571S
p3199
sg226
I0
sg227
VP0DT0S
p3200
sg39
(dp3201
g41
VRNG Penguin HCS
p3202
sg43
Nssa(dp3203
g38
I2902827823
sg32
VWeaponDrop
p3204
sg223
I2
sg44
(lp3205
I2758383128
asg35
VPT3M27.5776577S
p3206
sg226
I2
sg227
VP0DT0H0M37.1500S
p3207
sg39
(dp3208
g41
VRNG Penguin HCS
p3209
sg43
Nssa(dp3210
g179
I4096745987
sg180
I00
sg181
I00
sg182
(dp3211
g41
VRNG Commonly
p3212
sg43
Nssg185
(lp3213
I2758383128
asg187
I00
sg188
I01
sg189
I1
sg190
I0
sg191
I1
sg192
(dp3214
Vy
F4.8695579999999996
sVx
F11.39973
sVz
F1.0506171
ssg194
(dp3215
Vy
F-5.601718
sVx
F12.3631525
sVz
F1.0649608399999999
ssg196
I00
sg197
(dp3216
g41
VALG RyaNoob
p3217
sg43
Nssg200
(lp3218
sg202
(lp3219
(dp3220
g41
VRNG Victory X
p3221
sg43
Nsasg206
I01
sg35
VPT3M27.587658S
p3222
sg32
VDeath
p3223
sg209
I1
sa(dp3224
g32
VMedal
p3225
sg39
(dp3226
g41
VRNG Commonly
p3227
sg43
Nssg214
I3261908037
sg35
VPT3M27.5987807S
p3228
sa(dp3229
g38
I313138863
sg32
VWeaponDrop
p3230
sg223
I0
sg44
(lp3231
I1095363701
asg35
VPT3M27.5996578S
p3232
sg226
I0
sg227
VP0DT0H0M0.7500S
p3233
sg39
(dp3234
g41
VALG RyaNoob
p3235
sg43
Nssa(dp3236
g38
I4096745987
sg32
VWeaponDrop
p3237
sg223
I22
sg44
(lp3238
I2758383128
asg35
VPT3M27.5996578S
p3239
sg226
I13
sg227
VP0DT0H0M31.8333S
p3240
sg39
(dp3241
g41
VALG RyaNoob
p3242
sg43
Nssa(dp3243
g179
I4096745987
sg180
I00
sg181
I00
sg182
(dp3244
g41
VALGPredevonator
p3245
sg43
Nssg185
(lp3246
I2758383128
asg187
I00
sg188
I01
sg189
I1
sg190
I0
sg191
I1
sg192
(dp3247
Vy
F-10.282644299999999
sVx
F5.805733
sVz
F0.0045273900000000001
ssg194
(dp3248
Vy
F2.5126164000000002
sVx
F12.8873129
sVz
F1.29345179
ssg196
I00
sg197
(dp3249
g41
VRNG Commonly
p3250
sg43
Nssg200
(lp3251
sg202
(lp3252
(dp3253
g41
VALG RyaNoob
p3254
sg43
Nsasg206
I00
sg35
VPT3M29.8986866S
p3255
sg32
VDeath
p3256
sg209
I1
sa(dp3257
g38
I4096745987
sg32
VWeaponDrop
p3258
sg223
I10
sg44
(lp3259
I2758383128
asg35
VPT3M29.9006866S
p3260
sg226
I5
sg227
VP0DT0H0M16.7500S
p3261
sg39
(dp3262
g41
VRNG Commonly
p3263
sg43
Nssa(dp3264
g38
I313138863
sg32
VWeaponDrop
p3265
sg223
I0
sg44
(lp3266
I1095363701
asg35
VPT3M29.9006866S
p3267
sg226
I0
sg227
VP0DT0H0M3.0000S
p3268
sg39
(dp3269
g41
VRNG Commonly
p3270
sg43
Nssa(dp3271
g38
I313138863
sg39
(dp3272
g41
VRNG Ninja HCS
p3273
sg43
Nssg44
(lp3274
I1095363701
asg32
VWeaponPickup
p3275
sg35
VPT3M34.7477501S
p3276
sa(dp3277
g38
I4096745987
sg39
(dp3278
g41
VRNG Ninja HCS
p3279
sg43
Nssg44
(lp3280
I2758383128
asg32
VWeaponPickup
p3281
sg35
VPT3M34.74875S
p3282
sa(dp3283
g32
VPlayerSpawn
p3284
sg39
(dp3285
g41
VRNG Ninja HCS
p3286
sg43
Nssg35
VPT3M34.74875S
p3287
sa(dp3288
g38
I313138863
sg39
(dp3289
g41
VALG ContrA HCS
p3290
sg43
Nssg44
(lp3291
I1095363701
asg32
VWeaponPickup
p3292
sg35
VPT3M35.5807604S
p3293
sa(dp3294
g38
I4096745987
sg39
(dp3295
g41
VALG ContrA HCS
p3296
sg43
Nssg44
(lp3297
I2758383128
asg32
VWeaponPickup
p3298
sg35
VPT3M35.5807604S
p3299
sa(dp3300
g32
VPlayerSpawn
p3301
sg39
(dp3302
g41
VALG ContrA HCS
p3303
sg43
Nssg35
VPT3M35.5807604S
p3304
sa(dp3305
g38
I313138863
sg39
(dp3306
g41
VALG RyaNoob
p3307
sg43
Nssg44
(lp3308
I1095363701
asg32
VWeaponPickup
p3309
sg35
VPT3M35.5997604S
p3310
sa(dp3311
g38
I4096745987
sg39
(dp3312
g41
VALG RyaNoob
p3313
sg43
Nssg44
(lp3314
I2758383128
asg32
VWeaponPickup
p3315
sg35
VPT3M35.5997604S
p3316
sa(dp3317
g32
VPlayerSpawn
p3318
sg39
(dp3319
g41
VALG RyaNoob
p3320
sg43
Nssg35
VPT3M35.5997604S
p3321
sa(dp3322
g38
I313138863
sg39
(dp3323
g41
VRNG Penguin HCS
p3324
sg43
Nssg44
(lp3325
I1095363701
asg32
VWeaponPickup
p3326
sg35
VPT3M35.6117606S
p3327
sa(dp3328
g38
I4096745987
sg39
(dp3329
g41
VRNG Penguin HCS
p3330
sg43
Nssg44
(lp3331
I2758383128
asg32
VWeaponPickup
p3332
sg35
VPT3M35.6117606S
p3333
sa(dp3334
g32
VPlayerSpawn
p3335
sg39
(dp3336
g41
VRNG Penguin HCS
p3337
sg43
Nssg35
VPT3M35.6117606S
p3338
sa(dp3339
g38
I313138863
sg39
(dp3340
g41
VRNG Commonly
p3341
sg43
Nssg44
(lp3342
I1095363701
asg32
VWeaponPickup
p3343
sg35
VPT3M37.9167896S
p3344
sa(dp3345
g38
I4096745987
sg39
(dp3346
g41
VRNG Commonly
p3347
sg43
Nssg44
(lp3348
I2758383128
asg32
VWeaponPickup
p3349
sg35
VPT3M37.9167896S
p3350
sa(dp3351
g32
VPlayerSpawn
p3352
sg39
(dp3353
g41
VRNG Commonly
p3354
sg43
Nssg35
VPT3M37.9167896S
p3355
sa(dp3356
g38
I313138863
sg32
VWeaponDrop
p3357
sg223
I0
sg44
(lp3358
I1095363701
asg35
VPT3M40.397667S
p3359
sg226
I0
sg227
VP0DT0H0M2.3833S
p3360
sg39
(dp3361
g41
VRNG Penguin HCS
p3362
sg43
Nssa(dp3363
g38
I723388907
sg39
(dp3364
g41
VRNG Penguin HCS
p3365
sg43
Nssg44
(lp3366
I89283061
asg32
VWeaponPickup
p3367
sg35
VPT3M40.3978211S
p3368
sa(dp3369
g179
I4096745987
sg180
I00
sg181
I00
sg182
(dp3370
g41
VALG ContrA HCS
p3371
sg43
Nssg185
(lp3372
I2758383128
asg187
I00
sg188
I01
sg189
I1
sg190
I0
sg191
I1
sg192
(dp3373
Vy
F-18.4101143
sVx
F10.710271799999999
sVz
F0.80000376699999998
ssg194
(dp3374
Vy
F-13.433570899999999
sVx
F15.991511300000001
sVz
F2.7037167499999999
ssg196
I00
sg197
(dp3375
g41
VRNG Victory X
p3376
sg43
Nssg200
(lp3377
sg202
(lp3378
(dp3379
g41
VALGPredevonator
p3380
sg43
Nsasg206
I00
sg35
VPT3M42.8768534S
p3381
sg32
VDeath
p3382
sg209
I1
sa(dp3383
g32
VMedal
p3384
sg39
(dp3385
g41
VALG ContrA HCS
p3386
sg43
Nssg214
I2838259753
sg35
VPT3M42.8779484S
p3387
sa(dp3388
g32
VImpulse
p3389
sg39
(dp3390
g41
VALG ContrA HCS
p3391
sg43
Nssg336
I2556889090
sg35
VPT3M42.8779484S
p3392
sa(dp3393
g38
I313138863
sg32
VWeaponDrop
p3394
sg223
I0
sg44
(lp3395
I1095363701
asg35
VPT3M42.8858532S
p3396
sg226
I0
sg227
VP0DT0H0M2.0667S
p3397
sg39
(dp3398
g41
VRNG Victory X
p3399
sg43
Nssa(dp3400
g38
I4096745987
sg32
VWeaponDrop
p3401
sg223
I11
sg44
(lp3402
I2758383128
asg35
VPT3M42.8858532S
p3403
sg226
I7
sg227
VP0DT0H0M24.4167S
p3404
sg39
(dp3405
g41
VRNG Victory X
p3406
sg43
Nssa(dp3407
g179
I4106030681
sg180
I00
sg181
I00
sg182
(dp3408
g41
VRNG Penguin HCS
p3409
sg43
Nssg185
(lp3410
sg187
I00
sg188
I01
sg189
I1
sg190
I0
sg191
I1
sg192
(dp3411
Vy
F11.436014200000001
sVx
F15.7388086
sVz
F1.605896
ssg194
(dp3412
Vy
F-14.251687
sVx
F8.3219139999999996
sVz
F2.2177996599999998
ssg196
I00
sg197
(dp3413
g41
VALGPredevonator
p3414
sg43
Nssg200
(lp3415
sg202
(lp3416
(dp3417
g41
VRNG Victory X
p3418
sg43
Nsa(dp3419
g41
VRNG Ninja HCS
p3420
sg43
Nsasg206
I00
sg35
VPT3M44.8158781S
p3421
sg32
VDeath
p3422
sg209
I1
sa(dp3423
g32
VMedal
p3424
sg39
(dp3425
g41
VRNG Penguin HCS
p3426
sg43
Nssg214
I3491849182
sg35
VPT3M44.816878S
p3427
sa(dp3428
g38
I313138863
sg32
VWeaponDrop
p3429
sg223
I0
sg44
(lp3430
I1095363701
asg35
VPT3M44.816878S
p3431
sg226
I0
sg227
VP0DT0H0M0.4500S
p3432
sg39
(dp3433
g41
VALGPredevonator
p3434
sg43
Nssa(dp3435
g38
I4096745987
sg32
VWeaponDrop
p3436
sg223
I7
sg44
(lp3437
I2758383128
asg35
VPT3M44.816878S
p3438
sg226
I3
sg227
VP0DT0H0M19.9333S
p3439
sg39
(dp3440
g41
VALGPredevonator
p3441
sg43
Nssa(dp3442
g38
I313138863
sg39
(dp3443
g41
VRNG Victory X
p3444
sg43
Nssg44
(lp3445
I1095363701
asg32
VWeaponPickup
p3446
sg35
VPT3M50.8939562S
p3447
sa(dp3448
g38
I4096745987
sg39
(dp3449
g41
VRNG Victory X
p3450
sg43
Nssg44
(lp3451
I2758383128
asg32
VWeaponPickup
p3452
sg35
VPT3M50.9009539S
p3453
sa(dp3454
g32
VPlayerSpawn
p3455
sg39
(dp3456
g41
VRNG Victory X
p3457
sg43
Nssg35
VPT3M50.9009539S
p3458
sa(dp3459
g38
I313138863
sg32
VWeaponDrop
p3460
sg223
I0
sg44
(lp3461
I1095363701
asg35
VPT3M51.141957S
p3462
sg226
I0
sg227
VP0DT0H0M1.3167S
p3463
sg39
(dp3464
g41
VALG RyaNoob
p3465
sg43
Nssa(dp3466
g38
I723388907
sg39
(dp3467
g41
VALG RyaNoob
p3468
sg43
Nssg44
(lp3469
I89283061
asg32
VWeaponPickup
p3470
sg35
VPT3M51.141957S
p3471
sa(dp3472
g179
I4096745987
sg180
I00
sg181
I00
sg182
(dp3473
g41
VRNG Penguin HCS
p3474
sg43
Nssg185
(lp3475
I2758383128
asg187
I00
sg188
I01
sg189
I1
sg190
I0
sg191
I1
sg192
(dp3476
Vy
F6.1199570000000003
sVx
F10.485970500000001
sVz
F2.9603809999999999
ssg194
(dp3477
Vy
F-3.6712699999999998
sVx
F12.696747800000001
sVz
F2.50911617
ssg196
I00
sg197
(dp3478
g41
VALG Goofy HCS
p3479
sg43
Nssg200
(lp3480
sg202
(lp3481
sg206
I01
sg35
VPT3M51.3949622S
p3482
sg32
VDeath
p3483
sg209
I1
sa(dp3484
g32
VMedal
p3485
sg39
(dp3486
g41
VRNG Ninja HCS
p3487
sg43
Nssg214
I824733727
sg35
VPT3M51.3949622S
p3488
sa(dp3489
g32
VMedal
p3490
sg39
(dp3491
g41
VRNG Penguin HCS
p3492
sg43
Nssg214
I3261908037
sg35
VPT3M51.4039616S
p3493
sa(dp3494
g38
I313138863
sg32
VWeaponDrop
p3495
sg223
I0
sg44
(lp3496
I1095363701
asg35
VPT3M51.404962S
p3497
sg226
I0
sg227
VP0DT0H0M0.7333S
p3498
sg39
(dp3499
g41
VALG Goofy HCS
p3500
sg43
Nssa(dp3501
g38
I4096745987
sg32
VWeaponDrop
p3502
sg223
I18
sg44
(lp3503
I2758383128
asg35
VPT3M51.404962S
p3504
sg226
I7
sg227
VP0DT0H0M30.2833S
p3505
sg39
(dp3506
g41
VALG Goofy HCS
p3507
sg43
Nssa(dp3508
g38
I313138863
sg39
(dp3509
g41
VALGPredevonator
p3510
sg43
Nssg44
(lp3511
I1095363701
asg32
VWeaponPickup
p3512
sg35
VPT3M52.832981S
p3513
sa(dp3514
g38
I4096745987
sg39
(dp3515
g41
VALGPredevonator
p3516
sg43
Nssg44
(lp3517
I2758383128
asg32
VWeaponPickup
p3518
sg35
VPT3M52.832981S
p3519
sa(dp3520
g32
VPlayerSpawn
p3521
sg39
(dp3522
g41
VALGPredevonator
p3523
sg43
Nssg35
VPT3M52.832981S
p3524
sa(dp3525
g179
I4096745987
sg180
I00
sg181
I00
sg182
(dp3526
g41
VRNG Victory X
p3527
sg43
Nssg185
(lp3528
I2758383128
asg187
I00
sg188
I01
sg189
I1
sg190
I0
sg191
I1
sg192
(dp3529
Vy
F0.178239286
sVx
F3.9569169999999998
sVz
F3.7001571700000002
ssg194
(dp3530
Vy
F-9.0710169999999994
sVx
F9.6887679999999996
sVz
F3.1924257300000001
ssg196
I00
sg197
(dp3531
g41
VALG ContrA HCS
p3532
sg43
Nssg200
(lp3533
sg202
(lp3534
(dp3535
g41
VRNG Ninja HCS
p3536
sg43
Nsa(dp3537
g41
VRNG Penguin HCS
p3538
sg43
Nsa(dp3539
g41
VRNG Commonly
p3540
sg43
Nsasg206
I01
sg35
VPT3M55.5780163S
p3541
sg32
VDeath
p3542
sg209
I1
sa(dp3543
g32
VMedal
p3544
sg39
(dp3545
g41
VRNG Victory X
p3546
sg43
Nssg214
I2838259753
sg35
VPT3M55.5780163S
p3547
sa(dp3548
g32
VImpulse
p3549
sg39
(dp3550
g41
VRNG Victory X
p3551
sg43
Nssg336
I2556889090
sg35
VPT3M55.5780163S
p3552
sa(dp3553
g32
VMedal
p3554
sg39
(dp3555
g41
VRNG Victory X
p3556
sg43
Nssg214
I194124164
sg35
VPT3M55.5780163S
p3557
sa(dp3558
g32
VMedal
p3559
sg39
(dp3560
g41
VRNG Ninja HCS
p3561
sg43
Nssg214
I1326375333
sg35
VPT3M55.5780163S
p3562
sa(dp3563
g32
VMedal
p3564
sg39
(dp3565
g41
VRNG Penguin HCS
p3566
sg43
Nssg214
I1326375333
sg35
VPT3M55.5780163S
p3567
sa(dp3568
g32
VMedal
p3569
sg39
(dp3570
g41
VRNG Commonly
p3571
sg43
Nssg214
I1326375333
sg35
VPT3M55.5780163S
p3572
sa(dp3573
g32
VMedal
p3574
sg39
(dp3575
g41
VRNG Victory X
p3576
sg43
Nssg214
I1351381581
sg35
VPT3M55.5790153S
p3577
sa(dp3578
g32
VMedal
p3579
sg39
(dp3580
g41
VRNG Victory X
p3581
sg43
Nssg214
I3261908037
sg35
VPT3M55.5790153S
p3582
sa(dp3583
g32
VMedal
p3584
sg39
(dp3585
g41
VRNG Ninja HCS
p3586
sg43
Nssg214
I2916014239
sg35
VPT3M55.5800159S
p3587
sa(dp3588
g38
I313138863
sg32
VWeaponDrop
p3589
sg223
I0
sg44
(lp3590
I1095363701
asg35
VPT3M55.5865242S
p3591
sg226
I0
sg227
VP0DT0H0M0.4167S
p3592
sg39
(dp3593
g41
VALG ContrA HCS
p3594
sg43
Nssa(dp3595
g38
I4096745987
sg32
VWeaponDrop
p3596
sg223
I9
sg44
(lp3597
I2758383128
asg35
VPT3M55.5865242S
p3598
sg226
I7
sg227
VP0DT0H0M19.5667S
p3599
sg39
(dp3600
g41
VALG ContrA HCS
p3601
sg43
Nssa(dp3602
g179
I723388907
sg180
I00
sg181
I00
sg182
(dp3603
g41
VALG RyaNoob
p3604
sg43
Nssg185
(lp3605
I89283061
asg187
I00
sg188
I01
sg189
I1
sg190
I0
sg191
I1
sg192
(dp3606
Vy
F-5.1064559999999997
sVx
F16.805936800000001
sVz
F2.9307159999999999
ssg194
(dp3607
Vy
F-9.8986699999999992
sVx
F12.10069
sVz
F3.1403903999999998
ssg196
I00
sg197
(dp3608
g41
VRNG Ninja HCS
p3609
sg43
Nssg200
(lp3610
sg202
(lp3611
(dp3612
g41
VALG ContrA HCS
p3613
sg43
Nsasg206
I00
sg35
VPT3M56.9460341S
p3614
sg32
VDeath
p3615
sg209
I1
sa(dp3616
g38
I313138863
sg32
VWeaponDrop
p3617
sg223
I25
sg44
(lp3618
I1095363701
asg35
VPT3M56.9540335S
p3619
sg226
I9
sg227
VP0DT0H0M11.4667S
p3620
sg39
(dp3621
g41
VRNG Ninja HCS
p3622
sg43
Nssa(dp3623
g38
I4096745987
sg32
VWeaponDrop
p3624
sg223
I5
sg44
(lp3625
I2758383128
asg35
VPT3M56.9540335S
p3626
sg226
I1
sg227
VP0DT0H0M10.7167S
p3627
sg39
(dp3628
g41
VRNG Ninja HCS
p3629
sg43
Nssa(dp3630
g38
I313138863
sg39
(dp3631
g41
VALG Goofy HCS
p3632
sg43
Nssg44
(lp3633
I1095363701
asg32
VWeaponPickup
p3634
sg35
VPT3M59.4210649S
p3635
sa(dp3636
g38
I4096745987
sg39
(dp3637
g41
VALG Goofy HCS
p3638
sg43
Nssg44
(lp3639
I2758383128
asg32
VWeaponPickup
p3640
sg35
VPT3M59.4210649S
p3641
sa(dp3642
g32
VPlayerSpawn
p3643
sg39
(dp3644
g41
VALG Goofy HCS
p3645
sg43
Nssg35
VPT3M59.4210649S
p3646
sa(dp3647
g179
I4096745987
sg180
I00
sg181
I00
sg182
(dp3648
g41
VALGPredevonator
p3649
sg43
Nssg185
(lp3650
I2758383128
asg187
I00
sg188
I01
sg189
I1
sg190
I0
sg191
I1
sg192
(dp3651
Vy
F-13.179615999999999
sVx
F6.6253580000000003
sVz
F3.0851213899999999
ssg194
(dp3652
Vy
F3.021833
sVx
F5.5015525800000002
sVz
F3.7001574000000002
ssg196
I00
sg197
(dp3653
g41
VRNG Victory X
p3654
sg43
Nssg200
(lp3655
sg202
(lp3656
sg206
I01
sg35
VPT4M3.5451184S
p3657
sg32
VDeath
p3658
sg209
I1
sa(dp3659
g32
VMedal
p3660
sg39
(dp3661
g41
VALGPredevonator
p3662
sg43
Nssg214
I2494364276
sg35
VPT4M3.5461184S
p3663
sa(dp3664
g32
VMedal
p3665
sg39
(dp3666
g41
VALG Goofy HCS
p3667
sg43
Nssg214
I824733727
sg35
VPT4M3.5461184S
p3668
sa(dp3669
g32
VMedal
p3670
sg39
(dp3671
g41
VALGPredevonator
p3672
sg43
Nssg214
I1351381581
sg35
VPT4M3.5471176S
p3673
sa(dp3674
g32
VMedal
p3675
sg39
(dp3676
g41
VALGPredevonator
p3677
sg43
Nssg214
I3261908037
sg35
VPT4M3.5539172S
p3678
sa(dp3679
g38
I313138863
sg32
VWeaponDrop
p3680
sg223
I0
sg44
(lp3681
I1095363701
asg35
VPT4M3.5541169S
p3682
sg226
I0
sg227
VP0DT0H0M0.3833S
p3683
sg39
(dp3684
g41
VRNG Victory X
p3685
sg43
Nssa(dp3686
g38
I4096745987
sg32
VWeaponDrop
p3687
sg223
I14
sg44
(lp3688
I2758383128
asg35
VPT4M3.5541169S
p3689
sg226
I4
sg227
VP0DT0H0M12.2500S
p3690
sg39
(dp3691
g41
VRNG Victory X
p3692
sg43
Nssa(dp3693
g38
I313138863
sg39
(dp3694
g41
VALG ContrA HCS
p3695
sg43
Nssg44
(lp3696
I1095363701
asg32
VWeaponPickup
p3697
sg35
VPT4M3.595119S
p3698
sa(dp3699
g38
I4096745987
sg39
(dp3700
g41
VALG ContrA HCS
p3701
sg43
Nssg44
(lp3702
I2758383128
asg32
VWeaponPickup
p3703
sg35
VPT4M3.595119S
p3704
sa(dp3705
g32
VPlayerSpawn
p3706
sg39
(dp3707
g41
VALG ContrA HCS
p3708
sg43
Nssg35
VPT4M3.595119S
p3709
sa(dp3710
g38
I313138863
sg39
(dp3711
g41
VRNG Ninja HCS
p3712
sg43
Nssg44
(lp3713
I1095363701
asg32
VWeaponPickup
p3714
sg35
VPT4M4.9525352S
p3715
sa(dp3716
g38
I4096745987
sg39
(dp3717
g41
VRNG Ninja HCS
p3718
sg43
Nssg44
(lp3719
I2758383128
asg32
VWeaponPickup
p3720
sg35
VPT4M4.9525352S
p3721
sa(dp3722
g32
VPlayerSpawn
p3723
sg39
(dp3724
g41
VRNG Ninja HCS
p3725
sg43
Nssg35
VPT4M4.9531361S
p3726
sa(dp3727
g179
I723388907
sg180
I00
sg181
I00
sg182
(dp3728
g41
VRNG Penguin HCS
p3729
sg43
Nssg185
(lp3730
I89283061
asg187
I00
sg188
I01
sg189
I1
sg190
I0
sg191
I1
sg192
(dp3731
Vy
F-9.3868950000000009
sVx
F14.476836199999999
sVz
F2.9957804700000001
ssg194
(dp3732
Vy
F-9.9983839999999997
sVx
F10.1215668
sVz
F3.1403884899999999
ssg196
I00
sg197
(dp3733
g41
VALG RyaNoob
p3734
sg43
Nssg200
(lp3735
sg202
(lp3736
(dp3737
g41
VRNG Commonly
p3738
sg43
Nsasg206
I00
sg35
VPT4M5.0621371S
p3739
sg32
VDeath
p3740
sg209
I1
sa(dp3741
g32
VMedal
p3742
sg39
(dp3743
g41
VRNG Penguin HCS
p3744
sg43
Nssg214
I1351381581
sg35
VPT4M5.0631371S
p3745
sa(dp3746
g38
I723388907
sg32
VWeaponDrop
p3747
sg223
I52
sg44
(lp3748
I89283061
asg35
VPT4M5.0641372S
p3749
sg226
I6
sg227
VP0DT0H0M10.0000S
p3750
sg39
(dp3751
g41
VALG RyaNoob
p3752
sg43
Nssa(dp3753
g38
I4096745987
sg32
VWeaponDrop
p3754
sg223
I7
sg44
(lp3755
I2758383128
asg35
VPT4M5.0641372S
p3756
sg226
I3
sg227
VP0DT0H0M18.1333S
p3757
sg39
(dp3758
g41
VALG RyaNoob
p3759
sg43
Nssa(dp3760
g32
VMedal
p3761
sg39
(dp3762
g41
VRNG Penguin HCS
p3763
sg43
Nssg214
I2916014239
sg35
VPT4M5.3621413S
p3764
sa(dp3765
g32
VMedal
p3766
sg39
(dp3767
g41
VALG Goofy HCS
p3768
sg43
Nssg214
I2916014239
sg35
VPT4M7.2151653S
p3769
sa(dp3770
g179
I4096745987
sg180
I00
sg181
I00
sg182
(dp3771
g41
VRNG Ninja HCS
p3772
sg43
Nssg185
(lp3773
I2758383128
asg187
I00
sg188
I01
sg189
I1
sg190
I0
sg191
I1
sg192
(dp3774
Vy
F8.1839320000000004
sVx
F11.227410000000001
sVz
F2.3947753899999999
ssg194
(dp3775
Vy
F4.4779780000000002
sVx
F-0.18823566999999999
sVz
F1.3229500000000001
ssg196
I00
sg197
(dp3776
g41
VALG Goofy HCS
p3777
sg43
Nssg200
(lp3778
sg202
(lp3779
sg206
I01
sg35
VPT4M9.6931966S
p3780
sg32
VDeath
p3781
sg209
I1
sa(dp3782
g32
VMedal
p3783
sg39
(dp3784
g41
VRNG Ninja HCS
p3785
sg43
Nssg214
I3698887726
sg35
VPT4M9.6931966S
p3786
sa(dp3787
g32
VMedal
p3788
sg39
(dp3789
g41
VRNG Ninja HCS
p3790
sg43
Nssg214
I3261908037
sg35
VPT4M9.6941964S
p3791
sa(dp3792
g38
I313138863
sg32
VWeaponDrop
p3793
sg223
I0
sg44
(lp3794
I1095363701
asg35
VPT4M9.7013085S
p3795
sg226
I0
sg227
VP0DT0H0M3.6833S
p3796
sg39
(dp3797
g41
VALG Goofy HCS
p3798
sg43
Nssa(dp3799
g38
I4096745987
sg32
VWeaponDrop
p3800
sg223
I0
sg44
(lp3801
I2758383128
asg35
VPT4M9.7013085S
p3802
sg226
I0
sg227
VP0DT0H0M6.5833S
p3803
sg39
(dp3804
g41
VALG Goofy HCS
p3805
sg43
Nssa(dp3806
g38
I313138863
sg39
(dp3807
g41
VRNG Victory X
p3808
sg43
Nssg44
(lp3809
I1095363701
asg32
VWeaponPickup
p3810
sg35
VPT4M11.5533457S
p3811
sa(dp3812
g38
I4096745987
sg39
(dp3813
g41
VRNG Victory X
p3814
sg43
Nssg44
(lp3815
I2758383128
asg32
VWeaponPickup
p3816
sg35
VPT4M11.5542204S
p3817
sa(dp3818
g32
VPlayerSpawn
p3819
sg39
(dp3820
g41
VRNG Victory X
p3821
sg43
Nssg35
VPT4M11.5542204S
p3822
sa(dp3823
g38
I313138863
sg39
(dp3824
g41
VALG RyaNoob
p3825
sg43
Nssg44
(lp3826
I1095363701
asg32
VWeaponPickup
p3827
sg35
VPT4M13.0772409S
p3828
sa(dp3829
g38
I4096745987
sg39
(dp3830
g41
VALG RyaNoob
p3831
sg43
Nssg44
(lp3832
I2758383128
asg32
VWeaponPickup
p3833
sg35
VPT4M13.0772409S
p3834
sa(dp3835
g32
VPlayerSpawn
p3836
sg39
(dp3837
g41
VALG RyaNoob
p3838
sg43
Nssg35
VPT4M13.0772409S
p3839
sa(dp3840
g38
I313138863
sg32
VWeaponDrop
p3841
sg223
I0
sg44
(lp3842
I1095363701
asg35
VPT4M15.2798652S
p3843
sg226
I0
sg227
VP0DT0H0M1.0333S
p3844
sg39
(dp3845
g41
VRNG Ninja HCS
p3846
sg43
Nssa(dp3847
g38
I723388907
sg39
(dp3848
g41
VRNG Ninja HCS
p3849
sg43
Nssg44
(lp3850
I89283061
asg32
VWeaponPickup
p3851
sg35
VPT4M15.2798652S
p3852
sa(dp3853
g38
I313138863
sg32
VWeaponDrop
p3854
sg223
I0
sg44
(lp3855
I1095363701
asg35
VPT4M17.6954758S
p3856
sg226
I0
sg227
VP0DT0H0M0.8667S
p3857
sg39
(dp3858
g41
VRNG Victory X
p3859
sg43
Nssa(dp3860
g38
I2902827823
sg39
(dp3861
g41
VRNG Victory X
p3862
sg43
Nssg44
(lp3863
I2758383128
asg32
VWeaponPickupPad
p3864
sg35
VPT4M17.6954758S
p3865
sa(dp3866
g38
I2902827823
sg39
(dp3867
g41
VRNG Victory X
p3868
sg43
Nssg44
(lp3869
I2758383128
asg32
VWeaponPickup
p3870
sg35
VPT4M17.6954758S
p3871
sa(dp3872
g38
I313138863
sg39
(dp3873
g41
VALG Goofy HCS
p3874
sg43
Nssg44
(lp3875
I1095363701
asg32
VWeaponPickup
p3876
sg35
VPT4M17.7062993S
p3877
sa(dp3878
g38
I4096745987
sg39
(dp3879
g41
VALG Goofy HCS
p3880
sg43
Nssg44
(lp3881
I2758383128
asg32
VWeaponPickup
p3882
sg35
VPT4M17.7072997S
p3883
sa(dp3884
g32
VPlayerSpawn
p3885
sg39
(dp3886
g41
VALG Goofy HCS
p3887
sg43
Nssg35
VPT4M17.7072997S
p3888
sa(dp3889
g179
I723388907
sg180
I00
sg181
I01
sg182
(dp3890
g41
VRNG Penguin HCS
p3891
sg43
Nssg185
(lp3892
I89283061
asg187
I00
sg188
I00
sg189
I1
sg190
I0
sg191
I1
sg192
(dp3893
Vy
F-10.214125599999999
sVx
F18.352333099999999
sVz
F1.62578607
ssg194
(dp3894
Vy
F-9.7790710000000001
sVx
F18.667707400000001
sVz
F1.6294957400000001
ssg196
I00
sg197
(dp3895
g41
VALGPredevonator
p3896
sg43
Nssg200
(lp3897
sg202
(lp3898
sg206
I00
sg35
VPT4M20.3123343S
p3899
sg32
VDeath
p3900
sg209
I1
sa(dp3901
g32
VMedal
p3902
sg39
(dp3903
g41
VRNG Penguin HCS
p3904
sg43
Nssg214
I2287626681
sg35
VPT4M20.3133329S
p3905
sa(dp3906
g38
I313138863
sg32
VWeaponDrop
p3907
sg223
I13
sg44
(lp3908
I1095363701
asg35
VPT4M20.3143345S
p3909
sg226
I7
sg227
VP0DT0H0M7.6667S
p3910
sg39
(dp3911
g41
VALGPredevonator
p3912
sg43
Nssa(dp3913
g38
I313138863
sg32
VWeaponDrop
p3914
sg223
I0
sg44
(lp3915
I1095363701
asg35
VPT4M20.3143345S
p3916
sg226
I0
sg227
VP0DT0S
p3917
sg39
(dp3918
g41
VALGPredevonator
p3919
sg43
Nssa(dp3920
g38
I4096745987
sg32
VWeaponDrop
p3921
sg223
I13
sg44
(lp3922
I2758383128
asg35
VPT4M20.3210146S
p3923
sg226
I8
sg227
VP0DT0H0M19.8000S
p3924
sg39
(dp3925
g41
VALGPredevonator
p3926
sg43
Nssa(dp3927
g179
I4096745987
sg180
I00
sg181
I00
sg182
(dp3928
g41
VALG RyaNoob
p3929
sg43
Nssg185
(lp3930
I2758383128
asg187
I00
sg188
I01
sg189
I1
sg190
I0
sg191
I1
sg192
(dp3931
Vy
F-16.0102367
sVx
F13.4779549
sVz
F1.37949061
ssg194
(dp3932
Vy
F-13.3801355
sVx
F16.389581700000001
sVz
F1.4891846200000001
ssg196
I00
sg197
(dp3933
g41
VRNG Penguin HCS
p3934
sg43
Nssg200
(lp3935
sg202
(lp3936
(dp3937
g41
VALGPredevonator
p3938
sg43
Nsasg206
I01
sg35
VPT4M22.5623617S
p3939
sg32
VDeath
p3940
sg209
I1
sa(dp3941
g32
VMedal
p3942
sg39
(dp3943
g41
VALG RyaNoob
p3944
sg43
Nssg214
I3261908037
sg35
VPT4M22.5633619S
p3945
sa(dp3946
g38
I723388907
sg32
VWeaponDrop
p3947
sg223
I72
sg44
(lp3948
I89283061
asg35
VPT4M22.5705918S
p3949
sg226
I23
sg227
VP0DT0H0M27.6833S
p3950
sg39
(dp3951
g41
VRNG Penguin HCS
p3952
sg43
Nssa(dp3953
g38
I723388907
sg32
VWeaponDrop
p3954
sg223
I0
sg44
(lp3955
I89283061
asg35
VPT4M22.5705918S
p3956
sg226
I0
sg227
VP0DT0S
p3957
sg39
(dp3958
g41
VRNG Penguin HCS
p3959
sg43
Nssa(dp3960
g38
I4096745987
sg32
VWeaponDrop
p3961
sg223
I11
sg44
(lp3962
I2758383128
asg35
VPT4M22.5705918S
p3963
sg226
I7
sg227
VP0DT0H0M16.8667S
p3964
sg39
(dp3965
g41
VRNG Penguin HCS
p3966
sg43
Nssa(dp3967
g38
I313138863
sg32
VWeaponDrop
p3968
sg223
I0
sg44
(lp3969
I1095363701
asg35
VPT4M25.1447148S
p3970
sg226
I0
sg227
VP0DT0H0M1.4833S
p3971
sg39
(dp3972
g41
VALG RyaNoob
p3973
sg43
Nssa(dp3974
g38
I723388907
sg39
(dp3975
g41
VALG RyaNoob
p3976
sg43
Nssg44
(lp3977
I89283061
asg32
VWeaponPickup
p3978
sg35
VPT4M25.1447148S
p3979
sa(dp3980
g179
I4096745987
sg180
I00
sg181
I00
sg182
(dp3981
g41
VALG ContrA HCS
p3982
sg43
Nssg185
(lp3983
I2758383128
asg187
I00
sg188
I01
sg189
I1
sg190
I0
sg191
I1
sg192
(dp3984
Vy
F-5.0762114499999997
sVx
F14.142023999999999
sVz
F3.06441045
ssg194
(dp3985
Vy
F-10.600160000000001
sVx
F19.1344852
sVz
F1.62242591
ssg196
I00
sg197
(dp3986
g41
VRNG Victory X
p3987
sg43
Nssg200
(lp3988
sg202
(lp3989
(dp3990
g41
VALG RyaNoob
p3991
sg43
Nsasg206
I01
sg35
VPT4M25.8924042S
p3992
sg32
VDeath
p3993
sg209
I1
sa(dp3994
g32
VMedal
p3995
sg39
(dp3996
g41
VALG ContrA HCS
p3997
sg43
Nssg214
I3261908037
sg35
VPT4M25.8934036S
p3998
sa(dp3999
g38
I2902827823
sg32
VWeaponDrop
p4000
sg223
I2
sg44
(lp4001
I2758383128
asg35
VPT4M25.9004038S
p4002
sg226
I1
sg227
VP0DT0H0M3.4667S
p4003
sg39
(dp4004
g41
VRNG Victory X
p4005
sg43
Nssa(dp4006
g38
I4096745987
sg32
VWeaponDrop
p4007
sg223
I5
sg44
(lp4008
I2758383128
asg35
VPT4M25.9004038S
p4009
sg226
I4
sg227
VP0DT0H0M10.0000S
p4010
sg39
(dp4011
g41
VRNG Victory X
p4012
sg43
Nssa(dp4013
g38
I313138863
sg39
(dp4014
g41
VALGPredevonator
p4015
sg43
Nssg44
(lp4016
I1095363701
asg32
VWeaponPickup
p4017
sg35
VPT4M28.328436S
p4018
sa(dp4019
g38
I4096745987
sg39
(dp4020
g41
VALGPredevonator
p4021
sg43
Nssg44
(lp4022
I2758383128
asg32
VWeaponPickup
p4023
sg35
VPT4M28.3294357S
p4024
sa(dp4025
g32
VPlayerSpawn
p4026
sg39
(dp4027
g41
VALGPredevonator
p4028
sg43
Nssg35
VPT4M28.3294357S
p4029
sa(dp4030
g38
I313138863
sg39
(dp4031
g41
VRNG Penguin HCS
p4032
sg43
Nssg44
(lp4033
I1095363701
asg32
VWeaponPickup
p4034
sg35
VPT4M30.5716186S
p4035
sa(dp4036
g38
I4096745987
sg39
(dp4037
g41
VRNG Penguin HCS
p4038
sg43
Nssg44
(lp4039
I2758383128
asg32
VWeaponPickup
p4040
sg35
VPT4M30.5724747S
p4041
sa(dp4042
g32
VPlayerSpawn
p4043
sg39
(dp4044
g41
VRNG Penguin HCS
p4045
sg43
Nssg35
VPT4M30.5724747S
p4046
sa(dp4047
g38
I313138863
sg32
VWeaponDrop
p4048
sg223
I0
sg44
(lp4049
I1095363701
asg35
VPT4M32.3457986S
p4050
sg226
I0
sg227
VP0DT0H0M6.0000S
p4051
sg39
(dp4052
g41
VALG ContrA HCS
p4053
sg43
Nssa(dp4054
g38
I2902827823
sg39
(dp4055
g41
VALG ContrA HCS
p4056
sg43
Nssg44
(lp4057
I2758383128
asg32
VWeaponPickup
p4058
sg35
VPT4M32.3457986S
p4059
sa(dp4060
g38
I2492868984
sg39
(dp4061
g41
VRNG Ninja HCS
p4062
sg43
Nssg44
(lp4063
I2758383128
asg32
VWeaponPickup
p4064
sg35
VPT4M32.4254871S
p4065
sa(dp4066
g38
I2492868984
sg32
VWeaponDrop
p4067
sg223
I0
sg44
(lp4068
I2758383128
asg35
VPT4M33.5695009S
p4069
sg226
I0
sg227
VP0DT0H0M0.9833S
p4070
sg39
(dp4071
g41
VRNG Ninja HCS
p4072
sg43
Nssa(dp4073
g179
I4096745987
sg180
I00
sg181
I00
sg182
(dp4074
g41
VALG Goofy HCS
p4075
sg43
Nssg185
(lp4076
I2758383128
asg187
I00
sg188
I01
sg189
I1
sg190
I0
sg191
I1
sg192
(dp4077
Vy
F-6.9806309999999998
sVx
F7.9208555199999999
sVz
F0.0045217573599999998
ssg194
(dp4078
Vy
F-3.8465829999999999
sVx
F11.535456699999999
sVz
F0.123038143
ssg196
I00
sg197
(dp4079
g41
VRNG Commonly
p4080
sg43
Nssg200
(lp4081
sg202
(lp4082
(dp4083
g41
VALGPredevonator
p4084
sg43
Nsa(dp4085
g41
VALG RyaNoob
p4086
sg43
Nsasg206
I00
sg35
VPT4M33.7295035S
p4087
sg32
VDeath
p4088
sg209
I1
sa(dp4089
g38
I313138863
sg32
VWeaponDrop
p4090
sg223
I44
sg44
(lp4091
I1095363701
asg35
VPT4M33.731504S
p4092
sg226
I8
sg227
VP0DT0H0M17.4167S
p4093
sg39
(dp4094
g41
VRNG Commonly
p4095
sg43
Nssa(dp4096
g38
I4096745987
sg32
VWeaponDrop
p4097
sg223
I22
sg44
(lp4098
I2758383128
asg35
VPT4M33.731504S
p4099
sg226
I9
sg227
VP0DT0H0M38.3833S
p4100
sg39
(dp4101
g41
VRNG Commonly
p4102
sg43
Nssa(dp4103
g38
I313138863
sg39
(dp4104
g41
VRNG Victory X
p4105
sg43
Nssg44
(lp4106
I1095363701
asg32
VWeaponPickup
p4107
sg35
VPT4M33.90951S
p4108
sa(dp4109
g38
I4096745987
sg39
(dp4110
g41
VRNG Victory X
p4111
sg43
Nssg44
(lp4112
I2758383128
asg32
VWeaponPickup
p4113
sg35
VPT4M33.90951S
p4114
sa(dp4115
g32
VPlayerSpawn
p4116
sg39
(dp4117
g41
VRNG Victory X
p4118
sg43
Nssg35
VPT4M33.9105093S
p4119
sa(dp4120
g38
I4096745987
sg32
VWeaponDrop
p4121
sg223
I0
sg44
(lp4122
I2758383128
asg35
VPT4M35.4575247S
p4123
sg226
I0
sg227
VP0DT0H0M0.8833S
p4124
sg39
(dp4125
g41
VRNG Victory X
p4126
sg43
Nssa(dp4127
g38
I424645655
sg39
(dp4128
g41
VRNG Victory X
p4129
sg43
Nssg44
(lp4130
I1327094800
asg32
VWeaponPickup
p4131
sg35
VPT4M35.4575247S
p4132
sa(dp4133
g32
VMedal
p4134
sg39
(dp4135
g41
VRNG Ninja HCS
p4136
sg43
Nssg214
I2916014239
sg35
VPT4M41.1075973S
p4137
sa(dp4138
g179
I723388907
sg180
I00
sg181
I00
sg182
(dp4139
g41
VRNG Ninja HCS
p4140
sg43
Nssg185
(lp4141
I89283061
asg187
I00
sg188
I01
sg189
I1
sg190
I0
sg191
I1
sg192
(dp4142
Vy
F-7.85797071
sVx
F12.296176000000001
sVz
F3.1403884899999999
ssg194
(dp4143
Vy
F-9.2926819999999992
sVx
F14.263638500000001
sVz
F2.8987875000000001
ssg196
I00
sg197
(dp4144
g41
VALG RyaNoob
p4145
sg43
Nssg200
(lp4146
sg202
(lp4147
sg206
I00
sg35
VPT4M41.4726035S
p4148
sg32
VDeath
p4149
sg209
I1
sa(dp4150
g38
I723388907
sg32
VWeaponDrop
p4151
sg223
I47
sg44
(lp4152
I89283061
asg35
VPT4M41.4746027S
p4153
sg226
I24
sg227
VP0DT0H0M16.3333S
p4154
sg39
(dp4155
g41
VALG RyaNoob
p4156
sg43
Nssa(dp4157
g38
I4096745987
sg32
VWeaponDrop
p4158
sg223
I7
sg44
(lp4159
I2758383128
asg35
VPT4M41.4746027S
p4160
sg226
I3
sg227
VP0DT0H0M10.5833S
p4161
sg39
(dp4162
g41
VALG RyaNoob
p4163
sg43
Nssa(dp4164
g38
I313138863
sg39
(dp4165
g41
VRNG Commonly
p4166
sg43
Nssg44
(lp4167
I1095363701
asg32
VWeaponPickup
p4168
sg35
VPT4M41.7366061S
p4169
sa(dp4170
g38
I4096745987
sg39
(dp4171
g41
VRNG Commonly
p4172
sg43
Nssg44
(lp4173
I2758383128
asg32
VWeaponPickup
p4174
sg35
VPT4M41.737607S
p4175
sa(dp4176
g32
VPlayerSpawn
p4177
sg39
(dp4178
g41
VRNG Commonly
p4179
sg43
Nssg35
VPT4M41.737607S
p4180
sa(dp4181
g38
I2492868984
sg39
(dp4182
g41
VRNG Victory X
p4183
sg43
Nssg44
(lp4184
I2758383128
asg32
VWeaponPickup
p4185
sg35
VPT4M42.0796109S
p4186
sa(dp4187
g38
I2492868984
sg32
VWeaponDrop
p4188
sg223
I0
sg44
(lp4189
I2758383128
asg35
VPT4M43.2136256S
p4190
sg226
I0
sg227
VP0DT0H0M0.9833S
p4191
sg39
(dp4192
g41
VRNG Victory X
p4193
sg43
Nssa(dp4194
g179
I313138863
sg180
I00
sg181
I00
sg182
(dp4195
g41
VALGPredevonator
p4196
sg43
Nssg185
(lp4197
I1095363701
asg187
I00
sg188
I01
sg189
I1
sg190
I0
sg191
I1
sg192
(dp4198
Vy
F-5.4210079999999996
sVx
F-0.81303400000000003
sVz
F2.3752031300000001
ssg194
(dp4199
Vy
F-2.9351911500000001
sVx
F-0.36654442500000001
sVz
F2.5703482599999998
ssg196
I00
sg197
(dp4200
g41
VRNG Penguin HCS
p4201
sg43
Nssg200
(lp4202
sg202
(lp4203
sg206
I00
sg35
VPT4M43.5976526S
p4204
sg32
VDeath
p4205
sg209
I1
sa(dp4206
g38
I313138863
sg32
VWeaponDrop
p4207
sg223
I10
sg44
(lp4208
I1095363701
asg35
VPT4M43.6056287S
p4209
sg226
I0
sg227
VP0DT0H0M6.8833S
p4210
sg39
(dp4211
g41
VRNG Penguin HCS
p4212
sg43
Nssa(dp4213
g38
I4096745987
sg32
VWeaponDrop
p4214
sg223
I2
sg44
(lp4215
I2758383128
asg35
VPT4M43.6056287S
p4216
sg226
I1
sg227
VP0DT0H0M6.1333S
p4217
sg39
(dp4218
g41
VRNG Penguin HCS
p4219
sg43
Nssa(dp4220
g179
I313138863
sg180
I00
sg181
I01
sg182
(dp4221
g41
VALG Goofy HCS
p4222
sg43
Nssg185
(lp4223
I1095363701
asg187
I00
sg188
I00
sg189
I1
sg190
I0
sg191
I1
sg192
(dp4224
Vy
F-9.0444019999999998
sVx
F10.02811
sVz
F3.133283
ssg194
(dp4225
Vy
F-9.3530409999999993
sVx
F9.7958909999999992
sVz
F3.1403884899999999
ssg196
I00
sg197
(dp4226
g41
VRNG Ninja HCS
p4227
sg43
Nssg200
(lp4228
sg202
(lp4229
(dp4230
g41
VALG ContrA HCS
p4231
sg43
Nsasg206
I00
sg35
VPT4M44.7556456S
p4232
sg32
VDeath
p4233
sg209
I1
sa(dp4234
g32
VMedal
p4235
sg39
(dp4236
g41
VALG Goofy HCS
p4237
sg43
Nssg214
I2287626681
sg35
VPT4M44.7566455S
p4238
sa(dp4239
g38
I4096745987
sg32
VWeaponDrop
p4240
sg223
I25
sg44
(lp4241
I2758383128
asg35
VPT4M44.762995S
p4242
sg226
I8
sg227
VP0DT0H0M27.7500S
p4243
sg39
(dp4244
g41
VRNG Ninja HCS
p4245
sg43
Nssa(dp4246
g38
I4096745987
sg32
VWeaponDrop
p4247
sg223
I0
sg44
(lp4248
I2758383128
asg35
VPT4M44.762995S
p4249
sg226
I0
sg227
VP0DT0S
p4250
sg39
(dp4251
g41
VRNG Ninja HCS
p4252
sg43
Nssa(dp4253
g38
I723388907
sg32
VWeaponDrop
p4254
sg223
I42
sg44
(lp4255
I89283061
asg35
VPT4M44.7646455S
p4256
sg226
I14
sg227
VP0DT0H0M10.0167S
p4257
sg39
(dp4258
g41
VRNG Ninja HCS
p4259
sg43
Nssa(dp4260
g38
I313138863
sg39
(dp4261
g41
VALG RyaNoob
p4262
sg43
Nssg44
(lp4263
I1095363701
asg32
VWeaponPickup
p4264
sg35
VPT4M49.4957062S
p4265
sa(dp4266
g38
I4096745987
sg39
(dp4267
g41
VALG RyaNoob
p4268
sg43
Nssg44
(lp4269
I2758383128
asg32
VWeaponPickup
p4270
sg35
VPT4M49.4967063S
p4271
sa(dp4272
g32
VPlayerSpawn
p4273
sg39
(dp4274
g41
VALG RyaNoob
p4275
sg43
Nssg35
VPT4M49.4967063S
p4276
sa(dp4277
g38
I313138863
sg39
(dp4278
g41
VRNG Penguin HCS
p4279
sg43
Nssg44
(lp4280
I1095363701
asg32
VWeaponPickup
p4281
sg35
VPT4M51.6097332S
p4282
sa(dp4283
g38
I4096745987
sg39
(dp4284
g41
VRNG Penguin HCS
p4285
sg43
Nssg44
(lp4286
I2758383128
asg32
VWeaponPickup
p4287
sg35
VPT4M51.6107334S
p4288
sa(dp4289
g32
VPlayerSpawn
p4290
sg39
(dp4291
g41
VRNG Penguin HCS
p4292
sg43
Nssg35
VPT4M51.6107334S
p4293
sa(dp4294
g32
VMedal
p4295
sg39
(dp4296
g41
VALG Goofy HCS
p4297
sg43
Nssg214
I3565443938
sg35
VPT4M51.8577349S
p4298
sa(dp4299
g32
VMedal
p4300
sg39
(dp4301
g41
VALG ContrA HCS
p4302
sg43
Nssg214
I1637841390
sg35
VPT4M51.8587354S
p4303
sa(dp4304
g38
I313138863
sg39
(dp4305
g41
VRNG Ninja HCS
p4306
sg43
Nssg44
(lp4307
I1095363701
asg32
VWeaponPickup
p4308
sg35
VPT4M52.7717482S
p4309
sa(dp4310
g38
I4096745987
sg39
(dp4311
g41
VRNG Ninja HCS
p4312
sg43
Nssg44
(lp4313
I2758383128
asg32
VWeaponPickup
p4314
sg35
VPT4M52.7717482S
p4315
sa(dp4316
g32
VPlayerSpawn
p4317
sg39
(dp4318
g41
VRNG Ninja HCS
p4319
sg43
Nssg35
VPT4M52.7717482S
p4320
sa(dp4321
g32
VMedal
p4322
sg39
(dp4323
g41
VALG Goofy HCS
p4324
sg43
Nssg214
I3400287617
sg35
VPT4M55.1777786S
p4325
sa(dp4326
g179
I313138863
sg180
I00
sg181
I00
sg182
(dp4327
g41
VALGPredevonator
p4328
sg43
Nssg185
(lp4329
I1095363701
asg187
I00
sg188
I01
sg189
I1
sg190
I0
sg191
I1
sg192
(dp4330
Vy
F-1.7227295600000001
sVx
F-7.7904496200000004
sVz
F1.8002145300000001
ssg194
(dp4331
Vy
F-5.1265564000000001
sVx
F-7.3174123800000004
sVz
F0.80917740000000005
ssg196
I00
sg197
(dp4332
g41
VRNG Victory X
p4333
sg43
Nssg200
(lp4334
sg202
(lp4335
sg206
I00
sg35
VPT4M55.3767881S
p4336
sg32
VDeath
p4337
sg209
I1
sa(dp4338
g38
I424645655
sg32
VWeaponDrop
p4339
sg223
I21
sg44
(lp4340
I1327094800
asg35
VPT4M55.3787911S
p4341
sg226
I12
sg227
VP0DT0H0M18.9000S
p4342
sg39
(dp4343
g41
VRNG Victory X
p4344
sg43
Nssa(dp4345
g38
I313138863
sg32
VWeaponDrop
p4346
sg223
I0
sg44
(lp4347
I1095363701
asg35
VPT4M55.3797903S
p4348
sg226
I0
sg227
VP0DT0H0M0.6833S
p4349
sg39
(dp4350
g41
VRNG Victory X
p4351
sg43
Nssa(dp4352
g32
VMedal
p4353
sg39
(dp4354
g41
VALG ContrA HCS
p4355
sg43
Nssg214
I2916014239
sg35
VPT4M56.207791S
p4356
sa(dp4357
g179
I2902827823
sg180
I00
sg181
I00
sg182
(dp4358
g41
VALG ContrA HCS
p4359
sg43
Nssg185
(lp4360
I2758383128
asg187
I00
sg188
I01
sg189
I1
sg190
I0
sg191
I1
sg192
(dp4361
Vy
F-9.2488930000000007
sVx
F11.634973499999999
sVz
F3.1403884899999999
ssg194
(dp4362
Vy
F-9.9877549999999999
sVx
F17.563808399999999
sVz
F1.6757389300000001
ssg196
I00
sg197
(dp4363
g41
VRNG Commonly
p4364
sg43
Nssg200
(lp4365
sg202
(lp4366
sg206
I00
sg35
VPT4M57.3488134S
p4367
sg32
VDeath
p4368
sg209
I1
sa(dp4369
g38
I313138863
sg32
VWeaponDrop
p4370
sg223
I6
sg44
(lp4371
I1095363701
asg35
VPT4M57.355806S
p4372
sg226
I0
sg227
VP0DT0H0M5.9833S
p4373
sg39
(dp4374
g41
VRNG Commonly
p4375
sg43
Nssa(dp4376
g38
I4096745987
sg32
VWeaponDrop
p4377
sg223
I0
sg44
(lp4378
I2758383128
asg35
VPT4M57.356807S
p4379
sg226
I0
sg227
VP0DT0H0M9.6333S
p4380
sg39
(dp4381
g41
VRNG Commonly
p4382
sg43
Nssa(dp4383
g179
I4106030681
sg180
I00
sg181
I00
sg182
(dp4384
g41
VRNG Ninja HCS
p4385
sg43
Nssg185
(lp4386
sg187
I00
sg188
I01
sg189
I1
sg190
I0
sg191
I1
sg192
(dp4387
Vy
F-0.23987345400000001
sVx
F11.917817100000001
sVz
F2.4240650000000001
ssg194
(dp4388
Vy
F-8.9812700000000003
sVx
F9.9872840000000007
sVz
F3.1403884899999999
ssg196
I00
sg197
(dp4389
g41
VALG ContrA HCS
p4390
sg43
Nssg200
(lp4391
sg202
(lp4392
(dp4393
g41
VRNG Penguin HCS
p4394
sg43
Nsasg206
I00
sg35
VPT4M59.0088276S
p4395
sg32
VDeath
p4396
sg209
I1
sa(dp4397
g38
I2902827823
sg32
VWeaponDrop
p4398
sg223
I2
sg44
(lp4399
I2758383128
asg35
VPT4M59.0108345S
p4400
sg226
I2
sg227
VP0DT0H0M11.6667S
p4401
sg39
(dp4402
g41
VALG ContrA HCS
p4403
sg43
Nssa(dp4404
g38
I4096745987
sg32
VWeaponDrop
p4405
sg223
I19
sg44
(lp4406
I2758383128
asg35
VPT4M59.0108345S
p4407
sg226
I9
sg227
VP0DT0H0M37.7500S
p4408
sg39
(dp4409
g41
VALG ContrA HCS
p4410
sg43
Nssa(dp4411
g38
I313138863
sg39
(dp4412
g41
VRNG Victory X
p4413
sg43
Nssg44
(lp4414
I1095363701
asg32
VWeaponPickup
p4415
sg35
VPT5M3.3808841S
p4416
sa(dp4417
g38
I4096745987
sg39
(dp4418
g41
VRNG Victory X
p4419
sg43
Nssg44
(lp4420
I2758383128
asg32
VWeaponPickup
p4421
sg35
VPT5M3.3877911S
p4422
sa(dp4423
g32
VPlayerSpawn
p4424
sg39
(dp4425
g41
VRNG Victory X
p4426
sg43
Nssg35
VPT5M3.3878571S
p4427
sa(dp4428
g38
I313138863
sg39
(dp4429
g41
VRNG Commonly
p4430
sg43
Nssg44
(lp4431
I1095363701
asg32
VWeaponPickup
p4432
sg35
VPT5M5.3799096S
p4433
sa(dp4434
g38
I4096745987
sg39
(dp4435
g41
VRNG Commonly
p4436
sg43
Nssg44
(lp4437
I2758383128
asg32
VWeaponPickup
p4438
sg35
VPT5M5.3799096S
p4439
sa(dp4440
g32
VPlayerSpawn
p4441
sg39
(dp4442
g41
VRNG Commonly
p4443
sg43
Nssg35
VPT5M5.3799096S
p4444
sa(dp4445
g38
I313138863
sg39
(dp4446
g41
VALG ContrA HCS
p4447
sg43
Nssg44
(lp4448
I1095363701
asg32
VWeaponPickup
p4449
sg35
VPT5M7.0279302S
p4450
sa(dp4451
g38
I4096745987
sg39
(dp4452
g41
VALG ContrA HCS
p4453
sg43
Nssg44
(lp4454
I2758383128
asg32
VWeaponPickup
p4455
sg35
VPT5M7.0279302S
p4456
sa(dp4457
g32
VPlayerSpawn
p4458
sg39
(dp4459
g41
VALG ContrA HCS
p4460
sg43
Nssg35
VPT5M7.0279302S
p4461
sa(dp4462
g38
I313138863
sg32
VWeaponDrop
p4463
sg223
I0
sg44
(lp4464
I1095363701
asg35
VPT5M10.2729707S
p4465
sg226
I0
sg227
VP0DT0H0M0.9667S
p4466
sg39
(dp4467
g41
VRNG Victory X
p4468
sg43
Nssa(dp4469
g38
I723388907
sg39
(dp4470
g41
VRNG Victory X
p4471
sg43
Nssg44
(lp4472
I89283061
asg32
VWeaponPickup
p4473
sg35
VPT5M10.2729707S
p4474
sa(dp4475
g38
I313138863
sg32
VWeaponDrop
p4476
sg223
I28
sg44
(lp4477
I1095363701
asg35
VPT5M13.3753205S
p4478
sg226
I8
sg227
VP0DT0H0M7.8000S
p4479
sg39
(dp4480
g41
VALGPredevonator
p4481
sg43
Nssa(dp4482
g38
I424645655
sg39
(dp4483
g41
VALGPredevonator
p4484
sg43
Nssg44
(lp4485
I1327094800
asg32
VWeaponPickup
p4486
sg35
VPT5M13.3753205S
p4487
sa(dp4488
g179
I4096745987
sg180
I00
sg181
I00
sg182
(dp4489
g41
VRNG Ninja HCS
p4490
sg43
Nssg185
(lp4491
I2758383128
asg187
I00
sg188
I01
sg189
I1
sg190
I0
sg191
I1
sg192
(dp4492
Vy
F-8.5405689999999996
sVx
F9.3981580000000005
sVz
F3.1403884899999999
ssg194
(dp4493
Vy
F-13.0903425
sVx
F-0.24536746700000001
sVz
F0.0045365689999999998
ssg196
I00
sg197
(dp4494
g41
VALG Goofy HCS
p4495
sg43
Nssg200
(lp4496
sg202
(lp4497
(dp4498
g41
VRNG Commonly
p4499
sg43
Nsasg206
I01
sg35
VPT5M18.6120789S
p4500
sg32
VDeath
p4501
sg209
I1
sa(dp4502
g32
VMedal
p4503
sg39
(dp4504
g41
VRNG Ninja HCS
p4505
sg43
Nssg214
I2838259753
sg35
VPT5M18.6120789S
p4506
sa(dp4507
g32
VImpulse
p4508
sg39
(dp4509
g41
VRNG Ninja HCS
p4510
sg43
Nssg336
I2556889090
sg35
VPT5M18.6120789S
p4511
sa(dp4512
g32
VMedal
p4513
sg39
(dp4514
g41
VRNG Ninja HCS
p4515
sg43
Nssg214
I3261908037
sg35
VPT5M18.6130788S
p4516
sa(dp4517
g38
I313138863
sg32
VWeaponDrop
p4518
sg223
I33
sg44
(lp4519
I1095363701
asg35
VPT5M18.6140784S
p4520
sg226
I16
sg227
VP0DT0H0M18.7333S
p4521
sg39
(dp4522
g41
VALG Goofy HCS
p4523
sg43
Nssa(dp4524
g38
I313138863
sg32
VWeaponDrop
p4525
sg223
I0
sg44
(lp4526
I1095363701
asg35
VPT5M18.6140784S
p4527
sg226
I0
sg227
VP0DT0S
p4528
sg39
(dp4529
g41
VALG Goofy HCS
p4530
sg43
Nssa(dp4531
g38
I4096745987
sg32
VWeaponDrop
p4532
sg223
I22
sg44
(lp4533
I2758383128
asg35
VPT5M18.6140784S
p4534
sg226
I13
sg227
VP0DT0H0M42.1667S
p4535
sg39
(dp4536
g41
VALG Goofy HCS
p4537
sg43
Nssa(dp4538
g38
I313138863
sg32
VWeaponDrop
p4539
sg223
I0
sg44
(lp4540
I1095363701
asg35
VPT5M20.0437308S
p4541
sg226
I0
sg227
VP0DT0H0M1.0500S
p4542
sg39
(dp4543
g41
VRNG Ninja HCS
p4544
sg43
Nssa(dp4545
g38
I2015271382
sg39
(dp4546
g41
VRNG Ninja HCS
p4547
sg43
Nssg44
(lp4548
I2758383128
asg32
VWeaponPickup
p4549
sg35
VPT5M20.0437308S
p4550
sa(dp4551
g179
I4096745987
sg180
I00
sg181
I00
sg182
(dp4552
g41
VRNG Penguin HCS
p4553
sg43
Nssg185
(lp4554
I2758383128
asg187
I00
sg188
I01
sg189
I1
sg190
I0
sg191
I1
sg192
(dp4555
Vy
F-19.619094799999999
sVx
F1.3129462000000001
sVz
F1.7998353199999999
ssg194
(dp4556
Vy
F-13.8329573
sVx
F0.93403124800000004
sVz
F1.7999931600000001
ssg196
I00
sg197
(dp4557
g41
VALGPredevonator
p4558
sg43
Nssg200
(lp4559
sg202
(lp4560
sg206
I01
sg35
VPT5M21.9121205S
p4561
sg32
VDeath
p4562
sg209
I1
sa(dp4563
g32
VImpulse
p4564
sg39
(dp4565
g41
VRNG Penguin HCS
p4566
sg43
Nssg336
I3174430457
sg35
VPT5M21.9210759S
p4567
sa(dp4568
g32
VMedal
p4569
sg39
(dp4570
g41
VRNG Penguin HCS
p4571
sg43
Nssg214
I3653057799
sg35
VPT5M21.9212749S
p4572
sa(dp4573
g38
I424645655
sg32
VWeaponDrop
p4574
sg223
I3
sg44
(lp4575
I1327094800
asg35
VPT5M21.9221203S
p4576
sg226
I2
sg227
VP0DT0H0M8.5333S
p4577
sg39
(dp4578
g41
VALGPredevonator
p4579
sg43
Nssa(dp4580
g38
I4096745987
sg32
VWeaponDrop
p4581
sg223
I14
sg44
(lp4582
I2758383128
asg35
VPT5M21.9221203S
p4583
sg226
I7
sg227
VP0DT0H0M37.2500S
p4584
sg39
(dp4585
g41
VALGPredevonator
p4586
sg43
Nssa(dp4587
g179
I313138863
sg180
I00
sg181
I01
sg182
(dp4588
g41
VRNG Penguin HCS
p4589
sg43
Nssg185
(lp4590
I1095363701
asg187
I00
sg188
I00
sg189
I1
sg190
I0
sg191
I1
sg192
(dp4591
Vy
F-16.519020000000001
sVx
F1.0666935399999999
sVz
F-0.0059307664600000004
ssg194
(dp4592
Vy
F-16.08803
sVx
F0.86109423600000001
sVz
F0.0045386254799999999
ssg196
I00
sg197
(dp4593
g41
VALG RyaNoob
p4594
sg43
Nssg200
(lp4595
sg202
(lp4596
sg206
I00
sg35
VPT5M24.3271515S
p4597
sg32
VDeath
p4598
sg209
I1
sa(dp4599
g32
VMedal
p4600
sg39
(dp4601
g41
VRNG Penguin HCS
p4602
sg43
Nssg214
I250435527
sg35
VPT5M24.3281516S
p4603
sa(dp4604
g32
VMedal
p4605
sg39
(dp4606
g41
VRNG Penguin HCS
p4607
sg43
Nssg214
I2078758684
sg35
VPT5M24.3281516S
p4608
sa(dp4609
g38
I313138863
sg32
VWeaponDrop
p4610
sg223
I14
sg44
(lp4611
I1095363701
asg35
VPT5M24.3281516S
p4612
sg226
I3
sg227
VP0DT0H0M15.9167S
p4613
sg39
(dp4614
g41
VALG RyaNoob
p4615
sg43
Nssa(dp4616
g38
I313138863
sg32
VWeaponDrop
p4617
sg223
I0
sg44
(lp4618
I1095363701
asg35
VPT5M24.3281516S
p4619
sg226
I0
sg227
VP0DT0S
p4620
sg39
(dp4621
g41
VALG RyaNoob
p4622
sg43
Nssa(dp4623
g38
I4096745987
sg32
VWeaponDrop
p4624
sg223
I4
sg44
(lp4625
I2758383128
asg35
VPT5M24.3354892S
p4626
sg226
I4
sg227
VP0DT0H0M18.9167S
p4627
sg39
(dp4628
g41
VALG RyaNoob
p4629
sg43
Nssa(dp4630
g32
VMedal
p4631
sg39
(dp4632
g41
VRNG Ninja HCS
p4633
sg43
Nssg214
I3565443938
sg35
VPT5M24.9412243S
p4634
sa(dp4635
g32
VMedal
p4636
sg39
(dp4637
g41
VRNG Commonly
p4638
sg43
Nssg214
I3565443938
sg35
VPT5M24.9412243S
p4639
sa(dp4640
g38
I313138863
sg39
(dp4641
g41
VALG Goofy HCS
p4642
sg43
Nssg44
(lp4643
I1095363701
asg32
VWeaponPickup
p4644
sg35
VPT5M26.6261819S
p4645
sa(dp4646
g38
I4096745987
sg39
(dp4647
g41
VALG Goofy HCS
p4648
sg43
Nssg44
(lp4649
I2758383128
asg32
VWeaponPickup
p4650
sg35
VPT5M26.6271815S
p4651
sa(dp4652
g32
VPlayerSpawn
p4653
sg39
(dp4654
g41
VALG Goofy HCS
p4655
sg43
Nssg35
VPT5M26.6271815S
p4656
sa(dp4657
g38
I313138863
sg39
(dp4658
g41
VALGPredevonator
p4659
sg43
Nssg44
(lp4660
I1095363701
asg32
VWeaponPickup
p4661
sg35
VPT5M29.9962333S
p4662
sa(dp4663
g38
I4096745987
sg39
(dp4664
g41
VALGPredevonator
p4665
sg43
Nssg44
(lp4666
I2758383128
asg32
VWeaponPickup
p4667
sg35
VPT5M29.9962333S
p4668
sa(dp4669
g32
VPlayerSpawn
p4670
sg39
(dp4671
g41
VALGPredevonator
p4672
sg43
Nssg35
VPT5M29.9962333S
p4673
sa(dp4674
g179
I4096745987
sg180
I00
sg181
I00
sg182
(dp4675
g41
VALG Goofy HCS
p4676
sg43
Nssg185
(lp4677
I2758383128
asg187
I00
sg188
I01
sg189
I1
sg190
I0
sg191
I1
sg192
(dp4678
Vy
F-0.42391489999999998
sVx
F-4.2237296100000004
sVz
F1.79998791
ssg194
(dp4679
Vy
F-1.7177709999999999
sVx
F6.9690895099999999
sVz
F4.593477
ssg196
I00
sg197
(dp4680
g41
VRNG Ninja HCS
p4681
sg43
Nssg200
(lp4682
sg202
(lp4683
(dp4684
g41
VALG ContrA HCS
p4685
sg43
Nsasg206
I01
sg35
VPT5M30.0742294S
p4686
sg32
VDeath
p4687
sg209
I1
sa(dp4688
g32
VMedal
p4689
sg39
(dp4690
g41
VALG Goofy HCS
p4691
sg43
Nssg214
I3261908037
sg35
VPT5M30.0752253S
p4692
sa(dp4693
g38
I2015271382
sg32
VWeaponDrop
p4694
sg223
I0
sg44
(lp4695
I2758383128
asg35
VPT5M30.0827441S
p4696
sg226
I0
sg227
VP0DT0H0M3.8000S
p4697
sg39
(dp4698
g41
VRNG Ninja HCS
p4699
sg43
Nssa(dp4700
g38
I4096745987
sg32
VWeaponDrop
p4701
sg223
I18
sg44
(lp4702
I2758383128
asg35
VPT5M30.0827441S
p4703
sg226
I8
sg227
VP0DT0H0M32.3833S
p4704
sg39
(dp4705
g41
VRNG Ninja HCS
p4706
sg43
Nssa(dp4707
g179
I4096745987
sg180
I00
sg181
I00
sg182
(dp4708
g41
VRNG Victory X
p4709
sg43
Nssg185
(lp4710
I2758383128
asg187
I00
sg188
I01
sg189
I1
sg190
I0
sg191
I1
sg192
(dp4711
Vy
F17.044601400000001
sVx
F0.65124890000000002
sVz
F3.70000434
ssg194
(dp4712
Vy
F2.4564254299999999
sVx
F4.3668193799999999
sVz
F3.7001574000000002
ssg196
I00
sg197
(dp4713
g41
VALG ContrA HCS
p4714
sg43
Nssg200
(lp4715
sg202
(lp4716
(dp4717
g41
VRNG Commonly
p4718
sg43
Nsa(dp4719
g41
VRNG Penguin HCS
p4720
sg43
Nsasg206
I01
sg35
VPT5M31.425242S
p4721
sg32
VDeath
p4722
sg209
I1
sa(dp4723
g32
VMedal
p4724
sg39
(dp4725
g41
VRNG Victory X
p4726
sg43
Nssg214
I352859864
sg35
VPT5M31.425242S
p4727
sa(dp4728
g32
VImpulse
p4729
sg39
(dp4730
g41
VRNG Victory X
p4731
sg43
Nssg336
I2556889090
sg35
VPT5M31.425242S
p4732
sa(dp4733
g32
VMedal
p4734
sg39
(dp4735
g41
VRNG Victory X
p4736
sg43
Nssg214
I3261908037
sg35
VPT5M31.4272426S
p4737
sa(dp4738
g38
I313138863
sg32
VWeaponDrop
p4739
sg223
I0
sg44
(lp4740
I1095363701
asg35
VPT5M31.4282418S
p4741
sg226
I0
sg227
VP0DT0H0M2.9833S
p4742
sg39
(dp4743
g41
VALG ContrA HCS
p4744
sg43
Nssa(dp4745
g38
I4096745987
sg32
VWeaponDrop
p4746
sg223
I11
sg44
(lp4747
I2758383128
asg35
VPT5M31.4282418S
p4748
sg226
I6
sg227
VP0DT0H0M21.3500S
p4749
sg39
(dp4750
g41
VALG ContrA HCS
p4751
sg43
Nssa(dp4752
g38
I313138863
sg39
(dp4753
g41
VALG RyaNoob
p4754
sg43
Nssg44
(lp4755
I1095363701
asg32
VWeaponPickup
p4756
sg35
VPT5M32.4152565S
p4757
sa(dp4758
g38
I4096745987
sg39
(dp4759
g41
VALG RyaNoob
p4760
sg43
Nssg44
(lp4761
I2758383128
asg32
VWeaponPickup
p4762
sg35
VPT5M32.4162555S
p4763
sa(dp4764
g32
VPlayerSpawn
p4765
sg39
(dp4766
g41
VALG RyaNoob
p4767
sg43
Nssg35
VPT5M32.4162555S
p4768
sa(dp4769
g179
I4096745987
sg180
I00
sg181
I00
sg182
(dp4770
g41
VALG Goofy HCS
p4771
sg43
Nssg185
(lp4772
I2758383128
asg187
I00
sg188
I01
sg189
I1
sg190
I0
sg191
I1
sg192
(dp4773
Vy
F-1.1886797
sVx
F-2.5213231999999999
sVz
F2.39999962
ssg194
(dp4774
Vy
F-12.8441048
sVx
F8.8687249999999995
sVz
F2.4238580000000001
ssg196
I00
sg197
(dp4775
g41
VRNG Commonly
p4776
sg43
Nssg200
(lp4777
sg202
(lp4778
(dp4779
g41
VALG ContrA HCS
p4780
sg43
Nsasg206
I01
sg35
VPT5M33.4902686S
p4781
sg32
VDeath
p4782
sg209
I1
sa(dp4783
g32
VMedal
p4784
sg39
(dp4785
g41
VALG Goofy HCS
p4786
sg43
Nssg214
I3261908037
sg35
VPT5M33.4912691S
p4787
sa(dp4788
g32
VMedal
p4789
sg39
(dp4790
g41
VALG Goofy HCS
p4791
sg43
Nssg214
I2078758684
sg35
VPT5M33.4922688S
p4792
sa(dp4793
g38
I4096745987
sg32
VWeaponDrop
p4794
sg223
I22
sg44
(lp4795
I2758383128
asg35
VPT5M33.4986353S
p4796
sg226
I5
sg227
VP0DT0H0M24.8500S
p4797
sg39
(dp4798
g41
VRNG Commonly
p4799
sg43
Nssa(dp4800
g38
I313138863
sg32
VWeaponDrop
p4801
sg223
I0
sg44
(lp4802
I1095363701
asg35
VPT5M33.4987684S
p4803
sg226
I0
sg227
VP0DT0H0M3.2000S
p4804
sg39
(dp4805
g41
VRNG Commonly
p4806
sg43
Nssa(dp4807
g38
I313138863
sg39
(dp4808
g41
VRNG Ninja HCS
p4809
sg43
Nssg44
(lp4810
I1095363701
asg32
VWeaponPickup
p4811
sg35
VPT5M38.0923283S
p4812
sa(dp4813
g38
I4096745987
sg39
(dp4814
g41
VRNG Ninja HCS
p4815
sg43
Nssg44
(lp4816
I2758383128
asg32
VWeaponPickup
p4817
sg35
VPT5M38.093328S
p4818
sa(dp4819
g32
VPlayerSpawn
p4820
sg39
(dp4821
g41
VRNG Ninja HCS
p4822
sg43
Nssg35
VPT5M38.093328S
p4823
sa(dp4824
g38
I313138863
sg39
(dp4825
g41
VALG ContrA HCS
p4826
sg43
Nssg44
(lp4827
I1095363701
asg32
VWeaponPickup
p4828
sg35
VPT5M39.4433451S
p4829
sa(dp4830
g38
I4096745987
sg39
(dp4831
g41
VALG ContrA HCS
p4832
sg43
Nssg44
(lp4833
I2758383128
asg32
VWeaponPickup
p4834
sg35
VPT5M39.4433451S
p4835
sa(dp4836
g32
VPlayerSpawn
p4837
sg39
(dp4838
g41
VALG ContrA HCS
p4839
sg43
Nssg35
VPT5M39.4433451S
p4840
sa(dp4841
g38
I313138863
sg39
(dp4842
g41
VRNG Commonly
p4843
sg43
Nssg44
(lp4844
I1095363701
asg32
VWeaponPickup
p4845
sg35
VPT5M41.5133721S
p4846
sa(dp4847
g38
I4096745987
sg39
(dp4848
g41
VRNG Commonly
p4849
sg43
Nssg44
(lp4850
I2758383128
asg32
VWeaponPickup
p4851
sg35
VPT5M41.5133721S
p4852
sa(dp4853
g32
VPlayerSpawn
p4854
sg39
(dp4855
g41
VRNG Commonly
p4856
sg43
Nssg35
VPT5M41.5133721S
p4857
sa(dp4858
g32
VMedal
p4859
sg39
(dp4860
g41
VALGPredevonator
p4861
sg43
Nssg214
I3565443938
sg35
VPT5M42.3573813S
p4862
sa(dp4863
g32
VMedal
p4864
sg39
(dp4865
g41
VALG RyaNoob
p4866
sg43
Nssg214
I3565443938
sg35
VPT5M42.3573813S
p4867
sa(dp4868
g179
I313138863
sg180
I00
sg181
I00
sg182
(dp4869
g41
VRNG Penguin HCS
p4870
sg43
Nssg185
(lp4871
I1095363701
asg187
I00
sg188
I01
sg189
I1
sg190
I0
sg191
I1
sg192
(dp4872
Vy
F-13.7017927
sVx
F9.0378950000000007
sVz
F2.2062072800000001
ssg194
(dp4873
Vy
F-12.0670137
sVx
F9.2991679999999999
sVz
F3.5140426200000001
ssg196
I00
sg197
(dp4874
g41
VALGPredevonator
p4875
sg43
Nssg200
(lp4876
sg202
(lp4877
sg206
I00
sg35
VPT5M44.9264156S
p4878
sg32
VDeath
p4879
sg209
I1
sa(dp4880
g38
I313138863
sg32
VWeaponDrop
p4881
sg223
I0
sg44
(lp4882
I1095363701
asg35
VPT5M44.9337347S
p4883
sg226
I0
sg227
VP0DT0H0M0.3167S
p4884
sg39
(dp4885
g41
VALGPredevonator
p4886
sg43
Nssa(dp4887
g38
I4096745987
sg32
VWeaponDrop
p4888
sg223
I7
sg44
(lp4889
I2758383128
asg35
VPT5M44.9338018S
p4890
sg226
I5
sg227
VP0DT0H0M14.6167S
p4891
sg39
(dp4892
g41
VALGPredevonator
p4893
sg43
Nssa(dp4894
g179
I313138863
sg180
I00
sg181
I01
sg182
(dp4895
g41
VALG Goofy HCS
p4896
sg43
Nssg185
(lp4897
I1095363701
asg187
I00
sg188
I00
sg189
I1
sg190
I0
sg191
I1
sg192
(dp4898
Vy
F-5.8930689999999997
sVx
F21.181898100000002
sVz
F2.3151042500000001
ssg194
(dp4899
Vy
F-5.6563559999999997
sVx
F21.632149999999999
sVz
F2.3776981799999999
ssg196
I00
sg197
(dp4900
g41
VRNG Victory X
p4901
sg43
Nssg200
(lp4902
sg202
(lp4903
sg206
I00
sg35
VPT5M46.2094317S
p4904
sg32
VDeath
p4905
sg209
I1
sa(dp4906
g32
VMedal
p4907
sg39
(dp4908
g41
VALG RyaNoob
p4909
sg43
Nssg214
I824733727
sg35
VPT5M46.2104315S
p4910
sa(dp4911
g32
VMedal
p4912
sg39
(dp4913
g41
VALG Goofy HCS
p4914
sg43
Nssg214
I2287626681
sg35
VPT5M46.2104315S
p4915
sa(dp4916
g38
I723388907
sg32
VWeaponDrop
p4917
sg223
I0
sg44
(lp4918
I89283061
asg35
VPT5M46.217533S
p4919
sg226
I0
sg227
VP0DT0H0M4.9000S
p4920
sg39
(dp4921
g41
VRNG Victory X
p4922
sg43
Nssa(dp4923
g38
I4096745987
sg32
VWeaponDrop
p4924
sg223
I5
sg44
(lp4925
I2758383128
asg35
VPT5M46.2175994S
p4926
sg226
I4
sg227
VP0DT0H0M36.8833S
p4927
sg39
(dp4928
g41
VRNG Victory X
p4929
sg43
Nssa(dp4930
g179
I3190813201
sg180
I00
sg181
I00
sg182
(dp4931
g41
VRNG Penguin HCS
p4932
sg43
Nssg185
(lp4933
sg187
I00
sg188
I01
sg189
I1
sg190
I0
sg191
I1
sg192
(dp4934
Vy
F-13.2878113
sVx
F7.5843489999999996
sVz
F1.8760430800000001
ssg194
(dp4935
Vy
F-13.6440649
sVx
F10.002654100000001
sVz
F2.2062072800000001
ssg196
I00
sg197
(dp4936
g41
VALG RyaNoob
p4937
sg43
Nssg200
(lp4938
sg202
(lp4939
sg206
I00
sg35
VPT5M52.9125171S
p4940
sg32
VDeath
p4941
sg209
I1
sa(dp4942
g38
I313138863
sg32
VWeaponDrop
p4943
sg223
I4
sg44
(lp4944
I1095363701
asg35
VPT5M52.9145179S
p4945
sg226
I0
sg227
VP0DT0H0M8.9167S
p4946
sg39
(dp4947
g41
VALG RyaNoob
p4948
sg43
Nssa(dp4949
g38
I4096745987
sg32
VWeaponDrop
p4950
sg223
I2
sg44
(lp4951
I2758383128
asg35
VPT5M52.9145179S
p4952
sg226
I1
sg227
VP0DT0H0M11.5833S
p4953
sg39
(dp4954
g41
VALG RyaNoob
p4955
sg43
Nssa(dp4956
g38
I313138863
sg39
(dp4957
g41
VALGPredevonator
p4958
sg43
Nssg44
(lp4959
I1095363701
asg32
VWeaponPickup
p4960
sg35
VPT5M52.9445219S
p4961
sa(dp4962
g38
I4096745987
sg39
(dp4963
g41
VALGPredevonator
p4964
sg43
Nssg44
(lp4965
I2758383128
asg32
VWeaponPickup
p4966
sg35
VPT5M52.9445219S
p4967
sa(dp4968
g32
VPlayerSpawn
p4969
sg39
(dp4970
g41
VALGPredevonator
p4971
sg43
Nssg35
VPT5M52.9445219S
p4972
sa(dp4973
g179
I4096745987
sg180
I00
sg181
I00
sg182
(dp4974
g41
VRNG Ninja HCS
p4975
sg43
Nssg185
(lp4976
I2758383128
asg187
I00
sg188
I01
sg189
I1
sg190
I0
sg191
I1
sg192
(dp4977
Vy
F-0.21651351499999999
sVx
F5.6717696200000001
sVz
F4.402317
ssg194
(dp4978
Vy
F-5.3443784699999997
sVx
F-2.2047500000000002
sVz
F1.9075696499999999
ssg196
I00
sg197
(dp4979
g41
VALG ContrA HCS
p4980
sg43
Nssg200
(lp4981
sg202
(lp4982
sg206
I01
sg35
VPT5M52.9626016S
p4983
sg32
VDeath
p4984
sg209
I1
sa(dp4985
g32
VMedal
p4986
sg39
(dp4987
g41
VRNG Ninja HCS
p4988
sg43
Nssg214
I3261908037
sg35
VPT5M52.9645182S
p4989
sa(dp4990
g38
I313138863
sg32
VWeaponDrop
p4991
sg223
I0
sg44
(lp4992
I1095363701
asg35
VPT5M52.9645182S
p4993
sg226
I0
sg227
VP0DT0H0M0.4167S
p4994
sg39
(dp4995
g41
VALG ContrA HCS
p4996
sg43
Nssa(dp4997
g38
I4096745987
sg32
VWeaponDrop
p4998
sg223
I9
sg44
(lp4999
I2758383128
asg35
VPT5M52.9645182S
p5000
sg226
I5
sg227
VP0DT0H0M13.1000S
p5001
sg39
(dp5002
g41
VALG ContrA HCS
p5003
sg43
Nssa(dp5004
g38
I313138863
sg39
(dp5005
g41
VRNG Victory X
p5006
sg43
Nssg44
(lp5007
I1095363701
asg32
VWeaponPickup
p5008
sg35
VPT5M54.2255353S
p5009
sa(dp5010
g38
I4096745987
sg39
(dp5011
g41
VRNG Victory X
p5012
sg43
Nssg44
(lp5013
I2758383128
asg32
VWeaponPickup
p5014
sg35
VPT5M54.2255353S
p5015
sa(dp5016
g32
VPlayerSpawn
p5017
sg39
(dp5018
g41
VRNG Victory X
p5019
sg43
Nssg35
VPT5M54.2255353S
p5020
sa(dp5021
g32
VMedal
p5022
sg39
(dp5023
g41
VRNG Ninja HCS
p5024
sg43
Nssg214
I3565443938
sg35
VPT5M54.9905431S
p5025
sa(dp5026
g32
VMedal
p5027
sg39
(dp5028
g41
VRNG Commonly
p5029
sg43
Nssg214
I3565443938
sg35
VPT5M54.9905431S
p5030
sa(dp5031
g38
I4096745987
sg32
VWeaponDrop
p5032
sg223
I0
sg44
(lp5033
I2758383128
asg35
VPT5M56.1055588S
p5034
sg226
I0
sg227
VP0DT0H0M1.5000S
p5035
sg39
(dp5036
g41
VRNG Victory X
p5037
sg43
Nssa(dp5038
g38
I424645655
sg39
(dp5039
g41
VRNG Victory X
p5040
sg43
Nssg44
(lp5041
I1327094800
asg32
VWeaponPickup
p5042
sg35
VPT5M56.1065594S
p5043
sa(dp5044
g38
I313138863
sg32
VWeaponDrop
p5045
sg223
I7
sg44
(lp5046
I1095363701
asg35
VPT5M56.3935606S
p5047
sg226
I7
sg227
VP0DT0H0M8.3333S
p5048
sg39
(dp5049
g41
VALG Goofy HCS
p5050
sg43
Nssa(dp5051
g38
I313138863
sg32
VWeaponDrop
p5052
sg223
I0
sg44
(lp5053
I1095363701
asg35
VPT5M56.3935606S
p5054
sg226
I0
sg227
VP0DT0S
p5055
sg39
(dp5056
g41
VALG Goofy HCS
p5057
sg43
Nssa(dp5058
g38
I723388907
sg39
(dp5059
g41
VALG Goofy HCS
p5060
sg43
Nssg44
(lp5061
I89283061
asg32
VWeaponPickup
p5062
sg35
VPT5M56.3935606S
p5063
sa(dp5064
g38
I313138863
sg39
(dp5065
g41
VALG RyaNoob
p5066
sg43
Nssg44
(lp5067
I1095363701
asg32
VWeaponPickup
p5068
sg35
VPT6M0.9266203S
p5069
sa(dp5070
g38
I4096745987
sg39
(dp5071
g41
VALG RyaNoob
p5072
sg43
Nssg44
(lp5073
I2758383128
asg32
VWeaponPickup
p5074
sg35
VPT6M0.9266203S
p5075
sa(dp5076
g32
VPlayerSpawn
p5077
sg39
(dp5078
g41
VALG RyaNoob
p5079
sg43
Nssg35
VPT6M0.9266203S
p5080
sa(dp5081
g38
I313138863
sg39
(dp5082
g41
VALG ContrA HCS
p5083
sg43
Nssg44
(lp5084
I1095363701
asg32
VWeaponPickup
p5085
sg35
VPT6M0.9796206S
p5086
sa(dp5087
g38
I4096745987
sg39
(dp5088
g41
VALG ContrA HCS
p5089
sg43
Nssg44
(lp5090
I2758383128
asg32
VWeaponPickup
p5091
sg35
VPT6M0.9796206S
p5092
sa(dp5093
g32
VPlayerSpawn
p5094
sg39
(dp5095
g41
VALG ContrA HCS
p5096
sg43
Nssg35
VPT6M0.9796206S
p5097
sa(dp5098
g179
I4096745987
sg180
I00
sg181
I00
sg182
(dp5099
g41
VALGPredevonator
p5100
sg43
Nssg185
(lp5101
I2758383128
asg187
I00
sg188
I01
sg189
I1
sg190
I0
sg191
I1
sg192
(dp5102
Vy
F1.0440582
sVx
F22.867315300000001
sVz
F1.26640522
ssg194
(dp5103
Vy
F11.5861053
sVx
F17.4401379
sVz
F2.0372397900000001
ssg196
I00
sg197
(dp5104
g41
VRNG Commonly
p5105
sg43
Nssg200
(lp5106
sg202
(lp5107
(dp5108
g41
VALG Goofy HCS
p5109
sg43
Nsasg206
I00
sg35
VPT6M2.5289479S
p5110
sg32
VDeath
p5111
sg209
I1
sa(dp5112
g38
I313138863
sg32
VWeaponDrop
p5113
sg223
I2
sg44
(lp5114
I1095363701
asg35
VPT6M2.531649S
p5115
sg226
I0
sg227
VP0DT0H0M5.8833S
p5116
sg39
(dp5117
g41
VRNG Commonly
p5118
sg43
Nssa(dp5119
g38
I4096745987
sg32
VWeaponDrop
p5120
sg223
I12
sg44
(lp5121
I2758383128
asg35
VPT6M2.531649S
p5122
sg226
I1
sg227
VP0DT0H0M15.0000S
p5123
sg39
(dp5124
g41
VRNG Commonly
p5125
sg43
Nssa(dp5126
g179
I424645655
sg180
I00
sg181
I00
sg182
(dp5127
g41
VRNG Victory X
p5128
sg43
Nssg185
(lp5129
I1327094800
asg187
I00
sg188
I01
sg189
I1
sg190
I0
sg191
I1
sg192
(dp5130
Vy
F14.9136305
sVx
F15.6617088
sVz
F2.7091293300000001
ssg194
(dp5131
Vy
F11.8151426
sVx
F16.126214999999998
sVz
F1.6058961199999999
ssg196
I00
sg197
(dp5132
g41
VALG Goofy HCS
p5133
sg43
Nssg200
(lp5134
sg202
(lp5135
(dp5136
g41
VRNG Ninja HCS
p5137
sg43
Nsasg206
I01
sg35
VPT6M3.1956696S
p5138
sg32
VDeath
p5139
sg209
I1
sa(dp5140
g32
VMedal
p5141
sg39
(dp5142
g41
VRNG Victory X
p5143
sg43
Nssg214
I1351381581
sg35
VPT6M3.1976494S
p5144
sa(dp5145
g32
VMedal
p5146
sg39
(dp5147
g41
VRNG Victory X
p5148
sg43
Nssg214
I3261908037
sg35
VPT6M3.2047462S
p5149
sa(dp5150
g32
VMedal
p5151
sg39
(dp5152
g41
VRNG Ninja HCS
p5153
sg43
Nssg214
I2916014239
sg35
VPT6M3.2047462S
p5154
sa(dp5155
g38
I723388907
sg32
VWeaponDrop
p5156
sg223
I11
sg44
(lp5157
I89283061
asg35
VPT6M3.2056503S
p5158
sg226
I2
sg227
VP0DT0H0M4.6500S
p5159
sg39
(dp5160
g41
VALG Goofy HCS
p5161
sg43
Nssa(dp5162
g38
I4096745987
sg32
VWeaponDrop
p5163
sg223
I4
sg44
(lp5164
I2758383128
asg35
VPT6M3.2056503S
p5165
sg226
I4
sg227
VP0DT0H0M23.3833S
p5166
sg39
(dp5167
g41
VALG Goofy HCS
p5168
sg43
Nssa(dp5169
g179
I4096745987
sg180
I00
sg181
I00
sg182
(dp5170
g41
VALGPredevonator
p5171
sg43
Nssg185
(lp5172
I2758383128
asg187
I00
sg188
I01
sg189
I1
sg190
I0
sg191
I1
sg192
(dp5173
Vy
F3.9113607400000001
sVx
F21.255140000000001
sVz
F0.97872400000000004
ssg194
(dp5174
Vy
F13.4934464
sVx
F17.309965099999999
sVz
F1.82526612
ssg196
I00
sg197
(dp5175
g41
VRNG Victory X
p5176
sg43
Nssg200
(lp5177
sg202
(lp5178
sg206
I01
sg35
VPT6M5.2746759S
p5179
sg32
VDeath
p5180
sg209
I1
sa(dp5181
g32
VImpulse
p5182
sg39
(dp5183
g41
VALGPredevonator
p5184
sg43
Nssg336
I3174430457
sg35
VPT6M5.2756761S
p5185
sa(dp5186
g32
VMedal
p5187
sg39
(dp5188
g41
VALGPredevonator
p5189
sg43
Nssg214
I3653057799
sg35
VPT6M5.2830255S
p5190
sa(dp5191
g32
VMedal
p5192
sg39
(dp5193
g41
VALGPredevonator
p5194
sg43
Nssg214
I2078758684
sg35
VPT6M5.2830922S
p5195
sa(dp5196
g38
I424645655
sg32
VWeaponDrop
p5197
sg223
I20
sg44
(lp5198
I1327094800
asg35
VPT6M5.2836761S
p5199
sg226
I14
sg227
VP0DT0H0M9.0167S
p5200
sg39
(dp5201
g41
VRNG Victory X
p5202
sg43
Nssa(dp5203
g38
I313138863
sg32
VWeaponDrop
p5204
sg223
I0
sg44
(lp5205
I1095363701
asg35
VPT6M5.2836761S
p5206
sg226
I0
sg227
VP0DT0H0M0.4000S
p5207
sg39
(dp5208
g41
VRNG Victory X
p5209
sg43
Nssa(dp5210
g179
I4096745987
sg180
I00
sg181
I00
sg182
(dp5211
g41
VRNG Penguin HCS
p5212
sg43
Nssg185
(lp5213
I2758383128
asg187
I00
sg188
I01
sg189
I1
sg190
I0
sg191
I1
sg192
(dp5214
Vy
F-4.7783932699999996
sVx
F22.073455800000001
sVz
F1.6277790000000001
ssg194
(dp5215
Vy
F0.66554709999999995
sVx
F19.397216799999999
sVz
F1.53783417
ssg196
I00
sg197
(dp5216
g41
VALGPredevonator
p5217
sg43
Nssg200
(lp5218
sg202
(lp5219
(dp5220
g41
VRNG Victory X
p5221
sg43
Nsasg206
I01
sg35
VPT6M7.3117019S
p5222
sg32
VDeath
p5223
sg209
I1
sa(dp5224
g32
VMedal
p5225
sg39
(dp5226
g41
VRNG Penguin HCS
p5227
sg43
Nssg214
I3261908037
sg35
VPT6M7.3137018S
p5228
sa(dp5229
g32
VMedal
p5230
sg39
(dp5231
g41
VRNG Penguin HCS
p5232
sg43
Nssg214
I2430242797
sg35
VPT6M7.3137018S
p5233
sa(dp5234
g38
I313138863
sg32
VWeaponDrop
p5235
sg223
I0
sg44
(lp5236
I1095363701
asg35
VPT6M7.3137018S
p5237
sg226
I0
sg227
VP0DT0H0M0.8000S
p5238
sg39
(dp5239
g41
VALGPredevonator
p5240
sg43
Nssa(dp5241
g38
I4096745987
sg32
VWeaponDrop
p5242
sg223
I11
sg44
(lp5243
I2758383128
asg35
VPT6M7.3137018S
p5244
sg226
I7
sg227
VP0DT0H0M13.4333S
p5245
sg39
(dp5246
g41
VALGPredevonator
p5247
sg43
Nssa(dp5248
g179
I2460880172
sg180
I00
sg181
I00
sg182
(dp5249
g41
VRNG Ninja HCS
p5250
sg43
Nssg185
(lp5251
sg187
I00
sg188
I01
sg189
I1
sg190
I0
sg191
I1
sg192
(dp5252
Vy
F1.8689699200000001
sVx
F6.5161495199999999
sVz
F0.0045359134699999998
ssg194
(dp5253
Vy
F4.1389339999999999
sVx
F4.7978420000000002
sVz
F4.5603465999999999
ssg196
I00
sg197
(dp5254
g41
VALG ContrA HCS
p5255
sg43
Nssg200
(lp5256
sg202
(lp5257
sg206
I00
sg35
VPT6M10.2467396S
p5258
sg32
VDeath
p5259
sg209
I1
sa(dp5260
g32
VMedal
p5261
sg39
(dp5262
g41
VRNG Ninja HCS
p5263
sg43
Nssg214
I2782465081
sg35
VPT6M10.2467396S
p5264
sa(dp5265
g32
VMedal
p5266
sg39
(dp5267
g41
VRNG Ninja HCS
p5268
sg43
Nssg214
I1351381581
sg35
VPT6M10.2477393S
p5269
sa(dp5270
g32
VMedal
p5271
sg39
(dp5272
g41
VRNG Ninja HCS
p5273
sg43
Nssg214
I2251767925
sg35
VPT6M10.2477393S
p5274
sa(dp5275
g38
I313138863
sg32
VWeaponDrop
p5276
sg223
I0
sg44
(lp5277
I1095363701
asg35
VPT6M10.2541137S
p5278
sg226
I0
sg227
VP0DT0H0M1.4167S
p5279
sg39
(dp5280
g41
VALG ContrA HCS
p5281
sg43
Nssa(dp5282
g38
I4096745987
sg32
VWeaponDrop
p5283
sg223
I0
sg44
(lp5284
I2758383128
asg35
VPT6M10.2541137S
p5285
sg226
I0
sg227
VP0DT0H0M7.7333S
p5286
sg39
(dp5287
g41
VALG ContrA HCS
p5288
sg43
Nssa(dp5289
g38
I313138863
sg39
(dp5290
g41
VRNG Commonly
p5291
sg43
Nssg44
(lp5292
I1095363701
asg32
VWeaponPickup
p5293
sg35
VPT6M10.543744S
p5294
sa(dp5295
g38
I4096745987
sg39
(dp5296
g41
VRNG Commonly
p5297
sg43
Nssg44
(lp5298
I2758383128
asg32
VWeaponPickup
p5299
sg35
VPT6M10.543744S
p5300
sa(dp5301
g32
VPlayerSpawn
p5302
sg39
(dp5303
g41
VRNG Commonly
p5304
sg43
Nssg35
VPT6M10.543744S
p5305
sa(dp5306
g38
I313138863
sg39
(dp5307
g41
VALG Goofy HCS
p5308
sg43
Nssg44
(lp5309
I1095363701
asg32
VWeaponPickup
p5310
sg35
VPT6M11.2067522S
p5311
sa(dp5312
g38
I4096745987
sg39
(dp5313
g41
VALG Goofy HCS
p5314
sg43
Nssg44
(lp5315
I2758383128
asg32
VWeaponPickup
p5316
sg35
VPT6M11.2067522S
p5317
sa(dp5318
g32
VPlayerSpawn
p5319
sg39
(dp5320
g41
VALG Goofy HCS
p5321
sg43
Nssg35
VPT6M11.2067522S
p5322
sa(dp5323
g32
VMedal
p5324
sg39
(dp5325
g41
VALG RyaNoob
p5326
sg43
Nssg214
I3565443938
sg35
VPT6M12.4447678S
p5327
sa(dp5328
g32
VMedal
p5329
sg39
(dp5330
g41
VALG ContrA HCS
p5331
sg43
Nssg214
I1637841390
sg35
VPT6M12.4447678S
p5332
sa(dp5333
g38
I313138863
sg39
(dp5334
g41
VRNG Victory X
p5335
sg43
Nssg44
(lp5336
I1095363701
asg32
VWeaponPickup
p5337
sg35
VPT6M13.2957784S
p5338
sa(dp5339
g38
I4096745987
sg39
(dp5340
g41
VRNG Victory X
p5341
sg43
Nssg44
(lp5342
I2758383128
asg32
VWeaponPickup
p5343
sg35
VPT6M13.2957784S
p5344
sa(dp5345
g32
VPlayerSpawn
p5346
sg39
(dp5347
g41
VRNG Victory X
p5348
sg43
Nssg35
VPT6M13.2957784S
p5349
sa(dp5350
g38
I4096745987
sg32
VWeaponDrop
p5351
sg223
I16
sg44
(lp5352
I2758383128
asg35
VPT6M13.3138897S
p5353
sg226
I5
sg227
VP0DT0H0M31.1500S
p5354
sg39
(dp5355
g41
VRNG Ninja HCS
p5356
sg43
Nssa(dp5357
g38
I424645655
sg39
(dp5358
g41
VRNG Ninja HCS
p5359
sg43
Nssg44
(lp5360
I1327094800
asg32
VWeaponPickup
p5361
sg35
VPT6M13.3138897S
p5362
sa(dp5363
g179
I313138863
sg180
I00
sg181
I00
sg182
(dp5364
g41
VALG RyaNoob
p5365
sg43
Nssg185
(lp5366
I1095363701
asg187
I00
sg188
I01
sg189
I1
sg190
I0
sg191
I1
sg192
(dp5367
Vy
F-2.62374353
sVx
F4.4044939999999997
sVz
F2.5770802499999999
ssg194
(dp5368
Vy
F-5.2182630000000003
sVx
F2.01902962
sVz
F1.1865167599999999
ssg196
I00
sg197
(dp5369
g41
VRNG Ninja HCS
p5370
sg43
Nssg200
(lp5371
sg202
(lp5372
(dp5373
g41
VALG ContrA HCS
p5374
sg43
Nsasg206
I00
sg35
VPT6M13.8967867S
p5375
sg32
VDeath
p5376
sg209
I1
sa(dp5377
g32
VMedal
p5378
sg39
(dp5379
g41
VALG RyaNoob
p5380
sg43
Nssg214
I3698887726
sg35
VPT6M13.8967867S
p5381
sa(dp5382
g38
I313138863
sg32
VWeaponDrop
p5383
sg223
I0
sg44
(lp5384
I1095363701
asg35
VPT6M13.8977863S
p5385
sg226
I0
sg227
VP0DT0H0M3.9500S
p5386
sg39
(dp5387
g41
VRNG Ninja HCS
p5388
sg43
Nssa(dp5389
g38
I424645655
sg32
VWeaponDrop
p5390
sg223
I0
sg44
(lp5391
I1327094800
asg35
VPT6M13.8977863S
p5392
sg226
I0
sg227
VP0DT0H0M0.5667S
p5393
sg39
(dp5394
g41
VRNG Ninja HCS
p5395
sg43
Nssa(dp5396
g38
I313138863
sg32
VWeaponDrop
p5397
sg223
I0
sg44
(lp5398
I1095363701
asg35
VPT6M15.1048003S
p5399
sg226
I0
sg227
VP0DT0H0M1.4500S
p5400
sg39
(dp5401
g41
VRNG Victory X
p5402
sg43
Nssa(dp5403
g38
I2511447508
sg39
(dp5404
g41
VRNG Victory X
p5405
sg43
Nssg44
(lp5406
I2758383128
asg32
VWeaponPickup
p5407
sg35
VPT6M15.1048003S
p5408
sa(dp5409
g38
I313138863
sg39
(dp5410
g41
VALGPredevonator
p5411
sg43
Nssg44
(lp5412
I1095363701
asg32
VWeaponPickup
p5413
sg35
VPT6M15.3208047S
p5414
sa(dp5415
g38
I4096745987
sg39
(dp5416
g41
VALGPredevonator
p5417
sg43
Nssg44
(lp5418
I2758383128
asg32
VWeaponPickup
p5419
sg35
VPT6M15.3208047S
p5420
sa(dp5421
g32
VPlayerSpawn
p5422
sg39
(dp5423
g41
VALGPredevonator
p5424
sg43
Nssg35
VPT6M15.3208047S
p5425
sa(dp5426
g38
I313138863
sg32
VWeaponDrop
p5427
sg223
I59
sg44
(lp5428
I1095363701
asg35
VPT6M16.0410618S
p5429
sg226
I28
sg227
VP0DT0H0M51.4833S
p5430
sg39
(dp5431
g41
VRNG Penguin HCS
p5432
sg43
Nssa(dp5433
g38
I313138863
sg32
VWeaponDrop
p5434
sg223
I0
sg44
(lp5435
I1095363701
asg35
VPT6M16.0410618S
p5436
sg226
I0
sg227
VP0DT0S
p5437
sg39
(dp5438
g41
VRNG Penguin HCS
p5439
sg43
Nssa(dp5440
g38
I2015271382
sg39
(dp5441
g41
VRNG Penguin HCS
p5442
sg43
Nssg44
(lp5443
I2758383128
asg32
VWeaponPickup
p5444
sg35
VPT6M16.0411282S
p5445
sa(dp5446
g38
I313138863
sg39
(dp5447
g41
VALG ContrA HCS
p5448
sg43
Nssg44
(lp5449
I1095363701
asg32
VWeaponPickup
p5450
sg35
VPT6M18.2768428S
p5451
sa(dp5452
g38
I4096745987
sg39
(dp5453
g41
VALG ContrA HCS
p5454
sg43
Nssg44
(lp5455
I2758383128
asg32
VWeaponPickup
p5456
sg35
VPT6M18.2778428S
p5457
sa(dp5458
g32
VPlayerSpawn
p5459
sg39
(dp5460
g41
VALG ContrA HCS
p5461
sg43
Nssg35
VPT6M18.2778428S
p5462
sa(dp5463
g32
VMedal
p5464
sg39
(dp5465
g41
VRNG Penguin HCS
p5466
sg43
Nssg214
I3565443938
sg35
VPT6M20.0743428S
p5467
sa(dp5468
g32
VMedal
p5469
sg39
(dp5470
g41
VRNG Commonly
p5471
sg43
Nssg214
I3565443938
sg35
VPT6M20.0743428S
p5472
sa(dp5473
g38
I313138863
sg39
(dp5474
g41
VRNG Ninja HCS
p5475
sg43
Nssg44
(lp5476
I1095363701
asg32
VWeaponPickup
p5477
sg35
VPT6M21.9118891S
p5478
sa(dp5479
g38
I4096745987
sg39
(dp5480
g41
VRNG Ninja HCS
p5481
sg43
Nssg44
(lp5482
I2758383128
asg32
VWeaponPickup
p5483
sg35
VPT6M21.9128892S
p5484
sa(dp5485
g32
VPlayerSpawn
p5486
sg39
(dp5487
g41
VRNG Ninja HCS
p5488
sg43
Nssg35
VPT6M21.9128892S
p5489
sa(dp5490
g38
I2511447508
sg32
VWeaponDrop
p5491
sg223
I0
sg44
(lp5492
I2758383128
asg35
VPT6M24.3879193S
p5493
sg226
I0
sg227
VP0DT0H0M9.1500S
p5494
sg39
(dp5495
g41
VRNG Victory X
p5496
sg43
Nssa(dp5497
g38
I2902827823
sg39
(dp5498
g41
VRNG Victory X
p5499
sg43
Nssg44
(lp5500
I2758383128
asg32
VWeaponPickupPad
p5501
sg35
VPT6M24.3879193S
p5502
sa(dp5503
g38
I2902827823
sg39
(dp5504
g41
VRNG Victory X
p5505
sg43
Nssg44
(lp5506
I2758383128
asg32
VWeaponPickup
p5507
sg35
VPT6M24.3879193S
p5508
sa(dp5509
g179
I4106030681
sg180
I00
sg181
I00
sg182
(dp5510
g41
VALG RyaNoob
p5511
sg43
Nssg185
(lp5512
sg187
I00
sg188
I01
sg189
I1
sg190
I0
sg191
I1
sg192
(dp5513
Vy
F-8.4828589999999995
sVx
F9.6497080000000004
sVz
F3.1403884899999999
ssg194
(dp5514
Vy
F-5.6353
sVx
F18.9368877
sVz
F2.46444654
ssg196
I00
sg197
(dp5515
g41
VRNG Commonly
p5516
sg43
Nssg200
(lp5517
sg202
(lp5518
(dp5519
g41
VALGPredevonator
p5520
sg43
Nsa(dp5521
g41
VALG Goofy HCS
p5522
sg43
Nsasg206
I00
sg35
VPT6M26.044941S
p5523
sg32
VDeath
p5524
sg209
I1
sa(dp5525
g38
I4096745987
sg32
VWeaponDrop
p5526
sg223
I1
sg44
(lp5527
I2758383128
asg35
VPT6M26.046942S
p5528
sg226
I0
sg227
VP0DT0H0M11.7167S
p5529
sg39
(dp5530
g41
VRNG Commonly
p5531
sg43
Nssa(dp5532
g38
I313138863
sg32
VWeaponDrop
p5533
sg223
I0
sg44
(lp5534
I1095363701
asg35
VPT6M26.0479416S
p5535
sg226
I0
sg227
VP0DT0H0M3.6500S
p5536
sg39
(dp5537
g41
VRNG Commonly
p5538
sg43
Nssa(dp5539
g32
VMedal
p5540
sg39
(dp5541
g41
VRNG Penguin HCS
p5542
sg43
Nssg214
I2916014239
sg35
VPT6M29.8049892S
p5543
sa(dp5544
g179
I4096745987
sg180
I00
sg181
I00
sg182
(dp5545
g41
VALG RyaNoob
p5546
sg43
Nssg185
(lp5547
I2758383128
asg187
I00
sg188
I01
sg189
I1
sg190
I0
sg191
I1
sg192
(dp5548
Vy
F-9.5396249999999991
sVx
F10.027052899999999
sVz
F4.6399699999999999
ssg194
(dp5549
Vy
F-9.3749339999999997
sVx
F11.990640600000001
sVz
F3.43990755
ssg196
I00
sg197
(dp5550
g41
VRNG Penguin HCS
p5551
sg43
Nssg200
(lp5552
sg202
(lp5553
(dp5554
g41
VALG Goofy HCS
p5555
sg43
Nsasg206
I01
sg35
VPT6M30.0889928S
p5556
sg32
VDeath
p5557
sg209
I1
sa(dp5558
g32
VMedal
p5559
sg39
(dp5560
g41
VALG RyaNoob
p5561
sg43
Nssg214
I3261908037
sg35
VPT6M30.0967713S
p5562
sa(dp5563
g32
VMedal
p5564
sg39
(dp5565
g41
VALG RyaNoob
p5566
sg43
Nssg214
I2078758684
sg35
VPT6M30.0967713S
p5567
sa(dp5568
g38
I2015271382
sg32
VWeaponDrop
p5569
sg223
I16
sg44
(lp5570
I2758383128
asg35
VPT6M30.0969927S
p5571
sg226
I0
sg227
VP0DT0H0M13.9167S
p5572
sg39
(dp5573
g41
VRNG Penguin HCS
p5574
sg43
Nssa(dp5575
g38
I4096745987
sg32
VWeaponDrop
p5576
sg223
I26
sg44
(lp5577
I2758383128
asg35
VPT6M30.0969927S
p5578
sg226
I14
sg227
VP0DT0H0M32.7500S
p5579
sg39
(dp5580
g41
VRNG Penguin HCS
p5581
sg43
Nssa(dp5582
g179
I2902827823
sg180
I00
sg181
I00
sg182
(dp5583
g41
VRNG Victory X
p5584
sg43
Nssg185
(lp5585
I2758383128
asg187
I00
sg188
I01
sg189
I1
sg190
I0
sg191
I1
sg192
(dp5586
Vy
F-9.2412930000000006
sVx
F17.318075199999999
sVz
F1.7668075599999999
ssg194
(dp5587
Vy
F-7.9980564100000002
sVx
F9.866301
sVz
F3.42888832
ssg196
I00
sg197
(dp5588
g41
VALG RyaNoob
p5589
sg43
Nssg200
(lp5590
sg202
(lp5591
sg206
I00
sg35
VPT6M31.589013S
p5592
sg32
VDeath
p5593
sg209
I1
sa(dp5594
g32
VMedal
p5595
sg39
(dp5596
g41
VRNG Victory X
p5597
sg43
Nssg214
I1351381581
sg35
VPT6M31.5900128S
p5598
sa(dp5599
g38
I313138863
sg32
VWeaponDrop
p5600
sg223
I20
sg44
(lp5601
I1095363701
asg35
VPT6M31.5900128S
p5602
sg226
I13
sg227
VP0DT0H0M9.9667S
p5603
sg39
(dp5604
g41
VALG RyaNoob
p5605
sg43
Nssa(dp5606
g38
I4096745987
sg32
VWeaponDrop
p5607
sg223
I6
sg44
(lp5608
I2758383128
asg35
VPT6M31.5900128S
p5609
sg226
I5
sg227
VP0DT0H0M20.4333S
p5610
sg39
(dp5611
g41
VALG RyaNoob
p5612
sg43
Nssa(dp5613
g32
VMedal
p5614
sg39
(dp5615
g41
VRNG Victory X
p5616
sg43
Nssg214
I2916014239
sg35
VPT6M33.1390346S
p5617
sa(dp5618
g179
I2902827823
sg180
I00
sg181
I00
sg182
(dp5619
g41
VRNG Victory X
p5620
sg43
Nssg185
(lp5621
I2758383128
asg187
I00
sg188
I01
sg189
I1
sg190
I0
sg191
I1
sg192
(dp5622
Vy
F-9.6956489999999995
sVx
F12.503888099999999
sVz
F4.2159509999999996
ssg194
(dp5623
Vy
F-9.595326
sVx
F14.1595526
sVz
F3.2571349999999999
ssg196
I00
sg197
(dp5624
g41
VALG Goofy HCS
p5625
sg43
Nssg200
(lp5626
sg202
(lp5627
(dp5628
g41
VRNG Ninja HCS
p5629
sg43
Nsasg206
I00
sg35
VPT6M33.6450397S
p5630
sg32
VDeath
p5631
sg209
I1
sa(dp5632
g32
VMedal
p5633
sg39
(dp5634
g41
VRNG Victory X
p5635
sg43
Nssg214
I2078758684
sg35
VPT6M33.6460396S
p5636
sa(dp5637
g38
I313138863
sg32
VWeaponDrop
p5638
sg223
I12
sg44
(lp5639
I1095363701
asg35
VPT6M33.6460396S
p5640
sg226
I5
sg227
VP0DT0H0M4.4333S
p5641
sg39
(dp5642
g41
VALG Goofy HCS
p5643
sg43
Nssa(dp5644
g38
I4096745987
sg32
VWeaponDrop
p5645
sg223
I11
sg44
(lp5646
I2758383128
asg35
VPT6M33.6460396S
p5647
sg226
I7
sg227
VP0DT0H0M17.8667S
p5648
sg39
(dp5649
g41
VALG Goofy HCS
p5650
sg43
Nssa(dp5651
g38
I313138863
sg39
(dp5652
g41
VRNG Commonly
p5653
sg43
Nssg44
(lp5654
I1095363701
asg32
VWeaponPickup
p5655
sg35
VPT6M34.0610561S
p5656
sa(dp5657
g38
I4096745987
sg39
(dp5658
g41
VRNG Commonly
p5659
sg43
Nssg44
(lp5660
I2758383128
asg32
VWeaponPickup
p5661
sg35
VPT6M34.0610561S
p5662
sa(dp5663
g32
VPlayerSpawn
p5664
sg39
(dp5665
g41
VRNG Commonly
p5666
sg43
Nssg35
VPT6M34.0610561S
p5667
sa(dp5668
g38
I2492868984
sg39
(dp5669
g41
VALGPredevonator
p5670
sg43
Nssg44
(lp5671
I2758383128
asg32
VWeaponPickup
p5672
sg35
VPT6M34.53805S
p5673
sa(dp5674
g38
I2492868984
sg32
VWeaponDrop
p5675
sg223
I0
sg44
(lp5676
I2758383128
asg35
VPT6M35.8200648S
p5677
sg226
I0
sg227
VP0DT0H0M1.0000S
p5678
sg39
(dp5679
g41
VALGPredevonator
p5680
sg43
Nssa(dp5681
g38
I313138863
sg39
(dp5682
g41
VRNG Penguin HCS
p5683
sg43
Nssg44
(lp5684
I1095363701
asg32
VWeaponPickup
p5685
sg35
VPT6M38.8611042S
p5686
sa(dp5687
g38
I4096745987
sg39
(dp5688
g41
VRNG Penguin HCS
p5689
sg43
Nssg44
(lp5690
I2758383128
asg32
VWeaponPickup
p5691
sg35
VPT6M38.8621059S
p5692
sa(dp5693
g32
VPlayerSpawn
p5694
sg39
(dp5695
g41
VRNG Penguin HCS
p5696
sg43
Nssg35
VPT6M38.8621059S
p5697
sa(dp5698
g179
I313138863
sg180
I00
sg181
I00
sg182
(dp5699
g41
VALGPredevonator
p5700
sg43
Nssg185
(lp5701
I1095363701
asg187
I00
sg188
I01
sg189
I1
sg190
I0
sg191
I1
sg192
(dp5702
Vy
F-8.0695490000000003
sVx
F12.1410789
sVz
F0.0045318305500000001
ssg194
(dp5703
Vy
F-4.5980496400000002
sVx
F14.3244314
sVz
F0.0045367777300000002
ssg196
I00
sg197
(dp5704
g41
VRNG Ninja HCS
p5705
sg43
Nssg200
(lp5706
sg202
(lp5707
sg206
I00
sg35
VPT6M39.5721163S
p5708
sg32
VDeath
p5709
sg209
I1
sa(dp5710
g38
I313138863
sg32
VWeaponDrop
p5711
sg223
I11
sg44
(lp5712
I1095363701
asg35
VPT6M39.574119S
p5713
sg226
I7
sg227
VP0DT0H0M4.4500S
p5714
sg39
(dp5715
g41
VRNG Ninja HCS
p5716
sg43
Nssa(dp5717
g38
I4096745987
sg32
VWeaponDrop
p5718
sg223
I11
sg44
(lp5719
I2758383128
asg35
VPT6M39.574119S
p5720
sg226
I5
sg227
VP0DT0H0M12.3333S
p5721
sg39
(dp5722
g41
VRNG Ninja HCS
p5723
sg43
Nssa(dp5724
g38
I313138863
sg32
VWeaponDrop
p5725
sg223
I0
sg44
(lp5726
I1095363701
asg35
VPT6M40.3041222S
p5727
sg226
I0
sg227
VP0DT0H0M0.6167S
p5728
sg39
(dp5729
g41
VALG ContrA HCS
p5730
sg43
Nssa(dp5731
g38
I723388907
sg39
(dp5732
g41
VALG ContrA HCS
p5733
sg43
Nssg44
(lp5734
I89283061
asg32
VWeaponPickup
p5735
sg35
VPT6M40.3041222S
p5736
sa(dp5737
g38
I313138863
sg39
(dp5738
g41
VALG RyaNoob
p5739
sg43
Nssg44
(lp5740
I1095363701
asg32
VWeaponPickup
p5741
sg35
VPT6M40.3561252S
p5742
sa(dp5743
g38
I4096745987
sg39
(dp5744
g41
VALG RyaNoob
p5745
sg43
Nssg44
(lp5746
I2758383128
asg32
VWeaponPickup
p5747
sg35
VPT6M40.3561252S
p5748
sa(dp5749
g32
VPlayerSpawn
p5750
sg39
(dp5751
g41
VALG RyaNoob
p5752
sg43
Nssg35
VPT6M40.362895S
p5753
sa(dp5754
g38
I313138863
sg39
(dp5755
g41
VALG Goofy HCS
p5756
sg43
Nssg44
(lp5757
I1095363701
asg32
VWeaponPickup
p5758
sg35
VPT6M42.4071515S
p5759
sa(dp5760
g38
I4096745987
sg39
(dp5761
g41
VALG Goofy HCS
p5762
sg43
Nssg44
(lp5763
I2758383128
asg32
VWeaponPickup
p5764
sg35
VPT6M42.4071515S
p5765
sa(dp5766
g32
VPlayerSpawn
p5767
sg39
(dp5768
g41
VALG Goofy HCS
p5769
sg43
Nssg35
VPT6M42.4071515S
p5770
sa(dp5771
g38
I313138863
sg39
(dp5772
g41
VRNG Ninja HCS
p5773
sg43
Nssg44
(lp5774
I1095363701
asg32
VWeaponPickup
p5775
sg35
VPT6M47.5952173S
p5776
sa(dp5777
g38
I4096745987
sg39
(dp5778
g41
VRNG Ninja HCS
p5779
sg43
Nssg44
(lp5780
I2758383128
asg32
VWeaponPickup
p5781
sg35
VPT6M47.5952173S
p5782
sa(dp5783
g32
VPlayerSpawn
p5784
sg39
(dp5785
g41
VRNG Ninja HCS
p5786
sg43
Nssg35
VPT6M47.5952173S
p5787
sa(dp5788
g38
I2492868984
sg39
(dp5789
g41
VALG RyaNoob
p5790
sg43
Nssg44
(lp5791
I2758383128
asg32
VWeaponPickup
p5792
sg35
VPT6M48.0552237S
p5793
sa(dp5794
g179
I313138863
sg180
I00
sg181
I01
sg182
(dp5795
g41
VRNG Penguin HCS
p5796
sg43
Nssg185
(lp5797
I1095363701
asg187
I00
sg188
I00
sg189
I1
sg190
I0
sg191
I1
sg192
(dp5798
Vy
F0.28659849999999998
sVx
F-6.4787100000000004
sVz
F1.8000119999999999
ssg194
(dp5799
Vy
F0.32281976899999998
sVx
F-7.0249285700000001
sVz
F2.0678031400000001
ssg196
I00
sg197
(dp5800
g41
VALG RyaNoob
p5801
sg43
Nssg200
(lp5802
sg202
(lp5803
sg206
I00
sg35
VPT6M48.3452385S
p5804
sg32
VDeath
p5805
sg209
I1
sa(dp5806
g32
VMedal
p5807
sg39
(dp5808
g41
VRNG Penguin HCS
p5809
sg43
Nssg214
I2287626681
sg35
VPT6M48.3462267S
p5810
sa(dp5811
g38
I2492868984
sg32
VWeaponDrop
p5812
sg223
I0
sg44
(lp5813
I2758383128
asg35
VPT6M48.3462267S
p5814
sg226
I0
sg227
VP0DT0H0M0.1333S
p5815
sg39
(dp5816
g41
VALG RyaNoob
p5817
sg43
Nssa(dp5818
g38
I313138863
sg32
VWeaponDrop
p5819
sg223
I0
sg44
(lp5820
I1095363701
asg35
VPT6M48.3472268S
p5821
sg226
I0
sg227
VP0DT0H0M0.6833S
p5822
sg39
(dp5823
g41
VALG RyaNoob
p5824
sg43
Nssa(dp5825
g38
I4096745987
sg32
VWeaponDrop
p5826
sg223
I0
sg44
(lp5827
I2758383128
asg35
VPT6M48.3472268S
p5828
sg226
I0
sg227
VP0DT0H0M7.1667S
p5829
sg39
(dp5830
g41
VALG RyaNoob
p5831
sg43
Nssa(dp5832
g179
I4096745987
sg180
I00
sg181
I00
sg182
(dp5833
g41
VRNG Victory X
p5834
sg43
Nssg185
(lp5835
I2758383128
asg187
I00
sg188
I01
sg189
I1
sg190
I0
sg191
I1
sg192
(dp5836
Vy
F-7.7615879999999997
sVx
F19.372323999999999
sVz
F2.4911262999999999
ssg194
(dp5837
Vy
F-12.148569999999999
sVx
F20.23189
sVz
F2.79815865
ssg196
I00
sg197
(dp5838
g41
VALGPredevonator
p5839
sg43
Nssg200
(lp5840
sg202
(lp5841
sg206
I00
sg35
VPT6M48.4052282S
p5842
sg32
VDeath
p5843
sg209
I1
sa(dp5844
g38
I313138863
sg32
VWeaponDrop
p5845
sg223
I21
sg44
(lp5846
I1095363701
asg35
VPT6M48.4072279S
p5847
sg226
I10
sg227
VP0DT0H0M13.4500S
p5848
sg39
(dp5849
g41
VALGPredevonator
p5850
sg43
Nssa(dp5851
g38
I4096745987
sg32
VWeaponDrop
p5852
sg223
I12
sg44
(lp5853
I2758383128
asg35
VPT6M48.4072279S
p5854
sg226
I5
sg227
VP0DT0H0M17.7333S
p5855
sg39
(dp5856
g41
VALGPredevonator
p5857
sg43
Nssa(dp5858
g32
VMedal
p5859
sg39
(dp5860
g41
VALG ContrA HCS
p5861
sg43
Nssg214
I3565443938
sg35
VPT6M49.8102451S
p5862
sa(dp5863
g179
I4096745987
sg180
I00
sg181
I00
sg182
(dp5864
g41
VRNG Victory X
p5865
sg43
Nssg185
(lp5866
I2758383128
asg187
I00
sg188
I01
sg189
I1
sg190
I0
sg191
I1
sg192
(dp5867
Vy
F-6.9634999999999998
sVx
F23.2360115
sVz
F2.7648861400000002
ssg194
(dp5868
Vy
F8.9734970000000001
sVx
F18.856286999999998
sVz
F1.605896
ssg196
I00
sg197
(dp5869
g41
VALG ContrA HCS
p5870
sg43
Nssg200
(lp5871
sg202
(lp5872
(dp5873
g41
VRNG Commonly
p5874
sg43
Nsasg206
I01
sg35
VPT6M52.2102759S
p5875
sg32
VDeath
p5876
sg209
I1
sa(dp5877
g32
VMedal
p5878
sg39
(dp5879
g41
VRNG Victory X
p5880
sg43
Nssg214
I3261908037
sg35
VPT6M52.2122761S
p5881
sa(dp5882
g32
VMedal
p5883
sg39
(dp5884
g41
VRNG Victory X
p5885
sg43
Nssg214
I2078758684
sg35
VPT6M52.2122761S
p5886
sa(dp5887
g38
I723388907
sg32
VWeaponDrop
p5888
sg223
I0
sg44
(lp5889
I89283061
asg35
VPT6M52.2193769S
p5890
sg226
I0
sg227
VP0DT0H0M1.5167S
p5891
sg39
(dp5892
g41
VALG ContrA HCS
p5893
sg43
Nssa(dp5894
g38
I4096745987
sg32
VWeaponDrop
p5895
sg223
I6
sg44
(lp5896
I2758383128
asg35
VPT6M52.2193769S
p5897
sg226
I2
sg227
VP0DT0H0M30.9167S
p5898
sg39
(dp5899
g41
VALG ContrA HCS
p5900
sg43
Nssa(dp5901
g179
I4096745987
sg180
I00
sg181
I00
sg182
(dp5902
g41
VRNG Penguin HCS
p5903
sg43
Nssg185
(lp5904
I2758383128
asg187
I00
sg188
I01
sg189
I1
sg190
I0
sg191
I1
sg192
(dp5905
Vy
F1.3832867099999999
sVx
F5.5522346499999999
sVz
F4.5243177399999999
ssg194
(dp5906
Vy
F7.4005484600000004
sVx
F-1.3492608100000001
sVz
F3.4177415400000002
ssg196
I00
sg197
(dp5907
g41
VALG Goofy HCS
p5908
sg43
Nssg200
(lp5909
sg202
(lp5910
(dp5911
g41
VRNG Ninja HCS
p5912
sg43
Nsasg206
I01
sg35
VPT6M54.877311S
p5913
sg32
VDeath
p5914
sg209
I1
sa(dp5915
g32
VMedal
p5916
sg39
(dp5917
g41
VRNG Penguin HCS
p5918
sg43
Nssg214
I3261908037
sg35
VPT6M54.8783109S
p5919
sa(dp5920
g38
I313138863
sg32
VWeaponDrop
p5921
sg223
I8
sg44
(lp5922
I1095363701
asg35
VPT6M54.8783109S
p5923
sg226
I5
sg227
VP0DT0H0M4.0667S
p5924
sg39
(dp5925
g41
VALG Goofy HCS
p5926
sg43
Nssa(dp5927
g38
I4096745987
sg32
VWeaponDrop
p5928
sg223
I1
sg44
(lp5929
I2758383128
asg35
VPT6M54.8783109S
p5930
sg226
I0
sg227
VP0DT0H0M8.4000S
p5931
sg39
(dp5932
g41
VALG Goofy HCS
p5933
sg43
Nssa(dp5934
g38
I313138863
sg39
(dp5935
g41
VALG RyaNoob
p5936
sg43
Nssg44
(lp5937
I1095363701
asg32
VWeaponPickup
p5938
sg35
VPT6M56.3613303S
p5939
sa(dp5940
g38
I4096745987
sg39
(dp5941
g41
VALG RyaNoob
p5942
sg43
Nssg44
(lp5943
I2758383128
asg32
VWeaponPickup
p5944
sg35
VPT6M56.3613303S
p5945
sa(dp5946
g32
VPlayerSpawn
p5947
sg39
(dp5948
g41
VALG RyaNoob
p5949
sg43
Nssg35
VPT6M56.3613303S
p5950
sa(dp5951
g38
I313138863
sg39
(dp5952
g41
VALGPredevonator
p5953
sg43
Nssg44
(lp5954
I1095363701
asg32
VWeaponPickup
p5955
sg35
VPT6M56.4223395S
p5956
sa(dp5957
g38
I4096745987
sg39
(dp5958
g41
VALGPredevonator
p5959
sg43
Nssg44
(lp5960
I2758383128
asg32
VWeaponPickup
p5961
sg35
VPT6M56.4223395S
p5962
sa(dp5963
g32
VPlayerSpawn
p5964
sg39
(dp5965
g41
VALGPredevonator
p5966
sg43
Nssg35
VPT6M56.4223395S
p5967
sa(dp5968
g38
I2902827823
sg32
VWeaponDrop
p5969
sg223
I4
sg44
(lp5970
I2758383128
asg35
VPT6M57.7373474S
p5971
sg226
I4
sg227
VP0DT0H0M19.1167S
p5972
sg39
(dp5973
g41
VRNG Victory X
p5974
sg43
Nssa(dp5975
g38
I723388907
sg39
(dp5976
g41
VRNG Victory X
p5977
sg43
Nssg44
(lp5978
I89283061
asg32
VWeaponPickup
p5979
sg35
VPT6M57.7373474S
p5980
sa(dp5981
g32
VMedal
p5982
sg39
(dp5983
g41
VRNG Ninja HCS
p5984
sg43
Nssg214
I3565443938
sg35
VPT6M58.4416285S
p5985
sa(dp5986
g32
VMedal
p5987
sg39
(dp5988
g41
VRNG Penguin HCS
p5989
sg43
Nssg214
I1637841390
sg35
VPT6M58.4423557S
p5990
sa(dp5991
g32
VMedal
p5992
sg39
(dp5993
g41
VRNG Penguin HCS
p5994
sg43
Nssg214
I3400287617
sg35
VPT6M59.2563709S
p5995
sa(dp5996
g38
I313138863
sg39
(dp5997
g41
VALG ContrA HCS
p5998
sg43
Nssg44
(lp5999
I1095363701
asg32
VWeaponPickup
p6000
sg35
VPT7M0.2263794S
p6001
sa(dp6002
g38
I4096745987
sg39
(dp6003
g41
VALG ContrA HCS
p6004
sg43
Nssg44
(lp6005
I2758383128
asg32
VWeaponPickup
p6006
sg35
VPT7M0.2263794S
p6007
sa(dp6008
g32
VPlayerSpawn
p6009
sg39
(dp6010
g41
VALG ContrA HCS
p6011
sg43
Nssg35
VPT7M0.2263794S
p6012
sa(dp6013
g38
I313138863
sg39
(dp6014
g41
VALG Goofy HCS
p6015
sg43
Nssg44
(lp6016
I1095363701
asg32
VWeaponPickup
p6017
sg35
VPT7M2.894414S
p6018
sa(dp6019
g38
I4096745987
sg39
(dp6020
g41
VALG Goofy HCS
p6021
sg43
Nssg44
(lp6022
I2758383128
asg32
VWeaponPickup
p6023
sg35
VPT7M2.8954141S
p6024
sa(dp6025
g32
VPlayerSpawn
p6026
sg39
(dp6027
g41
VALG Goofy HCS
p6028
sg43
Nssg35
VPT7M2.8954141S
p6029
sa(dp6030
g32
VMedal
p6031
sg39
(dp6032
g41
VRNG Victory X
p6033
sg43
Nssg214
I3565443938
sg35
VPT7M3.2214291S
p6034
sa(dp6035
g32
VMedal
p6036
sg39
(dp6037
g41
VRNG Commonly
p6038
sg43
Nssg214
I3565443938
sg35
VPT7M3.2214291S
p6039
sa(dp6040
g32
VMedal
p6041
sg39
(dp6042
g41
VRNG Ninja HCS
p6043
sg43
Nssg214
I2105198095
sg35
VPT7M3.2214291S
p6044
sa(dp6045
g32
VMedal
p6046
sg39
(dp6047
g41
VRNG Commonly
p6048
sg43
Nssg214
I2105198095
sg35
VPT7M3.2214291S
p6049
sa(dp6050
g32
VMedal
p6051
sg39
(dp6052
g41
VRNG Penguin HCS
p6053
sg43
Nssg214
I2105198095
sg35
VPT7M3.2214291S
p6054
sa(dp6055
g32
VMedal
p6056
sg39
(dp6057
g41
VRNG Victory X
p6058
sg43
Nssg214
I2105198095
sg35
VPT7M3.2214291S
p6059
sa(dp6060
g38
I313138863
sg32
VWeaponDrop
p6061
sg223
I6
sg44
(lp6062
I1095363701
asg35
VPT7M4.1088949S
p6063
sg226
I0
sg227
VP0DT0H0M11.1500S
p6064
sg39
(dp6065
g41
VRNG Commonly
p6066
sg43
Nssa(dp6067
g38
I723388907
sg39
(dp6068
g41
VRNG Commonly
p6069
sg43
Nssg44
(lp6070
I89283061
asg32
VWeaponPickup
p6071
sg35
VPT7M4.1088949S
p6072
sa(dp6073
g179
I4096745987
sg180
I00
sg181
I00
sg182
(dp6074
g41
VALG ContrA HCS
p6075
sg43
Nssg185
(lp6076
I2758383128
asg187
I00
sg188
I01
sg189
I1
sg190
I0
sg191
I1
sg192
(dp6077
Vy
F-2.1292731800000002
sVx
F22.474636100000001
sVz
F0.80002569999999995
ssg194
(dp6078
Vy
F-0.27676840000000003
sVx
F13.247073200000001
sVz
F1.7704580000000001
ssg196
I00
sg197
(dp6079
g41
VRNG Penguin HCS
p6080
sg43
Nssg200
(lp6081
sg202
(lp6082
(dp6083
g41
VALG RyaNoob
p6084
sg43
Nsa(dp6085
g41
VALGPredevonator
p6086
sg43
Nsasg206
I00
sg35
VPT7M7.2274686S
p6087
sg32
VDeath
p6088
sg209
I1
sa(dp6089
g38
I313138863
sg32
VWeaponDrop
p6090
sg223
I8
sg44
(lp6091
I1095363701
asg35
VPT7M7.2294682S
p6092
sg226
I8
sg227
VP0DT0H0M11.9167S
p6093
sg39
(dp6094
g41
VRNG Penguin HCS
p6095
sg43
Nssa(dp6096
g38
I313138863
sg32
VWeaponDrop
p6097
sg223
I0
sg44
(lp6098
I1095363701
asg35
VPT7M7.2294682S
p6099
sg226
I0
sg227
VP0DT0S
p6100
sg39
(dp6101
g41
VRNG Penguin HCS
p6102
sg43
Nssa(dp6103
g38
I4096745987
sg32
VWeaponDrop
p6104
sg223
I11
sg44
(lp6105
I2758383128
asg35
VPT7M7.2294682S
p6106
sg226
I8
sg227
VP0DT0H0M16.4500S
p6107
sg39
(dp6108
g41
VRNG Penguin HCS
p6109
sg43
Nssa(dp6110
g179
I4096745987
sg180
I00
sg181
I00
sg182
(dp6111
g41
VRNG Ninja HCS
p6112
sg43
Nssg185
(lp6113
I2758383128
asg187
I00
sg188
I01
sg189
I1
sg190
I0
sg191
I1
sg192
(dp6114
Vy
F-13.139549300000001
sVx
F5.3250894500000001
sVz
F2.5812080000000002
ssg194
(dp6115
Vy
F-8.3146520000000006
sVx
F8.9740719999999996
sVz
F3.1404883899999998
ssg196
I00
sg197
(dp6116
g41
VALG RyaNoob
p6117
sg43
Nssg200
(lp6118
sg202
(lp6119
(dp6120
g41
VRNG Penguin HCS
p6121
sg43
Nsasg206
I00
sg35
VPT7M8.1264806S
p6122
sg32
VDeath
p6123
sg209
I1
sa(dp6124
g38
I313138863
sg32
VWeaponDrop
p6125
sg223
I0
sg44
(lp6126
I1095363701
asg35
VPT7M8.1349162S
p6127
sg226
I0
sg227
VP0DT0H0M1.0000S
p6128
sg39
(dp6129
g41
VALG RyaNoob
p6130
sg43
Nssa(dp6131
g38
I4096745987
sg32
VWeaponDrop
p6132
sg223
I2
sg44
(lp6133
I2758383128
asg35
VPT7M8.1349162S
p6134
sg226
I1
sg227
VP0DT0H0M10.7667S
p6135
sg39
(dp6136
g41
VALG RyaNoob
p6137
sg43
Nssa(dp6138
g179
I3190813201
sg180
I00
sg181
I00
sg182
(dp6139
g41
VRNG Ninja HCS
p6140
sg43
Nssg185
(lp6141
sg187
I00
sg188
I01
sg189
I1
sg190
I0
sg191
I1
sg192
(dp6142
Vy
F-8.8484010000000008
sVx
F9.2804450000000003
sVz
F3.1403884899999999
ssg194
(dp6143
Vy
F-7.9739120000000003
sVx
F10.764506300000001
sVz
F3.1403884899999999
ssg196
I00
sg197
(dp6144
g41
VALG Goofy HCS
p6145
sg43
Nssg200
(lp6146
sg202
(lp6147
(dp6148
g41
VRNG Commonly
p6149
sg43
Nsasg206
I00
sg35
VPT7M11.7895263S
p6150
sg32
VDeath
p6151
sg209
I1
sa(dp6152
g32
VMedal
p6153
sg39
(dp6154
g41
VRNG Ninja HCS
p6155
sg43
Nssg214
I1351381581
sg35
VPT7M11.7905275S
p6156
sa(dp6157
g32
VMedal
p6158
sg39
(dp6159
g41
VRNG Ninja HCS
p6160
sg43
Nssg214
I2078758684
sg35
VPT7M11.7915272S
p6161
sa(dp6162
g32
VMedal
p6163
sg39
(dp6164
g41
VRNG Ninja HCS
p6165
sg43
Nssg214
I2916014239
sg35
VPT7M11.7915272S
p6166
sa(dp6167
g38
I313138863
sg32
VWeaponDrop
p6168
sg223
I2
sg44
(lp6169
I1095363701
asg35
VPT7M11.7925263S
p6170
sg226
I1
sg227
VP0DT0H0M2.9000S
p6171
sg39
(dp6172
g41
VALG Goofy HCS
p6173
sg43
Nssa(dp6174
g38
I4096745987
sg32
VWeaponDrop
p6175
sg223
I0
sg44
(lp6176
I2758383128
asg35
VPT7M11.7925263S
p6177
sg226
I0
sg227
VP0DT0H0M6.0000S
p6178
sg39
(dp6179
g41
VALG Goofy HCS
p6180
sg43
Nssa(dp6181
g179
I4096745987
sg180
I00
sg181
I00
sg182
(dp6182
g41
VALG ContrA HCS
p6183
sg43
Nssg185
(lp6184
I2758383128
asg187
I00
sg188
I01
sg189
I1
sg190
I0
sg191
I1
sg192
(dp6185
Vy
F-6.4538549999999999
sVx
F21.921306600000001
sVz
F1.62058532
ssg194
(dp6186
Vy
F-9.4240674999999996
sVx
F14.031971
sVz
F4.1184269999999996
ssg196
I00
sg197
(dp6187
g41
VRNG Commonly
p6188
sg43
Nssg200
(lp6189
sg202
(lp6190
(dp6191
g41
VALGPredevonator
p6192
sg43
Nsasg206
I01
sg35
VPT7M13.756552S
p6193
sg32
VDeath
p6194
sg209
I1
sa(dp6195
g32
VMedal
p6196
sg39
(dp6197
g41
VALG ContrA HCS
p6198
sg43
Nssg214
I3261908037
sg35
VPT7M13.7585521S
p6199
sa(dp6200
g38
I723388907
sg32
VWeaponDrop
p6201
sg223
I20
sg44
(lp6202
I89283061
asg35
VPT7M13.7585521S
p6203
sg226
I5
sg227
VP0DT0H0M9.6500S
p6204
sg39
(dp6205
g41
VRNG Commonly
p6206
sg43
Nssa(dp6207
g38
I4096745987
sg32
VWeaponDrop
p6208
sg223
I7
sg44
(lp6209
I2758383128
asg35
VPT7M13.7585521S
p6210
sg226
I3
sg227
VP0DT0H0M18.1500S
p6211
sg39
(dp6212
g41
VRNG Commonly
p6213
sg43
Nssa(dp6214
g38
I313138863
sg39
(dp6215
g41
VRNG Penguin HCS
p6216
sg43
Nssg44
(lp6217
I1095363701
asg32
VWeaponPickup
p6218
sg35
VPT7M15.2385716S
p6219
sa(dp6220
g38
I4096745987
sg39
(dp6221
g41
VRNG Penguin HCS
p6222
sg43
Nssg44
(lp6223
I2758383128
asg32
VWeaponPickup
p6224
sg35
VPT7M15.2385716S
p6225
sa(dp6226
g32
VPlayerSpawn
p6227
sg39
(dp6228
g41
VRNG Penguin HCS
p6229
sg43
Nssg35
VPT7M15.2385716S
p6230
sa(dp6231
g38
I313138863
sg39
(dp6232
g41
VALG RyaNoob
p6233
sg43
Nssg44
(lp6234
I1095363701
asg32
VWeaponPickup
p6235
sg35
VPT7M16.1405829S
p6236
sa(dp6237
g38
I4096745987
sg39
(dp6238
g41
VALG RyaNoob
p6239
sg43
Nssg44
(lp6240
I2758383128
asg32
VWeaponPickup
p6241
sg35
VPT7M16.1415827S
p6242
sa(dp6243
g32
VPlayerSpawn
p6244
sg39
(dp6245
g41
VALG RyaNoob
p6246
sg43
Nssg35
VPT7M16.1415827S
p6247
sa(dp6248
g38
I313138863
sg39
(dp6249
g41
VALG Goofy HCS
p6250
sg43
Nssg44
(lp6251
I1095363701
asg32
VWeaponPickup
p6252
sg35
VPT7M19.8086306S
p6253
sa(dp6254
g38
I4096745987
sg39
(dp6255
g41
VALG Goofy HCS
p6256
sg43
Nssg44
(lp6257
I2758383128
asg32
VWeaponPickup
p6258
sg35
VPT7M19.8096292S
p6259
sa(dp6260
g32
VPlayerSpawn
p6261
sg39
(dp6262
g41
VALG Goofy HCS
p6263
sg43
Nssg35
VPT7M19.8096292S
p6264
sa(dp6265
g179
I4106030681
sg180
I00
sg181
I00
sg182
(dp6266
g41
VRNG Victory X
p6267
sg43
Nssg185
(lp6268
sg187
I00
sg188
I01
sg189
I1
sg190
I0
sg191
I1
sg192
(dp6269
Vy
F-7.5746589999999996
sVx
F18.803509999999999
sVz
F3.5555872900000001
ssg194
(dp6270
Vy
F-8.2250560000000004
sVx
F13.2502947
sVz
F3.1403884899999999
ssg196
I00
sg197
(dp6271
g41
VALG ContrA HCS
p6272
sg43
Nssg200
(lp6273
sg202
(lp6274
sg206
I00
sg35
VPT7M21.0086457S
p6275
sg32
VDeath
p6276
sg209
I1
sa(dp6277
g32
VMedal
p6278
sg39
(dp6279
g41
VRNG Victory X
p6280
sg43
Nssg214
I1351381581
sg35
VPT7M21.0096449S
p6281
sa(dp6282
g32
VMedal
p6283
sg39
(dp6284
g41
VRNG Victory X
p6285
sg43
Nssg214
I2430242797
sg35
VPT7M21.0096449S
p6286
sa(dp6287
g38
I313138863
sg32
VWeaponDrop
p6288
sg223
I0
sg44
(lp6289
I1095363701
asg35
VPT7M21.0106456S
p6290
sg226
I0
sg227
VP0DT0H0M0.4500S
p6291
sg39
(dp6292
g41
VALG ContrA HCS
p6293
sg43
Nssa(dp6294
g38
I4096745987
sg32
VWeaponDrop
p6295
sg223
I14
sg44
(lp6296
I2758383128
asg35
VPT7M21.0106456S
p6297
sg226
I9
sg227
VP0DT0H0M20.3333S
p6298
sg39
(dp6299
g41
VALG ContrA HCS
p6300
sg43
Nssa(dp6301
g38
I313138863
sg39
(dp6302
g41
VRNG Commonly
p6303
sg43
Nssg44
(lp6304
I1095363701
asg32
VWeaponPickup
p6305
sg35
VPT7M21.7766545S
p6306
sa(dp6307
g38
I4096745987
sg39
(dp6308
g41
VRNG Commonly
p6309
sg43
Nssg44
(lp6310
I2758383128
asg32
VWeaponPickup
p6311
sg35
VPT7M21.7776602S
p6312
sa(dp6313
g32
VPlayerSpawn
p6314
sg39
(dp6315
g41
VRNG Commonly
p6316
sg43
Nssg35
VPT7M21.7776602S
p6317
sa(dp6318
g32
VMedal
p6319
sg39
(dp6320
g41
VRNG Victory X
p6321
sg43
Nssg214
I2916014239
sg35
VPT7M22.8716691S
p6322
sa(dp6323
g179
I4096745987
sg180
I00
sg181
I00
sg182
(dp6324
g41
VALG RyaNoob
p6325
sg43
Nssg185
(lp6326
I2758383128
asg187
I00
sg188
I01
sg189
I1
sg190
I0
sg191
I1
sg192
(dp6327
Vy
F0.48548856400000001
sVx
F4.45279837
sVz
F4.8130765000000002
ssg194
(dp6328
Vy
F11.08503
sVx
F14.3159866
sVz
F1.85575438
ssg196
I00
sg197
(dp6329
g41
VRNG Penguin HCS
p6330
sg43
Nssg200
(lp6331
sg202
(lp6332
(dp6333
g41
VALG ContrA HCS
p6334
sg43
Nsasg206
I00
sg35
VPT7M24.8107043S
p6335
sg32
VDeath
p6336
sg209
I1
sa(dp6337
g38
I313138863
sg32
VWeaponDrop
p6338
sg223
I0
sg44
(lp6339
I1095363701
asg35
VPT7M24.8116936S
p6340
sg226
I0
sg227
VP0DT0H0M1.1667S
p6341
sg39
(dp6342
g41
VRNG Penguin HCS
p6343
sg43
Nssa(dp6344
g38
I4096745987
sg32
VWeaponDrop
p6345
sg223
I3
sg44
(lp6346
I2758383128
asg35
VPT7M24.8116936S
p6347
sg226
I0
sg227
VP0DT0H0M8.4000S
p6348
sg39
(dp6349
g41
VRNG Penguin HCS
p6350
sg43
Nssa(dp6351
g179
I4096745987
sg180
I00
sg181
I00
sg182
(dp6352
g41
VALGPredevonator
p6353
sg43
Nssg185
(lp6354
I2758383128
asg187
I00
sg188
I01
sg189
I1
sg190
I0
sg191
I1
sg192
(dp6355
Vy
F-17.489992099999998
sVx
F8.7804000000000002
sVz
F1.42576766
ssg194
(dp6356
Vy
F-14.254634899999999
sVx
F5.6576533299999996
sVz
F1.4993999
ssg196
I00
sg197
(dp6357
g41
VRNG Ninja HCS
p6358
sg43
Nssg200
(lp6359
sg202
(lp6360
sg206
I00
sg35
VPT7M25.0106968S
p6361
sg32
VDeath
p6362
sg209
I1
sa(dp6363
g38
I313138863
sg32
VWeaponDrop
p6364
sg223
I0
sg44
(lp6365
I1095363701
asg35
VPT7M25.0116964S
p6366
sg226
I0
sg227
VP0DT0H0M0.8667S
p6367
sg39
(dp6368
g41
VRNG Ninja HCS
p6369
sg43
Nssa(dp6370
g38
I4096745987
sg32
VWeaponDrop
p6371
sg223
I24
sg44
(lp6372
I2758383128
asg35
VPT7M25.0116964S
p6373
sg226
I6
sg227
VP0DT0H0M36.5500S
p6374
sg39
(dp6375
g41
VRNG Ninja HCS
p6376
sg43
Nssa(dp6377
g38
I4096745987
sg32
VWeaponDrop
p6378
sg223
I0
sg44
(lp6379
I2758383128
asg35
VPT7M25.0116964S
p6380
sg226
I0
sg227
VP0DT0S
p6381
sg39
(dp6382
g41
VRNG Ninja HCS
p6383
sg43
Nssa(dp6384
g179
I4096745987
sg180
I00
sg181
I00
sg182
(dp6385
g41
VALG Goofy HCS
p6386
sg43
Nssg185
(lp6387
I2758383128
asg187
I00
sg188
I01
sg189
I1
sg190
I0
sg191
I1
sg192
(dp6388
Vy
F-1.3988351800000001
sVx
F1.6650346499999999
sVz
F3.0914454500000002
ssg194
(dp6389
Vy
F-5.0797100000000004
sVx
F8.7626504900000004
sVz
F0.80309045300000004
ssg196
I00
sg197
(dp6390
g41
VRNG Victory X
p6391
sg43
Nssg200
(lp6392
sg202
(lp6393
sg206
I00
sg35
VPT7M27.0100642S
p6394
sg32
VDeath
p6395
sg209
I1
sa(dp6396
g38
I723388907
sg32
VWeaponDrop
p6397
sg223
I19
sg44
(lp6398
I89283061
asg35
VPT7M27.0117215S
p6399
sg226
I7
sg227
VP0DT0H0M9.0000S
p6400
sg39
(dp6401
g41
VRNG Victory X
p6402
sg43
Nssa(dp6403
g38
I4096745987
sg32
VWeaponDrop
p6404
sg223
I20
sg44
(lp6405
I2758383128
asg35
VPT7M27.0117215S
p6406
sg226
I13
sg227
VP0DT0H0M34.1167S
p6407
sg39
(dp6408
g41
VRNG Victory X
p6409
sg43
Nssa(dp6410
g38
I313138863
sg32
VWeaponDrop
p6411
sg223
I30
sg44
(lp6412
I1095363701
asg35
VPT7M28.3253643S
p6413
sg226
I11
sg227
VP0DT0H0M14.3833S
p6414
sg39
(dp6415
g41
VALGPredevonator
p6416
sg43
Nssa(dp6417
g38
I313138863
sg32
VWeaponDrop
p6418
sg223
I0
sg44
(lp6419
I1095363701
asg35
VPT7M28.3253643S
p6420
sg226
I0
sg227
VP0DT0S
p6421
sg39
(dp6422
g41
VALGPredevonator
p6423
sg43
Nssa(dp6424
g38
I723388907
sg39
(dp6425
g41
VALGPredevonator
p6426
sg43
Nssg44
(lp6427
I89283061
asg32
VWeaponPickup
p6428
sg35
VPT7M28.3253643S
p6429
sa(dp6430
g179
I4106030681
sg180
I00
sg181
I00
sg182
(dp6431
g41
VRNG Commonly
p6432
sg43
Nssg185
(lp6433
sg187
I00
sg188
I01
sg189
I1
sg190
I0
sg191
I1
sg192
(dp6434
Vy
F-8.3521040000000006
sVx
F12.779980699999999
sVz
F3.5690577000000001
ssg194
(dp6435
Vy
F0.126259282
sVx
F5.4471790000000002
sVz
F4.3579030000000003
ssg196
I00
sg197
(dp6436
g41
VALG RyaNoob
p6437
sg43
Nssg200
(lp6438
sg202
(lp6439
(dp6440
g41
VRNG Victory X
p6441
sg43
Nsasg206
I00
sg35
VPT7M28.9737479S
p6442
sg32
VDeath
p6443
sg209
I1
sa(dp6444
g32
VMedal
p6445
sg39
(dp6446
g41
VRNG Commonly
p6447
sg43
Nssg214
I1351381581
sg35
VPT7M28.9747471S
p6448
sa(dp6449
g38
I313138863
sg32
VWeaponDrop
p6450
sg223
I0
sg44
(lp6451
I1095363701
asg35
VPT7M28.9747471S
p6452
sg226
I0
sg227
VP0DT0H0M0.8500S
p6453
sg39
(dp6454
g41
VALG RyaNoob
p6455
sg43
Nssa(dp6456
g38
I4096745987
sg32
VWeaponDrop
p6457
sg223
I10
sg44
(lp6458
I2758383128
asg35
VPT7M28.9747471S
p6459
sg226
I9
sg227
VP0DT0H0M11.9833S
p6460
sg39
(dp6461
g41
VALG RyaNoob
p6462
sg43
Nssa(dp6463
g38
I313138863
sg39
(dp6464
g41
VALG ContrA HCS
p6465
sg43
Nssg44
(lp6466
I1095363701
asg32
VWeaponPickup
p6467
sg35
VPT7M29.0227482S
p6468
sa(dp6469
g38
I4096745987
sg39
(dp6470
g41
VALG ContrA HCS
p6471
sg43
Nssg44
(lp6472
I2758383128
asg32
VWeaponPickup
p6473
sg35
VPT7M29.0227482S
p6474
sa(dp6475
g32
VPlayerSpawn
p6476
sg39
(dp6477
g41
VALG ContrA HCS
p6478
sg43
Nssg35
VPT7M29.0227482S
p6479
sa(dp6480
g179
I4096745987
sg180
I00
sg181
I00
sg182
(dp6481
g41
VRNG Commonly
p6482
sg43
Nssg185
(lp6483
I2758383128
asg187
I00
sg188
I01
sg189
I1
sg190
I0
sg191
I1
sg192
(dp6484
Vy
F-7.6391077000000003
sVx
F16.457542400000001
sVz
F3.2781639999999999
ssg194
(dp6485
Vy
F-0.60167294699999996
sVx
F4.1406307199999999
sVz
F3.7001571700000002
ssg196
I00
sg197
(dp6486
g41
VALG Goofy HCS
p6487
sg43
Nssg200
(lp6488
sg202
(lp6489
(dp6490
g41
VRNG Victory X
p6491
sg43
Nsasg206
I01
sg35
VPT7M30.0877618S
p6492
sg32
VDeath
p6493
sg209
I1
sa(dp6494
g32
VMedal
p6495
sg39
(dp6496
g41
VRNG Commonly
p6497
sg43
Nssg214
I1351381581
sg35
VPT7M30.0951488S
p6498
sa(dp6499
g32
VMedal
p6500
sg39
(dp6501
g41
VRNG Commonly
p6502
sg43
Nssg214
I3261908037
sg35
VPT7M30.0951488S
p6503
sa(dp6504
g32
VMedal
p6505
sg39
(dp6506
g41
VRNG Commonly
p6507
sg43
Nssg214
I2078758684
sg35
VPT7M30.0951488S
p6508
sa(dp6509
g38
I313138863
sg32
VWeaponDrop
p6510
sg223
I0
sg44
(lp6511
I1095363701
asg35
VPT7M30.0957616S
p6512
sg226
I0
sg227
VP0DT0H0M1.7500S
p6513
sg39
(dp6514
g41
VALG Goofy HCS
p6515
sg43
Nssa(dp6516
g38
I4096745987
sg32
VWeaponDrop
p6517
sg223
I11
sg44
(lp6518
I2758383128
asg35
VPT7M30.0957616S
p6519
sg226
I8
sg227
VP0DT0H0M8.5333S
p6520
sg39
(dp6521
g41
VALG Goofy HCS
p6522
sg43
Nssa(dp6523
g179
I723388907
sg180
I00
sg181
I01
sg182
(dp6524
g41
VALGPredevonator
p6525
sg43
Nssg185
(lp6526
I89283061
asg187
I00
sg188
I00
sg189
I1
sg190
I0
sg191
I1
sg192
(dp6527
Vy
F-6.8777275099999997
sVx
F16.385801300000001
sVz
F1.56622112
ssg194
(dp6528
Vy
F-7.196936
sVx
F16.645954100000001
sVz
F1.6363465800000001
ssg196
I00
sg197
(dp6529
g41
VRNG Commonly
p6530
sg43
Nssg200
(lp6531
sg202
(lp6532
(dp6533
g41
VALG RyaNoob
p6534
sg43
Nsa(dp6535
g41
VALG Goofy HCS
p6536
sg43
Nsasg206
I00
sg35
VPT7M32.089786S
p6537
sg32
VDeath
p6538
sg209
I1
sa(dp6539
g32
VMedal
p6540
sg39
(dp6541
g41
VALGPredevonator
p6542
sg43
Nssg214
I2287626681
sg35
VPT7M32.0917868S
p6543
sa(dp6544
g38
I4096745987
sg32
VWeaponDrop
p6545
sg223
I7
sg44
(lp6546
I2758383128
asg35
VPT7M32.0917868S
p6547
sg226
I3
sg227
VP0DT0H0M9.6000S
p6548
sg39
(dp6549
g41
VRNG Commonly
p6550
sg43
Nssa(dp6551
g38
I4096745987
sg32
VWeaponDrop
p6552
sg223
I0
sg44
(lp6553
I2758383128
asg35
VPT7M32.0917868S
p6554
sg226
I0
sg227
VP0DT0S
p6555
sg39
(dp6556
g41
VRNG Commonly
p6557
sg43
Nssa(dp6558
g38
I313138863
sg32
VWeaponDrop
p6559
sg223
I0
sg44
(lp6560
I1095363701
asg35
VPT7M32.0927878S
p6561
sg226
I0
sg227
VP0DT0H0M0.7167S
p6562
sg39
(dp6563
g41
VRNG Commonly
p6564
sg43
Nssa(dp6565
g38
I313138863
sg39
(dp6566
g41
VRNG Penguin HCS
p6567
sg43
Nssg44
(lp6568
I1095363701
asg32
VWeaponPickup
p6569
sg35
VPT7M32.8257972S
p6570
sa(dp6571
g38
I4096745987
sg39
(dp6572
g41
VRNG Penguin HCS
p6573
sg43
Nssg44
(lp6574
I2758383128
asg32
VWeaponPickup
p6575
sg35
VPT7M32.8257972S
p6576
sa(dp6577
g32
VPlayerSpawn
p6578
sg39
(dp6579
g41
VRNG Penguin HCS
p6580
sg43
Nssg35
VPT7M32.8257972S
p6581
sa(dp6582
g38
I313138863
sg39
(dp6583
g41
VRNG Ninja HCS
p6584
sg43
Nssg44
(lp6585
I1095363701
asg32
VWeaponPickup
p6586
sg35
VPT7M33.0237998S
p6587
sa(dp6588
g38
I4096745987
sg39
(dp6589
g41
VRNG Ninja HCS
p6590
sg43
Nssg44
(lp6591
I2758383128
asg32
VWeaponPickup
p6592
sg35
VPT7M33.0247998S
p6593
sa(dp6594
g32
VPlayerSpawn
p6595
sg39
(dp6596
g41
VRNG Ninja HCS
p6597
sg43
Nssg35
VPT7M33.0247998S
p6598
sa(dp6599
g38
I313138863
sg39
(dp6600
g41
VRNG Victory X
p6601
sg43
Nssg44
(lp6602
I1095363701
asg32
VWeaponPickup
p6603
sg35
VPT7M35.0218256S
p6604
sa(dp6605
g38
I4096745987
sg39
(dp6606
g41
VRNG Victory X
p6607
sg43
Nssg44
(lp6608
I2758383128
asg32
VWeaponPickup
p6609
sg35
VPT7M35.0280743S
p6610
sa(dp6611
g32
VPlayerSpawn
p6612
sg39
(dp6613
g41
VRNG Victory X
p6614
sg43
Nssg35
VPT7M35.0280743S
p6615
sa(dp6616
g179
I4096745987
sg180
I00
sg181
I00
sg182
(dp6617
g41
VRNG Penguin HCS
p6618
sg43
Nssg185
(lp6619
I2758383128
asg187
I00
sg188
I01
sg189
I1
sg190
I0
sg191
I1
sg192
(dp6620
Vy
F-13.7232933
sVx
F2.507352
sVz
F2.7409706100000002
ssg194
(dp6621
Vy
F-9.4452420000000004
sVx
F10.913478899999999
sVz
F3.1403884899999999
ssg196
I00
sg197
(dp6622
g41
VALGPredevonator
p6623
sg43
Nssg200
(lp6624
sg202
(lp6625
(dp6626
g41
VRNG Commonly
p6627
sg43
Nsasg206
I01
sg35
VPT7M35.6088325S
p6628
sg32
VDeath
p6629
sg209
I1
sa(dp6630
g32
VMedal
p6631
sg39
(dp6632
g41
VRNG Penguin HCS
p6633
sg43
Nssg214
I1351381581
sg35
VPT7M35.609832S
p6634
sa(dp6635
g32
VMedal
p6636
sg39
(dp6637
g41
VRNG Penguin HCS
p6638
sg43
Nssg214
I3261908037
sg35
VPT7M35.6118305S
p6639
sa(dp6640
g38
I723388907
sg32
VWeaponDrop
p6641
sg223
I2
sg44
(lp6642
I89283061
asg35
VPT7M35.6186238S
p6643
sg226
I2
sg227
VP0DT0H0M5.2667S
p6644
sg39
(dp6645
g41
VALGPredevonator
p6646
sg43
Nssa(dp6647
g38
I723388907
sg32
VWeaponDrop
p6648
sg223
I0
sg44
(lp6649
I89283061
asg35
VPT7M35.6186238S
p6650
sg226
I0
sg227
VP0DT0S
p6651
sg39
(dp6652
g41
VALGPredevonator
p6653
sg43
Nssa(dp6654
g38
I4096745987
sg32
VWeaponDrop
p6655
sg223
I12
sg44
(lp6656
I2758383128
asg35
VPT7M35.6186238S
p6657
sg226
I7
sg227
VP0DT0H0M19.5333S
p6658
sg39
(dp6659
g41
VALGPredevonator
p6660
sg43
Nssa(dp6661
g38
I313138863
sg39
(dp6662
g41
VALG RyaNoob
p6663
sg43
Nssg44
(lp6664
I1095363701
asg32
VWeaponPickup
p6665
sg35
VPT7M36.9898593S
p6666
sa(dp6667
g38
I4096745987
sg39
(dp6668
g41
VALG RyaNoob
p6669
sg43
Nssg44
(lp6670
I2758383128
asg32
VWeaponPickup
p6671
sg35
VPT7M36.9898593S
p6672
sa(dp6673
g32
VPlayerSpawn
p6674
sg39
(dp6675
g41
VALG RyaNoob
p6676
sg43
Nssg35
VPT7M36.9898593S
p6677
sa(dp6678
g38
I313138863
sg32
VWeaponDrop
p6679
sg223
I0
sg44
(lp6680
I1095363701
asg35
VPT7M37.573559S
p6681
sg226
I0
sg227
VP0DT0H0M1.7000S
p6682
sg39
(dp6683
g41
VRNG Victory X
p6684
sg43
Nssa(dp6685
g38
I723388907
sg39
(dp6686
g41
VRNG Victory X
p6687
sg43
Nssg44
(lp6688
I89283061
asg32
VWeaponPickup
p6689
sg35
VPT7M37.5738576S
p6690
sa(dp6691
g38
I313138863
sg39
(dp6692
g41
VALG Goofy HCS
p6693
sg43
Nssg44
(lp6694
I1095363701
asg32
VWeaponPickup
p6695
sg35
VPT7M38.1048641S
p6696
sa(dp6697
g38
I4096745987
sg39
(dp6698
g41
VALG Goofy HCS
p6699
sg43
Nssg44
(lp6700
I2758383128
asg32
VWeaponPickup
p6701
sg35
VPT7M38.1048641S
p6702
sa(dp6703
g32
VPlayerSpawn
p6704
sg39
(dp6705
g41
VALG Goofy HCS
p6706
sg43
Nssg35
VPT7M38.1048641S
p6707
sa(dp6708
g32
VRoundEnd
p6709
sg34
I0
sg35
VPT7M38.1928654S
p6710
sassb.