ccopy_reg
_reconstructor
p1
(c__main__
match_breakdown
p2
c__builtin__
object
p3
NtRp4
(dp5
S'details'
p6
(dp7
VIsCompleteSetOfEvents
p8
I01
sVLinks
p9
(dp10
VUgcFilmManifest
p11
(dp12
VAuthenticationLifetimeExtensionSupported
p13
I00
sVQueryString
p14
V?view=film-manifest
p15
sVRetryPolicyId
p16
Vexponentialretry
p17
sVPath
p18
V/h5/films/bbac32ef-c1b7-4f53-8c02-944cc5760883
p19
sVAcknowledgementTypeId
p20
I0
sVAuthorityId
p21
Vugc
p22
sVTopicName
p23
V
ssVStatsMatchDetails
p24
(dp25
g13
I00
sg14
Nsg16
Vexponentialretry
p26
sg18
Vh5/custom/matches/bbac32ef-c1b7-4f53-8c02-944cc5760883
p27
sg20
I0
sg21
Vspartanstats
p28
sg23
V
sssVGameEvents
p29
(lp30
(dp31
VEventName
p32
VRoundStart
p33
sVRoundIndex
p34
I0
sVTimeSinceStart
p35
VPT0.0610231S
p36
sa(dp37
VWeaponStockId
p38
I313138863
sVPlayer
p39
(dp40
VGamertag
p41
VEG Snip3downHCS
p42
sVXuid
p43
NssVWeaponAttachmentIds
p44
(lp45
I1095363701
asg32
VWeaponPickup
p46
sg35
VPT18.0764835S
p47
sa(dp48
g38
I4096745987
sg39
(dp49
g41
VEG Snip3downHCS
p50
sg43
Nssg44
(lp51
I2758383128
asg32
VWeaponPickup
p52
sg35
VPT18.0764835S
p53
sa(dp54
g32
VPlayerSpawn
p55
sg39
(dp56
g41
VEG Snip3downHCS
p57
sg43
Nssg35
VPT18.0764835S
p58
sa(dp59
g38
I313138863
sg39
(dp60
g41
VRNG Commonly
p61
sg43
Nssg44
(lp62
I1095363701
asg32
VWeaponPickup
p63
sg35
VPT18.0924652S
p64
sa(dp65
g38
I4096745987
sg39
(dp66
g41
VRNG Commonly
p67
sg43
Nssg44
(lp68
I2758383128
asg32
VWeaponPickup
p69
sg35
VPT18.0934854S
p70
sa(dp71
g32
VPlayerSpawn
p72
sg39
(dp73
g41
VRNG Commonly
p74
sg43
Nssg35
VPT18.0934854S
p75
sa(dp76
g38
I313138863
sg39
(dp77
g41
VEG Roy HCS
p78
sg43
Nssg44
(lp79
I1095363701
asg32
VWeaponPickup
p80
sg35
VPT18.1094842S
p81
sa(dp82
g38
I4096745987
sg39
(dp83
g41
VEG Roy HCS
p84
sg43
Nssg44
(lp85
I2758383128
asg32
VWeaponPickup
p86
sg35
VPT18.1094842S
p87
sa(dp88
g32
VPlayerSpawn
p89
sg39
(dp90
g41
VEG Roy HCS
p91
sg43
Nssg35
VPT18.1094842S
p92
sa(dp93
g38
I313138863
sg39
(dp94
g41
VRNG Victory X
p95
sg43
Nssg44
(lp96
I1095363701
asg32
VWeaponPickup
p97
sg35
VPT18.1264846S
p98
sa(dp99
g38
I4096745987
sg39
(dp100
g41
VRNG Victory X
p101
sg43
Nssg44
(lp102
I2758383128
asg32
VWeaponPickup
p103
sg35
VPT18.1264846S
p104
sa(dp105
g32
VPlayerSpawn
p106
sg39
(dp107
g41
VRNG Victory X
p108
sg43
Nssg35
VPT18.1264846S
p109
sa(dp110
g38
I313138863
sg39
(dp111
g41
VRNG Ninja HCS
p112
sg43
Nssg44
(lp113
I1095363701
asg32
VWeaponPickup
p114
sg35
VPT18.1424667S
p115
sa(dp116
g38
I4096745987
sg39
(dp117
g41
VRNG Ninja HCS
p118
sg43
Nssg44
(lp119
I2758383128
asg32
VWeaponPickup
p120
sg35
VPT18.1424667S
p121
sa(dp122
g32
VPlayerSpawn
p123
sg39
(dp124
g41
VRNG Ninja HCS
p125
sg43
Nssg35
VPT18.1424667S
p126
sa(dp127
g38
I313138863
sg39
(dp128
g41
VRNG Penguin HCS
p129
sg43
Nssg44
(lp130
I1095363701
asg32
VWeaponPickup
p131
sg35
VPT18.1594869S
p132
sa(dp133
g38
I4096745987
sg39
(dp134
g41
VRNG Penguin HCS
p135
sg43
Nssg44
(lp136
I2758383128
asg32
VWeaponPickup
p137
sg35
VPT18.1594869S
p138
sa(dp139
g32
VPlayerSpawn
p140
sg39
(dp141
g41
VRNG Penguin HCS
p142
sg43
Nssg35
VPT18.1594869S
p143
sa(dp144
g38
I313138863
sg39
(dp145
g41
VEG Lunchbox HCS
p146
sg43
Nssg44
(lp147
I1095363701
asg32
VWeaponPickup
p148
sg35
VPT18.1764685S
p149
sa(dp150
g38
I4096745987
sg39
(dp151
g41
VEG Lunchbox HCS
p152
sg43
Nssg44
(lp153
I2758383128
asg32
VWeaponPickup
p154
sg35
VPT18.1764685S
p155
sa(dp156
g32
VPlayerSpawn
p157
sg39
(dp158
g41
VEG Lunchbox HCS
p159
sg43
Nssg35
VPT18.1764685S
p160
sa(dp161
g38
I313138863
sg39
(dp162
g41
VEG SuspectorHCS
p163
sg43
Nssg44
(lp164
I1095363701
asg32
VWeaponPickup
p165
sg35
VPT18.1924675S
p166
sa(dp167
g38
I4096745987
sg39
(dp168
g41
VEG SuspectorHCS
p169
sg43
Nssg44
(lp170
I2758383128
asg32
VWeaponPickup
p171
sg35
VPT18.193491S
p172
sa(dp173
g32
VPlayerSpawn
p174
sg39
(dp175
g41
VEG SuspectorHCS
p176
sg43
Nssg35
VPT18.193491S
p177
sa(dp178
VKillerWeaponStockId
p179
I3168248199
sVIsAssassination
p180
I00
sVIsMelee
p181
I00
sVKiller
p182
(dp183
g41
VRNG Ninja HCS
p184
sg43
NssVKillerWeaponAttachmentIds
p185
(lp186
sVIsGroundPound
p187
I00
sVIsWeapon
p188
I00
sVDeathDisposition
p189
I1
sVVictimStockId
p190
I0
sVVictimAgent
p191
I1
sVKillerWorldLocation
p192
(dp193
Vy
F-1.86856472
sVx
F16.1804123
sVz
F0.801028132
ssVVictimWorldLocation
p194
(dp195
Vy
F-1.94105828
sVx
F16.519279999999998
sVz
F0.80095899999999998
ssVIsShoulderBash
p196
I01
sVVictim
p197
(dp198
g41
VEG Snip3downHCS
p199
sg43
NssVVictimAttachmentIds
p200
(lp201
sVAssistants
p202
(lp203
(dp204
g41
VRNG Penguin HCS
p205
sg43
NsasVIsHeadshot
p206
I00
sg35
VPT26.0776897S
p207
sg32
VDeath
p208
sVKillerAgent
p209
I1
sa(dp210
g32
VImpulse
p211
sg39
(dp212
g41
VRNG Ninja HCS
p213
sg43
NssVImpulseId
p214
I2556889090
sg35
VPT26.0786926S
p215
sa(dp216
g32
VMedal
p217
sg39
(dp218
g41
VRNG Ninja HCS
p219
sg43
NssVMedalId
p220
I2838259753
sg35
VPT26.0796888S
p221
sa(dp222
g32
VMedal
p223
sg39
(dp224
g41
VRNG Ninja HCS
p225
sg43
Nssg220
I298813630
sg35
VPT26.0816942S
p226
sa(dp227
g32
VMedal
p228
sg39
(dp229
g41
VRNG Ninja HCS
p230
sg43
Nssg220
I3001183151
sg35
VPT26.0816942S
p231
sa(dp232
g38
I313138863
sg32
VWeaponDrop
p233
sVShotsFired
p234
I0
sg44
(lp235
I1095363701
asg35
VPT26.0859055S
p236
sVShotsLanded
p237
I0
sVTimeWeaponActiveAsPrimary
p238
VP0DT0H0M3.2000S
p239
sg39
(dp240
g41
VEG Snip3downHCS
p241
sg43
Nssa(dp242
g38
I4096745987
sg32
VWeaponDrop
p243
sg234
I0
sg44
(lp244
I2758383128
asg35
VPT26.086695S
p245
sg237
I0
sg238
VP0DT0H0M4.8000S
p246
sg39
(dp247
g41
VEG Snip3downHCS
p248
sg43
Nssa(dp249
g32
VMedal
p250
sg39
(dp251
g41
VEG Lunchbox HCS
p252
sg43
Nssg220
I3565443938
sg35
VPT27.1647187S
p253
sa(dp254
g32
VMedal
p255
sg39
(dp256
g41
VEG Roy HCS
p257
sg43
Nssg220
I1637841390
sg35
VPT27.166722S
p258
sa(dp259
g32
VMedal
p260
sg39
(dp261
g41
VEG Snip3downHCS
p262
sg43
Nssg220
I1637841390
sg35
VPT27.166722S
p263
sa(dp264
g32
VMedal
p265
sg39
(dp266
g41
VEG SuspectorHCS
p267
sg43
Nssg220
I1637841390
sg35
VPT27.166722S
p268
sa(dp269
g38
I313138863
sg32
VWeaponDrop
p270
sg234
I0
sg44
(lp271
I1095363701
asg35
VPT28.3077483S
p272
sg237
I0
sg238
VP0DT0H0M1.5167S
p273
sg39
(dp274
g41
VRNG Commonly
p275
sg43
Nssa(dp276
g38
I524558978
sg39
(dp277
g41
VRNG Commonly
p278
sg43
Nssg44
(lp279
I2758383128
asg32
VWeaponPickup
p280
sg35
VPT28.3077483S
p281
sa(dp282
g179
I4096745987
sg180
I00
sg181
I00
sg182
(dp283
g41
VRNG Commonly
p284
sg43
Nssg185
(lp285
I2758383128
asg187
I00
sg188
I01
sg189
I1
sg190
I0
sg191
I1
sg192
(dp286
Vy
F3.61863256
sVx
F7.4335630000000004
sVz
F0.28200059999999999
ssg194
(dp287
Vy
F6.1431727399999998
sVx
F13.336648
sVz
F-9.5665454900000003e-06
ssg196
I00
sg197
(dp288
g41
VEG SuspectorHCS
p289
sg43
Nssg200
(lp290
sg202
(lp291
(dp292
g41
VRNG Ninja HCS
p293
sg43
Nsasg206
I01
sg35
VPT33.7918667S
p294
sg32
VDeath
p295
sg209
I1
sa(dp296
g32
VImpulse
p297
sg39
(dp298
g41
VRNG Commonly
p299
sg43
Nssg214
I2556889090
sg35
VPT33.7928875S
p300
sa(dp301
g32
VMedal
p302
sg39
(dp303
g41
VRNG Commonly
p304
sg43
Nssg220
I2838259753
sg35
VPT33.7928875S
p305
sa(dp306
g32
VMedal
p307
sg39
(dp308
g41
VRNG Commonly
p309
sg43
Nssg220
I2494364276
sg35
VPT33.7938878S
p310
sa(dp311
g32
VMedal
p312
sg39
(dp313
g41
VRNG Commonly
p314
sg43
Nssg220
I3261908037
sg35
VPT33.7948872S
p315
sa(dp316
g38
I313138863
sg32
VWeaponDrop
p317
sg234
I0
sg44
(lp318
I1095363701
asg35
VPT33.7948872S
p319
sg237
I0
sg238
VP0DT0H0M2.2333S
p320
sg39
(dp321
g41
VEG SuspectorHCS
p322
sg43
Nssa(dp323
g38
I4096745987
sg32
VWeaponDrop
p324
sg234
I6
sg44
(lp325
I2758383128
asg35
VPT33.7948872S
p326
sg237
I2
sg238
VP0DT0H0M13.3667S
p327
sg39
(dp328
g41
VEG SuspectorHCS
p329
sg43
Nssa(dp330
g38
I313138863
sg39
(dp331
g41
VEG Snip3downHCS
p332
sg43
Nssg44
(lp333
I1095363701
asg32
VWeaponPickup
p334
sg35
VPT34.0928992S
p335
sa(dp336
g38
I4096745987
sg39
(dp337
g41
VEG Snip3downHCS
p338
sg43
Nssg44
(lp339
I2758383128
asg32
VWeaponPickup
p340
sg35
VPT34.0928992S
p341
sa(dp342
g32
VPlayerSpawn
p343
sg39
(dp344
g41
VEG Snip3downHCS
p345
sg43
Nssg35
VPT34.0928992S
p346
sa(dp347
g179
I4096745987
sg180
I00
sg181
I00
sg182
(dp348
g41
VEG Roy HCS
p349
sg43
Nssg185
(lp350
I2758383128
asg187
I00
sg188
I01
sg189
I1
sg190
I0
sg191
I1
sg192
(dp351
Vy
F12.8812637
sVx
F16.435583099999999
sVz
F1.47656035
ssg194
(dp352
Vy
F5.8768672899999999
sVx
F15.552413
sVz
F2.4651575100000001
ssg196
I00
sg197
(dp353
g41
VRNG Ninja HCS
p354
sg43
Nssg200
(lp355
sg202
(lp356
(dp357
g41
VEG SuspectorHCS
p358
sg43
Nsasg206
I01
sg35
VPT34.1758756S
p359
sg32
VDeath
p360
sg209
I1
sa(dp361
g32
VMedal
p362
sg39
(dp363
g41
VEG Roy HCS
p364
sg43
Nssg220
I3261908037
sg35
VPT34.1768786S
p365
sa(dp366
g38
I313138863
sg32
VWeaponDrop
p367
sg234
I25
sg44
(lp368
I1095363701
asg35
VPT34.1778976S
p369
sg237
I10
sg238
VP0DT0H0M7.8000S
p370
sg39
(dp371
g41
VRNG Ninja HCS
p372
sg43
Nssa(dp373
g38
I4096745987
sg32
VWeaponDrop
p374
sg234
I6
sg44
(lp375
I2758383128
asg35
VPT34.1778976S
p376
sg237
I0
sg238
VP0DT0H0M8.2333S
p377
sg39
(dp378
g41
VRNG Ninja HCS
p379
sg43
Nssa(dp380
g38
I4096745987
sg32
VWeaponDrop
p381
sg234
I0
sg44
(lp382
I2758383128
asg35
VPT36.1409289S
p383
sg237
I0
sg238
VP0DT0H0M1.7000S
p384
sg39
(dp385
g41
VEG Snip3downHCS
p386
sg43
Nssa(dp387
g38
I523953283
sg39
(dp388
g41
VEG Snip3downHCS
p389
sg43
Nssg44
(lp390
I2208825748
asg32
VWeaponPickup
p391
sg35
VPT36.1409289S
p392
sa(dp393
g38
I2492868984
sg39
(dp394
g41
VRNG Penguin HCS
p395
sg43
Nssg44
(lp396
I2758383128
asg32
VWeaponPickup
p397
sg35
VPT36.191928S
p398
sa(dp399
g179
I313138863
sg180
I00
sg181
I00
sg182
(dp400
g41
VRNG Victory X
p401
sg43
Nssg185
(lp402
I1095363701
asg187
I00
sg188
I01
sg189
I1
sg190
I0
sg191
I1
sg192
(dp403
Vy
F-1.4562357699999999
sVx
F8.1664270000000005
sVz
F-0.490618
ssg194
(dp404
Vy
F-0.065127019999999994
sVx
F5.6837780000000002
sVz
F0.95260983700000001
ssg196
I00
sg197
(dp405
g41
VEG Lunchbox HCS
p406
sg43
Nssg200
(lp407
sg202
(lp408
(dp409
g41
VRNG Commonly
p410
sg43
Nsasg206
I00
sg35
VPT36.3749555S
p411
sg32
VDeath
p412
sg209
I1
sa(dp413
g38
I313138863
sg32
VWeaponDrop
p414
sg234
I18
sg44
(lp415
I1095363701
asg35
VPT36.3789559S
p416
sg237
I12
sg238
VP0DT0H0M6.3000S
p417
sg39
(dp418
g41
VEG Lunchbox HCS
p419
sg43
Nssa(dp420
g38
I4096745987
sg32
VWeaponDrop
p421
sg234
I3
sg44
(lp422
I2758383128
asg35
VPT36.3789559S
p423
sg237
I0
sg238
VP0DT0H0M11.9000S
p424
sg39
(dp425
g41
VEG Lunchbox HCS
p426
sg43
Nssa(dp427
g38
I2492868984
sg32
VWeaponDrop
p428
sg234
I0
sg44
(lp429
I2758383128
asg35
VPT37.3429568S
p430
sg237
I0
sg238
VP0DT0H0M0.9833S
p431
sg39
(dp432
g41
VRNG Penguin HCS
p433
sg43
Nssa(dp434
g32
VMedal
p435
sg39
(dp436
g41
VRNG Commonly
p437
sg43
Nssg220
I3565443938
sg35
VPT38.491024S
p438
sa(dp439
g32
VMedal
p440
sg39
(dp441
g41
VRNG Victory X
p442
sg43
Nssg220
I3565443938
sg35
VPT38.491024S
p443
sa(dp444
g32
VMedal
p445
sg39
(dp446
g41
VRNG Victory X
p447
sg43
Nssg220
I3400287617
sg35
VPT39.6080158S
p448
sa(dp449
g179
I523953283
sg180
I00
sg181
I00
sg182
(dp450
g41
VEG Snip3downHCS
p451
sg43
Nssg185
(lp452
I2208825748
asg187
I00
sg188
I01
sg189
I1
sg190
I0
sg191
I1
sg192
(dp453
Vy
F-4.2242220000000001
sVx
F1.7869617900000001
sVz
F3.784895e-06
ssg194
(dp454
Vy
F1.0959322499999999
sVx
F1.81466281
sVz
F3.8146972699999997e-06
ssg196
I00
sg197
(dp455
g41
VRNG Commonly
p456
sg43
Nssg200
(lp457
sg202
(lp458
sg206
I01
sg35
VPT39.8090205S
p459
sg32
VDeath
p460
sg209
I1
sa(dp461
g32
VMedal
p462
sg39
(dp463
g41
VEG Snip3downHCS
p464
sg43
Nssg220
I3261908037
sg35
VPT39.8110414S
p465
sa(dp466
g38
I524558978
sg32
VWeaponDrop
p467
sg234
I4
sg44
(lp468
I2758383128
asg35
VPT39.8110414S
p469
sg237
I2
sg238
VP0DT0H0M2.4833S
p470
sg39
(dp471
g41
VRNG Commonly
p472
sg43
Nssa(dp473
g38
I4096745987
sg32
VWeaponDrop
p474
sg234
I15
sg44
(lp475
I2758383128
asg35
VPT39.8110414S
p476
sg237
I5
sg238
VP0DT0H0M17.7167S
p477
sg39
(dp478
g41
VRNG Commonly
p479
sg43
Nssa(dp480
g38
I313138863
sg39
(dp481
g41
VEG SuspectorHCS
p482
sg43
Nssg44
(lp483
I1095363701
asg32
VWeaponPickup
p484
sg35
VPT41.8091047S
p485
sa(dp486
g38
I4096745987
sg39
(dp487
g41
VEG SuspectorHCS
p488
sg43
Nssg44
(lp489
I2758383128
asg32
VWeaponPickup
p490
sg35
VPT41.8101023S
p491
sa(dp492
g32
VPlayerSpawn
p493
sg39
(dp494
g41
VEG SuspectorHCS
p495
sg43
Nssg35
VPT41.8101023S
p496
sa(dp497
g38
I313138863
sg39
(dp498
g41
VRNG Ninja HCS
p499
sg43
Nssg44
(lp500
I1095363701
asg32
VWeaponPickup
p501
sg35
VPT42.1941061S
p502
sa(dp503
g38
I4096745987
sg39
(dp504
g41
VRNG Ninja HCS
p505
sg43
Nssg44
(lp506
I2758383128
asg32
VWeaponPickup
p507
sg35
VPT42.1941061S
p508
sa(dp509
g32
VPlayerSpawn
p510
sg39
(dp511
g41
VRNG Ninja HCS
p512
sg43
Nssg35
VPT42.1941061S
p513
sa(dp514
g179
I4106030681
sg180
I00
sg181
I00
sg182
(dp515
g41
VEG Snip3downHCS
p516
sg43
Nssg185
(lp517
sg187
I00
sg188
I00
sg189
I2
sg190
I0
sg191
I0
sg192
(dp518
Vy
F-0.32807170000000002
sVx
F-4.0928209999999998
sVz
F1.46928656
ssg194
(dp519
Vy
F-1.6206050000000001
sVx
F-0.49883365600000001
sVz
F0.42066577100000002
ssg196
I00
sg197
(dp520
S'Gamertag'
p521
S'None'
p522
ssg200
(lp523
sg202
(lp524
sg206
I00
sg35
VPT43.1601257S
p525
sg32
VDeath
p526
sg209
I1
sa(dp527
g38
I313138863
sg39
(dp528
g41
VEG Lunchbox HCS
p529
sg43
Nssg44
(lp530
I1095363701
asg32
VWeaponPickup
p531
sg35
VPT44.3923564S
p532
sa(dp533
g38
I4096745987
sg39
(dp534
g41
VEG Lunchbox HCS
p535
sg43
Nssg44
(lp536
I2758383128
asg32
VWeaponPickup
p537
sg35
VPT44.3931663S
p538
sa(dp539
g32
VPlayerSpawn
p540
sg39
(dp541
g41
VEG Lunchbox HCS
p542
sg43
Nssg35
VPT44.3931663S
p543
sa(dp544
g38
I313138863
sg32
VWeaponDrop
p545
sg234
I0
sg44
(lp546
I1095363701
asg35
VPT44.9571598S
p547
sg237
I0
sg238
VP0DT0H0M0.5000S
p548
sg39
(dp549
g41
VEG Snip3downHCS
p550
sg43
Nssa(dp551
g38
I2278207101
sg39
(dp552
g41
VEG Snip3downHCS
p553
sg43
Nssg44
(lp554
I2758383128
asg32
VWeaponPickupPad
p555
sg35
VPT44.9581542S
p556
sa(dp557
g38
I2278207101
sg39
(dp558
g41
VEG Snip3downHCS
p559
sg43
Nssg44
(lp560
I2758383128
asg32
VWeaponPickup
p561
sg35
VPT44.9601548S
p562
sa(dp563
g179
I4096745987
sg180
I00
sg181
I00
sg182
(dp564
g41
VRNG Ninja HCS
p565
sg43
Nssg185
(lp566
I2758383128
asg187
I00
sg188
I00
sg189
I2
sg190
I0
sg191
I0
sg192
(dp567
Vy
F-13.994083399999999
sVx
F5.3321456899999999
sVz
F0.79999864099999995
ssg194
(dp568
Vy
F-11.903014199999999
sVx
F8.0794619999999995
sVz
F0.80094140000000003
ssg196
I00
sg197
(dp569
g521
g522
ssg200
(lp570
sg202
(lp571
sg206
I00
sg35
VPT45.425165S
p572
sg32
VDeath
p573
sg209
I1
sa(dp574
g179
I2278207101
sg180
I00
sg181
I00
sg182
(dp575
g41
VEG Snip3downHCS
p576
sg43
Nssg185
(lp577
I2758383128
asg187
I00
sg188
I01
sg189
I1
sg190
I0
sg191
I1
sg192
(dp578
Vy
F1.4651173399999999
sVx
F-7.4643629999999996
sVz
F2.1921789999999999
ssg194
(dp579
Vy
F-0.13590770999999999
sVx
F-5.9862656599999999
sVz
F1.8146173999999999
ssg196
I00
sg197
(dp580
g41
VRNG Victory X
p581
sg43
Nssg200
(lp582
sg202
(lp583
sg206
I00
sg35
VPT46.1771834S
p584
sg32
VDeath
p585
sg209
I1
sa(dp586
g38
I313138863
sg32
VWeaponDrop
p587
sg234
I32
sg44
(lp588
I1095363701
asg35
VPT46.1802074S
p589
sg237
I15
sg238
VP0DT0H0M11.7333S
p590
sg39
(dp591
g41
VRNG Victory X
p592
sg43
Nssa(dp593
g38
I4096745987
sg32
VWeaponDrop
p594
sg234
I2
sg44
(lp595
I2758383128
asg35
VPT46.1802074S
p596
sg237
I0
sg238
VP0DT0H0M16.3167S
p597
sg39
(dp598
g41
VRNG Victory X
p599
sg43
Nssa(dp600
g38
I313138863
sg39
(dp601
g41
VRNG Commonly
p602
sg43
Nssg44
(lp603
I1095363701
asg32
VWeaponPickup
p604
sg35
VPT47.8252264S
p605
sa(dp606
g38
I4096745987
sg39
(dp607
g41
VRNG Commonly
p608
sg43
Nssg44
(lp609
I2758383128
asg32
VWeaponPickup
p610
sg35
VPT47.8262518S
p611
sa(dp612
g32
VPlayerSpawn
p613
sg39
(dp614
g41
VRNG Commonly
p615
sg43
Nssg35
VPT47.8262518S
p616
sa(dp617
g32
VMedal
p618
sg39
(dp619
g41
VRNG Ninja HCS
p620
sg43
Nssg220
I3565443938
sg35
VPT49.6572954S
p621
sa(dp622
g32
VMedal
p623
sg39
(dp624
g41
VRNG Penguin HCS
p625
sg43
Nssg220
I1637841390
sg35
VPT49.6582972S
p626
sa(dp627
g32
VMedal
p628
sg39
(dp629
g41
VRNG Commonly
p630
sg43
Nssg220
I1637841390
sg35
VPT49.6582972S
p631
sa(dp632
g179
I4096745987
sg180
I00
sg181
I00
sg182
(dp633
g41
VRNG Ninja HCS
p634
sg43
Nssg185
(lp635
I2758383128
asg187
I00
sg188
I01
sg189
I1
sg190
I0
sg191
I1
sg192
(dp636
Vy
F-12.6960049
sVx
F6.0437390000000004
sVz
F0.79999864099999995
ssg194
(dp637
Vy
F-2.7382719999999998
sVx
F-1.1816961800000001
sVz
F3.0913376800000001
ssg196
I00
sg197
(dp638
g41
VEG Snip3downHCS
p639
sg43
Nssg200
(lp640
sg202
(lp641
(dp642
g41
VRNG Penguin HCS
p643
sg43
Nsasg206
I01
sg35
VPT50.2752881S
p644
sg32
VDeath
p645
sg209
I1
sa(dp646
g32
VMedal
p647
sg39
(dp648
g41
VRNG Ninja HCS
p649
sg43
Nssg220
I3261908037
sg35
VPT50.27631S
p650
sa(dp651
g38
I2278207101
sg32
VWeaponDrop
p652
sg234
I18
sg44
(lp653
I2758383128
asg35
VPT50.2773131S
p654
sg237
I7
sg238
VP0DT0H0M5.3167S
p655
sg39
(dp656
g41
VEG Snip3downHCS
p657
sg43
Nssa(dp658
g38
I523953283
sg32
VWeaponDrop
p659
sg234
I10
sg44
(lp660
I2208825748
asg35
VPT50.2773131S
p661
sg237
I6
sg238
VP0DT0H0M8.6667S
p662
sg39
(dp663
g41
VEG Snip3downHCS
p664
sg43
Nssa(dp665
g38
I313138863
sg32
VWeaponDrop
p666
sg234
I22
sg44
(lp667
I1095363701
asg35
VPT52.9903954S
p668
sg237
I5
sg238
VP0DT0H0M24.0833S
p669
sg39
(dp670
g41
VRNG Penguin HCS
p671
sg43
Nssa(dp672
g38
I313138863
sg32
VWeaponDrop
p673
sg234
I0
sg44
(lp674
I1095363701
asg35
VPT52.9903954S
p675
sg237
I0
sg238
VP0DT0S
p676
sg39
(dp677
g41
VRNG Penguin HCS
p678
sg43
Nssa(dp679
g38
I2278207101
sg39
(dp680
g41
VRNG Penguin HCS
p681
sg43
Nssg44
(lp682
I2758383128
asg32
VWeaponPickup
p683
sg35
VPT52.9913833S
p684
sa(dp685
g38
I313138863
sg39
(dp686
g41
VRNG Victory X
p687
sg43
Nssg44
(lp688
I1095363701
asg32
VWeaponPickup
p689
sg35
VPT54.1924084S
p690
sa(dp691
g38
I4096745987
sg39
(dp692
g41
VRNG Victory X
p693
sg43
Nssg44
(lp694
I2758383128
asg32
VWeaponPickup
p695
sg35
VPT54.1924084S
p696
sa(dp697
g32
VPlayerSpawn
p698
sg39
(dp699
g41
VRNG Victory X
p700
sg43
Nssg35
VPT54.1924084S
p701
sa(dp702
g179
I4096745987
sg180
I00
sg181
I00
sg182
(dp703
g41
VRNG Penguin HCS
p704
sg43
Nssg185
(lp705
I2758383128
asg187
I00
sg188
I01
sg189
I1
sg190
I0
sg191
I1
sg192
(dp706
Vy
F-4.6829295200000001
sVx
F2.2926350000000002
sVz
F3.13673782
ssg194
(dp707
Vy
F-8.4436990000000005
sVx
F14.1833706
sVz
F1.5993270900000001
ssg196
I00
sg197
(dp708
g41
VEG Roy HCS
p709
sg43
Nssg200
(lp710
sg202
(lp711
(dp712
g41
VRNG Ninja HCS
p713
sg43
Nsasg206
I01
sg35
VPT54.4414159S
p714
sg32
VDeath
p715
sg209
I1
sa(dp716
g32
VMedal
p717
sg39
(dp718
g41
VRNG Penguin HCS
p719
sg43
Nssg220
I3261908037
sg35
VPT54.4434322S
p720
sa(dp721
g38
I313138863
sg32
VWeaponDrop
p722
sg234
I0
sg44
(lp723
I1095363701
asg35
VPT54.4434322S
p724
sg237
I0
sg238
VP0DT0H0M14.1000S
p725
sg39
(dp726
g41
VEG Roy HCS
p727
sg43
Nssa(dp728
g38
I4096745987
sg32
VWeaponDrop
p729
sg234
I18
sg44
(lp730
I2758383128
asg35
VPT54.4434322S
p731
sg237
I8
sg238
VP0DT0H0M22.2333S
p732
sg39
(dp733
g41
VEG Roy HCS
p734
sg43
Nssa(dp735
g38
I313138863
sg39
(dp736
g41
VEG Snip3downHCS
p737
sg43
Nssg44
(lp738
I1095363701
asg32
VWeaponPickup
p739
sg35
VPT58.2954961S
p740
sa(dp741
g38
I4096745987
sg39
(dp742
g41
VEG Snip3downHCS
p743
sg43
Nssg44
(lp744
I2758383128
asg32
VWeaponPickup
p745
sg35
VPT58.2954961S
p746
sa(dp747
g32
VPlayerSpawn
p748
sg39
(dp749
g41
VEG Snip3downHCS
p750
sg43
Nssg35
VPT58.2954961S
p751
sa(dp752
g179
I313138863
sg180
I00
sg181
I00
sg182
(dp753
g41
VEG SuspectorHCS
p754
sg43
Nssg185
(lp755
I1095363701
asg187
I00
sg188
I01
sg189
I1
sg190
I0
sg191
I1
sg192
(dp756
Vy
F-3.2614736600000001
sVx
F15.58351
sVz
F0.79999876000000003
ssg194
(dp757
Vy
F-3.9233915800000001
sVx
F12.8931036
sVz
F3.2290005700000002
ssg196
I00
sg197
(dp758
g41
VRNG Penguin HCS
p759
sg43
Nssg200
(lp760
sg202
(lp761
sg206
I00
sg35
VPT1M2.2585947S
p762
sg32
VDeath
p763
sg209
I1
sa(dp764
g32
VMedal
p765
sg39
(dp766
g41
VEG SuspectorHCS
p767
sg43
Nssg220
I2782465081
sg35
VPT1M2.2596189S
p768
sa(dp769
g38
I2278207101
sg32
VWeaponDrop
p770
sg234
I20
sg44
(lp771
I2758383128
asg35
VPT1M2.2606159S
p772
sg237
I10
sg238
VP0DT0H0M5.7500S
p773
sg39
(dp774
g41
VRNG Penguin HCS
p775
sg43
Nssa(dp776
g38
I4096745987
sg32
VWeaponDrop
p777
sg234
I5
sg44
(lp778
I2758383128
asg35
VPT1M2.2606159S
p779
sg237
I2
sg238
VP0DT0H0M13.2667S
p780
sg39
(dp781
g41
VRNG Penguin HCS
p782
sg43
Nssa(dp783
g179
I2278207101
sg180
I00
sg181
I00
sg182
(dp784
g41
VRNG Penguin HCS
p785
sg43
Nssg185
(lp786
I2758383128
asg187
I00
sg188
I01
sg189
I1
sg190
I0
sg191
I1
sg192
(dp787
Vy
F-3.9233915800000001
sVx
F12.8931036
sVz
F3.2290005700000002
ssg194
(dp788
Vy
F-3.2614736600000001
sVx
F15.58351
sVz
F0.79999876000000003
ssg196
I00
sg197
(dp789
g41
VEG SuspectorHCS
p790
sg43
Nssg200
(lp791
sg202
(lp792
sg206
I00
sg35
VPT1M2.2755966S
p793
sg32
VDeath
p794
sg209
I1
sa(dp795
g38
I313138863
sg32
VWeaponDrop
p796
sg234
I15
sg44
(lp797
I1095363701
asg35
VPT1M2.2766039S
p798
sg237
I5
sg238
VP0DT0H0M7.6000S
p799
sg39
(dp800
g41
VEG SuspectorHCS
p801
sg43
Nssa(dp802
g38
I4096745987
sg32
VWeaponDrop
p803
sg234
I5
sg44
(lp804
I2758383128
asg35
VPT1M2.2766039S
p805
sg237
I4
sg238
VP0DT0H0M12.8667S
p806
sg39
(dp807
g41
VEG SuspectorHCS
p808
sg43
Nssa(dp809
g179
I4096745987
sg180
I00
sg181
I00
sg182
(dp810
g41
VRNG Ninja HCS
p811
sg43
Nssg185
(lp812
I2758383128
asg187
I00
sg188
I01
sg189
I1
sg190
I0
sg191
I1
sg192
(dp813
Vy
F-10.985574700000001
sVx
F10.1489277
sVz
F2.2055378000000001
ssg194
(dp814
Vy
F-8.7421299999999995
sVx
F12.0448837
sVz
F1.2155855900000001
ssg196
I00
sg197
(dp815
g41
VEG Lunchbox HCS
p816
sg43
Nssg200
(lp817
sg202
(lp818
(dp819
g41
VRNG Commonly
p820
sg43
Nsasg206
I01
sg35
VPT1M2.3585973S
p821
sg32
VDeath
p822
sg209
I1
sa(dp823
g32
VMedal
p824
sg39
(dp825
g41
VRNG Ninja HCS
p826
sg43
Nssg220
I3261908037
sg35
VPT1M2.3605999S
p827
sa(dp828
g38
I313138863
sg32
VWeaponDrop
p829
sg234
I0
sg44
(lp830
I1095363701
asg35
VPT1M2.3605999S
p831
sg237
I0
sg238
VP0DT0H0M0.9000S
p832
sg39
(dp833
g41
VEG Lunchbox HCS
p834
sg43
Nssa(dp835
g38
I4096745987
sg32
VWeaponDrop
p836
sg234
I3
sg44
(lp837
I2758383128
asg35
VPT1M2.3605999S
p838
sg237
I2
sg238
VP0DT0H0M17.0667S
p839
sg39
(dp840
g41
VEG Lunchbox HCS
p841
sg43
Nssa(dp842
g38
I313138863
sg39
(dp843
g41
VEG Roy HCS
p844
sg43
Nssg44
(lp845
I1095363701
asg32
VWeaponPickup
p846
sg35
VPT1M2.4587286S
p847
sa(dp848
g38
I4096745987
sg39
(dp849
g41
VEG Roy HCS
p850
sg43
Nssg44
(lp851
I2758383128
asg32
VWeaponPickup
p852
sg35
VPT1M2.4596246S
p853
sa(dp854
g32
VPlayerSpawn
p855
sg39
(dp856
g41
VEG Roy HCS
p857
sg43
Nssg35
VPT1M2.4596246S
p858
sa(dp859
g179
I4096745987
sg180
I00
sg181
I00
sg182
(dp860
g41
VRNG Victory X
p861
sg43
Nssg185
(lp862
I2758383128
asg187
I00
sg188
I00
sg189
I2
sg190
I0
sg191
I0
sg192
(dp863
Vy
F15.1745892
sVx
F6.9927270000000004
sVz
F0.79999876000000003
ssg194
(dp864
Vy
F11.9090185
sVx
F8.0754049999999999
sVz
F0.80152303000000003
ssg196
I00
sg197
(dp865
g521
g522
ssg200
(lp866
sg202
(lp867
sg206
I00
sg35
VPT1M2.7416067S
p868
sg32
VDeath
p869
sg209
I1
sa(dp870
g179
I4096745987
sg180
I00
sg181
I00
sg182
(dp871
g41
VEG Roy HCS
p872
sg43
Nssg185
(lp873
I2758383128
asg187
I00
sg188
I01
sg189
I1
sg190
I0
sg191
I1
sg192
(dp874
Vy
F-4.7763466799999996
sVx
F0.73100569999999998
sVz
F3.2380292399999999
ssg194
(dp875
Vy
F-8.0737179999999995
sVx
F13.612217899999999
sVz
F2.696107
ssg196
I00
sg197
(dp876
g41
VRNG Ninja HCS
p877
sg43
Nssg200
(lp878
sg202
(lp879
(dp880
g41
VEG SuspectorHCS
p881
sg43
Nsa(dp882
g41
VEG Lunchbox HCS
p883
sg43
Nsasg206
I01
sg35
VPT1M7.5077548S
p884
sg32
VDeath
p885
sg209
I1
sa(dp886
g32
VMedal
p887
sg39
(dp888
g41
VEG Roy HCS
p889
sg43
Nssg220
I3261908037
sg35
VPT1M7.5097543S
p890
sa(dp891
g38
I313138863
sg32
VWeaponDrop
p892
sg234
I0
sg44
(lp893
I1095363701
asg35
VPT1M7.5107491S
p894
sg237
I0
sg238
VP0DT0H0M2.2667S
p895
sg39
(dp896
g41
VRNG Ninja HCS
p897
sg43
Nssa(dp898
g38
I4096745987
sg32
VWeaponDrop
p899
sg234
I15
sg44
(lp900
I2758383128
asg35
VPT1M7.5107491S
p901
sg237
I6
sg238
VP0DT0H0M23.0500S
p902
sg39
(dp903
g41
VRNG Ninja HCS
p904
sg43
Nssa(dp905
g179
I4096745987
sg180
I00
sg181
I00
sg182
(dp906
g41
VRNG Commonly
p907
sg43
Nssg185
(lp908
I2758383128
asg187
I00
sg188
I01
sg189
I1
sg190
I0
sg191
I1
sg192
(dp909
Vy
F4.4320664399999998
sVx
F19.2830944
sVz
F1.5537098600000001
ssg194
(dp910
Vy
F0.71182686100000003
sVx
F17.8307419
sVz
F1.4120916100000001
ssg196
I00
sg197
(dp911
g41
VEG Snip3downHCS
p912
sg43
Nssg200
(lp913
sg202
(lp914
sg206
I01
sg35
VPT1M10.0247959S
p915
sg32
VDeath
p916
sg209
I1
sa(dp917
g32
VMedal
p918
sg39
(dp919
g41
VRNG Commonly
p920
sg43
Nssg220
I3261908037
sg35
VPT1M10.0278025S
p921
sa(dp922
g38
I313138863
sg32
VWeaponDrop
p923
sg234
I12
sg44
(lp924
I1095363701
asg35
VPT1M10.0278025S
p925
sg237
I8
sg238
VP0DT0H0M4.3667S
p926
sg39
(dp927
g41
VEG Snip3downHCS
p928
sg43
Nssa(dp929
g38
I4096745987
sg32
VWeaponDrop
p930
sg234
I0
sg44
(lp931
I2758383128
asg35
VPT1M10.0278025S
p932
sg237
I0
sg238
VP0DT0H0M7.3667S
p933
sg39
(dp934
g41
VEG Snip3downHCS
p935
sg43
Nssa(dp936
g38
I313138863
sg39
(dp937
g41
VRNG Penguin HCS
p938
sg43
Nssg44
(lp939
I1095363701
asg32
VWeaponPickup
p940
sg35
VPT1M10.2788259S
p941
sa(dp942
g38
I4096745987
sg39
(dp943
g41
VRNG Penguin HCS
p944
sg43
Nssg44
(lp945
I2758383128
asg32
VWeaponPickup
p946
sg35
VPT1M10.2788259S
p947
sa(dp948
g32
VPlayerSpawn
p949
sg39
(dp950
g41
VRNG Penguin HCS
p951
sg43
Nssg35
VPT1M10.2788259S
p952
sa(dp953
g38
I313138863
sg39
(dp954
g41
VEG SuspectorHCS
p955
sg43
Nssg44
(lp956
I1095363701
asg32
VWeaponPickup
p957
sg35
VPT1M10.29182S
p958
sa(dp959
g38
I4096745987
sg39
(dp960
g41
VEG SuspectorHCS
p961
sg43
Nssg44
(lp962
I2758383128
asg32
VWeaponPickup
p963
sg35
VPT1M10.29182S
p964
sa(dp965
g32
VPlayerSpawn
p966
sg39
(dp967
g41
VEG SuspectorHCS
p968
sg43
Nssg35
VPT1M10.29182S
p969
sa(dp970
g38
I313138863
sg39
(dp971
g41
VEG Lunchbox HCS
p972
sg43
Nssg44
(lp973
I1095363701
asg32
VWeaponPickup
p974
sg35
VPT1M10.3748037S
p975
sa(dp976
g38
I4096745987
sg39
(dp977
g41
VEG Lunchbox HCS
p978
sg43
Nssg44
(lp979
I2758383128
asg32
VWeaponPickup
p980
sg35
VPT1M10.3758284S
p981
sa(dp982
g32
VPlayerSpawn
p983
sg39
(dp984
g41
VEG Lunchbox HCS
p985
sg43
Nssg35
VPT1M10.3758284S
p986
sa(dp987
g32
VMedal
p988
sg39
(dp989
g41
VRNG Victory X
p990
sg43
Nssg220
I3565443938
sg35
VPT1M11.1908231S
p991
sa(dp992
g32
VMedal
p993
sg39
(dp994
g41
VRNG Penguin HCS
p995
sg43
Nssg220
I2105198095
sg35
VPT1M11.1908231S
p996
sa(dp997
g32
VMedal
p998
sg39
(dp999
g41
VRNG Commonly
p1000
sg43
Nssg220
I2105198095
sg35
VPT1M11.1908231S
p1001
sa(dp1002
g32
VMedal
p1003
sg39
(dp1004
g41
VRNG Ninja HCS
p1005
sg43
Nssg220
I2105198095
sg35
VPT1M11.1908231S
p1006
sa(dp1007
g32
VMedal
p1008
sg39
(dp1009
g41
VRNG Victory X
p1010
sg43
Nssg220
I2105198095
sg35
VPT1M11.1908231S
p1011
sa(dp1012
g38
I4096745987
sg32
VWeaponDrop
p1013
sg234
I0
sg44
(lp1014
I2758383128
asg35
VPT1M12.7569061S
p1015
sg237
I0
sg238
VP0DT0H0M1.5000S
p1016
sg39
(dp1017
g41
VRNG Penguin HCS
p1018
sg43
Nssa(dp1019
g38
I523953283
sg39
(dp1020
g41
VRNG Penguin HCS
p1021
sg43
Nssg44
(lp1022
I2208825748
asg32
VWeaponPickup
p1023
sg35
VPT1M12.7569061S
p1024
sa(dp1025
g179
I4096745987
sg180
I00
sg181
I00
sg182
(dp1026
g41
VEG Lunchbox HCS
p1027
sg43
Nssg185
(lp1028
I2758383128
asg187
I00
sg188
I01
sg189
I1
sg190
I0
sg191
I1
sg192
(dp1029
Vy
F-5.6208295799999997
sVx
F20.088480000000001
sVz
F1.60008657
ssg194
(dp1030
Vy
F3.7028189999999999
sVx
F17.650615699999999
sVz
F2.2391169999999998
ssg196
I00
sg197
(dp1031
g41
VRNG Commonly
p1032
sg43
Nssg200
(lp1033
sg202
(lp1034
(dp1035
g41
VEG Snip3downHCS
p1036
sg43
Nsasg206
I00
sg35
VPT1M14.7749156S
p1037
sg32
VDeath
p1038
sg209
I1
sa(dp1039
g38
I313138863
sg32
VWeaponDrop
p1040
sg234
I0
sg44
(lp1041
I1095363701
asg35
VPT1M14.7769402S
p1042
sg237
I0
sg238
VP0DT0H0M5.8167S
p1043
sg39
(dp1044
g41
VRNG Commonly
p1045
sg43
Nssa(dp1046
g38
I4096745987
sg32
VWeaponDrop
p1047
sg234
I15
sg44
(lp1048
I2758383128
asg35
VPT1M14.7769402S
p1049
sg237
I12
sg238
VP0DT0H0M21.1333S
p1050
sg39
(dp1051
g41
VRNG Commonly
p1052
sg43
Nssa(dp1053
g38
I313138863
sg39
(dp1054
g41
VRNG Ninja HCS
p1055
sg43
Nssg44
(lp1056
I1095363701
asg32
VWeaponPickup
p1057
sg35
VPT1M15.5249358S
p1058
sa(dp1059
g38
I4096745987
sg39
(dp1060
g41
VRNG Ninja HCS
p1061
sg43
Nssg44
(lp1062
I2758383128
asg32
VWeaponPickup
p1063
sg35
VPT1M15.5259548S
p1064
sa(dp1065
g32
VPlayerSpawn
p1066
sg39
(dp1067
g41
VRNG Ninja HCS
p1068
sg43
Nssg35
VPT1M15.5259548S
p1069
sa(dp1070
g38
I313138863
sg39
(dp1071
g41
VEG Snip3downHCS
p1072
sg43
Nssg44
(lp1073
I1095363701
asg32
VWeaponPickup
p1074
sg35
VPT1M18.0420239S
p1075
sa(dp1076
g38
I4096745987
sg39
(dp1077
g41
VEG Snip3downHCS
p1078
sg43
Nssg44
(lp1079
I2758383128
asg32
VWeaponPickup
p1080
sg35
VPT1M18.0420239S
p1081
sa(dp1082
g32
VPlayerSpawn
p1083
sg39
(dp1084
g41
VEG Snip3downHCS
p1085
sg43
Nssg35
VPT1M18.0420239S
p1086
sa(dp1087
g179
I313138863
sg180
I00
sg181
I00
sg182
(dp1088
g41
VEG SuspectorHCS
p1089
sg43
Nssg185
(lp1090
I1095363701
asg187
I00
sg188
I00
sg189
I2
sg190
I0
sg191
I0
sg192
(dp1091
Vy
F-1.207295
sVx
F-1.8885689999999999
sVz
F0.400000036
ssg194
(dp1092
Vy
F1.6154624200000001
sVx
F-0.49875146199999998
sVz
F0.42076720000000001
ssg196
I00
sg197
(dp1093
g521
g522
ssg200
(lp1094
sg202
(lp1095
sg206
I00
sg35
VPT1M20.0750522S
p1096
sg32
VDeath
p1097
sg209
I1
sa(dp1098
g38
I313138863
sg39
(dp1099
g41
VRNG Commonly
p1100
sg43
Nssg44
(lp1101
I1095363701
asg32
VWeaponPickup
p1102
sg35
VPT1M22.7921541S
p1103
sa(dp1104
g38
I4096745987
sg39
(dp1105
g41
VRNG Commonly
p1106
sg43
Nssg44
(lp1107
I2758383128
asg32
VWeaponPickup
p1108
sg35
VPT1M22.7921541S
p1109
sa(dp1110
g32
VPlayerSpawn
p1111
sg39
(dp1112
g41
VRNG Commonly
p1113
sg43
Nssg35
VPT1M22.7921541S
p1114
sa(dp1115
g32
VMedal
p1116
sg39
(dp1117
g41
VEG Roy HCS
p1118
sg43
Nssg220
I3565443938
sg35
VPT1M22.890143S
p1119
sa(dp1120
g32
VMedal
p1121
sg39
(dp1122
g41
VEG Lunchbox HCS
p1123
sg43
Nssg220
I3565443938
sg35
VPT1M22.890143S
p1124
sa(dp1125
g179
I313138863
sg180
I00
sg181
I01
sg182
(dp1126
g41
VRNG Ninja HCS
p1127
sg43
Nssg185
(lp1128
I1095363701
asg187
I00
sg188
I00
sg189
I1
sg190
I0
sg191
I1
sg192
(dp1129
Vy
F3.7923426600000001
sVx
F15.47949
sVz
F1.80954087
ssg194
(dp1130
Vy
F3.38507771
sVx
F15.439025900000001
sVz
F1.8106696600000001
ssg196
I00
sg197
(dp1131
g41
VEG Snip3downHCS
p1132
sg43
Nssg200
(lp1133
sg202
(lp1134
sg206
I00
sg35
VPT1M27.0412302S
p1135
sg32
VDeath
p1136
sg209
I1
sa(dp1137
g32
VMedal
p1138
sg39
(dp1139
g41
VRNG Ninja HCS
p1140
sg43
Nssg220
I250435527
sg35
VPT1M27.043249S
p1141
sa(dp1142
g38
I313138863
sg32
VWeaponDrop
p1143
sg234
I8
sg44
(lp1144
I1095363701
asg35
VPT1M27.043249S
p1145
sg237
I2
sg238
VP0DT0H0M3.0500S
p1146
sg39
(dp1147
g41
VEG Snip3downHCS
p1148
sg43
Nssa(dp1149
g38
I313138863
sg32
VWeaponDrop
p1150
sg234
I0
sg44
(lp1151
I1095363701
asg35
VPT1M27.043249S
p1152
sg237
I0
sg238
VP0DT0S
p1153
sg39
(dp1154
g41
VEG Snip3downHCS
p1155
sg43
Nssa(dp1156
g38
I4096745987
sg32
VWeaponDrop
p1157
sg234
I0
sg44
(lp1158
I2758383128
asg35
VPT1M27.043249S
p1159
sg237
I0
sg238
VP0DT0H0M5.9500S
p1160
sg39
(dp1161
g41
VEG Snip3downHCS
p1162
sg43
Nssa(dp1163
g32
VMedal
p1164
sg39
(dp1165
g41
VRNG Victory X
p1166
sg43
Nssg220
I2916014239
sg35
VPT1M29.1262855S
p1167
sa(dp1168
g179
I4096745987
sg180
I00
sg181
I00
sg182
(dp1169
g41
VEG Lunchbox HCS
p1170
sg43
Nssg185
(lp1171
I2758383128
asg187
I00
sg188
I01
sg189
I1
sg190
I0
sg191
I1
sg192
(dp1172
Vy
F0.23456566000000001
sVx
F19.7935944
sVz
F0.79966879999999996
ssg194
(dp1173
Vy
F4.2432584799999997
sVx
F12.821309100000001
sVz
F2.3956127199999999
ssg196
I00
sg197
(dp1174
g41
VRNG Ninja HCS
p1175
sg43
Nssg200
(lp1176
sg202
(lp1177
(dp1178
g41
VEG Snip3downHCS
p1179
sg43
Nsasg206
I01
sg35
VPT1M30.3583148S
p1180
sg32
VDeath
p1181
sg209
I1
sa(dp1182
g32
VMedal
p1183
sg39
(dp1184
g41
VEG Lunchbox HCS
p1185
sg43
Nssg220
I3261908037
sg35
VPT1M30.3593576S
p1186
sa(dp1187
g38
I313138863
sg32
VWeaponDrop
p1188
sg234
I7
sg44
(lp1189
I1095363701
asg35
VPT1M30.360344S
p1190
sg237
I6
sg238
VP0DT0H0M8.7833S
p1191
sg39
(dp1192
g41
VRNG Ninja HCS
p1193
sg43
Nssa(dp1194
g38
I313138863
sg32
VWeaponDrop
p1195
sg234
I0
sg44
(lp1196
I1095363701
asg35
VPT1M30.360344S
p1197
sg237
I0
sg238
VP0DT0S
p1198
sg39
(dp1199
g41
VRNG Ninja HCS
p1200
sg43
Nssa(dp1201
g38
I4096745987
sg32
VWeaponDrop
p1202
sg234
I1
sg44
(lp1203
I2758383128
asg35
VPT1M30.360344S
p1204
sg237
I0
sg238
VP0DT0H0M6.0500S
p1205
sg39
(dp1206
g41
VRNG Ninja HCS
p1207
sg43
Nssa(dp1208
g38
I313138863
sg39
(dp1209
g41
VEG Snip3downHCS
p1210
sg43
Nssg44
(lp1211
I1095363701
asg32
VWeaponPickup
p1212
sg35
VPT1M35.0584357S
p1213
sa(dp1214
g38
I4096745987
sg39
(dp1215
g41
VEG Snip3downHCS
p1216
sg43
Nssg44
(lp1217
I2758383128
asg32
VWeaponPickup
p1218
sg35
VPT1M35.0594571S
p1219
sa(dp1220
g32
VPlayerSpawn
p1221
sg39
(dp1222
g41
VEG Snip3downHCS
p1223
sg43
Nssg35
VPT1M35.0594571S
p1224
sa(dp1225
g38
I4096745987
sg32
VWeaponDrop
p1226
sg234
I0
sg44
(lp1227
I2758383128
asg35
VPT1M37.2735129S
p1228
sg237
I0
sg238
VP0DT0H0M1.7667S
p1229
sg39
(dp1230
g41
VEG Snip3downHCS
p1231
sg43
Nssa(dp1232
g38
I523953283
sg39
(dp1233
g41
VEG Snip3downHCS
p1234
sg43
Nssg44
(lp1235
I2208825748
asg32
VWeaponPickup
p1236
sg35
VPT1M37.2735129S
p1237
sa(dp1238
g38
I313138863
sg39
(dp1239
g41
VRNG Ninja HCS
p1240
sg43
Nssg44
(lp1241
I1095363701
asg32
VWeaponPickup
p1242
sg35
VPT1M38.3745195S
p1243
sa(dp1244
g38
I4096745987
sg39
(dp1245
g41
VRNG Ninja HCS
p1246
sg43
Nssg44
(lp1247
I2758383128
asg32
VWeaponPickup
p1248
sg35
VPT1M38.3755427S
p1249
sa(dp1250
g32
VPlayerSpawn
p1251
sg39
(dp1252
g41
VRNG Ninja HCS
p1253
sg43
Nssg35
VPT1M38.3755427S
p1254
sa(dp1255
g179
I313138863
sg180
I00
sg181
I01
sg182
(dp1256
g41
VRNG Penguin HCS
p1257
sg43
Nssg185
(lp1258
I1095363701
asg187
I00
sg188
I00
sg189
I1
sg190
I0
sg191
I1
sg192
(dp1259
Vy
F8.2719550000000002
sVx
F7.5768437400000002
sVz
F0.30049413400000002
ssg194
(dp1260
Vy
F8.6926009999999998
sVx
F7.6134399999999998
sVz
F0.40463232999999998
ssg196
I00
sg197
(dp1261
g41
VEG Lunchbox HCS
p1262
sg43
Nssg200
(lp1263
sg202
(lp1264
(dp1265
g41
VRNG Commonly
p1266
sg43
Nsasg206
I00
sg35
VPT1M40.9575846S
p1267
sg32
VDeath
p1268
sg209
I1
sa(dp1269
g32
VMedal
p1270
sg39
(dp1271
g41
VRNG Penguin HCS
p1272
sg43
Nssg220
I2287626681
sg35
VPT1M40.9596665S
p1273
sa(dp1274
g38
I313138863
sg32
VWeaponDrop
p1275
sg234
I0
sg44
(lp1276
I1095363701
asg35
VPT1M40.9596665S
p1277
sg237
I0
sg238
VP0DT0H0M1.8167S
p1278
sg39
(dp1279
g41
VEG Lunchbox HCS
p1280
sg43
Nssa(dp1281
g38
I4096745987
sg32
VWeaponDrop
p1282
sg234
I13
sg44
(lp1283
I2758383128
asg35
VPT1M40.9605885S
p1284
sg237
I7
sg238
VP0DT0H0M28.7667S
p1285
sg39
(dp1286
g41
VEG Lunchbox HCS
p1287
sg43
Nssa(dp1288
g179
I313138863
sg180
I00
sg181
I00
sg182
(dp1289
g41
VEG Roy HCS
p1290
sg43
Nssg185
(lp1291
I1095363701
asg187
I00
sg188
I01
sg189
I1
sg190
I0
sg191
I1
sg192
(dp1292
Vy
F1.0625144200000001
sVx
F7.4245605499999998
sVz
F-0.80001169999999999
ssg194
(dp1293
Vy
F-6.3576974899999996
sVx
F9.5842495000000003
sVz
F0.49919140000000001
ssg196
I00
sg197
(dp1294
g41
VRNG Victory X
p1295
sg43
Nssg200
(lp1296
sg202
(lp1297
(dp1298
g41
VEG Snip3downHCS
p1299
sg43
Nsasg206
I00
sg35
VPT1M42.158617S
p1300
sg32
VDeath
p1301
sg209
I1
sa(dp1302
g38
I313138863
sg32
VWeaponDrop
p1303
sg234
I12
sg44
(lp1304
I1095363701
asg35
VPT1M42.1596408S
p1305
sg237
I5
sg238
VP0DT0H0M15.2667S
p1306
sg39
(dp1307
g41
VRNG Victory X
p1308
sg43
Nssa(dp1309
g38
I4096745987
sg32
VWeaponDrop
p1310
sg234
I2
sg44
(lp1311
I2758383128
asg35
VPT1M42.1596408S
p1312
sg237
I0
sg238
VP0DT0H0M32.7000S
p1313
sg39
(dp1314
g41
VRNG Victory X
p1315
sg43
Nssa(dp1316
g179
I313138863
sg180
I00
sg181
I00
sg182
(dp1317
g41
VEG SuspectorHCS
p1318
sg43
Nssg185
(lp1319
I1095363701
asg187
I00
sg188
I01
sg189
I1
sg190
I0
sg191
I1
sg192
(dp1320
Vy
F9.5372020000000006
sVx
F5.4146337500000001
sVz
F3.3646817200000001
ssg194
(dp1321
Vy
F5.1621490000000003
sVx
F4.9110956200000002
sVz
F3.8444995899999998e-06
ssg196
I00
sg197
(dp1322
g41
VRNG Penguin HCS
p1323
sg43
Nssg200
(lp1324
sg202
(lp1325
sg206
I00
sg35
VPT1M44.2086685S
p1326
sg32
VDeath
p1327
sg209
I1
sa(dp1328
g32
VMedal
p1329
sg39
(dp1330
g41
VEG SuspectorHCS
p1331
sg43
Nssg220
I2782465081
sg35
VPT1M44.210693S
p1332
sa(dp1333
g38
I313138863
sg32
VWeaponDrop
p1334
sg234
I24
sg44
(lp1335
I1095363701
asg35
VPT1M44.211692S
p1336
sg237
I2
sg238
VP0DT0H0M12.1167S
p1337
sg39
(dp1338
g41
VRNG Penguin HCS
p1339
sg43
Nssa(dp1340
g38
I313138863
sg32
VWeaponDrop
p1341
sg234
I0
sg44
(lp1342
I1095363701
asg35
VPT1M44.211692S
p1343
sg237
I0
sg238
VP0DT0S
p1344
sg39
(dp1345
g41
VRNG Penguin HCS
p1346
sg43
Nssa(dp1347
g38
I523953283
sg32
VWeaponDrop
p1348
sg234
I9
sg44
(lp1349
I2208825748
asg35
VPT1M44.211692S
p1350
sg237
I4
sg238
VP0DT0H0M20.3167S
p1351
sg39
(dp1352
g41
VRNG Penguin HCS
p1353
sg43
Nssa(dp1354
g179
I4096745987
sg180
I00
sg181
I00
sg182
(dp1355
g41
VRNG Ninja HCS
p1356
sg43
Nssg185
(lp1357
I2758383128
asg187
I00
sg188
I01
sg189
I1
sg190
I0
sg191
I1
sg192
(dp1358
Vy
F6.5093016600000002
sVx
F-7.7093959999999999
sVz
F0.80034249999999996
ssg194
(dp1359
Vy
F9.6336739999999992
sVx
F4.5713350000000004
sVz
F3.2275109999999998
ssg196
I00
sg197
(dp1360
g41
VEG SuspectorHCS
p1361
sg43
Nssg200
(lp1362
sg202
(lp1363
(dp1364
g41
VRNG Commonly
p1365
sg43
Nsasg206
I00
sg35
VPT1M44.5756789S
p1366
sg32
VDeath
p1367
sg209
I1
sa(dp1368
g38
I313138863
sg32
VWeaponDrop
p1369
sg234
I46
sg44
(lp1370
I1095363701
asg35
VPT1M44.5777019S
p1371
sg237
I12
sg238
VP0DT0H0M17.8667S
p1372
sg39
(dp1373
g41
VEG SuspectorHCS
p1374
sg43
Nssa(dp1375
g38
I4096745987
sg32
VWeaponDrop
p1376
sg234
I9
sg44
(lp1377
I2758383128
asg35
VPT1M44.5777019S
p1378
sg237
I4
sg238
VP0DT0H0M16.4167S
p1379
sg39
(dp1380
g41
VEG SuspectorHCS
p1381
sg43
Nssa(dp1382
g38
I313138863
sg39
(dp1383
g41
VEG Lunchbox HCS
p1384
sg43
Nssg44
(lp1385
I1095363701
asg32
VWeaponPickup
p1386
sg35
VPT1M48.9749381S
p1387
sa(dp1388
g38
I4096745987
sg39
(dp1389
g41
VEG Lunchbox HCS
p1390
sg43
Nssg44
(lp1391
I2758383128
asg32
VWeaponPickup
p1392
sg35
VPT1M48.9757932S
p1393
sa(dp1394
g32
VPlayerSpawn
p1395
sg39
(dp1396
g41
VEG Lunchbox HCS
p1397
sg43
Nssg35
VPT1M48.9757932S
p1398
sa(dp1399
g179
I523953283
sg180
I00
sg181
I00
sg182
(dp1400
g41
VEG Snip3downHCS
p1401
sg43
Nssg185
(lp1402
I2208825748
asg187
I00
sg188
I01
sg189
I1
sg190
I0
sg191
I1
sg192
(dp1403
Vy
F1.14136612
sVx
F9.5582419999999999
sVz
F-0.80001175400000002
ssg194
(dp1404
Vy
F-3.4818961599999998
sVx
F7.6047700000000003
sVz
F0.38740010000000002
ssg196
I00
sg197
(dp1405
g41
VRNG Commonly
p1406
sg43
Nssg200
(lp1407
sg202
(lp1408
sg206
I00
sg35
VPT1M49.9078149S
p1409
sg32
VDeath
p1410
sg209
I1
sa(dp1411
g38
I313138863
sg32
VWeaponDrop
p1412
sg234
I36
sg44
(lp1413
I1095363701
asg35
VPT1M49.9098172S
p1414
sg237
I11
sg238
VP0DT0H0M12.1333S
p1415
sg39
(dp1416
g41
VRNG Commonly
p1417
sg43
Nssa(dp1418
g38
I4096745987
sg32
VWeaponDrop
p1419
sg234
I16
sg44
(lp1420
I2758383128
asg35
VPT1M49.9098172S
p1421
sg237
I6
sg238
VP0DT0H0M14.9833S
p1422
sg39
(dp1423
g41
VRNG Commonly
p1424
sg43
Nssa(dp1425
g38
I313138863
sg39
(dp1426
g41
VRNG Victory X
p1427
sg43
Nssg44
(lp1428
I1095363701
asg32
VWeaponPickup
p1429
sg35
VPT1M50.1748466S
p1430
sa(dp1431
g38
I4096745987
sg39
(dp1432
g41
VRNG Victory X
p1433
sg43
Nssg44
(lp1434
I2758383128
asg32
VWeaponPickup
p1435
sg35
VPT1M50.1748466S
p1436
sa(dp1437
g32
VPlayerSpawn
p1438
sg39
(dp1439
g41
VRNG Victory X
p1440
sg43
Nssg35
VPT1M50.1748466S
p1441
sa(dp1442
g179
I313138863
sg180
I00
sg181
I00
sg182
(dp1443
g41
VRNG Ninja HCS
p1444
sg43
Nssg185
(lp1445
I1095363701
asg187
I00
sg188
I01
sg189
I1
sg190
I0
sg191
I1
sg192
(dp1446
Vy
F2.6194276799999998
sVx
F3.3262010000000002
sVz
F3.8146972699999997e-06
ssg194
(dp1447
Vy
F-0.93805974700000005
sVx
F4.7276463499999997
sVz
F0.017448276299999999
ssg196
I00
sg197
(dp1448
g41
VEG Roy HCS
p1449
sg43
Nssg200
(lp1450
sg202
(lp1451
sg206
I00
sg35
VPT1M51.2248804S
p1452
sg32
VDeath
p1453
sg209
I1
sa(dp1454
g32
VMedal
p1455
sg39
(dp1456
g41
VRNG Ninja HCS
p1457
sg43
Nssg220
I1351381581
sg35
VPT1M51.2268725S
p1458
sa(dp1459
g38
I313138863
sg32
VWeaponDrop
p1460
sg234
I17
sg44
(lp1461
I1095363701
asg35
VPT1M51.2278741S
p1462
sg237
I8
sg238
VP0DT0H0M8.3500S
p1463
sg39
(dp1464
g41
VEG Roy HCS
p1465
sg43
Nssa(dp1466
g38
I4096745987
sg32
VWeaponDrop
p1467
sg234
I32
sg44
(lp1468
I2758383128
asg35
VPT1M51.2278741S
p1469
sg237
I16
sg238
VP0DT0H0M40.4167S
p1470
sg39
(dp1471
g41
VEG Roy HCS
p1472
sg43
Nssa(dp1473
g38
I313138863
sg39
(dp1474
g41
VRNG Penguin HCS
p1475
sg43
Nssg44
(lp1476
I1095363701
asg32
VWeaponPickup
p1477
sg35
VPT1M52.2248781S
p1478
sa(dp1479
g38
I4096745987
sg39
(dp1480
g41
VRNG Penguin HCS
p1481
sg43
Nssg44
(lp1482
I2758383128
asg32
VWeaponPickup
p1483
sg35
VPT1M52.2248781S
p1484
sa(dp1485
g32
VPlayerSpawn
p1486
sg39
(dp1487
g41
VRNG Penguin HCS
p1488
sg43
Nssg35
VPT1M52.2248781S
p1489
sa(dp1490
g38
I313138863
sg39
(dp1491
g41
VEG SuspectorHCS
p1492
sg43
Nssg44
(lp1493
I1095363701
asg32
VWeaponPickup
p1494
sg35
VPT1M52.5919028S
p1495
sa(dp1496
g38
I4096745987
sg39
(dp1497
g41
VEG SuspectorHCS
p1498
sg43
Nssg44
(lp1499
I2758383128
asg32
VWeaponPickup
p1500
sg35
VPT1M52.5919028S
p1501
sa(dp1502
g32
VPlayerSpawn
p1503
sg39
(dp1504
g41
VEG SuspectorHCS
p1505
sg43
Nssg35
VPT1M52.5919028S
p1506
sa(dp1507
g179
I4096745987
sg180
I00
sg181
I00
sg182
(dp1508
g41
VRNG Ninja HCS
p1509
sg43
Nssg185
(lp1510
I2758383128
asg187
I00
sg188
I01
sg189
I1
sg190
I0
sg191
I1
sg192
(dp1511
Vy
F2.0901184100000001
sVx
F1.4381116599999999
sVz
F1.0464358300000001
ssg194
(dp1512
Vy
F-2.0252947799999999
sVx
F8.1023420000000002
sVz
F-0.73977530000000002
ssg196
I00
sg197
(dp1513
g41
VEG Snip3downHCS
p1514
sg43
Nssg200
(lp1515
sg202
(lp1516
(dp1517
g41
VRNG Commonly
p1518
sg43
Nsasg206
I01
sg35
VPT1M52.9409007S
p1519
sg32
VDeath
p1520
sg209
I1
sa(dp1521
g32
VMedal
p1522
sg39
(dp1523
g41
VRNG Ninja HCS
p1524
sg43
Nssg220
I1351381581
sg35
VPT1M52.9419163S
p1525
sa(dp1526
g32
VMedal
p1527
sg39
(dp1528
g41
VRNG Ninja HCS
p1529
sg43
Nssg220
I3261908037
sg35
VPT1M52.9419163S
p1530
sa(dp1531
g32
VMedal
p1532
sg39
(dp1533
g41
VRNG Ninja HCS
p1534
sg43
Nssg220
I2078758684
sg35
VPT1M52.9419163S
p1535
sa(dp1536
g38
I313138863
sg32
VWeaponDrop
p1537
sg234
I0
sg44
(lp1538
I1095363701
asg35
VPT1M52.9428922S
p1539
sg237
I0
sg238
VP0DT0H0M0.4500S
p1540
sg39
(dp1541
g41
VEG Snip3downHCS
p1542
sg43
Nssa(dp1543
g38
I523953283
sg32
VWeaponDrop
p1544
sg234
I15
sg44
(lp1545
I2208825748
asg35
VPT1M52.9428922S
p1546
sg237
I8
sg238
VP0DT0H0M15.6667S
p1547
sg39
(dp1548
g41
VEG Snip3downHCS
p1549
sg43
Nssa(dp1550
g179
I4096745987
sg180
I00
sg181
I00
sg182
(dp1551
g41
VRNG Victory X
p1552
sg43
Nssg185
(lp1553
I2758383128
asg187
I00
sg188
I01
sg189
I1
sg190
I0
sg191
I1
sg192
(dp1554
Vy
F2.5537245300000002
sVx
F3.1845855699999999
sVz
F3.784895e-06
ssg194
(dp1555
Vy
F-1.85700142
sVx
F3.4695377299999999
sVz
F0.79886686799999995
ssg196
I00
sg197
(dp1556
g41
VEG Lunchbox HCS
p1557
sg43
Nssg200
(lp1558
sg202
(lp1559
(dp1560
g41
VRNG Ninja HCS
p1561
sg43
Nsasg206
I00
sg35
VPT1M54.9249446S
p1562
sg32
VDeath
p1563
sg209
I1
sa(dp1564
g32
VMedal
p1565
sg39
(dp1566
g41
VRNG Victory X
p1567
sg43
Nssg220
I1351381581
sg35
VPT1M54.9259665S
p1568
sa(dp1569
g32
VMedal
p1570
sg39
(dp1571
g41
VRNG Victory X
p1572
sg43
Nssg220
I2916014239
sg35
VPT1M54.9259665S
p1573
sa(dp1574
g32
VMedal
p1575
sg39
(dp1576
g41
VRNG Ninja HCS
p1577
sg43
Nssg220
I2916014239
sg35
VPT1M54.9259665S
p1578
sa(dp1579
g38
I313138863
sg32
VWeaponDrop
p1580
sg234
I26
sg44
(lp1581
I1095363701
asg35
VPT1M54.9259665S
p1582
sg237
I11
sg238
VP0DT0H0M4.7333S
p1583
sg39
(dp1584
g41
VEG Lunchbox HCS
p1585
sg43
Nssa(dp1586
g38
I4096745987
sg32
VWeaponDrop
p1587
sg234
I0
sg44
(lp1588
I2758383128
asg35
VPT1M54.9259665S
p1589
sg237
I0
sg238
VP0DT0H0M1.2167S
p1590
sg39
(dp1591
g41
VEG Lunchbox HCS
p1592
sg43
Nssa(dp1593
g32
VMedal
p1594
sg39
(dp1595
g41
VRNG Ninja HCS
p1596
sg43
Nssg220
I3400287617
sg35
VPT1M57.0399978S
p1597
sa(dp1598
g38
I313138863
sg39
(dp1599
g41
VRNG Commonly
p1600
sg43
Nssg44
(lp1601
I1095363701
asg32
VWeaponPickup
p1602
sg35
VPT1M57.9250533S
p1603
sa(dp1604
g38
I4096745987
sg39
(dp1605
g41
VRNG Commonly
p1606
sg43
Nssg44
(lp1607
I2758383128
asg32
VWeaponPickup
p1608
sg35
VPT1M57.9250533S
p1609
sa(dp1610
g32
VPlayerSpawn
p1611
sg39
(dp1612
g41
VRNG Commonly
p1613
sg43
Nssg35
VPT1M57.9250533S
p1614
sa(dp1615
g38
I313138863
sg39
(dp1616
g41
VEG Roy HCS
p1617
sg43
Nssg44
(lp1618
I1095363701
asg32
VWeaponPickup
p1619
sg35
VPT1M59.2410728S
p1620
sa(dp1621
g38
I4096745987
sg39
(dp1622
g41
VEG Roy HCS
p1623
sg43
Nssg44
(lp1624
I2758383128
asg32
VWeaponPickup
p1625
sg35
VPT1M59.2410728S
p1626
sa(dp1627
g32
VPlayerSpawn
p1628
sg39
(dp1629
g41
VEG Roy HCS
p1630
sg43
Nssg35
VPT1M59.2410728S
p1631
sa(dp1632
g38
I313138863
sg39
(dp1633
g41
VEG Snip3downHCS
p1634
sg43
Nssg44
(lp1635
I1095363701
asg32
VWeaponPickup
p1636
sg35
VPT2M0.9581296S
p1637
sa(dp1638
g38
I4096745987
sg39
(dp1639
g41
VEG Snip3downHCS
p1640
sg43
Nssg44
(lp1641
I2758383128
asg32
VWeaponPickup
p1642
sg35
VPT2M0.9581296S
p1643
sa(dp1644
g32
VPlayerSpawn
p1645
sg39
(dp1646
g41
VEG Snip3downHCS
p1647
sg43
Nssg35
VPT2M0.9581296S
p1648
sa(dp1649
g38
I313138863
sg39
(dp1650
g41
VEG Lunchbox HCS
p1651
sg43
Nssg44
(lp1652
I1095363701
asg32
VWeaponPickup
p1653
sg35
VPT2M2.9411755S
p1654
sa(dp1655
g38
I4096745987
sg39
(dp1656
g41
VEG Lunchbox HCS
p1657
sg43
Nssg44
(lp1658
I2758383128
asg32
VWeaponPickup
p1659
sg35
VPT2M2.9421678S
p1660
sa(dp1661
g32
VPlayerSpawn
p1662
sg39
(dp1663
g41
VEG Lunchbox HCS
p1664
sg43
Nssg35
VPT2M2.9421678S
p1665
sa(dp1666
g38
I4096745987
sg32
VWeaponDrop
p1667
sg234
I0
sg44
(lp1668
I2758383128
asg35
VPT2M3.9892077S
p1669
sg237
I0
sg238
VP0DT0H0M5.2000S
p1670
sg39
(dp1671
g41
VRNG Commonly
p1672
sg43
Nssa(dp1673
g38
I523953283
sg39
(dp1674
g41
VRNG Commonly
p1675
sg43
Nssg44
(lp1676
I2208825748
asg32
VWeaponPickup
p1677
sg35
VPT2M3.9902014S
p1678
sa(dp1679
g38
I4096745987
sg32
VWeaponDrop
p1680
sg234
I0
sg44
(lp1681
I2758383128
asg35
VPT2M4.4231856S
p1682
sg237
I0
sg238
VP0DT0H0M0.7167S
p1683
sg39
(dp1684
g41
VEG Lunchbox HCS
p1685
sg43
Nssa(dp1686
g38
I523953283
sg39
(dp1687
g41
VEG Lunchbox HCS
p1688
sg43
Nssg44
(lp1689
I2208825748
asg32
VWeaponPickup
p1690
sg35
VPT2M4.4231856S
p1691
sa(dp1692
g179
I4096745987
sg180
I00
sg181
I00
sg182
(dp1693
g41
VEG Snip3downHCS
p1694
sg43
Nssg185
(lp1695
I2758383128
asg187
I00
sg188
I01
sg189
I1
sg190
I0
sg191
I1
sg192
(dp1696
Vy
F-15.0073595
sVx
F15.8623476
sVz
F3.1256473100000002
ssg194
(dp1697
Vy
F-4.6721190000000004
sVx
F19.031997700000002
sVz
F1.59946549
ssg196
I00
sg197
(dp1698
g41
VRNG Victory X
p1699
sg43
Nssg200
(lp1700
sg202
(lp1701
(dp1702
g41
VEG Roy HCS
p1703
sg43
Nsasg206
I01
sg35
VPT2M4.9572006S
p1704
sg32
VDeath
p1705
sg209
I1
sa(dp1706
g32
VMedal
p1707
sg39
(dp1708
g41
VEG Snip3downHCS
p1709
sg43
Nssg220
I3261908037
sg35
VPT2M4.9592254S
p1710
sa(dp1711
g38
I313138863
sg32
VWeaponDrop
p1712
sg234
I0
sg44
(lp1713
I1095363701
asg35
VPT2M4.9592254S
p1714
sg237
I0
sg238
VP0DT0H0M0.3500S
p1715
sg39
(dp1716
g41
VRNG Victory X
p1717
sg43
Nssa(dp1718
g38
I4096745987
sg32
VWeaponDrop
p1719
sg234
I10
sg44
(lp1720
I2758383128
asg35
VPT2M4.9592254S
p1721
sg237
I9
sg238
VP0DT0H0M14.4333S
p1722
sg39
(dp1723
g41
VRNG Victory X
p1724
sg43
Nssa(dp1725
g179
I313138863
sg180
I00
sg181
I00
sg182
(dp1726
g41
VEG SuspectorHCS
p1727
sg43
Nssg185
(lp1728
I1095363701
asg187
I00
sg188
I01
sg189
I1
sg190
I0
sg191
I1
sg192
(dp1729
Vy
F-2.67964745
sVx
F14.556576700000001
sVz
F1.1144954
ssg194
(dp1730
Vy
F-2.7053256000000001
sVx
F16.4493446
sVz
F0.80098800000000003
ssg196
I00
sg197
(dp1731
g41
VRNG Penguin HCS
p1732
sg43
Nssg200
(lp1733
sg202
(lp1734
(dp1735
g41
VEG Snip3downHCS
p1736
sg43
Nsa(dp1737
g41
VEG Roy HCS
p1738
sg43
Nsasg206
I00
sg35
VPT2M7.2912607S
p1739
sg32
VDeath
p1740
sg209
I1
sa(dp1741
g38
I313138863
sg32
VWeaponDrop
p1742
sg234
I0
sg44
(lp1743
I1095363701
asg35
VPT2M7.2932684S
p1744
sg237
I0
sg238
VP0DT0H0M5.2500S
p1745
sg39
(dp1746
g41
VRNG Penguin HCS
p1747
sg43
Nssa(dp1748
g38
I4096745987
sg32
VWeaponDrop
p1749
sg234
I3
sg44
(lp1750
I2758383128
asg35
VPT2M7.2932684S
p1751
sg237
I1
sg238
VP0DT0H0M9.8167S
p1752
sg39
(dp1753
g41
VRNG Penguin HCS
p1754
sg43
Nssa(dp1755
g38
I313138863
sg39
(dp1756
g41
VRNG Victory X
p1757
sg43
Nssg44
(lp1758
I1095363701
asg32
VWeaponPickup
p1759
sg35
VPT2M12.9744943S
p1760
sa(dp1761
g38
I4096745987
sg39
(dp1762
g41
VRNG Victory X
p1763
sg43
Nssg44
(lp1764
I2758383128
asg32
VWeaponPickup
p1765
sg35
VPT2M12.9754266S
p1766
sa(dp1767
g32
VPlayerSpawn
p1768
sg39
(dp1769
g41
VRNG Victory X
p1770
sg43
Nssg35
VPT2M12.9754266S
p1771
sa(dp1772
g179
I4096745987
sg180
I00
sg181
I00
sg182
(dp1773
g41
VEG Snip3downHCS
p1774
sg43
Nssg185
(lp1775
I2758383128
asg187
I00
sg188
I01
sg189
I1
sg190
I0
sg191
I1
sg192
(dp1776
Vy
F-2.4490737899999999
sVx
F8.3416709999999998
sVz
F-0.64441939999999998
ssg194
(dp1777
Vy
F6.8978859999999997
sVx
F7.12529945
sVz
F0.96173609999999998
ssg196
I00
sg197
(dp1778
g41
VRNG Commonly
p1779
sg43
Nssg200
(lp1780
sg202
(lp1781
(dp1782
g41
VEG SuspectorHCS
p1783
sg43
Nsasg206
I00
sg35
VPT2M15.2404638S
p1784
sg32
VDeath
p1785
sg209
I1
sa(dp1786
g32
VImpulse
p1787
sg39
(dp1788
g41
VEG Snip3downHCS
p1789
sg43
Nssg214
I2556889090
sg35
VPT2M15.2414877S
p1790
sa(dp1791
g32
VMedal
p1792
sg39
(dp1793
g41
VEG Snip3downHCS
p1794
sg43
Nssg220
I2838259753
sg35
VPT2M15.2414877S
p1795
sa(dp1796
g32
VMedal
p1797
sg39
(dp1798
g41
VEG Lunchbox HCS
p1799
sg43
Nssg220
I824733727
sg35
VPT2M15.2424874S
p1800
sa(dp1801
g38
I313138863
sg32
VWeaponDrop
p1802
sg234
I0
sg44
(lp1803
I1095363701
asg35
VPT2M15.2424874S
p1804
sg237
I0
sg238
VP0DT0H0M0.8667S
p1805
sg39
(dp1806
g41
VRNG Commonly
p1807
sg43
Nssa(dp1808
g38
I523953283
sg32
VWeaponDrop
p1809
sg234
I10
sg44
(lp1810
I2208825748
asg35
VPT2M15.2424874S
p1811
sg237
I6
sg238
VP0DT0H0M11.2500S
p1812
sg39
(dp1813
g41
VRNG Commonly
p1814
sg43
Nssa(dp1815
g38
I313138863
sg39
(dp1816
g41
VRNG Penguin HCS
p1817
sg43
Nssg44
(lp1818
I1095363701
asg32
VWeaponPickup
p1819
sg35
VPT2M15.3074659S
p1820
sa(dp1821
g38
I4096745987
sg39
(dp1822
g41
VRNG Penguin HCS
p1823
sg43
Nssg44
(lp1824
I2758383128
asg32
VWeaponPickup
p1825
sg35
VPT2M15.3084859S
p1826
sa(dp1827
g32
VPlayerSpawn
p1828
sg39
(dp1829
g41
VRNG Penguin HCS
p1830
sg43
Nssg35
VPT2M15.3084859S
p1831
sa(dp1832
g179
I313138863
sg180
I00
sg181
I00
sg182
(dp1833
g41
VEG Roy HCS
p1834
sg43
Nssg185
(lp1835
I1095363701
asg187
I00
sg188
I01
sg189
I1
sg190
I0
sg191
I1
sg192
(dp1836
Vy
F-1.10478747
sVx
F9.4359000000000002
sVz
F-0.80001169999999999
ssg194
(dp1837
Vy
F-0.019183076899999998
sVx
F5.2197222700000001
sVz
F-0.80001169999999999
ssg196
I00
sg197
(dp1838
g41
VRNG Ninja HCS
p1839
sg43
Nssg200
(lp1840
sg202
(lp1841
sg206
I00
sg35
VPT2M15.7414765S
p1842
sg32
VDeath
p1843
sg209
I1
sa(dp1844
g38
I313138863
sg32
VWeaponDrop
p1845
sg234
I36
sg44
(lp1846
I1095363701
asg35
VPT2M15.7444961S
p1847
sg237
I17
sg238
VP0DT0H0M10.0167S
p1848
sg39
(dp1849
g41
VRNG Ninja HCS
p1850
sg43
Nssa(dp1851
g38
I4096745987
sg32
VWeaponDrop
p1852
sg234
I18
sg44
(lp1853
I2758383128
asg35
VPT2M15.7444961S
p1854
sg237
I4
sg238
VP0DT0H0M27.3500S
p1855
sg39
(dp1856
g41
VRNG Ninja HCS
p1857
sg43
Nssa(dp1858
g179
I4106030681
sg180
I00
sg181
I00
sg182
(dp1859
g41
VRNG Victory X
p1860
sg43
Nssg185
(lp1861
sg187
I00
sg188
I01
sg189
I1
sg190
I0
sg191
I1
sg192
(dp1862
Vy
F4.371429
sVx
F1.6695498200000001
sVz
F3.784895e-06
ssg194
(dp1863
Vy
F2.4796225999999999
sVx
F7.5102330000000004
sVz
F-0.62959529999999997
ssg196
I00
sg197
(dp1864
g41
VEG SuspectorHCS
p1865
sg43
Nssg200
(lp1866
sg202
(lp1867
(dp1868
g41
VRNG Commonly
p1869
sg43
Nsasg206
I00
sg35
VPT2M18.4405458S
p1870
sg32
VDeath
p1871
sg209
I1
sa(dp1872
g32
VMedal
p1873
sg39
(dp1874
g41
VRNG Victory X
p1875
sg43
Nssg220
I1351381581
sg35
VPT2M18.44157S
p1876
sa(dp1877
g38
I313138863
sg32
VWeaponDrop
p1878
sg234
I23
sg44
(lp1879
I1095363701
asg35
VPT2M18.4425697S
p1880
sg237
I15
sg238
VP0DT0H0M18.5500S
p1881
sg39
(dp1882
g41
VEG SuspectorHCS
p1883
sg43
Nssa(dp1884
g38
I4096745987
sg32
VWeaponDrop
p1885
sg234
I2
sg44
(lp1886
I2758383128
asg35
VPT2M18.4425697S
p1887
sg237
I1
sg238
VP0DT0H0M7.3000S
p1888
sg39
(dp1889
g41
VEG SuspectorHCS
p1890
sg43
Nssa(dp1891
g179
I523953283
sg180
I00
sg181
I00
sg182
(dp1892
g41
VEG Lunchbox HCS
p1893
sg43
Nssg185
(lp1894
I2208825748
asg187
I00
sg188
I01
sg189
I1
sg190
I0
sg191
I1
sg192
(dp1895
Vy
F-1.76816511
sVx
F2.4539182199999998
sVz
F3.784895e-06
ssg194
(dp1896
Vy
F3.4241623899999998
sVx
F0.79033565500000003
sVz
F0.86358094200000002
ssg196
I00
sg197
(dp1897
g41
VRNG Victory X
p1898
sg43
Nssg200
(lp1899
sg202
(lp1900
sg206
I01
sg35
VPT2M18.8905583S
p1901
sg32
VDeath
p1902
sg209
I1
sa(dp1903
g32
VImpulse
p1904
sg39
(dp1905
g41
VEG Lunchbox HCS
p1906
sg43
Nssg214
I3174430457
sg35
VPT2M18.8925802S
p1907
sa(dp1908
g32
VMedal
p1909
sg39
(dp1910
g41
VEG Lunchbox HCS
p1911
sg43
Nssg220
I370413844
sg35
VPT2M18.8935781S
p1912
sa(dp1913
g38
I313138863
sg32
VWeaponDrop
p1914
sg234
I0
sg44
(lp1915
I1095363701
asg35
VPT2M18.8935781S
p1916
sg237
I0
sg238
VP0DT0H0M0.3167S
p1917
sg39
(dp1918
g41
VRNG Victory X
p1919
sg43
Nssa(dp1920
g38
I4096745987
sg32
VWeaponDrop
p1921
sg234
I3
sg44
(lp1922
I2758383128
asg35
VPT2M18.8935781S
p1923
sg237
I1
sg238
VP0DT0H0M5.6000S
p1924
sg39
(dp1925
g41
VRNG Victory X
p1926
sg43
Nssa(dp1927
g179
I523953283
sg180
I00
sg181
I00
sg182
(dp1928
g41
VEG Lunchbox HCS
p1929
sg43
Nssg185
(lp1930
I2208825748
asg187
I00
sg188
I01
sg189
I1
sg190
I0
sg191
I1
sg192
(dp1931
Vy
F-2.0684866899999999
sVx
F2.9341382999999999
sVz
F3.784895e-06
ssg194
(dp1932
Vy
F1.2725323399999999
sVx
F3.4240818000000002
sVz
F0.30863446
ssg196
I00
sg197
(dp1933
g41
VRNG Penguin HCS
p1934
sg43
Nssg200
(lp1935
sg202
(lp1936
(dp1937
g41
VEG Snip3downHCS
p1938
sg43
Nsa(dp1939
g41
VEG Roy HCS
p1940
sg43
Nsasg206
I00
sg35
VPT2M20.7746055S
p1941
sg32
VDeath
p1942
sg209
I1
sa(dp1943
g32
VMedal
p1944
sg39
(dp1945
g41
VEG Lunchbox HCS
p1946
sg43
Nssg220
I2078758684
sg35
VPT2M20.7766292S
p1947
sa(dp1948
g38
I313138863
sg32
VWeaponDrop
p1949
sg234
I6
sg44
(lp1950
I1095363701
asg35
VPT2M20.7766292S
p1951
sg237
I1
sg238
VP0DT0H0M3.8500S
p1952
sg39
(dp1953
g41
VRNG Penguin HCS
p1954
sg43
Nssa(dp1955
g38
I4096745987
sg32
VWeaponDrop
p1956
sg234
I0
sg44
(lp1957
I2758383128
asg35
VPT2M20.7766292S
p1958
sg237
I0
sg238
VP0DT0H0M1.6167S
p1959
sg39
(dp1960
g41
VRNG Penguin HCS
p1961
sg43
Nssa(dp1962
g32
VMedal
p1963
sg39
(dp1964
g41
VEG Roy HCS
p1965
sg43
Nssg220
I3565443938
sg35
VPT2M21.7726615S
p1966
sa(dp1967
g32
VMedal
p1968
sg39
(dp1969
g41
VEG Snip3downHCS
p1970
sg43
Nssg220
I3565443938
sg35
VPT2M21.7726615S
p1971
sa(dp1972
g32
VMedal
p1973
sg39
(dp1974
g41
VEG Lunchbox HCS
p1975
sg43
Nssg220
I1637841390
sg35
VPT2M21.7736319S
p1976
sa(dp1977
g32
VMedal
p1978
sg39
(dp1979
g41
VEG SuspectorHCS
p1980
sg43
Nssg220
I1637841390
sg35
VPT2M21.7736319S
p1981
sa(dp1982
g38
I313138863
sg39
(dp1983
g41
VRNG Commonly
p1984
sg43
Nssg44
(lp1985
I1095363701
asg32
VWeaponPickup
p1986
sg35
VPT2M23.2579011S
p1987
sa(dp1988
g38
I4096745987
sg39
(dp1989
g41
VRNG Commonly
p1990
sg43
Nssg44
(lp1991
I2758383128
asg32
VWeaponPickup
p1992
sg35
VPT2M23.2579011S
p1993
sa(dp1994
g32
VPlayerSpawn
p1995
sg39
(dp1996
g41
VRNG Commonly
p1997
sg43
Nssg35
VPT2M23.2579011S
p1998
sa(dp1999
g38
I313138863
sg39
(dp2000
g41
VRNG Ninja HCS
p2001
sg43
Nssg44
(lp2002
I1095363701
asg32
VWeaponPickup
p2003
sg35
VPT2M23.7576838S
p2004
sa(dp2005
g38
I4096745987
sg39
(dp2006
g41
VRNG Ninja HCS
p2007
sg43
Nssg44
(lp2008
I2758383128
asg32
VWeaponPickup
p2009
sg35
VPT2M23.7576838S
p2010
sa(dp2011
g32
VPlayerSpawn
p2012
sg39
(dp2013
g41
VRNG Ninja HCS
p2014
sg43
Nssg35
VPT2M23.7576838S
p2015
sa(dp2016
g38
I313138863
sg32
VWeaponDrop
p2017
sg234
I0
sg44
(lp2018
I1095363701
asg35
VPT2M26.0887649S
p2019
sg237
I0
sg238
VP0DT0H0M2.4333S
p2020
sg39
(dp2021
g41
VEG Lunchbox HCS
p2022
sg43
Nssa(dp2023
g38
I2278207101
sg39
(dp2024
g41
VEG Lunchbox HCS
p2025
sg43
Nssg44
(lp2026
I2758383128
asg32
VWeaponPickupPad
p2027
sg35
VPT2M26.0897423S
p2028
sa(dp2029
g38
I2278207101
sg39
(dp2030
g41
VEG Lunchbox HCS
p2031
sg43
Nssg44
(lp2032
I2758383128
asg32
VWeaponPickup
p2033
sg35
VPT2M26.0897423S
p2034
sa(dp2035
g38
I313138863
sg39
(dp2036
g41
VEG SuspectorHCS
p2037
sg43
Nssg44
(lp2038
I1095363701
asg32
VWeaponPickup
p2039
sg35
VPT2M26.4577766S
p2040
sa(dp2041
g38
I4096745987
sg39
(dp2042
g41
VEG SuspectorHCS
p2043
sg43
Nssg44
(lp2044
I2758383128
asg32
VWeaponPickup
p2045
sg35
VPT2M26.4577766S
p2046
sa(dp2047
g32
VPlayerSpawn
p2048
sg39
(dp2049
g41
VEG SuspectorHCS
p2050
sg43
Nssg35
VPT2M26.4577766S
p2051
sa(dp2052
g38
I313138863
sg39
(dp2053
g41
VRNG Victory X
p2054
sg43
Nssg44
(lp2055
I1095363701
asg32
VWeaponPickup
p2056
sg35
VPT2M26.9077859S
p2057
sa(dp2058
g38
I4096745987
sg39
(dp2059
g41
VRNG Victory X
p2060
sg43
Nssg44
(lp2061
I2758383128
asg32
VWeaponPickup
p2062
sg35
VPT2M26.9077859S
p2063
sa(dp2064
g32
VPlayerSpawn
p2065
sg39
(dp2066
g41
VRNG Victory X
p2067
sg43
Nssg35
VPT2M26.9077859S
p2068
sa(dp2069
g32
VMedal
p2070
sg39
(dp2071
g41
VRNG Commonly
p2072
sg43
Nssg220
I2916014239
sg35
VPT2M27.7058079S
p2073
sa(dp2074
g179
I4096745987
sg180
I00
sg181
I01
sg182
(dp2075
g41
VRNG Ninja HCS
p2076
sg43
Nssg185
(lp2077
I2758383128
asg187
I00
sg188
I00
sg189
I1
sg190
I0
sg191
I1
sg192
(dp2078
Vy
F11.5972414
sVx
F4.8322510000000003
sVz
F1.9605068000000001
ssg194
(dp2079
Vy
F11.703576099999999
sVx
F4.4906454099999999
sVz
F1.9207018600000001
ssg196
I00
sg197
(dp2080
g41
VEG Snip3downHCS
p2081
sg43
Nssg200
(lp2082
sg202
(lp2083
(dp2084
g41
VRNG Commonly
p2085
sg43
Nsasg206
I00
sg35
VPT2M28.6578082S
p2086
sg32
VDeath
p2087
sg209
I1
sa(dp2088
g32
VMedal
p2089
sg39
(dp2090
g41
VRNG Ninja HCS
p2091
sg43
Nssg220
I2287626681
sg35
VPT2M28.6588317S
p2092
sa(dp2093
g38
I313138863
sg32
VWeaponDrop
p2094
sg234
I10
sg44
(lp2095
I1095363701
asg35
VPT2M28.6588317S
p2096
sg237
I2
sg238
VP0DT0H0M5.2500S
p2097
sg39
(dp2098
g41
VEG Snip3downHCS
p2099
sg43
Nssa(dp2100
g38
I4096745987
sg32
VWeaponDrop
p2101
sg234
I16
sg44
(lp2102
I2758383128
asg35
VPT2M28.659827S
p2103
sg237
I10
sg238
VP0DT0H0M22.4500S
p2104
sg39
(dp2105
g41
VEG Snip3downHCS
p2106
sg43
Nssa(dp2107
g38
I313138863
sg39
(dp2108
g41
VRNG Penguin HCS
p2109
sg43
Nssg44
(lp2110
I1095363701
asg32
VWeaponPickup
p2111
sg35
VPT2M28.7908349S
p2112
sa(dp2113
g38
I4096745987
sg39
(dp2114
g41
VRNG Penguin HCS
p2115
sg43
Nssg44
(lp2116
I2758383128
asg32
VWeaponPickup
p2117
sg35
VPT2M28.7908349S
p2118
sa(dp2119
g32
VPlayerSpawn
p2120
sg39
(dp2121
g41
VRNG Penguin HCS
p2122
sg43
Nssg35
VPT2M28.7908349S
p2123
sa(dp2124
g179
I2278207101
sg180
I00
sg181
I00
sg182
(dp2125
g41
VEG Lunchbox HCS
p2126
sg43
Nssg185
(lp2127
I2758383128
asg187
I00
sg188
I01
sg189
I1
sg190
I0
sg191
I1
sg192
(dp2128
Vy
F6.1883920000000003
sVx
F0.234910116
sVz
F2.26210523
ssg194
(dp2129
Vy
F12.6639137
sVx
F8.4597630000000006
sVz
F0.79999876000000003
ssg196
I00
sg197
(dp2130
g41
VRNG Ninja HCS
p2131
sg43
Nssg200
(lp2132
sg202
(lp2133
sg206
I00
sg35
VPT2M30.508123S
p2134
sg32
VDeath
p2135
sg209
I1
sa(dp2136
g38
I313138863
sg32
VWeaponDrop
p2137
sg234
I0
sg44
(lp2138
I1095363701
asg35
VPT2M30.5098784S
p2139
sg237
I0
sg238
VP0DT0H0M2.0000S
p2140
sg39
(dp2141
g41
VRNG Ninja HCS
p2142
sg43
Nssa(dp2143
g38
I4096745987
sg32
VWeaponDrop
p2144
sg234
I1
sg44
(lp2145
I2758383128
asg35
VPT2M30.5098784S
p2146
sg237
I0
sg238
VP0DT0H0M4.7500S
p2147
sg39
(dp2148
g41
VRNG Ninja HCS
p2149
sg43
Nssa(dp2150
g179
I4096745987
sg180
I00
sg181
I00
sg182
(dp2151
g41
VRNG Commonly
p2152
sg43
Nssg185
(lp2153
I2758383128
asg187
I00
sg188
I01
sg189
I1
sg190
I0
sg191
I1
sg192
(dp2154
Vy
F14.757989999999999
sVx
F14.2772875
sVz
F1.9997112800000001
ssg194
(dp2155
Vy
F7.402075
sVx
F16.207622499999999
sVz
F1.6004908099999999
ssg196
I00
sg197
(dp2156
g41
VEG Roy HCS
p2157
sg43
Nssg200
(lp2158
sg202
(lp2159
(dp2160
g41
VRNG Victory X
p2161
sg43
Nsasg206
I01
sg35
VPT2M34.1569481S
p2162
sg32
VDeath
p2163
sg209
I1
sa(dp2164
g32
VMedal
p2165
sg39
(dp2166
g41
VRNG Commonly
p2167
sg43
Nssg220
I3261908037
sg35
VPT2M34.1579729S
p2168
sa(dp2169
g38
I313138863
sg32
VWeaponDrop
p2170
sg234
I27
sg44
(lp2171
I1095363701
asg35
VPT2M34.1589753S
p2172
sg237
I10
sg238
VP0DT0H0M7.9333S
p2173
sg39
(dp2174
g41
VEG Roy HCS
p2175
sg43
Nssa(dp2176
g38
I4096745987
sg32
VWeaponDrop
p2177
sg234
I16
sg44
(lp2178
I2758383128
asg35
VPT2M34.1589753S
p2179
sg237
I9
sg238
VP0DT0H0M26.9833S
p2180
sg39
(dp2181
g41
VEG Roy HCS
p2182
sg43
Nssa(dp2183
g38
I313138863
sg39
(dp2184
g41
VEG Snip3downHCS
p2185
sg43
Nssg44
(lp2186
I1095363701
asg32
VWeaponPickup
p2187
sg35
VPT2M36.6740338S
p2188
sa(dp2189
g38
I4096745987
sg39
(dp2190
g41
VEG Snip3downHCS
p2191
sg43
Nssg44
(lp2192
I2758383128
asg32
VWeaponPickup
p2193
sg35
VPT2M36.6740338S
p2194
sa(dp2195
g32
VPlayerSpawn
p2196
sg39
(dp2197
g41
VEG Snip3downHCS
p2198
sg43
Nssg35
VPT2M36.6740338S
p2199
sa(dp2200
g38
I313138863
sg39
(dp2201
g41
VRNG Ninja HCS
p2202
sg43
Nssg44
(lp2203
I1095363701
asg32
VWeaponPickup
p2204
sg35
VPT2M38.5250802S
p2205
sa(dp2206
g38
I4096745987
sg39
(dp2207
g41
VRNG Ninja HCS
p2208
sg43
Nssg44
(lp2209
I2758383128
asg32
VWeaponPickup
p2210
sg35
VPT2M38.5250802S
p2211
sa(dp2212
g32
VPlayerSpawn
p2213
sg39
(dp2214
g41
VRNG Ninja HCS
p2215
sg43
Nssg35
VPT2M38.5250802S
p2216
sa(dp2217
g179
I313138863
sg180
I00
sg181
I00
sg182
(dp2218
g41
VRNG Commonly
p2219
sg43
Nssg185
(lp2220
I1095363701
asg187
I00
sg188
I01
sg189
I1
sg190
I0
sg191
I1
sg192
(dp2221
Vy
F12.5453262
sVx
F9.0357210000000006
sVz
F0.79999876000000003
ssg194
(dp2222
Vy
F12.6892519
sVx
F5.6533819999999997
sVz
F0.9095299
ssg196
I00
sg197
(dp2223
g41
VEG Lunchbox HCS
p2224
sg43
Nssg200
(lp2225
sg202
(lp2226
sg206
I00
sg35
VPT2M41.3741328S
p2227
sg32
VDeath
p2228
sg209
I1
sa(dp2229
g32
VMedal
p2230
sg39
(dp2231
g41
VRNG Commonly
p2232
sg43
Nssg220
I1351381581
sg35
VPT2M41.3751525S
p2233
sa(dp2234
g32
VMedal
p2235
sg39
(dp2236
g41
VRNG Commonly
p2237
sg43
Nssg220
I2916014239
sg35
VPT2M41.3761579S
p2238
sa(dp2239
g38
I2278207101
sg32
VWeaponDrop
p2240
sg234
I50
sg44
(lp2241
I2758383128
asg35
VPT2M41.3761579S
p2242
sg237
I19
sg238
VP0DT0H0M15.2833S
p2243
sg39
(dp2244
g41
VEG Lunchbox HCS
p2245
sg43
Nssa(dp2246
g38
I523953283
sg32
VWeaponDrop
p2247
sg234
I14
sg44
(lp2248
I2208825748
asg35
VPT2M41.3761579S
p2249
sg237
I9
sg238
VP0DT0H0M20.0000S
p2250
sg39
(dp2251
g41
VEG Lunchbox HCS
p2252
sg43
Nssa(dp2253
g38
I313138863
sg39
(dp2254
g41
VEG Roy HCS
p2255
sg43
Nssg44
(lp2256
I1095363701
asg32
VWeaponPickup
p2257
sg35
VPT2M42.1741809S
p2258
sa(dp2259
g38
I4096745987
sg39
(dp2260
g41
VEG Roy HCS
p2261
sg43
Nssg44
(lp2262
I2758383128
asg32
VWeaponPickup
p2263
sg35
VPT2M42.1741809S
p2264
sa(dp2265
g32
VPlayerSpawn
p2266
sg39
(dp2267
g41
VEG Roy HCS
p2268
sg43
Nssg35
VPT2M42.1741809S
p2269
sa(dp2270
g38
I2492868984
sg39
(dp2271
g41
VRNG Victory X
p2272
sg43
Nssg44
(lp2273
I2758383128
asg32
VWeaponPickup
p2274
sg35
VPT2M44.7902196S
p2275
sa(dp2276
g38
I2492868984
sg32
VWeaponDrop
p2277
sg234
I0
sg44
(lp2278
I2758383128
asg35
VPT2M45.9412503S
p2279
sg237
I0
sg238
VP0DT0H0M1.0000S
p2280
sg39
(dp2281
g41
VRNG Victory X
p2282
sg43
Nssa(dp2283
g179
I313138863
sg180
I00
sg181
I00
sg182
(dp2284
g41
VEG Snip3downHCS
p2285
sg43
Nssg185
(lp2286
I1095363701
asg187
I00
sg188
I01
sg189
I1
sg190
I0
sg191
I1
sg192
(dp2287
Vy
F7.4627823800000002
sVx
F9.2265499999999996
sVz
F-4.2319299999999996e-06
ssg194
(dp2288
Vy
F4.9348287600000003
sVx
F4.5764555900000001
sVz
F3.8146972699999997e-06
ssg196
I00
sg197
(dp2289
g41
VRNG Commonly
p2290
sg43
Nssg200
(lp2291
sg202
(lp2292
sg206
I00
sg35
VPT2M49.0573291S
p2293
sg32
VDeath
p2294
sg209
I1
sa(dp2295
g38
I313138863
sg32
VWeaponDrop
p2296
sg234
I28
sg44
(lp2297
I1095363701
asg35
VPT2M49.0593309S
p2298
sg237
I14
sg238
VP0DT0H0M9.4500S
p2299
sg39
(dp2300
g41
VRNG Commonly
p2301
sg43
Nssa(dp2302
g38
I4096745987
sg32
VWeaponDrop
p2303
sg234
I13
sg44
(lp2304
I2758383128
asg35
VPT2M49.0593309S
p2305
sg237
I6
sg238
VP0DT0H0M16.3500S
p2306
sg39
(dp2307
g41
VRNG Commonly
p2308
sg43
Nssa(dp2309
g38
I313138863
sg39
(dp2310
g41
VEG Lunchbox HCS
p2311
sg43
Nssg44
(lp2312
I1095363701
asg32
VWeaponPickup
p2313
sg35
VPT2M49.39134S
p2314
sa(dp2315
g38
I4096745987
sg39
(dp2316
g41
VEG Lunchbox HCS
p2317
sg43
Nssg44
(lp2318
I2758383128
asg32
VWeaponPickup
p2319
sg35
VPT2M49.3923611S
p2320
sa(dp2321
g32
VPlayerSpawn
p2322
sg39
(dp2323
g41
VEG Lunchbox HCS
p2324
sg43
Nssg35
VPT2M49.3923611S
p2325
sa(dp2326
g38
I313138863
sg32
VWeaponDrop
p2327
sg234
I21
sg44
(lp2328
I1095363701
asg35
VPT2M52.1724321S
p2329
sg237
I14
sg238
VP0DT0H0M9.8667S
p2330
sg39
(dp2331
g41
VEG Snip3downHCS
p2332
sg43
Nssa(dp2333
g38
I2278207101
sg39
(dp2334
g41
VEG Snip3downHCS
p2335
sg43
Nssg44
(lp2336
I2758383128
asg32
VWeaponPickup
p2337
sg35
VPT2M52.1724321S
p2338
sa(dp2339
g179
I4096745987
sg180
I00
sg181
I00
sg182
(dp2340
g41
VRNG Victory X
p2341
sg43
Nssg185
(lp2342
I2758383128
asg187
I00
sg188
I01
sg189
I1
sg190
I0
sg191
I1
sg192
(dp2343
Vy
F-12.9907837
sVx
F11.5165825
sVz
F0.79999864099999995
ssg194
(dp2344
Vy
F-12.0281267
sVx
F5.0923724200000002
sVz
F0.87357209999999996
ssg196
I00
sg197
(dp2345
g41
VEG Roy HCS
p2346
sg43
Nssg200
(lp2347
sg202
(lp2348
(dp2349
g41
VRNG Ninja HCS
p2350
sg43
Nsasg206
I01
sg35
VPT2M52.6734222S
p2351
sg32
VDeath
p2352
sg209
I1
sa(dp2353
g32
VMedal
p2354
sg39
(dp2355
g41
VRNG Victory X
p2356
sg43
Nssg220
I3261908037
sg35
VPT2M52.6764415S
p2357
sa(dp2358
g38
I313138863
sg32
VWeaponDrop
p2359
sg234
I3
sg44
(lp2360
I1095363701
asg35
VPT2M52.6774462S
p2361
sg237
I0
sg238
VP0DT0H0M6.8167S
p2362
sg39
(dp2363
g41
VEG Roy HCS
p2364
sg43
Nssa(dp2365
g38
I4096745987
sg32
VWeaponDrop
p2366
sg234
I0
sg44
(lp2367
I2758383128
asg35
VPT2M52.6774462S
p2368
sg237
I0
sg238
VP0DT0H0M3.6833S
p2369
sg39
(dp2370
g41
VEG Roy HCS
p2371
sg43
Nssa(dp2372
g32
VMedal
p2373
sg39
(dp2374
g41
VRNG Ninja HCS
p2375
sg43
Nssg220
I3565443938
sg35
VPT2M53.6894484S
p2376
sa(dp2377
g32
VMedal
p2378
sg39
(dp2379
g41
VRNG Victory X
p2380
sg43
Nssg220
I3565443938
sg35
VPT2M53.6894484S
p2381
sa(dp2382
g179
I313138863
sg180
I00
sg181
I00
sg182
(dp2383
g41
VEG SuspectorHCS
p2384
sg43
Nssg185
(lp2385
I1095363701
asg187
I00
sg188
I01
sg189
I1
sg190
I0
sg191
I1
sg192
(dp2386
Vy
F-1.6896708
sVx
F13.029764200000001
sVz
F1.3992850800000001
ssg194
(dp2387
Vy
F-1.2627037800000001
sVx
F17.681571999999999
sVz
F1.06904256
ssg196
I00
sg197
(dp2388
g41
VRNG Penguin HCS
p2389
sg43
Nssg200
(lp2390
sg202
(lp2391
sg206
I00
sg35
VPT2M54.4234668S
p2392
sg32
VDeath
p2393
sg209
I1
sa(dp2394
g38
I313138863
sg32
VWeaponDrop
p2395
sg234
I31
sg44
(lp2396
I1095363701
asg35
VPT2M54.4244866S
p2397
sg237
I7
sg238
VP0DT0H0M12.2667S
p2398
sg39
(dp2399
g41
VRNG Penguin HCS
p2400
sg43
Nssa(dp2401
g38
I4096745987
sg32
VWeaponDrop
p2402
sg234
I8
sg44
(lp2403
I2758383128
asg35
VPT2M54.4244866S
p2404
sg237
I3
sg238
VP0DT0H0M13.3667S
p2405
sg39
(dp2406
g41
VRNG Penguin HCS
p2407
sg43
Nssa(dp2408
g38
I313138863
sg39
(dp2409
g41
VRNG Commonly
p2410
sg43
Nssg44
(lp2411
I1095363701
asg32
VWeaponPickup
p2412
sg35
VPT2M57.0735353S
p2413
sa(dp2414
g38
I4096745987
sg39
(dp2415
g41
VRNG Commonly
p2416
sg43
Nssg44
(lp2417
I2758383128
asg32
VWeaponPickup
p2418
sg35
VPT2M57.0745558S
p2419
sa(dp2420
g32
VPlayerSpawn
p2421
sg39
(dp2422
g41
VRNG Commonly
p2423
sg43
Nssg35
VPT2M57.0745558S
p2424
sa(dp2425
g179
I4096745987
sg180
I00
sg181
I00
sg182
(dp2426
g41
VRNG Victory X
p2427
sg43
Nssg185
(lp2428
I2758383128
asg187
I00
sg188
I01
sg189
I1
sg190
I0
sg191
I1
sg192
(dp2429
Vy
F-1.5815424899999999
sVx
F17.4833164
sVz
F0.80058014399999999
ssg194
(dp2430
Vy
F-3.5523380000000002
sVx
F14.79303
sVz
F1.8376967900000001
ssg196
I00
sg197
(dp2431
g41
VEG SuspectorHCS
p2432
sg43
Nssg200
(lp2433
sg202
(lp2434
sg206
I00
sg35
VPT3M0.4896465S
p2435
sg32
VDeath
p2436
sg209
I1
sa(dp2437
g32
VMedal
p2438
sg39
(dp2439
g41
VRNG Victory X
p2440
sg43
Nssg220
I3698887726
sg35
VPT3M0.4916469S
p2441
sa(dp2442
g38
I4096745987
sg32
VWeaponDrop
p2443
sg234
I12
sg44
(lp2444
I2758383128
asg35
VPT3M0.4916469S
p2445
sg237
I8
sg238
VP0DT0H0M16.2167S
p2446
sg39
(dp2447
g41
VEG SuspectorHCS
p2448
sg43
Nssa(dp2449
g38
I313138863
sg32
VWeaponDrop
p2450
sg234
I38
sg44
(lp2451
I1095363701
asg35
VPT3M0.4926467S
p2452
sg237
I9
sg238
VP0DT0H0M17.8167S
p2453
sg39
(dp2454
g41
VEG SuspectorHCS
p2455
sg43
Nssa(dp2456
g38
I313138863
sg39
(dp2457
g41
VEG Roy HCS
p2458
sg43
Nssg44
(lp2459
I1095363701
asg32
VWeaponPickup
p2460
sg35
VPT3M0.6906609S
p2461
sa(dp2462
g38
I4096745987
sg39
(dp2463
g41
VEG Roy HCS
p2464
sg43
Nssg44
(lp2465
I2758383128
asg32
VWeaponPickup
p2466
sg35
VPT3M0.6906609S
p2467
sa(dp2468
g32
VPlayerSpawn
p2469
sg39
(dp2470
g41
VEG Roy HCS
p2471
sg43
Nssg35
VPT3M0.6906609S
p2472
sa(dp2473
g32
VMedal
p2474
sg39
(dp2475
g41
VEG Snip3downHCS
p2476
sg43
Nssg220
I3565443938
sg35
VPT3M1.3556752S
p2477
sa(dp2478
g38
I313138863
sg39
(dp2479
g41
VRNG Penguin HCS
p2480
sg43
Nssg44
(lp2481
I1095363701
asg32
VWeaponPickup
p2482
sg35
VPT3M2.440701S
p2483
sa(dp2484
g38
I4096745987
sg39
(dp2485
g41
VRNG Penguin HCS
p2486
sg43
Nssg44
(lp2487
I2758383128
asg32
VWeaponPickup
p2488
sg35
VPT3M2.440701S
p2489
sa(dp2490
g32
VPlayerSpawn
p2491
sg39
(dp2492
g41
VRNG Penguin HCS
p2493
sg43
Nssg35
VPT3M2.440701S
p2494
sa(dp2495
g179
I313138863
sg180
I00
sg181
I01
sg182
(dp2496
g41
VRNG Victory X
p2497
sg43
Nssg185
(lp2498
I1095363701
asg187
I00
sg188
I00
sg189
I1
sg190
I0
sg191
I1
sg192
(dp2499
Vy
F1.35164928
sVx
F8.5921699999999994
sVz
F2.3018424500000001
ssg194
(dp2500
Vy
F1.7676873200000001
sVx
F8.4940169999999995
sVz
F2.2955493900000001
ssg196
I00
sg197
(dp2501
g41
VEG Lunchbox HCS
p2502
sg43
Nssg200
(lp2503
sg202
(lp2504
sg206
I00
sg35
VPT3M7.5068017S
p2505
sg32
VDeath
p2506
sg209
I1
sa(dp2507
g32
VMedal
p2508
sg39
(dp2509
g41
VRNG Victory X
p2510
sg43
Nssg220
I2287626681
sg35
VPT3M7.5078212S
p2511
sa(dp2512
g38
I313138863
sg32
VWeaponDrop
p2513
sg234
I0
sg44
(lp2514
I1095363701
asg35
VPT3M7.5078212S
p2515
sg237
I0
sg238
VP0DT0H0M6.0667S
p2516
sg39
(dp2517
g41
VEG Lunchbox HCS
p2518
sg43
Nssa(dp2519
g38
I4096745987
sg32
VWeaponDrop
p2520
sg234
I6
sg44
(lp2521
I2758383128
asg35
VPT3M7.5088274S
p2522
sg237
I5
sg238
VP0DT0H0M12.0500S
p2523
sg39
(dp2524
g41
VEG Lunchbox HCS
p2525
sg43
Nssa(dp2526
g179
I4106030681
sg180
I00
sg181
I00
sg182
(dp2527
g41
VRNG Commonly
p2528
sg43
Nssg185
(lp2529
sg187
I00
sg188
I00
sg189
I2
sg190
I0
sg191
I0
sg192
(dp2530
Vy
F6.2063136099999996
sVx
F-0.460014969
sVz
F2.37878013
ssg194
(dp2531
Vy
F11.912474599999999
sVx
F8.0804670000000005
sVz
F0.80117110000000002
ssg196
I00
sg197
(dp2532
g521
g522
ssg200
(lp2533
sg202
(lp2534
sg206
I00
sg35
VPT3M7.9738139S
p2535
sg32
VDeath
p2536
sg209
I1
sa(dp2537
g179
I4106030681
sg180
I00
sg181
I00
sg182
(dp2538
g41
VRNG Commonly
p2539
sg43
Nssg185
(lp2540
sg187
I00
sg188
I01
sg189
I1
sg190
I0
sg191
I1
sg192
(dp2541
Vy
F6.2063136099999996
sVx
F-0.460014969
sVz
F2.37878013
ssg194
(dp2542
Vy
F12.684583699999999
sVx
F9.088673
sVz
F0.79999876000000003
ssg196
I00
sg197
(dp2543
g41
VEG Snip3downHCS
p2544
sg43
Nssg200
(lp2545
sg202
(lp2546
(dp2547
g41
VRNG Victory X
p2548
sg43
Nsa(dp2549
g41
VRNG Ninja HCS
p2550
sg43
Nsasg206
I00
sg35
VPT3M7.9738139S
p2551
sg32
VDeath
p2552
sg209
I1
sa(dp2553
g38
I2278207101
sg32
VWeaponDrop
p2554
sg234
I13
sg44
(lp2555
I2758383128
asg35
VPT3M7.9768339S
p2556
sg237
I9
sg238
VP0DT0H0M3.3000S
p2557
sg39
(dp2558
g41
VEG Snip3downHCS
p2559
sg43
Nssa(dp2560
g38
I4096745987
sg32
VWeaponDrop
p2561
sg234
I0
sg44
(lp2562
I2758383128
asg35
VPT3M7.9768339S
p2563
sg237
I0
sg238
VP0DT0H0M18.1333S
p2564
sg39
(dp2565
g41
VEG Snip3downHCS
p2566
sg43
Nssa(dp2567
g179
I4096745987
sg180
I00
sg181
I00
sg182
(dp2568
g41
VRNG Commonly
p2569
sg43
Nssg185
(lp2570
I2758383128
asg187
I00
sg188
I01
sg189
I1
sg190
I0
sg191
I1
sg192
(dp2571
Vy
F7.3564939999999996
sVx
F-0.77868119999999996
sVz
F2.1791619999999998
ssg194
(dp2572
Vy
F5.6452484099999998
sVx
F0.1931243
sVz
F2.403092
ssg196
I00
sg197
(dp2573
g41
VEG Roy HCS
p2574
sg43
Nssg200
(lp2575
sg202
(lp2576
sg206
I01
sg35
VPT3M8.3078432S
p2577
sg32
VDeath
p2578
sg209
I1
sa(dp2579
g32
VMedal
p2580
sg39
(dp2581
g41
VRNG Commonly
p2582
sg43
Nssg220
I2782465081
sg35
VPT3M8.3098253S
p2583
sa(dp2584
g32
VMedal
p2585
sg39
(dp2586
g41
VRNG Commonly
p2587
sg43
Nssg220
I3261908037
sg35
VPT3M8.310825S
p2588
sa(dp2589
g32
VMedal
p2590
sg39
(dp2591
g41
VRNG Commonly
p2592
sg43
Nssg220
I2078758684
sg35
VPT3M8.310825S
p2593
sa(dp2594
g38
I313138863
sg32
VWeaponDrop
p2595
sg234
I0
sg44
(lp2596
I1095363701
asg35
VPT3M8.3118403S
p2597
sg237
I0
sg238
VP0DT0H0M0.7500S
p2598
sg39
(dp2599
g41
VEG Roy HCS
p2600
sg43
Nssa(dp2601
g38
I4096745987
sg32
VWeaponDrop
p2602
sg234
I6
sg44
(lp2603
I2758383128
asg35
VPT3M8.3118403S
p2604
sg237
I3
sg238
VP0DT0H0M6.8667S
p2605
sg39
(dp2606
g41
VEG Roy HCS
p2607
sg43
Nssa(dp2608
g38
I313138863
sg39
(dp2609
g41
VEG SuspectorHCS
p2610
sg43
Nssg44
(lp2611
I1095363701
asg32
VWeaponPickup
p2612
sg35
VPT3M8.5068505S
p2613
sa(dp2614
g38
I4096745987
sg39
(dp2615
g41
VEG SuspectorHCS
p2616
sg43
Nssg44
(lp2617
I2758383128
asg32
VWeaponPickup
p2618
sg35
VPT3M8.507853S
p2619
sa(dp2620
g32
VPlayerSpawn
p2621
sg39
(dp2622
g41
VEG SuspectorHCS
p2623
sg43
Nssg35
VPT3M8.507853S
p2624
sa(dp2625
g38
I313138863
sg32
VWeaponDrop
p2626
sg234
I0
sg44
(lp2627
I1095363701
asg35
VPT3M10.0388654S
p2628
sg237
I0
sg238
VP0DT0H0M1.8500S
p2629
sg39
(dp2630
g41
VRNG Penguin HCS
p2631
sg43
Nssa(dp2632
g38
I524558978
sg39
(dp2633
g41
VRNG Penguin HCS
p2634
sg43
Nssg44
(lp2635
I2758383128
asg32
VWeaponPickup
p2636
sg35
VPT3M10.0388654S
p2637
sa(dp2638
g32
VMedal
p2639
sg39
(dp2640
g41
VRNG Ninja HCS
p2641
sg43
Nssg220
I3565443938
sg35
VPT3M10.2728977S
p2642
sa(dp2643
g32
VMedal
p2644
sg39
(dp2645
g41
VRNG Penguin HCS
p2646
sg43
Nssg220
I3565443938
sg35
VPT3M10.2728977S
p2647
sa(dp2648
g32
VMedal
p2649
sg39
(dp2650
g41
VRNG Victory X
p2651
sg43
Nssg220
I3565443938
sg35
VPT3M10.2728977S
p2652
sa(dp2653
g179
I313138863
sg180
I00
sg181
I00
sg182
(dp2654
g41
VEG SuspectorHCS
p2655
sg43
Nssg185
(lp2656
I1095363701
asg187
I00
sg188
I00
sg189
I2
sg190
I0
sg191
I0
sg192
(dp2657
Vy
F-15.3370438
sVx
F8.8663460000000001
sVz
F0.79999869999999995
ssg194
(dp2658
Vy
F-11.902035700000001
sVx
F8.0828129999999998
sVz
F0.80104129999999996
ssg196
I00
sg197
(dp2659
g521
g522
ssg200
(lp2660
sg202
(lp2661
sg206
I00
sg35
VPT3M14.2739742S
p2662
sg32
VDeath
p2663
sg209
I1
sa(dp2664
g32
VMedal
p2665
sg39
(dp2666
g41
VRNG Penguin HCS
p2667
sg43
Nssg220
I2916014239
sg35
VPT3M15.0559957S
p2668
sa(dp2669
g38
I4096745987
sg32
VWeaponDrop
p2670
sg234
I27
sg44
(lp2671
I2758383128
asg35
VPT3M15.1720204S
p2672
sg237
I11
sg238
VP0DT0H0M43.3333S
p2673
sg39
(dp2674
g41
VRNG Victory X
p2675
sg43
Nssa(dp2676
g38
I523953283
sg39
(dp2677
g41
VRNG Victory X
p2678
sg43
Nssg44
(lp2679
I2208825748
asg32
VWeaponPickup
p2680
sg35
VPT3M15.1720204S
p2681
sa(dp2682
g38
I313138863
sg39
(dp2683
g41
VEG Lunchbox HCS
p2684
sg43
Nssg44
(lp2685
I1095363701
asg32
VWeaponPickup
p2686
sg35
VPT3M15.5240275S
p2687
sa(dp2688
g38
I4096745987
sg39
(dp2689
g41
VEG Lunchbox HCS
p2690
sg43
Nssg44
(lp2691
I2758383128
asg32
VWeaponPickup
p2692
sg35
VPT3M15.5240275S
p2693
sa(dp2694
g32
VPlayerSpawn
p2695
sg39
(dp2696
g41
VEG Lunchbox HCS
p2697
sg43
Nssg35
VPT3M15.5240275S
p2698
sa(dp2699
g38
I313138863
sg39
(dp2700
g41
VEG Snip3downHCS
p2701
sg43
Nssg44
(lp2702
I1095363701
asg32
VWeaponPickup
p2703
sg35
VPT3M15.9900432S
p2704
sa(dp2705
g38
I4096745987
sg39
(dp2706
g41
VEG Snip3downHCS
p2707
sg43
Nssg44
(lp2708
I2758383128
asg32
VWeaponPickup
p2709
sg35
VPT3M15.9900432S
p2710
sa(dp2711
g32
VPlayerSpawn
p2712
sg39
(dp2713
g41
VEG Snip3downHCS
p2714
sg43
Nssg35
VPT3M15.9900432S
p2715
sa(dp2716
g38
I313138863
sg39
(dp2717
g41
VEG Roy HCS
p2718
sg43
Nssg44
(lp2719
I1095363701
asg32
VWeaponPickup
p2720
sg35
VPT3M16.3230273S
p2721
sa(dp2722
g38
I4096745987
sg39
(dp2723
g41
VEG Roy HCS
p2724
sg43
Nssg44
(lp2725
I2758383128
asg32
VWeaponPickup
p2726
sg35
VPT3M16.3240514S
p2727
sa(dp2728
g32
VPlayerSpawn
p2729
sg39
(dp2730
g41
VEG Roy HCS
p2731
sg43
Nssg35
VPT3M16.3240514S
p2732
sa(dp2733
g32
VMedal
p2734
sg39
(dp2735
g41
VRNG Commonly
p2736
sg43
Nssg220
I3565443938
sg35
VPT3M22.4891852S
p2737
sa(dp2738
g32
VMedal
p2739
sg39
(dp2740
g41
VRNG Penguin HCS
p2741
sg43
Nssg220
I2105198095
sg35
VPT3M22.4891852S
p2742
sa(dp2743
g32
VMedal
p2744
sg39
(dp2745
g41
VRNG Commonly
p2746
sg43
Nssg220
I2105198095
sg35
VPT3M22.4891852S
p2747
sa(dp2748
g32
VMedal
p2749
sg39
(dp2750
g41
VRNG Ninja HCS
p2751
sg43
Nssg220
I2105198095
sg35
VPT3M22.4891852S
p2752
sa(dp2753
g32
VMedal
p2754
sg39
(dp2755
g41
VRNG Victory X
p2756
sg43
Nssg220
I2105198095
sg35
VPT3M22.4891852S
p2757
sa(dp2758
g32
VMedal
p2759
sg39
(dp2760
g41
VRNG Victory X
p2761
sg43
Nssg220
I1637841390
sg35
VPT3M22.4891852S
p2762
sa(dp2763
g179
I313138863
sg180
I00
sg181
I00
sg182
(dp2764
g41
VEG SuspectorHCS
p2765
sg43
Nssg185
(lp2766
I1095363701
asg187
I00
sg188
I01
sg189
I1
sg190
I0
sg191
I1
sg192
(dp2767
Vy
F-14.376238799999999
sVx
F8.66934
sVz
F1.4752006499999999
ssg194
(dp2768
Vy
F-13.595806100000001
sVx
F2.9009242099999999
sVz
F-4.1425230000000001e-06
ssg196
I00
sg197
(dp2769
g41
VRNG Penguin HCS
p2770
sg43
Nssg200
(lp2771
sg202
(lp2772
(dp2773
g41
VEG Lunchbox HCS
p2774
sg43
Nsasg206
I00
sg35
VPT3M25.0232503S
p2775
sg32
VDeath
p2776
sg209
I1
sa(dp2777
g38
I524558978
sg32
VWeaponDrop
p2778
sg234
I1
sg44
(lp2779
I2758383128
asg35
VPT3M25.0252524S
p2780
sg237
I0
sg238
VP0DT0H0M9.8333S
p2781
sg39
(dp2782
g41
VRNG Penguin HCS
p2783
sg43
Nssa(dp2784
g38
I4096745987
sg32
VWeaponDrop
p2785
sg234
I9
sg44
(lp2786
I2758383128
asg35
VPT3M25.0252524S
p2787
sg237
I1
sg238
VP0DT0H0M10.9000S
p2788
sg39
(dp2789
g41
VRNG Penguin HCS
p2790
sg43
Nssa(dp2791
g32
VMedal
p2792
sg39
(dp2793
g41
VRNG Victory X
p2794
sg43
Nssg220
I2916014239
sg35
VPT3M28.2053496S
p2795
sa(dp2796
g32
VMedal
p2797
sg39
(dp2798
g41
VEG Lunchbox HCS
p2799
sg43
Nssg220
I3565443938
sg35
VPT3M28.92235S
p2800
sa(dp2801
g32
VMedal
p2802
sg39
(dp2803
g41
VEG SuspectorHCS
p2804
sg43
Nssg220
I3565443938
sg35
VPT3M28.92235S
p2805
sa(dp2806
g38
I313138863
sg39
(dp2807
g41
VRNG Penguin HCS
p2808
sg43
Nssg44
(lp2809
I1095363701
asg32
VWeaponPickup
p2810
sg35
VPT3M33.0404789S
p2811
sa(dp2812
g38
I4096745987
sg39
(dp2813
g41
VRNG Penguin HCS
p2814
sg43
Nssg44
(lp2815
I2758383128
asg32
VWeaponPickup
p2816
sg35
VPT3M33.0424746S
p2817
sa(dp2818
g32
VPlayerSpawn
p2819
sg39
(dp2820
g41
VRNG Penguin HCS
p2821
sg43
Nssg35
VPT3M33.0424746S
p2822
sa(dp2823
g32
VMedal
p2824
sg39
(dp2825
g41
VRNG Ninja HCS
p2826
sg43
Nssg220
I2916014239
sg35
VPT3M35.3885225S
p2827
sa(dp2828
g179
I4096745987
sg180
I00
sg181
I00
sg182
(dp2829
g41
VEG Lunchbox HCS
p2830
sg43
Nssg185
(lp2831
I2758383128
asg187
I00
sg188
I01
sg189
I1
sg190
I0
sg191
I1
sg192
(dp2832
Vy
F-7.8841924700000003
sVx
F5.8785395600000001
sVz
F3.784895e-06
ssg194
(dp2833
Vy
F-1.6914857599999999
sVx
F2.3264491600000001
sVz
F3.8146972699999997e-06
ssg196
I00
sg197
(dp2834
g41
VRNG Ninja HCS
p2835
sg43
Nssg200
(lp2836
sg202
(lp2837
sg206
I01
sg35
VPT3M36.0065328S
p2838
sg32
VDeath
p2839
sg209
I1
sa(dp2840
g32
VImpulse
p2841
sg39
(dp2842
g41
VEG Lunchbox HCS
p2843
sg43
Nssg214
I3174430457
sg35
VPT3M36.0075434S
p2844
sa(dp2845
g32
VMedal
p2846
sg39
(dp2847
g41
VEG Lunchbox HCS
p2848
sg43
Nssg220
I3653057799
sg35
VPT3M36.0085571S
p2849
sa(dp2850
g38
I313138863
sg32
VWeaponDrop
p2851
sg234
I21
sg44
(lp2852
I1095363701
asg35
VPT3M36.0085571S
p2853
sg237
I6
sg238
VP0DT0H0M13.0500S
p2854
sg39
(dp2855
g41
VRNG Ninja HCS
p2856
sg43
Nssa(dp2857
g38
I4096745987
sg32
VWeaponDrop
p2858
sg234
I25
sg44
(lp2859
I2758383128
asg35
VPT3M36.0085571S
p2860
sg237
I13
sg238
VP0DT0H0M44.4333S
p2861
sg39
(dp2862
g41
VRNG Ninja HCS
p2863
sg43
Nssa(dp2864
g179
I4106030681
sg180
I00
sg181
I00
sg182
(dp2865
g41
VEG Lunchbox HCS
p2866
sg43
Nssg185
(lp2867
sg187
I00
sg188
I00
sg189
I2
sg190
I0
sg191
I0
sg192
(dp2868
Vy
F-8.1276410000000006
sVx
F2.7376074799999999
sVz
F3.7550926200000002e-06
ssg194
(dp2869
Vy
F-1.6206130999999999
sVx
F-0.49885004799999999
sVz
F0.420657367
ssg196
I00
sg197
(dp2870
g521
g522
ssg200
(lp2871
sg202
(lp2872
sg206
I00
sg35
VPT3M38.6406232S
p2873
sg32
VDeath
p2874
sg209
I1
sa(dp2875
g179
I4096745987
sg180
I00
sg181
I01
sg182
(dp2876
g41
VRNG Commonly
p2877
sg43
Nssg185
(lp2878
I2758383128
asg187
I00
sg188
I00
sg189
I1
sg190
I0
sg191
I1
sg192
(dp2879
Vy
F-0.359442174
sVx
F-3.6387355299999999
sVz
F0.5908563
ssg194
(dp2880
Vy
F-0.40078750000000002
sVx
F-3.2943910000000001
sVz
F0.502480865
ssg196
I00
sg197
(dp2881
g41
VEG Lunchbox HCS
p2882
sg43
Nssg200
(lp2883
sg202
(lp2884
sg206
I00
sg35
VPT3M42.423696S
p2885
sg32
VDeath
p2886
sg209
I1
sa(dp2887
g32
VMedal
p2888
sg39
(dp2889
g41
VRNG Commonly
p2890
sg43
Nssg220
I2287626681
sg35
VPT3M42.4257397S
p2891
sa(dp2892
g38
I313138863
sg32
VWeaponDrop
p2893
sg234
I12
sg44
(lp2894
I1095363701
asg35
VPT3M42.4257397S
p2895
sg237
I11
sg238
VP0DT0H0M3.7000S
p2896
sg39
(dp2897
g41
VEG Lunchbox HCS
p2898
sg43
Nssa(dp2899
g38
I4096745987
sg32
VWeaponDrop
p2900
sg234
I9
sg44
(lp2901
I2758383128
asg35
VPT3M42.4267207S
p2902
sg237
I6
sg238
VP0DT0H0M23.2000S
p2903
sg39
(dp2904
g41
VEG Lunchbox HCS
p2905
sg43
Nssa(dp2906
g38
I313138863
sg39
(dp2907
g41
VRNG Ninja HCS
p2908
sg43
Nssg44
(lp2909
I1095363701
asg32
VWeaponPickup
p2910
sg35
VPT3M44.0227369S
p2911
sa(dp2912
g38
I4096745987
sg39
(dp2913
g41
VRNG Ninja HCS
p2914
sg43
Nssg44
(lp2915
I2758383128
asg32
VWeaponPickup
p2916
sg35
VPT3M44.0227369S
p2917
sa(dp2918
g32
VPlayerSpawn
p2919
sg39
(dp2920
g41
VRNG Ninja HCS
p2921
sg43
Nssg35
VPT3M44.0227369S
p2922
sa(dp2923
g179
I523953283
sg180
I00
sg181
I00
sg182
(dp2924
g41
VRNG Victory X
p2925
sg43
Nssg185
(lp2926
I2208825748
asg187
I00
sg188
I01
sg189
I1
sg190
I0
sg191
I1
sg192
(dp2927
Vy
F7.3382224999999996
sVx
F6.2891690000000002
sVz
F3.784895e-06
ssg194
(dp2928
Vy
F0.157471791
sVx
F10.0307932
sVz
F0.68862489999999998
ssg196
I00
sg197
(dp2929
g41
VEG Roy HCS
p2930
sg43
Nssg200
(lp2931
sg202
(lp2932
(dp2933
g41
VRNG Penguin HCS
p2934
sg43
Nsasg206
I00
sg35
VPT3M46.2397947S
p2935
sg32
VDeath
p2936
sg209
I1
sa(dp2937
g32
VImpulse
p2938
sg39
(dp2939
g41
VRNG Victory X
p2940
sg43
Nssg214
I2556889090
sg35
VPT3M46.2408124S
p2941
sa(dp2942
g32
VMedal
p2943
sg39
(dp2944
g41
VRNG Victory X
p2945
sg43
Nssg220
I2838259753
sg35
VPT3M46.2408124S
p2946
sa(dp2947
g32
VMedal
p2948
sg39
(dp2949
g41
VRNG Victory X
p2950
sg43
Nssg220
I3698887726
sg35
VPT3M46.2418124S
p2951
sa(dp2952
g38
I313138863
sg32
VWeaponDrop
p2953
sg234
I21
sg44
(lp2954
I1095363701
asg35
VPT3M46.2428184S
p2955
sg237
I9
sg238
VP0DT0H0M5.9333S
p2956
sg39
(dp2957
g41
VEG Roy HCS
p2958
sg43
Nssa(dp2959
g38
I4096745987
sg32
VWeaponDrop
p2960
sg234
I9
sg44
(lp2961
I2758383128
asg35
VPT3M46.2428184S
p2962
sg237
I4
sg238
VP0DT0H0M23.9833S
p2963
sg39
(dp2964
g41
VEG Roy HCS
p2965
sg43
Nssa(dp2966
g179
I4096745987
sg180
I00
sg181
I00
sg182
(dp2967
g41
VRNG Commonly
p2968
sg43
Nssg185
(lp2969
I2758383128
asg187
I00
sg188
I00
sg189
I2
sg190
I0
sg191
I0
sg192
(dp2970
Vy
F-0.70461386400000003
sVx
F-1.7424826600000001
sVz
F1.45784545
ssg194
(dp2971
Vy
F1.6165708299999999
sVx
F-0.49765285799999998
sVz
F0.42069079999999998
ssg196
I00
sg197
(dp2972
g521
g522
ssg200
(lp2973
sg202
(lp2974
sg206
I00
sg35
VPT3M46.722805S
p2975
sg32
VDeath
p2976
sg209
I1
sa(dp2977
g179
I313138863
sg180
I00
sg181
I00
sg182
(dp2978
g41
VEG Snip3downHCS
p2979
sg43
Nssg185
(lp2980
I1095363701
asg187
I00
sg188
I01
sg189
I1
sg190
I0
sg191
I1
sg192
(dp2981
Vy
F2.68767238
sVx
F-0.99639759999999999
sVz
F0.40223187199999999
ssg194
(dp2982
Vy
F0.31791922500000003
sVx
F-3.57698655
sVz
F0.85734486600000004
ssg196
I00
sg197
(dp2983
g41
VRNG Commonly
p2984
sg43
Nssg200
(lp2985
sg202
(lp2986
(dp2987
g41
VEG Lunchbox HCS
p2988
sg43
Nsasg206
I00
sg35
VPT3M47.5748534S
p2989
sg32
VDeath
p2990
sg209
I1
sa(dp2991
g38
I313138863
sg32
VWeaponDrop
p2992
sg234
I7
sg44
(lp2993
I1095363701
asg35
VPT3M47.5768501S
p2994
sg237
I0
sg238
VP0DT0H0M11.8833S
p2995
sg39
(dp2996
g41
VRNG Commonly
p2997
sg43
Nssa(dp2998
g38
I4096745987
sg32
VWeaponDrop
p2999
sg234
I15
sg44
(lp3000
I2758383128
asg35
VPT3M47.5768501S
p3001
sg237
I10
sg238
VP0DT0H0M38.6167S
p3002
sg39
(dp3003
g41
VRNG Commonly
p3004
sg43
Nssa(dp3005
g38
I4096745987
sg32
VWeaponDrop
p3006
sg234
I0
sg44
(lp3007
I2758383128
asg35
VPT3M47.5768501S
p3008
sg237
I0
sg238
VP0DT0S
p3009
sg39
(dp3010
g41
VRNG Commonly
p3011
sg43
Nssa(dp3012
g38
I4096745987
sg32
VWeaponDrop
p3013
sg234
I0
sg44
(lp3014
I2758383128
asg35
VPT3M47.5768501S
p3015
sg237
I0
sg238
VP0DT0S
p3016
sg39
(dp3017
g41
VRNG Commonly
p3018
sg43
Nssa(dp3019
g32
VMedal
p3020
sg39
(dp3021
g41
VRNG Victory X
p3022
sg43
Nssg220
I2916014239
sg35
VPT3M48.5388534S
p3023
sa(dp3024
g38
I313138863
sg39
(dp3025
g41
VEG Lunchbox HCS
p3026
sg43
Nssg44
(lp3027
I1095363701
asg32
VWeaponPickup
p3028
sg35
VPT3M50.4399275S
p3029
sa(dp3030
g38
I4096745987
sg39
(dp3031
g41
VEG Lunchbox HCS
p3032
sg43
Nssg44
(lp3033
I2758383128
asg32
VWeaponPickup
p3034
sg35
VPT3M50.4399275S
p3035
sa(dp3036
g32
VPlayerSpawn
p3037
sg39
(dp3038
g41
VEG Lunchbox HCS
p3039
sg43
Nssg35
VPT3M50.4399275S
p3040
sa(dp3041
g179
I523953283
sg180
I00
sg181
I00
sg182
(dp3042
g41
VRNG Victory X
p3043
sg43
Nssg185
(lp3044
I2208825748
asg187
I00
sg188
I01
sg189
I1
sg190
I0
sg191
I1
sg192
(dp3045
Vy
F3.4175372099999999
sVx
F-0.44638709999999998
sVz
F0.242832243
ssg194
(dp3046
Vy
F3.2526066299999998
sVx
F-2.9715714499999999
sVz
F0.40117347199999998
ssg196
I00
sg197
(dp3047
g41
VEG Snip3downHCS
p3048
sg43
Nssg200
(lp3049
sg202
(lp3050
(dp3051
g41
VRNG Commonly
p3052
sg43
Nsa(dp3053
g41
VRNG Ninja HCS
p3054
sg43
Nsasg206
I00
sg35
VPT3M50.4889228S
p3055
sg32
VDeath
p3056
sg209
I1
sa(dp3057
g32
VMedal
p3058
sg39
(dp3059
g41
VRNG Victory X
p3060
sg43
Nssg220
I2430242797
sg35
VPT3M50.4909265S
p3061
sa(dp3062
g32
VMedal
p3063
sg39
(dp3064
g41
VRNG Victory X
p3065
sg43
Nssg220
I2078758684
sg35
VPT3M50.4909265S
p3066
sa(dp3067
g38
I313138863
sg32
VWeaponDrop
p3068
sg234
I16
sg44
(lp3069
I1095363701
asg35
VPT3M50.4919385S
p3070
sg237
I3
sg238
VP0DT0H0M8.8167S
p3071
sg39
(dp3072
g41
VEG Snip3downHCS
p3073
sg43
Nssa(dp3074
g38
I4096745987
sg32
VWeaponDrop
p3075
sg234
I10
sg44
(lp3076
I2758383128
asg35
VPT3M50.4919385S
p3077
sg237
I3
sg238
VP0DT0H0M25.6833S
p3078
sg39
(dp3079
g41
VEG Snip3downHCS
p3080
sg43
Nssa(dp3081
g38
I313138863
sg39
(dp3082
g41
VEG Roy HCS
p3083
sg43
Nssg44
(lp3084
I1095363701
asg32
VWeaponPickup
p3085
sg35
VPT3M54.2559991S
p3086
sa(dp3087
g38
I4096745987
sg39
(dp3088
g41
VEG Roy HCS
p3089
sg43
Nssg44
(lp3090
I2758383128
asg32
VWeaponPickup
p3091
sg35
VPT3M54.2559991S
p3092
sa(dp3093
g32
VPlayerSpawn
p3094
sg39
(dp3095
g41
VEG Roy HCS
p3096
sg43
Nssg35
VPT3M54.2570242S
p3097
sa(dp3098
g38
I313138863
sg39
(dp3099
g41
VRNG Commonly
p3100
sg43
Nssg44
(lp3101
I1095363701
asg32
VWeaponPickup
p3102
sg35
VPT3M55.5890321S
p3103
sa(dp3104
g38
I4096745987
sg39
(dp3105
g41
VRNG Commonly
p3106
sg43
Nssg44
(lp3107
I2758383128
asg32
VWeaponPickup
p3108
sg35
VPT3M55.5900504S
p3109
sa(dp3110
g32
VPlayerSpawn
p3111
sg39
(dp3112
g41
VRNG Commonly
p3113
sg43
Nssg35
VPT3M55.5900504S
p3114
sa(dp3115
g179
I313138863
sg180
I00
sg181
I00
sg182
(dp3116
g41
VRNG Penguin HCS
p3117
sg43
Nssg185
(lp3118
I1095363701
asg187
I00
sg188
I01
sg189
I1
sg190
I0
sg191
I1
sg192
(dp3119
Vy
F10.661064100000001
sVx
F16.106967900000001
sVz
F2.490253
ssg194
(dp3120
Vy
F8.8775700000000004
sVx
F17.026531200000001
sVz
F2.4705562599999999
ssg196
I00
sg197
(dp3121
g41
VEG SuspectorHCS
p3122
sg43
Nssg200
(lp3123
sg202
(lp3124
sg206
I00
sg35
VPT3M58.3561045S
p3125
sg32
VDeath
p3126
sg209
I1
sa(dp3127
g38
I313138863
sg32
VWeaponDrop
p3128
sg234
I32
sg44
(lp3129
I1095363701
asg35
VPT3M58.3571461S
p3130
sg237
I7
sg238
VP0DT0H0M36.6333S
p3131
sg39
(dp3132
g41
VEG SuspectorHCS
p3133
sg43
Nssa(dp3134
g38
I4096745987
sg32
VWeaponDrop
p3135
sg234
I4
sg44
(lp3136
I2758383128
asg35
VPT3M58.3571461S
p3137
sg237
I0
sg238
VP0DT0H0M13.2167S
p3138
sg39
(dp3139
g41
VEG SuspectorHCS
p3140
sg43
Nssa(dp3141
g38
I4096745987
sg32
VWeaponDrop
p3142
sg234
I0
sg44
(lp3143
I2758383128
asg35
VPT3M58.4551063S
p3144
sg237
I0
sg238
VP0DT0H0M2.1167S
p3145
sg39
(dp3146
g41
VRNG Commonly
p3147
sg43
Nssa(dp3148
g38
I523953283
sg39
(dp3149
g41
VRNG Commonly
p3150
sg43
Nssg44
(lp3151
I2208825748
asg32
VWeaponPickup
p3152
sg35
VPT3M58.4551063S
p3153
sa(dp3154
g38
I313138863
sg39
(dp3155
g41
VEG Snip3downHCS
p3156
sg43
Nssg44
(lp3157
I1095363701
asg32
VWeaponPickup
p3158
sg35
VPT3M58.5061282S
p3159
sa(dp3160
g38
I4096745987
sg39
(dp3161
g41
VEG Snip3downHCS
p3162
sg43
Nssg44
(lp3163
I2758383128
asg32
VWeaponPickup
p3164
sg35
VPT3M58.5061282S
p3165
sa(dp3166
g32
VPlayerSpawn
p3167
sg39
(dp3168
g41
VEG Snip3downHCS
p3169
sg43
Nssg35
VPT3M58.5061282S
p3170
sa(dp3171
g38
I4096745987
sg32
VWeaponDrop
p3172
sg234
I0
sg44
(lp3173
I2758383128
asg35
VPT4M0.5381776S
p3174
sg237
I0
sg238
VP0DT0H0M1.7667S
p3175
sg39
(dp3176
g41
VEG Snip3downHCS
p3177
sg43
Nssa(dp3178
g38
I523953283
sg39
(dp3179
g41
VEG Snip3downHCS
p3180
sg43
Nssg44
(lp3181
I2208825748
asg32
VWeaponPickup
p3182
sg35
VPT4M0.5381776S
p3183
sa(dp3184
g38
I313138863
sg39
(dp3185
g41
VEG SuspectorHCS
p3186
sg43
Nssg44
(lp3187
I1095363701
asg32
VWeaponPickup
p3188
sg35
VPT4M6.373338S
p3189
sa(dp3190
g38
I4096745987
sg39
(dp3191
g41
VEG SuspectorHCS
p3192
sg43
Nssg44
(lp3193
I2758383128
asg32
VWeaponPickup
p3194
sg35
VPT4M6.373338S
p3195
sa(dp3196
g32
VPlayerSpawn
p3197
sg39
(dp3198
g41
VEG SuspectorHCS
p3199
sg43
Nssg35
VPT4M6.373338S
p3200
sa(dp3201
g179
I523953283
sg180
I00
sg181
I00
sg182
(dp3202
g41
VEG Snip3downHCS
p3203
sg43
Nssg185
(lp3204
I2208825748
asg187
I00
sg188
I01
sg189
I1
sg190
I0
sg191
I1
sg192
(dp3205
Vy
F-14.5176067
sVx
F16.576976800000001
sVz
F1.99896479
ssg194
(dp3206
Vy
F-9.7372340000000008
sVx
F15.7220087
sVz
F1.6001203100000001
ssg196
I00
sg197
(dp3207
g41
VRNG Victory X
p3208
sg43
Nssg200
(lp3209
sg202
(lp3210
(dp3211
g41
VEG Lunchbox HCS
p3212
sg43
Nsasg206
I01
sg35
VPT4M8.5053633S
p3213
sg32
VDeath
p3214
sg209
I1
sa(dp3215
g32
VImpulse
p3216
sg39
(dp3217
g41
VEG Snip3downHCS
p3218
sg43
Nssg214
I2556889090
sg35
VPT4M8.5063897S
p3219
sa(dp3220
g32
VMedal
p3221
sg39
(dp3222
g41
VEG Snip3downHCS
p3223
sg43
Nssg220
I2838259753
sg35
VPT4M8.5063897S
p3224
sa(dp3225
g32
VMedal
p3226
sg39
(dp3227
g41
VEG Snip3downHCS
p3228
sg43
Nssg220
I3261908037
sg35
VPT4M8.513384S
p3229
sa(dp3230
g38
I313138863
sg32
VWeaponDrop
p3231
sg234
I24
sg44
(lp3232
I1095363701
asg35
VPT4M8.5143829S
p3233
sg237
I6
sg238
VP0DT0H0M10.5500S
p3234
sg39
(dp3235
g41
VRNG Victory X
p3236
sg43
Nssa(dp3237
g38
I313138863
sg32
VWeaponDrop
p3238
sg234
I0
sg44
(lp3239
I1095363701
asg35
VPT4M8.5143829S
p3240
sg237
I0
sg238
VP0DT0S
p3241
sg39
(dp3242
g41
VRNG Victory X
p3243
sg43
Nssa(dp3244
g38
I523953283
sg32
VWeaponDrop
p3245
sg234
I21
sg44
(lp3246
I2208825748
asg35
VPT4M8.5143829S
p3247
sg237
I13
sg238
VP0DT0H0M46.7000S
p3248
sg39
(dp3249
g41
VRNG Victory X
p3250
sg43
Nssa(dp3251
g38
I523953283
sg32
VWeaponDrop
p3252
sg234
I0
sg44
(lp3253
I2208825748
asg35
VPT4M8.5143829S
p3254
sg237
I0
sg238
VP0DT0S
p3255
sg39
(dp3256
g41
VRNG Victory X
p3257
sg43
Nssa(dp3258
g179
I4096745987
sg180
I00
sg181
I00
sg182
(dp3259
g41
VEG Roy HCS
p3260
sg43
Nssg185
(lp3261
I2758383128
asg187
I00
sg188
I01
sg189
I1
sg190
I0
sg191
I1
sg192
(dp3262
Vy
F0.1044341
sVx
F-8.1467799999999997
sVz
F2.5166366099999999
ssg194
(dp3263
Vy
F5.8281493199999996
sVx
F-6.8308286699999998
sVz
F1.77466583
ssg196
I00
sg197
(dp3264
g41
VRNG Commonly
p3265
sg43
Nssg200
(lp3266
sg202
(lp3267
sg206
I01
sg35
VPT4M9.2053818S
p3268
sg32
VDeath
p3269
sg209
I1
sa(dp3270
g32
VMedal
p3271
sg39
(dp3272
g41
VEG Roy HCS
p3273
sg43
Nssg220
I3261908037
sg35
VPT4M9.2074048S
p3274
sa(dp3275
g38
I313138863
sg32
VWeaponDrop
p3276
sg234
I0
sg44
(lp3277
I1095363701
asg35
VPT4M9.208405S
p3278
sg237
I0
sg238
VP0DT0H0M0.7500S
p3279
sg39
(dp3280
g41
VRNG Commonly
p3281
sg43
Nssa(dp3282
g38
I523953283
sg32
VWeaponDrop
p3283
sg234
I8
sg44
(lp3284
I2208825748
asg35
VPT4M9.208405S
p3285
sg237
I3
sg238
VP0DT0H0M10.7500S
p3286
sg39
(dp3287
g41
VRNG Commonly
p3288
sg43
Nssa(dp3289
g32
VMedal
p3290
sg39
(dp3291
g41
VRNG Penguin HCS
p3292
sg43
Nssg220
I2916014239
sg35
VPT4M10.4044376S
p3293
sa(dp3294
g32
VMedal
p3295
sg39
(dp3296
g41
VEG Roy HCS
p3297
sg43
Nssg220
I3400287617
sg35
VPT4M12.8214738S
p3298
sa(dp3299
g179
I313138863
sg180
I00
sg181
I01
sg182
(dp3300
g41
VEG Lunchbox HCS
p3301
sg43
Nssg185
(lp3302
I1095363701
asg187
I00
sg188
I00
sg189
I1
sg190
I0
sg191
I1
sg192
(dp3303
Vy
F0.19255365399999999
sVx
F9.3157619999999994
sVz
F-0.80117620000000001
ssg194
(dp3304
Vy
F0.51456695799999996
sVx
F9.1928099999999997
sVz
F-0.80001330000000004
ssg196
I00
sg197
(dp3305
g41
VRNG Penguin HCS
p3306
sg43
Nssg200
(lp3307
sg202
(lp3308
(dp3309
g41
VEG Snip3downHCS
p3310
sg43
Nsasg206
I00
sg35
VPT4M14.7225229S
p3311
sg32
VDeath
p3312
sg209
I1
sa(dp3313
g32
VMedal
p3314
sg39
(dp3315
g41
VEG Lunchbox HCS
p3316
sg43
Nssg220
I2287626681
sg35
VPT4M14.7235415S
p3317
sa(dp3318
g38
I313138863
sg32
VWeaponDrop
p3319
sg234
I38
sg44
(lp3320
I1095363701
asg35
VPT4M14.7255252S
p3321
sg237
I16
sg238
VP0DT0H0M24.7500S
p3322
sg39
(dp3323
g41
VRNG Penguin HCS
p3324
sg43
Nssa(dp3325
g38
I313138863
sg32
VWeaponDrop
p3326
sg234
I0
sg44
(lp3327
I1095363701
asg35
VPT4M14.7255252S
p3328
sg237
I0
sg238
VP0DT0S
p3329
sg39
(dp3330
g41
VRNG Penguin HCS
p3331
sg43
Nssa(dp3332
g38
I4096745987
sg32
VWeaponDrop
p3333
sg234
I5
sg44
(lp3334
I2758383128
asg35
VPT4M14.7255252S
p3335
sg237
I2
sg238
VP0DT0H0M16.9333S
p3336
sg39
(dp3337
g41
VRNG Penguin HCS
p3338
sg43
Nssa(dp3339
g179
I313138863
sg180
I00
sg181
I01
sg182
(dp3340
g41
VRNG Penguin HCS
p3341
sg43
Nssg185
(lp3342
I1095363701
asg187
I00
sg188
I00
sg189
I1
sg190
I0
sg191
I1
sg192
(dp3343
Vy
F0.51456695799999996
sVx
F9.1928099999999997
sVz
F-0.57501329999999995
ssg194
(dp3344
Vy
F0.19255365399999999
sVx
F9.3157619999999994
sVz
F-0.80117620000000001
ssg196
I00
sg197
(dp3345
g41
VEG Lunchbox HCS
p3346
sg43
Nssg200
(lp3347
sg202
(lp3348
sg206
I00
sg35
VPT4M14.7265249S
p3349
sg32
VDeath
p3350
sg209
I1
sa(dp3351
g32
VMedal
p3352
sg39
(dp3353
g41
VRNG Penguin HCS
p3354
sg43
Nssg220
I1351381581
sg35
VPT4M14.7265249S
p3355
sa(dp3356
g32
VMedal
p3357
sg39
(dp3358
g41
VRNG Penguin HCS
p3359
sg43
Nssg220
I250435527
sg35
VPT4M14.7275454S
p3360
sa(dp3361
g38
I313138863
sg32
VWeaponDrop
p3362
sg234
I24
sg44
(lp3363
I1095363701
asg35
VPT4M14.7275454S
p3364
sg237
I9
sg238
VP0DT0H0M10.7167S
p3365
sg39
(dp3366
g41
VEG Lunchbox HCS
p3367
sg43
Nssa(dp3368
g38
I313138863
sg32
VWeaponDrop
p3369
sg234
I0
sg44
(lp3370
I1095363701
asg35
VPT4M14.7275454S
p3371
sg237
I0
sg238
VP0DT0S
p3372
sg39
(dp3373
g41
VEG Lunchbox HCS
p3374
sg43
Nssa(dp3375
g38
I4096745987
sg32
VWeaponDrop
p3376
sg234
I7
sg44
(lp3377
I2758383128
asg35
VPT4M14.7275454S
p3378
sg237
I4
sg238
VP0DT0H0M13.5667S
p3379
sg39
(dp3380
g41
VEG Lunchbox HCS
p3381
sg43
Nssa(dp3382
g38
I4096745987
sg32
VWeaponDrop
p3383
sg234
I0
sg44
(lp3384
I2758383128
asg35
VPT4M14.7275454S
p3385
sg237
I0
sg238
VP0DT0S
p3386
sg39
(dp3387
g41
VEG Lunchbox HCS
p3388
sg43
Nssa(dp3389
g179
I313138863
sg180
I00
sg181
I01
sg182
(dp3390
g41
VRNG Ninja HCS
p3391
sg43
Nssg185
(lp3392
I1095363701
asg187
I00
sg188
I00
sg189
I1
sg190
I0
sg191
I1
sg192
(dp3393
Vy
F-3.73106575
sVx
F14.318572
sVz
F2.1527113899999999
ssg194
(dp3394
Vy
F-3.7141137099999999
sVx
F13.912350699999999
sVz
F2.2828495499999999
ssg196
I00
sg197
(dp3395
g41
VEG SuspectorHCS
p3396
sg43
Nssg200
(lp3397
sg202
(lp3398
sg206
I00
sg35
VPT4M15.02253S
p3399
sg32
VDeath
p3400
sg209
I1
sa(dp3401
g32
VMedal
p3402
sg39
(dp3403
g41
VRNG Ninja HCS
p3404
sg43
Nssg220
I250435527
sg35
VPT4M15.0235508S
p3405
sa(dp3406
g38
I313138863
sg32
VWeaponDrop
p3407
sg234
I0
sg44
(lp3408
I1095363701
asg35
VPT4M15.0235508S
p3409
sg237
I0
sg238
VP0DT0H0M4.5167S
p3410
sg39
(dp3411
g41
VEG SuspectorHCS
p3412
sg43
Nssa(dp3413
g38
I4096745987
sg32
VWeaponDrop
p3414
sg234
I0
sg44
(lp3415
I2758383128
asg35
VPT4M15.0245495S
p3416
sg237
I0
sg238
VP0DT0H0M4.1333S
p3417
sg39
(dp3418
g41
VEG SuspectorHCS
p3419
sg43
Nssa(dp3420
g38
I313138863
sg39
(dp3421
g41
VRNG Victory X
p3422
sg43
Nssg44
(lp3423
I1095363701
asg32
VWeaponPickup
p3424
sg35
VPT4M16.5256085S
p3425
sa(dp3426
g38
I4096745987
sg39
(dp3427
g41
VRNG Victory X
p3428
sg43
Nssg44
(lp3429
I2758383128
asg32
VWeaponPickup
p3430
sg35
VPT4M16.5256085S
p3431
sa(dp3432
g32
VPlayerSpawn
p3433
sg39
(dp3434
g41
VRNG Victory X
p3435
sg43
Nssg35
VPT4M16.5256085S
p3436
sa(dp3437
g38
I313138863
sg39
(dp3438
g41
VRNG Commonly
p3439
sg43
Nssg44
(lp3440
I1095363701
asg32
VWeaponPickup
p3441
sg35
VPT4M17.223612S
p3442
sa(dp3443
g38
I4096745987
sg39
(dp3444
g41
VRNG Commonly
p3445
sg43
Nssg44
(lp3446
I2758383128
asg32
VWeaponPickup
p3447
sg35
VPT4M17.223612S
p3448
sa(dp3449
g32
VPlayerSpawn
p3450
sg39
(dp3451
g41
VRNG Commonly
p3452
sg43
Nssg35
VPT4M17.223612S
p3453
sa(dp3454
g179
I523953283
sg180
I00
sg181
I00
sg182
(dp3455
g41
VEG Snip3downHCS
p3456
sg43
Nssg185
(lp3457
I2208825748
asg187
I00
sg188
I01
sg189
I1
sg190
I0
sg191
I1
sg192
(dp3458
Vy
F-6.9662566200000002
sVx
F8.3635160000000006
sVz
F-9.2387200000000003e-07
ssg194
(dp3459
Vy
F-2.1123912300000001
sVx
F7.3307776499999999
sVz
F-0.75306119999999999
ssg196
I00
sg197
(dp3460
g41
VRNG Ninja HCS
p3461
sg43
Nssg200
(lp3462
sg202
(lp3463
(dp3464
g41
VEG SuspectorHCS
p3465
sg43
Nsasg206
I01
sg35
VPT4M19.3226414S
p3466
sg32
VDeath
p3467
sg209
I1
sa(dp3468
g32
VMedal
p3469
sg39
(dp3470
g41
VEG Snip3downHCS
p3471
sg43
Nssg220
I3261908037
sg35
VPT4M19.3236488S
p3472
sa(dp3473
g38
I313138863
sg32
VWeaponDrop
p3474
sg234
I8
sg44
(lp3475
I1095363701
asg35
VPT4M19.3236488S
p3476
sg237
I4
sg238
VP0DT0H0M14.5833S
p3477
sg39
(dp3478
g41
VRNG Ninja HCS
p3479
sg43
Nssa(dp3480
g38
I313138863
sg32
VWeaponDrop
p3481
sg234
I0
sg44
(lp3482
I1095363701
asg35
VPT4M19.3236488S
p3483
sg237
I0
sg238
VP0DT0S
p3484
sg39
(dp3485
g41
VRNG Ninja HCS
p3486
sg43
Nssa(dp3487
g38
I4096745987
sg32
VWeaponDrop
p3488
sg234
I8
sg44
(lp3489
I2758383128
asg35
VPT4M19.3246591S
p3490
sg237
I3
sg238
VP0DT0H0M20.7167S
p3491
sg39
(dp3492
g41
VRNG Ninja HCS
p3493
sg43
Nssa(dp3494
g38
I313138863
sg39
(dp3495
g41
VRNG Penguin HCS
p3496
sg43
Nssg44
(lp3497
I1095363701
asg32
VWeaponPickup
p3498
sg35
VPT4M22.7557483S
p3499
sa(dp3500
g38
I4096745987
sg39
(dp3501
g41
VRNG Penguin HCS
p3502
sg43
Nssg44
(lp3503
I2758383128
asg32
VWeaponPickup
p3504
sg35
VPT4M22.7567473S
p3505
sa(dp3506
g32
VPlayerSpawn
p3507
sg39
(dp3508
g41
VRNG Penguin HCS
p3509
sg43
Nssg35
VPT4M22.7567473S
p3510
sa(dp3511
g38
I313138863
sg39
(dp3512
g41
VEG Lunchbox HCS
p3513
sg43
Nssg44
(lp3514
I1095363701
asg32
VWeaponPickup
p3515
sg35
VPT4M22.7887283S
p3516
sa(dp3517
g38
I4096745987
sg39
(dp3518
g41
VEG Lunchbox HCS
p3519
sg43
Nssg44
(lp3520
I2758383128
asg32
VWeaponPickup
p3521
sg35
VPT4M22.7897507S
p3522
sa(dp3523
g32
VPlayerSpawn
p3524
sg39
(dp3525
g41
VEG Lunchbox HCS
p3526
sg43
Nssg35
VPT4M22.7897507S
p3527
sa(dp3528
g38
I313138863
sg39
(dp3529
g41
VEG SuspectorHCS
p3530
sg43
Nssg44
(lp3531
I1095363701
asg32
VWeaponPickup
p3532
sg35
VPT4M23.0557584S
p3533
sa(dp3534
g38
I4096745987
sg39
(dp3535
g41
VEG SuspectorHCS
p3536
sg43
Nssg44
(lp3537
I2758383128
asg32
VWeaponPickup
p3538
sg35
VPT4M23.0557584S
p3539
sa(dp3540
g32
VPlayerSpawn
p3541
sg39
(dp3542
g41
VEG SuspectorHCS
p3543
sg43
Nssg35
VPT4M23.0557584S
p3544
sa(dp3545
g179
I523953283
sg180
I00
sg181
I00
sg182
(dp3546
g41
VEG Snip3downHCS
p3547
sg43
Nssg185
(lp3548
I2208825748
asg187
I00
sg188
I01
sg189
I1
sg190
I0
sg191
I1
sg192
(dp3549
Vy
F0.92526036499999997
sVx
F9.4521569999999997
sVz
F-0.80001163500000005
ssg194
(dp3550
Vy
F-1.1648148300000001
sVx
F5.2943959999999999
sVz
F-0.80001169999999999
ssg196
I00
sg197
(dp3551
g41
VRNG Victory X
p3552
sg43
Nssg200
(lp3553
sg202
(lp3554
(dp3555
g41
VEG Roy HCS
p3556
sg43
Nsasg206
I01
sg35
VPT4M24.3057677S
p3557
sg32
VDeath
p3558
sg209
I1
sa(dp3559
g32
VImpulse
p3560
sg39
(dp3561
g41
VEG Snip3downHCS
p3562
sg43
Nssg214
I2556889090
sg35
VPT4M24.3057677S
p3563
sa(dp3564
g32
VMedal
p3565
sg39
(dp3566
g41
VEG Snip3downHCS
p3567
sg43
Nssg220
I2838259753
sg35
VPT4M24.3057677S
p3568
sa(dp3569
g32
VMedal
p3570
sg39
(dp3571
g41
VEG Snip3downHCS
p3572
sg43
Nssg220
I3261908037
sg35
VPT4M24.3067914S
p3573
sa(dp3574
g32
VMedal
p3575
sg39
(dp3576
g41
VEG Snip3downHCS
p3577
sg43
Nssg220
I2078758684
sg35
VPT4M24.3067914S
p3578
sa(dp3579
g38
I313138863
sg32
VWeaponDrop
p3580
sg234
I19
sg44
(lp3581
I1095363701
asg35
VPT4M24.3077932S
p3582
sg237
I10
sg238
VP0DT0H0M4.3833S
p3583
sg39
(dp3584
g41
VRNG Victory X
p3585
sg43
Nssa(dp3586
g38
I4096745987
sg32
VWeaponDrop
p3587
sg234
I0
sg44
(lp3588
I2758383128
asg35
VPT4M24.3077932S
p3589
sg237
I0
sg238
VP0DT0H0M3.3833S
p3590
sg39
(dp3591
g41
VRNG Victory X
p3592
sg43
Nssa(dp3593
g179
I313138863
sg180
I00
sg181
I00
sg182
(dp3594
g41
VRNG Commonly
p3595
sg43
Nssg185
(lp3596
I1095363701
asg187
I00
sg188
I01
sg189
I1
sg190
I0
sg191
I1
sg192
(dp3597
Vy
F-1.2706645700000001
sVx
F4.9202190000000003
sVz
F1.0833728300000001
ssg194
(dp3598
Vy
F2.1804540000000001
sVx
F8.7506140000000006
sVz
F0.31397032699999999
ssg196
I00
sg197
(dp3599
g41
VEG Snip3downHCS
p3600
sg43
Nssg200
(lp3601
sg202
(lp3602
(dp3603
g41
VRNG Victory X
p3604
sg43
Nsasg206
I00
sg35
VPT4M24.8897842S
p3605
sg32
VDeath
p3606
sg209
I1
sa(dp3607
g32
VMedal
p3608
sg39
(dp3609
g41
VRNG Commonly
p3610
sg43
Nssg220
I1351381581
sg35
VPT4M24.8907848S
p3611
sa(dp3612
g38
I313138863
sg32
VWeaponDrop
p3613
sg234
I0
sg44
(lp3614
I1095363701
asg35
VPT4M24.8918106S
p3615
sg237
I0
sg238
VP0DT0H0M0.2667S
p3616
sg39
(dp3617
g41
VEG Snip3downHCS
p3618
sg43
Nssa(dp3619
g38
I523953283
sg32
VWeaponDrop
p3620
sg234
I14
sg44
(lp3621
I2208825748
asg35
VPT4M24.8918106S
p3622
sg237
I10
sg238
VP0DT0H0M24.3333S
p3623
sg39
(dp3624
g41
VEG Snip3downHCS
p3625
sg43
Nssa(dp3626
g38
I313138863
sg39
(dp3627
g41
VRNG Ninja HCS
p3628
sg43
Nssg44
(lp3629
I1095363701
asg32
VWeaponPickup
p3630
sg35
VPT4M27.3558474S
p3631
sa(dp3632
g38
I4096745987
sg39
(dp3633
g41
VRNG Ninja HCS
p3634
sg43
Nssg44
(lp3635
I2758383128
asg32
VWeaponPickup
p3636
sg35
VPT4M27.3568477S
p3637
sa(dp3638
g32
VPlayerSpawn
p3639
sg39
(dp3640
g41
VRNG Ninja HCS
p3641
sg43
Nssg35
VPT4M27.3568477S
p3642
sa(dp3643
g179
I313138863
sg180
I00
sg181
I00
sg182
(dp3644
g41
VRNG Commonly
p3645
sg43
Nssg185
(lp3646
I1095363701
asg187
I00
sg188
I01
sg189
I1
sg190
I0
sg191
I1
sg192
(dp3647
Vy
F1.4625859299999999
sVx
F9.0550879999999996
sVz
F-0.80001169999999999
ssg194
(dp3648
Vy
F-1.57126057
sVx
F9.5491820000000001
sVz
F-0.80001163500000005
ssg196
I00
sg197
(dp3649
g41
VEG Roy HCS
p3650
sg43
Nssg200
(lp3651
sg202
(lp3652
(dp3653
g41
VRNG Victory X
p3654
sg43
Nsasg206
I00
sg35
VPT4M27.3898482S
p3655
sg32
VDeath
p3656
sg209
I1
sa(dp3657
g32
VMedal
p3658
sg39
(dp3659
g41
VRNG Commonly
p3660
sg43
Nssg220
I1351381581
sg35
VPT4M27.3908688S
p3661
sa(dp3662
g32
VMedal
p3663
sg39
(dp3664
g41
VRNG Commonly
p3665
sg43
Nssg220
I2078758684
sg35
VPT4M27.3908688S
p3666
sa(dp3667
g38
I313138863
sg32
VWeaponDrop
p3668
sg234
I0
sg44
(lp3669
I1095363701
asg35
VPT4M27.3919085S
p3670
sg237
I0
sg238
VP0DT0H0M5.0000S
p3671
sg39
(dp3672
g41
VEG Roy HCS
p3673
sg43
Nssa(dp3674
g38
I4096745987
sg32
VWeaponDrop
p3675
sg234
I16
sg44
(lp3676
I2758383128
asg35
VPT4M27.3919085S
p3677
sg237
I7
sg238
VP0DT0H0M28.1167S
p3678
sg39
(dp3679
g41
VEG Roy HCS
p3680
sg43
Nssa(dp3681
g32
VMedal
p3682
sg39
(dp3683
g41
VRNG Commonly
p3684
sg43
Nssg220
I3400287617
sg35
VPT4M27.6218521S
p3685
sa(dp3686
g179
I4096745987
sg180
I00
sg181
I00
sg182
(dp3687
g41
VRNG Commonly
p3688
sg43
Nssg185
(lp3689
I2758383128
asg187
I00
sg188
I01
sg189
I1
sg190
I0
sg191
I1
sg192
(dp3690
Vy
F0.10383358600000001
sVx
F8.9626889999999992
sVz
F-0.80001169999999999
ssg194
(dp3691
Vy
F1.1028473400000001
sVx
F3.7076504199999998
sVz
F0.19642496100000001
ssg196
I00
sg197
(dp3692
g41
VEG Lunchbox HCS
p3693
sg43
Nssg200
(lp3694
sg202
(lp3695
sg206
I01
sg35
VPT4M29.7769094S
p3696
sg32
VDeath
p3697
sg209
I1
sa(dp3698
g32
VMedal
p3699
sg39
(dp3700
g41
VRNG Commonly
p3701
sg43
Nssg220
I1351381581
sg35
VPT4M29.778928S
p3702
sa(dp3703
g32
VMedal
p3704
sg39
(dp3705
g41
VRNG Commonly
p3706
sg43
Nssg220
I3261908037
sg35
VPT4M29.7799271S
p3707
sa(dp3708
g32
VMedal
p3709
sg39
(dp3710
g41
VRNG Commonly
p3711
sg43
Nssg220
I2763748638
sg35
VPT4M29.7799271S
p3712
sa(dp3713
g32
VMedal
p3714
sg39
(dp3715
g41
VRNG Commonly
p3716
sg43
Nssg220
I2916014239
sg35
VPT4M29.7799271S
p3717
sa(dp3718
g38
I313138863
sg32
VWeaponDrop
p3719
sg234
I12
sg44
(lp3720
I1095363701
asg35
VPT4M29.7799271S
p3721
sg237
I5
sg238
VP0DT0H0M4.4333S
p3722
sg39
(dp3723
g41
VEG Lunchbox HCS
p3724
sg43
Nssa(dp3725
g38
I4096745987
sg32
VWeaponDrop
p3726
sg234
I0
sg44
(lp3727
I2758383128
asg35
VPT4M29.7799271S
p3728
sg237
I0
sg238
VP0DT0H0M2.5500S
p3729
sg39
(dp3730
g41
VEG Lunchbox HCS
p3731
sg43
Nssa(dp3732
g38
I313138863
sg32
VWeaponDrop
p3733
sg234
I0
sg44
(lp3734
I1095363701
asg35
VPT4M30.1549397S
p3735
sg237
I0
sg238
VPT0S
p3736
sg39
(dp3737
g41
VRNG Penguin HCS
p3738
sg43
Nssa(dp3739
g38
I313138863
sg39
(dp3740
g41
VRNG Victory X
p3741
sg43
Nssg44
(lp3742
I1095363701
asg32
VWeaponPickup
p3743
sg35
VPT4M32.3229935S
p3744
sa(dp3745
g38
I4096745987
sg39
(dp3746
g41
VRNG Victory X
p3747
sg43
Nssg44
(lp3748
I2758383128
asg32
VWeaponPickup
p3749
sg35
VPT4M32.3240821S
p3750
sa(dp3751
g32
VPlayerSpawn
p3752
sg39
(dp3753
g41
VRNG Victory X
p3754
sg43
Nssg35
VPT4M32.3240821S
p3755
sa(dp3756
g38
I313138863
sg39
(dp3757
g41
VEG Snip3downHCS
p3758
sg43
Nssg44
(lp3759
I1095363701
asg32
VWeaponPickup
p3760
sg35
VPT4M32.8950227S
p3761
sa(dp3762
g38
I4096745987
sg39
(dp3763
g41
VEG Snip3downHCS
p3764
sg43
Nssg44
(lp3765
I2758383128
asg32
VWeaponPickup
p3766
sg35
VPT4M32.8950227S
p3767
sa(dp3768
g32
VPlayerSpawn
p3769
sg39
(dp3770
g41
VEG Snip3downHCS
p3771
sg43
Nssg35
VPT4M32.8950227S
p3772
sa(dp3773
g179
I313138863
sg180
I00
sg181
I00
sg182
(dp3774
g41
VEG SuspectorHCS
p3775
sg43
Nssg185
(lp3776
I1095363701
asg187
I00
sg188
I01
sg189
I1
sg190
I0
sg191
I1
sg192
(dp3777
Vy
F1.21620822
sVx
F11.674867600000001
sVz
F0.79990329999999998
ssg194
(dp3778
Vy
F-1.748435
sVx
F7.7271595
sVz
F0.52821463300000004
ssg196
I00
sg197
(dp3779
g41
VRNG Commonly
p3780
sg43
Nssg200
(lp3781
sg202
(lp3782
(dp3783
g41
VEG Lunchbox HCS
p3784
sg43
Nsasg206
I00
sg35
VPT4M33.088992S
p3785
sg32
VDeath
p3786
sg209
I1
sa(dp3787
g38
I313138863
sg32
VWeaponDrop
p3788
sg234
I36
sg44
(lp3789
I1095363701
asg35
VPT4M33.091013S
p3790
sg237
I8
sg238
VP0DT0H0M8.7333S
p3791
sg39
(dp3792
g41
VRNG Commonly
p3793
sg43
Nssa(dp3794
g38
I4096745987
sg32
VWeaponDrop
p3795
sg234
I12
sg44
(lp3796
I2758383128
asg35
VPT4M33.091013S
p3797
sg237
I7
sg238
VP0DT0H0M7.1167S
p3798
sg39
(dp3799
g41
VRNG Commonly
p3800
sg43
Nssa(dp3801
g179
I313138863
sg180
I00
sg181
I01
sg182
(dp3802
g41
VRNG Penguin HCS
p3803
sg43
Nssg185
(lp3804
I1095363701
asg187
I00
sg188
I00
sg189
I1
sg190
I0
sg191
I1
sg192
(dp3805
Vy
F1.6301049999999999
sVx
F12.161759999999999
sVz
F1.4593569
ssg194
(dp3806
Vy
F2.1040890000000001
sVx
F11.749294300000001
sVz
F1.39593112
ssg196
I00
sg197
(dp3807
g41
VEG SuspectorHCS
p3808
sg43
Nssg200
(lp3809
sg202
(lp3810
(dp3811
g41
VRNG Commonly
p3812
sg43
Nsasg206
I00
sg35
VPT4M34.6730332S
p3813
sg32
VDeath
p3814
sg209
I1
sa(dp3815
g32
VMedal
p3816
sg39
(dp3817
g41
VRNG Penguin HCS
p3818
sg43
Nssg220
I2287626681
sg35
VPT4M34.6750574S
p3819
sa(dp3820
g38
I313138863
sg32
VWeaponDrop
p3821
sg234
I35
sg44
(lp3822
I1095363701
asg35
VPT4M34.6750574S
p3823
sg237
I5
sg238
VP0DT0H0M8.2833S
p3824
sg39
(dp3825
g41
VEG SuspectorHCS
p3826
sg43
Nssa(dp3827
g38
I4096745987
sg32
VWeaponDrop
p3828
sg234
I0
sg44
(lp3829
I2758383128
asg35
VPT4M34.6760552S
p3830
sg237
I0
sg238
VP0DT0H0M3.3333S
p3831
sg39
(dp3832
g41
VEG SuspectorHCS
p3833
sg43
Nssa(dp3834
g38
I313138863
sg32
VWeaponDrop
p3835
sg234
I0
sg44
(lp3836
I1095363701
asg35
VPT4M35.0040819S
p3837
sg237
I0
sg238
VP0DT0H0M3.0500S
p3838
sg39
(dp3839
g41
VRNG Ninja HCS
p3840
sg43
Nssa(dp3841
g38
I2278207101
sg39
(dp3842
g41
VRNG Ninja HCS
p3843
sg43
Nssg44
(lp3844
I2758383128
asg32
VWeaponPickupPad
p3845
sg35
VPT4M35.0040819S
p3846
sa(dp3847
g38
I2278207101
sg39
(dp3848
g41
VRNG Ninja HCS
p3849
sg43
Nssg44
(lp3850
I2758383128
asg32
VWeaponPickup
p3851
sg35
VPT4M35.0040819S
p3852
sa(dp3853
g38
I313138863
sg39
(dp3854
g41
VEG Roy HCS
p3855
sg43
Nssg44
(lp3856
I1095363701
asg32
VWeaponPickup
p3857
sg35
VPT4M35.4060813S
p3858
sa(dp3859
g38
I4096745987
sg39
(dp3860
g41
VEG Roy HCS
p3861
sg43
Nssg44
(lp3862
I2758383128
asg32
VWeaponPickup
p3863
sg35
VPT4M35.4060813S
p3864
sa(dp3865
g32
VPlayerSpawn
p3866
sg39
(dp3867
g41
VEG Roy HCS
p3868
sg43
Nssg35
VPT4M35.4060813S
p3869
sa(dp3870
g38
I313138863
sg39
(dp3871
g41
VEG Lunchbox HCS
p3872
sg43
Nssg44
(lp3873
I1095363701
asg32
VWeaponPickup
p3874
sg35
VPT4M37.7891319S
p3875
sa(dp3876
g38
I4096745987
sg39
(dp3877
g41
VEG Lunchbox HCS
p3878
sg43
Nssg44
(lp3879
I2758383128
asg32
VWeaponPickup
p3880
sg35
VPT4M37.7891319S
p3881
sa(dp3882
g32
VPlayerSpawn
p3883
sg39
(dp3884
g41
VEG Lunchbox HCS
p3885
sg43
Nssg35
VPT4M37.7891319S
p3886
sa(dp3887
g38
I313138863
sg39
(dp3888
g41
VRNG Commonly
p3889
sg43
Nssg44
(lp3890
I1095363701
asg32
VWeaponPickup
p3891
sg35
VPT4M41.1062213S
p3892
sa(dp3893
g38
I4096745987
sg39
(dp3894
g41
VRNG Commonly
p3895
sg43
Nssg44
(lp3896
I2758383128
asg32
VWeaponPickup
p3897
sg35
VPT4M41.1062213S
p3898
sa(dp3899
g32
VPlayerSpawn
p3900
sg39
(dp3901
g41
VRNG Commonly
p3902
sg43
Nssg35
VPT4M41.1062213S
p3903
sa(dp3904
g32
VMedal
p3905
sg39
(dp3906
g41
VRNG Penguin HCS
p3907
sg43
Nssg220
I2916014239
sg35
VPT4M41.7542142S
p3908
sa(dp3909
g38
I313138863
sg39
(dp3910
g41
VEG SuspectorHCS
p3911
sg43
Nssg44
(lp3912
I1095363701
asg32
VWeaponPickup
p3913
sg35
VPT4M42.6902594S
p3914
sa(dp3915
g38
I4096745987
sg39
(dp3916
g41
VEG SuspectorHCS
p3917
sg43
Nssg44
(lp3918
I2758383128
asg32
VWeaponPickup
p3919
sg35
VPT4M42.6902594S
p3920
sa(dp3921
g32
VPlayerSpawn
p3922
sg39
(dp3923
g41
VEG SuspectorHCS
p3924
sg43
Nssg35
VPT4M42.6902594S
p3925
sa(dp3926
g38
I4096745987
sg32
VWeaponDrop
p3927
sg234
I0
sg44
(lp3928
I2758383128
asg35
VPT4M43.0702688S
p3929
sg237
I0
sg238
VP0DT0H0M1.2667S
p3930
sg39
(dp3931
g41
VRNG Commonly
p3932
sg43
Nssa(dp3933
g38
I523953283
sg39
(dp3934
g41
VRNG Commonly
p3935
sg43
Nssg44
(lp3936
I2208825748
asg32
VWeaponPickup
p3937
sg35
VPT4M43.0712723S
p3938
sa(dp3939
g32
VMedal
p3940
sg39
(dp3941
g41
VRNG Victory X
p3942
sg43
Nssg220
I3565443938
sg35
VPT4M44.2712792S
p3943
sa(dp3944
g32
VMedal
p3945
sg39
(dp3946
g41
VRNG Penguin HCS
p3947
sg43
Nssg220
I2105198095
sg35
VPT4M44.2712792S
p3948
sa(dp3949
g32
VMedal
p3950
sg39
(dp3951
g41
VRNG Commonly
p3952
sg43
Nssg220
I2105198095
sg35
VPT4M44.2712792S
p3953
sa(dp3954
g32
VMedal
p3955
sg39
(dp3956
g41
VRNG Ninja HCS
p3957
sg43
Nssg220
I2105198095
sg35
VPT4M44.2712792S
p3958
sa(dp3959
g32
VMedal
p3960
sg39
(dp3961
g41
VRNG Victory X
p3962
sg43
Nssg220
I2105198095
sg35
VPT4M44.2712792S
p3963
sa(dp3964
g32
VMedal
p3965
sg39
(dp3966
g41
VRNG Ninja HCS
p3967
sg43
Nssg220
I1637841390
sg35
VPT4M44.2722814S
p3968
sa(dp3969
g179
I4106030681
sg180
I00
sg181
I00
sg182
(dp3970
g41
VRNG Penguin HCS
p3971
sg43
Nssg185
(lp3972
sg187
I00
sg188
I01
sg189
I1
sg190
I0
sg191
I1
sg192
(dp3973
Vy
F14.4566336
sVx
F1.591453
sVz
F0.59708170000000005
ssg194
(dp3974
Vy
F15.1635437
sVx
F4.4387379999999999
sVz
F1.13220513
ssg196
I00
sg197
(dp3975
g41
VEG Snip3downHCS
p3976
sg43
Nssg200
(lp3977
sg202
(lp3978
sg206
I00
sg35
VPT4M46.0553246S
p3979
sg32
VDeath
p3980
sg209
I1
sa(dp3981
g38
I313138863
sg32
VWeaponDrop
p3982
sg234
I7
sg44
(lp3983
I1095363701
asg35
VPT4M46.0573274S
p3984
sg237
I2
sg238
VP0DT0H0M2.0833S
p3985
sg39
(dp3986
g41
VEG Snip3downHCS
p3987
sg43
Nssa(dp3988
g38
I4096745987
sg32
VWeaponDrop
p3989
sg234
I4
sg44
(lp3990
I2758383128
asg35
VPT4M46.0573274S
p3991
sg237
I1
sg238
VP0DT0H0M11.0667S
p3992
sg39
(dp3993
g41
VEG Snip3downHCS
p3994
sg43
Nssa(dp3995
g179
I4096745987
sg180
I00
sg181
I00
sg182
(dp3996
g41
VEG Roy HCS
p3997
sg43
Nssg185
(lp3998
I2758383128
asg187
I00
sg188
I01
sg189
I1
sg190
I0
sg191
I1
sg192
(dp3999
Vy
F13.68008
sVx
F8.9336529999999996
sVz
F1.4957755800000001
ssg194
(dp4000
Vy
F13.893674900000001
sVx
F0.462669253
sVz
F3.8146972699999997e-06
ssg196
I00
sg197
(dp4001
g41
VRNG Penguin HCS
p4002
sg43
Nssg200
(lp4003
sg202
(lp4004
(dp4005
g41
VEG Lunchbox HCS
p4006
sg43
Nsa(dp4007
g41
VEG Snip3downHCS
p4008
sg43
Nsasg206
I01
sg35
VPT4M47.05535S
p4009
sg32
VDeath
p4010
sg209
I1
sa(dp4011
g32
VMedal
p4012
sg39
(dp4013
g41
VEG Roy HCS
p4014
sg43
Nssg220
I3261908037
sg35
VPT4M47.0573912S
p4015
sa(dp4016
g38
I313138863
sg32
VWeaponDrop
p4017
sg234
I27
sg44
(lp4018
I1095363701
asg35
VPT4M47.0573912S
p4019
sg237
I10
sg238
VP0DT0H0M19.9000S
p4020
sg39
(dp4021
g41
VRNG Penguin HCS
p4022
sg43
Nssa(dp4023
g38
I313138863
sg32
VWeaponDrop
p4024
sg234
I0
sg44
(lp4025
I1095363701
asg35
VPT4M47.0573912S
p4026
sg237
I0
sg238
VP0DT0S
p4027
sg39
(dp4028
g41
VRNG Penguin HCS
p4029
sg43
Nssa(dp4030
g38
I4096745987
sg32
VWeaponDrop
p4031
sg234
I1
sg44
(lp4032
I2758383128
asg35
VPT4M47.0573912S
p4033
sg237
I0
sg238
VP0DT0H0M4.4000S
p4034
sg39
(dp4035
g41
VRNG Penguin HCS
p4036
sg43
Nssa(dp4037
g38
I2492868984
sg39
(dp4038
g41
VRNG Ninja HCS
p4039
sg43
Nssg44
(lp4040
I2758383128
asg32
VWeaponPickup
p4041
sg35
VPT4M48.821395S
p4042
sa(dp4043
g38
I2492868984
sg32
VWeaponDrop
p4044
sg234
I0
sg44
(lp4045
I2758383128
asg35
VPT4M49.9724239S
p4046
sg237
I0
sg238
VP0DT0H0M0.9833S
p4047
sg39
(dp4048
g41
VRNG Ninja HCS
p4049
sg43
Nssa(dp4050
g32
VMedal
p4051
sg39
(dp4052
g41
VEG Roy HCS
p4053
sg43
Nssg220
I3565443938
sg35
VPT4M52.6044957S
p4054
sa(dp4055
g32
VMedal
p4056
sg39
(dp4057
g41
VEG Lunchbox HCS
p4058
sg43
Nssg220
I3565443938
sg35
VPT4M52.6044957S
p4059
sa(dp4060
g32
VMedal
p4061
sg39
(dp4062
g41
VEG Snip3downHCS
p4063
sg43
Nssg220
I1637841390
sg35
VPT4M52.6044957S
p4064
sa(dp4065
g38
I313138863
sg39
(dp4066
g41
VEG Snip3downHCS
p4067
sg43
Nssg44
(lp4068
I1095363701
asg32
VWeaponPickup
p4069
sg35
VPT4M54.0725537S
p4070
sa(dp4071
g38
I4096745987
sg39
(dp4072
g41
VEG Snip3downHCS
p4073
sg43
Nssg44
(lp4074
I2758383128
asg32
VWeaponPickup
p4075
sg35
VPT4M54.0725537S
p4076
sa(dp4077
g32
VPlayerSpawn
p4078
sg39
(dp4079
g41
VEG Snip3downHCS
p4080
sg43
Nssg35
VPT4M54.0725537S
p4081
sa(dp4082
g179
I2278207101
sg180
I00
sg181
I00
sg182
(dp4083
g41
VRNG Ninja HCS
p4084
sg43
Nssg185
(lp4085
I2758383128
asg187
I00
sg188
I01
sg189
I1
sg190
I0
sg191
I1
sg192
(dp4086
Vy
F11.592700000000001
sVx
F14.5042925
sVz
F0.94058644800000002
ssg194
(dp4087
Vy
F13.991123200000001
sVx
F11.591011999999999
sVz
F0.79999864099999995
ssg196
I00
sg197
(dp4088
g41
VEG Roy HCS
p4089
sg43
Nssg200
(lp4090
sg202
(lp4091
(dp4092
g41
VRNG Commonly
p4093
sg43
Nsasg206
I00
sg35
VPT4M54.6225444S
p4094
sg32
VDeath
p4095
sg209
I1
sa(dp4096
g38
I313138863
sg32
VWeaponDrop
p4097
sg234
I0
sg44
(lp4098
I1095363701
asg35
VPT4M54.6235459S
p4099
sg237
I0
sg238
VP0DT0H0M1.5167S
p4100
sg39
(dp4101
g41
VEG Roy HCS
p4102
sg43
Nssa(dp4103
g38
I4096745987
sg32
VWeaponDrop
p4104
sg234
I5
sg44
(lp4105
I2758383128
asg35
VPT4M54.6235459S
p4106
sg237
I4
sg238
VP0DT0H0M17.7000S
p4107
sg39
(dp4108
g41
VEG Roy HCS
p4109
sg43
Nssa(dp4110
g179
I2278207101
sg180
I00
sg181
I00
sg182
(dp4111
g41
VRNG Ninja HCS
p4112
sg43
Nssg185
(lp4113
I2758383128
asg187
I00
sg188
I01
sg189
I1
sg190
I0
sg191
I1
sg192
(dp4114
Vy
F11.697319
sVx
F14.4120855
sVz
F0.87655209999999995
ssg194
(dp4115
Vy
F14.836002300000001
sVx
F10.614851
sVz
F0.79999864099999995
ssg196
I00
sg197
(dp4116
g41
VEG Lunchbox HCS
p4117
sg43
Nssg200
(lp4118
sg202
(lp4119
(dp4120
g41
VRNG Victory X
p4121
sg43
Nsa(dp4122
g41
VRNG Commonly
p4123
sg43
Nsasg206
I00
sg35
VPT4M54.6905455S
p4124
sg32
VDeath
p4125
sg209
I1
sa(dp4126
g32
VMedal
p4127
sg39
(dp4128
g41
VRNG Ninja HCS
p4129
sg43
Nssg220
I2078758684
sg35
VPT4M54.6925699S
p4130
sa(dp4131
g38
I313138863
sg32
VWeaponDrop
p4132
sg234
I7
sg44
(lp4133
I1095363701
asg35
VPT4M54.6925699S
p4134
sg237
I0
sg238
VP0DT0H0M3.7667S
p4135
sg39
(dp4136
g41
VEG Lunchbox HCS
p4137
sg43
Nssa(dp4138
g38
I4096745987
sg32
VWeaponDrop
p4139
sg234
I3
sg44
(lp4140
I2758383128
asg35
VPT4M54.6925699S
p4141
sg237
I1
sg238
VP0DT0H0M13.1333S
p4142
sg39
(dp4143
g41
VEG Lunchbox HCS
p4144
sg43
Nssa(dp4145
g38
I313138863
sg39
(dp4146
g41
VRNG Penguin HCS
p4147
sg43
Nssg44
(lp4148
I1095363701
asg32
VWeaponPickup
p4149
sg35
VPT4M55.0715549S
p4150
sa(dp4151
g38
I4096745987
sg39
(dp4152
g41
VRNG Penguin HCS
p4153
sg43
Nssg44
(lp4154
I2758383128
asg32
VWeaponPickup
p4155
sg35
VPT4M55.0725858S
p4156
sa(dp4157
g32
VPlayerSpawn
p4158
sg39
(dp4159
g41
VRNG Penguin HCS
p4160
sg43
Nssg35
VPT4M55.0725858S
p4161
sa(dp4162
g32
VMedal
p4163
sg39
(dp4164
g41
VRNG Ninja HCS
p4165
sg43
Nssg220
I3400287617
sg35
VPT5M0.7707014S
p4166
sa(dp4167
g32
VMedal
p4168
sg39
(dp4169
g41
VRNG Commonly
p4170
sg43
Nssg220
I3565443938
sg35
VPT5M1.4717194S
p4171
sa(dp4172
g32
VMedal
p4173
sg39
(dp4174
g41
VRNG Ninja HCS
p4175
sg43
Nssg220
I3565443938
sg35
VPT5M1.4717194S
p4176
sa(dp4177
g32
VMedal
p4178
sg39
(dp4179
g41
VRNG Penguin HCS
p4180
sg43
Nssg220
I2105198095
sg35
VPT5M1.4717194S
p4181
sa(dp4182
g32
VMedal
p4183
sg39
(dp4184
g41
VRNG Commonly
p4185
sg43
Nssg220
I2105198095
sg35
VPT5M1.4717194S
p4186
sa(dp4187
g32
VMedal
p4188
sg39
(dp4189
g41
VRNG Ninja HCS
p4190
sg43
Nssg220
I2105198095
sg35
VPT5M1.4717194S
p4191
sa(dp4192
g32
VMedal
p4193
sg39
(dp4194
g41
VRNG Victory X
p4195
sg43
Nssg220
I2105198095
sg35
VPT5M1.4717194S
p4196
sa(dp4197
g38
I313138863
sg39
(dp4198
g41
VEG Roy HCS
p4199
sg43
Nssg44
(lp4200
I1095363701
asg32
VWeaponPickup
p4201
sg35
VPT5M2.6397718S
p4202
sa(dp4203
g38
I4096745987
sg39
(dp4204
g41
VEG Roy HCS
p4205
sg43
Nssg44
(lp4206
I2758383128
asg32
VWeaponPickup
p4207
sg35
VPT5M2.6397718S
p4208
sa(dp4209
g32
VPlayerSpawn
p4210
sg39
(dp4211
g41
VEG Roy HCS
p4212
sg43
Nssg35
VPT5M2.6397718S
p4213
sa(dp4214
g38
I313138863
sg39
(dp4215
g41
VEG Lunchbox HCS
p4216
sg43
Nssg44
(lp4217
I1095363701
asg32
VWeaponPickup
p4218
sg35
VPT5M2.7057737S
p4219
sa(dp4220
g38
I4096745987
sg39
(dp4221
g41
VEG Lunchbox HCS
p4222
sg43
Nssg44
(lp4223
I2758383128
asg32
VWeaponPickup
p4224
sg35
VPT5M2.7057737S
p4225
sa(dp4226
g32
VPlayerSpawn
p4227
sg39
(dp4228
g41
VEG Lunchbox HCS
p4229
sg43
Nssg35
VPT5M2.7057737S
p4230
sa(dp4231
g32
VMedal
p4232
sg39
(dp4233
g41
VEG SuspectorHCS
p4234
sg43
Nssg220
I3565443938
sg35
VPT5M3.7877786S
p4235
sa(dp4236
g32
VMedal
p4237
sg39
(dp4238
g41
VEG Snip3downHCS
p4239
sg43
Nssg220
I1637841390
sg35
VPT5M3.7877786S
p4240
sa(dp4241
g179
I523953283
sg180
I00
sg181
I00
sg182
(dp4242
g41
VRNG Commonly
p4243
sg43
Nssg185
(lp4244
I2208825748
asg187
I00
sg188
I01
sg189
I1
sg190
I0
sg191
I1
sg192
(dp4245
Vy
F2.4574509999999998
sVx
F2.5197742000000001
sVz
F3.784895e-06
ssg194
(dp4246
Vy
F-8.1089040000000008
sVx
F2.3738687000000001
sVz
F3.7550926200000002e-06
ssg196
I00
sg197
(dp4247
g41
VEG Snip3downHCS
p4248
sg43
Nssg200
(lp4249
sg202
(lp4250
(dp4251
g41
VRNG Penguin HCS
p4252
sg43
Nsa(dp4253
g41
VRNG Victory X
p4254
sg43
Nsasg206
I01
sg35
VPT5M4.5378249S
p4255
sg32
VDeath
p4256
sg209
I1
sa(dp4257
g32
VImpulse
p4258
sg39
(dp4259
g41
VRNG Commonly
p4260
sg43
Nssg214
I2556889090
sg35
VPT5M4.5387985S
p4261
sa(dp4262
g32
VMedal
p4263
sg39
(dp4264
g41
VRNG Commonly
p4265
sg43
Nssg220
I2838259753
sg35
VPT5M4.5387985S
p4266
sa(dp4267
g32
VMedal
p4268
sg39
(dp4269
g41
VRNG Commonly
p4270
sg43
Nssg220
I3261908037
sg35
VPT5M4.5398259S
p4271
sa(dp4272
g38
I313138863
sg32
VWeaponDrop
p4273
sg234
I30
sg44
(lp4274
I1095363701
asg35
VPT5M4.5398259S
p4275
sg237
I13
sg238
VP0DT0H0M7.6500S
p4276
sg39
(dp4277
g41
VEG Snip3downHCS
p4278
sg43
Nssa(dp4279
g38
I4096745987
sg32
VWeaponDrop
p4280
sg234
I0
sg44
(lp4281
I2758383128
asg35
VPT5M4.5398259S
p4282
sg237
I0
sg238
VP0DT0H0M2.8167S
p4283
sg39
(dp4284
g41
VEG Snip3downHCS
p4285
sg43
Nssa(dp4286
g38
I313138863
sg39
(dp4287
g41
VEG Snip3downHCS
p4288
sg43
Nssg44
(lp4289
I1095363701
asg32
VWeaponPickup
p4290
sg35
VPT5M12.5550265S
p4291
sa(dp4292
g38
I4096745987
sg39
(dp4293
g41
VEG Snip3downHCS
p4294
sg43
Nssg44
(lp4295
I2758383128
asg32
VWeaponPickup
p4296
sg35
VPT5M12.5550265S
p4297
sa(dp4298
g32
VPlayerSpawn
p4299
sg39
(dp4300
g41
VEG Snip3downHCS
p4301
sg43
Nssg35
VPT5M12.5550265S
p4302
sa(dp4303
g179
I4106030681
sg180
I00
sg181
I00
sg182
(dp4304
g41
VRNG Victory X
p4305
sg43
Nssg185
(lp4306
sg187
I00
sg188
I01
sg189
I1
sg190
I0
sg191
I1
sg192
(dp4307
Vy
F-14.313732099999999
sVx
F5.2782106400000002
sVz
F0.79999876000000003
ssg194
(dp4308
Vy
F-11.942128200000001
sVx
F15.1505566
sVz
F1.3410128400000001
ssg196
I00
sg197
(dp4309
g41
VEG Lunchbox HCS
p4310
sg43
Nssg200
(lp4311
sg202
(lp4312
(dp4313
g41
VRNG Ninja HCS
p4314
sg43
Nsasg206
I00
sg35
VPT5M12.6090054S
p4315
sg32
VDeath
p4316
sg209
I1
sa(dp4317
g32
VImpulse
p4318
sg39
(dp4319
g41
VRNG Victory X
p4320
sg43
Nssg214
I2556889090
sg35
VPT5M12.6100251S
p4321
sa(dp4322
g32
VMedal
p4323
sg39
(dp4324
g41
VRNG Victory X
p4325
sg43
Nssg220
I2838259753
sg35
VPT5M12.6100251S
p4326
sa(dp4327
g32
VMedal
p4328
sg39
(dp4329
g41
VRNG Penguin HCS
p4330
sg43
Nssg220
I824733727
sg35
VPT5M12.6100251S
p4331
sa(dp4332
g38
I313138863
sg32
VWeaponDrop
p4333
sg234
I9
sg44
(lp4334
I1095363701
asg35
VPT5M12.6110234S
p4335
sg237
I0
sg238
VP0DT0H0M2.1667S
p4336
sg39
(dp4337
g41
VEG Lunchbox HCS
p4338
sg43
Nssa(dp4339
g38
I4096745987
sg32
VWeaponDrop
p4340
sg234
I9
sg44
(lp4341
I2758383128
asg35
VPT5M12.6110234S
p4342
sg237
I6
sg238
VP0DT0H0M7.7333S
p4343
sg39
(dp4344
g41
VEG Lunchbox HCS
p4345
sg43
Nssa(dp4346
g179
I2278207101
sg180
I00
sg181
I00
sg182
(dp4347
g41
VRNG Ninja HCS
p4348
sg43
Nssg185
(lp4349
I2758383128
asg187
I00
sg188
I01
sg189
I1
sg190
I0
sg191
I1
sg192
(dp4350
Vy
F-15.5280848
sVx
F10.4212475
sVz
F0.79999849999999995
ssg194
(dp4351
Vy
F-14.1891947
sVx
F11.720689999999999
sVz
F0.79999864099999995
ssg196
I00
sg197
(dp4352
g41
VEG SuspectorHCS
p4353
sg43
Nssg200
(lp4354
sg202
(lp4355
sg206
I00
sg35
VPT5M12.9380129S
p4356
sg32
VDeath
p4357
sg209
I1
sa(dp4358
g38
I313138863
sg32
VWeaponDrop
p4359
sg234
I14
sg44
(lp4360
I1095363701
asg35
VPT5M12.9400373S
p4361
sg237
I5
sg238
VP0DT0H0M17.9167S
p4362
sg39
(dp4363
g41
VEG SuspectorHCS
p4364
sg43
Nssa(dp4365
g38
I4096745987
sg32
VWeaponDrop
p4366
sg234
I3
sg44
(lp4367
I2758383128
asg35
VPT5M12.9400373S
p4368
sg237
I2
sg238
VP0DT0H0M12.3333S
p4369
sg39
(dp4370
g41
VEG SuspectorHCS
p4371
sg43
Nssa(dp4372
g179
I3168248199
sg180
I00
sg181
I00
sg182
(dp4373
g41
VEG Snip3downHCS
p4374
sg43
Nssg185
(lp4375
sg187
I00
sg188
I00
sg189
I1
sg190
I0
sg191
I1
sg192
(dp4376
Vy
F10.6718683
sVx
F-0.82356303900000005
sVz
F0.006034106
ssg194
(dp4377
Vy
F10.4644022
sVx
F-0.54434720000000003
sVz
F3.784895e-06
ssg196
I01
sg197
(dp4378
g41
VRNG Commonly
p4379
sg43
Nssg200
(lp4380
sg202
(lp4381
(dp4382
g41
VEG Roy HCS
p4383
sg43
Nsasg206
I00
sg35
VPT5M14.4380522S
p4384
sg32
VDeath
p4385
sg209
I1
sa(dp4386
g32
VMedal
p4387
sg39
(dp4388
g41
VEG Snip3downHCS
p4389
sg43
Nssg220
I298813630
sg35
VPT5M14.4380522S
p4390
sa(dp4391
g38
I523953283
sg32
VWeaponDrop
p4392
sg234
I12
sg44
(lp4393
I2208825748
asg35
VPT5M14.4390987S
p4394
sg237
I2
sg238
VP0DT0H0M31.3667S
p4395
sg39
(dp4396
g41
VRNG Commonly
p4397
sg43
Nssa(dp4398
g38
I313138863
sg32
VWeaponDrop
p4399
sg234
I0
sg44
(lp4400
I1095363701
asg35
VPT5M14.4410748S
p4401
sg237
I0
sg238
VP0DT0H0M0.7000S
p4402
sg39
(dp4403
g41
VRNG Commonly
p4404
sg43
Nssa(dp4405
g179
I2278207101
sg180
I00
sg181
I00
sg182
(dp4406
g41
VRNG Ninja HCS
p4407
sg43
Nssg185
(lp4408
I2758383128
asg187
I00
sg188
I00
sg189
I2
sg190
I0
sg191
I0
sg192
(dp4409
Vy
F-14.8892717
sVx
F9.4382730000000006
sVz
F0.79999876000000003
ssg194
(dp4410
Vy
F-11.9018373
sVx
F8.0775579999999998
sVz
F0.801661968
ssg196
I00
sg197
(dp4411
g521
g522
ssg200
(lp4412
sg202
(lp4413
sg206
I00
sg35
VPT5M15.4540772S
p4414
sg32
VDeath
p4415
sg209
I1
sa(dp4416
g32
VMedal
p4417
sg39
(dp4418
g41
VRNG Ninja HCS
p4419
sg43
Nssg220
I3565443938
sg35
VPT5M17.1701448S
p4420
sa(dp4421
g32
VMedal
p4422
sg39
(dp4423
g41
VRNG Victory X
p4424
sg43
Nssg220
I3565443938
sg35
VPT5M17.1701448S
p4425
sa(dp4426
g32
VMedal
p4427
sg39
(dp4428
g41
VRNG Penguin HCS
p4429
sg43
Nssg220
I2105198095
sg35
VPT5M17.1721402S
p4430
sa(dp4431
g32
VMedal
p4432
sg39
(dp4433
g41
VRNG Commonly
p4434
sg43
Nssg220
I2105198095
sg35
VPT5M17.1721402S
p4435
sa(dp4436
g32
VMedal
p4437
sg39
(dp4438
g41
VRNG Ninja HCS
p4439
sg43
Nssg220
I2105198095
sg35
VPT5M17.1721402S
p4440
sa(dp4441
g32
VMedal
p4442
sg39
(dp4443
g41
VRNG Victory X
p4444
sg43
Nssg220
I2105198095
sg35
VPT5M17.1721402S
p4445
sa(dp4446
g32
VMedal
p4447
sg39
(dp4448
g41
VRNG Penguin HCS
p4449
sg43
Nssg220
I2916014239
sg35
VPT5M18.9201878S
p4450
sa(dp4451
g38
I313138863
sg39
(dp4452
g41
VEG Lunchbox HCS
p4453
sg43
Nssg44
(lp4454
I1095363701
asg32
VWeaponPickup
p4455
sg35
VPT5M20.6223289S
p4456
sa(dp4457
g38
I4096745987
sg39
(dp4458
g41
VEG Lunchbox HCS
p4459
sg43
Nssg44
(lp4460
I2758383128
asg32
VWeaponPickup
p4461
sg35
VPT5M20.6232301S
p4462
sa(dp4463
g32
VPlayerSpawn
p4464
sg39
(dp4465
g41
VEG Lunchbox HCS
p4466
sg43
Nssg35
VPT5M20.6232301S
p4467
sa(dp4468
g38
I313138863
sg39
(dp4469
g41
VEG SuspectorHCS
p4470
sg43
Nssg44
(lp4471
I1095363701
asg32
VWeaponPickup
p4472
sg35
VPT5M20.9552444S
p4473
sa(dp4474
g38
I4096745987
sg39
(dp4475
g41
VEG SuspectorHCS
p4476
sg43
Nssg44
(lp4477
I2758383128
asg32
VWeaponPickup
p4478
sg35
VPT5M20.9552444S
p4479
sa(dp4480
g32
VPlayerSpawn
p4481
sg39
(dp4482
g41
VEG SuspectorHCS
p4483
sg43
Nssg35
VPT5M20.9552444S
p4484
sa(dp4485
g38
I313138863
sg39
(dp4486
g41
VRNG Commonly
p4487
sg43
Nssg44
(lp4488
I1095363701
asg32
VWeaponPickup
p4489
sg35
VPT5M22.4552794S
p4490
sa(dp4491
g38
I4096745987
sg39
(dp4492
g41
VRNG Commonly
p4493
sg43
Nssg44
(lp4494
I2758383128
asg32
VWeaponPickup
p4495
sg35
VPT5M22.4552794S
p4496
sa(dp4497
g32
VPlayerSpawn
p4498
sg39
(dp4499
g41
VRNG Commonly
p4500
sg43
Nssg35
VPT5M22.4552794S
p4501
sa(dp4502
g38
I4096745987
sg32
VWeaponDrop
p4503
sg234
I0
sg44
(lp4504
I2758383128
asg35
VPT5M24.6363333S
p4505
sg237
I0
sg238
VP0DT0H0M1.3833S
p4506
sg39
(dp4507
g41
VRNG Commonly
p4508
sg43
Nssa(dp4509
g38
I523953283
sg39
(dp4510
g41
VRNG Commonly
p4511
sg43
Nssg44
(lp4512
I2208825748
asg32
VWeaponPickup
p4513
sg35
VPT5M24.637345S
p4514
sa(dp4515
g179
I313138863
sg180
I00
sg181
I00
sg182
(dp4516
g41
VRNG Penguin HCS
p4517
sg43
Nssg185
(lp4518
I1095363701
asg187
I00
sg188
I01
sg189
I1
sg190
I0
sg191
I1
sg192
(dp4519
Vy
F4.10504961
sVx
F13.761694
sVz
F2.3526036700000001
ssg194
(dp4520
Vy
F6.5900410000000003
sVx
F11.638453500000001
sVz
F2.2492329999999998
ssg196
I00
sg197
(dp4521
g41
VEG Roy HCS
p4522
sg43
Nssg200
(lp4523
sg202
(lp4524
(dp4525
g41
VRNG Ninja HCS
p4526
sg43
Nsasg206
I00
sg35
VPT5M28.8724639S
p4527
sg32
VDeath
p4528
sg209
I1
sa(dp4529
g38
I313138863
sg32
VWeaponDrop
p4530
sg234
I0
sg44
(lp4531
I1095363701
asg35
VPT5M28.8734444S
p4532
sg237
I0
sg238
VP0DT0H0M2.3500S
p4533
sg39
(dp4534
g41
VEG Roy HCS
p4535
sg43
Nssa(dp4536
g38
I4096745987
sg32
VWeaponDrop
p4537
sg234
I18
sg44
(lp4538
I2758383128
asg35
VPT5M28.8734444S
p4539
sg237
I10
sg238
VP0DT0H0M23.8833S
p4540
sg39
(dp4541
g41
VEG Roy HCS
p4542
sg43
Nssa(dp4543
g32
VMedal
p4544
sg39
(dp4545
g41
VEG Lunchbox HCS
p4546
sg43
Nssg220
I3565443938
sg35
VPT5M29.6374413S
p4547
sa(dp4548
g32
VMedal
p4549
sg39
(dp4550
g41
VEG SuspectorHCS
p4551
sg43
Nssg220
I3565443938
sg35
VPT5M29.6374413S
p4552
sa(dp4553
g179
I313138863
sg180
I00
sg181
I00
sg182
(dp4554
g41
VRNG Victory X
p4555
sg43
Nssg185
(lp4556
I1095363701
asg187
I00
sg188
I01
sg189
I1
sg190
I0
sg191
I1
sg192
(dp4557
Vy
F14.6158915
sVx
F2.6803474399999998
sVz
F0.86405050000000005
ssg194
(dp4558
Vy
F15.4923105
sVx
F4.5127315499999998
sVz
F1.12476277
ssg196
I00
sg197
(dp4559
g41
VEG Lunchbox HCS
p4560
sg43
Nssg200
(lp4561
sg202
(lp4562
(dp4563
g41
VRNG Commonly
p4564
sg43
Nsasg206
I00
sg35
VPT5M30.0874779S
p4565
sg32
VDeath
p4566
sg209
I1
sa(dp4567
g32
VImpulse
p4568
sg39
(dp4569
g41
VRNG Victory X
p4570
sg43
Nssg214
I2556889090
sg35
VPT5M30.0884715S
p4571
sa(dp4572
g32
VMedal
p4573
sg39
(dp4574
g41
VRNG Victory X
p4575
sg43
Nssg220
I2838259753
sg35
VPT5M30.0884715S
p4576
sa(dp4577
g38
I313138863
sg32
VWeaponDrop
p4578
sg234
I0
sg44
(lp4579
I1095363701
asg35
VPT5M30.0894747S
p4580
sg237
I0
sg238
VP0DT0H0M0.7667S
p4581
sg39
(dp4582
g41
VEG Lunchbox HCS
p4583
sg43
Nssa(dp4584
g38
I4096745987
sg32
VWeaponDrop
p4585
sg234
I9
sg44
(lp4586
I2758383128
asg35
VPT5M30.0894747S
p4587
sg237
I5
sg238
VP0DT0H0M8.7000S
p4588
sg39
(dp4589
g41
VEG Lunchbox HCS
p4590
sg43
Nssa(dp4591
g32
VMedal
p4592
sg39
(dp4593
g41
VEG SuspectorHCS
p4594
sg43
Nssg220
I2916014239
sg35
VPT5M32.3865132S
p4595
sa(dp4596
g179
I4096745987
sg180
I00
sg181
I00
sg182
(dp4597
g41
VRNG Victory X
p4598
sg43
Nssg185
(lp4599
I2758383128
asg187
I00
sg188
I01
sg189
I1
sg190
I0
sg191
I1
sg192
(dp4600
Vy
F14.0974255
sVx
F3.444607
sVz
F0.24481600000000001
ssg194
(dp4601
Vy
F14.2709408
sVx
F8.8262199999999993
sVz
F0.79999876000000003
ssg196
I00
sg197
(dp4602
g41
VEG SuspectorHCS
p4603
sg43
Nssg200
(lp4604
sg202
(lp4605
(dp4606
g41
VRNG Ninja HCS
p4607
sg43
Nsasg206
I01
sg35
VPT5M32.971525S
p4608
sg32
VDeath
p4609
sg209
I1
sa(dp4610
g32
VMedal
p4611
sg39
(dp4612
g41
VRNG Victory X
p4613
sg43
Nssg220
I3261908037
sg35
VPT5M32.9725488S
p4614
sa(dp4615
g32
VMedal
p4616
sg39
(dp4617
g41
VRNG Victory X
p4618
sg43
Nssg220
I2078758684
sg35
VPT5M32.9725488S
p4619
sa(dp4620
g38
I313138863
sg32
VWeaponDrop
p4621
sg234
I14
sg44
(lp4622
I1095363701
asg35
VPT5M32.9735502S
p4623
sg237
I9
sg238
VP0DT0H0M4.8500S
p4624
sg39
(dp4625
g41
VEG SuspectorHCS
p4626
sg43
Nssa(dp4627
g38
I4096745987
sg32
VWeaponDrop
p4628
sg234
I0
sg44
(lp4629
I2758383128
asg35
VPT5M32.9735502S
p4630
sg237
I0
sg238
VP0DT0H0M7.1667S
p4631
sg39
(dp4632
g41
VEG SuspectorHCS
p4633
sg43
Nssa(dp4634
g179
I4096745987
sg180
I00
sg181
I00
sg182
(dp4635
g41
VEG Snip3downHCS
p4636
sg43
Nssg185
(lp4637
I2758383128
asg187
I00
sg188
I01
sg189
I1
sg190
I0
sg191
I1
sg192
(dp4638
Vy
F3.2712965000000001
sVx
F2.3764021400000002
sVz
F0.43258297400000001
ssg194
(dp4639
Vy
F10.7033615
sVx
F6.6941959999999998
sVz
F2.0918953400000002
ssg196
I00
sg197
(dp4640
g41
VRNG Ninja HCS
p4641
sg43
Nssg200
(lp4642
sg202
(lp4643
(dp4644
g41
VEG Roy HCS
p4645
sg43
Nsasg206
I00
sg35
VPT5M33.1875311S
p4646
sg32
VDeath
p4647
sg209
I1
sa(dp4648
g38
I2278207101
sg32
VWeaponDrop
p4649
sg234
I72
sg44
(lp4650
I2758383128
asg35
VPT5M33.1895307S
p4651
sg237
I30
sg238
VP0DT0H0M42.8667S
p4652
sg39
(dp4653
g41
VRNG Ninja HCS
p4654
sg43
Nssa(dp4655
g38
I4096745987
sg32
VWeaponDrop
p4656
sg234
I15
sg44
(lp4657
I2758383128
asg35
VPT5M33.1895307S
p4658
sg237
I5
sg238
VP0DT0H0M18.9167S
p4659
sg39
(dp4660
g41
VRNG Ninja HCS
p4661
sg43
Nssa(dp4662
g38
I313138863
sg39
(dp4663
g41
VEG Roy HCS
p4664
sg43
Nssg44
(lp4665
I1095363701
asg32
VWeaponPickup
p4666
sg35
VPT5M36.8886284S
p4667
sa(dp4668
g38
I4096745987
sg39
(dp4669
g41
VEG Roy HCS
p4670
sg43
Nssg44
(lp4671
I2758383128
asg32
VWeaponPickup
p4672
sg35
VPT5M36.8886284S
p4673
sa(dp4674
g32
VPlayerSpawn
p4675
sg39
(dp4676
g41
VEG Roy HCS
p4677
sg43
Nssg35
VPT5M36.8886284S
p4678
sa(dp4679
g38
I313138863
sg39
(dp4680
g41
VEG Lunchbox HCS
p4681
sg43
Nssg44
(lp4682
I1095363701
asg32
VWeaponPickup
p4683
sg35
VPT5M38.1046584S
p4684
sa(dp4685
g38
I4096745987
sg39
(dp4686
g41
VEG Lunchbox HCS
p4687
sg43
Nssg44
(lp4688
I2758383128
asg32
VWeaponPickup
p4689
sg35
VPT5M38.1046584S
p4690
sa(dp4691
g32
VPlayerSpawn
p4692
sg39
(dp4693
g41
VEG Lunchbox HCS
p4694
sg43
Nssg35
VPT5M38.1056819S
p4695
sa(dp4696
g179
I313138863
sg180
I00
sg181
I00
sg182
(dp4697
g41
VRNG Penguin HCS
p4698
sg43
Nssg185
(lp4699
I1095363701
asg187
I00
sg188
I01
sg189
I1
sg190
I0
sg191
I1
sg192
(dp4700
Vy
F8.7581389999999999
sVx
F2.5432596200000002
sVz
F0.10669753
ssg194
(dp4701
Vy
F8.2044160000000002
sVx
F6.73219776
sVz
F3.784895e-06
ssg196
I00
sg197
(dp4702
g41
VEG Snip3downHCS
p4703
sg43
Nssg200
(lp4704
sg202
(lp4705
(dp4706
g41
VRNG Commonly
p4707
sg43
Nsasg206
I00
sg35
VPT5M39.6716982S
p4708
sg32
VDeath
p4709
sg209
I1
sa(dp4710
g32
VMedal
p4711
sg39
(dp4712
g41
VRNG Penguin HCS
p4713
sg43
Nssg220
I2494364276
sg35
VPT5M39.6727175S
p4714
sa(dp4715
g38
I313138863
sg32
VWeaponDrop
p4716
sg234
I0
sg44
(lp4717
I1095363701
asg35
VPT5M39.6736996S
p4718
sg237
I0
sg238
VP0DT0H0M0.5167S
p4719
sg39
(dp4720
g41
VEG Snip3downHCS
p4721
sg43
Nssa(dp4722
g38
I4096745987
sg32
VWeaponDrop
p4723
sg234
I16
sg44
(lp4724
I2758383128
asg35
VPT5M39.6736996S
p4725
sg237
I12
sg238
VP0DT0H0M26.6000S
p4726
sg39
(dp4727
g41
VEG Snip3downHCS
p4728
sg43
Nssa(dp4729
g38
I313138863
sg39
(dp4730
g41
VEG SuspectorHCS
p4731
sg43
Nssg44
(lp4732
I1095363701
asg32
VWeaponPickup
p4733
sg35
VPT5M40.9877315S
p4734
sa(dp4735
g38
I4096745987
sg39
(dp4736
g41
VEG SuspectorHCS
p4737
sg43
Nssg44
(lp4738
I2758383128
asg32
VWeaponPickup
p4739
sg35
VPT5M40.9887545S
p4740
sa(dp4741
g32
VPlayerSpawn
p4742
sg39
(dp4743
g41
VEG SuspectorHCS
p4744
sg43
Nssg35
VPT5M40.9887545S
p4745
sa(dp4746
g38
I313138863
sg39
(dp4747
g41
VRNG Ninja HCS
p4748
sg43
Nssg44
(lp4749
I1095363701
asg32
VWeaponPickup
p4750
sg35
VPT5M41.204746S
p4751
sa(dp4752
g38
I4096745987
sg39
(dp4753
g41
VRNG Ninja HCS
p4754
sg43
Nssg44
(lp4755
I2758383128
asg32
VWeaponPickup
p4756
sg35
VPT5M41.204746S
p4757
sa(dp4758
g32
VPlayerSpawn
p4759
sg39
(dp4760
g41
VRNG Ninja HCS
p4761
sg43
Nssg35
VPT5M41.204746S
p4762
sa(dp4763
g32
VMedal
p4764
sg39
(dp4765
g41
VRNG Victory X
p4766
sg43
Nssg220
I3565443938
sg35
VPT5M41.4037525S
p4767
sa(dp4768
g32
VMedal
p4769
sg39
(dp4770
g41
VRNG Penguin HCS
p4771
sg43
Nssg220
I2105198095
sg35
VPT5M41.4037525S
p4772
sa(dp4773
g32
VMedal
p4774
sg39
(dp4775
g41
VRNG Commonly
p4776
sg43
Nssg220
I2105198095
sg35
VPT5M41.4037525S
p4777
sa(dp4778
g32
VMedal
p4779
sg39
(dp4780
g41
VRNG Ninja HCS
p4781
sg43
Nssg220
I2105198095
sg35
VPT5M41.4037525S
p4782
sa(dp4783
g32
VMedal
p4784
sg39
(dp4785
g41
VRNG Victory X
p4786
sg43
Nssg220
I2105198095
sg35
VPT5M41.4037525S
p4787
sa(dp4788
g32
VMedal
p4789
sg39
(dp4790
g41
VRNG Penguin HCS
p4791
sg43
Nssg220
I1637841390
sg35
VPT5M41.4047595S
p4792
sa(dp4793
g32
VMedal
p4794
sg39
(dp4795
g41
VRNG Victory X
p4796
sg43
Nssg220
I3354395650
sg35
VPT5M41.4047595S
p4797
sa(dp4798
g32
VRoundEnd
p4799
sg34
I0
sg35
VPT5M41.4207646S
p4800
sassb.