ccopy_reg
_reconstructor
p1
(c__main__
match_breakdown
p2
c__builtin__
object
p3
NtRp4
(dp5
S'details'
p6
(dp7
VIsCompleteSetOfEvents
p8
I01
sVLinks
p9
(dp10
VUgcFilmManifest
p11
(dp12
VAuthenticationLifetimeExtensionSupported
p13
I00
sVQueryString
p14
V?view=film-manifest
p15
sVRetryPolicyId
p16
Vexponentialretry
p17
sVPath
p18
V/h5/films/8056d89d-a66c-4a4f-bf0f-29bfb7965768
p19
sVAcknowledgementTypeId
p20
I0
sVAuthorityId
p21
Vugc
p22
sVTopicName
p23
V
ssVStatsMatchDetails
p24
(dp25
g13
I00
sg14
Nsg16
Vexponentialretry
p26
sg18
Vh5/custom/matches/8056d89d-a66c-4a4f-bf0f-29bfb7965768
p27
sg20
I0
sg21
Vspartanstats
p28
sg23
V
sssVGameEvents
p29
(lp30
(dp31
VEventName
p32
VRoundStart
p33
sVRoundIndex
p34
I0
sVTimeSinceStart
p35
VPT0.277095S
p36
sa(dp37
VWeaponStockId
p38
I313138863
sVPlayer
p39
(dp40
VGamertag
p41
VCLG LethuL HCS
p42
sVXuid
p43
NssVWeaponAttachmentIds
p44
(lp45
I1095363701
asg32
VWeaponPickup
p46
sg35
VPT16.5134273S
p47
sa(dp48
g38
I4096745987
sg39
(dp49
g41
VCLG LethuL HCS
p50
sg43
Nssg44
(lp51
I2758383128
asg32
VWeaponPickup
p52
sg35
VPT16.5134273S
p53
sa(dp54
g32
VPlayerSpawn
p55
sg39
(dp56
g41
VCLG LethuL HCS
p57
sg43
Nssg35
VPT16.5134273S
p58
sa(dp59
g38
I313138863
sg39
(dp60
g41
VEG Snip3downHCS
p61
sg43
Nssg44
(lp62
I1095363701
asg32
VWeaponPickup
p63
sg35
VPT16.5434271S
p64
sa(dp65
g38
I4096745987
sg39
(dp66
g41
VEG Snip3downHCS
p67
sg43
Nssg44
(lp68
I2758383128
asg32
VWeaponPickup
p69
sg35
VPT16.5434271S
p70
sa(dp71
g32
VPlayerSpawn
p72
sg39
(dp73
g41
VEG Snip3downHCS
p74
sg43
Nssg35
VPT16.5434271S
p75
sa(dp76
g38
I313138863
sg39
(dp77
g41
VCLG Snake Bite
p78
sg43
Nssg44
(lp79
I1095363701
asg32
VWeaponPickup
p80
sg35
VPT16.5703645S
p81
sa(dp82
g38
I4096745987
sg39
(dp83
g41
VCLG Snake Bite
p84
sg43
Nssg44
(lp85
I2758383128
asg32
VWeaponPickup
p86
sg35
VPT16.5705636S
p87
sa(dp88
g32
VPlayerSpawn
p89
sg39
(dp90
g41
VCLG Snake Bite
p91
sg43
Nssg35
VPT16.5705636S
p92
sa(dp93
g38
I313138863
sg39
(dp94
g41
VCLG Frosty HCS
p95
sg43
Nssg44
(lp96
I1095363701
asg32
VWeaponPickup
p97
sg35
VPT16.5814266S
p98
sa(dp99
g38
I4096745987
sg39
(dp100
g41
VCLG Frosty HCS
p101
sg43
Nssg44
(lp102
I2758383128
asg32
VWeaponPickup
p103
sg35
VPT16.582427S
p104
sa(dp105
g32
VPlayerSpawn
p106
sg39
(dp107
g41
VCLG Frosty HCS
p108
sg43
Nssg35
VPT16.582427S
p109
sa(dp110
g38
I313138863
sg39
(dp111
g41
VEG Roy HCS
p112
sg43
Nssg44
(lp113
I1095363701
asg32
VWeaponPickup
p114
sg35
VPT16.5874273S
p115
sa(dp116
g38
I4096745987
sg39
(dp117
g41
VEG Roy HCS
p118
sg43
Nssg44
(lp119
I2758383128
asg32
VWeaponPickup
p120
sg35
VPT16.5874273S
p121
sa(dp122
g32
VPlayerSpawn
p123
sg39
(dp124
g41
VEG Roy HCS
p125
sg43
Nssg35
VPT16.5874273S
p126
sa(dp127
g38
I313138863
sg39
(dp128
g41
VCLG Royal 2
p129
sg43
Nssg44
(lp130
I1095363701
asg32
VWeaponPickup
p131
sg35
VPT16.6264262S
p132
sa(dp133
g38
I4096745987
sg39
(dp134
g41
VCLG Royal 2
p135
sg43
Nssg44
(lp136
I2758383128
asg32
VWeaponPickup
p137
sg35
VPT16.6274265S
p138
sa(dp139
g32
VPlayerSpawn
p140
sg39
(dp141
g41
VCLG Royal 2
p142
sg43
Nssg35
VPT16.6274265S
p143
sa(dp144
g38
I313138863
sg39
(dp145
g41
VEG Lunchbox HCS
p146
sg43
Nssg44
(lp147
I1095363701
asg32
VWeaponPickup
p148
sg35
VPT16.6546797S
p149
sa(dp150
g38
I4096745987
sg39
(dp151
g41
VEG Lunchbox HCS
p152
sg43
Nssg44
(lp153
I2758383128
asg32
VWeaponPickup
p154
sg35
VPT16.6547458S
p155
sa(dp156
g32
VPlayerSpawn
p157
sg39
(dp158
g41
VEG Lunchbox HCS
p159
sg43
Nssg35
VPT16.6547458S
p160
sa(dp161
g38
I313138863
sg39
(dp162
g41
VEG SuspectorHCS
p163
sg43
Nssg44
(lp164
I1095363701
asg32
VWeaponPickup
p165
sg35
VPT16.667426S
p166
sa(dp167
g38
I4096745987
sg39
(dp168
g41
VEG SuspectorHCS
p169
sg43
Nssg44
(lp170
I2758383128
asg32
VWeaponPickup
p171
sg35
VPT16.674526S
p172
sa(dp173
g32
VPlayerSpawn
p174
sg39
(dp175
g41
VEG SuspectorHCS
p176
sg43
Nssg35
VPT16.674526S
p177
sa(dp178
VKillerWeaponStockId
p179
I4096745987
sVIsAssassination
p180
I00
sVIsMelee
p181
I00
sVKiller
p182
(dp183
g41
VCLG Snake Bite
p184
sg43
NssVKillerWeaponAttachmentIds
p185
(lp186
I2758383128
asVIsGroundPound
p187
I00
sVIsWeapon
p188
I01
sVDeathDisposition
p189
I1
sVVictimStockId
p190
I0
sVVictimAgent
p191
I1
sVKillerWorldLocation
p192
(dp193
Vy
F-10.2320118
sVx
F4.7635449999999997
sVz
F3.43942046
ssVVictimWorldLocation
p194
(dp195
Vy
F-11.346591
sVx
F-1.33948541
sVz
F3.3999502700000002
ssVIsShoulderBash
p196
I00
sVVictim
p197
(dp198
g41
VEG Lunchbox HCS
p199
sg43
NssVVictimAttachmentIds
p200
(lp201
sVAssistants
p202
(lp203
sVIsHeadshot
p204
I01
sg35
VPT29.8417271S
p205
sg32
VDeath
p206
sVKillerAgent
p207
I1
sa(dp208
g32
VMedal
p209
sg39
(dp210
g41
VCLG Snake Bite
p211
sg43
NssVMedalId
p212
I3261908037
sg35
VPT29.8633517S
p213
sa(dp214
g32
VMedal
p215
sg39
(dp216
g41
VCLG Snake Bite
p217
sg43
Nssg212
I3001183151
sg35
VPT29.8633517S
p218
sa(dp219
g38
I313138863
sg32
VWeaponDrop
p220
sVShotsFired
p221
I0
sg44
(lp222
I1095363701
asg35
VPT29.8743528S
p223
sVShotsLanded
p224
I0
sVTimeWeaponActiveAsPrimary
p225
VP0DT0H0M1.0000S
p226
sg39
(dp227
g41
VEG Lunchbox HCS
p228
sg43
Nssa(dp229
g38
I4096745987
sg32
VWeaponDrop
p230
sg221
I4
sg44
(lp231
I2758383128
asg35
VPT29.8743528S
p232
sg224
I3
sg225
VP0DT0H0M11.9833S
p233
sg39
(dp234
g41
VEG Lunchbox HCS
p235
sg43
Nssa(dp236
g179
I4096745987
sg180
I00
sg181
I00
sg182
(dp237
g41
VCLG Royal 2
p238
sg43
Nssg185
(lp239
I2758383128
asg187
I00
sg188
I01
sg189
I1
sg190
I0
sg191
I1
sg192
(dp240
Vy
F15.215260000000001
sVx
F3.5466287099999998
sVz
F2.973217
ssg194
(dp241
Vy
F6.0307803199999999
sVx
F3.3815496
sVz
F0.92261970000000004
ssg196
I00
sg197
(dp242
g41
VEG Roy HCS
p243
sg43
Nssg200
(lp244
sg202
(lp245
(dp246
g41
VCLG LethuL HCS
p247
sg43
Nsasg204
I01
sg35
VPT30.3793491S
p248
sg32
VDeath
p249
sg207
I1
sa(dp250
g32
VMedal
p251
sg39
(dp252
g41
VCLG Royal 2
p253
sg43
Nssg212
I3261908037
sg35
VPT30.3803492S
p254
sa(dp255
g38
I313138863
sg32
VWeaponDrop
p256
sg221
I0
sg44
(lp257
I1095363701
asg35
VPT30.3813378S
p258
sg224
I0
sg225
VP0DT0H0M4.6500S
p259
sg39
(dp260
g41
VEG Roy HCS
p261
sg43
Nssa(dp262
g38
I4096745987
sg32
VWeaponDrop
p263
sg221
I2
sg44
(lp264
I2758383128
asg35
VPT30.3813378S
p265
sg224
I1
sg225
VP0DT0H0M8.9167S
p266
sg39
(dp267
g41
VEG Roy HCS
p268
sg43
Nssa(dp269
g38
I313138863
sg32
VWeaponDrop
p270
sg221
I0
sg44
(lp271
I1095363701
asg35
VPT33.5039714S
p272
sg224
I0
sg225
VP0DT0H0M5.2833S
p273
sg39
(dp274
g41
VCLG Royal 2
p275
sg43
Nssa(dp276
g38
I669296699
sg39
(dp277
g41
VCLG Royal 2
p278
sg43
Nssg44
(lp279
I2758383128
asg32
VWeaponPickupPad
p280
sg35
VPT33.5039714S
p281
sa(dp282
g38
I669296699
sg39
(dp283
g41
VCLG Royal 2
p284
sg43
Nssg44
(lp285
I2758383128
asg32
VWeaponPickup
p286
sg35
VPT33.5053189S
p287
sa(dp288
g179
I313138863
sg180
I00
sg181
I01
sg182
(dp289
g41
VCLG Frosty HCS
p290
sg43
Nssg185
(lp291
I1095363701
asg187
I00
sg188
I00
sg189
I1
sg190
I0
sg191
I1
sg192
(dp292
Vy
F5.2136880000000003
sVx
F-7.0522813800000002
sVz
F3.4794964799999999
ssg194
(dp293
Vy
F5.4105239999999997
sVx
F-7.1105675699999997
sVz
F3.0497021700000002
ssg196
I00
sg197
(dp294
g41
VEG Snip3downHCS
p295
sg43
Nssg200
(lp296
sg202
(lp297
sg204
I00
sg35
VPT33.553522S
p298
sg32
VDeath
p299
sg207
I1
sa(dp300
g32
VMedal
p301
sg39
(dp302
g41
VCLG Frosty HCS
p303
sg43
Nssg212
I2782465081
sg35
VPT33.5543177S
p304
sa(dp305
g32
VMedal
p306
sg39
(dp307
g41
VCLG Frosty HCS
p308
sg43
Nssg212
I2287626681
sg35
VPT33.5543177S
p309
sa(dp310
g38
I313138863
sg32
VWeaponDrop
p311
sg221
I0
sg44
(lp312
I1095363701
asg35
VPT33.555318S
p313
sg224
I0
sg225
VP0DT0H0M4.1333S
p314
sg39
(dp315
g41
VEG Snip3downHCS
p316
sg43
Nssa(dp317
g38
I4096745987
sg32
VWeaponDrop
p318
sg221
I2
sg44
(lp319
I2758383128
asg35
VPT33.555318S
p320
sg224
I0
sg225
VP0DT0H0M12.6500S
p321
sg39
(dp322
g41
VEG Snip3downHCS
p323
sg43
Nssa(dp324
g38
I313138863
sg32
VWeaponDrop
p325
sg221
I0
sg44
(lp326
I1095363701
asg35
VPT36.3663547S
p327
sg224
I0
sg225
VP0DT0H0M2.2333S
p328
sg39
(dp329
g41
VCLG Snake Bite
p330
sg43
Nssa(dp331
g38
I723523180
sg39
(dp332
g41
VCLG Snake Bite
p333
sg43
Nssg44
(lp334
I2758383128
asg32
VWeaponPickupPad
p335
sg35
VPT36.3664213S
p336
sa(dp337
g38
I723523180
sg39
(dp338
g41
VCLG Snake Bite
p339
sg43
Nssg44
(lp340
I2758383128
asg32
VWeaponPickup
p341
sg35
VPT36.3664213S
p342
sa(dp343
g38
I2244200496
sg39
(dp344
g41
VCLG Frosty HCS
p345
sg43
Nssg44
(lp346
I2758383128
asg32
VWeaponPickup
p347
sg35
VPT37.4672935S
p348
sa(dp349
g32
VImpulse
p350
sg39
(dp351
g41
VCLG Frosty HCS
p352
sg43
NssVImpulseId
p353
I4191318012
sg35
VPT37.5327127S
p354
sa(dp355
g32
VImpulse
p356
sg39
(dp357
g41
VCLG Frosty HCS
p358
sg43
Nssg353
I1039658009
sg35
VPT37.5332925S
p359
sa(dp360
g38
I313138863
sg39
(dp361
g41
VEG Lunchbox HCS
p362
sg43
Nssg44
(lp363
I1095363701
asg32
VWeaponPickup
p364
sg35
VPT37.9572896S
p365
sa(dp366
g38
I4096745987
sg39
(dp367
g41
VEG Lunchbox HCS
p368
sg43
Nssg44
(lp369
I2758383128
asg32
VWeaponPickup
p370
sg35
VPT37.9582902S
p371
sa(dp372
g32
VPlayerSpawn
p373
sg39
(dp374
g41
VEG Lunchbox HCS
p375
sg43
Nssg35
VPT37.9582902S
p376
sa(dp377
g38
I313138863
sg39
(dp378
g41
VEG Roy HCS
p379
sg43
Nssg44
(lp380
I1095363701
asg32
VWeaponPickup
p381
sg35
VPT38.5262867S
p382
sa(dp383
g38
I4096745987
sg39
(dp384
g41
VEG Roy HCS
p385
sg43
Nssg44
(lp386
I2758383128
asg32
VWeaponPickup
p387
sg35
VPT38.5262867S
p388
sa(dp389
g32
VPlayerSpawn
p390
sg39
(dp391
g41
VEG Roy HCS
p392
sg43
Nssg35
VPT38.5262867S
p393
sa(dp394
g38
I2244200496
sg32
VWeaponDrop
p395
sg221
I0
sg44
(lp396
I2758383128
asg35
VPT38.6621752S
p397
sg224
I0
sg225
VP0DT0H0M0.9833S
p398
sg39
(dp399
g41
VCLG Frosty HCS
p400
sg43
Nssa(dp401
g32
VImpulse
p402
sg39
(dp403
g41
VCLG Frosty HCS
p404
sg43
Nssg353
I3435524855
sg35
VPT38.7117255S
p405
sa(dp406
g179
I4106030681
sg180
I00
sg181
I00
sg182
(dp407
g41
VCLG LethuL HCS
p408
sg43
Nssg185
(lp409
sg187
I00
sg188
I01
sg189
I1
sg190
I0
sg191
I1
sg192
(dp410
Vy
F12.091788299999999
sVx
F-7.1698899999999997
sVz
F1.1830656500000001
ssg194
(dp411
Vy
F14.315771099999999
sVx
F-2.6449718500000001
sVz
F2.6536808000000001
ssg196
I00
sg197
(dp412
g41
VEG SuspectorHCS
p413
sg43
Nssg200
(lp414
sg202
(lp415
(dp416
g41
VCLG Royal 2
p417
sg43
Nsasg204
I00
sg35
VPT39.7632778S
p418
sg32
VDeath
p419
sg207
I1
sa(dp420
g38
I313138863
sg32
VWeaponDrop
p421
sg221
I13
sg44
(lp422
I1095363701
asg35
VPT39.7642783S
p423
sg224
I3
sg225
VP0DT0H0M9.0000S
p424
sg39
(dp425
g41
VEG SuspectorHCS
p426
sg43
Nssa(dp427
g38
I4096745987
sg32
VWeaponDrop
p428
sg221
I0
sg44
(lp429
I2758383128
asg35
VPT39.7642783S
p430
sg224
I0
sg225
VP0DT0H0M13.6833S
p431
sg39
(dp432
g41
VEG SuspectorHCS
p433
sg43
Nssa(dp434
g38
I2244200496
sg39
(dp435
g41
VCLG Frosty HCS
p436
sg43
Nssg44
(lp437
I2758383128
asg32
VWeaponPickup
p438
sg35
VPT40.3408837S
p439
sa(dp440
g32
VImpulse
p441
sg39
(dp442
g41
VCLG Frosty HCS
p443
sg43
Nssg353
I4191318012
sg35
VPT40.3412751S
p444
sa(dp445
g179
I723523180
sg180
I00
sg181
I00
sg182
(dp446
g41
VCLG Snake Bite
p447
sg43
Nssg185
(lp448
I2758383128
asg187
I00
sg188
I01
sg189
I1
sg190
I0
sg191
I1
sg192
(dp449
Vy
F-6.2209399999999997
sVx
F0.50902639999999999
sVz
F4.3465976700000004
ssg194
(dp450
Vy
F1.8789921999999999
sVx
F-4.5838349999999997
sVz
F0.00018692016599999999
ssg196
I00
sg197
(dp451
g41
VEG Roy HCS
p452
sg43
Nssg200
(lp453
sg202
(lp454
sg204
I00
sg35
VPT40.3622749S
p455
sg32
VDeath
p456
sg207
I1
sa(dp457
g38
I313138863
sg32
VWeaponDrop
p458
sg221
I0
sg44
(lp459
I1095363701
asg35
VPT40.3642748S
p460
sg224
I0
sg225
VP0DT0H0M0.7667S
p461
sg39
(dp462
g41
VEG Roy HCS
p463
sg43
Nssa(dp464
g38
I4096745987
sg32
VWeaponDrop
p465
sg221
I0
sg44
(lp466
I2758383128
asg35
VPT40.3642748S
p467
sg224
I0
sg225
VP0DT0H0M1.0000S
p468
sg39
(dp469
g41
VEG Roy HCS
p470
sg43
Nssa(dp471
g38
I2244200496
sg32
VWeaponDrop
p472
sg221
I0
sg44
(lp473
I2758383128
asg35
VPT40.9712711S
p474
sg224
I0
sg225
VP0DT0H0M0.5000S
p475
sg39
(dp476
g41
VCLG Frosty HCS
p477
sg43
Nssa(dp478
g32
VImpulse
p479
sg39
(dp480
g41
VCLG Frosty HCS
p481
sg43
Nssg353
I3435524855
sg35
VPT40.9792708S
p482
sa(dp483
g38
I313138863
sg39
(dp484
g41
VEG Snip3downHCS
p485
sg43
Nssg44
(lp486
I1095363701
asg32
VWeaponPickup
p487
sg35
VPT41.7582657S
p488
sa(dp489
g38
I4096745987
sg39
(dp490
g41
VEG Snip3downHCS
p491
sg43
Nssg44
(lp492
I2758383128
asg32
VWeaponPickup
p493
sg35
VPT41.7592659S
p494
sa(dp495
g32
VPlayerSpawn
p496
sg39
(dp497
g41
VEG Snip3downHCS
p498
sg43
Nssg35
VPT41.7592659S
p499
sa(dp500
g38
I2244200496
sg39
(dp501
g41
VCLG Frosty HCS
p502
sg43
Nssg44
(lp503
I2758383128
asg32
VWeaponPickup
p504
sg35
VPT42.1082631S
p505
sa(dp506
g32
VImpulse
p507
sg39
(dp508
g41
VCLG Frosty HCS
p509
sg43
Nssg353
I4191318012
sg35
VPT42.1148301S
p510
sa(dp511
g179
I723523180
sg180
I00
sg181
I00
sg182
(dp512
g41
VCLG Snake Bite
p513
sg43
Nssg185
(lp514
I2758383128
asg187
I00
sg188
I01
sg189
I1
sg190
I0
sg191
I1
sg192
(dp515
Vy
F-0.74816660000000001
sVx
F-0.58313715499999996
sVz
F-1.04068136
ssg194
(dp516
Vy
F7.5562834700000003
sVx
F-7.4823110000000002
sVz
F0.79261210000000004
ssg196
I00
sg197
(dp517
g41
VEG Lunchbox HCS
p518
sg43
Nssg200
(lp519
sg202
(lp520
(dp521
g41
VCLG LethuL HCS
p522
sg43
Nsasg204
I00
sg35
VPT42.6832596S
p523
sg32
VDeath
p524
sg207
I1
sa(dp525
g32
VMedal
p526
sg39
(dp527
g41
VCLG Snake Bite
p528
sg43
Nssg212
I2838259753
sg35
VPT42.6832596S
p529
sa(dp530
g32
VImpulse
p531
sg39
(dp532
g41
VCLG Snake Bite
p533
sg43
Nssg353
I2556889090
sg35
VPT42.6832596S
p534
sa(dp535
g32
VMedal
p536
sg39
(dp537
g41
VCLG Royal 2
p538
sg43
Nssg212
I824733727
sg35
VPT42.6832596S
p539
sa(dp540
g32
VMedal
p541
sg39
(dp542
g41
VCLG Snake Bite
p543
sg43
Nssg212
I2078758684
sg35
VPT42.6842593S
p544
sa(dp545
g38
I4096745987
sg32
VWeaponDrop
p546
sg221
I5
sg44
(lp547
I2758383128
asg35
VPT42.6842593S
p548
sg224
I3
sg225
VP0DT0H0M3.8167S
p549
sg39
(dp550
g41
VEG Lunchbox HCS
p551
sg43
Nssa(dp552
g38
I313138863
sg32
VWeaponDrop
p553
sg221
I0
sg44
(lp554
I1095363701
asg35
VPT42.6914492S
p555
sg224
I0
sg225
VP0DT0H0M0.8500S
p556
sg39
(dp557
g41
VEG Lunchbox HCS
p558
sg43
Nssa(dp559
g38
I2244200496
sg32
VWeaponDrop
p560
sg221
I0
sg44
(lp561
I2758383128
asg35
VPT43.6792516S
p562
sg224
I0
sg225
VP0DT0H0M1.4500S
p563
sg39
(dp564
g41
VCLG Frosty HCS
p565
sg43
Nssa(dp566
g32
VImpulse
p567
sg39
(dp568
g41
VCLG Frosty HCS
p569
sg43
Nssg353
I3435524855
sg35
VPT43.6802543S
p570
sa(dp571
g38
I2244200496
sg39
(dp572
g41
VCLG Frosty HCS
p573
sg43
Nssg44
(lp574
I2758383128
asg32
VWeaponPickup
p575
sg35
VPT45.1682438S
p576
sa(dp577
g32
VImpulse
p578
sg39
(dp579
g41
VCLG Frosty HCS
p580
sg43
Nssg353
I4191318012
sg35
VPT45.1692438S
p581
sa(dp582
g38
I2244200496
sg32
VWeaponDrop
p583
sg221
I0
sg44
(lp584
I2758383128
asg35
VPT46.5419029S
p585
sg224
I0
sg225
VP0DT0H0M0.2833S
p586
sg39
(dp587
g41
VCLG Frosty HCS
p588
sg43
Nssa(dp589
g32
VImpulse
p590
sg39
(dp591
g41
VCLG Frosty HCS
p592
sg43
Nssg353
I3435524855
sg35
VPT46.5422352S
p593
sa(dp594
g38
I4096745987
sg32
VWeaponDrop
p595
sg221
I0
sg44
(lp596
I2758383128
asg35
VPT46.6132343S
p597
sg224
I0
sg225
VP0DT0H0M4.3333S
p598
sg39
(dp599
g41
VEG Snip3downHCS
p600
sg43
Nssa(dp601
g38
I4108759423
sg39
(dp602
g41
VEG Snip3downHCS
p603
sg43
Nssg44
(lp604
I2758383128
asg32
VWeaponPickup
p605
sg35
VPT46.6132343S
p606
sa(dp607
g38
I2244200496
sg39
(dp608
g41
VCLG Frosty HCS
p609
sg43
Nssg44
(lp610
I2758383128
asg32
VWeaponPickup
p611
sg35
VPT47.7814549S
p612
sa(dp613
g32
VImpulse
p614
sg39
(dp615
g41
VCLG Frosty HCS
p616
sg43
Nssg353
I4191318012
sg35
VPT47.782227S
p617
sa(dp618
g38
I313138863
sg39
(dp619
g41
VEG SuspectorHCS
p620
sg43
Nssg44
(lp621
I1095363701
asg32
VWeaponPickup
p622
sg35
VPT47.9313041S
p623
sa(dp624
g38
I4096745987
sg39
(dp625
g41
VEG SuspectorHCS
p626
sg43
Nssg44
(lp627
I2758383128
asg32
VWeaponPickup
p628
sg35
VPT47.9322261S
p629
sa(dp630
g32
VPlayerSpawn
p631
sg39
(dp632
g41
VEG SuspectorHCS
p633
sg43
Nssg35
VPT47.9322261S
p634
sa(dp635
g38
I313138863
sg39
(dp636
g41
VEG Roy HCS
p637
sg43
Nssg44
(lp638
I1095363701
asg32
VWeaponPickup
p639
sg35
VPT48.5592216S
p640
sa(dp641
g38
I4096745987
sg39
(dp642
g41
VEG Roy HCS
p643
sg43
Nssg44
(lp644
I2758383128
asg32
VWeaponPickup
p645
sg35
VPT48.5602224S
p646
sa(dp647
g32
VPlayerSpawn
p648
sg39
(dp649
g41
VEG Roy HCS
p650
sg43
Nssg35
VPT48.5602224S
p651
sa(dp652
g38
I313138863
sg39
(dp653
g41
VEG Lunchbox HCS
p654
sg43
Nssg44
(lp655
I1095363701
asg32
VWeaponPickup
p656
sg35
VPT50.8782077S
p657
sa(dp658
g38
I4096745987
sg39
(dp659
g41
VEG Lunchbox HCS
p660
sg43
Nssg44
(lp661
I2758383128
asg32
VWeaponPickup
p662
sg35
VPT50.8849951S
p663
sa(dp664
g32
VPlayerSpawn
p665
sg39
(dp666
g41
VEG Lunchbox HCS
p667
sg43
Nssg35
VPT50.8849951S
p668
sa(dp669
g179
I723523180
sg180
I00
sg181
I00
sg182
(dp670
g41
VCLG Snake Bite
p671
sg43
Nssg185
(lp672
I2758383128
asg187
I00
sg188
I01
sg189
I1
sg190
I0
sg191
I1
sg192
(dp673
Vy
F-10.6573753
sVx
F7.8806805600000001
sVz
F1.305809
ssg194
(dp674
Vy
F-9.9160299999999992
sVx
F14.1759872
sVz
F1.327915
ssg196
I00
sg197
(dp675
g41
VEG Snip3downHCS
p676
sg43
Nssg200
(lp677
sg202
(lp678
sg204
I00
sg35
VPT51.1542054S
p679
sg32
VDeath
p680
sg207
I1
sa(dp681
g38
I4108759423
sg32
VWeaponDrop
p682
sg221
I0
sg44
(lp683
I2758383128
asg35
VPT51.1562057S
p684
sg224
I0
sg225
VP0DT0H0M4.5333S
p685
sg39
(dp686
g41
VEG Snip3downHCS
p687
sg43
Nssa(dp688
g38
I313138863
sg32
VWeaponDrop
p689
sg221
I0
sg44
(lp690
I1095363701
asg35
VPT51.1562057S
p691
sg224
I0
sg225
VP0DT0H0M0.3500S
p692
sg39
(dp693
g41
VEG Snip3downHCS
p694
sg43
Nssa(dp695
g32
VMedal
p696
sg39
(dp697
g41
VCLG Frosty HCS
p698
sg43
Nssg212
I3894006667
sg35
VPT52.2421994S
p699
sa(dp700
g32
VImpulse
p701
sg39
(dp702
g41
VCLG Frosty HCS
p703
sg43
Nssg353
I2944278681
sg35
VPT52.2421994S
p704
sa(dp705
g38
I2244200496
sg32
VWeaponDrop
p706
sg221
I1
sg44
(lp707
I2758383128
asg35
VPT52.2671983S
p708
sg224
I0
sg225
VP0DT0H0M4.2667S
p709
sg39
(dp710
g41
VCLG Frosty HCS
p711
sg43
Nssa(dp712
g179
I4096745987
sg180
I00
sg181
I00
sg182
(dp713
g41
VEG SuspectorHCS
p714
sg43
Nssg185
(lp715
I2758383128
asg187
I00
sg188
I01
sg189
I1
sg190
I0
sg191
I1
sg192
(dp716
Vy
F-6.2392115600000002
sVx
F-14.194446599999999
sVz
F2.3988626000000002
ssg194
(dp717
Vy
F5.1505219999999996
sVx
F-13.9953976
sVz
F1.62096441
ssg196
I00
sg197
(dp718
g41
VCLG LethuL HCS
p719
sg43
Nssg200
(lp720
sg202
(lp721
(dp722
g41
VEG Roy HCS
p723
sg43
Nsa(dp724
g41
VEG Lunchbox HCS
p725
sg43
Nsasg204
I01
sg35
VPT54.9471813S
p726
sg32
VDeath
p727
sg207
I1
sa(dp728
g32
VMedal
p729
sg39
(dp730
g41
VEG SuspectorHCS
p731
sg43
Nssg212
I2838259753
sg35
VPT54.9471813S
p732
sa(dp733
g32
VImpulse
p734
sg39
(dp735
g41
VEG SuspectorHCS
p736
sg43
Nssg353
I2556889090
sg35
VPT54.9471813S
p737
sa(dp738
g32
VMedal
p739
sg39
(dp740
g41
VEG SuspectorHCS
p741
sg43
Nssg212
I3261908037
sg35
VPT54.9491806S
p742
sa(dp743
g38
I313138863
sg32
VWeaponDrop
p744
sg221
I0
sg44
(lp745
I1095363701
asg35
VPT54.9561809S
p746
sg224
I0
sg225
VP0DT0H0M3.4333S
p747
sg39
(dp748
g41
VCLG LethuL HCS
p749
sg43
Nssa(dp750
g38
I4096745987
sg32
VWeaponDrop
p751
sg221
I19
sg44
(lp752
I2758383128
asg35
VPT54.9561809S
p753
sg224
I9
sg225
VP0DT0H0M34.3000S
p754
sg39
(dp755
g41
VCLG LethuL HCS
p756
sg43
Nssa(dp757
g38
I4096745987
sg32
VWeaponDrop
p758
sg221
I0
sg44
(lp759
I2758383128
asg35
VPT54.9561809S
p760
sg224
I0
sg225
VP0DT0S
p761
sg39
(dp762
g41
VCLG LethuL HCS
p763
sg43
Nssa(dp764
g179
I4096745987
sg180
I00
sg181
I00
sg182
(dp765
g41
VCLG Snake Bite
p766
sg43
Nssg185
(lp767
I2758383128
asg187
I00
sg188
I01
sg189
I1
sg190
I0
sg191
I1
sg192
(dp768
Vy
F-8.3722259999999995
sVx
F-1.6280791800000001
sVz
F3.3943409999999998
ssg194
(dp769
Vy
F-9.9621739999999992
sVx
F-12.2468147
sVz
F1.04064584
ssg196
I00
sg197
(dp770
g41
VEG Roy HCS
p771
sg43
Nssg200
(lp772
sg202
(lp773
(dp774
g41
VCLG LethuL HCS
p775
sg43
Nsasg204
I01
sg35
VPT55.3032774S
p776
sg32
VDeath
p777
sg207
I1
sa(dp778
g32
VMedal
p779
sg39
(dp780
g41
VCLG Snake Bite
p781
sg43
Nssg212
I3261908037
sg35
VPT55.3041786S
p782
sa(dp783
g32
VMedal
p784
sg39
(dp785
g41
VCLG Snake Bite
p786
sg43
Nssg212
I2430242797
sg35
VPT55.3041786S
p787
sa(dp788
g32
VMedal
p789
sg39
(dp790
g41
VCLG Snake Bite
p791
sg43
Nssg212
I2078758684
sg35
VPT55.3041786S
p792
sa(dp793
g38
I313138863
sg32
VWeaponDrop
p794
sg221
I0
sg44
(lp795
I1095363701
asg35
VPT55.3051787S
p796
sg224
I0
sg225
VP0DT0H0M0.6333S
p797
sg39
(dp798
g41
VEG Roy HCS
p799
sg43
Nssa(dp800
g38
I4096745987
sg32
VWeaponDrop
p801
sg221
I6
sg44
(lp802
I2758383128
asg35
VPT55.3051787S
p803
sg224
I3
sg225
VP0DT0H0M6.0167S
p804
sg39
(dp805
g41
VEG Roy HCS
p806
sg43
Nssa(dp807
g38
I313138863
sg39
(dp808
g41
VEG Snip3downHCS
p809
sg43
Nssg44
(lp810
I1095363701
asg32
VWeaponPickup
p811
sg35
VPT59.2921796S
p812
sa(dp813
g38
I4096745987
sg39
(dp814
g41
VEG Snip3downHCS
p815
sg43
Nssg44
(lp816
I2758383128
asg32
VWeaponPickup
p817
sg35
VPT59.2921796S
p818
sa(dp819
g32
VPlayerSpawn
p820
sg39
(dp821
g41
VEG Snip3downHCS
p822
sg43
Nssg35
VPT59.2921796S
p823
sa(dp824
g179
I4096745987
sg180
I00
sg181
I00
sg182
(dp825
g41
VEG Lunchbox HCS
p826
sg43
Nssg185
(lp827
I2758383128
asg187
I00
sg188
I01
sg189
I1
sg190
I0
sg191
I1
sg192
(dp828
Vy
F5.9932439999999998
sVx
F-13.4072943
sVz
F1.3688296099999999
ssg194
(dp829
Vy
F11.7271757
sVx
F-12.172798200000001
sVz
F1.8490009300000001
ssg196
I00
sg197
(dp830
g41
VCLG Royal 2
p831
sg43
Nssg200
(lp832
sg202
(lp833
sg204
I00
sg35
VPT59.7021782S
p834
sg32
VDeath
p835
sg207
I1
sa(dp836
g38
I669296699
sg32
VWeaponDrop
p837
sg221
I4
sg44
(lp838
I2758383128
asg35
VPT59.7041789S
p839
sg224
I2
sg225
VP0DT0H0M21.9000S
p840
sg39
(dp841
g41
VCLG Royal 2
p842
sg43
Nssa(dp843
g38
I4096745987
sg32
VWeaponDrop
p844
sg221
I8
sg44
(lp845
I2758383128
asg35
VPT59.7041789S
p846
sg224
I4
sg225
VP0DT0H0M15.2000S
p847
sg39
(dp848
g41
VCLG Royal 2
p849
sg43
Nssa(dp850
g179
I4096745987
sg180
I00
sg181
I00
sg182
(dp851
g41
VCLG Snake Bite
p852
sg43
Nssg185
(lp853
I2758383128
asg187
I00
sg188
I01
sg189
I1
sg190
I0
sg191
I1
sg192
(dp854
Vy
F-6.8462740000000002
sVx
F-14.624189400000001
sVz
F2.0135598199999998
ssg194
(dp855
Vy
F3.6289940000000001
sVx
F-13.446714399999999
sVz
F1.6211483499999999
ssg196
I00
sg197
(dp856
g41
VEG SuspectorHCS
p857
sg43
Nssg200
(lp858
sg202
(lp859
(dp860
g41
VCLG LethuL HCS
p861
sg43
Nsasg204
I01
sg35
VPT1M0.5401784S
p862
sg32
VDeath
p863
sg207
I1
sa(dp864
g32
VMedal
p865
sg39
(dp866
g41
VCLG Snake Bite
p867
sg43
Nssg212
I3261908037
sg35
VPT1M0.5421829S
p868
sa(dp869
g38
I313138863
sg32
VWeaponDrop
p870
sg221
I0
sg44
(lp871
I1095363701
asg35
VPT1M0.5421829S
p872
sg224
I0
sg225
VP0DT0H0M0.7167S
p873
sg39
(dp874
g41
VEG SuspectorHCS
p875
sg43
Nssa(dp876
g38
I4096745987
sg32
VWeaponDrop
p877
sg221
I4
sg44
(lp878
I2758383128
asg35
VPT1M0.5421829S
p879
sg224
I1
sg225
VP0DT0H0M11.7333S
p880
sg39
(dp881
g41
VEG SuspectorHCS
p882
sg43
Nssa(dp883
g38
I313138863
sg32
VWeaponDrop
p884
sg221
I0
sg44
(lp885
I1095363701
asg35
VPT1M1.9794611S
p886
sg224
I0
sg225
VP0DT0H0M1.6000S
p887
sg39
(dp888
g41
VEG Lunchbox HCS
p889
sg43
Nssa(dp890
g38
I669296699
sg39
(dp891
g41
VEG Lunchbox HCS
p892
sg43
Nssg44
(lp893
I2758383128
asg32
VWeaponPickup
p894
sg35
VPT1M1.9794611S
p895
sa(dp896
g38
I2244200496
sg39
(dp897
g41
VCLG Snake Bite
p898
sg43
Nssg44
(lp899
I2758383128
asg32
VWeaponPickup
p900
sg35
VPT1M2.7361773S
p901
sa(dp902
g32
VImpulse
p903
sg39
(dp904
g41
VCLG Snake Bite
p905
sg43
Nssg353
I4191318012
sg35
VPT1M2.737188S
p906
sa(dp907
g32
VImpulse
p908
sg39
(dp909
g41
VCLG Snake Bite
p910
sg43
Nssg353
I1039658009
sg35
VPT1M2.737188S
p911
sa(dp912
g38
I313138863
sg39
(dp913
g41
VCLG LethuL HCS
p914
sg43
Nssg44
(lp915
I1095363701
asg32
VWeaponPickup
p916
sg35
VPT1M3.0241781S
p917
sa(dp918
g38
I4096745987
sg39
(dp919
g41
VCLG LethuL HCS
p920
sg43
Nssg44
(lp921
I2758383128
asg32
VWeaponPickup
p922
sg35
VPT1M3.0241781S
p923
sa(dp924
g32
VPlayerSpawn
p925
sg39
(dp926
g41
VCLG LethuL HCS
p927
sg43
Nssg35
VPT1M3.0251792S
p928
sa(dp929
g38
I313138863
sg39
(dp930
g41
VEG Roy HCS
p931
sg43
Nssg44
(lp932
I1095363701
asg32
VWeaponPickup
p933
sg35
VPT1M3.3651789S
p934
sa(dp935
g38
I4096745987
sg39
(dp936
g41
VEG Roy HCS
p937
sg43
Nssg44
(lp938
I2758383128
asg32
VWeaponPickup
p939
sg35
VPT1M3.3661791S
p940
sa(dp941
g32
VPlayerSpawn
p942
sg39
(dp943
g41
VEG Roy HCS
p944
sg43
Nssg35
VPT1M3.3661791S
p945
sa(dp946
g38
I2244200496
sg32
VWeaponDrop
p947
sg221
I0
sg44
(lp948
I2758383128
asg35
VPT1M4.2001785S
p949
sg224
I0
sg225
VP0DT0H0M1.3167S
p950
sg39
(dp951
g41
VCLG Snake Bite
p952
sg43
Nssa(dp953
g32
VImpulse
p954
sg39
(dp955
g41
VCLG Snake Bite
p956
sg43
Nssg353
I3435524855
sg35
VPT1M4.2001785S
p957
sa(dp958
g38
I2244200496
sg39
(dp959
g41
VCLG Snake Bite
p960
sg43
Nssg44
(lp961
I2758383128
asg32
VWeaponPickup
p962
sg35
VPT1M4.6491892S
p963
sa(dp964
g32
VImpulse
p965
sg39
(dp966
g41
VCLG Snake Bite
p967
sg43
Nssg353
I4191318012
sg35
VPT1M4.6556486S
p968
sa(dp969
g179
I313138863
sg180
I00
sg181
I01
sg182
(dp970
g41
VEG Snip3downHCS
p971
sg43
Nssg185
(lp972
I1095363701
asg187
I00
sg188
I00
sg189
I1
sg190
I0
sg191
I1
sg192
(dp973
Vy
F-5.9307236699999999
sVx
F-14.333581000000001
sVz
F2.4509609999999999
ssg194
(dp974
Vy
F-5.59536648
sVx
F-14.2459583
sVz
F2.6298222500000001
ssg196
I00
sg197
(dp975
g41
VCLG Snake Bite
p976
sg43
Nssg200
(lp977
sg202
(lp978
sg204
I00
sg35
VPT1M5.2794911S
p979
sg32
VDeath
p980
sg207
I1
sa(dp981
g32
VMedal
p982
sg39
(dp983
g41
VEG Snip3downHCS
p984
sg43
Nssg212
I2028249938
sg35
VPT1M5.2901786S
p985
sa(dp986
g32
VImpulse
p987
sg39
(dp988
g41
VEG Snip3downHCS
p989
sg43
Nssg353
I2299858338
sg35
VPT1M5.2901786S
p990
sa(dp991
g32
VMedal
p992
sg39
(dp993
g41
VEG Snip3downHCS
p994
sg43
Nssg212
I2287626681
sg35
VPT1M5.2901786S
p995
sa(dp996
g38
I2244200496
sg32
VWeaponDrop
p997
sg221
I0
sg44
(lp998
I2758383128
asg35
VPT1M5.2921788S
p999
sg224
I0
sg225
VP0DT0H0M0.4667S
p1000
sg39
(dp1001
g41
VCLG Snake Bite
p1002
sg43
Nssa(dp1003
g38
I723523180
sg32
VWeaponDrop
p1004
sg221
I4
sg44
(lp1005
I2758383128
asg35
VPT1M5.2931784S
p1006
sg224
I4
sg225
VP0DT0H0M10.9833S
p1007
sg39
(dp1008
g41
VCLG Snake Bite
p1009
sg43
Nssa(dp1010
g38
I4096745987
sg32
VWeaponDrop
p1011
sg221
I16
sg44
(lp1012
I2758383128
asg35
VPT1M5.2931784S
p1013
sg224
I8
sg225
VP0DT0H0M32.9500S
p1014
sg39
(dp1015
g41
VCLG Snake Bite
p1016
sg43
Nssa(dp1017
g32
VImpulse
p1018
sg39
(dp1019
g41
VCLG Snake Bite
p1020
sg43
Nssg353
I3435524855
sg35
VPT1M5.3011789S
p1021
sa(dp1022
g38
I313138863
sg39
(dp1023
g41
VCLG Royal 2
p1024
sg43
Nssg44
(lp1025
I1095363701
asg32
VWeaponPickup
p1026
sg35
VPT1M7.7771786S
p1027
sa(dp1028
g38
I4096745987
sg39
(dp1029
g41
VCLG Royal 2
p1030
sg43
Nssg44
(lp1031
I2758383128
asg32
VWeaponPickup
p1032
sg35
VPT1M7.7781795S
p1033
sa(dp1034
g32
VPlayerSpawn
p1035
sg39
(dp1036
g41
VCLG Royal 2
p1037
sg43
Nssg35
VPT1M7.7781795S
p1038
sa(dp1039
g38
I313138863
sg39
(dp1040
g41
VEG SuspectorHCS
p1041
sg43
Nssg44
(lp1042
I1095363701
asg32
VWeaponPickup
p1043
sg35
VPT1M8.5661793S
p1044
sa(dp1045
g38
I4096745987
sg39
(dp1046
g41
VEG SuspectorHCS
p1047
sg43
Nssg44
(lp1048
I2758383128
asg32
VWeaponPickup
p1049
sg35
VPT1M8.5661793S
p1050
sa(dp1051
g32
VPlayerSpawn
p1052
sg39
(dp1053
g41
VEG SuspectorHCS
p1054
sg43
Nssg35
VPT1M8.5661793S
p1055
sa(dp1056
g179
I4096745987
sg180
I00
sg181
I00
sg182
(dp1057
g41
VEG Roy HCS
p1058
sg43
Nssg185
(lp1059
I2758383128
asg187
I00
sg188
I01
sg189
I1
sg190
I0
sg191
I1
sg192
(dp1060
Vy
F-7.8531129999999996
sVx
F-1.8603304599999999
sVz
F0.95588910000000005
ssg194
(dp1061
Vy
F2.7830445799999999
sVx
F-0.43391546600000003
sVz
F-1.92023134
ssg196
I00
sg197
(dp1062
g41
VCLG LethuL HCS
p1063
sg43
Nssg200
(lp1064
sg202
(lp1065
sg204
I00
sg35
VPT1M10.8631783S
p1066
sg32
VDeath
p1067
sg207
I1
sa(dp1068
g38
I313138863
sg32
VWeaponDrop
p1069
sg221
I0
sg44
(lp1070
I1095363701
asg35
VPT1M10.8651786S
p1071
sg224
I0
sg225
VP0DT0H0M1.1167S
p1072
sg39
(dp1073
g41
VCLG LethuL HCS
p1074
sg43
Nssa(dp1075
g38
I4096745987
sg32
VWeaponDrop
p1076
sg221
I10
sg44
(lp1077
I2758383128
asg35
VPT1M10.8651786S
p1078
sg224
I2
sg225
VP0DT0H0M6.7000S
p1079
sg39
(dp1080
g41
VCLG LethuL HCS
p1081
sg43
Nssa(dp1082
g32
VMedal
p1083
sg39
(dp1084
g41
VEG Snip3downHCS
p1085
sg43
Nssg212
I2380717523
sg35
VPT1M10.8751791S
p1086
sa(dp1087
g32
VImpulse
p1088
sg39
(dp1089
g41
VEG Snip3downHCS
p1090
sg43
Nssg353
I1063951891
sg35
VPT1M10.8751791S
p1091
sa(dp1092
g38
I313138863
sg32
VWeaponDrop
p1093
sg221
I0
sg44
(lp1094
I1095363701
asg35
VPT1M12.9293567S
p1095
sg224
I0
sg225
VP0DT0H0M1.0667S
p1096
sg39
(dp1097
g41
VEG Roy HCS
p1098
sg43
Nssa(dp1099
g38
I3808094875
sg39
(dp1100
g41
VEG Roy HCS
p1101
sg43
Nssg44
(lp1102
I2758383128
asg32
VWeaponPickup
p1103
sg35
VPT1M12.9293567S
p1104
sa(dp1105
g38
I313138863
sg39
(dp1106
g41
VCLG Snake Bite
p1107
sg43
Nssg44
(lp1108
I1095363701
asg32
VWeaponPickup
p1109
sg35
VPT1M13.3031659S
p1110
sa(dp1111
g38
I4096745987
sg39
(dp1112
g41
VCLG Snake Bite
p1113
sg43
Nssg44
(lp1114
I2758383128
asg32
VWeaponPickup
p1115
sg35
VPT1M13.3041661S
p1116
sa(dp1117
g32
VPlayerSpawn
p1118
sg39
(dp1119
g41
VCLG Snake Bite
p1120
sg43
Nssg35
VPT1M13.3041661S
p1121
sa(dp1122
g32
VMedal
p1123
sg39
(dp1124
g41
VEG Lunchbox HCS
p1125
sg43
Nssg212
I3400287617
sg35
VPT1M15.4701524S
p1126
sa(dp1127
g179
I4096745987
sg180
I00
sg181
I00
sg182
(dp1128
g41
VEG SuspectorHCS
p1129
sg43
Nssg185
(lp1130
I2758383128
asg187
I00
sg188
I01
sg189
I1
sg190
I0
sg191
I1
sg192
(dp1131
Vy
F2.045922
sVx
F-15.433281900000001
sVz
F1.6312859099999999
ssg194
(dp1132
Vy
F-0.107458204
sVx
F-11.7134085
sVz
F1.90349317
ssg196
I00
sg197
(dp1133
g41
VCLG Frosty HCS
p1134
sg43
Nssg200
(lp1135
sg202
(lp1136
(dp1137
g41
VEG Snip3downHCS
p1138
sg43
Nsasg204
I00
sg35
VPT1M17.0081426S
p1139
sg32
VDeath
p1140
sg207
I1
sa(dp1141
g32
VMedal
p1142
sg39
(dp1143
g41
VEG Lunchbox HCS
p1144
sg43
Nssg212
I824733727
sg35
VPT1M17.0091423S
p1145
sa(dp1146
g38
I313138863
sg32
VWeaponDrop
p1147
sg221
I7
sg44
(lp1148
I1095363701
asg35
VPT1M17.0101421S
p1149
sg224
I6
sg225
VP0DT0H0M8.2000S
p1150
sg39
(dp1151
g41
VCLG Frosty HCS
p1152
sg43
Nssa(dp1153
g38
I313138863
sg32
VWeaponDrop
p1154
sg221
I0
sg44
(lp1155
I1095363701
asg35
VPT1M17.0101421S
p1156
sg224
I0
sg225
VP0DT0S
p1157
sg39
(dp1158
g41
VCLG Frosty HCS
p1159
sg43
Nssa(dp1160
g38
I4096745987
sg32
VWeaponDrop
p1161
sg221
I15
sg44
(lp1162
I2758383128
asg35
VPT1M17.0101421S
p1163
sg224
I7
sg225
VP0DT0H0M43.9167S
p1164
sg39
(dp1165
g41
VCLG Frosty HCS
p1166
sg43
Nssa(dp1167
g38
I313138863
sg39
(dp1168
g41
VCLG LethuL HCS
p1169
sg43
Nssg44
(lp1170
I1095363701
asg32
VWeaponPickup
p1171
sg35
VPT1M18.908131S
p1172
sa(dp1173
g38
I4096745987
sg39
(dp1174
g41
VCLG LethuL HCS
p1175
sg43
Nssg44
(lp1176
I2758383128
asg32
VWeaponPickup
p1177
sg35
VPT1M18.908131S
p1178
sa(dp1179
g32
VPlayerSpawn
p1180
sg39
(dp1181
g41
VCLG LethuL HCS
p1182
sg43
Nssg35
VPT1M18.908131S
p1183
sa(dp1184
g38
I4096745987
sg32
VWeaponDrop
p1185
sg221
I3
sg44
(lp1186
I2758383128
asg35
VPT1M23.6030985S
p1187
sg224
I2
sg225
VP0DT0H0M11.7833S
p1188
sg39
(dp1189
g41
VEG SuspectorHCS
p1190
sg43
Nssa(dp1191
g38
I523953283
sg39
(dp1192
g41
VEG SuspectorHCS
p1193
sg43
Nssg44
(lp1194
I2208825748
asg32
VWeaponPickup
p1195
sg35
VPT1M23.6030985S
p1196
sa(dp1197
g38
I313138863
sg39
(dp1198
g41
VCLG Frosty HCS
p1199
sg43
Nssg44
(lp1200
I1095363701
asg32
VWeaponPickup
p1201
sg35
VPT1M24.966092S
p1202
sa(dp1203
g38
I4096745987
sg39
(dp1204
g41
VCLG Frosty HCS
p1205
sg43
Nssg44
(lp1206
I2758383128
asg32
VWeaponPickup
p1207
sg35
VPT1M24.966092S
p1208
sa(dp1209
g32
VPlayerSpawn
p1210
sg39
(dp1211
g41
VCLG Frosty HCS
p1212
sg43
Nssg35
VPT1M24.966092S
p1213
sa(dp1214
g179
I4096745987
sg180
I00
sg181
I00
sg182
(dp1215
g41
VCLG Snake Bite
p1216
sg43
Nssg185
(lp1217
I2758383128
asg187
I00
sg188
I01
sg189
I1
sg190
I0
sg191
I1
sg192
(dp1218
Vy
F3.8183152699999998
sVx
F12.7759047
sVz
F1.73974121
ssg194
(dp1219
Vy
F-2.96702361
sVx
F14.0713682
sVz
F2.4355816799999999
ssg196
I00
sg197
(dp1220
g41
VEG Roy HCS
p1221
sg43
Nssg200
(lp1222
sg202
(lp1223
sg204
I01
sg35
VPT1M25.6290872S
p1224
sg32
VDeath
p1225
sg207
I1
sa(dp1226
g32
VMedal
p1227
sg39
(dp1228
g41
VCLG Snake Bite
p1229
sg43
Nssg212
I3261908037
sg35
VPT1M25.6300871S
p1230
sa(dp1231
g38
I3808094875
sg32
VWeaponDrop
p1232
sg221
I0
sg44
(lp1233
I2758383128
asg35
VPT1M25.6370879S
p1234
sg224
I0
sg225
VP0DT0H0M0.4667S
p1235
sg39
(dp1236
g41
VEG Roy HCS
p1237
sg43
Nssa(dp1238
g38
I4096745987
sg32
VWeaponDrop
p1239
sg221
I19
sg44
(lp1240
I2758383128
asg35
VPT1M25.6370879S
p1241
sg224
I10
sg225
VP0DT0H0M20.7000S
p1242
sg39
(dp1243
g41
VEG Roy HCS
p1244
sg43
Nssa(dp1245
g179
I4096745987
sg180
I00
sg181
I00
sg182
(dp1246
g41
VEG Snip3downHCS
p1247
sg43
Nssg185
(lp1248
I2758383128
asg187
I00
sg188
I01
sg189
I1
sg190
I0
sg191
I1
sg192
(dp1249
Vy
F8.2667629999999992
sVx
F12.783077199999999
sVz
F0.87749149999999998
ssg194
(dp1250
Vy
F4.0517263400000001
sVx
F12.146827699999999
sVz
F2.0946530000000001
ssg196
I00
sg197
(dp1251
g41
VCLG Snake Bite
p1252
sg43
Nssg200
(lp1253
sg202
(lp1254
(dp1255
g41
VEG Roy HCS
p1256
sg43
Nsasg204
I00
sg35
VPT1M28.6074372S
p1257
sg32
VDeath
p1258
sg207
I1
sa(dp1259
g38
I313138863
sg32
VWeaponDrop
p1260
sg221
I0
sg44
(lp1261
I1095363701
asg35
VPT1M28.6090759S
p1262
sg224
I0
sg225
VP0DT0H0M4.1500S
p1263
sg39
(dp1264
g41
VCLG Snake Bite
p1265
sg43
Nssa(dp1266
g38
I4096745987
sg32
VWeaponDrop
p1267
sg221
I8
sg44
(lp1268
I2758383128
asg35
VPT1M28.6090759S
p1269
sg224
I4
sg225
VP0DT0H0M11.0333S
p1270
sg39
(dp1271
g41
VCLG Snake Bite
p1272
sg43
Nssa(dp1273
g179
I523953283
sg180
I00
sg181
I00
sg182
(dp1274
g41
VEG SuspectorHCS
p1275
sg43
Nssg185
(lp1276
I2208825748
asg187
I00
sg188
I01
sg189
I1
sg190
I0
sg191
I1
sg192
(dp1277
Vy
F5.9905586199999998
sVx
F4.4744729999999997
sVz
F0.91759060000000003
ssg194
(dp1278
Vy
F8.0792129999999993
sVx
F16.192730000000001
sVz
F1.6156115499999999
ssg196
I00
sg197
(dp1279
g41
VCLG LethuL HCS
p1280
sg43
Nssg200
(lp1281
sg202
(lp1282
(dp1283
g41
VEG Snip3downHCS
p1284
sg43
Nsasg204
I01
sg35
VPT1M30.0280761S
p1285
sg32
VDeath
p1286
sg207
I1
sa(dp1287
g32
VMedal
p1288
sg39
(dp1289
g41
VEG SuspectorHCS
p1290
sg43
Nssg212
I2838259753
sg35
VPT1M30.0280761S
p1291
sa(dp1292
g32
VImpulse
p1293
sg39
(dp1294
g41
VEG SuspectorHCS
p1295
sg43
Nssg353
I2556889090
sg35
VPT1M30.0280761S
p1296
sa(dp1297
g32
VMedal
p1298
sg39
(dp1299
g41
VEG SuspectorHCS
p1300
sg43
Nssg212
I3261908037
sg35
VPT1M30.0290759S
p1301
sa(dp1302
g38
I313138863
sg32
VWeaponDrop
p1303
sg221
I0
sg44
(lp1304
I1095363701
asg35
VPT1M30.0300763S
p1305
sg224
I0
sg225
VP0DT0H0M0.6833S
p1306
sg39
(dp1307
g41
VCLG LethuL HCS
p1308
sg43
Nssa(dp1309
g38
I4096745987
sg32
VWeaponDrop
p1310
sg221
I10
sg44
(lp1311
I2758383128
asg35
VPT1M30.0300763S
p1312
sg224
I3
sg225
VP0DT0H0M10.3500S
p1313
sg39
(dp1314
g41
VCLG LethuL HCS
p1315
sg43
Nssa(dp1316
g179
I4096745987
sg180
I00
sg181
I00
sg182
(dp1317
g41
VCLG Frosty HCS
p1318
sg43
Nssg185
(lp1319
I2758383128
asg187
I00
sg188
I01
sg189
I1
sg190
I0
sg191
I1
sg192
(dp1320
Vy
F-1.73954725
sVx
F14.0335941
sVz
F2.1831803299999999
ssg194
(dp1321
Vy
F6.53900433
sVx
F14.079504999999999
sVz
F1.6072307800000001
ssg196
I00
sg197
(dp1322
g41
VEG Snip3downHCS
p1323
sg43
Nssg200
(lp1324
sg202
(lp1325
(dp1326
g41
VCLG LethuL HCS
p1327
sg43
Nsasg204
I01
sg35
VPT1M30.0980765S
p1328
sg32
VDeath
p1329
sg207
I1
sa(dp1330
g32
VMedal
p1331
sg39
(dp1332
g41
VCLG Frosty HCS
p1333
sg43
Nssg212
I3261908037
sg35
VPT1M30.0990763S
p1334
sa(dp1335
g38
I313138863
sg32
VWeaponDrop
p1336
sg221
I11
sg44
(lp1337
I1095363701
asg35
VPT1M30.0990763S
p1338
sg224
I8
sg225
VP0DT0H0M6.6833S
p1339
sg39
(dp1340
g41
VEG Snip3downHCS
p1341
sg43
Nssa(dp1342
g38
I313138863
sg32
VWeaponDrop
p1343
sg221
I0
sg44
(lp1344
I1095363701
asg35
VPT1M30.0990763S
p1345
sg224
I0
sg225
VP0DT0S
p1346
sg39
(dp1347
g41
VEG Snip3downHCS
p1348
sg43
Nssa(dp1349
g38
I4096745987
sg32
VWeaponDrop
p1350
sg221
I20
sg44
(lp1351
I2758383128
asg35
VPT1M30.1000765S
p1352
sg224
I12
sg225
VP0DT0H0M23.9500S
p1353
sg39
(dp1354
g41
VEG Snip3downHCS
p1355
sg43
Nssa(dp1356
g38
I313138863
sg32
VWeaponDrop
p1357
sg221
I0
sg44
(lp1358
I1095363701
asg35
VPT1M31.7490255S
p1359
sg224
I0
sg225
VP0DT0H0M2.6833S
p1360
sg39
(dp1361
g41
VCLG Frosty HCS
p1362
sg43
Nssa(dp1363
g38
I3808094875
sg39
(dp1364
g41
VCLG Frosty HCS
p1365
sg43
Nssg44
(lp1366
I2758383128
asg32
VWeaponPickup
p1367
sg35
VPT1M31.7490752S
p1368
sa(dp1369
g179
I313138863
sg180
I00
sg181
I01
sg182
(dp1370
g41
VCLG Royal 2
p1371
sg43
Nssg185
(lp1372
I1095363701
asg187
I00
sg188
I00
sg189
I1
sg190
I0
sg191
I1
sg192
(dp1373
Vy
F5.1578655199999996
sVx
F2.9868638500000002
sVz
F1.30047739
ssg194
(dp1374
Vy
F5.5048856700000002
sVx
F2.9862897400000001
sVz
F1.7003572
ssg196
I00
sg197
(dp1375
g41
VEG SuspectorHCS
p1376
sg43
Nssg200
(lp1377
sg202
(lp1378
sg204
I00
sg35
VPT1M32.1470759S
p1379
sg32
VDeath
p1380
sg207
I1
sa(dp1381
g32
VMedal
p1382
sg39
(dp1383
g41
VCLG Royal 2
p1384
sg43
Nssg212
I2287626681
sg35
VPT1M32.1480761S
p1385
sa(dp1386
g38
I523953283
sg32
VWeaponDrop
p1387
sg221
I5
sg44
(lp1388
I2208825748
asg35
VPT1M32.1490759S
p1389
sg224
I3
sg225
VP0DT0H0M8.4333S
p1390
sg39
(dp1391
g41
VEG SuspectorHCS
p1392
sg43
Nssa(dp1393
g38
I313138863
sg32
VWeaponDrop
p1394
sg221
I0
sg44
(lp1395
I1095363701
asg35
VPT1M32.1490759S
p1396
sg224
I0
sg225
VP0DT0H0M3.2167S
p1397
sg39
(dp1398
g41
VEG SuspectorHCS
p1399
sg43
Nssa(dp1400
g38
I313138863
sg39
(dp1401
g41
VEG Roy HCS
p1402
sg43
Nssg44
(lp1403
I1095363701
asg32
VWeaponPickup
p1404
sg35
VPT1M33.8140764S
p1405
sa(dp1406
g38
I4096745987
sg39
(dp1407
g41
VEG Roy HCS
p1408
sg43
Nssg44
(lp1409
I2758383128
asg32
VWeaponPickup
p1410
sg35
VPT1M33.8140764S
p1411
sa(dp1412
g32
VPlayerSpawn
p1413
sg39
(dp1414
g41
VEG Roy HCS
p1415
sg43
Nssg35
VPT1M33.8140764S
p1416
sa(dp1417
g38
I313138863
sg39
(dp1418
g41
VCLG Snake Bite
p1419
sg43
Nssg44
(lp1420
I1095363701
asg32
VWeaponPickup
p1421
sg35
VPT1M36.7590765S
p1422
sa(dp1423
g38
I4096745987
sg39
(dp1424
g41
VCLG Snake Bite
p1425
sg43
Nssg44
(lp1426
I2758383128
asg32
VWeaponPickup
p1427
sg35
VPT1M36.7590765S
p1428
sa(dp1429
g32
VPlayerSpawn
p1430
sg39
(dp1431
g41
VCLG Snake Bite
p1432
sg43
Nssg35
VPT1M36.7590765S
p1433
sa(dp1434
g179
I2457457776
sg180
I00
sg181
I00
sg182
(dp1435
g41
VEG Roy HCS
p1436
sg43
Nssg185
(lp1437
sg187
I00
sg188
I00
sg189
I0
sg190
I0
sg191
I1
sg192
(dp1438
Vy
F15.850534400000001
sVx
F-8.2230369999999997
sVz
F-0.69321286699999995
ssg194
(dp1439
Vy
F15.850534400000001
sVx
F-8.2230369999999997
sVz
F-0.69321286699999995
ssg196
I00
sg197
(dp1440
g41
VEG Roy HCS
p1441
sg43
Nssg200
(lp1442
sg202
(lp1443
sg204
I00
sg35
VPT1M37.0260763S
p1444
sg32
VDeath
p1445
sg207
I1
sa(dp1446
g32
VImpulse
p1447
sg39
(dp1448
g41
VEG Roy HCS
p1449
sg43
Nssg353
I1408036107
sg35
VPT1M37.0260763S
p1450
sa(dp1451
g38
I313138863
sg32
VWeaponDrop
p1452
sg221
I0
sg44
(lp1453
I1095363701
asg35
VPT1M37.0260763S
p1454
sg224
I0
sg225
VP0DT0H0M0.7500S
p1455
sg39
(dp1456
g41
VEG Roy HCS
p1457
sg43
Nssa(dp1458
g38
I4096745987
sg32
VWeaponDrop
p1459
sg221
I0
sg44
(lp1460
I2758383128
asg35
VPT1M37.0260763S
p1461
sg224
I0
sg225
VP0DT0H0M2.4000S
p1462
sg39
(dp1463
g41
VEG Roy HCS
p1464
sg43
Nssa(dp1465
g38
I313138863
sg39
(dp1466
g41
VCLG LethuL HCS
p1467
sg43
Nssg44
(lp1468
I1095363701
asg32
VWeaponPickup
p1469
sg35
VPT1M38.1780766S
p1470
sa(dp1471
g38
I4096745987
sg39
(dp1472
g41
VCLG LethuL HCS
p1473
sg43
Nssg44
(lp1474
I2758383128
asg32
VWeaponPickup
p1475
sg35
VPT1M38.1780766S
p1476
sa(dp1477
g32
VPlayerSpawn
p1478
sg39
(dp1479
g41
VCLG LethuL HCS
p1480
sg43
Nssg35
VPT1M38.1780766S
p1481
sa(dp1482
g38
I313138863
sg39
(dp1483
g41
VEG Snip3downHCS
p1484
sg43
Nssg44
(lp1485
I1095363701
asg32
VWeaponPickup
p1486
sg35
VPT1M38.2490764S
p1487
sa(dp1488
g38
I4096745987
sg39
(dp1489
g41
VEG Snip3downHCS
p1490
sg43
Nssg44
(lp1491
I2758383128
asg32
VWeaponPickup
p1492
sg35
VPT1M38.2490764S
p1493
sa(dp1494
g32
VPlayerSpawn
p1495
sg39
(dp1496
g41
VEG Snip3downHCS
p1497
sg43
Nssg35
VPT1M38.2490764S
p1498
sa(dp1499
g38
I313138863
sg39
(dp1500
g41
VEG SuspectorHCS
p1501
sg43
Nssg44
(lp1502
I1095363701
asg32
VWeaponPickup
p1503
sg35
VPT1M40.2780764S
p1504
sa(dp1505
g38
I4096745987
sg39
(dp1506
g41
VEG SuspectorHCS
p1507
sg43
Nssg44
(lp1508
I2758383128
asg32
VWeaponPickup
p1509
sg35
VPT1M40.2780764S
p1510
sa(dp1511
g32
VPlayerSpawn
p1512
sg39
(dp1513
g41
VEG SuspectorHCS
p1514
sg43
Nssg35
VPT1M40.2780764S
p1515
sa(dp1516
g179
I4096745987
sg180
I00
sg181
I01
sg182
(dp1517
g41
VCLG Royal 2
p1518
sg43
Nssg185
(lp1519
I2758383128
asg187
I00
sg188
I00
sg189
I1
sg190
I0
sg191
I1
sg192
(dp1520
Vy
F12.30963
sVx
F-7.3831030000000002
sVz
F2.2826356900000002
ssg194
(dp1521
Vy
F12.3325844
sVx
F-7.4271097199999998
sVz
F1.46382952
ssg196
I00
sg197
(dp1522
g41
VEG Lunchbox HCS
p1523
sg43
Nssg200
(lp1524
sg202
(lp1525
(dp1526
g41
VCLG Frosty HCS
p1527
sg43
Nsasg204
I00
sg35
VPT1M42.3650762S
p1528
sg32
VDeath
p1529
sg207
I1
sa(dp1530
g32
VMedal
p1531
sg39
(dp1532
g41
VCLG Royal 2
p1533
sg43
Nssg212
I2287626681
sg35
VPT1M42.3660761S
p1534
sa(dp1535
g38
I669296699
sg32
VWeaponDrop
p1536
sg221
I1
sg44
(lp1537
I2758383128
asg35
VPT1M42.3660761S
p1538
sg224
I0
sg225
VP0DT0H0M16.0500S
p1539
sg39
(dp1540
g41
VEG Lunchbox HCS
p1541
sg43
Nssa(dp1542
g38
I4096745987
sg32
VWeaponDrop
p1543
sg221
I16
sg44
(lp1544
I2758383128
asg35
VPT1M42.3660761S
p1545
sg224
I8
sg225
VP0DT0H0M33.3667S
p1546
sg39
(dp1547
g41
VEG Lunchbox HCS
p1548
sg43
Nssa(dp1549
g38
I313138863
sg32
VWeaponDrop
p1550
sg221
I21
sg44
(lp1551
I1095363701
asg35
VPT1M44.4390674S
p1552
sg224
I7
sg225
VP0DT0H0M12.1500S
p1553
sg39
(dp1554
g41
VCLG Royal 2
p1555
sg43
Nssa(dp1556
g38
I313138863
sg32
VWeaponDrop
p1557
sg221
I0
sg44
(lp1558
I1095363701
asg35
VPT1M44.4390674S
p1559
sg224
I0
sg225
VP0DT0S
p1560
sg39
(dp1561
g41
VCLG Royal 2
p1562
sg43
Nssa(dp1563
g38
I669296699
sg39
(dp1564
g41
VCLG Royal 2
p1565
sg43
Nssg44
(lp1566
I2758383128
asg32
VWeaponPickup
p1567
sg35
VPT1M44.4390674S
p1568
sa(dp1569
g38
I4096745987
sg32
VWeaponDrop
p1570
sg221
I0
sg44
(lp1571
I2758383128
asg35
VPT1M45.1649236S
p1572
sg224
I0
sg225
VP0DT0H0M7.4667S
p1573
sg39
(dp1574
g41
VCLG Snake Bite
p1575
sg43
Nssa(dp1576
g38
I4108759423
sg39
(dp1577
g41
VCLG Snake Bite
p1578
sg43
Nssg44
(lp1579
I2758383128
asg32
VWeaponPickup
p1580
sg35
VPT1M45.165064S
p1581
sa(dp1582
g38
I313138863
sg39
(dp1583
g41
VEG Roy HCS
p1584
sg43
Nssg44
(lp1585
I1095363701
asg32
VWeaponPickup
p1586
sg35
VPT1M45.2370647S
p1587
sa(dp1588
g38
I4096745987
sg39
(dp1589
g41
VEG Roy HCS
p1590
sg43
Nssg44
(lp1591
I2758383128
asg32
VWeaponPickup
p1592
sg35
VPT1M45.2380649S
p1593
sa(dp1594
g32
VPlayerSpawn
p1595
sg39
(dp1596
g41
VEG Roy HCS
p1597
sg43
Nssg35
VPT1M45.2440384S
p1598
sa(dp1599
g179
I3808094875
sg180
I00
sg181
I00
sg182
(dp1600
g41
VCLG Frosty HCS
p1601
sg43
Nssg185
(lp1602
I2758383128
asg187
I00
sg188
I01
sg189
I1
sg190
I0
sg191
I1
sg192
(dp1603
Vy
F-2.5627262599999998
sVx
F-13.1213751
sVz
F1.6329877399999999
ssg194
(dp1604
Vy
F-5.0286254899999996
sVx
F-14.092975600000001
sVz
F1.63796473
ssg196
I00
sg197
(dp1605
g41
VEG SuspectorHCS
p1606
sg43
Nssg200
(lp1607
sg202
(lp1608
sg204
I00
sg35
VPT1M45.8960711S
p1609
sg32
VDeath
p1610
sg207
I1
sa(dp1611
g38
I313138863
sg32
VWeaponDrop
p1612
sg221
I0
sg44
(lp1613
I1095363701
asg35
VPT1M45.9040598S
p1614
sg224
I0
sg225
VP0DT0H0M1.1333S
p1615
sg39
(dp1616
g41
VEG SuspectorHCS
p1617
sg43
Nssa(dp1618
g38
I4096745987
sg32
VWeaponDrop
p1619
sg221
I1
sg44
(lp1620
I2758383128
asg35
VPT1M45.9040598S
p1621
sg224
I0
sg225
VP0DT0H0M4.1667S
p1622
sg39
(dp1623
g41
VEG SuspectorHCS
p1624
sg43
Nssa(dp1625
g179
I4096745987
sg180
I00
sg181
I00
sg182
(dp1626
g41
VEG Roy HCS
p1627
sg43
Nssg185
(lp1628
I2758383128
asg187
I00
sg188
I01
sg189
I1
sg190
I0
sg191
I1
sg192
(dp1629
Vy
F3.7571632899999998
sVx
F-8.6892739999999993
sVz
F0.21441727899999999
ssg194
(dp1630
Vy
F12.4735146
sVx
F-11.205627399999999
sVz
F1.17931366
ssg196
I00
sg197
(dp1631
g41
VCLG Royal 2
p1632
sg43
Nssg200
(lp1633
sg202
(lp1634
(dp1635
g41
VEG Snip3downHCS
p1636
sg43
Nsasg204
I01
sg35
VPT1M47.9820459S
p1637
sg32
VDeath
p1638
sg207
I1
sa(dp1639
g32
VMedal
p1640
sg39
(dp1641
g41
VEG Roy HCS
p1642
sg43
Nssg212
I3261908037
sg35
VPT1M47.9840462S
p1643
sa(dp1644
g38
I669296699
sg32
VWeaponDrop
p1645
sg221
I0
sg44
(lp1646
I2758383128
asg35
VPT1M47.9905385S
p1647
sg224
I0
sg225
VP0DT0H0M3.3333S
p1648
sg39
(dp1649
g41
VCLG Royal 2
p1650
sg43
Nssa(dp1651
g38
I4096745987
sg32
VWeaponDrop
p1652
sg221
I7
sg44
(lp1653
I2758383128
asg35
VPT1M47.9905385S
p1654
sg224
I5
sg225
VP0DT0H0M24.0667S
p1655
sg39
(dp1656
g41
VCLG Royal 2
p1657
sg43
Nssa(dp1658
g38
I4096745987
sg32
VWeaponDrop
p1659
sg221
I0
sg44
(lp1660
I2758383128
asg35
VPT1M47.9905385S
p1661
sg224
I0
sg225
VP0DT0S
p1662
sg39
(dp1663
g41
VCLG Royal 2
p1664
sg43
Nssa(dp1665
g38
I2244200496
sg39
(dp1666
g41
VCLG Frosty HCS
p1667
sg43
Nssg44
(lp1668
I2758383128
asg32
VWeaponPickup
p1669
sg35
VPT1M48.1910455S
p1670
sa(dp1671
g32
VImpulse
p1672
sg39
(dp1673
g41
VCLG Frosty HCS
p1674
sg43
Nssg353
I4191318012
sg35
VPT1M48.2093175S
p1675
sa(dp1676
g32
VImpulse
p1677
sg39
(dp1678
g41
VCLG Frosty HCS
p1679
sg43
Nssg353
I1039658009
sg35
VPT1M48.2093175S
p1680
sa(dp1681
g38
I4096745987
sg32
VWeaponDrop
p1682
sg221
I0
sg44
(lp1683
I2758383128
asg35
VPT1M48.4980422S
p1684
sg224
I0
sg225
VP0DT0H0M9.0500S
p1685
sg39
(dp1686
g41
VCLG LethuL HCS
p1687
sg43
Nssa(dp1688
g38
I424645655
sg39
(dp1689
g41
VCLG LethuL HCS
p1690
sg43
Nssg44
(lp1691
I1327094800
asg32
VWeaponPickup
p1692
sg35
VPT1M48.4980422S
p1693
sa(dp1694
g38
I2244200496
sg32
VWeaponDrop
p1695
sg221
I0
sg44
(lp1696
I2758383128
asg35
VPT1M48.7570516S
p1697
sg224
I0
sg225
VP0DT0H0M0.3500S
p1698
sg39
(dp1699
g41
VCLG Frosty HCS
p1700
sg43
Nssa(dp1701
g32
VImpulse
p1702
sg39
(dp1703
g41
VCLG Frosty HCS
p1704
sg43
Nssg353
I3435524855
sg35
VPT1M48.7760415S
p1705
sa(dp1706
g38
I313138863
sg32
VWeaponDrop
p1707
sg221
I14
sg44
(lp1708
I1095363701
asg35
VPT1M49.3607577S
p1709
sg224
I6
sg225
VP0DT0H0M5.4833S
p1710
sg39
(dp1711
g41
VEG Snip3downHCS
p1712
sg43
Nssa(dp1713
g38
I669296699
sg39
(dp1714
g41
VEG Snip3downHCS
p1715
sg43
Nssg44
(lp1716
I2758383128
asg32
VWeaponPickup
p1717
sg35
VPT1M49.3610382S
p1718
sa(dp1719
g38
I2244200496
sg39
(dp1720
g41
VCLG Frosty HCS
p1721
sg43
Nssg44
(lp1722
I2758383128
asg32
VWeaponPickup
p1723
sg35
VPT1M50.0940334S
p1724
sa(dp1725
g32
VImpulse
p1726
sg39
(dp1727
g41
VCLG Frosty HCS
p1728
sg43
Nssg353
I4191318012
sg35
VPT1M50.0940334S
p1729
sa(dp1730
g38
I2244200496
sg32
VWeaponDrop
p1731
sg221
I0
sg44
(lp1732
I2758383128
asg35
VPT1M50.7935809S
p1733
sg224
I0
sg225
VP0DT0H0M0.4000S
p1734
sg39
(dp1735
g41
VCLG Frosty HCS
p1736
sg43
Nssa(dp1737
g32
VImpulse
p1738
sg39
(dp1739
g41
VCLG Frosty HCS
p1740
sg43
Nssg353
I3435524855
sg35
VPT1M50.794037S
p1741
sa(dp1742
g38
I313138863
sg39
(dp1743
g41
VEG Lunchbox HCS
p1744
sg43
Nssg44
(lp1745
I1095363701
asg32
VWeaponPickup
p1746
sg35
VPT1M50.9670279S
p1747
sa(dp1748
g38
I4096745987
sg39
(dp1749
g41
VEG Lunchbox HCS
p1750
sg43
Nssg44
(lp1751
I2758383128
asg32
VWeaponPickup
p1752
sg35
VPT1M50.9670279S
p1753
sa(dp1754
g32
VPlayerSpawn
p1755
sg39
(dp1756
g41
VEG Lunchbox HCS
p1757
sg43
Nssg35
VPT1M50.9670279S
p1758
sa(dp1759
g38
I2244200496
sg39
(dp1760
g41
VCLG Frosty HCS
p1761
sg43
Nssg44
(lp1762
I2758383128
asg32
VWeaponPickup
p1763
sg35
VPT1M53.3930122S
p1764
sa(dp1765
g32
VImpulse
p1766
sg39
(dp1767
g41
VCLG Frosty HCS
p1768
sg43
Nssg353
I4191318012
sg35
VPT1M53.3940119S
p1769
sa(dp1770
g38
I2244200496
sg32
VWeaponDrop
p1771
sg221
I0
sg44
(lp1772
I2758383128
asg35
VPT1M54.0600903S
p1773
sg224
I0
sg225
VP0DT0H0M0.5167S
p1774
sg39
(dp1775
g41
VCLG Frosty HCS
p1776
sg43
Nssa(dp1777
g32
VImpulse
p1778
sg39
(dp1779
g41
VCLG Frosty HCS
p1780
sg43
Nssg353
I3435524855
sg35
VPT1M54.0610078S
p1781
sa(dp1782
g38
I313138863
sg39
(dp1783
g41
VEG SuspectorHCS
p1784
sg43
Nssg44
(lp1785
I1095363701
asg32
VWeaponPickup
p1786
sg35
VPT1M54.1910074S
p1787
sa(dp1788
g38
I4096745987
sg39
(dp1789
g41
VEG SuspectorHCS
p1790
sg43
Nssg44
(lp1791
I2758383128
asg32
VWeaponPickup
p1792
sg35
VPT1M54.1910074S
p1793
sa(dp1794
g32
VPlayerSpawn
p1795
sg39
(dp1796
g41
VEG SuspectorHCS
p1797
sg43
Nssg35
VPT1M54.1910074S
p1798
sa(dp1799
g38
I313138863
sg39
(dp1800
g41
VCLG Royal 2
p1801
sg43
Nssg44
(lp1802
I1095363701
asg32
VWeaponPickup
p1803
sg35
VPT1M56.2219942S
p1804
sa(dp1805
g38
I4096745987
sg39
(dp1806
g41
VCLG Royal 2
p1807
sg43
Nssg44
(lp1808
I2758383128
asg32
VWeaponPickup
p1809
sg35
VPT1M56.2281068S
p1810
sa(dp1811
g32
VPlayerSpawn
p1812
sg39
(dp1813
g41
VCLG Royal 2
p1814
sg43
Nssg35
VPT1M56.2281734S
p1815
sa(dp1816
g179
I4096745987
sg180
I00
sg181
I00
sg182
(dp1817
g41
VEG SuspectorHCS
p1818
sg43
Nssg185
(lp1819
I2758383128
asg187
I00
sg188
I01
sg189
I1
sg190
I0
sg191
I1
sg192
(dp1820
Vy
F-9.2041559999999993
sVx
F-3.3563184700000002
sVz
F-1.9899947600000001
ssg194
(dp1821
Vy
F-4.7657600000000002
sVx
F-3.47207379
sVz
F-1.2014188800000001
ssg196
I00
sg197
(dp1822
g41
VCLG Frosty HCS
p1823
sg43
Nssg200
(lp1824
sg202
(lp1825
(dp1826
g41
VEG Roy HCS
p1827
sg43
Nsasg204
I00
sg35
VPT1M58.7891927S
p1828
sg32
VDeath
p1829
sg207
I1
sa(dp1830
g38
I3808094875
sg32
VWeaponDrop
p1831
sg221
I8
sg44
(lp1832
I2758383128
asg35
VPT1M58.7909775S
p1833
sg224
I8
sg225
VP0DT0H0M9.9667S
p1834
sg39
(dp1835
g41
VCLG Frosty HCS
p1836
sg43
Nssa(dp1837
g38
I4096745987
sg32
VWeaponDrop
p1838
sg221
I14
sg44
(lp1839
I2758383128
asg35
VPT1M58.7909775S
p1840
sg224
I8
sg225
VP0DT0H0M19.0333S
p1841
sg39
(dp1842
g41
VCLG Frosty HCS
p1843
sg43
Nssa(dp1844
g38
I313138863
sg32
VWeaponDrop
p1845
sg221
I0
sg44
(lp1846
I1095363701
asg35
VPT2M0.0114949S
p1847
sg224
I0
sg225
VP0DT0H0M0.9333S
p1848
sg39
(dp1849
g41
VEG SuspectorHCS
p1850
sg43
Nssa(dp1851
g38
I3808094875
sg39
(dp1852
g41
VEG SuspectorHCS
p1853
sg43
Nssg44
(lp1854
I2758383128
asg32
VWeaponPickup
p1855
sg35
VPT2M0.0114949S
p1856
sa(dp1857
g38
I4096745987
sg32
VWeaponDrop
p1858
sg221
I4
sg44
(lp1859
I2758383128
asg35
VPT2M2.1769547S
p1860
sg224
I2
sg225
VP0DT0H0M9.7833S
p1861
sg39
(dp1862
g41
VEG Lunchbox HCS
p1863
sg43
Nssa(dp1864
g38
I523953283
sg39
(dp1865
g41
VEG Lunchbox HCS
p1866
sg43
Nssg44
(lp1867
I2208825748
asg32
VWeaponPickup
p1868
sg35
VPT2M2.1779556S
p1869
sa(dp1870
g179
I3808094875
sg180
I00
sg181
I00
sg182
(dp1871
g41
VEG SuspectorHCS
p1872
sg43
Nssg185
(lp1873
I2758383128
asg187
I00
sg188
I01
sg189
I1
sg190
I0
sg191
I1
sg192
(dp1874
Vy
F-9.0030380000000001
sVx
F5.5977480000000002
sVz
F-1.9102366
ssg194
(dp1875
Vy
F-8.440455
sVx
F8.3238199999999996
sVz
F-0.0512450635
ssg196
I00
sg197
(dp1876
g41
VCLG Snake Bite
p1877
sg43
Nssg200
(lp1878
sg202
(lp1879
(dp1880
g41
VEG Roy HCS
p1881
sg43
Nsasg204
I00
sg35
VPT2M3.1749491S
p1882
sg32
VDeath
p1883
sg207
I1
sa(dp1884
g32
VMedal
p1885
sg39
(dp1886
g41
VEG SuspectorHCS
p1887
sg43
Nssg212
I2838259753
sg35
VPT2M3.1749491S
p1888
sa(dp1889
g32
VImpulse
p1890
sg39
(dp1891
g41
VEG SuspectorHCS
p1892
sg43
Nssg353
I2556889090
sg35
VPT2M3.1749491S
p1893
sa(dp1894
g32
VMedal
p1895
sg39
(dp1896
g41
VEG SuspectorHCS
p1897
sg43
Nssg212
I2078758684
sg35
VPT2M3.1769494S
p1898
sa(dp1899
g38
I313138863
sg32
VWeaponDrop
p1900
sg221
I0
sg44
(lp1901
I1095363701
asg35
VPT2M3.1769494S
p1902
sg224
I0
sg225
VP0DT0H0M0.8000S
p1903
sg39
(dp1904
g41
VCLG Snake Bite
p1905
sg43
Nssa(dp1906
g38
I4108759423
sg32
VWeaponDrop
p1907
sg221
I13
sg44
(lp1908
I2758383128
asg35
VPT2M3.1769494S
p1909
sg224
I6
sg225
VP0DT0H0M17.5333S
p1910
sg39
(dp1911
g41
VCLG Snake Bite
p1912
sg43
Nssa(dp1913
g179
I4096745987
sg180
I00
sg181
I00
sg182
(dp1914
g41
VCLG Royal 2
p1915
sg43
Nssg185
(lp1916
I2758383128
asg187
I00
sg188
I01
sg189
I1
sg190
I0
sg191
I1
sg192
(dp1917
Vy
F-9.3226300000000002
sVx
F11.4164715
sVz
F2.3540787700000001
ssg194
(dp1918
Vy
F-8.4573769999999993
sVx
F5.4641904800000001
sVz
F-1.9836756
ssg196
I00
sg197
(dp1919
g41
VEG SuspectorHCS
p1920
sg43
Nssg200
(lp1921
sg202
(lp1922
(dp1923
g41
VCLG Snake Bite
p1924
sg43
Nsasg204
I01
sg35
VPT2M3.5713088S
p1925
sg32
VDeath
p1926
sg207
I1
sa(dp1927
g32
VMedal
p1928
sg39
(dp1929
g41
VCLG Royal 2
p1930
sg43
Nssg212
I3261908037
sg35
VPT2M3.5719468S
p1931
sa(dp1932
g38
I3808094875
sg32
VWeaponDrop
p1933
sg221
I16
sg44
(lp1934
I2758383128
asg35
VPT2M3.5729464S
p1935
sg224
I7
sg225
VP0DT0H0M3.5000S
p1936
sg39
(dp1937
g41
VEG SuspectorHCS
p1938
sg43
Nssa(dp1939
g38
I4096745987
sg32
VWeaponDrop
p1940
sg221
I4
sg44
(lp1941
I2758383128
asg35
VPT2M3.5729464S
p1942
sg224
I3
sg225
VP0DT0H0M4.8833S
p1943
sg39
(dp1944
g41
VEG SuspectorHCS
p1945
sg43
Nssa(dp1946
g179
I424645655
sg180
I00
sg181
I00
sg182
(dp1947
g41
VCLG LethuL HCS
p1948
sg43
Nssg185
(lp1949
I1327094800
asg187
I00
sg188
I01
sg189
I1
sg190
I0
sg191
I1
sg192
(dp1950
Vy
F7.3333673499999996
sVx
F11.862071
sVz
F1.0857118400000001
ssg194
(dp1951
Vy
F5.7210679999999998
sVx
F2.9869313200000001
sVz
F0.91351150000000003
ssg196
I00
sg197
(dp1952
g41
VEG Lunchbox HCS
p1953
sg43
Nssg200
(lp1954
sg202
(lp1955
sg204
I01
sg35
VPT2M4.5409406S
p1956
sg32
VDeath
p1957
sg207
I1
sa(dp1958
g32
VImpulse
p1959
sg39
(dp1960
g41
VCLG LethuL HCS
p1961
sg43
Nssg353
I3174430457
sg35
VPT2M4.5490565S
p1962
sa(dp1963
g32
VMedal
p1964
sg39
(dp1965
g41
VCLG LethuL HCS
p1966
sg43
Nssg212
I1080468863
sg35
VPT2M4.5499403S
p1967
sa(dp1968
g38
I313138863
sg32
VWeaponDrop
p1969
sg221
I0
sg44
(lp1970
I1095363701
asg35
VPT2M4.5509406S
p1971
sg224
I0
sg225
VP0DT0H0M1.3833S
p1972
sg39
(dp1973
g41
VEG Lunchbox HCS
p1974
sg43
Nssa(dp1975
g38
I523953283
sg32
VWeaponDrop
p1976
sg221
I4
sg44
(lp1977
I2208825748
asg35
VPT2M4.5509406S
p1978
sg224
I3
sg225
VP0DT0H0M2.3833S
p1979
sg39
(dp1980
g41
VEG Lunchbox HCS
p1981
sg43
Nssa(dp1982
g38
I313138863
sg32
VWeaponDrop
p1983
sg221
I0
sg44
(lp1984
I1095363701
asg35
VPT2M6.5573033S
p1985
sg224
I0
sg225
VP0DT0H0M2.1667S
p1986
sg39
(dp1987
g41
VCLG Royal 2
p1988
sg43
Nssa(dp1989
g38
I3808094875
sg39
(dp1990
g41
VCLG Royal 2
p1991
sg43
Nssg44
(lp1992
I2758383128
asg32
VWeaponPickup
p1993
sg35
VPT2M6.5573033S
p1994
sa(dp1995
g38
I313138863
sg39
(dp1996
g41
VCLG Frosty HCS
p1997
sg43
Nssg44
(lp1998
I1095363701
asg32
VWeaponPickup
p1999
sg35
VPT2M6.8409267S
p2000
sa(dp2001
g38
I4096745987
sg39
(dp2002
g41
VCLG Frosty HCS
p2003
sg43
Nssg44
(lp2004
I2758383128
asg32
VWeaponPickup
p2005
sg35
VPT2M6.8409267S
p2006
sa(dp2007
g32
VPlayerSpawn
p2008
sg39
(dp2009
g41
VCLG Frosty HCS
p2010
sg43
Nssg35
VPT2M6.8409267S
p2011
sa(dp2012
g38
I313138863
sg39
(dp2013
g41
VCLG Snake Bite
p2014
sg43
Nssg44
(lp2015
I1095363701
asg32
VWeaponPickup
p2016
sg35
VPT2M11.226898S
p2017
sa(dp2018
g38
I4096745987
sg39
(dp2019
g41
VCLG Snake Bite
p2020
sg43
Nssg44
(lp2021
I2758383128
asg32
VWeaponPickup
p2022
sg35
VPT2M11.226898S
p2023
sa(dp2024
g32
VPlayerSpawn
p2025
sg39
(dp2026
g41
VCLG Snake Bite
p2027
sg43
Nssg35
VPT2M11.226898S
p2028
sa(dp2029
g38
I313138863
sg39
(dp2030
g41
VEG SuspectorHCS
p2031
sg43
Nssg44
(lp2032
I1095363701
asg32
VWeaponPickup
p2033
sg35
VPT2M11.5719823S
p2034
sa(dp2035
g38
I4096745987
sg39
(dp2036
g41
VEG SuspectorHCS
p2037
sg43
Nssg44
(lp2038
I2758383128
asg32
VWeaponPickup
p2039
sg35
VPT2M11.5728959S
p2040
sa(dp2041
g32
VPlayerSpawn
p2042
sg39
(dp2043
g41
VEG SuspectorHCS
p2044
sg43
Nssg35
VPT2M11.5728959S
p2045
sa(dp2046
g38
I313138863
sg39
(dp2047
g41
VEG Lunchbox HCS
p2048
sg43
Nssg44
(lp2049
I1095363701
asg32
VWeaponPickup
p2050
sg35
VPT2M12.5798895S
p2051
sa(dp2052
g38
I4096745987
sg39
(dp2053
g41
VEG Lunchbox HCS
p2054
sg43
Nssg44
(lp2055
I2758383128
asg32
VWeaponPickup
p2056
sg35
VPT2M12.5798895S
p2057
sa(dp2058
g32
VPlayerSpawn
p2059
sg39
(dp2060
g41
VEG Lunchbox HCS
p2061
sg43
Nssg35
VPT2M12.5798895S
p2062
sa(dp2063
g179
I424645655
sg180
I00
sg181
I00
sg182
(dp2064
g41
VCLG LethuL HCS
p2065
sg43
Nssg185
(lp2066
I1327094800
asg187
I00
sg188
I01
sg189
I1
sg190
I0
sg191
I1
sg192
(dp2067
Vy
F4.99791527
sVx
F11.545260000000001
sVz
F0.99245760000000005
ssg194
(dp2068
Vy
F11.9709606
sVx
F7.7078230000000003
sVz
F1.6088762299999999
ssg196
I00
sg197
(dp2069
g41
VEG Snip3downHCS
p2070
sg43
Nssg200
(lp2071
sg202
(lp2072
sg204
I01
sg35
VPT2M12.9558867S
p2073
sg32
VDeath
p2074
sg207
I1
sa(dp2075
g32
VMedal
p2076
sg39
(dp2077
g41
VCLG LethuL HCS
p2078
sg43
Nssg212
I3261908037
sg35
VPT2M12.963885S
p2079
sa(dp2080
g38
I669296699
sg32
VWeaponDrop
p2081
sg221
I1
sg44
(lp2082
I2758383128
asg35
VPT2M12.963885S
p2083
sg224
I1
sg225
VP0DT0H0M6.0167S
p2084
sg39
(dp2085
g41
VEG Snip3downHCS
p2086
sg43
Nssa(dp2087
g38
I4096745987
sg32
VWeaponDrop
p2088
sg221
I4
sg44
(lp2089
I2758383128
asg35
VPT2M12.963885S
p2090
sg224
I1
sg225
VP0DT0H0M22.5667S
p2091
sg39
(dp2092
g41
VEG Snip3downHCS
p2093
sg43
Nssa(dp2094
g32
VMedal
p2095
sg39
(dp2096
g41
VCLG LethuL HCS
p2097
sg43
Nssg212
I3400287617
sg35
VPT2M15.9808653S
p2098
sa(dp2099
g38
I2244200496
sg39
(dp2100
g41
VCLG Snake Bite
p2101
sg43
Nssg44
(lp2102
I2758383128
asg32
VWeaponPickup
p2103
sg35
VPT2M18.7099249S
p2104
sa(dp2105
g32
VImpulse
p2106
sg39
(dp2107
g41
VCLG Snake Bite
p2108
sg43
Nssg353
I4191318012
sg35
VPT2M18.7099249S
p2109
sa(dp2110
g179
I3808094875
sg180
I00
sg181
I00
sg182
(dp2111
g41
VCLG Royal 2
p2112
sg43
Nssg185
(lp2113
I2758383128
asg187
I00
sg188
I01
sg189
I1
sg190
I0
sg191
I1
sg192
(dp2114
Vy
F-7.0341839999999998
sVx
F-2.7308082599999999
sVz
F-1.9899038099999999
ssg194
(dp2115
Vy
F-7.9233694100000003
sVx
F-3.7488095800000001
sVz
F-1.98995733
ssg196
I00
sg197
(dp2116
g41
VEG Roy HCS
p2117
sg43
Nssg200
(lp2118
sg202
(lp2119
sg204
I00
sg35
VPT2M19.7442823S
p2120
sg32
VDeath
p2121
sg207
I1
sa(dp2122
g38
I313138863
sg32
VWeaponDrop
p2123
sg221
I0
sg44
(lp2124
I1095363701
asg35
VPT2M19.7458434S
p2125
sg224
I0
sg225
VP0DT0H0M0.2500S
p2126
sg39
(dp2127
g41
VEG Roy HCS
p2128
sg43
Nssa(dp2129
g38
I4096745987
sg32
VWeaponDrop
p2130
sg221
I19
sg44
(lp2131
I2758383128
asg35
VPT2M19.7458434S
p2132
sg224
I13
sg225
VP0DT0H0M33.5833S
p2133
sg39
(dp2134
g41
VEG Roy HCS
p2135
sg43
Nssa(dp2136
g38
I2244200496
sg32
VWeaponDrop
p2137
sg221
I0
sg44
(lp2138
I2758383128
asg35
VPT2M20.3948393S
p2139
sg224
I0
sg225
VP0DT0H0M1.3833S
p2140
sg39
(dp2141
g41
VCLG Snake Bite
p2142
sg43
Nssa(dp2143
g32
VImpulse
p2144
sg39
(dp2145
g41
VCLG Snake Bite
p2146
sg43
Nssg353
I3435524855
sg35
VPT2M20.3958399S
p2147
sa(dp2148
g38
I313138863
sg39
(dp2149
g41
VEG Snip3downHCS
p2150
sg43
Nssg44
(lp2151
I1095363701
asg32
VWeaponPickup
p2152
sg35
VPT2M21.1618348S
p2153
sa(dp2154
g38
I4096745987
sg39
(dp2155
g41
VEG Snip3downHCS
p2156
sg43
Nssg44
(lp2157
I2758383128
asg32
VWeaponPickup
p2158
sg35
VPT2M21.1618348S
p2159
sa(dp2160
g32
VPlayerSpawn
p2161
sg39
(dp2162
g41
VEG Snip3downHCS
p2163
sg43
Nssg35
VPT2M21.1618348S
p2164
sa(dp2165
g38
I313138863
sg32
VWeaponDrop
p2166
sg221
I0
sg44
(lp2167
I1095363701
asg35
VPT2M21.4218316S
p2168
sg224
I0
sg225
VP0DT0H0M6.3500S
p2169
sg39
(dp2170
g41
VCLG Frosty HCS
p2171
sg43
Nssa(dp2172
g38
I723523180
sg39
(dp2173
g41
VCLG Frosty HCS
p2174
sg43
Nssg44
(lp2175
I2758383128
asg32
VWeaponPickupPad
p2176
sg35
VPT2M21.4281196S
p2177
sa(dp2178
g38
I723523180
sg39
(dp2179
g41
VCLG Frosty HCS
p2180
sg43
Nssg44
(lp2181
I2758383128
asg32
VWeaponPickup
p2182
sg35
VPT2M21.4282526S
p2183
sa(dp2184
g32
VMedal
p2185
sg39
(dp2186
g41
VCLG Royal 2
p2187
sg43
Nssg212
I3400287617
sg35
VPT2M23.4058198S
p2188
sa(dp2189
g38
I2244200496
sg39
(dp2190
g41
VCLG Snake Bite
p2191
sg43
Nssg44
(lp2192
I2758383128
asg32
VWeaponPickup
p2193
sg35
VPT2M23.7270164S
p2194
sa(dp2195
g32
VImpulse
p2196
sg39
(dp2197
g41
VCLG Snake Bite
p2198
sg43
Nssg353
I4191318012
sg35
VPT2M23.7278181S
p2199
sa(dp2200
g38
I2244200496
sg32
VWeaponDrop
p2201
sg221
I0
sg44
(lp2202
I2758383128
asg35
VPT2M26.0978031S
p2203
sg224
I0
sg225
VP0DT0H0M2.1833S
p2204
sg39
(dp2205
g41
VCLG Snake Bite
p2206
sg43
Nssa(dp2207
g32
VImpulse
p2208
sg39
(dp2209
g41
VCLG Snake Bite
p2210
sg43
Nssg353
I3435524855
sg35
VPT2M26.0988033S
p2211
sa(dp2212
g38
I2244200496
sg39
(dp2213
g41
VCLG Snake Bite
p2214
sg43
Nssg44
(lp2215
I2758383128
asg32
VWeaponPickup
p2216
sg35
VPT2M27.2794915S
p2217
sa(dp2218
g32
VImpulse
p2219
sg39
(dp2220
g41
VCLG Snake Bite
p2221
sg43
Nssg353
I4191318012
sg35
VPT2M27.2797952S
p2222
sa(dp2223
g32
VMedal
p2224
sg39
(dp2225
g41
VCLG Snake Bite
p2226
sg43
Nssg212
I3886151616
sg35
VPT2M27.5480877S
p2227
sa(dp2228
g32
VMedal
p2229
sg39
(dp2230
g41
VCLG Frosty HCS
p2231
sg43
Nssg212
I1494478183
sg35
VPT2M27.5480877S
p2232
sa(dp2233
g32
VImpulse
p2234
sg39
(dp2235
g41
VCLG Snake Bite
p2236
sg43
Nssg353
I2944278681
sg35
VPT2M27.5487931S
p2237
sa(dp2238
g38
I2244200496
sg32
VWeaponDrop
p2239
sg221
I0
sg44
(lp2240
I2758383128
asg35
VPT2M27.5487931S
p2241
sg224
I0
sg225
VP0DT0H0M0.1167S
p2242
sg39
(dp2243
g41
VCLG Snake Bite
p2244
sg43
Nssa(dp2245
g38
I313138863
sg39
(dp2246
g41
VEG Roy HCS
p2247
sg43
Nssg44
(lp2248
I1095363701
asg32
VWeaponPickup
p2249
sg35
VPT2M27.8577917S
p2250
sa(dp2251
g38
I4096745987
sg39
(dp2252
g41
VEG Roy HCS
p2253
sg43
Nssg44
(lp2254
I2758383128
asg32
VWeaponPickup
p2255
sg35
VPT2M27.858792S
p2256
sa(dp2257
g32
VPlayerSpawn
p2258
sg39
(dp2259
g41
VEG Roy HCS
p2260
sg43
Nssg35
VPT2M27.858792S
p2261
sa(dp2262
g179
I723523180
sg180
I00
sg181
I00
sg182
(dp2263
g41
VCLG Frosty HCS
p2264
sg43
Nssg185
(lp2265
I2758383128
asg187
I00
sg188
I01
sg189
I1
sg190
I0
sg191
I1
sg192
(dp2266
Vy
F1.5299549100000001
sVx
F6.227074
sVz
F3.1815929999999999
ssg194
(dp2267
Vy
F3.5589335000000002
sVx
F6.4413390000000001
sVz
F2.4503936799999999
ssg196
I00
sg197
(dp2268
g41
VEG Lunchbox HCS
p2269
sg43
Nssg200
(lp2270
sg202
(lp2271
sg204
I00
sg35
VPT2M29.0424488S
p2272
sg32
VDeath
p2273
sg207
I1
sa(dp2274
g32
VMedal
p2275
sg39
(dp2276
g41
VCLG Snake Bite
p2277
sg43
Nssg212
I824733727
sg35
VPT2M29.0427833S
p2278
sa(dp2279
g38
I313138863
sg32
VWeaponDrop
p2280
sg221
I0
sg44
(lp2281
I1095363701
asg35
VPT2M29.0437845S
p2282
sg224
I0
sg225
VP0DT0H0M1.1000S
p2283
sg39
(dp2284
g41
VEG Lunchbox HCS
p2285
sg43
Nssa(dp2286
g38
I4096745987
sg32
VWeaponDrop
p2287
sg221
I15
sg44
(lp2288
I2758383128
asg35
VPT2M29.0437845S
p2289
sg224
I6
sg225
VP0DT0H0M15.0667S
p2290
sg39
(dp2291
g41
VEG Lunchbox HCS
p2292
sg43
Nssa(dp2293
g38
I2244200496
sg39
(dp2294
g41
VCLG Royal 2
p2295
sg43
Nssg44
(lp2296
I2758383128
asg32
VWeaponPickup
p2297
sg35
VPT2M29.5787805S
p2298
sa(dp2299
g32
VImpulse
p2300
sg39
(dp2301
g41
VCLG Royal 2
p2302
sg43
Nssg353
I4191318012
sg35
VPT2M29.5787805S
p2303
sa(dp2304
g32
VImpulse
p2305
sg39
(dp2306
g41
VCLG Royal 2
p2307
sg43
Nssg353
I1039658009
sg35
VPT2M29.5787805S
p2308
sa(dp2309
g38
I2244200496
sg32
VWeaponDrop
p2310
sg221
I0
sg44
(lp2311
I2758383128
asg35
VPT2M30.3940872S
p2312
sg224
I0
sg225
VP0DT0H0M0.6667S
p2313
sg39
(dp2314
g41
VCLG Royal 2
p2315
sg43
Nssa(dp2316
g32
VImpulse
p2317
sg39
(dp2318
g41
VCLG Royal 2
p2319
sg43
Nssg353
I3435524855
sg35
VPT2M30.3947749S
p2320
sa(dp2321
g38
I2244200496
sg39
(dp2322
g41
VCLG Royal 2
p2323
sg43
Nssg44
(lp2324
I2758383128
asg32
VWeaponPickup
p2325
sg35
VPT2M32.2251756S
p2326
sa(dp2327
g32
VImpulse
p2328
sg39
(dp2329
g41
VCLG Royal 2
p2330
sg43
Nssg353
I4191318012
sg35
VPT2M32.2257636S
p2331
sa(dp2332
g179
I4096745987
sg180
I00
sg181
I00
sg182
(dp2333
g41
VEG Snip3downHCS
p2334
sg43
Nssg185
(lp2335
I2758383128
asg187
I00
sg188
I01
sg189
I1
sg190
I0
sg191
I1
sg192
(dp2336
Vy
F-0.27945452900000001
sVx
F-2.0208718800000001
sVz
F1.18089032
ssg194
(dp2337
Vy
F-1.5226285500000001
sVx
F6.1020245600000003
sVz
F0.125967473
ssg196
I00
sg197
(dp2338
g41
VCLG Frosty HCS
p2339
sg43
Nssg200
(lp2340
sg202
(lp2341
sg204
I01
sg35
VPT2M32.2977635S
p2342
sg32
VDeath
p2343
sg207
I1
sa(dp2344
g32
VMedal
p2345
sg39
(dp2346
g41
VEG Snip3downHCS
p2347
sg43
Nssg212
I3261908037
sg35
VPT2M32.3047615S
p2348
sa(dp2349
g38
I723523180
sg32
VWeaponDrop
p2350
sg221
I2
sg44
(lp2351
I2758383128
asg35
VPT2M32.3057694S
p2352
sg224
I1
sg225
VP0DT0H0M10.8167S
p2353
sg39
(dp2354
g41
VCLG Frosty HCS
p2355
sg43
Nssa(dp2356
g38
I4096745987
sg32
VWeaponDrop
p2357
sg221
I5
sg44
(lp2358
I2758383128
asg35
VPT2M32.3057694S
p2359
sg224
I4
sg225
VP0DT0H0M8.0167S
p2360
sg39
(dp2361
g41
VCLG Frosty HCS
p2362
sg43
Nssa(dp2363
g179
I4096745987
sg180
I00
sg181
I00
sg182
(dp2364
g41
VEG Roy HCS
p2365
sg43
Nssg185
(lp2366
I2758383128
asg187
I00
sg188
I01
sg189
I1
sg190
I0
sg191
I1
sg192
(dp2367
Vy
F6.0671105399999998
sVx
F-6.7684507399999996
sVz
F3.190547
ssg194
(dp2368
Vy
F0.20996198099999999
sVx
F-6.0614094700000001
sVz
F3.2737705699999999
ssg196
I00
sg197
(dp2369
g41
VCLG Royal 2
p2370
sg43
Nssg200
(lp2371
sg202
(lp2372
(dp2373
g41
VEG Snip3downHCS
p2374
sg43
Nsasg204
I01
sg35
VPT2M34.9357462S
p2375
sg32
VDeath
p2376
sg207
I1
sa(dp2377
g32
VMedal
p2378
sg39
(dp2379
g41
VEG Roy HCS
p2380
sg43
Nssg212
I2028249938
sg35
VPT2M34.9427458S
p2381
sa(dp2382
g32
VImpulse
p2383
sg39
(dp2384
g41
VEG Roy HCS
p2385
sg43
Nssg353
I2299858338
sg35
VPT2M34.9427458S
p2386
sa(dp2387
g32
VMedal
p2388
sg39
(dp2389
g41
VEG Roy HCS
p2390
sg43
Nssg212
I3261908037
sg35
VPT2M34.9427458S
p2391
sa(dp2392
g38
I3808094875
sg32
VWeaponDrop
p2393
sg221
I8
sg44
(lp2394
I2758383128
asg35
VPT2M34.9427458S
p2395
sg224
I7
sg225
VP0DT0H0M17.2833S
p2396
sg39
(dp2397
g41
VCLG Royal 2
p2398
sg43
Nssa(dp2399
g38
I3808094875
sg32
VWeaponDrop
p2400
sg221
I0
sg44
(lp2401
I2758383128
asg35
VPT2M34.9427458S
p2402
sg224
I0
sg225
VP0DT0S
p2403
sg39
(dp2404
g41
VCLG Royal 2
p2405
sg43
Nssa(dp2406
g38
I4096745987
sg32
VWeaponDrop
p2407
sg221
I11
sg44
(lp2408
I2758383128
asg35
VPT2M34.9427458S
p2409
sg224
I5
sg225
VP0DT0H0M15.7167S
p2410
sg39
(dp2411
g41
VCLG Royal 2
p2412
sg43
Nssa(dp2413
g38
I2244200496
sg32
VWeaponDrop
p2414
sg221
I4
sg44
(lp2415
I2758383128
asg35
VPT2M34.9427458S
p2416
sg224
I4
sg225
VP0DT0H0M2.5667S
p2417
sg39
(dp2418
g41
VCLG Royal 2
p2419
sg43
Nssa(dp2420
g32
VImpulse
p2421
sg39
(dp2422
g41
VCLG Royal 2
p2423
sg43
Nssg353
I3435524855
sg35
VPT2M34.9527485S
p2424
sa(dp2425
g38
I313138863
sg39
(dp2426
g41
VEG Lunchbox HCS
p2427
sg43
Nssg44
(lp2428
I1095363701
asg32
VWeaponPickup
p2429
sg35
VPT2M37.0607327S
p2430
sa(dp2431
g38
I4096745987
sg39
(dp2432
g41
VEG Lunchbox HCS
p2433
sg43
Nssg44
(lp2434
I2758383128
asg32
VWeaponPickup
p2435
sg35
VPT2M37.0617327S
p2436
sa(dp2437
g32
VPlayerSpawn
p2438
sg39
(dp2439
g41
VEG Lunchbox HCS
p2440
sg43
Nssg35
VPT2M37.0617327S
p2441
sa(dp2442
g38
I424645655
sg32
VWeaponDrop
p2443
sg221
I97
sg44
(lp2444
I1327094800
asg35
VPT2M39.0907195S
p2445
sg224
I39
sg225
VP0DT0H0M44.8000S
p2446
sg39
(dp2447
g41
VCLG LethuL HCS
p2448
sg43
Nssa(dp2449
g38
I669296699
sg39
(dp2450
g41
VCLG LethuL HCS
p2451
sg43
Nssg44
(lp2452
I2758383128
asg32
VWeaponPickup
p2453
sg35
VPT2M39.0907195S
p2454
sa(dp2455
g38
I313138863
sg39
(dp2456
g41
VCLG Frosty HCS
p2457
sg43
Nssg44
(lp2458
I1095363701
asg32
VWeaponPickup
p2459
sg35
VPT2M40.3647121S
p2460
sa(dp2461
g38
I4096745987
sg39
(dp2462
g41
VCLG Frosty HCS
p2463
sg43
Nssg44
(lp2464
I2758383128
asg32
VWeaponPickup
p2465
sg35
VPT2M40.3647121S
p2466
sa(dp2467
g32
VPlayerSpawn
p2468
sg39
(dp2469
g41
VCLG Frosty HCS
p2470
sg43
Nssg35
VPT2M40.3647121S
p2471
sa(dp2472
g38
I313138863
sg32
VWeaponDrop
p2473
sg221
I13
sg44
(lp2474
I1095363701
asg35
VPT2M41.3877034S
p2475
sg224
I0
sg225
VP0DT0H0M6.3833S
p2476
sg39
(dp2477
g41
VCLG LethuL HCS
p2478
sg43
Nssa(dp2479
g38
I424645655
sg39
(dp2480
g41
VCLG LethuL HCS
p2481
sg43
Nssg44
(lp2482
I1327094800
asg32
VWeaponPickup
p2483
sg35
VPT2M41.3877034S
p2484
sa(dp2485
g38
I424645655
sg32
VWeaponDrop
p2486
sg221
I0
sg44
(lp2487
I1327094800
asg35
VPT2M42.3216986S
p2488
sg224
I0
sg225
VP0DT0H0M0.9333S
p2489
sg39
(dp2490
g41
VCLG LethuL HCS
p2491
sg43
Nssa(dp2492
g38
I313138863
sg39
(dp2493
g41
VCLG LethuL HCS
p2494
sg43
Nssg44
(lp2495
I1095363701
asg32
VWeaponPickup
p2496
sg35
VPT2M42.3216986S
p2497
sa(dp2498
g38
I4096745987
sg32
VWeaponDrop
p2499
sg221
I20
sg44
(lp2500
I2758383128
asg35
VPT2M42.5897155S
p2501
sg224
I8
sg225
VP0DT0H0M26.4500S
p2502
sg39
(dp2503
g41
VEG SuspectorHCS
p2504
sg43
Nssa(dp2505
g38
I523953283
sg39
(dp2506
g41
VEG SuspectorHCS
p2507
sg43
Nssg44
(lp2508
I2208825748
asg32
VWeaponPickup
p2509
sg35
VPT2M42.5897155S
p2510
sa(dp2511
g38
I4096745987
sg32
VWeaponDrop
p2512
sg221
I8
sg44
(lp2513
I2758383128
asg35
VPT2M42.8436951S
p2514
sg224
I4
sg225
VP0DT0H0M14.6000S
p2515
sg39
(dp2516
g41
VEG Roy HCS
p2517
sg43
Nssa(dp2518
g38
I424645655
sg39
(dp2519
g41
VEG Roy HCS
p2520
sg43
Nssg44
(lp2521
I1327094800
asg32
VWeaponPickup
p2522
sg35
VPT2M42.8446954S
p2523
sa(dp2524
g38
I313138863
sg32
VWeaponDrop
p2525
sg221
I0
sg44
(lp2526
I1095363701
asg35
VPT2M42.8915091S
p2527
sg224
I0
sg225
VP0DT0H0M0.4167S
p2528
sg39
(dp2529
g41
VEG Snip3downHCS
p2530
sg43
Nssa(dp2531
g38
I723388907
sg39
(dp2532
g41
VEG Snip3downHCS
p2533
sg43
Nssg44
(lp2534
I89283061
asg32
VWeaponPickup
p2535
sg35
VPT2M42.8917063S
p2536
sa(dp2537
g38
I313138863
sg39
(dp2538
g41
VCLG Royal 2
p2539
sg43
Nssg44
(lp2540
I1095363701
asg32
VWeaponPickup
p2541
sg35
VPT2M42.9656951S
p2542
sa(dp2543
g38
I4096745987
sg39
(dp2544
g41
VCLG Royal 2
p2545
sg43
Nssg44
(lp2546
I2758383128
asg32
VWeaponPickup
p2547
sg35
VPT2M42.9666953S
p2548
sa(dp2549
g32
VPlayerSpawn
p2550
sg39
(dp2551
g41
VCLG Royal 2
p2552
sg43
Nssg35
VPT2M42.9666953S
p2553
sa(dp2554
g179
I313138863
sg180
I01
sg181
I00
sg182
(dp2555
g41
VCLG Frosty HCS
p2556
sg43
Nssg185
(lp2557
I1095363701
asg187
I00
sg188
I00
sg189
I1
sg190
I0
sg191
I1
sg192
(dp2558
Vy
F-0.96534399999999998
sVx
F7.4658913599999996
sVz
F0.114872187
ssg194
(dp2559
Vy
F-0.92575269999999998
sVx
F6.8415064799999996
sVz
F0.020539970000000001
ssg196
I00
sg197
(dp2560
g41
VEG Snip3downHCS
p2561
sg43
Nssg200
(lp2562
sg202
(lp2563
(dp2564
g41
VCLG Snake Bite
p2565
sg43
Nsasg204
I00
sg35
VPT2M44.511684S
p2566
sg32
VDeath
p2567
sg207
I1
sa(dp2568
g32
VMedal
p2569
sg39
(dp2570
g41
VCLG Frosty HCS
p2571
sg43
Nssg212
I3270120991
sg35
VPT2M44.5126849S
p2572
sa(dp2573
g38
I723388907
sg32
VWeaponDrop
p2574
sg221
I0
sg44
(lp2575
I89283061
asg35
VPT2M44.5136846S
p2576
sg224
I0
sg225
VP0DT0H0M1.6167S
p2577
sg39
(dp2578
g41
VEG Snip3downHCS
p2579
sg43
Nssa(dp2580
g38
I4096745987
sg32
VWeaponDrop
p2581
sg221
I15
sg44
(lp2582
I2758383128
asg35
VPT2M44.5136846S
p2583
sg224
I9
sg225
VP0DT0H0M21.2000S
p2584
sg39
(dp2585
g41
VEG Snip3downHCS
p2586
sg43
Nssa(dp2587
g38
I313138863
sg32
VWeaponDrop
p2588
sg221
I7
sg44
(lp2589
I1095363701
asg35
VPT2M45.4566789S
p2590
sg224
I7
sg225
VP0DT0H0M2.7167S
p2591
sg39
(dp2592
g41
VCLG Frosty HCS
p2593
sg43
Nssa(dp2594
g38
I313138863
sg32
VWeaponDrop
p2595
sg221
I0
sg44
(lp2596
I1095363701
asg35
VPT2M45.4566789S
p2597
sg224
I0
sg225
VP0DT0S
p2598
sg39
(dp2599
g41
VCLG Frosty HCS
p2600
sg43
Nssa(dp2601
g38
I723523180
sg39
(dp2602
g41
VCLG Frosty HCS
p2603
sg43
Nssg44
(lp2604
I2758383128
asg32
VWeaponPickup
p2605
sg35
VPT2M45.4576787S
p2606
sa(dp2607
g179
I4096745987
sg180
I00
sg181
I00
sg182
(dp2608
g41
VEG Lunchbox HCS
p2609
sg43
Nssg185
(lp2610
I2758383128
asg187
I00
sg188
I01
sg189
I1
sg190
I0
sg191
I1
sg192
(dp2611
Vy
F12.1724567
sVx
F10.881588000000001
sVz
F1.0373251400000001
ssg194
(dp2612
Vy
F6.5136776000000003
sVx
F5.5931115199999999
sVz
F0.982074
ssg196
I00
sg197
(dp2613
g41
VCLG LethuL HCS
p2614
sg43
Nssg200
(lp2615
sg202
(lp2616
sg204
I01
sg35
VPT2M47.4386662S
p2617
sg32
VDeath
p2618
sg207
I1
sa(dp2619
g32
VMedal
p2620
sg39
(dp2621
g41
VEG Lunchbox HCS
p2622
sg43
Nssg212
I3261908037
sg35
VPT2M47.4476654S
p2623
sa(dp2624
g38
I313138863
sg32
VWeaponDrop
p2625
sg221
I0
sg44
(lp2626
I1095363701
asg35
VPT2M47.4476654S
p2627
sg224
I0
sg225
VP0DT0H0M0.4833S
p2628
sg39
(dp2629
g41
VCLG LethuL HCS
p2630
sg43
Nssa(dp2631
g38
I669296699
sg32
VWeaponDrop
p2632
sg221
I2
sg44
(lp2633
I2758383128
asg35
VPT2M47.4476654S
p2634
sg224
I0
sg225
VP0DT0H0M6.6667S
p2635
sg39
(dp2636
g41
VCLG LethuL HCS
p2637
sg43
Nssa(dp2638
g38
I313138863
sg32
VWeaponDrop
p2639
sg221
I0
sg44
(lp2640
I1095363701
asg35
VPT2M49.2252501S
p2641
sg224
I0
sg225
VP0DT0H0M4.5333S
p2642
sg39
(dp2643
g41
VEG SuspectorHCS
p2644
sg43
Nssa(dp2645
g38
I669296699
sg39
(dp2646
g41
VEG SuspectorHCS
p2647
sg43
Nssg44
(lp2648
I2758383128
asg32
VWeaponPickup
p2649
sg35
VPT2M49.2252501S
p2650
sa(dp2651
g179
I723523180
sg180
I00
sg181
I00
sg182
(dp2652
g41
VCLG Frosty HCS
p2653
sg43
Nssg185
(lp2654
I2758383128
asg187
I00
sg188
I01
sg189
I1
sg190
I0
sg191
I1
sg192
(dp2655
Vy
F4.75531244
sVx
F7.3655330000000001
sVz
F0.41034949999999998
ssg194
(dp2656
Vy
F6.4873805000000004
sVx
F6.0664230000000003
sVz
F1.1012067800000001
ssg196
I00
sg197
(dp2657
g41
VEG SuspectorHCS
p2658
sg43
Nssg200
(lp2659
sg202
(lp2660
sg204
I00
sg35
VPT2M49.8836506S
p2661
sg32
VDeath
p2662
sg207
I1
sa(dp2663
g38
I669296699
sg32
VWeaponDrop
p2664
sg221
I0
sg44
(lp2665
I2758383128
asg35
VPT2M49.8912457S
p2666
sg224
I0
sg225
VP0DT0H0M0.6500S
p2667
sg39
(dp2668
g41
VEG SuspectorHCS
p2669
sg43
Nssa(dp2670
g38
I523953283
sg32
VWeaponDrop
p2671
sg221
I3
sg44
(lp2672
I2208825748
asg35
VPT2M49.8912457S
p2673
sg224
I0
sg225
VP0DT0H0M6.3667S
p2674
sg39
(dp2675
g41
VEG SuspectorHCS
p2676
sg43
Nssa(dp2677
g38
I313138863
sg39
(dp2678
g41
VEG Snip3downHCS
p2679
sg43
Nssg44
(lp2680
I1095363701
asg32
VWeaponPickup
p2681
sg35
VPT2M52.5256338S
p2682
sa(dp2683
g38
I4096745987
sg39
(dp2684
g41
VEG Snip3downHCS
p2685
sg43
Nssg44
(lp2686
I2758383128
asg32
VWeaponPickup
p2687
sg35
VPT2M52.526634S
p2688
sa(dp2689
g32
VPlayerSpawn
p2690
sg39
(dp2691
g41
VEG Snip3downHCS
p2692
sg43
Nssg35
VPT2M52.526634S
p2693
sa(dp2694
g179
I4096745987
sg180
I00
sg181
I00
sg182
(dp2695
g41
VCLG Frosty HCS
p2696
sg43
Nssg185
(lp2697
I2758383128
asg187
I00
sg188
I01
sg189
I1
sg190
I0
sg191
I1
sg192
(dp2698
Vy
F4.6123250000000002
sVx
F6.8846360000000004
sVz
F0.20073694
ssg194
(dp2699
Vy
F12.9460411
sVx
F8.2914560000000002
sVz
F1.0835483100000001
ssg196
I00
sg197
(dp2700
g41
VEG Lunchbox HCS
p2701
sg43
Nssg200
(lp2702
sg202
(lp2703
(dp2704
g41
VCLG Royal 2
p2705
sg43
Nsasg204
I01
sg35
VPT2M52.5933236S
p2706
sg32
VDeath
p2707
sg207
I1
sa(dp2708
g32
VMedal
p2709
sg39
(dp2710
g41
VCLG Frosty HCS
p2711
sg43
Nssg212
I3261908037
sg35
VPT2M52.5946329S
p2712
sa(dp2713
g32
VMedal
p2714
sg39
(dp2715
g41
VCLG Frosty HCS
p2716
sg43
Nssg212
I2078758684
sg35
VPT2M52.5946329S
p2717
sa(dp2718
g38
I313138863
sg32
VWeaponDrop
p2719
sg221
I0
sg44
(lp2720
I1095363701
asg35
VPT2M52.5946329S
p2721
sg224
I0
sg225
VP0DT0H0M0.8333S
p2722
sg39
(dp2723
g41
VEG Lunchbox HCS
p2724
sg43
Nssa(dp2725
g38
I4096745987
sg32
VWeaponDrop
p2726
sg221
I12
sg44
(lp2727
I2758383128
asg35
VPT2M52.5946329S
p2728
sg224
I9
sg225
VP0DT0H0M14.6833S
p2729
sg39
(dp2730
g41
VEG Lunchbox HCS
p2731
sg43
Nssa(dp2732
g38
I723523180
sg32
VWeaponDrop
p2733
sg221
I2
sg44
(lp2734
I2758383128
asg35
VPT2M53.8016256S
p2735
sg224
I2
sg225
VP0DT0H0M5.3333S
p2736
sg39
(dp2737
g41
VCLG Frosty HCS
p2738
sg43
Nssa(dp2739
g38
I669296699
sg39
(dp2740
g41
VCLG Frosty HCS
p2741
sg43
Nssg44
(lp2742
I2758383128
asg32
VWeaponPickup
p2743
sg35
VPT2M53.8016256S
p2744
sa(dp2745
g179
I424645655
sg180
I00
sg181
I00
sg182
(dp2746
g41
VEG Roy HCS
p2747
sg43
Nssg185
(lp2748
I1327094800
asg187
I00
sg188
I01
sg189
I1
sg190
I0
sg191
I1
sg192
(dp2749
Vy
F5.6111636200000001
sVx
F-3.87136579
sVz
F3.8120919999999998
ssg194
(dp2750
Vy
F5.8030140000000001
sVx
F2.1347668199999998
sVz
F5.0514890000000001
ssg196
I00
sg197
(dp2751
g41
VCLG Snake Bite
p2752
sg43
Nssg200
(lp2753
sg202
(lp2754
sg204
I00
sg35
VPT2M55.3723242S
p2755
sg32
VDeath
p2756
sg207
I1
sa(dp2757
g32
VMedal
p2758
sg39
(dp2759
g41
VEG Roy HCS
p2760
sg43
Nssg212
I3148489433
sg35
VPT2M55.3724568S
p2761
sa(dp2762
g38
I313138863
sg32
VWeaponDrop
p2763
sg221
I12
sg44
(lp2764
I1095363701
asg35
VPT2M55.3736156S
p2765
sg224
I6
sg225
VP0DT0H0M8.4000S
p2766
sg39
(dp2767
g41
VCLG Snake Bite
p2768
sg43
Nssa(dp2769
g38
I4096745987
sg32
VWeaponDrop
p2770
sg221
I13
sg44
(lp2771
I2758383128
asg35
VPT2M55.3736156S
p2772
sg224
I9
sg225
VP0DT0H0M31.7667S
p2773
sg39
(dp2774
g41
VCLG Snake Bite
p2775
sg43
Nssa(dp2776
g38
I313138863
sg39
(dp2777
g41
VCLG LethuL HCS
p2778
sg43
Nssg44
(lp2779
I1095363701
asg32
VWeaponPickup
p2780
sg35
VPT2M55.4716144S
p2781
sa(dp2782
g38
I4096745987
sg39
(dp2783
g41
VCLG LethuL HCS
p2784
sg43
Nssg44
(lp2785
I2758383128
asg32
VWeaponPickup
p2786
sg35
VPT2M55.4726152S
p2787
sa(dp2788
g32
VPlayerSpawn
p2789
sg39
(dp2790
g41
VCLG LethuL HCS
p2791
sg43
Nssg35
VPT2M55.4726152S
p2792
sa(dp2793
g38
I313138863
sg39
(dp2794
g41
VEG SuspectorHCS
p2795
sg43
Nssg44
(lp2796
I1095363701
asg32
VWeaponPickup
p2797
sg35
VPT2M57.9275996S
p2798
sa(dp2799
g38
I4096745987
sg39
(dp2800
g41
VEG SuspectorHCS
p2801
sg43
Nssg44
(lp2802
I2758383128
asg32
VWeaponPickup
p2803
sg35
VPT2M57.9275996S
p2804
sa(dp2805
g32
VPlayerSpawn
p2806
sg39
(dp2807
g41
VEG SuspectorHCS
p2808
sg43
Nssg35
VPT2M57.9275996S
p2809
sa(dp2810
g38
I313138863
sg39
(dp2811
g41
VEG Lunchbox HCS
p2812
sg43
Nssg44
(lp2813
I1095363701
asg32
VWeaponPickup
p2814
sg35
VPT3M0.623834S
p2815
sa(dp2816
g38
I4096745987
sg39
(dp2817
g41
VEG Lunchbox HCS
p2818
sg43
Nssg44
(lp2819
I2758383128
asg32
VWeaponPickup
p2820
sg35
VPT3M0.6239003S
p2821
sa(dp2822
g32
VPlayerSpawn
p2823
sg39
(dp2824
g41
VEG Lunchbox HCS
p2825
sg43
Nssg35
VPT3M0.6239003S
p2826
sa(dp2827
g38
I313138863
sg39
(dp2828
g41
VCLG Snake Bite
p2829
sg43
Nssg44
(lp2830
I1095363701
asg32
VWeaponPickup
p2831
sg35
VPT3M3.4405642S
p2832
sa(dp2833
g38
I4096745987
sg39
(dp2834
g41
VCLG Snake Bite
p2835
sg43
Nssg44
(lp2836
I2758383128
asg32
VWeaponPickup
p2837
sg35
VPT3M3.4405642S
p2838
sa(dp2839
g32
VPlayerSpawn
p2840
sg39
(dp2841
g41
VCLG Snake Bite
p2842
sg43
Nssg35
VPT3M3.4405642S
p2843
sa(dp2844
g38
I4096745987
sg32
VWeaponDrop
p2845
sg221
I0
sg44
(lp2846
I2758383128
asg35
VPT3M4.3701927S
p2847
sg224
I0
sg225
VP0DT0H0M5.4500S
p2848
sg39
(dp2849
g41
VEG SuspectorHCS
p2850
sg43
Nssa(dp2851
g38
I4108759423
sg39
(dp2852
g41
VEG SuspectorHCS
p2853
sg43
Nssg44
(lp2854
I2758383128
asg32
VWeaponPickup
p2855
sg35
VPT3M4.3701927S
p2856
sa(dp2857
g38
I4096745987
sg32
VWeaponDrop
p2858
sg221
I10
sg44
(lp2859
I2758383128
asg35
VPT3M4.8574348S
p2860
sg224
I2
sg225
VP0DT0H0M11.4500S
p2861
sg39
(dp2862
g41
VEG Snip3downHCS
p2863
sg43
Nssa(dp2864
g38
I523953283
sg39
(dp2865
g41
VEG Snip3downHCS
p2866
sg43
Nssg44
(lp2867
I2208825748
asg32
VWeaponPickup
p2868
sg35
VPT3M4.8575541S
p2869
sa(dp2870
g32
VMedal
p2871
sg39
(dp2872
g41
VEG Roy HCS
p2873
sg43
Nssg212
I3400287617
sg35
VPT3M9.341539S
p2874
sa(dp2875
g179
I424645655
sg180
I00
sg181
I00
sg182
(dp2876
g41
VEG Roy HCS
p2877
sg43
Nssg185
(lp2878
I1327094800
asg187
I00
sg188
I01
sg189
I1
sg190
I0
sg191
I1
sg192
(dp2879
Vy
F12.448122
sVx
F-5.3823740000000004
sVz
F3.1143736799999999
ssg194
(dp2880
Vy
F10.4023094
sVx
F-2.8110191800000002
sVz
F2.98715186
ssg196
I00
sg197
(dp2881
g41
VCLG Snake Bite
p2882
sg43
Nssg200
(lp2883
sg202
(lp2884
(dp2885
g41
VEG Snip3downHCS
p2886
sg43
Nsa(dp2887
g41
VEG Lunchbox HCS
p2888
sg43
Nsasg204
I00
sg35
VPT3M10.4109076S
p2889
sg32
VDeath
p2890
sg207
I1
sa(dp2891
g38
I313138863
sg32
VWeaponDrop
p2892
sg221
I0
sg44
(lp2893
I1095363701
asg35
VPT3M10.4115187S
p2894
sg224
I0
sg225
VP0DT0H0M0.8500S
p2895
sg39
(dp2896
g41
VCLG Snake Bite
p2897
sg43
Nssa(dp2898
g38
I4096745987
sg32
VWeaponDrop
p2899
sg221
I6
sg44
(lp2900
I2758383128
asg35
VPT3M10.4115187S
p2901
sg224
I2
sg225
VP0DT0H0M6.1000S
p2902
sg39
(dp2903
g41
VCLG Snake Bite
p2904
sg43
Nssa(dp2905
g179
I424645655
sg180
I00
sg181
I00
sg182
(dp2906
g41
VEG Roy HCS
p2907
sg43
Nssg185
(lp2908
I1327094800
asg187
I00
sg188
I01
sg189
I1
sg190
I0
sg191
I1
sg192
(dp2909
Vy
F15.404109
sVx
F8.1858020000000007
sVz
F2.2264721399999998
ssg194
(dp2910
Vy
F14.874287600000001
sVx
F10.4054079
sVz
F0.827253342
ssg196
I00
sg197
(dp2911
g41
VCLG Royal 2
p2912
sg43
Nssg200
(lp2913
sg202
(lp2914
(dp2915
g41
VEG Lunchbox HCS
p2916
sg43
Nsasg204
I01
sg35
VPT3M16.8384773S
p2917
sg32
VDeath
p2918
sg207
I1
sa(dp2919
g32
VMedal
p2920
sg39
(dp2921
g41
VEG Roy HCS
p2922
sg43
Nssg212
I2838259753
sg35
VPT3M16.8384773S
p2923
sa(dp2924
g32
VImpulse
p2925
sg39
(dp2926
g41
VEG Roy HCS
p2927
sg43
Nssg353
I2556889090
sg35
VPT3M16.8384773S
p2928
sa(dp2929
g32
VMedal
p2930
sg39
(dp2931
g41
VEG Roy HCS
p2932
sg43
Nssg212
I3261908037
sg35
VPT3M16.8394776S
p2933
sa(dp2934
g38
I313138863
sg32
VWeaponDrop
p2935
sg221
I0
sg44
(lp2936
I1095363701
asg35
VPT3M16.8404776S
p2937
sg224
I0
sg225
VP0DT0H0M0.7500S
p2938
sg39
(dp2939
g41
VCLG Royal 2
p2940
sg43
Nssa(dp2941
g38
I4096745987
sg32
VWeaponDrop
p2942
sg221
I19
sg44
(lp2943
I2758383128
asg35
VPT3M16.8404776S
p2944
sg224
I11
sg225
VP0DT0H0M32.9833S
p2945
sg39
(dp2946
g41
VCLG Royal 2
p2947
sg43
Nssa(dp2948
g38
I313138863
sg39
(dp2949
g41
VCLG Snake Bite
p2950
sg43
Nssg44
(lp2951
I1095363701
asg32
VWeaponPickup
p2952
sg35
VPT3M18.5104677S
p2953
sa(dp2954
g38
I4096745987
sg39
(dp2955
g41
VCLG Snake Bite
p2956
sg43
Nssg44
(lp2957
I2758383128
asg32
VWeaponPickup
p2958
sg35
VPT3M18.5104677S
p2959
sa(dp2960
g32
VPlayerSpawn
p2961
sg39
(dp2962
g41
VCLG Snake Bite
p2963
sg43
Nssg35
VPT3M18.5104677S
p2964
sa(dp2965
g179
I669296699
sg180
I00
sg181
I00
sg182
(dp2966
g41
VCLG Frosty HCS
p2967
sg43
Nssg185
(lp2968
I2758383128
asg187
I00
sg188
I01
sg189
I1
sg190
I0
sg191
I1
sg192
(dp2969
Vy
F6.3770294200000004
sVx
F2.7726161500000002
sVz
F0.8401322
ssg194
(dp2970
Vy
F4.8753695500000003
sVx
F4.2290130000000001
sVz
F0.92009890000000005
ssg196
I00
sg197
(dp2971
g41
VEG Snip3downHCS
p2972
sg43
Nssg200
(lp2973
sg202
(lp2974
sg204
I01
sg35
VPT3M18.7614652S
p2975
sg32
VDeath
p2976
sg207
I1
sa(dp2977
g32
VMedal
p2978
sg39
(dp2979
g41
VCLG Frosty HCS
p2980
sg43
Nssg212
I1986137636
sg35
VPT3M18.7624656S
p2981
sa(dp2982
g38
I313138863
sg32
VWeaponDrop
p2983
sg221
I19
sg44
(lp2984
I1095363701
asg35
VPT3M18.7634659S
p2985
sg224
I10
sg225
VP0DT0H0M4.0500S
p2986
sg39
(dp2987
g41
VEG Snip3downHCS
p2988
sg43
Nssa(dp2989
g38
I523953283
sg32
VWeaponDrop
p2990
sg221
I11
sg44
(lp2991
I2208825748
asg35
VPT3M18.7634659S
p2992
sg224
I7
sg225
VP0DT0H0M10.5667S
p2993
sg39
(dp2994
g41
VEG Snip3downHCS
p2995
sg43
Nssa(dp2996
g179
I313138863
sg180
I00
sg181
I00
sg182
(dp2997
g41
VEG Lunchbox HCS
p2998
sg43
Nssg185
(lp2999
I1095363701
asg187
I00
sg188
I01
sg189
I1
sg190
I0
sg191
I1
sg192
(dp3000
Vy
F7.7954470000000002
sVx
F-0.67587649999999999
sVz
F-0.7166418
ssg194
(dp3001
Vy
F0.83839845700000004
sVx
F-1.4255709999999999
sVz
F-1.98945785
ssg196
I00
sg197
(dp3002
g41
VCLG Frosty HCS
p3003
sg43
Nssg200
(lp3004
sg202
(lp3005
(dp3006
g41
VEG Snip3downHCS
p3007
sg43
Nsasg204
I00
sg35
VPT3M22.5175976S
p3008
sg32
VDeath
p3009
sg207
I1
sa(dp3010
g38
I669296699
sg32
VWeaponDrop
p3011
sg221
I4
sg44
(lp3012
I2758383128
asg35
VPT3M22.520462S
p3013
sg224
I1
sg225
VP0DT0H0M23.6000S
p3014
sg39
(dp3015
g41
VCLG Frosty HCS
p3016
sg43
Nssa(dp3017
g38
I4096745987
sg32
VWeaponDrop
p3018
sg221
I3
sg44
(lp3019
I2758383128
asg35
VPT3M22.520462S
p3020
sg224
I1
sg225
VP0DT0H0M10.3333S
p3021
sg39
(dp3022
g41
VCLG Frosty HCS
p3023
sg43
Nssa(dp3024
g179
I313138863
sg180
I00
sg181
I00
sg182
(dp3025
g41
VCLG LethuL HCS
p3026
sg43
Nssg185
(lp3027
I1095363701
asg187
I00
sg188
I01
sg189
I1
sg190
I0
sg191
I1
sg192
(dp3028
Vy
F-7.8823514000000001
sVx
F13.881999
sVz
F1.5915226899999999
ssg194
(dp3029
Vy
F-6.9635524699999998
sVx
F11.5736732
sVz
F0.020041853200000001
ssg196
I00
sg197
(dp3030
g41
VEG SuspectorHCS
p3031
sg43
Nssg200
(lp3032
sg202
(lp3033
sg204
I00
sg35
VPT3M23.162462S
p3034
sg32
VDeath
p3035
sg207
I1
sa(dp3036
g38
I4108759423
sg32
VWeaponDrop
p3037
sg221
I12
sg44
(lp3038
I2758383128
asg35
VPT3M23.1704617S
p3039
sg224
I8
sg225
VP0DT0H0M18.7000S
p3040
sg39
(dp3041
g41
VEG SuspectorHCS
p3042
sg43
Nssa(dp3043
g38
I313138863
sg32
VWeaponDrop
p3044
sg221
I0
sg44
(lp3045
I1095363701
asg35
VPT3M23.1704617S
p3046
sg224
I0
sg225
VP0DT0H0M0.9167S
p3047
sg39
(dp3048
g41
VEG SuspectorHCS
p3049
sg43
Nssa(dp3050
g38
I313138863
sg39
(dp3051
g41
VCLG Royal 2
p3052
sg43
Nssg44
(lp3053
I1095363701
asg32
VWeaponPickup
p3054
sg35
VPT3M24.9024605S
p3055
sa(dp3056
g38
I4096745987
sg39
(dp3057
g41
VCLG Royal 2
p3058
sg43
Nssg44
(lp3059
I2758383128
asg32
VWeaponPickup
p3060
sg35
VPT3M24.9024605S
p3061
sa(dp3062
g32
VPlayerSpawn
p3063
sg39
(dp3064
g41
VCLG Royal 2
p3065
sg43
Nssg35
VPT3M24.9024605S
p3066
sa(dp3067
g38
I313138863
sg39
(dp3068
g41
VEG Snip3downHCS
p3069
sg43
Nssg44
(lp3070
I1095363701
asg32
VWeaponPickup
p3071
sg35
VPT3M26.8424619S
p3072
sa(dp3073
g38
I4096745987
sg39
(dp3074
g41
VEG Snip3downHCS
p3075
sg43
Nssg44
(lp3076
I2758383128
asg32
VWeaponPickup
p3077
sg35
VPT3M26.8434622S
p3078
sa(dp3079
g32
VPlayerSpawn
p3080
sg39
(dp3081
g41
VEG Snip3downHCS
p3082
sg43
Nssg35
VPT3M26.8434622S
p3083
sa(dp3084
g179
I4106030681
sg180
I00
sg181
I00
sg182
(dp3085
g41
VCLG Snake Bite
p3086
sg43
Nssg185
(lp3087
sg187
I00
sg188
I01
sg189
I1
sg190
I0
sg191
I1
sg192
(dp3088
Vy
F10.6471806
sVx
F14.200778
sVz
F1.3220866899999999
ssg194
(dp3089
Vy
F11.126228299999999
sVx
F3.9062776600000002
sVz
F2.2876219999999998
ssg196
I00
sg197
(dp3090
g41
VEG Roy HCS
p3091
sg43
Nssg200
(lp3092
sg202
(lp3093
(dp3094
g41
VCLG Royal 2
p3095
sg43
Nsasg204
I00
sg35
VPT3M28.9914614S
p3096
sg32
VDeath
p3097
sg207
I1
sa(dp3098
g38
I313138863
sg32
VWeaponDrop
p3099
sg221
I0
sg44
(lp3100
I1095363701
asg35
VPT3M28.9934615S
p3101
sg224
I0
sg225
VP0DT0H0M0.3667S
p3102
sg39
(dp3103
g41
VEG Roy HCS
p3104
sg43
Nssa(dp3105
g38
I424645655
sg32
VWeaponDrop
p3106
sg221
I55
sg44
(lp3107
I1327094800
asg35
VPT3M28.9934615S
p3108
sg224
I24
sg225
VP0DT0H0M45.9500S
p3109
sg39
(dp3110
g41
VEG Roy HCS
p3111
sg43
Nssa(dp3112
g38
I313138863
sg32
VWeaponDrop
p3113
sg221
I14
sg44
(lp3114
I1095363701
asg35
VPT3M29.5575508S
p3115
sg224
I2
sg225
VP0DT0H0M5.4000S
p3116
sg39
(dp3117
g41
VEG Lunchbox HCS
p3118
sg43
Nssa(dp3119
g38
I669296699
sg39
(dp3120
g41
VEG Lunchbox HCS
p3121
sg43
Nssg44
(lp3122
I2758383128
asg32
VWeaponPickupPad
p3123
sg35
VPT3M29.5575508S
p3124
sa(dp3125
g38
I669296699
sg39
(dp3126
g41
VEG Lunchbox HCS
p3127
sg43
Nssg44
(lp3128
I2758383128
asg32
VWeaponPickup
p3129
sg35
VPT3M29.5575508S
p3130
sa(dp3131
g38
I313138863
sg39
(dp3132
g41
VCLG Frosty HCS
p3133
sg43
Nssg44
(lp3134
I1095363701
asg32
VWeaponPickup
p3135
sg35
VPT3M30.5154618S
p3136
sa(dp3137
g38
I4096745987
sg39
(dp3138
g41
VCLG Frosty HCS
p3139
sg43
Nssg44
(lp3140
I2758383128
asg32
VWeaponPickup
p3141
sg35
VPT3M30.5154618S
p3142
sa(dp3143
g32
VPlayerSpawn
p3144
sg39
(dp3145
g41
VCLG Frosty HCS
p3146
sg43
Nssg35
VPT3M30.5154618S
p3147
sa(dp3148
g38
I313138863
sg39
(dp3149
g41
VEG SuspectorHCS
p3150
sg43
Nssg44
(lp3151
I1095363701
asg32
VWeaponPickup
p3152
sg35
VPT3M31.1584618S
p3153
sa(dp3154
g38
I4096745987
sg39
(dp3155
g41
VEG SuspectorHCS
p3156
sg43
Nssg44
(lp3157
I2758383128
asg32
VWeaponPickup
p3158
sg35
VPT3M31.1652754S
p3159
sa(dp3160
g32
VPlayerSpawn
p3161
sg39
(dp3162
g41
VEG SuspectorHCS
p3163
sg43
Nssg35
VPT3M31.1652754S
p3164
sa(dp3165
g179
I669296699
sg180
I00
sg181
I00
sg182
(dp3166
g41
VEG Lunchbox HCS
p3167
sg43
Nssg185
(lp3168
I2758383128
asg187
I00
sg188
I01
sg189
I1
sg190
I0
sg191
I1
sg192
(dp3169
Vy
F13.0593872
sVx
F-12.294628100000001
sVz
F1.68718576
ssg194
(dp3170
Vy
F12.41413
sVx
F3.0775929999999998
sVz
F2.3041944499999998
ssg196
I00
sg197
(dp3171
g41
VCLG Royal 2
p3172
sg43
Nssg200
(lp3173
sg202
(lp3174
(dp3175
g41
VEG Snip3downHCS
p3176
sg43
Nsasg204
I00
sg35
VPT3M34.9004614S
p3177
sg32
VDeath
p3178
sg207
I1
sa(dp3179
g38
I313138863
sg32
VWeaponDrop
p3180
sg221
I0
sg44
(lp3181
I1095363701
asg35
VPT3M34.9014615S
p3182
sg224
I0
sg225
VP0DT0H0M0.9000S
p3183
sg39
(dp3184
g41
VCLG Royal 2
p3185
sg43
Nssa(dp3186
g38
I4096745987
sg32
VWeaponDrop
p3187
sg221
I6
sg44
(lp3188
I2758383128
asg35
VPT3M34.9014615S
p3189
sg224
I1
sg225
VP0DT0H0M9.0667S
p3190
sg39
(dp3191
g41
VCLG Royal 2
p3192
sg43
Nssa(dp3193
g38
I4096745987
sg32
VWeaponDrop
p3194
sg221
I0
sg44
(lp3195
I2758383128
asg35
VPT3M35.9937044S
p3196
sg224
I0
sg225
VP0DT0H0M8.6833S
p3197
sg39
(dp3198
g41
VEG Snip3downHCS
p3199
sg43
Nssa(dp3200
g38
I424645655
sg39
(dp3201
g41
VEG Snip3downHCS
p3202
sg43
Nssg44
(lp3203
I1327094800
asg32
VWeaponPickup
p3204
sg35
VPT3M35.9937044S
p3205
sa(dp3206
g38
I313138863
sg39
(dp3207
g41
VEG Roy HCS
p3208
sg43
Nssg44
(lp3209
I1095363701
asg32
VWeaponPickup
p3210
sg35
VPT3M37.0000906S
p3211
sa(dp3212
g38
I4096745987
sg39
(dp3213
g41
VEG Roy HCS
p3214
sg43
Nssg44
(lp3215
I2758383128
asg32
VWeaponPickup
p3216
sg35
VPT3M37.0004512S
p3217
sa(dp3218
g32
VPlayerSpawn
p3219
sg39
(dp3220
g41
VEG Roy HCS
p3221
sg43
Nssg35
VPT3M37.0004512S
p3222
sa(dp3223
g179
I4096745987
sg180
I00
sg181
I00
sg182
(dp3224
g41
VEG SuspectorHCS
p3225
sg43
Nssg185
(lp3226
I2758383128
asg187
I00
sg188
I01
sg189
I1
sg190
I0
sg191
I1
sg192
(dp3227
Vy
F16.128782300000001
sVx
F-1.28832126
sVz
F4.2028713199999999
ssg194
(dp3228
Vy
F5.2315100000000001
sVx
F1.3328739999999999
sVz
F4.25941467
ssg196
I00
sg197
(dp3229
g41
VCLG Snake Bite
p3230
sg43
Nssg200
(lp3231
sg202
(lp3232
(dp3233
g41
VEG Snip3downHCS
p3234
sg43
Nsasg204
I01
sg35
VPT3M40.5497812S
p3235
sg32
VDeath
p3236
sg207
I1
sa(dp3237
g32
VMedal
p3238
sg39
(dp3239
g41
VEG SuspectorHCS
p3240
sg43
Nssg212
I3261908037
sg35
VPT3M40.5504285S
p3241
sa(dp3242
g38
I313138863
sg32
VWeaponDrop
p3243
sg221
I19
sg44
(lp3244
I1095363701
asg35
VPT3M40.5514284S
p3245
sg224
I12
sg225
VP0DT0H0M8.4667S
p3246
sg39
(dp3247
g41
VCLG Snake Bite
p3248
sg43
Nssa(dp3249
g38
I4096745987
sg32
VWeaponDrop
p3250
sg221
I11
sg44
(lp3251
I2758383128
asg35
VPT3M40.5514284S
p3252
sg224
I3
sg225
VP0DT0H0M13.4333S
p3253
sg39
(dp3254
g41
VCLG Snake Bite
p3255
sg43
Nssa(dp3256
g38
I313138863
sg39
(dp3257
g41
VCLG Royal 2
p3258
sg43
Nssg44
(lp3259
I1095363701
asg32
VWeaponPickup
p3260
sg35
VPT3M43.0154124S
p3261
sa(dp3262
g38
I4096745987
sg39
(dp3263
g41
VCLG Royal 2
p3264
sg43
Nssg44
(lp3265
I2758383128
asg32
VWeaponPickup
p3266
sg35
VPT3M43.0164136S
p3267
sa(dp3268
g32
VPlayerSpawn
p3269
sg39
(dp3270
g41
VCLG Royal 2
p3271
sg43
Nssg35
VPT3M43.0164136S
p3272
sa(dp3273
g179
I4096745987
sg180
I00
sg181
I00
sg182
(dp3274
g41
VCLG Frosty HCS
p3275
sg43
Nssg185
(lp3276
I2758383128
asg187
I00
sg188
I01
sg189
I1
sg190
I0
sg191
I1
sg192
(dp3277
Vy
F-0.78144574200000005
sVx
F-11.9248142
sVz
F1.8079080000000001
ssg194
(dp3278
Vy
F0.065699099999999996
sVx
F-13.046096800000001
sVz
F2.03707218
ssg196
I00
sg197
(dp3279
g41
VEG Lunchbox HCS
p3280
sg43
Nssg200
(lp3281
sg202
(lp3282
(dp3283
g41
VCLG LethuL HCS
p3284
sg43
Nsasg204
I00
sg35
VPT3M44.711402S
p3285
sg32
VDeath
p3286
sg207
I1
sa(dp3287
g38
I669296699
sg32
VWeaponDrop
p3288
sg221
I5
sg44
(lp3289
I2758383128
asg35
VPT3M44.7187146S
p3290
sg224
I2
sg225
VP0DT0H0M13.9500S
p3291
sg39
(dp3292
g41
VEG Lunchbox HCS
p3293
sg43
Nssa(dp3294
g38
I4096745987
sg32
VWeaponDrop
p3295
sg221
I7
sg44
(lp3296
I2758383128
asg35
VPT3M44.7187146S
p3297
sg224
I5
sg225
VP0DT0H0M24.4833S
p3298
sg39
(dp3299
g41
VEG Lunchbox HCS
p3300
sg43
Nssa(dp3301
g38
I313138863
sg32
VWeaponDrop
p3302
sg221
I0
sg44
(lp3303
I1095363701
asg35
VPT3M46.1065165S
p3304
sg224
I0
sg225
VP0DT0H0M3.2667S
p3305
sg39
(dp3306
g41
VCLG Frosty HCS
p3307
sg43
Nssa(dp3308
g38
I669296699
sg39
(dp3309
g41
VCLG Frosty HCS
p3310
sg43
Nssg44
(lp3311
I2758383128
asg32
VWeaponPickup
p3312
sg35
VPT3M46.1065165S
p3313
sa(dp3314
g38
I313138863
sg39
(dp3315
g41
VCLG Snake Bite
p3316
sg43
Nssg44
(lp3317
I1095363701
asg32
VWeaponPickup
p3318
sg35
VPT3M48.558378S
p3319
sa(dp3320
g38
I4096745987
sg39
(dp3321
g41
VCLG Snake Bite
p3322
sg43
Nssg44
(lp3323
I2758383128
asg32
VWeaponPickup
p3324
sg35
VPT3M48.558378S
p3325
sa(dp3326
g32
VPlayerSpawn
p3327
sg39
(dp3328
g41
VCLG Snake Bite
p3329
sg43
Nssg35
VPT3M48.558378S
p3330
sa(dp3331
g179
I4096745987
sg180
I00
sg181
I00
sg182
(dp3332
g41
VEG Roy HCS
p3333
sg43
Nssg185
(lp3334
I2758383128
asg187
I00
sg188
I01
sg189
I1
sg190
I0
sg191
I1
sg192
(dp3335
Vy
F-1.58386457
sVx
F-20.501911199999999
sVz
F2.1511211399999999
ssg194
(dp3336
Vy
F2.5743815900000002
sVx
F-13.522314099999999
sVz
F2.5254063599999999
ssg196
I00
sg197
(dp3337
g41
VCLG Frosty HCS
p3338
sg43
Nssg200
(lp3339
sg202
(lp3340
sg204
I00
sg35
VPT3M49.0043744S
p3341
sg32
VDeath
p3342
sg207
I1
sa(dp3343
g38
I669296699
sg32
VWeaponDrop
p3344
sg221
I0
sg44
(lp3345
I2758383128
asg35
VPT3M49.0126554S
p3346
sg224
I0
sg225
VP0DT0H0M1.7000S
p3347
sg39
(dp3348
g41
VCLG Frosty HCS
p3349
sg43
Nssa(dp3350
g38
I4096745987
sg32
VWeaponDrop
p3351
sg221
I11
sg44
(lp3352
I2758383128
asg35
VPT3M49.0126554S
p3353
sg224
I5
sg225
VP0DT0H0M13.4000S
p3354
sg39
(dp3355
g41
VCLG Frosty HCS
p3356
sg43
Nssa(dp3357
g38
I4096745987
sg32
VWeaponDrop
p3358
sg221
I0
sg44
(lp3359
I2758383128
asg35
VPT3M49.0126554S
p3360
sg224
I0
sg225
VP0DT0S
p3361
sg39
(dp3362
g41
VCLG Frosty HCS
p3363
sg43
Nssa(dp3364
g179
I4096745987
sg180
I00
sg181
I00
sg182
(dp3365
g41
VCLG LethuL HCS
p3366
sg43
Nssg185
(lp3367
I2758383128
asg187
I00
sg188
I01
sg189
I1
sg190
I0
sg191
I1
sg192
(dp3368
Vy
F-1.40753281
sVx
F-15.535997399999999
sVz
F1.6144400000000001
ssg194
(dp3369
Vy
F-1.58386457
sVx
F-20.501911199999999
sVz
F2.1511211399999999
ssg196
I00
sg197
(dp3370
g41
VEG Roy HCS
p3371
sg43
Nssg200
(lp3372
sg202
(lp3373
(dp3374
g41
VCLG Frosty HCS
p3375
sg43
Nsasg204
I01
sg35
VPT3M49.0133749S
p3376
sg32
VDeath
p3377
sg207
I1
sa(dp3378
g32
VMedal
p3379
sg39
(dp3380
g41
VCLG LethuL HCS
p3381
sg43
Nssg212
I3261908037
sg35
VPT3M49.015374S
p3382
sa(dp3383
g38
I313138863
sg32
VWeaponDrop
p3384
sg221
I0
sg44
(lp3385
I1095363701
asg35
VPT3M49.015374S
p3386
sg224
I0
sg225
VP0DT0H0M0.3833S
p3387
sg39
(dp3388
g41
VEG Roy HCS
p3389
sg43
Nssa(dp3390
g38
I4096745987
sg32
VWeaponDrop
p3391
sg221
I11
sg44
(lp3392
I2758383128
asg35
VPT3M49.015374S
p3393
sg224
I7
sg225
VP0DT0H0M11.5167S
p3394
sg39
(dp3395
g41
VEG Roy HCS
p3396
sg43
Nssa(dp3397
g38
I2244200496
sg39
(dp3398
g41
VCLG LethuL HCS
p3399
sg43
Nssg44
(lp3400
I2758383128
asg32
VWeaponPickup
p3401
sg35
VPT3M51.0213628S
p3402
sa(dp3403
g32
VImpulse
p3404
sg39
(dp3405
g41
VCLG LethuL HCS
p3406
sg43
Nssg353
I4191318012
sg35
VPT3M51.0223627S
p3407
sa(dp3408
g32
VImpulse
p3409
sg39
(dp3410
g41
VCLG LethuL HCS
p3411
sg43
Nssg353
I1039658009
sg35
VPT3M51.0223627S
p3412
sa(dp3413
g38
I2244200496
sg32
VWeaponDrop
p3414
sg221
I0
sg44
(lp3415
I2758383128
asg35
VPT3M52.0226272S
p3416
sg224
I0
sg225
VP0DT0H0M0.8500S
p3417
sg39
(dp3418
g41
VCLG LethuL HCS
p3419
sg43
Nssa(dp3420
g32
VImpulse
p3421
sg39
(dp3422
g41
VCLG LethuL HCS
p3423
sg43
Nssg353
I3435524855
sg35
VPT3M52.0233589S
p3424
sa(dp3425
g38
I313138863
sg39
(dp3426
g41
VEG Lunchbox HCS
p3427
sg43
Nssg44
(lp3428
I1095363701
asg32
VWeaponPickup
p3429
sg35
VPT3M52.7243597S
p3430
sa(dp3431
g38
I4096745987
sg39
(dp3432
g41
VEG Lunchbox HCS
p3433
sg43
Nssg44
(lp3434
I2758383128
asg32
VWeaponPickup
p3435
sg35
VPT3M52.7243597S
p3436
sa(dp3437
g32
VPlayerSpawn
p3438
sg39
(dp3439
g41
VEG Lunchbox HCS
p3440
sg43
Nssg35
VPT3M52.7243597S
p3441
sa(dp3442
g38
I313138863
sg32
VWeaponDrop
p3443
sg221
I40
sg44
(lp3444
I1095363701
asg35
VPT3M54.2623588S
p3445
sg224
I24
sg225
VP0DT0H0M15.4833S
p3446
sg39
(dp3447
g41
VCLG LethuL HCS
p3448
sg43
Nssa(dp3449
g38
I669296699
sg39
(dp3450
g41
VCLG LethuL HCS
p3451
sg43
Nssg44
(lp3452
I2758383128
asg32
VWeaponPickup
p3453
sg35
VPT3M54.263359S
p3454
sa(dp3455
g38
I313138863
sg39
(dp3456
g41
VCLG Frosty HCS
p3457
sg43
Nssg44
(lp3458
I1095363701
asg32
VWeaponPickup
p3459
sg35
VPT3M57.0233591S
p3460
sa(dp3461
g38
I4096745987
sg39
(dp3462
g41
VCLG Frosty HCS
p3463
sg43
Nssg44
(lp3464
I2758383128
asg32
VWeaponPickup
p3465
sg35
VPT3M57.0233591S
p3466
sa(dp3467
g32
VPlayerSpawn
p3468
sg39
(dp3469
g41
VCLG Frosty HCS
p3470
sg43
Nssg35
VPT3M57.0233591S
p3471
sa(dp3472
g38
I313138863
sg39
(dp3473
g41
VEG Roy HCS
p3474
sg43
Nssg44
(lp3475
I1095363701
asg32
VWeaponPickup
p3476
sg35
VPT3M57.0463595S
p3477
sa(dp3478
g38
I4096745987
sg39
(dp3479
g41
VEG Roy HCS
p3480
sg43
Nssg44
(lp3481
I2758383128
asg32
VWeaponPickup
p3482
sg35
VPT3M57.0525928S
p3483
sa(dp3484
g32
VPlayerSpawn
p3485
sg39
(dp3486
g41
VEG Roy HCS
p3487
sg43
Nssg35
VPT3M57.0526593S
p3488
sa(dp3489
g38
I4096745987
sg32
VWeaponDrop
p3490
sg221
I0
sg44
(lp3491
I2758383128
asg35
VPT3M57.308136S
p3492
sg224
I0
sg225
VP0DT0H0M3.8333S
p3493
sg39
(dp3494
g41
VEG Lunchbox HCS
p3495
sg43
Nssa(dp3496
g38
I523953283
sg39
(dp3497
g41
VEG Lunchbox HCS
p3498
sg43
Nssg44
(lp3499
I2208825748
asg32
VWeaponPickup
p3500
sg35
VPT3M57.3083583S
p3501
sa(dp3502
g179
I424645655
sg180
I00
sg181
I00
sg182
(dp3503
g41
VEG Snip3downHCS
p3504
sg43
Nssg185
(lp3505
I1327094800
asg187
I00
sg188
I01
sg189
I1
sg190
I0
sg191
I1
sg192
(dp3506
Vy
F9.5675749999999997
sVx
F7.0347347300000003
sVz
F0.87541103399999998
ssg194
(dp3507
Vy
F4.8870630000000004
sVx
F8.8648450000000008
sVz
F0.20112353599999999
ssg196
I00
sg197
(dp3508
g41
VCLG Snake Bite
p3509
sg43
Nssg200
(lp3510
sg202
(lp3511
sg204
I01
sg35
VPT3M58.2193597S
p3512
sg32
VDeath
p3513
sg207
I1
sa(dp3514
g32
VMedal
p3515
sg39
(dp3516
g41
VEG Snip3downHCS
p3517
sg43
Nssg212
I2782465081
sg35
VPT3M58.2203612S
p3518
sa(dp3519
g32
VMedal
p3520
sg39
(dp3521
g41
VEG Snip3downHCS
p3522
sg43
Nssg212
I3261908037
sg35
VPT3M58.2283585S
p3523
sa(dp3524
g38
I313138863
sg32
VWeaponDrop
p3525
sg221
I0
sg44
(lp3526
I1095363701
asg35
VPT3M58.2283585S
p3527
sg224
I0
sg225
VP0DT0H0M0.7333S
p3528
sg39
(dp3529
g41
VCLG Snake Bite
p3530
sg43
Nssa(dp3531
g38
I4096745987
sg32
VWeaponDrop
p3532
sg221
I9
sg44
(lp3533
I2758383128
asg35
VPT3M58.2283585S
p3534
sg224
I5
sg225
VP0DT0H0M8.9333S
p3535
sg39
(dp3536
g41
VCLG Snake Bite
p3537
sg43
Nssa(dp3538
g179
I4096745987
sg180
I00
sg181
I00
sg182
(dp3539
g41
VCLG Royal 2
p3540
sg43
Nssg185
(lp3541
I2758383128
asg187
I00
sg188
I01
sg189
I1
sg190
I0
sg191
I1
sg192
(dp3542
Vy
F5.2644672400000001
sVx
F14.9603348
sVz
F1.6226092599999999
ssg194
(dp3543
Vy
F9.5675749999999997
sVx
F7.0347347300000003
sVz
F0.87541103399999998
ssg196
I00
sg197
(dp3544
g41
VEG Snip3downHCS
p3545
sg43
Nssg200
(lp3546
sg202
(lp3547
(dp3548
g41
VCLG Snake Bite
p3549
sg43
Nsasg204
I01
sg35
VPT3M58.2293597S
p3550
sg32
VDeath
p3551
sg207
I1
sa(dp3552
g32
VMedal
p3553
sg39
(dp3554
g41
VCLG Royal 2
p3555
sg43
Nssg212
I3261908037
sg35
VPT3M58.2303593S
p3556
sa(dp3557
g38
I313138863
sg32
VWeaponDrop
p3558
sg221
I11
sg44
(lp3559
I1095363701
asg35
VPT3M58.2303593S
p3560
sg224
I9
sg225
VP0DT0H0M5.8333S
p3561
sg39
(dp3562
g41
VEG Snip3downHCS
p3563
sg43
Nssa(dp3564
g38
I424645655
sg32
VWeaponDrop
p3565
sg221
I28
sg44
(lp3566
I1327094800
asg35
VPT3M58.2303593S
p3567
sg224
I21
sg225
VP0DT0H0M16.8000S
p3568
sg39
(dp3569
g41
VEG Snip3downHCS
p3570
sg43
Nssa(dp3571
g179
I4096745987
sg180
I00
sg181
I00
sg182
(dp3572
g41
VEG SuspectorHCS
p3573
sg43
Nssg185
(lp3574
I2758383128
asg187
I00
sg188
I01
sg189
I1
sg190
I0
sg191
I1
sg192
(dp3575
Vy
F3.8087456199999998
sVx
F2.1350526799999998
sVz
F3.7323107700000002
ssg194
(dp3576
Vy
F1.03758621
sVx
F-10.975275
sVz
F2.2886579999999999
ssg196
I00
sg197
(dp3577
g41
VCLG LethuL HCS
p3578
sg43
Nssg200
(lp3579
sg202
(lp3580
sg204
I00
sg35
VPT4M0.7801938S
p3581
sg32
VDeath
p3582
sg207
I1
sa(dp3583
g32
VMedal
p3584
sg39
(dp3585
g41
VEG SuspectorHCS
p3586
sg43
Nssg212
I164204247
sg35
VPT4M0.7803587S
p3587
sa(dp3588
g38
I669296699
sg32
VWeaponDrop
p3589
sg221
I1
sg44
(lp3590
I2758383128
asg35
VPT4M0.7813589S
p3591
sg224
I0
sg225
VP0DT0H0M5.0500S
p3592
sg39
(dp3593
g41
VCLG LethuL HCS
p3594
sg43
Nssa(dp3595
g38
I4096745987
sg32
VWeaponDrop
p3596
sg221
I14
sg44
(lp3597
I2758383128
asg35
VPT4M0.7813589S
p3598
sg224
I9
sg225
VP0DT0H0M43.6333S
p3599
sg39
(dp3600
g41
VCLG LethuL HCS
p3601
sg43
Nssa(dp3602
g179
I4096745987
sg180
I00
sg181
I00
sg182
(dp3603
g41
VCLG Frosty HCS
p3604
sg43
Nssg185
(lp3605
I2758383128
asg187
I00
sg188
I01
sg189
I1
sg190
I0
sg191
I1
sg192
(dp3606
Vy
F-11.173496200000001
sVx
F2.8726029999999998
sVz
F3.4009299999999998
ssg194
(dp3607
Vy
F4.61622238
sVx
F2.5919885599999999
sVz
F3.813034
ssg196
I00
sg197
(dp3608
g41
VEG SuspectorHCS
p3609
sg43
Nssg200
(lp3610
sg202
(lp3611
sg204
I01
sg35
VPT4M1.3353591S
p3612
sg32
VDeath
p3613
sg207
I1
sa(dp3614
g32
VImpulse
p3615
sg39
(dp3616
g41
VCLG Frosty HCS
p3617
sg43
Nssg353
I3174430457
sg35
VPT4M1.3373584S
p3618
sa(dp3619
g32
VMedal
p3620
sg39
(dp3621
g41
VCLG Frosty HCS
p3622
sg43
Nssg212
I3653057799
sg35
VPT4M1.3383588S
p3623
sa(dp3624
g38
I4096745987
sg32
VWeaponDrop
p3625
sg221
I17
sg44
(lp3626
I2758383128
asg35
VPT4M1.344829S
p3627
sg224
I9
sg225
VP0DT0H0M27.3167S
p3628
sg39
(dp3629
g41
VEG SuspectorHCS
p3630
sg43
Nssa(dp3631
g38
I313138863
sg32
VWeaponDrop
p3632
sg221
I0
sg44
(lp3633
I1095363701
asg35
VPT4M1.3453593S
p3634
sg224
I0
sg225
VP0DT0H0M2.7500S
p3635
sg39
(dp3636
g41
VEG SuspectorHCS
p3637
sg43
Nssa(dp3638
g38
I313138863
sg32
VWeaponDrop
p3639
sg221
I0
sg44
(lp3640
I1095363701
asg35
VPT4M4.2874167S
p3641
sg224
I0
sg225
VP0DT0H0M2.0667S
p3642
sg39
(dp3643
g41
VEG Roy HCS
p3644
sg43
Nssa(dp3645
g38
I669296699
sg39
(dp3646
g41
VEG Roy HCS
p3647
sg43
Nssg44
(lp3648
I2758383128
asg32
VWeaponPickup
p3649
sg35
VPT4M4.2874837S
p3650
sa(dp3651
g38
I313138863
sg39
(dp3652
g41
VCLG Snake Bite
p3653
sg43
Nssg44
(lp3654
I1095363701
asg32
VWeaponPickup
p3655
sg35
VPT4M6.2393597S
p3656
sa(dp3657
g38
I4096745987
sg39
(dp3658
g41
VCLG Snake Bite
p3659
sg43
Nssg44
(lp3660
I2758383128
asg32
VWeaponPickup
p3661
sg35
VPT4M6.2393597S
p3662
sa(dp3663
g32
VPlayerSpawn
p3664
sg39
(dp3665
g41
VCLG Snake Bite
p3666
sg43
Nssg35
VPT4M6.2393597S
p3667
sa(dp3668
g38
I313138863
sg39
(dp3669
g41
VEG Snip3downHCS
p3670
sg43
Nssg44
(lp3671
I1095363701
asg32
VWeaponPickup
p3672
sg35
VPT4M6.2893598S
p3673
sa(dp3674
g38
I4096745987
sg39
(dp3675
g41
VEG Snip3downHCS
p3676
sg43
Nssg44
(lp3677
I2758383128
asg32
VWeaponPickup
p3678
sg35
VPT4M6.2893598S
p3679
sa(dp3680
g32
VPlayerSpawn
p3681
sg39
(dp3682
g41
VEG Snip3downHCS
p3683
sg43
Nssg35
VPT4M6.2893598S
p3684
sa(dp3685
g179
I4096745987
sg180
I00
sg181
I00
sg182
(dp3686
g41
VCLG Frosty HCS
p3687
sg43
Nssg185
(lp3688
I2758383128
asg187
I00
sg188
I01
sg189
I1
sg190
I0
sg191
I1
sg192
(dp3689
Vy
F-5.5995082900000002
sVx
F-15.5821085
sVz
F1.61465645
ssg194
(dp3690
Vy
F-1.73448563
sVx
F-12.9434042
sVz
F1.61678338
ssg196
I00
sg197
(dp3691
g41
VEG Roy HCS
p3692
sg43
Nssg200
(lp3693
sg202
(lp3694
sg204
I00
sg35
VPT4M7.9393559S
p3695
sg32
VDeath
p3696
sg207
I1
sa(dp3697
g38
I669296699
sg32
VWeaponDrop
p3698
sg221
I0
sg44
(lp3699
I2758383128
asg35
VPT4M7.9413552S
p3700
sg224
I0
sg225
VP0DT0H0M3.6500S
p3701
sg39
(dp3702
g41
VEG Roy HCS
p3703
sg43
Nssa(dp3704
g38
I4096745987
sg32
VWeaponDrop
p3705
sg221
I0
sg44
(lp3706
I2758383128
asg35
VPT4M7.9413552S
p3707
sg224
I0
sg225
VP0DT0H0M5.1833S
p3708
sg39
(dp3709
g41
VEG Roy HCS
p3710
sg43
Nssa(dp3711
g38
I313138863
sg39
(dp3712
g41
VCLG LethuL HCS
p3713
sg43
Nssg44
(lp3714
I1095363701
asg32
VWeaponPickup
p3715
sg35
VPT4M8.7818425S
p3716
sa(dp3717
g38
I4096745987
sg39
(dp3718
g41
VCLG LethuL HCS
p3719
sg43
Nssg44
(lp3720
I2758383128
asg32
VWeaponPickup
p3721
sg35
VPT4M8.7823509S
p3722
sa(dp3723
g32
VPlayerSpawn
p3724
sg39
(dp3725
g41
VCLG LethuL HCS
p3726
sg43
Nssg35
VPT4M8.7823509S
p3727
sa(dp3728
g38
I313138863
sg39
(dp3729
g41
VEG SuspectorHCS
p3730
sg43
Nssg44
(lp3731
I1095363701
asg32
VWeaponPickup
p3732
sg35
VPT4M9.3713469S
p3733
sa(dp3734
g38
I4096745987
sg39
(dp3735
g41
VEG SuspectorHCS
p3736
sg43
Nssg44
(lp3737
I2758383128
asg32
VWeaponPickup
p3738
sg35
VPT4M9.3713469S
p3739
sa(dp3740
g32
VPlayerSpawn
p3741
sg39
(dp3742
g41
VEG SuspectorHCS
p3743
sg43
Nssg35
VPT4M9.3713469S
p3744
sa(dp3745
g38
I313138863
sg32
VWeaponDrop
p3746
sg221
I0
sg44
(lp3747
I1095363701
asg35
VPT4M9.8143423S
p3748
sg224
I0
sg225
VP0DT0H0M1.9333S
p3749
sg39
(dp3750
g41
VCLG Frosty HCS
p3751
sg43
Nssa(dp3752
g38
I669296699
sg39
(dp3753
g41
VCLG Frosty HCS
p3754
sg43
Nssg44
(lp3755
I2758383128
asg32
VWeaponPickup
p3756
sg35
VPT4M9.8143423S
p3757
sa(dp3758
g179
I4096745987
sg180
I00
sg181
I00
sg182
(dp3759
g41
VEG SuspectorHCS
p3760
sg43
Nssg185
(lp3761
I2758383128
asg187
I00
sg188
I01
sg189
I1
sg190
I0
sg191
I1
sg192
(dp3762
Vy
F1.62219834
sVx
F-15.3373528
sVz
F1.61465657
ssg194
(dp3763
Vy
F0.12903337200000001
sVx
F-11.937596299999999
sVz
F1.8051068800000001
ssg196
I00
sg197
(dp3764
g41
VCLG Frosty HCS
p3765
sg43
Nssg200
(lp3766
sg202
(lp3767
sg204
I01
sg35
VPT4M13.358321S
p3768
sg32
VDeath
p3769
sg207
I1
sa(dp3770
g32
VMedal
p3771
sg39
(dp3772
g41
VEG SuspectorHCS
p3773
sg43
Nssg212
I3261908037
sg35
VPT4M13.3664234S
p3774
sa(dp3775
g38
I669296699
sg32
VWeaponDrop
p3776
sg221
I3
sg44
(lp3777
I2758383128
asg35
VPT4M13.3665564S
p3778
sg224
I0
sg225
VP0DT0H0M3.6000S
p3779
sg39
(dp3780
g41
VCLG Frosty HCS
p3781
sg43
Nssa(dp3782
g38
I4096745987
sg32
VWeaponDrop
p3783
sg221
I10
sg44
(lp3784
I2758383128
asg35
VPT4M13.3665564S
p3785
sg224
I7
sg225
VP0DT0H0M10.7333S
p3786
sg39
(dp3787
g41
VCLG Frosty HCS
p3788
sg43
Nssa(dp3789
g32
VMedal
p3790
sg39
(dp3791
g41
VEG Lunchbox HCS
p3792
sg43
Nssg212
I2380717523
sg35
VPT4M14.9233096S
p3793
sa(dp3794
g32
VImpulse
p3795
sg39
(dp3796
g41
VEG Lunchbox HCS
p3797
sg43
Nssg353
I1063951891
sg35
VPT4M14.9233096S
p3798
sa(dp3799
g179
I313138863
sg180
I00
sg181
I00
sg182
(dp3800
g41
VEG Snip3downHCS
p3801
sg43
Nssg185
(lp3802
I1095363701
asg187
I00
sg188
I01
sg189
I1
sg190
I0
sg191
I1
sg192
(dp3803
Vy
F13.671049999999999
sVx
F0.61003629999999998
sVz
F4.96132565
ssg194
(dp3804
Vy
F12.5294285
sVx
F5.1908984199999999
sVz
F2.8959267099999999
ssg196
I00
sg197
(dp3805
g41
VCLG Royal 2
p3806
sg43
Nssg200
(lp3807
sg202
(lp3808
sg204
I00
sg35
VPT4M15.1323087S
p3809
sg32
VDeath
p3810
sg207
I1
sa(dp3811
g38
I313138863
sg32
VWeaponDrop
p3812
sg221
I0
sg44
(lp3813
I1095363701
asg35
VPT4M15.1343092S
p3814
sg224
I0
sg225
VP0DT0H0M2.1333S
p3815
sg39
(dp3816
g41
VCLG Royal 2
p3817
sg43
Nssa(dp3818
g38
I4096745987
sg32
VWeaponDrop
p3819
sg221
I19
sg44
(lp3820
I2758383128
asg35
VPT4M15.1343092S
p3821
sg224
I12
sg225
VP0DT0H0M29.7333S
p3822
sg39
(dp3823
g41
VCLG Royal 2
p3824
sg43
Nssa(dp3825
g38
I313138863
sg39
(dp3826
g41
VEG Roy HCS
p3827
sg43
Nssg44
(lp3828
I1095363701
asg32
VWeaponPickup
p3829
sg35
VPT4M16.2193034S
p3830
sa(dp3831
g38
I4096745987
sg39
(dp3832
g41
VEG Roy HCS
p3833
sg43
Nssg44
(lp3834
I2758383128
asg32
VWeaponPickup
p3835
sg35
VPT4M16.2193034S
p3836
sa(dp3837
g32
VPlayerSpawn
p3838
sg39
(dp3839
g41
VEG Roy HCS
p3840
sg43
Nssg35
VPT4M16.2193034S
p3841
sa(dp3842
g38
I313138863
sg32
VWeaponDrop
p3843
sg221
I0
sg44
(lp3844
I1095363701
asg35
VPT4M16.3083018S
p3845
sg224
I0
sg225
VP0DT0H0M0.9167S
p3846
sg39
(dp3847
g41
VEG Lunchbox HCS
p3848
sg43
Nssa(dp3849
g38
I669296699
sg39
(dp3850
g41
VEG Lunchbox HCS
p3851
sg43
Nssg44
(lp3852
I2758383128
asg32
VWeaponPickup
p3853
sg35
VPT4M16.3093025S
p3854
sa(dp3855
g38
I313138863
sg32
VWeaponDrop
p3856
sg221
I0
sg44
(lp3857
I1095363701
asg35
VPT4M20.7192728S
p3858
sg224
I0
sg225
VP0DT0H0M3.3667S
p3859
sg39
(dp3860
g41
VCLG LethuL HCS
p3861
sg43
Nssa(dp3862
g38
I723523180
sg39
(dp3863
g41
VCLG LethuL HCS
p3864
sg43
Nssg44
(lp3865
I2758383128
asg32
VWeaponPickupPad
p3866
sg35
VPT4M20.7192728S
p3867
sa(dp3868
g38
I723523180
sg39
(dp3869
g41
VCLG LethuL HCS
p3870
sg43
Nssg44
(lp3871
I2758383128
asg32
VWeaponPickup
p3872
sg35
VPT4M20.7192728S
p3873
sa(dp3874
g38
I313138863
sg39
(dp3875
g41
VCLG Frosty HCS
p3876
sg43
Nssg44
(lp3877
I1095363701
asg32
VWeaponPickup
p3878
sg35
VPT4M21.6202685S
p3879
sa(dp3880
g38
I4096745987
sg39
(dp3881
g41
VCLG Frosty HCS
p3882
sg43
Nssg44
(lp3883
I2758383128
asg32
VWeaponPickup
p3884
sg35
VPT4M21.6202685S
p3885
sa(dp3886
g32
VPlayerSpawn
p3887
sg39
(dp3888
g41
VCLG Frosty HCS
p3889
sg43
Nssg35
VPT4M21.6202685S
p3890
sa(dp3891
g38
I313138863
sg39
(dp3892
g41
VCLG Royal 2
p3893
sg43
Nssg44
(lp3894
I1095363701
asg32
VWeaponPickup
p3895
sg35
VPT4M23.2032583S
p3896
sa(dp3897
g38
I4096745987
sg39
(dp3898
g41
VCLG Royal 2
p3899
sg43
Nssg44
(lp3900
I2758383128
asg32
VWeaponPickup
p3901
sg35
VPT4M23.2042584S
p3902
sa(dp3903
g32
VPlayerSpawn
p3904
sg39
(dp3905
g41
VCLG Royal 2
p3906
sg43
Nssg35
VPT4M23.2042584S
p3907
sa(dp3908
g38
I2244200496
sg39
(dp3909
g41
VEG Snip3downHCS
p3910
sg43
Nssg44
(lp3911
I2758383128
asg32
VWeaponPickup
p3912
sg35
VPT4M23.545255S
p3913
sa(dp3914
g32
VImpulse
p3915
sg39
(dp3916
g41
VEG Snip3downHCS
p3917
sg43
Nssg353
I4191318012
sg35
VPT4M23.5462558S
p3918
sa(dp3919
g32
VImpulse
p3920
sg39
(dp3921
g41
VEG Snip3downHCS
p3922
sg43
Nssg353
I1039658009
sg35
VPT4M23.5462558S
p3923
sa(dp3924
g179
I4096745987
sg180
I00
sg181
I00
sg182
(dp3925
g41
VCLG Frosty HCS
p3926
sg43
Nssg185
(lp3927
I2758383128
asg187
I00
sg188
I01
sg189
I1
sg190
I0
sg191
I1
sg192
(dp3928
Vy
F-6.01458168
sVx
F14.885575299999999
sVz
F2.1006212199999998
ssg194
(dp3929
Vy
F4.6787924800000003
sVx
F14.0665569
sVz
F1.62383831
ssg196
I00
sg197
(dp3930
g41
VEG Snip3downHCS
p3931
sg43
Nssg200
(lp3932
sg202
(lp3933
sg204
I01
sg35
VPT4M25.4407401S
p3934
sg32
VDeath
p3935
sg207
I1
sa(dp3936
g32
VMedal
p3937
sg39
(dp3938
g41
VCLG Frosty HCS
p3939
sg43
Nssg212
I2028249938
sg35
VPT4M25.4422562S
p3940
sa(dp3941
g32
VImpulse
p3942
sg39
(dp3943
g41
VCLG Frosty HCS
p3944
sg43
Nssg353
I2299858338
sg35
VPT4M25.4422562S
p3945
sa(dp3946
g32
VMedal
p3947
sg39
(dp3948
g41
VCLG Frosty HCS
p3949
sg43
Nssg212
I3261908037
sg35
VPT4M25.4432562S
p3950
sa(dp3951
g38
I313138863
sg32
VWeaponDrop
p3952
sg221
I26
sg44
(lp3953
I1095363701
asg35
VPT4M25.4432562S
p3954
sg224
I15
sg225
VP0DT0H0M7.9833S
p3955
sg39
(dp3956
g41
VEG Snip3downHCS
p3957
sg43
Nssa(dp3958
g38
I4096745987
sg32
VWeaponDrop
p3959
sg221
I0
sg44
(lp3960
I2758383128
asg35
VPT4M25.4432562S
p3961
sg224
I0
sg225
VP0DT0H0M9.1000S
p3962
sg39
(dp3963
g41
VEG Snip3downHCS
p3964
sg43
Nssa(dp3965
g38
I2244200496
sg32
VWeaponDrop
p3966
sg221
I3
sg44
(lp3967
I2758383128
asg35
VPT4M25.4432562S
p3968
sg224
I2
sg225
VP0DT0H0M1.7167S
p3969
sg39
(dp3970
g41
VEG Snip3downHCS
p3971
sg43
Nssa(dp3972
g32
VImpulse
p3973
sg39
(dp3974
g41
VEG Snip3downHCS
p3975
sg43
Nssg353
I3435524855
sg35
VPT4M25.4522559S
p3976
sa(dp3977
g179
I669296699
sg180
I00
sg181
I00
sg182
(dp3978
g41
VEG Lunchbox HCS
p3979
sg43
Nssg185
(lp3980
I2758383128
asg187
I00
sg188
I01
sg189
I1
sg190
I0
sg191
I1
sg192
(dp3981
Vy
F-8.6077300000000001
sVx
F-11.4810467
sVz
F2.3540800000000002
ssg194
(dp3982
Vy
F3.8150675299999999
sVx
F4.3577437400000001
sVz
F0.20257091499999999
ssg196
I00
sg197
(dp3983
g41
VCLG Snake Bite
p3984
sg43
Nssg200
(lp3985
sg202
(lp3986
(dp3987
g41
VEG Roy HCS
p3988
sg43
Nsasg204
I01
sg35
VPT4M25.7372566S
p3989
sg32
VDeath
p3990
sg207
I1
sa(dp3991
g32
VMedal
p3992
sg39
(dp3993
g41
VEG Lunchbox HCS
p3994
sg43
Nssg212
I848240062
sg35
VPT4M25.7392565S
p3995
sa(dp3996
g38
I313138863
sg32
VWeaponDrop
p3997
sg221
I0
sg44
(lp3998
I1095363701
asg35
VPT4M25.7392565S
p3999
sg224
I0
sg225
VP0DT0H0M0.7333S
p4000
sg39
(dp4001
g41
VCLG Snake Bite
p4002
sg43
Nssa(dp4003
g38
I4096745987
sg32
VWeaponDrop
p4004
sg221
I9
sg44
(lp4005
I2758383128
asg35
VPT4M25.7392565S
p4006
sg224
I5
sg225
VP0DT0H0M18.4333S
p4007
sg39
(dp4008
g41
VCLG Snake Bite
p4009
sg43
Nssa(dp4010
g38
I4096745987
sg32
VWeaponDrop
p4011
sg221
I11
sg44
(lp4012
I2758383128
asg35
VPT4M28.6178262S
p4013
sg224
I5
sg225
VP0DT0H0M13.8000S
p4014
sg39
(dp4015
g41
VEG SuspectorHCS
p4016
sg43
Nssa(dp4017
g38
I523953283
sg39
(dp4018
g41
VEG SuspectorHCS
p4019
sg43
Nssg44
(lp4020
I2208825748
asg32
VWeaponPickup
p4021
sg35
VPT4M28.6178262S
p4022
sa(dp4023
g38
I313138863
sg39
(dp4024
g41
VEG Snip3downHCS
p4025
sg43
Nssg44
(lp4026
I1095363701
asg32
VWeaponPickup
p4027
sg35
VPT4M33.4622573S
p4028
sa(dp4029
g38
I4096745987
sg39
(dp4030
g41
VEG Snip3downHCS
p4031
sg43
Nssg44
(lp4032
I2758383128
asg32
VWeaponPickup
p4033
sg35
VPT4M33.4622573S
p4034
sa(dp4035
g32
VPlayerSpawn
p4036
sg39
(dp4037
g41
VEG Snip3downHCS
p4038
sg43
Nssg35
VPT4M33.4622573S
p4039
sa(dp4040
g38
I313138863
sg39
(dp4041
g41
VCLG Snake Bite
p4042
sg43
Nssg44
(lp4043
I1095363701
asg32
VWeaponPickup
p4044
sg35
VPT4M33.7773949S
p4045
sa(dp4046
g38
I4096745987
sg39
(dp4047
g41
VCLG Snake Bite
p4048
sg43
Nssg44
(lp4049
I2758383128
asg32
VWeaponPickup
p4050
sg35
VPT4M33.7782575S
p4051
sa(dp4052
g32
VPlayerSpawn
p4053
sg39
(dp4054
g41
VCLG Snake Bite
p4055
sg43
Nssg35
VPT4M33.7782575S
p4056
sa(dp4057
g179
I313138863
sg180
I00
sg181
I00
sg182
(dp4058
g41
VCLG Frosty HCS
p4059
sg43
Nssg185
(lp4060
I1095363701
asg187
I00
sg188
I01
sg189
I1
sg190
I0
sg191
I1
sg192
(dp4061
Vy
F10.570859
sVx
F17.203767800000001
sVz
F1.6027061899999999
ssg194
(dp4062
Vy
F11.9079294
sVx
F15.0712118
sVz
F1.2011988199999999
ssg196
I00
sg197
(dp4063
g41
VEG Roy HCS
p4064
sg43
Nssg200
(lp4065
sg202
(lp4066
(dp4067
g41
VCLG Royal 2
p4068
sg43
Nsasg204
I00
sg35
VPT4M36.4372567S
p4069
sg32
VDeath
p4070
sg207
I1
sa(dp4071
g38
I313138863
sg32
VWeaponDrop
p4072
sg221
I11
sg44
(lp4073
I1095363701
asg35
VPT4M36.4382567S
p4074
sg224
I7
sg225
VP0DT0H0M5.4333S
p4075
sg39
(dp4076
g41
VEG Roy HCS
p4077
sg43
Nssa(dp4078
g38
I4096745987
sg32
VWeaponDrop
p4079
sg221
I5
sg44
(lp4080
I2758383128
asg35
VPT4M36.4392569S
p4081
sg224
I3
sg225
VP0DT0H0M14.6500S
p4082
sg39
(dp4083
g41
VEG Roy HCS
p4084
sg43
Nssa(dp4085
g38
I4096745987
sg32
VWeaponDrop
p4086
sg221
I0
sg44
(lp4087
I2758383128
asg35
VPT4M37.4182565S
p4088
sg224
I0
sg225
VP0DT0H0M3.1833S
p4089
sg39
(dp4090
g41
VEG Snip3downHCS
p4091
sg43
Nssa(dp4092
g38
I424645655
sg39
(dp4093
g41
VEG Snip3downHCS
p4094
sg43
Nssg44
(lp4095
I1327094800
asg32
VWeaponPickup
p4096
sg35
VPT4M37.4182565S
p4097
sa(dp4098
g179
I723523180
sg180
I00
sg181
I00
sg182
(dp4099
g41
VCLG LethuL HCS
p4100
sg43
Nssg185
(lp4101
I2758383128
asg187
I00
sg188
I01
sg189
I1
sg190
I0
sg191
I1
sg192
(dp4102
Vy
F8.1685090000000002
sVx
F9.2220429999999993
sVz
F0.76583109999999999
ssg194
(dp4103
Vy
F5.0273356400000004
sVx
F3.7846353100000001
sVz
F0.91557529999999998
ssg196
I00
sg197
(dp4104
g41
VEG Snip3downHCS
p4105
sg43
Nssg200
(lp4106
sg202
(lp4107
(dp4108
g41
VCLG Snake Bite
p4109
sg43
Nsasg204
I00
sg35
VPT4M39.7162567S
p4110
sg32
VDeath
p4111
sg207
I1
sa(dp4112
g38
I313138863
sg32
VWeaponDrop
p4113
sg221
I0
sg44
(lp4114
I1095363701
asg35
VPT4M39.7242563S
p4115
sg224
I0
sg225
VP0DT0H0M0.7667S
p4116
sg39
(dp4117
g41
VEG Snip3downHCS
p4118
sg43
Nssa(dp4119
g38
I424645655
sg32
VWeaponDrop
p4120
sg221
I3
sg44
(lp4121
I1327094800
asg35
VPT4M39.7242563S
p4122
sg224
I0
sg225
VP0DT0H0M2.2667S
p4123
sg39
(dp4124
g41
VEG Snip3downHCS
p4125
sg43
Nssa(dp4126
g179
I723523180
sg180
I00
sg181
I00
sg182
(dp4127
g41
VCLG LethuL HCS
p4128
sg43
Nssg185
(lp4129
I2758383128
asg187
I00
sg188
I01
sg189
I1
sg190
I0
sg191
I1
sg192
(dp4130
Vy
F8.1685090000000002
sVx
F9.2220429999999993
sVz
F0.76583109999999999
ssg194
(dp4131
Vy
F5.2370650000000003
sVx
F4.353656
sVz
F2.4517989999999998
ssg196
I00
sg197
(dp4132
g41
VEG SuspectorHCS
p4133
sg43
Nssg200
(lp4134
sg202
(lp4135
(dp4136
g41
VCLG Frosty HCS
p4137
sg43
Nsasg204
I00
sg35
VPT4M39.7252571S
p4138
sg32
VDeath
p4139
sg207
I1
sa(dp4140
g32
VMedal
p4141
sg39
(dp4142
g41
VCLG LethuL HCS
p4143
sg43
Nssg212
I2078758684
sg35
VPT4M39.7262624S
p4144
sa(dp4145
g38
I523953283
sg32
VWeaponDrop
p4146
sg221
I1
sg44
(lp4147
I2208825748
asg35
VPT4M39.7333666S
p4148
sg224
I1
sg225
VP0DT0H0M11.0333S
p4149
sg39
(dp4150
g41
VEG SuspectorHCS
p4151
sg43
Nssa(dp4152
g38
I313138863
sg32
VWeaponDrop
p4153
sg221
I0
sg44
(lp4154
I1095363701
asg35
VPT4M39.7335666S
p4155
sg224
I0
sg225
VP0DT0H0M5.1167S
p4156
sg39
(dp4157
g41
VEG SuspectorHCS
p4158
sg43
Nssa(dp4159
g179
I523953283
sg180
I00
sg181
I00
sg182
(dp4160
g41
VEG Lunchbox HCS
p4161
sg43
Nssg185
(lp4162
I2208825748
asg187
I00
sg188
I01
sg189
I1
sg190
I0
sg191
I1
sg192
(dp4163
Vy
F-9.7165739999999996
sVx
F-4.1828750000000001
sVz
F4.1911820000000004
ssg194
(dp4164
Vy
F-6.7522215799999996
sVx
F-13.4709463
sVz
F1.2864469999999999
ssg196
I00
sg197
(dp4165
g41
VCLG Snake Bite
p4166
sg43
Nssg200
(lp4167
sg202
(lp4168
sg204
I01
sg35
VPT4M42.0692571S
p4169
sg32
VDeath
p4170
sg207
I1
sa(dp4171
g32
VMedal
p4172
sg39
(dp4173
g41
VEG Lunchbox HCS
p4174
sg43
Nssg212
I3261908037
sg35
VPT4M42.0712566S
p4175
sa(dp4176
g38
I4096745987
sg32
VWeaponDrop
p4177
sg221
I2
sg44
(lp4178
I2758383128
asg35
VPT4M42.0782192S
p4179
sg224
I1
sg225
VP0DT0H0M7.4000S
p4180
sg39
(dp4181
g41
VCLG Snake Bite
p4182
sg43
Nssa(dp4183
g38
I313138863
sg32
VWeaponDrop
p4184
sg221
I0
sg44
(lp4185
I1095363701
asg35
VPT4M42.0783527S
p4186
sg224
I0
sg225
VP0DT0H0M0.7333S
p4187
sg39
(dp4188
g41
VCLG Snake Bite
p4189
sg43
Nssa(dp4190
g38
I313138863
sg39
(dp4191
g41
VEG Roy HCS
p4192
sg43
Nssg44
(lp4193
I1095363701
asg32
VWeaponPickup
p4194
sg35
VPT4M44.6732579S
p4195
sa(dp4196
g38
I4096745987
sg39
(dp4197
g41
VEG Roy HCS
p4198
sg43
Nssg44
(lp4199
I2758383128
asg32
VWeaponPickup
p4200
sg35
VPT4M44.6732579S
p4201
sa(dp4202
g32
VPlayerSpawn
p4203
sg39
(dp4204
g41
VEG Roy HCS
p4205
sg43
Nssg35
VPT4M44.6732579S
p4206
sa(dp4207
g38
I4096745987
sg32
VWeaponDrop
p4208
sg221
I8
sg44
(lp4209
I2758383128
asg35
VPT4M46.7422556S
p4210
sg224
I1
sg225
VP0DT0H0M22.0167S
p4211
sg39
(dp4212
g41
VCLG Royal 2
p4213
sg43
Nssa(dp4214
g38
I523953283
sg39
(dp4215
g41
VCLG Royal 2
p4216
sg43
Nssg44
(lp4217
I2208825748
asg32
VWeaponPickup
p4218
sg35
VPT4M46.7515412S
p4219
sa(dp4220
g38
I313138863
sg39
(dp4221
g41
VEG Snip3downHCS
p4222
sg43
Nssg44
(lp4223
I1095363701
asg32
VWeaponPickup
p4224
sg35
VPT4M47.9242569S
p4225
sa(dp4226
g38
I4096745987
sg39
(dp4227
g41
VEG Snip3downHCS
p4228
sg43
Nssg44
(lp4229
I2758383128
asg32
VWeaponPickup
p4230
sg35
VPT4M47.9242569S
p4231
sa(dp4232
g32
VPlayerSpawn
p4233
sg39
(dp4234
g41
VEG Snip3downHCS
p4235
sg43
Nssg35
VPT4M47.9242569S
p4236
sa(dp4237
g38
I313138863
sg39
(dp4238
g41
VEG SuspectorHCS
p4239
sg43
Nssg44
(lp4240
I1095363701
asg32
VWeaponPickup
p4241
sg35
VPT4M47.9542565S
p4242
sa(dp4243
g38
I4096745987
sg39
(dp4244
g41
VEG SuspectorHCS
p4245
sg43
Nssg44
(lp4246
I2758383128
asg32
VWeaponPickup
p4247
sg35
VPT4M47.9552574S
p4248
sa(dp4249
g32
VPlayerSpawn
p4250
sg39
(dp4251
g41
VEG SuspectorHCS
p4252
sg43
Nssg35
VPT4M47.9552574S
p4253
sa(dp4254
g38
I313138863
sg39
(dp4255
g41
VCLG Snake Bite
p4256
sg43
Nssg44
(lp4257
I1095363701
asg32
VWeaponPickup
p4258
sg35
VPT4M50.1672572S
p4259
sa(dp4260
g38
I4096745987
sg39
(dp4261
g41
VCLG Snake Bite
p4262
sg43
Nssg44
(lp4263
I2758383128
asg32
VWeaponPickup
p4264
sg35
VPT4M50.1682576S
p4265
sa(dp4266
g32
VPlayerSpawn
p4267
sg39
(dp4268
g41
VCLG Snake Bite
p4269
sg43
Nssg35
VPT4M50.1682576S
p4270
sa(dp4271
g179
I4106030681
sg180
I00
sg181
I00
sg182
(dp4272
g41
VEG SuspectorHCS
p4273
sg43
Nssg185
(lp4274
sg187
I00
sg188
I01
sg189
I1
sg190
I0
sg191
I1
sg192
(dp4275
Vy
F2.2343103900000001
sVx
F-12.7103214
sVz
F1.6480329
ssg194
(dp4276
Vy
F12.591737699999999
sVx
F-12.9811993
sVz
F1.7999854099999999
ssg196
I00
sg197
(dp4277
g41
VCLG Frosty HCS
p4278
sg43
Nssg200
(lp4279
sg202
(lp4280
(dp4281
g41
VEG Snip3downHCS
p4282
sg43
Nsa(dp4283
g41
VEG Roy HCS
p4284
sg43
Nsasg204
I00
sg35
VPT4M52.7852566S
p4285
sg32
VDeath
p4286
sg207
I1
sa(dp4287
g38
I313138863
sg32
VWeaponDrop
p4288
sg221
I18
sg44
(lp4289
I1095363701
asg35
VPT4M52.7932564S
p4290
sg224
I11
sg225
VP0DT0H0M6.3333S
p4291
sg39
(dp4292
g41
VCLG Frosty HCS
p4293
sg43
Nssa(dp4294
g38
I4096745987
sg32
VWeaponDrop
p4295
sg221
I13
sg44
(lp4296
I2758383128
asg35
VPT4M52.7932564S
p4297
sg224
I10
sg225
VP0DT0H0M24.5667S
p4298
sg39
(dp4299
g41
VCLG Frosty HCS
p4300
sg43
Nssa(dp4301
g179
I523953283
sg180
I00
sg181
I00
sg182
(dp4302
g41
VEG Lunchbox HCS
p4303
sg43
Nssg185
(lp4304
I2208825748
asg187
I00
sg188
I01
sg189
I1
sg190
I0
sg191
I1
sg192
(dp4305
Vy
F-10.862973200000001
sVx
F-4.3805437100000004
sVz
F3.22313261
ssg194
(dp4306
Vy
F0.94050413399999999
sVx
F-7.0570110000000001
sVz
F2.4183864599999998
ssg196
I00
sg197
(dp4307
g41
VCLG LethuL HCS
p4308
sg43
Nssg200
(lp4309
sg202
(lp4310
(dp4311
g41
VEG Snip3downHCS
p4312
sg43
Nsasg204
I01
sg35
VPT4M57.8362564S
p4313
sg32
VDeath
p4314
sg207
I1
sa(dp4315
g32
VMedal
p4316
sg39
(dp4317
g41
VEG Lunchbox HCS
p4318
sg43
Nssg212
I3261908037
sg35
VPT4M57.8372567S
p4319
sa(dp4320
g38
I723523180
sg32
VWeaponDrop
p4321
sg221
I4
sg44
(lp4322
I2758383128
asg35
VPT4M57.8382564S
p4323
sg224
I2
sg225
VP0DT0H0M28.7500S
p4324
sg39
(dp4325
g41
VCLG LethuL HCS
p4326
sg43
Nssa(dp4327
g38
I4096745987
sg32
VWeaponDrop
p4328
sg221
I2
sg44
(lp4329
I2758383128
asg35
VPT4M57.8382564S
p4330
sg224
I0
sg225
VP0DT0H0M16.3333S
p4331
sg39
(dp4332
g41
VCLG LethuL HCS
p4333
sg43
Nssa(dp4334
g179
I4096745987
sg180
I00
sg181
I00
sg182
(dp4335
g41
VCLG Snake Bite
p4336
sg43
Nssg185
(lp4337
I2758383128
asg187
I00
sg188
I01
sg189
I1
sg190
I0
sg191
I1
sg192
(dp4338
Vy
F-10.359970000000001
sVx
F2.9519681900000001
sVz
F3.7829468300000002
ssg194
(dp4339
Vy
F-11.4083729
sVx
F-2.23687959
sVz
F3.7635595799999999
ssg196
I00
sg197
(dp4340
g41
VEG Lunchbox HCS
p4341
sg43
Nssg200
(lp4342
sg202
(lp4343
(dp4344
g41
VCLG Royal 2
p4345
sg43
Nsasg204
I01
sg35
VPT5M0.0896562S
p4346
sg32
VDeath
p4347
sg207
I1
sa(dp4348
g32
VMedal
p4349
sg39
(dp4350
g41
VCLG Snake Bite
p4351
sg43
Nssg212
I3261908037
sg35
VPT5M0.0912562S
p4352
sa(dp4353
g38
I669296699
sg32
VWeaponDrop
p4354
sg221
I3
sg44
(lp4355
I2758383128
asg35
VPT5M0.0912562S
p4356
sg224
I3
sg225
VP0DT0H0M14.9833S
p4357
sg39
(dp4358
g41
VEG Lunchbox HCS
p4359
sg43
Nssa(dp4360
g38
I523953283
sg32
VWeaponDrop
p4361
sg221
I14
sg44
(lp4362
I2208825748
asg35
VPT5M0.0912562S
p4363
sg224
I9
sg225
VP0DT0H0M47.0167S
p4364
sg39
(dp4365
g41
VEG Lunchbox HCS
p4366
sg43
Nssa(dp4367
g38
I313138863
sg39
(dp4368
g41
VCLG Frosty HCS
p4369
sg43
Nssg44
(lp4370
I1095363701
asg32
VWeaponPickup
p4371
sg35
VPT5M0.8052573S
p4372
sa(dp4373
g38
I4096745987
sg39
(dp4374
g41
VCLG Frosty HCS
p4375
sg43
Nssg44
(lp4376
I2758383128
asg32
VWeaponPickup
p4377
sg35
VPT5M0.8052573S
p4378
sa(dp4379
g32
VPlayerSpawn
p4380
sg39
(dp4381
g41
VCLG Frosty HCS
p4382
sg43
Nssg35
VPT5M0.8052573S
p4383
sa(dp4384
g179
I523953283
sg180
I00
sg181
I00
sg182
(dp4385
g41
VCLG Royal 2
p4386
sg43
Nssg185
(lp4387
I2208825748
asg187
I00
sg188
I01
sg189
I1
sg190
I0
sg191
I1
sg192
(dp4388
Vy
F4.8387832599999996
sVx
F3.681346
sVz
F0.90949714199999998
ssg194
(dp4389
Vy
F13.4894476
sVx
F0.68504226199999996
sVz
F2.4809925599999998
ssg196
I00
sg197
(dp4390
g41
VEG Snip3downHCS
p4391
sg43
Nssg200
(lp4392
sg202
(lp4393
sg204
I01
sg35
VPT5M2.6382568S
p4394
sg32
VDeath
p4395
sg207
I1
sa(dp4396
g32
VImpulse
p4397
sg39
(dp4398
g41
VCLG Royal 2
p4399
sg43
Nssg353
I3174430457
sg35
VPT5M2.6392572S
p4400
sa(dp4401
g32
VMedal
p4402
sg39
(dp4403
g41
VCLG Royal 2
p4404
sg43
Nssg212
I370413844
sg35
VPT5M2.6466299S
p4405
sa(dp4406
g38
I4096745987
sg32
VWeaponDrop
p4407
sg221
I10
sg44
(lp4408
I2758383128
asg35
VPT5M2.6468964S
p4409
sg224
I6
sg225
VP0DT0H0M12.9167S
p4410
sg39
(dp4411
g41
VEG Snip3downHCS
p4412
sg43
Nssa(dp4413
g38
I313138863
sg32
VWeaponDrop
p4414
sg221
I0
sg44
(lp4415
I1095363701
asg35
VPT5M2.6472571S
p4416
sg224
I0
sg225
VP0DT0H0M1.8000S
p4417
sg39
(dp4418
g41
VEG Snip3downHCS
p4419
sg43
Nssa(dp4420
g38
I313138863
sg32
VWeaponDrop
p4421
sg221
I0
sg44
(lp4422
I1095363701
asg35
VPT5M4.9732566S
p4423
sg224
I0
sg225
VP0DT0H0M2.3500S
p4424
sg39
(dp4425
g41
VCLG Frosty HCS
p4426
sg43
Nssa(dp4427
g38
I723388907
sg39
(dp4428
g41
VCLG Frosty HCS
p4429
sg43
Nssg44
(lp4430
I89283061
asg32
VWeaponPickup
p4431
sg35
VPT5M4.9732566S
p4432
sa(dp4433
g179
I4096745987
sg180
I00
sg181
I00
sg182
(dp4434
g41
VEG Roy HCS
p4435
sg43
Nssg185
(lp4436
I2758383128
asg187
I00
sg188
I01
sg189
I1
sg190
I0
sg191
I1
sg192
(dp4437
Vy
F-8.031936
sVx
F-14.002312699999999
sVz
F2.4345292999999999
ssg194
(dp4438
Vy
F-10.563983
sVx
F-2.29113722
sVz
F3.40236187
ssg196
I00
sg197
(dp4439
g41
VCLG Snake Bite
p4440
sg43
Nssg200
(lp4441
sg202
(lp4442
(dp4443
g41
VEG SuspectorHCS
p4444
sg43
Nsasg204
I01
sg35
VPT5M5.2652569S
p4445
sg32
VDeath
p4446
sg207
I1
sa(dp4447
g32
VMedal
p4448
sg39
(dp4449
g41
VEG Roy HCS
p4450
sg43
Nssg212
I3261908037
sg35
VPT5M5.2732565S
p4451
sa(dp4452
g38
I313138863
sg32
VWeaponDrop
p4453
sg221
I0
sg44
(lp4454
I1095363701
asg35
VPT5M5.2732565S
p4455
sg224
I0
sg225
VP0DT0H0M0.8000S
p4456
sg39
(dp4457
g41
VCLG Snake Bite
p4458
sg43
Nssa(dp4459
g38
I4096745987
sg32
VWeaponDrop
p4460
sg221
I8
sg44
(lp4461
I2758383128
asg35
VPT5M5.2732565S
p4462
sg224
I5
sg225
VP0DT0H0M14.2000S
p4463
sg39
(dp4464
g41
VCLG Snake Bite
p4465
sg43
Nssa(dp4466
g38
I313138863
sg39
(dp4467
g41
VCLG LethuL HCS
p4468
sg43
Nssg44
(lp4469
I1095363701
asg32
VWeaponPickup
p4470
sg35
VPT5M5.948257S
p4471
sa(dp4472
g38
I4096745987
sg39
(dp4473
g41
VCLG LethuL HCS
p4474
sg43
Nssg44
(lp4475
I2758383128
asg32
VWeaponPickup
p4476
sg35
VPT5M5.9492571S
p4477
sa(dp4478
g32
VPlayerSpawn
p4479
sg39
(dp4480
g41
VCLG LethuL HCS
p4481
sg43
Nssg35
VPT5M5.9492571S
p4482
sa(dp4483
g38
I313138863
sg39
(dp4484
g41
VEG Lunchbox HCS
p4485
sg43
Nssg44
(lp4486
I1095363701
asg32
VWeaponPickup
p4487
sg35
VPT5M8.1882863S
p4488
sa(dp4489
g38
I4096745987
sg39
(dp4490
g41
VEG Lunchbox HCS
p4491
sg43
Nssg44
(lp4492
I2758383128
asg32
VWeaponPickup
p4493
sg35
VPT5M8.1892567S
p4494
sa(dp4495
g32
VPlayerSpawn
p4496
sg39
(dp4497
g41
VEG Lunchbox HCS
p4498
sg43
Nssg35
VPT5M8.1892567S
p4499
sa(dp4500
g38
I313138863
sg39
(dp4501
g41
VEG Snip3downHCS
p4502
sg43
Nssg44
(lp4503
I1095363701
asg32
VWeaponPickup
p4504
sg35
VPT5M10.7702567S
p4505
sa(dp4506
g38
I4096745987
sg39
(dp4507
g41
VEG Snip3downHCS
p4508
sg43
Nssg44
(lp4509
I2758383128
asg32
VWeaponPickup
p4510
sg35
VPT5M10.7712572S
p4511
sa(dp4512
g32
VPlayerSpawn
p4513
sg39
(dp4514
g41
VEG Snip3downHCS
p4515
sg43
Nssg35
VPT5M10.7712572S
p4516
sa(dp4517
g38
I313138863
sg39
(dp4518
g41
VCLG Snake Bite
p4519
sg43
Nssg44
(lp4520
I1095363701
asg32
VWeaponPickup
p4521
sg35
VPT5M13.2932568S
p4522
sa(dp4523
g38
I4096745987
sg39
(dp4524
g41
VCLG Snake Bite
p4525
sg43
Nssg44
(lp4526
I2758383128
asg32
VWeaponPickup
p4527
sg35
VPT5M13.2942574S
p4528
sa(dp4529
g32
VPlayerSpawn
p4530
sg39
(dp4531
g41
VCLG Snake Bite
p4532
sg43
Nssg35
VPT5M13.2942574S
p4533
sa(dp4534
g38
I313138863
sg32
VWeaponDrop
p4535
sg221
I0
sg44
(lp4536
I1095363701
asg35
VPT5M14.8652561S
p4537
sg224
I0
sg225
VP0DT0H0M0.9833S
p4538
sg39
(dp4539
g41
VEG Roy HCS
p4540
sg43
Nssa(dp4541
g38
I3808094875
sg39
(dp4542
g41
VEG Roy HCS
p4543
sg43
Nssg44
(lp4544
I2758383128
asg32
VWeaponPickup
p4545
sg35
VPT5M14.8652561S
p4546
sa(dp4547
g38
I4096745987
sg32
VWeaponDrop
p4548
sg221
I1
sg44
(lp4549
I2758383128
asg35
VPT5M17.7552567S
p4550
sg224
I0
sg225
VP0DT0H0M6.4000S
p4551
sg39
(dp4552
g41
VEG Snip3downHCS
p4553
sg43
Nssa(dp4554
g38
I523953283
sg39
(dp4555
g41
VEG Snip3downHCS
p4556
sg43
Nssg44
(lp4557
I2208825748
asg32
VWeaponPickup
p4558
sg35
VPT5M17.7562573S
p4559
sa(dp4560
g179
I523953283
sg180
I00
sg181
I01
sg182
(dp4561
g41
VCLG Royal 2
p4562
sg43
Nssg185
(lp4563
I2208825748
asg187
I00
sg188
I00
sg189
I1
sg190
I0
sg191
I1
sg192
(dp4564
Vy
F11.663907099999999
sVx
F4.2556039999999999
sVz
F2.2875652299999998
ssg194
(dp4565
Vy
F11.371039400000001
sVx
F3.9751215000000002
sVz
F2.2876217400000001
ssg196
I00
sg197
(dp4566
g41
VEG SuspectorHCS
p4567
sg43
Nssg200
(lp4568
sg202
(lp4569
sg204
I00
sg35
VPT5M17.7634982S
p4570
sg32
VDeath
p4571
sg207
I1
sa(dp4572
g32
VMedal
p4573
sg39
(dp4574
g41
VCLG Royal 2
p4575
sg43
Nssg212
I2287626681
sg35
VPT5M17.764259S
p4576
sa(dp4577
g38
I313138863
sg32
VWeaponDrop
p4578
sg221
I5
sg44
(lp4579
I1095363701
asg35
VPT5M17.764259S
p4580
sg224
I5
sg225
VP0DT0H0M7.3667S
p4581
sg39
(dp4582
g41
VEG SuspectorHCS
p4583
sg43
Nssa(dp4584
g38
I313138863
sg32
VWeaponDrop
p4585
sg221
I0
sg44
(lp4586
I1095363701
asg35
VPT5M17.764259S
p4587
sg224
I0
sg225
VP0DT0S
p4588
sg39
(dp4589
g41
VEG SuspectorHCS
p4590
sg43
Nssa(dp4591
g38
I4096745987
sg32
VWeaponDrop
p4592
sg221
I12
sg44
(lp4593
I2758383128
asg35
VPT5M17.7652568S
p4594
sg224
I4
sg225
VP0DT0H0M22.3333S
p4595
sg39
(dp4596
g41
VEG SuspectorHCS
p4597
sg43
Nssa(dp4598
g32
VMedal
p4599
sg39
(dp4600
g41
VCLG Royal 2
p4601
sg43
Nssg212
I3400287617
sg35
VPT5M21.8352566S
p4602
sa(dp4603
g179
I3808094875
sg180
I00
sg181
I00
sg182
(dp4604
g41
VEG Roy HCS
p4605
sg43
Nssg185
(lp4606
I2758383128
asg187
I00
sg188
I01
sg189
I1
sg190
I0
sg191
I1
sg192
(dp4607
Vy
F-8.1076549999999994
sVx
F13.619657500000001
sVz
F1.3828408700000001
ssg194
(dp4608
Vy
F-8.648828
sVx
F15.09765
sVz
F1.9867713499999999
ssg196
I00
sg197
(dp4609
g41
VCLG Snake Bite
p4610
sg43
Nssg200
(lp4611
sg202
(lp4612
(dp4613
g41
VEG Snip3downHCS
p4614
sg43
Nsasg204
I00
sg35
VPT5M21.8372569S
p4615
sg32
VDeath
p4616
sg207
I1
sa(dp4617
g38
I313138863
sg32
VWeaponDrop
p4618
sg221
I0
sg44
(lp4619
I1095363701
asg35
VPT5M21.8443458S
p4620
sg224
I0
sg225
VP0DT0H0M0.7500S
p4621
sg39
(dp4622
g41
VCLG Snake Bite
p4623
sg43
Nssa(dp4624
g38
I4096745987
sg32
VWeaponDrop
p4625
sg221
I5
sg44
(lp4626
I2758383128
asg35
VPT5M21.8443458S
p4627
sg224
I1
sg225
VP0DT0H0M7.7167S
p4628
sg39
(dp4629
g41
VCLG Snake Bite
p4630
sg43
Nssa(dp4631
g179
I523953283
sg180
I00
sg181
I00
sg182
(dp4632
g41
VEG Snip3downHCS
p4633
sg43
Nssg185
(lp4634
I2208825748
asg187
I00
sg188
I01
sg189
I1
sg190
I0
sg191
I1
sg192
(dp4635
Vy
F4.516394
sVx
F-2.5449698000000001
sVz
F4.9293490000000002
ssg194
(dp4636
Vy
F12.3916273
sVx
F4.6321654299999997
sVz
F2.6503038399999999
ssg196
I00
sg197
(dp4637
g41
VCLG Royal 2
p4638
sg43
Nssg200
(lp4639
sg202
(lp4640
sg204
I01
sg35
VPT5M24.3742565S
p4641
sg32
VDeath
p4642
sg207
I1
sa(dp4643
g32
VMedal
p4644
sg39
(dp4645
g41
VEG Snip3downHCS
p4646
sg43
Nssg212
I3261908037
sg35
VPT5M24.3762571S
p4647
sa(dp4648
g38
I313138863
sg32
VWeaponDrop
p4649
sg221
I0
sg44
(lp4650
I1095363701
asg35
VPT5M24.3762571S
p4651
sg224
I0
sg225
VP0DT0H0M1.2500S
p4652
sg39
(dp4653
g41
VCLG Royal 2
p4654
sg43
Nssa(dp4655
g38
I523953283
sg32
VWeaponDrop
p4656
sg221
I23
sg44
(lp4657
I2208825748
asg35
VPT5M24.3762571S
p4658
sg224
I12
sg225
VP0DT0H0M37.4333S
p4659
sg39
(dp4660
g41
VCLG Royal 2
p4661
sg43
Nssa(dp4662
g38
I523953283
sg32
VWeaponDrop
p4663
sg221
I0
sg44
(lp4664
I2208825748
asg35
VPT5M24.3762571S
p4665
sg224
I0
sg225
VP0DT0S
p4666
sg39
(dp4667
g41
VCLG Royal 2
p4668
sg43
Nssa(dp4669
g38
I313138863
sg39
(dp4670
g41
VEG SuspectorHCS
p4671
sg43
Nssg44
(lp4672
I1095363701
asg32
VWeaponPickup
p4673
sg35
VPT5M25.8862563S
p4674
sa(dp4675
g38
I4096745987
sg39
(dp4676
g41
VEG SuspectorHCS
p4677
sg43
Nssg44
(lp4678
I2758383128
asg32
VWeaponPickup
p4679
sg35
VPT5M25.8872582S
p4680
sa(dp4681
g32
VPlayerSpawn
p4682
sg39
(dp4683
g41
VEG SuspectorHCS
p4684
sg43
Nssg35
VPT5M25.8872582S
p4685
sa(dp4686
g179
I4096745987
sg180
I00
sg181
I00
sg182
(dp4687
g41
VEG Roy HCS
p4688
sg43
Nssg185
(lp4689
I2758383128
asg187
I00
sg188
I01
sg189
I1
sg190
I0
sg191
I1
sg192
(dp4690
Vy
F-0.51604139999999998
sVx
F15.726658799999999
sVz
F2.1196055399999998
ssg194
(dp4691
Vy
F4.4404620000000001
sVx
F12.0294075
sVz
F2.01859784
ssg196
I00
sg197
(dp4692
g41
VCLG LethuL HCS
p4693
sg43
Nssg200
(lp4694
sg202
(lp4695
(dp4696
g41
VEG Snip3downHCS
p4697
sg43
Nsasg204
I01
sg35
VPT5M25.8944255S
p4698
sg32
VDeath
p4699
sg207
I1
sa(dp4700
g32
VMedal
p4701
sg39
(dp4702
g41
VEG Roy HCS
p4703
sg43
Nssg212
I3261908037
sg35
VPT5M25.8952566S
p4704
sa(dp4705
g32
VMedal
p4706
sg39
(dp4707
g41
VEG Roy HCS
p4708
sg43
Nssg212
I2078758684
sg35
VPT5M25.8952566S
p4709
sa(dp4710
g38
I4096745987
sg32
VWeaponDrop
p4711
sg221
I14
sg44
(lp4712
I2758383128
asg35
VPT5M25.8962568S
p4713
sg224
I1
sg225
VP0DT0H0M19.0333S
p4714
sg39
(dp4715
g41
VCLG LethuL HCS
p4716
sg43
Nssa(dp4717
g38
I313138863
sg32
VWeaponDrop
p4718
sg221
I0
sg44
(lp4719
I1095363701
asg35
VPT5M25.8962568S
p4720
sg224
I0
sg225
VP0DT0H0M0.7833S
p4721
sg39
(dp4722
g41
VCLG LethuL HCS
p4723
sg43
Nssa(dp4724
g179
I523953283
sg180
I00
sg181
I00
sg182
(dp4725
g41
VEG Snip3downHCS
p4726
sg43
Nssg185
(lp4727
I2208825748
asg187
I00
sg188
I01
sg189
I1
sg190
I0
sg191
I1
sg192
(dp4728
Vy
F5.6969656899999999
sVx
F3.82561851
sVz
F3.81298161
ssg194
(dp4729
Vy
F13.384302099999999
sVx
F-5.6612987500000003
sVz
F1.82091355
ssg196
I00
sg197
(dp4730
g41
VCLG Frosty HCS
p4731
sg43
Nssg200
(lp4732
sg202
(lp4733
(dp4734
g41
VEG Lunchbox HCS
p4735
sg43
Nsasg204
I01
sg35
VPT5M28.4594004S
p4736
sg32
VDeath
p4737
sg207
I1
sa(dp4738
g32
VMedal
p4739
sg39
(dp4740
g41
VEG Snip3downHCS
p4741
sg43
Nssg212
I3261908037
sg35
VPT5M28.46625S
p4742
sa(dp4743
g32
VMedal
p4744
sg39
(dp4745
g41
VEG Snip3downHCS
p4746
sg43
Nssg212
I2078758684
sg35
VPT5M28.4672501S
p4747
sa(dp4748
g38
I723388907
sg32
VWeaponDrop
p4749
sg221
I6
sg44
(lp4750
I89283061
asg35
VPT5M28.4672501S
p4751
sg224
I2
sg225
VP0DT0H0M11.0833S
p4752
sg39
(dp4753
g41
VCLG Frosty HCS
p4754
sg43
Nssa(dp4755
g38
I4096745987
sg32
VWeaponDrop
p4756
sg221
I5
sg44
(lp4757
I2758383128
asg35
VPT5M28.4682506S
p4758
sg224
I1
sg225
VP0DT0H0M14.0167S
p4759
sg39
(dp4760
g41
VCLG Frosty HCS
p4761
sg43
Nssa(dp4762
g38
I2244200496
sg39
(dp4763
g41
VEG Roy HCS
p4764
sg43
Nssg44
(lp4765
I2758383128
asg32
VWeaponPickup
p4766
sg35
VPT5M28.5852477S
p4767
sa(dp4768
g32
VImpulse
p4769
sg39
(dp4770
g41
VEG Roy HCS
p4771
sg43
Nssg353
I4191318012
sg35
VPT5M28.5862498S
p4772
sa(dp4773
g32
VImpulse
p4774
sg39
(dp4775
g41
VEG Roy HCS
p4776
sg43
Nssg353
I1039658009
sg35
VPT5M28.5862498S
p4777
sa(dp4778
g38
I313138863
sg39
(dp4779
g41
VCLG Snake Bite
p4780
sg43
Nssg44
(lp4781
I1095363701
asg32
VWeaponPickup
p4782
sg35
VPT5M29.855242S
p4783
sa(dp4784
g38
I4096745987
sg39
(dp4785
g41
VCLG Snake Bite
p4786
sg43
Nssg44
(lp4787
I2758383128
asg32
VWeaponPickup
p4788
sg35
VPT5M29.855242S
p4789
sa(dp4790
g32
VPlayerSpawn
p4791
sg39
(dp4792
g41
VCLG Snake Bite
p4793
sg43
Nssg35
VPT5M29.855242S
p4794
sa(dp4795
g38
I2244200496
sg32
VWeaponDrop
p4796
sg221
I0
sg44
(lp4797
I2758383128
asg35
VPT5M29.9839825S
p4798
sg224
I0
sg225
VP0DT0H0M1.2500S
p4799
sg39
(dp4800
g41
VEG Roy HCS
p4801
sg43
Nssa(dp4802
g32
VImpulse
p4803
sg39
(dp4804
g41
VEG Roy HCS
p4805
sg43
Nssg353
I3435524855
sg35
VPT5M29.9842408S
p4806
sa(dp4807
g38
I4096745987
sg32
VWeaponDrop
p4808
sg221
I0
sg44
(lp4809
I2758383128
asg35
VPT5M30.6742348S
p4810
sg224
I0
sg225
VP0DT0H0M3.7167S
p4811
sg39
(dp4812
g41
VEG SuspectorHCS
p4813
sg43
Nssa(dp4814
g38
I4108759423
sg39
(dp4815
g41
VEG SuspectorHCS
p4816
sg43
Nssg44
(lp4817
I2758383128
asg32
VWeaponPickup
p4818
sg35
VPT5M30.6742348S
p4819
sa(dp4820
g38
I2244200496
sg39
(dp4821
g41
VEG Roy HCS
p4822
sg43
Nssg44
(lp4823
I2758383128
asg32
VWeaponPickup
p4824
sg35
VPT5M31.4214118S
p4825
sa(dp4826
g32
VImpulse
p4827
sg39
(dp4828
g41
VEG Roy HCS
p4829
sg43
Nssg353
I4191318012
sg35
VPT5M31.4214118S
p4830
sa(dp4831
g38
I313138863
sg39
(dp4832
g41
VCLG Royal 2
p4833
sg43
Nssg44
(lp4834
I1095363701
asg32
VWeaponPickup
p4835
sg35
VPT5M32.3722265S
p4836
sa(dp4837
g38
I4096745987
sg39
(dp4838
g41
VCLG Royal 2
p4839
sg43
Nssg44
(lp4840
I2758383128
asg32
VWeaponPickup
p4841
sg35
VPT5M32.3722265S
p4842
sa(dp4843
g32
VPlayerSpawn
p4844
sg39
(dp4845
g41
VCLG Royal 2
p4846
sg43
Nssg35
VPT5M32.3722265S
p4847
sa(dp4848
g38
I313138863
sg39
(dp4849
g41
VCLG LethuL HCS
p4850
sg43
Nssg44
(lp4851
I1095363701
asg32
VWeaponPickup
p4852
sg35
VPT5M33.8692228S
p4853
sa(dp4854
g38
I4096745987
sg39
(dp4855
g41
VCLG LethuL HCS
p4856
sg43
Nssg44
(lp4857
I2758383128
asg32
VWeaponPickup
p4858
sg35
VPT5M33.8692228S
p4859
sa(dp4860
g32
VPlayerSpawn
p4861
sg39
(dp4862
g41
VCLG LethuL HCS
p4863
sg43
Nssg35
VPT5M33.8702158S
p4864
sa(dp4865
g38
I2244200496
sg32
VWeaponDrop
p4866
sg221
I0
sg44
(lp4867
I2758383128
asg35
VPT5M35.6366881S
p4868
sg224
I0
sg225
VP0DT0H0M4.0833S
p4869
sg39
(dp4870
g41
VEG Roy HCS
p4871
sg43
Nssa(dp4872
g32
VImpulse
p4873
sg39
(dp4874
g41
VEG Roy HCS
p4875
sg43
Nssg353
I3435524855
sg35
VPT5M35.647203S
p4876
sa(dp4877
g38
I313138863
sg39
(dp4878
g41
VCLG Frosty HCS
p4879
sg43
Nssg44
(lp4880
I1095363701
asg32
VWeaponPickup
p4881
sg35
VPT5M36.4851996S
p4882
sa(dp4883
g38
I4096745987
sg39
(dp4884
g41
VCLG Frosty HCS
p4885
sg43
Nssg44
(lp4886
I2758383128
asg32
VWeaponPickup
p4887
sg35
VPT5M36.4851996S
p4888
sa(dp4889
g32
VPlayerSpawn
p4890
sg39
(dp4891
g41
VCLG Frosty HCS
p4892
sg43
Nssg35
VPT5M36.4851996S
p4893
sa(dp4894
g38
I2244200496
sg39
(dp4895
g41
VEG Roy HCS
p4896
sg43
Nssg44
(lp4897
I2758383128
asg32
VWeaponPickup
p4898
sg35
VPT5M37.3141939S
p4899
sa(dp4900
g32
VImpulse
p4901
sg39
(dp4902
g41
VEG Roy HCS
p4903
sg43
Nssg353
I4191318012
sg35
VPT5M37.3151944S
p4904
sa(dp4905
g38
I2244200496
sg32
VWeaponDrop
p4906
sg221
I0
sg44
(lp4907
I2758383128
asg35
VPT5M37.8801892S
p4908
sg224
I0
sg225
VP0DT0H0M0.4500S
p4909
sg39
(dp4910
g41
VEG Roy HCS
p4911
sg43
Nssa(dp4912
g32
VImpulse
p4913
sg39
(dp4914
g41
VEG Roy HCS
p4915
sg43
Nssg353
I3435524855
sg35
VPT5M37.887354S
p4916
sa(dp4917
g179
I523953283
sg180
I00
sg181
I00
sg182
(dp4918
g41
VEG Snip3downHCS
p4919
sg43
Nssg185
(lp4920
I2208825748
asg187
I00
sg188
I01
sg189
I1
sg190
I0
sg191
I1
sg192
(dp4921
Vy
F5.2213079999999996
sVx
F6.71847963
sVz
F2.4514641799999999
ssg194
(dp4922
Vy
F12.731463400000001
sVx
F8.7917184800000001
sVz
F1.62100434
ssg196
I00
sg197
(dp4923
g41
VCLG Royal 2
p4924
sg43
Nssg200
(lp4925
sg202
(lp4926
sg204
I01
sg35
VPT5M38.5927765S
p4927
sg32
VDeath
p4928
sg207
I1
sa(dp4929
g32
VMedal
p4930
sg39
(dp4931
g41
VEG Snip3downHCS
p4932
sg43
Nssg212
I2838259753
sg35
VPT5M38.5927765S
p4933
sa(dp4934
g32
VImpulse
p4935
sg39
(dp4936
g41
VEG Snip3downHCS
p4937
sg43
Nssg353
I2556889090
sg35
VPT5M38.5927765S
p4938
sa(dp4939
g32
VMedal
p4940
sg39
(dp4941
g41
VEG Lunchbox HCS
p4942
sg43
Nssg212
I824733727
sg35
VPT5M38.593185S
p4943
sa(dp4944
g32
VMedal
p4945
sg39
(dp4946
g41
VEG Snip3downHCS
p4947
sg43
Nssg212
I3261908037
sg35
VPT5M38.5951853S
p4948
sa(dp4949
g38
I313138863
sg32
VWeaponDrop
p4950
sg221
I0
sg44
(lp4951
I1095363701
asg35
VPT5M38.5951853S
p4952
sg224
I0
sg225
VP0DT0H0M0.6500S
p4953
sg39
(dp4954
g41
VCLG Royal 2
p4955
sg43
Nssa(dp4956
g38
I4096745987
sg32
VWeaponDrop
p4957
sg221
I8
sg44
(lp4958
I2758383128
asg35
VPT5M38.5951853S
p4959
sg224
I5
sg225
VP0DT0H0M5.4833S
p4960
sg39
(dp4961
g41
VCLG Royal 2
p4962
sg43
Nssa(dp4963
g179
I4096745987
sg180
I00
sg181
I00
sg182
(dp4964
g41
VCLG LethuL HCS
p4965
sg43
Nssg185
(lp4966
I2758383128
asg187
I00
sg188
I01
sg189
I1
sg190
I0
sg191
I1
sg192
(dp4967
Vy
F4.95440769
sVx
F15.9463463
sVz
F2.4481766199999999
ssg194
(dp4968
Vy
F9.2931480000000004
sVx
F13.374942799999999
sVz
F0.85203240000000002
ssg196
I00
sg197
(dp4969
g41
VEG Lunchbox HCS
p4970
sg43
Nssg200
(lp4971
sg202
(lp4972
(dp4973
g41
VCLG Royal 2
p4974
sg43
Nsasg204
I01
sg35
VPT5M39.1191824S
p4975
sg32
VDeath
p4976
sg207
I1
sa(dp4977
g32
VMedal
p4978
sg39
(dp4979
g41
VCLG LethuL HCS
p4980
sg43
Nssg212
I3261908037
sg35
VPT5M39.1201825S
p4981
sa(dp4982
g38
I313138863
sg32
VWeaponDrop
p4983
sg221
I0
sg44
(lp4984
I1095363701
asg35
VPT5M39.1201825S
p4985
sg224
I0
sg225
VP0DT0H0M4.8333S
p4986
sg39
(dp4987
g41
VEG Lunchbox HCS
p4988
sg43
Nssa(dp4989
g38
I4096745987
sg32
VWeaponDrop
p4990
sg221
I14
sg44
(lp4991
I2758383128
asg35
VPT5M39.1201825S
p4992
sg224
I7
sg225
VP0DT0H0M25.9500S
p4993
sg39
(dp4994
g41
VEG Lunchbox HCS
p4995
sg43
Nssa(dp4996
g38
I2244200496
sg39
(dp4997
g41
VEG Roy HCS
p4998
sg43
Nssg44
(lp4999
I2758383128
asg32
VWeaponPickup
p5000
sg35
VPT5M39.3201776S
p5001
sa(dp5002
g32
VImpulse
p5003
sg39
(dp5004
g41
VEG Roy HCS
p5005
sg43
Nssg353
I4191318012
sg35
VPT5M39.3205099S
p5006
sa(dp5007
g38
I313138863
sg32
VWeaponDrop
p5008
sg221
I0
sg44
(lp5009
I1095363701
asg35
VPT5M39.618077S
p5010
sg224
I0
sg225
VP0DT0H0M0.7333S
p5011
sg39
(dp5012
g41
VCLG Frosty HCS
p5013
sg43
Nssa(dp5014
g38
I723388907
sg39
(dp5015
g41
VCLG Frosty HCS
p5016
sg43
Nssg44
(lp5017
I89283061
asg32
VWeaponPickup
p5018
sg35
VPT5M39.6181776S
p5019
sa(dp5020
g38
I2244200496
sg32
VWeaponDrop
p5021
sg221
I0
sg44
(lp5022
I2758383128
asg35
VPT5M40.2951742S
p5023
sg224
I0
sg225
VP0DT0H0M0.7167S
p5024
sg39
(dp5025
g41
VEG Roy HCS
p5026
sg43
Nssa(dp5027
g32
VImpulse
p5028
sg39
(dp5029
g41
VEG Roy HCS
p5030
sg43
Nssg353
I3435524855
sg35
VPT5M40.2951742S
p5031
sa(dp5032
g38
I2244200496
sg39
(dp5033
g41
VEG Roy HCS
p5034
sg43
Nssg44
(lp5035
I2758383128
asg32
VWeaponPickup
p5036
sg35
VPT5M41.345168S
p5037
sa(dp5038
g32
VImpulse
p5039
sg39
(dp5040
g41
VEG Roy HCS
p5041
sg43
Nssg353
I4191318012
sg35
VPT5M41.3464569S
p5042
sa(dp5043
g32
VMedal
p5044
sg39
(dp5045
g41
VEG Roy HCS
p5046
sg43
Nssg212
I3894006667
sg35
VPT5M41.5651645S
p5047
sa(dp5048
g32
VImpulse
p5049
sg39
(dp5050
g41
VEG Roy HCS
p5051
sg43
Nssg353
I2944278681
sg35
VPT5M41.5661665S
p5052
sa(dp5053
g179
I723388907
sg180
I00
sg181
I00
sg182
(dp5054
g41
VCLG Frosty HCS
p5055
sg43
Nssg185
(lp5056
I89283061
asg187
I00
sg188
I01
sg189
I1
sg190
I0
sg191
I1
sg192
(dp5057
Vy
F5.7202682500000002
sVx
F7.3110879999999998
sVz
F0.37666379999999999
ssg194
(dp5058
Vy
F9.4258790000000001
sVx
F6.9562160000000004
sVz
F0.356029451
ssg196
I00
sg197
(dp5059
g41
VEG Snip3downHCS
p5060
sg43
Nssg200
(lp5061
sg202
(lp5062
(dp5063
g41
VCLG LethuL HCS
p5064
sg43
Nsasg204
I00
sg35
VPT5M42.3901616S
p5065
sg32
VDeath
p5066
sg207
I1
sa(dp5067
g32
VMedal
p5068
sg39
(dp5069
g41
VCLG Frosty HCS
p5070
sg43
Nssg212
I2838259753
sg35
VPT5M42.3901616S
p5071
sa(dp5072
g32
VImpulse
p5073
sg39
(dp5074
g41
VCLG Frosty HCS
p5075
sg43
Nssg353
I2556889090
sg35
VPT5M42.3901616S
p5076
sa(dp5077
g38
I313138863
sg32
VWeaponDrop
p5078
sg221
I0
sg44
(lp5079
I1095363701
asg35
VPT5M42.3911614S
p5080
sg224
I0
sg225
VP0DT0H0M0.6000S
p5081
sg39
(dp5082
g41
VEG Snip3downHCS
p5083
sg43
Nssa(dp5084
g38
I523953283
sg32
VWeaponDrop
p5085
sg221
I31
sg44
(lp5086
I2208825748
asg35
VPT5M42.3911614S
p5087
sg224
I21
sg225
VP0DT0H0M24.2667S
p5088
sg39
(dp5089
g41
VEG Snip3downHCS
p5090
sg43
Nssa(dp5091
g38
I4096745987
sg32
VWeaponDrop
p5092
sg221
I0
sg44
(lp5093
I2758383128
asg35
VPT5M45.5891525S
p5094
sg224
I0
sg225
VP0DT0H0M4.6833S
p5095
sg39
(dp5096
g41
VCLG Frosty HCS
p5097
sg43
Nssa(dp5098
g38
I424645655
sg39
(dp5099
g41
VCLG Frosty HCS
p5100
sg43
Nssg44
(lp5101
I1327094800
asg32
VWeaponPickup
p5102
sg35
VPT5M45.5891525S
p5103
sa(dp5104
g38
I313138863
sg39
(dp5105
g41
VCLG Royal 2
p5106
sg43
Nssg44
(lp5107
I1095363701
asg32
VWeaponPickup
p5108
sg35
VPT5M47.0111538S
p5109
sa(dp5110
g38
I4096745987
sg39
(dp5111
g41
VCLG Royal 2
p5112
sg43
Nssg44
(lp5113
I2758383128
asg32
VWeaponPickup
p5114
sg35
VPT5M47.012154S
p5115
sa(dp5116
g32
VPlayerSpawn
p5117
sg39
(dp5118
g41
VCLG Royal 2
p5119
sg43
Nssg35
VPT5M47.012154S
p5120
sa(dp5121
g38
I313138863
sg39
(dp5122
g41
VEG Lunchbox HCS
p5123
sg43
Nssg44
(lp5124
I1095363701
asg32
VWeaponPickup
p5125
sg35
VPT5M47.5711548S
p5126
sa(dp5127
g38
I4096745987
sg39
(dp5128
g41
VEG Lunchbox HCS
p5129
sg43
Nssg44
(lp5130
I2758383128
asg32
VWeaponPickup
p5131
sg35
VPT5M47.5711548S
p5132
sa(dp5133
g32
VPlayerSpawn
p5134
sg39
(dp5135
g41
VEG Lunchbox HCS
p5136
sg43
Nssg35
VPT5M47.5711548S
p5137
sa(dp5138
g38
I313138863
sg39
(dp5139
g41
VEG Snip3downHCS
p5140
sg43
Nssg44
(lp5141
I1095363701
asg32
VWeaponPickup
p5142
sg35
VPT5M50.613154S
p5143
sa(dp5144
g38
I4096745987
sg39
(dp5145
g41
VEG Snip3downHCS
p5146
sg43
Nssg44
(lp5147
I2758383128
asg32
VWeaponPickup
p5148
sg35
VPT5M50.613154S
p5149
sa(dp5150
g32
VPlayerSpawn
p5151
sg39
(dp5152
g41
VEG Snip3downHCS
p5153
sg43
Nssg35
VPT5M50.613154S
p5154
sa(dp5155
g38
I313138863
sg32
VWeaponDrop
p5156
sg221
I0
sg44
(lp5157
I1095363701
asg35
VPT5M51.9011529S
p5158
sg224
I0
sg225
VP0DT0H0M1.4167S
p5159
sg39
(dp5160
g41
VCLG Royal 2
p5161
sg43
Nssa(dp5162
g38
I523953283
sg39
(dp5163
g41
VCLG Royal 2
p5164
sg43
Nssg44
(lp5165
I2208825748
asg32
VWeaponPickup
p5166
sg35
VPT5M51.9011529S
p5167
sa(dp5168
g179
I723388907
sg180
I00
sg181
I00
sg182
(dp5169
g41
VCLG Frosty HCS
p5170
sg43
Nssg185
(lp5171
I89283061
asg187
I00
sg188
I01
sg189
I1
sg190
I0
sg191
I1
sg192
(dp5172
Vy
F7.1854509999999996
sVx
F-6.6599154499999997
sVz
F1.64749217
ssg194
(dp5173
Vy
F4.2829832999999997
sVx
F-6.3578250000000001
sVz
F0.22967436899999999
ssg196
I00
sg197
(dp5174
g41
VEG Roy HCS
p5175
sg43
Nssg200
(lp5176
sg202
(lp5177
sg204
I00
sg35
VPT5M54.3761533S
p5178
sg32
VDeath
p5179
sg207
I1
sa(dp5180
g38
I3808094875
sg32
VWeaponDrop
p5181
sg221
I24
sg44
(lp5182
I2758383128
asg35
VPT5M54.3781602S
p5183
sg224
I1
sg225
VP0DT0H0M13.4500S
p5184
sg39
(dp5185
g41
VEG Roy HCS
p5186
sg43
Nssa(dp5187
g38
I4096745987
sg32
VWeaponDrop
p5188
sg221
I19
sg44
(lp5189
I2758383128
asg35
VPT5M54.3781602S
p5190
sg224
I10
sg225
VP0DT0H0M48.1000S
p5191
sg39
(dp5192
g41
VEG Roy HCS
p5193
sg43
Nssa(dp5194
g179
I4096745987
sg180
I00
sg181
I00
sg182
(dp5195
g41
VEG Lunchbox HCS
p5196
sg43
Nssg185
(lp5197
I2758383128
asg187
I00
sg188
I01
sg189
I1
sg190
I0
sg191
I1
sg192
(dp5198
Vy
F6.8241863299999999
sVx
F-15.7216024
sVz
F1.6740782299999999
ssg194
(dp5199
Vy
F7.3402010000000004
sVx
F-6.8982729999999997
sVz
F1.3848116399999999
ssg196
I00
sg197
(dp5200
g41
VCLG Frosty HCS
p5201
sg43
Nssg200
(lp5202
sg202
(lp5203
(dp5204
g41
VEG Roy HCS
p5205
sg43
Nsasg204
I01
sg35
VPT5M54.5181542S
p5206
sg32
VDeath
p5207
sg207
I1
sa(dp5208
g32
VMedal
p5209
sg39
(dp5210
g41
VEG Lunchbox HCS
p5211
sg43
Nssg212
I3261908037
sg35
VPT5M54.5251537S
p5212
sa(dp5213
g38
I723388907
sg32
VWeaponDrop
p5214
sg221
I54
sg44
(lp5215
I89283061
asg35
VPT5M54.5261534S
p5216
sg224
I18
sg225
VP0DT0H0M8.4500S
p5217
sg39
(dp5218
g41
VCLG Frosty HCS
p5219
sg43
Nssa(dp5220
g38
I424645655
sg32
VWeaponDrop
p5221
sg221
I6
sg44
(lp5222
I1327094800
asg35
VPT5M54.5261534S
p5223
sg224
I0
sg225
VP0DT0H0M3.6833S
p5224
sg39
(dp5225
g41
VCLG Frosty HCS
p5226
sg43
Nssa(dp5227
g38
I4096745987
sg32
VWeaponDrop
p5228
sg221
I1
sg44
(lp5229
I2758383128
asg35
VPT6M1.6961381S
p5230
sg224
I0
sg225
VP0DT0H0M10.2833S
p5231
sg39
(dp5232
g41
VEG Snip3downHCS
p5233
sg43
Nssa(dp5234
g38
I523953283
sg39
(dp5235
g41
VEG Snip3downHCS
p5236
sg43
Nssg44
(lp5237
I2208825748
asg32
VWeaponPickup
p5238
sg35
VPT6M1.6961381S
p5239
sa(dp5240
g179
I523953283
sg180
I00
sg181
I01
sg182
(dp5241
g41
VCLG Royal 2
p5242
sg43
Nssg185
(lp5243
I2208825748
asg187
I00
sg188
I00
sg189
I1
sg190
I0
sg191
I1
sg192
(dp5244
Vy
F11.617676700000001
sVx
F-15.2098494
sVz
F1.3716002700000001
ssg194
(dp5245
Vy
F11.3914013
sVx
F-14.8925667
sVz
F1.366204
ssg196
I00
sg197
(dp5246
g41
VEG Lunchbox HCS
p5247
sg43
Nssg200
(lp5248
sg202
(lp5249
(dp5250
g41
VCLG LethuL HCS
p5251
sg43
Nsasg204
I00
sg35
VPT6M2.1784519S
p5252
sg32
VDeath
p5253
sg207
I1
sa(dp5254
g32
VMedal
p5255
sg39
(dp5256
g41
VCLG Royal 2
p5257
sg43
Nssg212
I2287626681
sg35
VPT6M2.1791367S
p5258
sa(dp5259
g38
I313138863
sg32
VWeaponDrop
p5260
sg221
I4
sg44
(lp5261
I1095363701
asg35
VPT6M2.1804972S
p5262
sg224
I1
sg225
VP0DT0H0M3.6500S
p5263
sg39
(dp5264
g41
VEG Lunchbox HCS
p5265
sg43
Nssa(dp5266
g38
I313138863
sg32
VWeaponDrop
p5267
sg221
I0
sg44
(lp5268
I1095363701
asg35
VPT6M2.1804972S
p5269
sg224
I0
sg225
VP0DT0S
p5270
sg39
(dp5271
g41
VEG Lunchbox HCS
p5272
sg43
Nssa(dp5273
g38
I4096745987
sg32
VWeaponDrop
p5274
sg221
I10
sg44
(lp5275
I2758383128
asg35
VPT6M2.1825144S
p5276
sg224
I5
sg225
VP0DT0H0M10.5500S
p5277
sg39
(dp5278
g41
VEG Lunchbox HCS
p5279
sg43
Nssa(dp5280
g179
I313138863
sg180
I00
sg181
I01
sg182
(dp5281
g41
VEG Lunchbox HCS
p5282
sg43
Nssg185
(lp5283
I1095363701
asg187
I00
sg188
I00
sg189
I1
sg190
I0
sg191
I1
sg192
(dp5284
Vy
F11.3914013
sVx
F-14.8925667
sVz
F1.5912040000000001
ssg194
(dp5285
Vy
F11.617676700000001
sVx
F-15.2098494
sVz
F1.3716002700000001
ssg196
I00
sg197
(dp5286
g41
VCLG Royal 2
p5287
sg43
Nssg200
(lp5288
sg202
(lp5289
sg204
I00
sg35
VPT6M2.1825144S
p5290
sg32
VDeath
p5291
sg207
I1
sa(dp5292
g32
VMedal
p5293
sg39
(dp5294
g41
VEG Lunchbox HCS
p5295
sg43
Nssg212
I250435527
sg35
VPT6M2.1831369S
p5296
sa(dp5297
g38
I523953283
sg32
VWeaponDrop
p5298
sg221
I4
sg44
(lp5299
I2208825748
asg35
VPT6M2.1831369S
p5300
sg224
I3
sg225
VP0DT0H0M9.8833S
p5301
sg39
(dp5302
g41
VCLG Royal 2
p5303
sg43
Nssa(dp5304
g38
I523953283
sg32
VWeaponDrop
p5305
sg221
I0
sg44
(lp5306
I2208825748
asg35
VPT6M2.1831369S
p5307
sg224
I0
sg225
VP0DT0S
p5308
sg39
(dp5309
g41
VCLG Royal 2
p5310
sg43
Nssa(dp5311
g38
I4096745987
sg32
VWeaponDrop
p5312
sg221
I0
sg44
(lp5313
I2758383128
asg35
VPT6M2.1844808S
p5314
sg224
I0
sg225
VP0DT0H0M3.4667S
p5315
sg39
(dp5316
g41
VCLG Royal 2
p5317
sg43
Nssa(dp5318
g38
I313138863
sg39
(dp5319
g41
VEG Roy HCS
p5320
sg43
Nssg44
(lp5321
I1095363701
asg32
VWeaponPickup
p5322
sg35
VPT6M2.8261333S
p5323
sa(dp5324
g38
I4096745987
sg39
(dp5325
g41
VEG Roy HCS
p5326
sg43
Nssg44
(lp5327
I2758383128
asg32
VWeaponPickup
p5328
sg35
VPT6M2.8261333S
p5329
sa(dp5330
g32
VPlayerSpawn
p5331
sg39
(dp5332
g41
VEG Roy HCS
p5333
sg43
Nssg35
VPT6M2.8261333S
p5334
sa(dp5335
g38
I313138863
sg39
(dp5336
g41
VCLG Frosty HCS
p5337
sg43
Nssg44
(lp5338
I1095363701
asg32
VWeaponPickup
p5339
sg35
VPT6M2.9641317S
p5340
sa(dp5341
g38
I4096745987
sg39
(dp5342
g41
VCLG Frosty HCS
p5343
sg43
Nssg44
(lp5344
I2758383128
asg32
VWeaponPickup
p5345
sg35
VPT6M2.9651323S
p5346
sa(dp5347
g32
VPlayerSpawn
p5348
sg39
(dp5349
g41
VCLG Frosty HCS
p5350
sg43
Nssg35
VPT6M2.9651323S
p5351
sa(dp5352
g38
I2244200496
sg39
(dp5353
g41
VEG SuspectorHCS
p5354
sg43
Nssg44
(lp5355
I2758383128
asg32
VWeaponPickup
p5356
sg35
VPT6M3.9561256S
p5357
sa(dp5358
g32
VImpulse
p5359
sg39
(dp5360
g41
VEG SuspectorHCS
p5361
sg43
Nssg353
I4191318012
sg35
VPT6M3.9561256S
p5362
sa(dp5363
g32
VImpulse
p5364
sg39
(dp5365
g41
VEG SuspectorHCS
p5366
sg43
Nssg353
I1039658009
sg35
VPT6M3.9561256S
p5367
sa(dp5368
g38
I2244200496
sg32
VWeaponDrop
p5369
sg221
I0
sg44
(lp5370
I2758383128
asg35
VPT6M5.1661753S
p5371
sg224
I0
sg225
VP0DT0H0M0.8833S
p5372
sg39
(dp5373
g41
VEG SuspectorHCS
p5374
sg43
Nssa(dp5375
g32
VImpulse
p5376
sg39
(dp5377
g41
VEG SuspectorHCS
p5378
sg43
Nssg353
I3435524855
sg35
VPT6M5.1662423S
p5379
sa(dp5380
g38
I2244200496
sg39
(dp5381
g41
VEG SuspectorHCS
p5382
sg43
Nssg44
(lp5383
I2758383128
asg32
VWeaponPickup
p5384
sg35
VPT6M6.3041087S
p5385
sa(dp5386
g32
VImpulse
p5387
sg39
(dp5388
g41
VEG SuspectorHCS
p5389
sg43
Nssg353
I4191318012
sg35
VPT6M6.3051104S
p5390
sa(dp5391
g38
I313138863
sg39
(dp5392
g41
VEG Lunchbox HCS
p5393
sg43
Nssg44
(lp5394
I1095363701
asg32
VWeaponPickup
p5395
sg35
VPT6M10.4350844S
p5396
sa(dp5397
g38
I4096745987
sg39
(dp5398
g41
VEG Lunchbox HCS
p5399
sg43
Nssg44
(lp5400
I2758383128
asg32
VWeaponPickup
p5401
sg35
VPT6M10.4350844S
p5402
sa(dp5403
g32
VPlayerSpawn
p5404
sg39
(dp5405
g41
VEG Lunchbox HCS
p5406
sg43
Nssg35
VPT6M10.4350844S
p5407
sa(dp5408
g38
I313138863
sg39
(dp5409
g41
VCLG Royal 2
p5410
sg43
Nssg44
(lp5411
I1095363701
asg32
VWeaponPickup
p5412
sg35
VPT6M10.4840838S
p5413
sa(dp5414
g38
I4096745987
sg39
(dp5415
g41
VCLG Royal 2
p5416
sg43
Nssg44
(lp5417
I2758383128
asg32
VWeaponPickup
p5418
sg35
VPT6M10.4850843S
p5419
sa(dp5420
g32
VPlayerSpawn
p5421
sg39
(dp5422
g41
VCLG Royal 2
p5423
sg43
Nssg35
VPT6M10.4850843S
p5424
sa(dp5425
g179
I313138863
sg180
I00
sg181
I00
sg182
(dp5426
g41
VEG Snip3downHCS
p5427
sg43
Nssg185
(lp5428
I1095363701
asg187
I00
sg188
I01
sg189
I1
sg190
I0
sg191
I1
sg192
(dp5429
Vy
F12.163919999999999
sVx
F-1.88376451
sVz
F2.2930238200000002
ssg194
(dp5430
Vy
F11.743124999999999
sVx
F-4.1339980000000001
sVz
F2.2893840000000001
ssg196
I00
sg197
(dp5431
g41
VCLG LethuL HCS
p5432
sg43
Nssg200
(lp5433
sg202
(lp5434
(dp5435
g41
VEG Roy HCS
p5436
sg43
Nsasg204
I00
sg35
VPT6M10.7544796S
p5437
sg32
VDeath
p5438
sg207
I1
sa(dp5439
g38
I313138863
sg32
VWeaponDrop
p5440
sg221
I0
sg44
(lp5441
I1095363701
asg35
VPT6M10.7560824S
p5442
sg224
I0
sg225
VP0DT0H0M1.7500S
p5443
sg39
(dp5444
g41
VCLG LethuL HCS
p5445
sg43
Nssa(dp5446
g38
I4096745987
sg32
VWeaponDrop
p5447
sg221
I12
sg44
(lp5448
I2758383128
asg35
VPT6M10.7560824S
p5449
sg224
I6
sg225
VP0DT0H0M34.0167S
p5450
sg39
(dp5451
g41
VCLG LethuL HCS
p5452
sg43
Nssa(dp5453
g38
I4096745987
sg32
VWeaponDrop
p5454
sg221
I0
sg44
(lp5455
I2758383128
asg35
VPT6M10.7560824S
p5456
sg224
I0
sg225
VP0DT0S
p5457
sg39
(dp5458
g41
VCLG LethuL HCS
p5459
sg43
Nssa(dp5460
g38
I2244200496
sg32
VWeaponDrop
p5461
sg221
I0
sg44
(lp5462
I2758383128
asg35
VPT6M10.9133186S
p5463
sg224
I0
sg225
VP0DT0H0M4.4500S
p5464
sg39
(dp5465
g41
VEG SuspectorHCS
p5466
sg43
Nssa(dp5467
g32
VImpulse
p5468
sg39
(dp5469
g41
VEG SuspectorHCS
p5470
sg43
Nssg353
I3435524855
sg35
VPT6M10.9140809S
p5471
sa(dp5472
g179
I4096745987
sg180
I00
sg181
I00
sg182
(dp5473
g41
VCLG Frosty HCS
p5474
sg43
Nssg185
(lp5475
I2758383128
asg187
I00
sg188
I01
sg189
I1
sg190
I0
sg191
I1
sg192
(dp5476
Vy
F-5.3952245699999999
sVx
F3.5588805699999999
sVz
F0.85549070000000005
ssg194
(dp5477
Vy
F2.7284280000000001
sVx
F-1.7741888800000001
sVz
F1.3306450000000001
ssg196
I00
sg197
(dp5478
g41
VEG SuspectorHCS
p5479
sg43
Nssg200
(lp5480
sg202
(lp5481
(dp5482
g41
VCLG Snake Bite
p5483
sg43
Nsasg204
I01
sg35
VPT6M11.1120848S
p5484
sg32
VDeath
p5485
sg207
I1
sa(dp5486
g32
VMedal
p5487
sg39
(dp5488
g41
VCLG Frosty HCS
p5489
sg43
Nssg212
I164204247
sg35
VPT6M11.1130848S
p5490
sa(dp5491
g32
VMedal
p5492
sg39
(dp5493
g41
VCLG Frosty HCS
p5494
sg43
Nssg212
I3261908037
sg35
VPT6M11.1140795S
p5495
sa(dp5496
g38
I313138863
sg32
VWeaponDrop
p5497
sg221
I0
sg44
(lp5498
I1095363701
asg35
VPT6M11.1140795S
p5499
sg224
I0
sg225
VP0DT0H0M1.9000S
p5500
sg39
(dp5501
g41
VEG SuspectorHCS
p5502
sg43
Nssa(dp5503
g38
I4108759423
sg32
VWeaponDrop
p5504
sg221
I25
sg44
(lp5505
I2758383128
asg35
VPT6M11.1140795S
p5506
sg224
I6
sg225
VP0DT0H0M33.1833S
p5507
sg39
(dp5508
g41
VEG SuspectorHCS
p5509
sg43
Nssa(dp5510
g179
I3190813201
sg180
I00
sg181
I00
sg182
(dp5511
g41
VEG Snip3downHCS
p5512
sg43
Nssg185
(lp5513
sg187
I00
sg188
I01
sg189
I1
sg190
I0
sg191
I1
sg192
(dp5514
Vy
F6.2439127000000001
sVx
F-2.8400692900000002
sVz
F3.8204250000000002
ssg194
(dp5515
Vy
F5.8416829999999997
sVx
F3.1766314499999999
sVz
F4.0424300000000004
ssg196
I00
sg197
(dp5516
g41
VCLG Snake Bite
p5517
sg43
Nssg200
(lp5518
sg202
(lp5519
(dp5520
g41
VEG Roy HCS
p5521
sg43
Nsasg204
I00
sg35
VPT6M14.052061S
p5522
sg32
VDeath
p5523
sg207
I1
sa(dp5524
g32
VMedal
p5525
sg39
(dp5526
g41
VEG Snip3downHCS
p5527
sg43
Nssg212
I2078758684
sg35
VPT6M14.0540608S
p5528
sa(dp5529
g38
I313138863
sg32
VWeaponDrop
p5530
sg221
I0
sg44
(lp5531
I1095363701
asg35
VPT6M14.0540608S
p5532
sg224
I0
sg225
VP0DT0H0M0.7333S
p5533
sg39
(dp5534
g41
VCLG Snake Bite
p5535
sg43
Nssa(dp5536
g38
I4096745987
sg32
VWeaponDrop
p5537
sg221
I21
sg44
(lp5538
I2758383128
asg35
VPT6M14.0540608S
p5539
sg224
I8
sg225
VP0DT0H0M42.3000S
p5540
sg39
(dp5541
g41
VCLG Snake Bite
p5542
sg43
Nssa(dp5543
g38
I2244200496
sg39
(dp5544
g41
VEG Roy HCS
p5545
sg43
Nssg44
(lp5546
I2758383128
asg32
VWeaponPickup
p5547
sg35
VPT6M14.5882172S
p5548
sa(dp5549
g32
VImpulse
p5550
sg39
(dp5551
g41
VEG Roy HCS
p5552
sg43
Nssg353
I4191318012
sg35
VPT6M14.5890577S
p5553
sa(dp5554
g179
I4106030681
sg180
I00
sg181
I00
sg182
(dp5555
g41
VCLG Frosty HCS
p5556
sg43
Nssg185
(lp5557
sg187
I00
sg188
I01
sg189
I1
sg190
I0
sg191
I1
sg192
(dp5558
Vy
F-0.94123630000000003
sVx
F-5.2499675799999999
sVz
F0.67513820000000002
ssg194
(dp5559
Vy
F6.1853642500000001
sVx
F-6.2964589999999996
sVz
F0.57311060000000003
ssg196
I00
sg197
(dp5560
g41
VEG Roy HCS
p5561
sg43
Nssg200
(lp5562
sg202
(lp5563
(dp5564
g41
VCLG Royal 2
p5565
sg43
Nsasg204
I00
sg35
VPT6M15.6636669S
p5566
sg32
VDeath
p5567
sg207
I1
sa(dp5568
g32
VMedal
p5569
sg39
(dp5570
g41
VCLG Frosty HCS
p5571
sg43
Nssg212
I2028249938
sg35
VPT6M15.6640495S
p5572
sa(dp5573
g32
VImpulse
p5574
sg39
(dp5575
g41
VCLG Frosty HCS
p5576
sg43
Nssg353
I2299858338
sg35
VPT6M15.6640495S
p5577
sa(dp5578
g32
VMedal
p5579
sg39
(dp5580
g41
VCLG Frosty HCS
p5581
sg43
Nssg212
I2078758684
sg35
VPT6M15.6640495S
p5582
sa(dp5583
g38
I313138863
sg32
VWeaponDrop
p5584
sg221
I0
sg44
(lp5585
I1095363701
asg35
VPT6M15.6650502S
p5586
sg224
I0
sg225
VP0DT0H0M0.7000S
p5587
sg39
(dp5588
g41
VEG Roy HCS
p5589
sg43
Nssa(dp5590
g38
I4096745987
sg32
VWeaponDrop
p5591
sg221
I5
sg44
(lp5592
I2758383128
asg35
VPT6M15.6650502S
p5593
sg224
I3
sg225
VP0DT0H0M11.0333S
p5594
sg39
(dp5595
g41
VEG Roy HCS
p5596
sg43
Nssa(dp5597
g38
I2244200496
sg32
VWeaponDrop
p5598
sg221
I0
sg44
(lp5599
I2758383128
asg35
VPT6M15.6650502S
p5600
sg224
I0
sg225
VP0DT0H0M0.9000S
p5601
sg39
(dp5602
g41
VEG Roy HCS
p5603
sg43
Nssa(dp5604
g32
VImpulse
p5605
sg39
(dp5606
g41
VEG Roy HCS
p5607
sg43
Nssg353
I3435524855
sg35
VPT6M15.6740565S
p5608
sa(dp5609
g179
I4096745987
sg180
I00
sg181
I00
sg182
(dp5610
g41
VCLG Royal 2
p5611
sg43
Nssg185
(lp5612
I2758383128
asg187
I00
sg188
I01
sg189
I1
sg190
I0
sg191
I1
sg192
(dp5613
Vy
F-10.755884200000001
sVx
F4.0244593599999998
sVz
F3.4168913399999998
ssg194
(dp5614
Vy
F5.3430876700000001
sVx
F-2.6256103500000001
sVz
F3.81241465
ssg196
I00
sg197
(dp5615
g41
VEG Snip3downHCS
p5616
sg43
Nssg200
(lp5617
sg202
(lp5618
(dp5619
g41
VCLG Snake Bite
p5620
sg43
Nsasg204
I01
sg35
VPT6M16.8101787S
p5621
sg32
VDeath
p5622
sg207
I1
sa(dp5623
g32
VMedal
p5624
sg39
(dp5625
g41
VCLG Royal 2
p5626
sg43
Nssg212
I3261908037
sg35
VPT6M16.8110427S
p5627
sa(dp5628
g38
I313138863
sg32
VWeaponDrop
p5629
sg221
I13
sg44
(lp5630
I1095363701
asg35
VPT6M16.8120427S
p5631
sg224
I4
sg225
VP0DT0H0M5.7667S
p5632
sg39
(dp5633
g41
VEG Snip3downHCS
p5634
sg43
Nssa(dp5635
g38
I313138863
sg32
VWeaponDrop
p5636
sg221
I0
sg44
(lp5637
I1095363701
asg35
VPT6M16.8120427S
p5638
sg224
I0
sg225
VP0DT0S
p5639
sg39
(dp5640
g41
VEG Snip3downHCS
p5641
sg43
Nssa(dp5642
g38
I523953283
sg32
VWeaponDrop
p5643
sg221
I4
sg44
(lp5644
I2208825748
asg35
VPT6M16.8120427S
p5645
sg224
I0
sg225
VP0DT0H0M9.4833S
p5646
sg39
(dp5647
g41
VEG Snip3downHCS
p5648
sg43
Nssa(dp5649
g38
I2244200496
sg39
(dp5650
g41
VEG Lunchbox HCS
p5651
sg43
Nssg44
(lp5652
I2758383128
asg32
VWeaponPickup
p5653
sg35
VPT6M17.5305855S
p5654
sa(dp5655
g32
VImpulse
p5656
sg39
(dp5657
g41
VEG Lunchbox HCS
p5658
sg43
Nssg353
I4191318012
sg35
VPT6M17.5310418S
p5659
sa(dp5660
g38
I313138863
sg39
(dp5661
g41
VCLG LethuL HCS
p5662
sg43
Nssg44
(lp5663
I1095363701
asg32
VWeaponPickup
p5664
sg35
VPT6M18.7850314S
p5665
sa(dp5666
g38
I4096745987
sg39
(dp5667
g41
VCLG LethuL HCS
p5668
sg43
Nssg44
(lp5669
I2758383128
asg32
VWeaponPickup
p5670
sg35
VPT6M18.7850314S
p5671
sa(dp5672
g32
VPlayerSpawn
p5673
sg39
(dp5674
g41
VCLG LethuL HCS
p5675
sg43
Nssg35
VPT6M18.7850314S
p5676
sa(dp5677
g38
I313138863
sg39
(dp5678
g41
VEG SuspectorHCS
p5679
sg43
Nssg44
(lp5680
I1095363701
asg32
VWeaponPickup
p5681
sg35
VPT6M19.1510309S
p5682
sa(dp5683
g38
I4096745987
sg39
(dp5684
g41
VEG SuspectorHCS
p5685
sg43
Nssg44
(lp5686
I2758383128
asg32
VWeaponPickup
p5687
sg35
VPT6M19.1510309S
p5688
sa(dp5689
g32
VPlayerSpawn
p5690
sg39
(dp5691
g41
VEG SuspectorHCS
p5692
sg43
Nssg35
VPT6M19.1510309S
p5693
sa(dp5694
g38
I2244200496
sg32
VWeaponDrop
p5695
sg221
I0
sg44
(lp5696
I2758383128
asg35
VPT6M19.1710273S
p5697
sg224
I0
sg225
VP0DT0H0M1.5000S
p5698
sg39
(dp5699
g41
VEG Lunchbox HCS
p5700
sg43
Nssa(dp5701
g32
VImpulse
p5702
sg39
(dp5703
g41
VEG Lunchbox HCS
p5704
sg43
Nssg353
I3435524855
sg35
VPT6M19.1720282S
p5705
sa(dp5706
g38
I2244200496
sg39
(dp5707
g41
VEG Lunchbox HCS
p5708
sg43
Nssg44
(lp5709
I2758383128
asg32
VWeaponPickup
p5710
sg35
VPT6M20.5667944S
p5711
sa(dp5712
g32
VImpulse
p5713
sg39
(dp5714
g41
VEG Lunchbox HCS
p5715
sg43
Nssg353
I4191318012
sg35
VPT6M20.5670199S
p5716
sa(dp5717
g32
VMedal
p5718
sg39
(dp5719
g41
VEG Lunchbox HCS
p5720
sg43
Nssg212
I3886151616
sg35
VPT6M20.7960162S
p5721
sa(dp5722
g32
VMedal
p5723
sg39
(dp5724
g41
VEG SuspectorHCS
p5725
sg43
Nssg212
I1494478183
sg35
VPT6M20.7960162S
p5726
sa(dp5727
g32
VMedal
p5728
sg39
(dp5729
g41
VEG Roy HCS
p5730
sg43
Nssg212
I1494478183
sg35
VPT6M20.7960162S
p5731
sa(dp5732
g32
VImpulse
p5733
sg39
(dp5734
g41
VEG Lunchbox HCS
p5735
sg43
Nssg353
I2944278681
sg35
VPT6M20.7960162S
p5736
sa(dp5737
g38
I2244200496
sg32
VWeaponDrop
p5738
sg221
I0
sg44
(lp5739
I2758383128
asg35
VPT6M20.7970177S
p5740
sg224
I0
sg225
VP0DT0H0M0.0833S
p5741
sg39
(dp5742
g41
VEG Lunchbox HCS
p5743
sg43
Nssa(dp5744
g38
I313138863
sg39
(dp5745
g41
VCLG Snake Bite
p5746
sg43
Nssg44
(lp5747
I1095363701
asg32
VWeaponPickup
p5748
sg35
VPT6M22.0630097S
p5749
sa(dp5750
g38
I4096745987
sg39
(dp5751
g41
VCLG Snake Bite
p5752
sg43
Nssg44
(lp5753
I2758383128
asg32
VWeaponPickup
p5754
sg35
VPT6M22.0640102S
p5755
sa(dp5756
g32
VPlayerSpawn
p5757
sg39
(dp5758
g41
VCLG Snake Bite
p5759
sg43
Nssg35
VPT6M22.0640102S
p5760
sa(dp5761
g179
I4096745987
sg180
I00
sg181
I00
sg182
(dp5762
g41
VCLG Frosty HCS
p5763
sg43
Nssg185
(lp5764
I2758383128
asg187
I00
sg188
I01
sg189
I1
sg190
I0
sg191
I1
sg192
(dp5765
Vy
F7.6170916599999998
sVx
F-12.9914007
sVz
F1.23728609
ssg194
(dp5766
Vy
F-1.3284609999999999
sVx
F-18.433299999999999
sVz
F2.5123271900000002
ssg196
I00
sg197
(dp5767
g41
VEG Lunchbox HCS
p5768
sg43
Nssg200
(lp5769
sg202
(lp5770
(dp5771
g41
VCLG Royal 2
p5772
sg43
Nsasg204
I00
sg35
VPT6M23.2810012S
p5773
sg32
VDeath
p5774
sg207
I1
sa(dp5775
g38
I313138863
sg32
VWeaponDrop
p5776
sg221
I0
sg44
(lp5777
I1095363701
asg35
VPT6M23.2830018S
p5778
sg224
I0
sg225
VP0DT0H0M0.9667S
p5779
sg39
(dp5780
g41
VEG Lunchbox HCS
p5781
sg43
Nssa(dp5782
g38
I4096745987
sg32
VWeaponDrop
p5783
sg221
I0
sg44
(lp5784
I2758383128
asg35
VPT6M23.2830018S
p5785
sg224
I0
sg225
VP0DT0H0M10.2667S
p5786
sg39
(dp5787
g41
VEG Lunchbox HCS
p5788
sg43
Nssa(dp5789
g38
I313138863
sg39
(dp5790
g41
VEG Roy HCS
p5791
sg43
Nssg44
(lp5792
I1095363701
asg32
VWeaponPickup
p5793
sg35
VPT6M23.7049995S
p5794
sa(dp5795
g38
I4096745987
sg39
(dp5796
g41
VEG Roy HCS
p5797
sg43
Nssg44
(lp5798
I2758383128
asg32
VWeaponPickup
p5799
sg35
VPT6M23.7059996S
p5800
sa(dp5801
g32
VPlayerSpawn
p5802
sg39
(dp5803
g41
VEG Roy HCS
p5804
sg43
Nssg35
VPT6M23.7059996S
p5805
sa(dp5806
g38
I313138863
sg39
(dp5807
g41
VEG Snip3downHCS
p5808
sg43
Nssg44
(lp5809
I1095363701
asg32
VWeaponPickup
p5810
sg35
VPT6M24.8360035S
p5811
sa(dp5812
g38
I4096745987
sg39
(dp5813
g41
VEG Snip3downHCS
p5814
sg43
Nssg44
(lp5815
I2758383128
asg32
VWeaponPickup
p5816
sg35
VPT6M24.8360035S
p5817
sa(dp5818
g32
VPlayerSpawn
p5819
sg39
(dp5820
g41
VEG Snip3downHCS
p5821
sg43
Nssg35
VPT6M24.8360035S
p5822
sa(dp5823
g38
I313138863
sg32
VWeaponDrop
p5824
sg221
I0
sg44
(lp5825
I1095363701
asg35
VPT6M25.2549895S
p5826
sg224
I0
sg225
VP0DT0H0M0.9333S
p5827
sg39
(dp5828
g41
VCLG Royal 2
p5829
sg43
Nssa(dp5830
g38
I523953283
sg39
(dp5831
g41
VCLG Royal 2
p5832
sg43
Nssg44
(lp5833
I2208825748
asg32
VWeaponPickup
p5834
sg35
VPT6M25.2559901S
p5835
sa(dp5836
g38
I313138863
sg32
VWeaponDrop
p5837
sg221
I0
sg44
(lp5838
I1095363701
asg35
VPT6M26.3279813S
p5839
sg224
I0
sg225
VP0DT0H0M5.0333S
p5840
sg39
(dp5841
g41
VCLG LethuL HCS
p5842
sg43
Nssa(dp5843
g38
I723523180
sg39
(dp5844
g41
VCLG LethuL HCS
p5845
sg43
Nssg44
(lp5846
I2758383128
asg32
VWeaponPickupPad
p5847
sg35
VPT6M26.3279813S
p5848
sa(dp5849
g38
I723523180
sg39
(dp5850
g41
VCLG LethuL HCS
p5851
sg43
Nssg44
(lp5852
I2758383128
asg32
VWeaponPickup
p5853
sg35
VPT6M26.3289824S
p5854
sa(dp5855
g38
I313138863
sg32
VWeaponDrop
p5856
sg221
I11
sg44
(lp5857
I1095363701
asg35
VPT6M28.0469702S
p5858
sg224
I2
sg225
VP0DT0H0M6.6833S
p5859
sg39
(dp5860
g41
VCLG Frosty HCS
p5861
sg43
Nssa(dp5862
g38
I4108759423
sg39
(dp5863
g41
VCLG Frosty HCS
p5864
sg43
Nssg44
(lp5865
I2758383128
asg32
VWeaponPickup
p5866
sg35
VPT6M28.0479744S
p5867
sa(dp5868
g38
I313138863
sg39
(dp5869
g41
VEG Lunchbox HCS
p5870
sg43
Nssg44
(lp5871
I1095363701
asg32
VWeaponPickup
p5872
sg35
VPT6M31.40695S
p5873
sa(dp5874
g38
I4096745987
sg39
(dp5875
g41
VEG Lunchbox HCS
p5876
sg43
Nssg44
(lp5877
I2758383128
asg32
VWeaponPickup
p5878
sg35
VPT6M31.40695S
p5879
sa(dp5880
g32
VPlayerSpawn
p5881
sg39
(dp5882
g41
VEG Lunchbox HCS
p5883
sg43
Nssg35
VPT6M31.40695S
p5884
sa(dp5885
g179
I4096745987
sg180
I00
sg181
I00
sg182
(dp5886
g41
VCLG Snake Bite
p5887
sg43
Nssg185
(lp5888
I2758383128
asg187
I00
sg188
I01
sg189
I1
sg190
I0
sg191
I1
sg192
(dp5889
Vy
F-8.8902190000000001
sVx
F-14.5785847
sVz
F2.4768915200000001
ssg194
(dp5890
Vy
F2.0795471700000001
sVx
F-18.362483999999998
sVz
F2.6354472599999998
ssg196
I00
sg197
(dp5891
g41
VEG Snip3downHCS
p5892
sg43
Nssg200
(lp5893
sg202
(lp5894
sg204
I01
sg35
VPT6M39.0248052S
p5895
sg32
VDeath
p5896
sg207
I1
sa(dp5897
g32
VImpulse
p5898
sg39
(dp5899
g41
VCLG Snake Bite
p5900
sg43
Nssg353
I3174430457
sg35
VPT6M39.0259004S
p5901
sa(dp5902
g32
VMedal
p5903
sg39
(dp5904
g41
VCLG Snake Bite
p5905
sg43
Nssg212
I3653057799
sg35
VPT6M39.0269006S
p5906
sa(dp5907
g38
I313138863
sg32
VWeaponDrop
p5908
sg221
I0
sg44
(lp5909
I1095363701
asg35
VPT6M39.0269006S
p5910
sg224
I0
sg225
VP0DT0H0M0.5167S
p5911
sg39
(dp5912
g41
VEG Snip3downHCS
p5913
sg43
Nssa(dp5914
g38
I4096745987
sg32
VWeaponDrop
p5915
sg221
I10
sg44
(lp5916
I2758383128
asg35
VPT6M39.0269006S
p5917
sg224
I6
sg225
VP0DT0H0M13.4500S
p5918
sg39
(dp5919
g41
VEG Snip3downHCS
p5920
sg43
Nssa(dp5921
g179
I523953283
sg180
I00
sg181
I00
sg182
(dp5922
g41
VCLG Royal 2
p5923
sg43
Nssg185
(lp5924
I2208825748
asg187
I00
sg188
I01
sg189
I1
sg190
I0
sg191
I1
sg192
(dp5925
Vy
F3.9286081799999999
sVx
F-13.7135973
sVz
F1.62111735
ssg194
(dp5926
Vy
F-2.799207
sVx
F-22.441759999999999
sVz
F3.3779690000000002
ssg196
I00
sg197
(dp5927
g41
VEG Roy HCS
p5928
sg43
Nssg200
(lp5929
sg202
(lp5930
sg204
I01
sg35
VPT6M41.4068865S
p5931
sg32
VDeath
p5932
sg207
I1
sa(dp5933
g32
VMedal
p5934
sg39
(dp5935
g41
VCLG Royal 2
p5936
sg43
Nssg212
I3261908037
sg35
VPT6M41.4162569S
p5937
sa(dp5938
g38
I313138863
sg32
VWeaponDrop
p5939
sg221
I0
sg44
(lp5940
I1095363701
asg35
VPT6M41.4168862S
p5941
sg224
I0
sg225
VP0DT0H0M2.1667S
p5942
sg39
(dp5943
g41
VEG Roy HCS
p5944
sg43
Nssa(dp5945
g38
I4096745987
sg32
VWeaponDrop
p5946
sg221
I8
sg44
(lp5947
I2758383128
asg35
VPT6M41.4168862S
p5948
sg224
I3
sg225
VP0DT0H0M15.3333S
p5949
sg39
(dp5950
g41
VEG Roy HCS
p5951
sg43
Nssa(dp5952
g38
I4096745987
sg32
VWeaponDrop
p5953
sg221
I15
sg44
(lp5954
I2758383128
asg35
VPT6M41.9330033S
p5955
sg224
I6
sg225
VP0DT0H0M18.1000S
p5956
sg39
(dp5957
g41
VEG SuspectorHCS
p5958
sg43
Nssa(dp5959
g38
I523953283
sg39
(dp5960
g41
VEG SuspectorHCS
p5961
sg43
Nssg44
(lp5962
I2208825748
asg32
VWeaponPickup
p5963
sg35
VPT6M41.9330033S
p5964
sa(dp5965
g179
I4096745987
sg180
I00
sg181
I00
sg182
(dp5966
g41
VEG Lunchbox HCS
p5967
sg43
Nssg185
(lp5968
I2758383128
asg187
I00
sg188
I01
sg189
I1
sg190
I0
sg191
I1
sg192
(dp5969
Vy
F0.816029
sVx
F8.2204490000000003
sVz
F-0.0031319856599999999
ssg194
(dp5970
Vy
F2.5661728400000001
sVx
F-0.67108374800000004
sVz
F0.70397580000000004
ssg196
I00
sg197
(dp5971
g41
VCLG Frosty HCS
p5972
sg43
Nssg200
(lp5973
sg202
(lp5974
(dp5975
g41
VEG SuspectorHCS
p5976
sg43
Nsasg204
I00
sg35
VPT6M42.1020324S
p5977
sg32
VDeath
p5978
sg207
I1
sa(dp5979
g38
I4108759423
sg32
VWeaponDrop
p5980
sg221
I12
sg44
(lp5981
I2758383128
asg35
VPT6M42.103881S
p5982
sg224
I6
sg225
VP0DT0H0M11.9000S
p5983
sg39
(dp5984
g41
VCLG Frosty HCS
p5985
sg43
Nssa(dp5986
g38
I4096745987
sg32
VWeaponDrop
p5987
sg221
I15
sg44
(lp5988
I2758383128
asg35
VPT6M42.103881S
p5989
sg224
I8
sg225
VP0DT0H0M20.1333S
p5990
sg39
(dp5991
g41
VCLG Frosty HCS
p5992
sg43
Nssa(dp5993
g38
I2244200496
sg39
(dp5994
g41
VCLG Snake Bite
p5995
sg43
Nssg44
(lp5996
I2758383128
asg32
VWeaponPickup
p5997
sg35
VPT6M45.2633145S
p5998
sa(dp5999
g32
VImpulse
p6000
sg39
(dp6001
g41
VCLG Snake Bite
p6002
sg43
Nssg353
I4191318012
sg35
VPT6M45.2638613S
p6003
sa(dp6004
g32
VImpulse
p6005
sg39
(dp6006
g41
VCLG Snake Bite
p6007
sg43
Nssg353
I1039658009
sg35
VPT6M45.2638613S
p6008
sa(dp6009
g179
I723523180
sg180
I00
sg181
I00
sg182
(dp6010
g41
VCLG LethuL HCS
p6011
sg43
Nssg185
(lp6012
I2758383128
asg187
I00
sg188
I01
sg189
I1
sg190
I0
sg191
I1
sg192
(dp6013
Vy
F4.7566179999999996
sVx
F-2.2559452100000001
sVz
F3.8121407
ssg194
(dp6014
Vy
F2.099488
sVx
F-6.5132527400000004
sVz
F2.4481751900000002
ssg196
I00
sg197
(dp6015
g41
VEG SuspectorHCS
p6016
sg43
Nssg200
(lp6017
sg202
(lp6018
sg204
I00
sg35
VPT6M46.9288505S
p6019
sg32
VDeath
p6020
sg207
I1
sa(dp6021
g32
VMedal
p6022
sg39
(dp6023
g41
VCLG Snake Bite
p6024
sg43
Nssg212
I824733727
sg35
VPT6M46.9288505S
p6025
sa(dp6026
g38
I313138863
sg32
VWeaponDrop
p6027
sg221
I11
sg44
(lp6028
I1095363701
asg35
VPT6M46.9361623S
p6029
sg224
I10
sg225
VP0DT0H0M4.4667S
p6030
sg39
(dp6031
g41
VEG SuspectorHCS
p6032
sg43
Nssa(dp6033
g38
I523953283
sg32
VWeaponDrop
p6034
sg221
I6
sg44
(lp6035
I2208825748
asg35
VPT6M46.9361623S
p6036
sg224
I2
sg225
VP0DT0H0M5.0000S
p6037
sg39
(dp6038
g41
VEG SuspectorHCS
p6039
sg43
Nssa(dp6040
g38
I313138863
sg39
(dp6041
g41
VEG Snip3downHCS
p6042
sg43
Nssg44
(lp6043
I1095363701
asg32
VWeaponPickup
p6044
sg35
VPT6M47.0158501S
p6045
sa(dp6046
g38
I4096745987
sg39
(dp6047
g41
VEG Snip3downHCS
p6048
sg43
Nssg44
(lp6049
I2758383128
asg32
VWeaponPickup
p6050
sg35
VPT6M47.0168503S
p6051
sa(dp6052
g32
VPlayerSpawn
p6053
sg39
(dp6054
g41
VEG Snip3downHCS
p6055
sg43
Nssg35
VPT6M47.0168503S
p6056
sa(dp6057
g38
I2244200496
sg32
VWeaponDrop
p6058
sg221
I2
sg44
(lp6059
I2758383128
asg35
VPT6M47.4428468S
p6060
sg224
I0
sg225
VP0DT0H0M1.9167S
p6061
sg39
(dp6062
g41
VCLG Snake Bite
p6063
sg43
Nssa(dp6064
g32
VImpulse
p6065
sg39
(dp6066
g41
VCLG Snake Bite
p6067
sg43
Nssg353
I3435524855
sg35
VPT6M47.443847S
p6068
sa(dp6069
g38
I2244200496
sg39
(dp6070
g41
VCLG Snake Bite
p6071
sg43
Nssg44
(lp6072
I2758383128
asg32
VWeaponPickup
p6073
sg35
VPT6M48.6610987S
p6074
sa(dp6075
g32
VImpulse
p6076
sg39
(dp6077
g41
VCLG Snake Bite
p6078
sg43
Nssg353
I4191318012
sg35
VPT6M48.6610987S
p6079
sa(dp6080
g38
I2244200496
sg32
VWeaponDrop
p6081
sg221
I0
sg44
(lp6082
I2758383128
asg35
VPT6M49.3768445S
p6083
sg224
I0
sg225
VP0DT0H0M0.5667S
p6084
sg39
(dp6085
g41
VCLG Snake Bite
p6086
sg43
Nssa(dp6087
g32
VImpulse
p6088
sg39
(dp6089
g41
VCLG Snake Bite
p6090
sg43
Nssg353
I3435524855
sg35
VPT6M49.3778471S
p6091
sa(dp6092
g38
I313138863
sg39
(dp6093
g41
VEG Roy HCS
p6094
sg43
Nssg44
(lp6095
I1095363701
asg32
VWeaponPickup
p6096
sg35
VPT6M49.5258469S
p6097
sa(dp6098
g38
I4096745987
sg39
(dp6099
g41
VEG Roy HCS
p6100
sg43
Nssg44
(lp6101
I2758383128
asg32
VWeaponPickup
p6102
sg35
VPT6M49.5258469S
p6103
sa(dp6104
g32
VPlayerSpawn
p6105
sg39
(dp6106
g41
VEG Roy HCS
p6107
sg43
Nssg35
VPT6M49.5258469S
p6108
sa(dp6109
g38
I313138863
sg39
(dp6110
g41
VCLG Frosty HCS
p6111
sg43
Nssg44
(lp6112
I1095363701
asg32
VWeaponPickup
p6113
sg35
VPT6M50.2516999S
p6114
sa(dp6115
g38
I4096745987
sg39
(dp6116
g41
VCLG Frosty HCS
p6117
sg43
Nssg44
(lp6118
I2758383128
asg32
VWeaponPickup
p6119
sg35
VPT6M50.251847S
p6120
sa(dp6121
g32
VPlayerSpawn
p6122
sg39
(dp6123
g41
VCLG Frosty HCS
p6124
sg43
Nssg35
VPT6M50.251847S
p6125
sa(dp6126
g38
I2244200496
sg39
(dp6127
g41
VCLG Snake Bite
p6128
sg43
Nssg44
(lp6129
I2758383128
asg32
VWeaponPickup
p6130
sg35
VPT6M51.8108466S
p6131
sa(dp6132
g32
VImpulse
p6133
sg39
(dp6134
g41
VCLG Snake Bite
p6135
sg43
Nssg353
I4191318012
sg35
VPT6M51.811847S
p6136
sa(dp6137
g179
I4096745987
sg180
I00
sg181
I00
sg182
(dp6138
g41
VEG Roy HCS
p6139
sg43
Nssg185
(lp6140
I2758383128
asg187
I00
sg188
I01
sg189
I1
sg190
I0
sg191
I1
sg192
(dp6141
Vy
F-10.334668199999999
sVx
F-5.89068127
sVz
F2.3965885600000001
ssg194
(dp6142
Vy
F5.0861200000000002
sVx
F-5.0733110000000003
sVz
F2.4519136000000001
ssg196
I00
sg197
(dp6143
g41
VCLG Snake Bite
p6144
sg43
Nssg200
(lp6145
sg202
(lp6146
(dp6147
g41
VEG Lunchbox HCS
p6148
sg43
Nsa(dp6149
g41
VEG Snip3downHCS
p6150
sg43
Nsasg204
I01
sg35
VPT6M53.6588465S
p6151
sg32
VDeath
p6152
sg207
I1
sa(dp6153
g32
VMedal
p6154
sg39
(dp6155
g41
VEG Roy HCS
p6156
sg43
Nssg212
I2028249938
sg35
VPT6M53.6659549S
p6157
sa(dp6158
g32
VImpulse
p6159
sg39
(dp6160
g41
VEG Roy HCS
p6161
sg43
Nssg353
I2299858338
sg35
VPT6M53.6659549S
p6162
sa(dp6163
g32
VMedal
p6164
sg39
(dp6165
g41
VEG Roy HCS
p6166
sg43
Nssg212
I3261908037
sg35
VPT6M53.6668457S
p6167
sa(dp6168
g38
I313138863
sg32
VWeaponDrop
p6169
sg221
I0
sg44
(lp6170
I1095363701
asg35
VPT6M53.6668457S
p6171
sg224
I0
sg225
VP0DT0H0M0.7667S
p6172
sg39
(dp6173
g41
VCLG Snake Bite
p6174
sg43
Nssa(dp6175
g38
I4096745987
sg32
VWeaponDrop
p6176
sg221
I17
sg44
(lp6177
I2758383128
asg35
VPT6M53.6668457S
p6178
sg224
I10
sg225
VP0DT0H0M26.3333S
p6179
sg39
(dp6180
g41
VCLG Snake Bite
p6181
sg43
Nssa(dp6182
g38
I2244200496
sg32
VWeaponDrop
p6183
sg221
I0
sg44
(lp6184
I2758383128
asg35
VPT6M53.6668457S
p6185
sg224
I0
sg225
VP0DT0H0M1.6500S
p6186
sg39
(dp6187
g41
VCLG Snake Bite
p6188
sg43
Nssa(dp6189
g32
VImpulse
p6190
sg39
(dp6191
g41
VCLG Snake Bite
p6192
sg43
Nssg353
I3435524855
sg35
VPT6M53.675812S
p6193
sa(dp6194
g38
I4096745987
sg32
VWeaponDrop
p6195
sg221
I17
sg44
(lp6196
I2758383128
asg35
VPT6M54.1918483S
p6197
sg224
I9
sg225
VP0DT0H0M15.8000S
p6198
sg39
(dp6199
g41
VCLG Royal 2
p6200
sg43
Nssa(dp6201
g38
I669296699
sg39
(dp6202
g41
VCLG Royal 2
p6203
sg43
Nssg44
(lp6204
I2758383128
asg32
VWeaponPickupPad
p6205
sg35
VPT6M54.1918483S
p6206
sa(dp6207
g38
I669296699
sg39
(dp6208
g41
VCLG Royal 2
p6209
sg43
Nssg44
(lp6210
I2758383128
asg32
VWeaponPickup
p6211
sg35
VPT6M54.1918483S
p6212
sa(dp6213
g179
I723523180
sg180
I00
sg181
I00
sg182
(dp6214
g41
VCLG LethuL HCS
p6215
sg43
Nssg185
(lp6216
I2758383128
asg187
I00
sg188
I01
sg189
I1
sg190
I0
sg191
I1
sg192
(dp6217
Vy
F5.268478
sVx
F-3.291614
sVz
F3.81130433
ssg194
(dp6218
Vy
F4.1300889999999999
sVx
F-7.02378941
sVz
F2.4500913600000001
ssg196
I00
sg197
(dp6219
g41
VEG Snip3downHCS
p6220
sg43
Nssg200
(lp6221
sg202
(lp6222
sg204
I00
sg35
VPT6M55.0618465S
p6223
sg32
VDeath
p6224
sg207
I1
sa(dp6225
g38
I313138863
sg32
VWeaponDrop
p6226
sg221
I14
sg44
(lp6227
I1095363701
asg35
VPT6M55.0628466S
p6228
sg224
I6
sg225
VP0DT0H0M3.9167S
p6229
sg39
(dp6230
g41
VEG Snip3downHCS
p6231
sg43
Nssa(dp6232
g38
I4096745987
sg32
VWeaponDrop
p6233
sg221
I0
sg44
(lp6234
I2758383128
asg35
VPT6M55.0628466S
p6235
sg224
I0
sg225
VP0DT0H0M3.9833S
p6236
sg39
(dp6237
g41
VEG Snip3downHCS
p6238
sg43
Nssa(dp6239
g38
I313138863
sg39
(dp6240
g41
VEG SuspectorHCS
p6241
sg43
Nssg44
(lp6242
I1095363701
asg32
VWeaponPickup
p6243
sg35
VPT6M55.1158462S
p6244
sa(dp6245
g38
I4096745987
sg39
(dp6246
g41
VEG SuspectorHCS
p6247
sg43
Nssg44
(lp6248
I2758383128
asg32
VWeaponPickup
p6249
sg35
VPT6M55.1158462S
p6250
sa(dp6251
g32
VPlayerSpawn
p6252
sg39
(dp6253
g41
VEG SuspectorHCS
p6254
sg43
Nssg35
VPT6M55.1158462S
p6255
sa(dp6256
g179
I523953283
sg180
I00
sg181
I00
sg182
(dp6257
g41
VCLG Royal 2
p6258
sg43
Nssg185
(lp6259
I2208825748
asg187
I00
sg188
I01
sg189
I1
sg190
I0
sg191
I1
sg192
(dp6260
Vy
F11.740785600000001
sVx
F2.6725313700000002
sVz
F2.9062576299999998
ssg194
(dp6261
Vy
F1.2534795999999999
sVx
F0.105243832
sVz
F-1.549634
ssg196
I00
sg197
(dp6262
g41
VEG Lunchbox HCS
p6263
sg43
Nssg200
(lp6264
sg202
(lp6265
sg204
I01
sg35
VPT6M56.8708465S
p6266
sg32
VDeath
p6267
sg207
I1
sa(dp6268
g32
VImpulse
p6269
sg39
(dp6270
g41
VCLG Royal 2
p6271
sg43
Nssg353
I3174430457
sg35
VPT6M56.8728457S
p6272
sa(dp6273
g32
VMedal
p6274
sg39
(dp6275
g41
VCLG Royal 2
p6276
sg43
Nssg212
I370413844
sg35
VPT6M56.8790718S
p6277
sa(dp6278
g38
I313138863
sg32
VWeaponDrop
p6279
sg221
I0
sg44
(lp6280
I1095363701
asg35
VPT6M56.8798463S
p6281
sg224
I0
sg225
VP0DT0H0M0.5833S
p6282
sg39
(dp6283
g41
VEG Lunchbox HCS
p6284
sg43
Nssa(dp6285
g38
I4096745987
sg32
VWeaponDrop
p6286
sg221
I14
sg44
(lp6287
I2758383128
asg35
VPT6M56.8798463S
p6288
sg224
I7
sg225
VP0DT0H0M24.6167S
p6289
sg39
(dp6290
g41
VEG Lunchbox HCS
p6291
sg43
Nssa(dp6292
g38
I2244200496
sg39
(dp6293
g41
VCLG LethuL HCS
p6294
sg43
Nssg44
(lp6295
I2758383128
asg32
VWeaponPickup
p6296
sg35
VPT6M56.9582607S
p6297
sa(dp6298
g32
VImpulse
p6299
sg39
(dp6300
g41
VCLG LethuL HCS
p6301
sg43
Nssg353
I4191318012
sg35
VPT6M56.9588468S
p6302
sa(dp6303
g179
I4096745987
sg180
I00
sg181
I00
sg182
(dp6304
g41
VCLG Frosty HCS
p6305
sg43
Nssg185
(lp6306
I2758383128
asg187
I00
sg188
I01
sg189
I1
sg190
I0
sg191
I1
sg192
(dp6307
Vy
F-4.5056266799999998
sVx
F12.408131600000001
sVz
F5.0411133799999996
ssg194
(dp6308
Vy
F-9.4475899999999999
sVx
F-0.37174308299999997
sVz
F3.52998352
ssg196
I00
sg197
(dp6309
g41
VEG Roy HCS
p6310
sg43
Nssg200
(lp6311
sg202
(lp6312
(dp6313
g41
VCLG LethuL HCS
p6314
sg43
Nsasg204
I01
sg35
VPT6M57.8768462S
p6315
sg32
VDeath
p6316
sg207
I1
sa(dp6317
g32
VMedal
p6318
sg39
(dp6319
g41
VCLG Frosty HCS
p6320
sg43
Nssg212
I3261908037
sg35
VPT6M57.8788464S
p6321
sa(dp6322
g38
I4096745987
sg32
VWeaponDrop
p6323
sg221
I6
sg44
(lp6324
I2758383128
asg35
VPT6M57.8853319S
p6325
sg224
I2
sg225
VP0DT0H0M7.7500S
p6326
sg39
(dp6327
g41
VEG Roy HCS
p6328
sg43
Nssa(dp6329
g38
I313138863
sg32
VWeaponDrop
p6330
sg221
I0
sg44
(lp6331
I1095363701
asg35
VPT6M57.8858466S
p6332
sg224
I0
sg225
VP0DT0H0M0.5500S
p6333
sg39
(dp6334
g41
VEG Roy HCS
p6335
sg43
Nssa(dp6336
g38
I2244200496
sg32
VWeaponDrop
p6337
sg221
I0
sg44
(lp6338
I2758383128
asg35
VPT7M1.3662472S
p6339
sg224
I0
sg225
VP0DT0H0M4.2667S
p6340
sg39
(dp6341
g41
VCLG LethuL HCS
p6342
sg43
Nssa(dp6343
g32
VImpulse
p6344
sg39
(dp6345
g41
VCLG LethuL HCS
p6346
sg43
Nssg353
I3435524855
sg35
VPT7M1.3668459S
p6347
sa(dp6348
g38
I313138863
sg39
(dp6349
g41
VCLG Snake Bite
p6350
sg43
Nssg44
(lp6351
I1095363701
asg32
VWeaponPickup
p6352
sg35
VPT7M1.6859284S
p6353
sa(dp6354
g38
I4096745987
sg39
(dp6355
g41
VCLG Snake Bite
p6356
sg43
Nssg44
(lp6357
I2758383128
asg32
VWeaponPickup
p6358
sg35
VPT7M1.6859284S
p6359
sa(dp6360
g32
VPlayerSpawn
p6361
sg39
(dp6362
g41
VCLG Snake Bite
p6363
sg43
Nssg35
VPT7M1.6859284S
p6364
sa(dp6365
g38
I2244200496
sg39
(dp6366
g41
VCLG LethuL HCS
p6367
sg43
Nssg44
(lp6368
I2758383128
asg32
VWeaponPickup
p6369
sg35
VPT7M2.8958464S
p6370
sa(dp6371
g32
VImpulse
p6372
sg39
(dp6373
g41
VCLG LethuL HCS
p6374
sg43
Nssg353
I4191318012
sg35
VPT7M2.8968465S
p6375
sa(dp6376
g179
I4096745987
sg180
I00
sg181
I00
sg182
(dp6377
g41
VCLG Frosty HCS
p6378
sg43
Nssg185
(lp6379
I2758383128
asg187
I00
sg188
I01
sg189
I1
sg190
I0
sg191
I1
sg192
(dp6380
Vy
F1.36851692
sVx
F6.3760094599999997
sVz
F2.4477579999999999
ssg194
(dp6381
Vy
F5.3105173099999998
sVx
F-1.3942134399999999
sVz
F4.2351749999999999
ssg196
I00
sg197
(dp6382
g41
VEG SuspectorHCS
p6383
sg43
Nssg200
(lp6384
sg202
(lp6385
sg204
I01
sg35
VPT7M2.9040416S
p6386
sg32
VDeath
p6387
sg207
I1
sa(dp6388
g32
VMedal
p6389
sg39
(dp6390
g41
VCLG Frosty HCS
p6391
sg43
Nssg212
I3261908037
sg35
VPT7M2.9058463S
p6392
sa(dp6393
g32
VMedal
p6394
sg39
(dp6395
g41
VCLG Frosty HCS
p6396
sg43
Nssg212
I2078758684
sg35
VPT7M2.9058463S
p6397
sa(dp6398
g38
I313138863
sg32
VWeaponDrop
p6399
sg221
I0
sg44
(lp6400
I1095363701
asg35
VPT7M2.9068466S
p6401
sg224
I0
sg225
VP0DT0H0M0.7000S
p6402
sg39
(dp6403
g41
VEG SuspectorHCS
p6404
sg43
Nssa(dp6405
g38
I4096745987
sg32
VWeaponDrop
p6406
sg221
I0
sg44
(lp6407
I2758383128
asg35
VPT7M2.9068466S
p6408
sg224
I0
sg225
VP0DT0H0M6.9000S
p6409
sg39
(dp6410
g41
VEG SuspectorHCS
p6411
sg43
Nssa(dp6412
g38
I313138863
sg39
(dp6413
g41
VEG Snip3downHCS
p6414
sg43
Nssg44
(lp6415
I1095363701
asg32
VWeaponPickup
p6416
sg35
VPT7M3.2680774S
p6417
sa(dp6418
g38
I4096745987
sg39
(dp6419
g41
VEG Snip3downHCS
p6420
sg43
Nssg44
(lp6421
I2758383128
asg32
VWeaponPickup
p6422
sg35
VPT7M3.268846S
p6423
sa(dp6424
g32
VPlayerSpawn
p6425
sg39
(dp6426
g41
VEG Snip3downHCS
p6427
sg43
Nssg35
VPT7M3.268846S
p6428
sa(dp6429
g38
I2244200496
sg32
VWeaponDrop
p6430
sg221
I0
sg44
(lp6431
I2758383128
asg35
VPT7M4.5800242S
p6432
sg224
I0
sg225
VP0DT0H0M1.5667S
p6433
sg39
(dp6434
g41
VCLG LethuL HCS
p6435
sg43
Nssa(dp6436
g32
VImpulse
p6437
sg39
(dp6438
g41
VCLG LethuL HCS
p6439
sg43
Nssg353
I3435524855
sg35
VPT7M4.5808405S
p6440
sa(dp6441
g38
I313138863
sg39
(dp6442
g41
VEG Lunchbox HCS
p6443
sg43
Nssg44
(lp6444
I1095363701
asg32
VWeaponPickup
p6445
sg35
VPT7M5.1678365S
p6446
sa(dp6447
g38
I4096745987
sg39
(dp6448
g41
VEG Lunchbox HCS
p6449
sg43
Nssg44
(lp6450
I2758383128
asg32
VWeaponPickup
p6451
sg35
VPT7M5.1678365S
p6452
sa(dp6453
g32
VPlayerSpawn
p6454
sg39
(dp6455
g41
VEG Lunchbox HCS
p6456
sg43
Nssg35
VPT7M5.1678365S
p6457
sa(dp6458
g38
I2244200496
sg39
(dp6459
g41
VCLG LethuL HCS
p6460
sg43
Nssg44
(lp6461
I2758383128
asg32
VWeaponPickup
p6462
sg35
VPT7M5.6928312S
p6463
sa(dp6464
g32
VImpulse
p6465
sg39
(dp6466
g41
VCLG LethuL HCS
p6467
sg43
Nssg353
I4191318012
sg35
VPT7M5.7000294S
p6468
sa(dp6469
g38
I313138863
sg39
(dp6470
g41
VEG Roy HCS
p6471
sg43
Nssg44
(lp6472
I1095363701
asg32
VWeaponPickup
p6473
sg35
VPT7M6.1448306S
p6474
sa(dp6475
g38
I4096745987
sg39
(dp6476
g41
VEG Roy HCS
p6477
sg43
Nssg44
(lp6478
I2758383128
asg32
VWeaponPickup
p6479
sg35
VPT7M6.1448306S
p6480
sa(dp6481
g32
VPlayerSpawn
p6482
sg39
(dp6483
g41
VEG Roy HCS
p6484
sg43
Nssg35
VPT7M6.1448306S
p6485
sa(dp6486
g32
VMedal
p6487
sg39
(dp6488
g41
VCLG LethuL HCS
p6489
sg43
Nssg212
I3886151616
sg35
VPT7M6.2128348S
p6490
sa(dp6491
g32
VMedal
p6492
sg39
(dp6493
g41
VCLG Snake Bite
p6494
sg43
Nssg212
I1494478183
sg35
VPT7M6.2128348S
p6495
sa(dp6496
g32
VImpulse
p6497
sg39
(dp6498
g41
VCLG LethuL HCS
p6499
sg43
Nssg353
I2944278681
sg35
VPT7M6.2128348S
p6500
sa(dp6501
g32
VRoundEnd
p6502
sg34
I0
sg35
VPT7M6.2138296S
p6503
sassb.