(lp1
cnumpy.core.multiarray
_reconstruct
p2
(cnumpy
ndarray
p3
(I0
tS'b'
tRp4
(I1
(I4
tcnumpy
dtype
p5
(S'U36'
I0
I1
tRp6
(I3
S'<'
NNNI144
I4
I8
tbI00
S'2\x00\x00\x000\x00\x00\x001\x00\x00\x006\x00\x00\x00-\x00\x00\x000\x00\x00\x007\x00\x00\x00-\x00\x00\x000\x00\x00\x009\x00\x00\x00\x00\x00\x00\x00\x00\x00\x00\x00\x00\x00\x00\x00\x00\x00\x00\x00\x00\x00\x00\x00\x00\x00\x00\x00\x00\x00\x00\x00\x00\x00\x00\x00\x00\x00\x00\x00\x00\x00\x00\x00\x00\x00\x00\x00\x00\x00\x00\x00\x00\x00\x00\x00\x00\x00\x00\x00\x00\x00\x00\x00\x00\x00\x00\x00\x00\x00\x00\x00\x00\x00\x00\x00\x00\x00\x00\x00\x00\x00\x00\x00\x00\x00\x00\x00\x00\x00\x00\x00\x00\x00\x00\x00\x00\x00\x00\x00\x00\x00\x00\x00\x00\x00\x00\x00P\x00\x00\x00l\x00\x00\x00a\x00\x00\x00z\x00\x00\x00a\x00\x00\x00\x00\x00\x00\x00\x00\x00\x00\x00\x00\x00\x00\x00\x00\x00\x00\x00\x00\x00\x00\x00\x00\x00\x00\x00\x00\x00\x00\x00\x00\x00\x00\x00\x00\x00\x00\x00\x00\x00\x00\x00\x00\x00\x00\x00\x00\x00\x00\x00\x00\x00\x00\x00\x00\x00\x00\x00\x00\x00\x00\x00\x00\x00\x00\x00\x00\x00\x00\x00\x00\x00\x00\x00\x00\x00\x00\x00\x00\x00\x00\x00\x00\x00\x00\x00\x00\x00\x00\x00\x00\x00\x00\x00\x00\x00\x00\x00\x00\x00\x00\x00\x00\x00\x00\x00\x00\x00\x00\x00\x00\x00\x00\x00\x00\x00\x00\x00\x00\x00\x00\x00\x00\x00\x00\x00S\x00\x00\x00l\x00\x00\x00a\x00\x00\x00y\x00\x00\x00e\x00\x00\x00r\x00\x00\x00\x00\x00\x00\x00\x00\x00\x00\x00\x00\x00\x00\x00\x00\x00\x00\x00\x00\x00\x00\x00\x00\x00\x00\x00\x00\x00\x00\x00\x00\x00\x00\x00\x00\x00\x00\x00\x00\x00\x00\x00\x00\x00\x00\x00\x00\x00\x00\x00\x00\x00\x00\x00\x00\x00\x00\x00\x00\x00\x00\x00\x00\x00\x00\x00\x00\x00\x00\x00\x00\x00\x00\x00\x00\x00\x00\x00\x00\x00\x00\x00\x00\x00\x00\x00\x00\x00\x00\x00\x00\x00\x00\x00\x00\x00\x00\x00\x00\x00\x00\x00\x00\x00\x00\x00\x00\x00\x00\x00\x00\x00\x00\x00\x00\x00\x00\x00\x00\x00\x00\x009\x00\x00\x00b\x00\x00\x008\x00\x00\x007\x00\x00\x004\x00\x00\x00f\x00\x00\x002\x00\x00\x001\x00\x00\x00-\x00\x00\x00b\x00\x00\x00b\x00\x00\x002\x00\x00\x008\x00\x00\x00-\x00\x00\x004\x00\x00\x00b\x00\x00\x003\x00\x00\x008\x00\x00\x00-\x00\x00\x009\x00\x00\x00e\x00\x00\x007\x00\x00\x00e\x00\x00\x00-\x00\x00\x00b\x00\x00\x006\x00\x00\x008\x00\x00\x008\x00\x00\x007\x00\x00\x00c\x00\x00\x00d\x00\x00\x004\x00\x00\x003\x00\x00\x003\x00\x00\x00b\x00\x00\x004\x00\x00\x00'
tba(lp7
S'e6'
p8
aS'alg'
p9
aaccopy_reg
_reconstructor
p10
(c__main__
match_breakdown
p11
c__builtin__
object
p12
NtRp13
(dp14
S'details'
p15
(dp16
VIsCompleteSetOfEvents
p17
I01
sVLinks
p18
(dp19
VUgcFilmManifest
p20
(dp21
VAuthenticationLifetimeExtensionSupported
p22
I00
sVQueryString
p23
V?view=film-manifest
p24
sVRetryPolicyId
p25
Vexponentialretry
p26
sVPath
p27
V/h5/films/9b874f21-bb28-4b38-9e7e-b6887cd433b4
p28
sVAcknowledgementTypeId
p29
I0
sVAuthorityId
p30
Vugc
p31
sVTopicName
p32
V
ssVStatsMatchDetails
p33
(dp34
g22
I00
sg23
Nsg25
Vexponentialretry
p35
sg27
Vh5/custom/matches/9b874f21-bb28-4b38-9e7e-b6887cd433b4
p36
sg29
I0
sg30
Vspartanstats
p37
sg32
V
sssVGameEvents
p38
(lp39
(dp40
VEventName
p41
VRoundStart
p42
sVRoundIndex
p43
I0
sVTimeSinceStart
p44
VPT0.0250012S
p45
sa(dp46
VWeaponStockId
p47
I313138863
sVPlayer
p48
(dp49
VGamertag
p50
VALG Heinz HCS
p51
sVXuid
p52
NssVWeaponAttachmentIds
p53
(lp54
I1095363701
asg41
VWeaponPickup
p55
sg44
VPT17.5975919S
p56
sa(dp57
g47
I4096745987
sg48
(dp58
g50
VALG Heinz HCS
p59
sg52
Nssg53
(lp60
I2758383128
asg41
VWeaponPickup
p61
sg44
VPT17.5975919S
p62
sa(dp63
g41
VPlayerSpawn
p64
sg48
(dp65
g50
VALG Heinz HCS
p66
sg52
Nssg44
VPT17.5975919S
p67
sa(dp68
g47
I313138863
sg48
(dp69
g50
VALG RyaNoob
p70
sg52
Nssg53
(lp71
I1095363701
asg41
VWeaponPickup
p72
sg44
VPT17.6135678S
p73
sa(dp74
g47
I4096745987
sg48
(dp75
g50
VALG RyaNoob
p76
sg52
Nssg53
(lp77
I2758383128
asg41
VWeaponPickup
p78
sg44
VPT17.6135678S
p79
sa(dp80
g41
VPlayerSpawn
p81
sg48
(dp82
g50
VALG RyaNoob
p83
sg52
Nssg44
VPT17.6135678S
p84
sa(dp85
g47
I313138863
sg48
(dp86
g50
VALGPredevonator
p87
sg52
Nssg53
(lp88
I1095363701
asg41
VWeaponPickup
p89
sg44
VPT17.6306S
p90
sa(dp91
g47
I4096745987
sg48
(dp92
g50
VALGPredevonator
p93
sg52
Nssg53
(lp94
I2758383128
asg41
VWeaponPickup
p95
sg44
VPT17.6306S
p96
sa(dp97
g41
VPlayerSpawn
p98
sg48
(dp99
g50
VALGPredevonator
p100
sg52
Nssg44
VPT17.6306S
p101
sa(dp102
g47
I313138863
sg48
(dp103
g50
VE6 Shooter
p104
sg52
Nssg53
(lp105
I1095363701
asg41
VWeaponPickup
p106
sg44
VPT17.6465672S
p107
sa(dp108
g47
I4096745987
sg48
(dp109
g50
VE6 Shooter
p110
sg52
Nssg53
(lp111
I2758383128
asg41
VWeaponPickup
p112
sg44
VPT17.6465672S
p113
sa(dp114
g41
VPlayerSpawn
p115
sg48
(dp116
g50
VE6 Shooter
p117
sg52
Nssg44
VPT17.6465672S
p118
sa(dp119
g47
I313138863
sg48
(dp120
g50
VALG ContrA HCS
p121
sg52
Nssg53
(lp122
I1095363701
asg41
VWeaponPickup
p123
sg44
VPT17.6635669S
p124
sa(dp125
g47
I4096745987
sg48
(dp126
g50
VALG ContrA HCS
p127
sg52
Nssg53
(lp128
I2758383128
asg41
VWeaponPickup
p129
sg44
VPT17.6635669S
p130
sa(dp131
g41
VPlayerSpawn
p132
sg48
(dp133
g50
VALG ContrA HCS
p134
sg52
Nssg44
VPT17.6645864S
p135
sa(dp136
g47
I313138863
sg48
(dp137
g50
VE6 Huke HCS
p138
sg52
Nssg53
(lp139
I1095363701
asg41
VWeaponPickup
p140
sg44
VPT17.679567S
p141
sa(dp142
g47
I4096745987
sg48
(dp143
g50
VE6 Huke HCS
p144
sg52
Nssg53
(lp145
I2758383128
asg41
VWeaponPickup
p146
sg44
VPT17.6805879S
p147
sa(dp148
g41
VPlayerSpawn
p149
sg48
(dp150
g50
VE6 Huke HCS
p151
sg52
Nssg44
VPT17.6805879S
p152
sa(dp153
g47
I313138863
sg48
(dp154
g50
VE6 bubu dubu
p155
sg52
Nssg53
(lp156
I1095363701
asg41
VWeaponPickup
p157
sg44
VPT17.6965913S
p158
sa(dp159
g47
I4096745987
sg48
(dp160
g50
VE6 bubu dubu
p161
sg52
Nssg53
(lp162
I2758383128
asg41
VWeaponPickup
p163
sg44
VPT17.6965913S
p164
sa(dp165
g41
VPlayerSpawn
p166
sg48
(dp167
g50
VE6 bubu dubu
p168
sg52
Nssg44
VPT17.6965913S
p169
sa(dp170
g47
I313138863
sg48
(dp171
g50
VE6 Cratos HCS
p172
sg52
Nssg53
(lp173
I1095363701
asg41
VWeaponPickup
p174
sg44
VPT17.7135917S
p175
sa(dp176
g47
I4096745987
sg48
(dp177
g50
VE6 Cratos HCS
p178
sg52
Nssg53
(lp179
I2758383128
asg41
VWeaponPickup
p180
sg44
VPT17.7135917S
p181
sa(dp182
g41
VPlayerSpawn
p183
sg48
(dp184
g50
VE6 Cratos HCS
p185
sg52
Nssg44
VPT17.7135917S
p186
sa(dp187
g47
I313138863
sg41
VWeaponDrop
p188
sVShotsFired
p189
I0
sg53
(lp190
I1095363701
asg44
VPT20.5446925S
p191
sVShotsLanded
p192
I0
sVTimeWeaponActiveAsPrimary
p193
VP0DT0H0M0.9500S
p194
sg48
(dp195
g50
VE6 Cratos HCS
p196
sg52
Nssa(dp197
g47
I723388907
sg48
(dp198
g50
VE6 Cratos HCS
p199
sg52
Nssg53
(lp200
I89283061
asg41
VWeaponPickup
p201
sg44
VPT20.5456865S
p202
sa(dp203
g47
I4096745987
sg41
VWeaponDrop
p204
sg189
I0
sg53
(lp205
I2758383128
asg44
VPT22.4787212S
p206
sg192
I0
sg193
VP0DT0H0M4.1833S
p207
sg48
(dp208
g50
VALG ContrA HCS
p209
sg52
Nssa(dp210
g47
I424645655
sg48
(dp211
g50
VALG ContrA HCS
p212
sg52
Nssg53
(lp213
I1327094800
asg41
VWeaponPickup
p214
sg44
VPT22.4787212S
p215
sa(dp216
g47
I313138863
sg41
VWeaponDrop
p217
sg189
I0
sg53
(lp218
I1095363701
asg44
VPT31.2950262S
p219
sg192
I0
sg193
VP0DT0H0M0.8833S
p220
sg48
(dp221
g50
VALG ContrA HCS
p222
sg52
Nssa(dp223
g47
I669296699
sg48
(dp224
g50
VALG ContrA HCS
p225
sg52
Nssg53
(lp226
I2758383128
asg41
VWeaponPickupPad
p227
sg44
VPT31.2950262S
p228
sa(dp229
g47
I669296699
sg48
(dp230
g50
VALG ContrA HCS
p231
sg52
Nssg53
(lp232
I2758383128
asg41
VWeaponPickup
p233
sg44
VPT31.297029S
p234
sa(dp235
g47
I2492868984
sg48
(dp236
g50
VE6 Huke HCS
p237
sg52
Nssg53
(lp238
I2758383128
asg41
VWeaponPickup
p239
sg44
VPT34.7451378S
p240
sa(dp241
VKillerWeaponStockId
p242
I4096745987
sVIsAssassination
p243
I00
sVIsMelee
p244
I00
sVKiller
p245
(dp246
g50
VE6 Cratos HCS
p247
sg52
NssVKillerWeaponAttachmentIds
p248
(lp249
I2758383128
asVIsGroundPound
p250
I00
sVIsWeapon
p251
I00
sVDeathDisposition
p252
I2
sVVictimStockId
p253
I0
sVVictimAgent
p254
I0
sVKillerWorldLocation
p255
(dp256
Vy
F8.0457940000000008
sVx
F-4.1650214200000004
sVz
F1.59860873
ssVVictimWorldLocation
p257
(dp258
Vy
F3.6507597000000001
sVx
F-2.4579308000000002
sVz
F3.200841
ssVIsShoulderBash
p259
I00
sVVictim
p260
(dp261
S'Gamertag'
p262
S'None'
p263
ssVVictimAttachmentIds
p264
(lp265
sVAssistants
p266
(lp267
sVIsHeadshot
p268
I00
sg44
VPT34.7821398S
p269
sg41
VDeath
p270
sVKillerAgent
p271
I1
sa(dp272
g242
I4096745987
sg243
I00
sg244
I00
sg245
(dp273
g50
VALG RyaNoob
p274
sg52
Nssg248
(lp275
I2758383128
asg250
I00
sg251
I01
sg252
I1
sg253
I0
sg254
I1
sg255
(dp276
Vy
F-4.5643570000000002
sVx
F2.0630364399999999
sVz
F5.1534019999999998
ssg257
(dp277
Vy
F5.1073240000000002
sVx
F7.091526
sVz
F3.2007184
ssg259
I00
sg260
(dp278
g50
VE6 Huke HCS
p279
sg52
Nssg264
(lp280
sg266
(lp281
(dp282
g50
VALG Heinz HCS
p283
sg52
Nsasg268
I01
sg44
VPT35.1961278S
p284
sg41
VDeath
p285
sg271
I1
sa(dp286
g41
VMedal
p287
sg48
(dp288
g50
VALG RyaNoob
p289
sg52
NssVMedalId
p290
I3261908037
sg44
VPT35.1981546S
p291
sa(dp292
g41
VMedal
p293
sg48
(dp294
g50
VALG RyaNoob
p295
sg52
Nssg290
I3001183151
sg44
VPT35.1981546S
p296
sa(dp297
g47
I313138863
sg41
VWeaponDrop
p298
sg189
I0
sg53
(lp299
I1095363701
asg44
VPT35.2161509S
p300
sg192
I0
sg193
VP0DT0H0M1.2833S
p301
sg48
(dp302
g50
VE6 Huke HCS
p303
sg52
Nssa(dp304
g47
I4096745987
sg41
VWeaponDrop
p305
sg189
I0
sg53
(lp306
I2758383128
asg44
VPT35.2161509S
p307
sg192
I0
sg193
VP0DT0H0M15.9333S
p308
sg48
(dp309
g50
VE6 Huke HCS
p310
sg52
Nssa(dp311
g47
I2492868984
sg41
VWeaponDrop
p312
sg189
I0
sg53
(lp313
I2758383128
asg44
VPT35.2161509S
p314
sg192
I0
sg193
VP0DT0H0M0.3000S
p315
sg48
(dp316
g50
VE6 Huke HCS
p317
sg52
Nssa(dp318
g242
I4096745987
sg243
I00
sg244
I00
sg245
(dp319
g50
VE6 Shooter
p320
sg52
Nssg248
(lp321
I2758383128
asg250
I00
sg251
I01
sg252
I1
sg253
I0
sg254
I1
sg255
(dp322
Vy
F0.22641937400000001
sVx
F-6.0980780000000001
sVz
F1.231792
ssg257
(dp323
Vy
F0.47214806100000001
sVx
F1.0249612299999999
sVz
F-0.054846435800000003
ssg259
I00
sg260
(dp324
g50
VALG Heinz HCS
p325
sg52
Nssg264
(lp326
sg266
(lp327
sg268
I01
sg44
VPT37.4292221S
p328
sg41
VDeath
p329
sg271
I1
sa(dp330
g41
VMedal
p331
sg48
(dp332
g50
VE6 Shooter
p333
sg52
Nssg290
I3261908037
sg44
VPT37.4312215S
p334
sa(dp335
g47
I313138863
sg41
VWeaponDrop
p336
sg189
I0
sg53
(lp337
I1095363701
asg44
VPT37.4322325S
p338
sg192
I0
sg193
VP0DT0H0M1.2667S
p339
sg48
(dp340
g50
VALG Heinz HCS
p341
sg52
Nssa(dp342
g47
I4096745987
sg41
VWeaponDrop
p343
sg189
I15
sg53
(lp344
I2758383128
asg44
VPT37.4322325S
p345
sg192
I3
sg193
VP0DT0H0M18.5667S
p346
sg48
(dp347
g50
VALG Heinz HCS
p348
sg52
Nssa(dp349
g47
I4096745987
sg41
VWeaponDrop
p350
sg189
I2
sg53
(lp351
I2758383128
asg44
VPT40.7613271S
p352
sg192
I2
sg193
VP0DT0H0M22.3500S
p353
sg48
(dp354
g50
VE6 Shooter
p355
sg52
Nssa(dp356
g47
I424645655
sg48
(dp357
g50
VE6 Shooter
p358
sg52
Nssg53
(lp359
I1327094800
asg41
VWeaponPickup
p360
sg44
VPT40.7623317S
p361
sa(dp362
g242
I313138863
sg243
I00
sg244
I01
sg245
(dp363
g50
VALG RyaNoob
p364
sg52
Nssg248
(lp365
I1095363701
asg250
I00
sg251
I00
sg252
I1
sg253
I0
sg254
I1
sg255
(dp366
Vy
F-3.2257647500000002
sVx
F-3.0640664100000001
sVz
F3.1955309999999999
ssg257
(dp367
Vy
F-2.86651254
sVx
F-2.8813909999999998
sVz
F3.2004396900000001
ssg259
I00
sg260
(dp368
g50
VE6 bubu dubu
p369
sg52
Nssg264
(lp370
sg266
(lp371
sg268
I00
sg44
VPT42.7123895S
p372
sg41
VDeath
p373
sg271
I1
sa(dp374
g41
VMedal
p375
sg48
(dp376
g50
VALG RyaNoob
p377
sg52
Nssg290
I2287626681
sg44
VPT42.7133866S
p378
sa(dp379
g47
I313138863
sg41
VWeaponDrop
p380
sg189
I6
sg53
(lp381
I1095363701
asg44
VPT42.7143926S
p382
sg192
I5
sg193
VP0DT0H0M5.8500S
p383
sg48
(dp384
g50
VE6 bubu dubu
p385
sg52
Nssa(dp386
g47
I4096745987
sg41
VWeaponDrop
p387
sg189
I15
sg53
(lp388
I2758383128
asg44
VPT42.7143926S
p389
sg192
I5
sg193
VP0DT0H0M19.1667S
p390
sg48
(dp391
g50
VE6 bubu dubu
p392
sg52
Nssa(dp393
g47
I313138863
sg48
(dp394
g50
VE6 Huke HCS
p395
sg52
Nssg53
(lp396
I1095363701
asg41
VWeaponPickup
p397
sg44
VPT43.2134106S
p398
sa(dp399
g47
I4096745987
sg48
(dp400
g50
VE6 Huke HCS
p401
sg52
Nssg53
(lp402
I2758383128
asg41
VWeaponPickup
p403
sg44
VPT43.2134106S
p404
sa(dp405
g41
VPlayerSpawn
p406
sg48
(dp407
g50
VE6 Huke HCS
p408
sg52
Nssg44
VPT43.2134106S
p409
sa(dp410
g242
I424645655
sg243
I00
sg244
I00
sg245
(dp411
g50
VE6 Shooter
p412
sg52
Nssg248
(lp413
I1327094800
asg250
I00
sg251
I01
sg252
I1
sg253
I0
sg254
I1
sg255
(dp414
Vy
F-3.0163817399999999
sVx
F-7.7353930000000002
sVz
F3.2029135200000001
ssg257
(dp415
Vy
F-3.0099077200000002
sVx
F-1.7070581899999999
sVz
F3.1990020000000001
ssg259
I00
sg260
(dp416
g50
VALG RyaNoob
p417
sg52
Nssg264
(lp418
sg266
(lp419
(dp420
g50
VE6 bubu dubu
p421
sg52
Nsa(dp422
g50
VE6 Cratos HCS
p423
sg52
Nsasg268
I01
sg44
VPT43.2454897S
p424
sg41
VDeath
p425
sg271
I1
sa(dp426
g41
VMedal
p427
sg48
(dp428
g50
VE6 Shooter
p429
sg52
Nssg290
I3261908037
sg44
VPT43.2474108S
p430
sa(dp431
g47
I313138863
sg41
VWeaponDrop
p432
sg189
I14
sg53
(lp433
I1095363701
asg44
VPT43.2484204S
p434
sg192
I7
sg193
VP0DT0H0M5.0667S
p435
sg48
(dp436
g50
VALG RyaNoob
p437
sg52
Nssa(dp438
g47
I313138863
sg41
VWeaponDrop
p439
sg189
I0
sg53
(lp440
I1095363701
asg44
VPT43.2484204S
p441
sg192
I0
sg193
VP0DT0S
p442
sg48
(dp443
g50
VALG RyaNoob
p444
sg52
Nssa(dp445
g47
I4096745987
sg41
VWeaponDrop
p446
sg189
I17
sg53
(lp447
I2758383128
asg44
VPT43.2484204S
p448
sg192
I10
sg193
VP0DT0H0M20.5667S
p449
sg48
(dp450
g50
VALG RyaNoob
p451
sg52
Nssa(dp452
g47
I313138863
sg48
(dp453
g50
VALG Heinz HCS
p454
sg52
Nssg53
(lp455
I1095363701
asg41
VWeaponPickup
p456
sg44
VPT45.4464809S
p457
sa(dp458
g47
I4096745987
sg48
(dp459
g50
VALG Heinz HCS
p460
sg52
Nssg53
(lp461
I2758383128
asg41
VWeaponPickup
p462
sg44
VPT45.4464809S
p463
sa(dp464
g41
VPlayerSpawn
p465
sg48
(dp466
g50
VALG Heinz HCS
p467
sg52
Nssg44
VPT45.4474797S
p468
sa(dp469
g47
I313138863
sg41
VWeaponDrop
p470
sg189
I0
sg53
(lp471
I1095363701
asg44
VPT45.9614914S
p472
sg192
I0
sg193
VP0DT0H0M1.1500S
p473
sg48
(dp474
g50
VE6 Shooter
p475
sg52
Nssa(dp476
g47
I524558978
sg48
(dp477
g50
VE6 Shooter
p478
sg52
Nssg53
(lp479
I2758383128
asg41
VWeaponPickup
p480
sg44
VPT45.9614914S
p481
sa(dp482
g47
I313138863
sg41
VWeaponDrop
p483
sg189
I0
sg53
(lp484
I1095363701
asg44
VPT49.3946061S
p485
sg192
I0
sg193
VP0DT0H0M1.1833S
p486
sg48
(dp487
g50
VALG Heinz HCS
p488
sg52
Nssa(dp489
g47
I2133511419
sg48
(dp490
g50
VALG Heinz HCS
p491
sg52
Nssg53
(lp492
I2758383128
asg41
VWeaponPickup
p493
sg44
VPT49.3946061S
p494
sa(dp495
g242
I669296699
sg243
I00
sg244
I00
sg245
(dp496
g50
VALG ContrA HCS
p497
sg52
Nssg248
(lp498
I2758383128
asg250
I00
sg251
I01
sg252
I1
sg253
I0
sg254
I1
sg255
(dp499
Vy
F9.6281940000000006
sVx
F15.4501562
sVz
F3.1995618299999999
ssg257
(dp500
Vy
F-12.1800537
sVx
F16.744613600000001
sVz
F3.2011766399999999
ssg259
I00
sg260
(dp501
g50
VE6 Huke HCS
p502
sg52
Nssg264
(lp503
sg266
(lp504
sg268
I01
sg44
VPT49.5625877S
p505
sg41
VDeath
p506
sg271
I1
sa(dp507
g41
VMedal
p508
sg48
(dp509
g50
VALG ContrA HCS
p510
sg52
Nssg290
I848240062
sg44
VPT49.5636125S
p511
sa(dp512
g47
I313138863
sg41
VWeaponDrop
p513
sg189
I0
sg53
(lp514
I1095363701
asg44
VPT49.5645901S
p515
sg192
I0
sg193
VP0DT0H0M1.3333S
p516
sg48
(dp517
g50
VE6 Huke HCS
p518
sg52
Nssa(dp519
g47
I4096745987
sg41
VWeaponDrop
p520
sg189
I0
sg53
(lp521
I2758383128
asg44
VPT49.5645901S
p522
sg192
I0
sg193
VP0DT0H0M5.0167S
p523
sg48
(dp524
g50
VE6 Huke HCS
p525
sg52
Nssa(dp526
g47
I313138863
sg48
(dp527
g50
VE6 bubu dubu
p528
sg52
Nssg53
(lp529
I1095363701
asg41
VWeaponPickup
p530
sg44
VPT50.7296494S
p531
sa(dp532
g47
I4096745987
sg48
(dp533
g50
VE6 bubu dubu
p534
sg52
Nssg53
(lp535
I2758383128
asg41
VWeaponPickup
p536
sg44
VPT50.7296494S
p537
sa(dp538
g41
VPlayerSpawn
p539
sg48
(dp540
g50
VE6 bubu dubu
p541
sg52
Nssg44
VPT50.7296494S
p542
sa(dp543
g47
I313138863
sg48
(dp544
g50
VALG RyaNoob
p545
sg52
Nssg53
(lp546
I1095363701
asg41
VWeaponPickup
p547
sg44
VPT51.2636618S
p548
sa(dp549
g47
I4096745987
sg48
(dp550
g50
VALG RyaNoob
p551
sg52
Nssg53
(lp552
I2758383128
asg41
VWeaponPickup
p553
sg44
VPT51.2636618S
p554
sa(dp555
g41
VPlayerSpawn
p556
sg48
(dp557
g50
VALG RyaNoob
p558
sg52
Nssg44
VPT51.2636618S
p559
sa(dp560
g47
I313138863
sg48
(dp561
g50
VE6 Huke HCS
p562
sg52
Nssg53
(lp563
I1095363701
asg41
VWeaponPickup
p564
sg44
VPT57.579865S
p565
sa(dp566
g47
I4096745987
sg48
(dp567
g50
VE6 Huke HCS
p568
sg52
Nssg53
(lp569
I2758383128
asg41
VWeaponPickup
p570
sg44
VPT57.579865S
p571
sa(dp572
g41
VPlayerSpawn
p573
sg48
(dp574
g50
VE6 Huke HCS
p575
sg52
Nssg44
VPT57.579865S
p576
sa(dp577
g47
I313138863
sg41
VWeaponDrop
p578
sg189
I0
sg53
(lp579
I1095363701
asg44
VPT59.7279384S
p580
sg192
I0
sg193
VP0DT0H0M1.0667S
p581
sg48
(dp582
g50
VE6 bubu dubu
p583
sg52
Nssa(dp584
g47
I1579758889
sg48
(dp585
g50
VE6 bubu dubu
p586
sg52
Nssg53
(lp587
I2758383128
asg41
VWeaponPickup
p588
sg44
VPT59.7279384S
p589
sa(dp590
g242
I4096745987
sg243
I00
sg244
I01
sg245
(dp591
g50
VE6 Cratos HCS
p592
sg52
Nssg248
(lp593
I2758383128
asg250
I00
sg251
I00
sg252
I1
sg253
I0
sg254
I1
sg255
(dp594
Vy
F3.3432798400000001
sVx
F-3.6606483500000002
sVz
F3.20162988
ssg257
(dp595
Vy
F3.5403989999999999
sVx
F-3.2538433100000002
sVz
F3.2006881200000001
ssg259
I00
sg260
(dp596
g50
VALGPredevonator
p597
sg52
Nssg264
(lp598
sg266
(lp599
(dp600
g50
VE6 Huke HCS
p601
sg52
Nsasg268
I00
sg44
VPT1M25.2787539S
p602
sg41
VDeath
p603
sg271
I1
sa(dp604
g41
VMedal
p605
sg48
(dp606
g50
VE6 Cratos HCS
p607
sg52
Nssg290
I2287626681
sg44
VPT1M25.2797541S
p608
sa(dp609
g47
I313138863
sg41
VWeaponDrop
p610
sg189
I7
sg53
(lp611
I1095363701
asg44
VPT1M25.2807541S
p612
sg192
I3
sg193
VP0DT0H0M5.3333S
p613
sg48
(dp614
g50
VALGPredevonator
p615
sg52
Nssa(dp616
g47
I4096745987
sg41
VWeaponDrop
p617
sg189
I8
sg53
(lp618
I2758383128
asg44
VPT1M25.2807541S
p619
sg192
I3
sg193
VP0DT0H1M2.3167S
p620
sg48
(dp621
g50
VALGPredevonator
p622
sg52
Nssa(dp623
g242
I669296699
sg243
I00
sg244
I00
sg245
(dp624
g50
VALG ContrA HCS
p625
sg52
Nssg248
(lp626
I2758383128
asg250
I00
sg251
I01
sg252
I1
sg253
I0
sg254
I1
sg255
(dp627
Vy
F9.631532
sVx
F13.9538546
sVz
F3.9407718200000001
ssg257
(dp628
Vy
F11.7466059
sVx
F-1.2576218800000001
sVz
F1.59924781
ssg259
I00
sg260
(dp629
g50
VE6 Huke HCS
p630
sg52
Nssg264
(lp631
sg266
(lp632
sg268
I01
sg44
VPT1M29.4288634S
p633
sg41
VDeath
p634
sg271
I1
sa(dp635
g41
VMedal
p636
sg48
(dp637
g50
VALG ContrA HCS
p638
sg52
Nssg290
I848240062
sg44
VPT1M29.4308881S
p639
sa(dp640
g47
I4096745987
sg41
VWeaponDrop
p641
sg189
I2
sg53
(lp642
I2758383128
asg44
VPT1M29.4308881S
p643
sg192
I1
sg193
VP0DT0H0M31.2500S
p644
sg48
(dp645
g50
VE6 Huke HCS
p646
sg52
Nssa(dp647
g47
I313138863
sg41
VWeaponDrop
p648
sg189
I0
sg53
(lp649
I1095363701
asg44
VPT1M29.4318868S
p650
sg192
I0
sg193
VP0DT0H0M0.6000S
p651
sg48
(dp652
g50
VE6 Huke HCS
p653
sg52
Nssa(dp654
g47
I313138863
sg48
(dp655
g50
VALGPredevonator
p656
sg52
Nssg53
(lp657
I1095363701
asg41
VWeaponPickup
p658
sg44
VPT1M33.2960066S
p659
sa(dp660
g47
I4096745987
sg48
(dp661
g50
VALGPredevonator
p662
sg52
Nssg53
(lp663
I2758383128
asg41
VWeaponPickup
p664
sg44
VPT1M33.2960066S
p665
sa(dp666
g41
VPlayerSpawn
p667
sg48
(dp668
g50
VALGPredevonator
p669
sg52
Nssg44
VPT1M33.2970082S
p670
sa(dp671
g242
I4106030681
sg243
I00
sg244
I00
sg245
(dp672
g50
VALG RyaNoob
p673
sg52
Nssg248
(lp674
sg250
I00
sg251
I01
sg252
I1
sg253
I0
sg254
I1
sg255
(dp675
Vy
F-0.58916950000000001
sVx
F7.6876980000000001
sVz
F3.19718575
ssg257
(dp676
Vy
F6.60526371
sVx
F-3.0659515900000001
sVz
F1.99540019
ssg259
I00
sg260
(dp677
g50
VE6 bubu dubu
p678
sg52
Nssg264
(lp679
sg266
(lp680
(dp681
g50
VALG ContrA HCS
p682
sg52
Nsasg268
I00
sg44
VPT1M35.0120421S
p683
sg41
VDeath
p684
sg271
I1
sa(dp685
g47
I4096745987
sg41
VWeaponDrop
p686
sg189
I3
sg53
(lp687
I2758383128
asg44
VPT1M35.0140453S
p688
sg192
I1
sg193
VP0DT0H0M31.5500S
p689
sg48
(dp690
g50
VE6 bubu dubu
p691
sg52
Nssa(dp692
g47
I1579758889
sg41
VWeaponDrop
p693
sg189
I0
sg53
(lp694
I2758383128
asg44
VPT1M35.0150645S
p695
sg192
I0
sg193
VP0DT0H0M11.6667S
p696
sg48
(dp697
g50
VE6 bubu dubu
p698
sg52
Nssa(dp699
g47
I313138863
sg48
(dp700
g50
VE6 Huke HCS
p701
sg52
Nssg53
(lp702
I1095363701
asg41
VWeaponPickup
p703
sg44
VPT1M37.4461459S
p704
sa(dp705
g47
I4096745987
sg48
(dp706
g50
VE6 Huke HCS
p707
sg52
Nssg53
(lp708
I2758383128
asg41
VWeaponPickup
p709
sg44
VPT1M37.4461459S
p710
sa(dp711
g41
VPlayerSpawn
p712
sg48
(dp713
g50
VE6 Huke HCS
p714
sg52
Nssg44
VPT1M37.4461459S
p715
sa(dp716
g47
I4096745987
sg41
VWeaponDrop
p717
sg189
I0
sg53
(lp718
I2758383128
asg44
VPT1M40.4942395S
p719
sg192
I0
sg193
VP0DT0H0M2.3833S
p720
sg48
(dp721
g50
VE6 Huke HCS
p722
sg52
Nssa(dp723
g47
I424645655
sg48
(dp724
g50
VE6 Huke HCS
p725
sg52
Nssg53
(lp726
I1327094800
asg41
VWeaponPickup
p727
sg44
VPT1M40.4942395S
p728
sa(dp729
g242
I4096745987
sg243
I00
sg244
I00
sg245
(dp730
g50
VE6 Cratos HCS
p731
sg52
Nssg248
(lp732
I2758383128
asg250
I00
sg251
I01
sg252
I1
sg253
I0
sg254
I1
sg255
(dp733
Vy
F10.262449999999999
sVx
F5.40596867
sVz
F3.0547087199999998
ssg257
(dp734
Vy
F10.007142999999999
sVx
F12.597692500000001
sVz
F3.1995623100000001
ssg259
I00
sg260
(dp735
g50
VALG ContrA HCS
p736
sg52
Nssg264
(lp737
sg266
(lp738
sg268
I01
sg44
VPT1M40.8292293S
p739
sg41
VDeath
p740
sg271
I1
sa(dp741
g41
VMedal
p742
sg48
(dp743
g50
VE6 Cratos HCS
p744
sg52
Nssg290
I3261908037
sg44
VPT1M40.8322502S
p745
sa(dp746
g47
I669296699
sg41
VWeaponDrop
p747
sg189
I3
sg53
(lp748
I2758383128
asg44
VPT1M40.8332637S
p749
sg192
I3
sg193
VP0DT0H0M51.0333S
p750
sg48
(dp751
g50
VALG ContrA HCS
p752
sg52
Nssa(dp753
g47
I424645655
sg41
VWeaponDrop
p754
sg189
I33
sg53
(lp755
I1327094800
asg44
VPT1M40.8332637S
p756
sg192
I15
sg193
VP0DT0H0M27.0667S
p757
sg48
(dp758
g50
VALG ContrA HCS
p759
sg52
Nssa(dp760
g47
I313138863
sg48
(dp761
g50
VE6 bubu dubu
p762
sg52
Nssg53
(lp763
I1095363701
asg41
VWeaponPickup
p764
sg44
VPT1M43.0293362S
p765
sa(dp766
g47
I4096745987
sg48
(dp767
g50
VE6 bubu dubu
p768
sg52
Nssg53
(lp769
I2758383128
asg41
VWeaponPickup
p770
sg44
VPT1M43.0293362S
p771
sa(dp772
g41
VPlayerSpawn
p773
sg48
(dp774
g50
VE6 bubu dubu
p775
sg52
Nssg44
VPT1M43.0293362S
p776
sa(dp777
g242
I4096745987
sg243
I00
sg244
I01
sg245
(dp778
g50
VALG RyaNoob
p779
sg52
Nssg248
(lp780
I2758383128
asg250
I00
sg251
I00
sg252
I1
sg253
I0
sg254
I1
sg255
(dp781
Vy
F12.4670925
sVx
F2.87418175
sVz
F3.34496379
ssg257
(dp782
Vy
F12.193027499999999
sVx
F2.6615908099999999
sVz
F3.1845917699999999
ssg259
I00
sg260
(dp783
g50
VE6 Cratos HCS
p784
sg52
Nssg264
(lp785
sg266
(lp786
sg268
I00
sg44
VPT1M48.5954767S
p787
sg41
VDeath
p788
sg271
I1
sa(dp789
g41
VMedal
p790
sg48
(dp791
g50
VALG RyaNoob
p792
sg52
Nssg290
I2287626681
sg44
VPT1M48.5964774S
p793
sa(dp794
g47
I723388907
sg41
VWeaponDrop
p795
sg189
I3
sg53
(lp796
I89283061
asg44
VPT1M48.5974975S
p797
sg192
I3
sg193
VP0DT0H0M3.4667S
p798
sg48
(dp799
g50
VE6 Cratos HCS
p800
sg52
Nssa(dp801
g47
I4096745987
sg41
VWeaponDrop
p802
sg189
I36
sg53
(lp803
I2758383128
asg44
VPT1M48.5974975S
p804
sg192
I16
sg193
VP0DT0H1M26.4667S
p805
sg48
(dp806
g50
VE6 Cratos HCS
p807
sg52
Nssa(dp808
g47
I4096745987
sg41
VWeaponDrop
p809
sg189
I0
sg53
(lp810
I2758383128
asg44
VPT1M48.5974975S
p811
sg192
I0
sg193
VP0DT0S
p812
sg48
(dp813
g50
VE6 Cratos HCS
p814
sg52
Nssa(dp815
g47
I313138863
sg48
(dp816
g50
VALG ContrA HCS
p817
sg52
Nssg53
(lp818
I1095363701
asg41
VWeaponPickup
p819
sg44
VPT1M48.8465093S
p820
sa(dp821
g47
I4096745987
sg48
(dp822
g50
VALG ContrA HCS
p823
sg52
Nssg53
(lp824
I2758383128
asg41
VWeaponPickup
p825
sg44
VPT1M48.8465093S
p826
sa(dp827
g41
VPlayerSpawn
p828
sg48
(dp829
g50
VALG ContrA HCS
p830
sg52
Nssg44
VPT1M48.8465093S
p831
sa(dp832
g47
I313138863
sg41
VWeaponDrop
p833
sg189
I0
sg53
(lp834
I1095363701
asg44
VPT1M51.710579S
p835
sg192
I0
sg193
VP0DT0H0M0.7000S
p836
sg48
(dp837
g50
VALGPredevonator
p838
sg52
Nssa(dp839
g47
I424645655
sg48
(dp840
g50
VALGPredevonator
p841
sg52
Nssg53
(lp842
I1327094800
asg41
VWeaponPickup
p843
sg44
VPT1M51.7115902S
p844
sa(dp845
g47
I424645655
sg41
VWeaponDrop
p846
sg189
I0
sg53
(lp847
I1327094800
asg44
VPT1M53.5446353S
p848
sg192
I0
sg193
VP0DT0H0M1.8333S
p849
sg48
(dp850
g50
VALGPredevonator
p851
sg52
Nssa(dp852
g47
I669296699
sg48
(dp853
g50
VALGPredevonator
p854
sg52
Nssg53
(lp855
I2758383128
asg41
VWeaponPickup
p856
sg44
VPT1M53.5446353S
p857
sa(dp858
g47
I4096745987
sg41
VWeaponDrop
p859
sg189
I18
sg53
(lp860
I2758383128
asg44
VPT1M56.0107376S
p861
sg192
I12
sg193
VP0DT0H1M4.0500S
p862
sg48
(dp863
g50
VALG RyaNoob
p864
sg52
Nssa(dp865
g47
I4096745987
sg41
VWeaponDrop
p866
sg189
I0
sg53
(lp867
I2758383128
asg44
VPT1M56.0107376S
p868
sg192
I0
sg193
VP0DT0S
p869
sg48
(dp870
g50
VALG RyaNoob
p871
sg52
Nssa(dp872
g47
I2511447508
sg48
(dp873
g50
VALG RyaNoob
p874
sg52
Nssg53
(lp875
I2758383128
asg41
VWeaponPickup
p876
sg44
VPT1M56.0107376S
p877
sa(dp878
g47
I313138863
sg48
(dp879
g50
VE6 Cratos HCS
p880
sg52
Nssg53
(lp881
I1095363701
asg41
VWeaponPickup
p882
sg44
VPT1M56.6127527S
p883
sa(dp884
g47
I4096745987
sg48
(dp885
g50
VE6 Cratos HCS
p886
sg52
Nssg53
(lp887
I2758383128
asg41
VWeaponPickup
p888
sg44
VPT1M56.6127527S
p889
sa(dp890
g41
VPlayerSpawn
p891
sg48
(dp892
g50
VE6 Cratos HCS
p893
sg52
Nssg44
VPT1M56.6127527S
p894
sa(dp895
g47
I313138863
sg41
VWeaponDrop
p896
sg189
I0
sg53
(lp897
I1095363701
asg44
VPT2M5.1280062S
p898
sg192
I0
sg193
VP0DT0H0M1.9000S
p899
sg48
(dp900
g50
VE6 Cratos HCS
p901
sg52
Nssa(dp902
g47
I723388907
sg48
(dp903
g50
VE6 Cratos HCS
p904
sg52
Nssg53
(lp905
I89283061
asg41
VWeaponPickup
p906
sg44
VPT2M5.1280062S
p907
sa(dp908
g242
I669296699
sg243
I00
sg244
I00
sg245
(dp909
g50
VALGPredevonator
p910
sg52
Nssg248
(lp911
I2758383128
asg250
I00
sg251
I01
sg252
I1
sg253
I0
sg254
I1
sg255
(dp912
Vy
F10.0836077
sVx
F2.3252301200000001
sVz
F1.5927541300000001
ssg257
(dp913
Vy
F13.088892
sVx
F-5.4752492899999998
sVz
F1.6000533100000001
ssg259
I00
sg260
(dp914
g50
VE6 Cratos HCS
p915
sg52
Nssg264
(lp916
sg266
(lp917
sg268
I01
sg44
VPT2M7.2952393S
p918
sg41
VDeath
p919
sg271
I1
sa(dp920
g41
VMedal
p921
sg48
(dp922
g50
VALGPredevonator
p923
sg52
Nssg290
I848240062
sg44
VPT2M7.2970945S
p924
sa(dp925
g47
I723388907
sg41
VWeaponDrop
p926
sg189
I0
sg53
(lp927
I89283061
asg44
VPT2M7.2970945S
p928
sg192
I0
sg193
VP0DT0H0M0.4667S
p929
sg48
(dp930
g50
VE6 Cratos HCS
p931
sg52
Nssa(dp932
g47
I4096745987
sg41
VWeaponDrop
p933
sg189
I0
sg53
(lp934
I2758383128
asg44
VPT2M7.2970945S
p935
sg192
I0
sg193
VP0DT0H0M8.3167S
p936
sg48
(dp937
g50
VE6 Cratos HCS
p938
sg52
Nssa(dp939
g242
I2511447508
sg243
I00
sg244
I00
sg245
(dp940
g50
VALG RyaNoob
p941
sg52
Nssg248
(lp942
I2758383128
asg250
I00
sg251
I01
sg252
I1
sg253
I0
sg254
I1
sg255
(dp943
Vy
F9.58507
sVx
F-1.32195675
sVz
F1.5994879
ssg257
(dp944
Vy
F7.3857712700000002
sVx
F-3.3243913699999998
sVz
F1.64041686
ssg259
I00
sg260
(dp945
g50
VE6 bubu dubu
p946
sg52
Nssg264
(lp947
sg266
(lp948
sg268
I00
sg44
VPT2M7.4120782S
p949
sg41
VDeath
p950
sg271
I1
sa(dp951
g47
I313138863
sg41
VWeaponDrop
p952
sg189
I0
sg53
(lp953
I1095363701
asg44
VPT2M7.4141341S
p954
sg192
I0
sg193
VP0DT0H0M3.2667S
p955
sg48
(dp956
g50
VE6 bubu dubu
p957
sg52
Nssa(dp958
g47
I4096745987
sg41
VWeaponDrop
p959
sg189
I5
sg53
(lp960
I2758383128
asg44
VPT2M7.4141341S
p961
sg192
I1
sg193
VP0DT0H0M21.1167S
p962
sg48
(dp963
g50
VE6 bubu dubu
p964
sg52
Nssa(dp965
g242
I4096745987
sg243
I00
sg244
I00
sg245
(dp966
g50
VALG ContrA HCS
p967
sg52
Nssg248
(lp968
I2758383128
asg250
I00
sg251
I01
sg252
I1
sg253
I0
sg254
I1
sg255
(dp969
Vy
F-9.1735729999999993
sVx
F-3.5349528800000001
sVz
F3.9749963300000002
ssg257
(dp970
Vy
F2.2420146500000002
sVx
F-3.0162143700000001
sVz
F3.2006764400000001
ssg259
I00
sg260
(dp971
g50
VE6 Shooter
p972
sg52
Nssg264
(lp973
sg266
(lp974
sg268
I01
sg44
VPT2M9.9451602S
p975
sg41
VDeath
p976
sg271
I1
sa(dp977
g41
VImpulse
p978
sg48
(dp979
g50
VALG ContrA HCS
p980
sg52
NssVImpulseId
p981
I3174430457
sg44
VPT2M9.9471829S
p982
sa(dp983
g41
VMedal
p984
sg48
(dp985
g50
VALG ContrA HCS
p986
sg52
Nssg290
I3653057799
sg44
VPT2M9.9471829S
p987
sa(dp988
g47
I424645655
sg41
VWeaponDrop
p989
sg189
I42
sg53
(lp990
I1327094800
asg44
VPT2M9.9481813S
p991
sg192
I9
sg193
VP0DT0H1M12.4000S
p992
sg48
(dp993
g50
VE6 Shooter
p994
sg52
Nssa(dp995
g47
I524558978
sg41
VWeaponDrop
p996
sg189
I3
sg53
(lp997
I2758383128
asg44
VPT2M9.9491825S
p998
sg192
I1
sg193
VP0DT0H0M16.4000S
p999
sg48
(dp1000
g50
VE6 Shooter
p1001
sg52
Nssa(dp1002
g47
I524558978
sg41
VWeaponDrop
p1003
sg189
I0
sg53
(lp1004
I2758383128
asg44
VPT2M9.9491825S
p1005
sg192
I0
sg193
VP0DT0S
p1006
sg48
(dp1007
g50
VE6 Shooter
p1008
sg52
Nssa(dp1009
g47
I313138863
sg48
(dp1010
g50
VE6 Cratos HCS
p1011
sg52
Nssg53
(lp1012
I1095363701
asg41
VWeaponPickup
p1013
sg44
VPT2M15.312351S
p1014
sa(dp1015
g47
I4096745987
sg48
(dp1016
g50
VE6 Cratos HCS
p1017
sg52
Nssg53
(lp1018
I2758383128
asg41
VWeaponPickup
p1019
sg44
VPT2M15.312351S
p1020
sa(dp1021
g41
VPlayerSpawn
p1022
sg48
(dp1023
g50
VE6 Cratos HCS
p1024
sg52
Nssg44
VPT2M15.312351S
p1025
sa(dp1026
g47
I313138863
sg48
(dp1027
g50
VE6 bubu dubu
p1028
sg52
Nssg53
(lp1029
I1095363701
asg41
VWeaponPickup
p1030
sg44
VPT2M15.4293548S
p1031
sa(dp1032
g47
I4096745987
sg48
(dp1033
g50
VE6 bubu dubu
p1034
sg52
Nssg53
(lp1035
I2758383128
asg41
VWeaponPickup
p1036
sg44
VPT2M15.4293548S
p1037
sa(dp1038
g41
VPlayerSpawn
p1039
sg48
(dp1040
g50
VE6 bubu dubu
p1041
sg52
Nssg44
VPT2M15.4293548S
p1042
sa(dp1043
g242
I4096745987
sg243
I00
sg244
I00
sg245
(dp1044
g50
VALG Heinz HCS
p1045
sg52
Nssg248
(lp1046
I2758383128
asg250
I00
sg251
I01
sg252
I1
sg253
I0
sg254
I1
sg255
(dp1047
Vy
F3.6786906699999999
sVx
F-9.4956410000000009
sVz
F2.4428117299999998
ssg257
(dp1048
Vy
F11.509882899999999
sVx
F-7.0173509999999997
sVz
F2.3200120000000002
ssg259
I00
sg260
(dp1049
g50
VE6 Huke HCS
p1050
sg52
Nssg264
(lp1051
sg266
(lp1052
(dp1053
g50
VALG ContrA HCS
p1054
sg52
Nsasg268
I01
sg44
VPT2M15.528347S
p1055
sg41
VDeath
p1056
sg271
I1
sa(dp1057
g41
VMedal
p1058
sg48
(dp1059
g50
VALG Heinz HCS
p1060
sg52
Nssg290
I3261908037
sg44
VPT2M15.5303645S
p1061
sa(dp1062
g47
I313138863
sg41
VWeaponDrop
p1063
sg189
I0
sg53
(lp1064
I1095363701
asg44
VPT2M15.5303645S
p1065
sg192
I0
sg193
VP0DT0H0M0.6667S
p1066
sg48
(dp1067
g50
VE6 Huke HCS
p1068
sg52
Nssa(dp1069
g47
I424645655
sg41
VWeaponDrop
p1070
sg189
I8
sg53
(lp1071
I1327094800
asg44
VPT2M15.5303645S
p1072
sg192
I7
sg193
VP0DT0H0M35.0333S
p1073
sg48
(dp1074
g50
VE6 Huke HCS
p1075
sg52
Nssa(dp1076
g47
I313138863
sg48
(dp1077
g50
VE6 Shooter
p1078
sg52
Nssg53
(lp1079
I1095363701
asg41
VWeaponPickup
p1080
sg44
VPT2M17.9624349S
p1081
sa(dp1082
g47
I4096745987
sg48
(dp1083
g50
VE6 Shooter
p1084
sg52
Nssg53
(lp1085
I2758383128
asg41
VWeaponPickup
p1086
sg44
VPT2M17.9624349S
p1087
sa(dp1088
g41
VPlayerSpawn
p1089
sg48
(dp1090
g50
VE6 Shooter
p1091
sg52
Nssg44
VPT2M17.9624349S
p1092
sa(dp1093
g47
I313138863
sg41
VWeaponDrop
p1094
sg189
I0
sg53
(lp1095
I1095363701
asg44
VPT2M18.5944358S
p1096
sg192
I0
sg193
VP0DT0H0M0.5333S
p1097
sg48
(dp1098
g50
VALG ContrA HCS
p1099
sg52
Nssa(dp1100
g47
I723388907
sg48
(dp1101
g50
VALG ContrA HCS
p1102
sg52
Nssg53
(lp1103
I89283061
asg41
VWeaponPickup
p1104
sg44
VPT2M18.5944358S
p1105
sa(dp1106
g47
I313138863
sg48
(dp1107
g50
VE6 Huke HCS
p1108
sg52
Nssg53
(lp1109
I1095363701
asg41
VWeaponPickup
p1110
sg44
VPT2M23.545596S
p1111
sa(dp1112
g47
I4096745987
sg48
(dp1113
g50
VE6 Huke HCS
p1114
sg52
Nssg53
(lp1115
I2758383128
asg41
VWeaponPickup
p1116
sg44
VPT2M23.5467686S
p1117
sa(dp1118
g41
VPlayerSpawn
p1119
sg48
(dp1120
g50
VE6 Huke HCS
p1121
sg52
Nssg44
VPT2M23.5467686S
p1122
sa(dp1123
g242
I4096745987
sg243
I00
sg244
I00
sg245
(dp1124
g50
VE6 bubu dubu
p1125
sg52
Nssg248
(lp1126
I2758383128
asg250
I00
sg251
I01
sg252
I1
sg253
I0
sg254
I1
sg255
(dp1127
Vy
F2.6914820000000002
sVx
F16.0335617
sVz
F0.85749779999999998
ssg257
(dp1128
Vy
F5.5024259999999998
sVx
F8.2675300000000007
sVz
F3.2040066700000001
ssg259
I00
sg260
(dp1129
g50
VALG ContrA HCS
p1130
sg52
Nssg264
(lp1131
sg266
(lp1132
(dp1133
g50
VE6 Shooter
p1134
sg52
Nsasg268
I01
sg44
VPT2M28.3287482S
p1135
sg41
VDeath
p1136
sg271
I1
sa(dp1137
g41
VMedal
p1138
sg48
(dp1139
g50
VE6 bubu dubu
p1140
sg52
Nssg290
I3261908037
sg44
VPT2M28.3297711S
p1141
sa(dp1142
g47
I723388907
sg41
VWeaponDrop
p1143
sg189
I0
sg53
(lp1144
I89283061
asg44
VPT2M28.3307663S
p1145
sg192
I0
sg193
VP0DT0H0M0.6333S
p1146
sg48
(dp1147
g50
VALG ContrA HCS
p1148
sg52
Nssa(dp1149
g47
I4096745987
sg41
VWeaponDrop
p1150
sg189
I11
sg53
(lp1151
I2758383128
asg44
VPT2M28.3307663S
p1152
sg192
I8
sg193
VP0DT0H0M38.3167S
p1153
sg48
(dp1154
g50
VALG ContrA HCS
p1155
sg52
Nssa(dp1156
g47
I4096745987
sg41
VWeaponDrop
p1157
sg189
I6
sg53
(lp1158
I2758383128
asg44
VPT2M30.4438445S
p1159
sg192
I3
sg193
VP0DT0H0M14.0000S
p1160
sg48
(dp1161
g50
VE6 Cratos HCS
p1162
sg52
Nssa(dp1163
g47
I424645655
sg48
(dp1164
g50
VE6 Cratos HCS
p1165
sg52
Nssg53
(lp1166
I1327094800
asg41
VWeaponPickup
p1167
sg44
VPT2M30.4438445S
p1168
sa(dp1169
g47
I313138863
sg41
VWeaponDrop
p1170
sg189
I0
sg53
(lp1171
I1095363701
asg44
VPT2M31.3108874S
p1172
sg192
I0
sg193
VP0DT0H0M0.7667S
p1173
sg48
(dp1174
g50
VE6 bubu dubu
p1175
sg52
Nssa(dp1176
g47
I723388907
sg48
(dp1177
g50
VE6 bubu dubu
p1178
sg52
Nssg53
(lp1179
I89283061
asg41
VWeaponPickup
p1180
sg44
VPT2M31.3108874S
p1181
sa(dp1182
g242
I669296699
sg243
I00
sg244
I00
sg245
(dp1183
g50
VALGPredevonator
p1184
sg52
Nssg248
(lp1185
I2758383128
asg250
I00
sg251
I01
sg252
I1
sg253
I0
sg254
I1
sg255
(dp1186
Vy
F10.1070013
sVx
F15.548902500000001
sVz
F3.1995618299999999
ssg257
(dp1187
Vy
F-5.5571217500000003
sVx
F14.448775299999999
sVz
F1.6750004300000001
ssg259
I00
sg260
(dp1188
g50
VE6 Cratos HCS
p1189
sg52
Nssg264
(lp1190
sg266
(lp1191
(dp1192
g50
VALG RyaNoob
p1193
sg52
Nsasg268
I00
sg44
VPT2M32.3449019S
p1194
sg41
VDeath
p1195
sg271
I1
sa(dp1196
g41
VImpulse
p1197
sg48
(dp1198
g50
VALGPredevonator
p1199
sg52
Nssg981
I2556889090
sg44
VPT2M32.3459S
p1200
sa(dp1201
g41
VMedal
p1202
sg48
(dp1203
g50
VALGPredevonator
p1204
sg52
Nssg290
I352859864
sg44
VPT2M32.3459S
p1205
sa(dp1206
g41
VMedal
p1207
sg48
(dp1208
g50
VALG Heinz HCS
p1209
sg52
Nssg290
I824733727
sg44
VPT2M32.3468976S
p1210
sa(dp1211
g47
I313138863
sg41
VWeaponDrop
p1212
sg189
I0
sg53
(lp1213
I1095363701
asg44
VPT2M32.347879S
p1214
sg192
I0
sg193
VP0DT0H0M1.1333S
p1215
sg48
(dp1216
g50
VE6 Cratos HCS
p1217
sg52
Nssa(dp1218
g47
I424645655
sg41
VWeaponDrop
p1219
sg189
I6
sg53
(lp1220
I1327094800
asg44
VPT2M32.347879S
p1221
sg192
I0
sg193
VP0DT0H0M1.9000S
p1222
sg48
(dp1223
g50
VE6 Cratos HCS
p1224
sg52
Nssa(dp1225
g242
I723388907
sg243
I00
sg244
I00
sg245
(dp1226
g50
VE6 bubu dubu
p1227
sg52
Nssg248
(lp1228
I89283061
asg250
I00
sg251
I01
sg252
I1
sg253
I0
sg254
I1
sg255
(dp1229
Vy
F7.2388286600000002
sVx
F4.0072830000000002
sVz
F1.47329485
ssg257
(dp1230
Vy
F6.7333629999999998
sVx
F2.3215303399999998
sVz
F0.86758095000000002
ssg259
I00
sg260
(dp1231
g50
VALG Heinz HCS
p1232
sg52
Nssg264
(lp1233
sg266
(lp1234
(dp1235
g50
VE6 Cratos HCS
p1236
sg52
Nsa(dp1237
g50
VE6 Huke HCS
p1238
sg52
Nsasg268
I00
sg44
VPT2M34.0122155S
p1239
sg41
VDeath
p1240
sg271
I1
sa(dp1241
g47
I2133511419
sg41
VWeaponDrop
p1242
sg189
I22
sg53
(lp1243
I2758383128
asg44
VPT2M34.0139667S
p1244
sg192
I3
sg193
VP0DT0H0M41.9833S
p1245
sg48
(dp1246
g50
VALG Heinz HCS
p1247
sg52
Nssa(dp1248
g47
I4096745987
sg41
VWeaponDrop
p1249
sg189
I19
sg53
(lp1250
I2758383128
asg44
VPT2M34.0139667S
p1251
sg192
I10
sg193
VP0DT0H1M5.4000S
p1252
sg48
(dp1253
g50
VALG Heinz HCS
p1254
sg52
Nssa(dp1255
g47
I313138863
sg48
(dp1256
g50
VALG ContrA HCS
p1257
sg52
Nssg53
(lp1258
I1095363701
asg41
VWeaponPickup
p1259
sg44
VPT2M36.3460244S
p1260
sa(dp1261
g47
I4096745987
sg48
(dp1262
g50
VALG ContrA HCS
p1263
sg52
Nssg53
(lp1264
I2758383128
asg41
VWeaponPickup
p1265
sg44
VPT2M36.3460244S
p1266
sa(dp1267
g41
VPlayerSpawn
p1268
sg48
(dp1269
g50
VALG ContrA HCS
p1270
sg52
Nssg44
VPT2M36.3460244S
p1271
sa(dp1272
g47
I2492868984
sg48
(dp1273
g50
VE6 Huke HCS
p1274
sg52
Nssg53
(lp1275
I2758383128
asg41
VWeaponPickup
p1276
sg44
VPT2M38.328069S
p1277
sa(dp1278
g242
I2511447508
sg243
I00
sg244
I00
sg245
(dp1279
g50
VALG RyaNoob
p1280
sg52
Nssg248
(lp1281
I2758383128
asg250
I00
sg251
I01
sg252
I1
sg253
I0
sg254
I1
sg255
(dp1282
Vy
F12.621303599999999
sVx
F12.9957323
sVz
F3.1995623100000001
ssg257
(dp1283
Vy
F11.339194300000001
sVx
F7.4201439999999996
sVz
F4.284529
ssg259
I00
sg260
(dp1284
g50
VE6 bubu dubu
p1285
sg52
Nssg264
(lp1286
sg266
(lp1287
sg268
I00
sg44
VPT2M38.71208S
p1288
sg41
VDeath
p1289
sg271
I1
sa(dp1290
g41
VImpulse
p1291
sg48
(dp1292
g50
VALG RyaNoob
p1293
sg52
Nssg981
I2556889090
sg44
VPT2M38.71208S
p1294
sa(dp1295
g41
VMedal
p1296
sg48
(dp1297
g50
VALG RyaNoob
p1298
sg52
Nssg290
I2838259753
sg44
VPT2M38.71208S
p1299
sa(dp1300
g41
VMedal
p1301
sg48
(dp1302
g50
VALGPredevonator
p1303
sg52
Nssg290
I824733727
sg44
VPT2M38.7130992S
p1304
sa(dp1305
g47
I723388907
sg41
VWeaponDrop
p1306
sg189
I34
sg53
(lp1307
I89283061
asg44
VPT2M38.7140983S
p1308
sg192
I9
sg193
VP0DT0H0M7.4000S
p1309
sg48
(dp1310
g50
VE6 bubu dubu
p1311
sg52
Nssa(dp1312
g47
I4096745987
sg41
VWeaponDrop
p1313
sg189
I7
sg53
(lp1314
I2758383128
asg44
VPT2M38.7140983S
p1315
sg192
I2
sg193
VP0DT0H0M15.1167S
p1316
sg48
(dp1317
g50
VE6 bubu dubu
p1318
sg52
Nssa(dp1319
g47
I2492868984
sg41
VWeaponDrop
p1320
sg189
I0
sg53
(lp1321
I2758383128
asg44
VPT2M39.4791047S
p1322
sg192
I0
sg193
VP0DT0H0M0.9833S
p1323
sg48
(dp1324
g50
VE6 Huke HCS
p1325
sg52
Nssa(dp1326
g47
I313138863
sg48
(dp1327
g50
VE6 Cratos HCS
p1328
sg52
Nssg53
(lp1329
I1095363701
asg41
VWeaponPickup
p1330
sg44
VPT2M40.3621573S
p1331
sa(dp1332
g47
I4096745987
sg48
(dp1333
g50
VE6 Cratos HCS
p1334
sg52
Nssg53
(lp1335
I2758383128
asg41
VWeaponPickup
p1336
sg44
VPT2M40.3621573S
p1337
sa(dp1338
g41
VPlayerSpawn
p1339
sg48
(dp1340
g50
VE6 Cratos HCS
p1341
sg52
Nssg44
VPT2M40.3621573S
p1342
sa(dp1343
g47
I313138863
sg48
(dp1344
g50
VALG Heinz HCS
p1345
sg52
Nssg53
(lp1346
I1095363701
asg41
VWeaponPickup
p1347
sg44
VPT2M42.0292087S
p1348
sa(dp1349
g47
I4096745987
sg48
(dp1350
g50
VALG Heinz HCS
p1351
sg52
Nssg53
(lp1352
I2758383128
asg41
VWeaponPickup
p1353
sg44
VPT2M42.0292087S
p1354
sa(dp1355
g41
VPlayerSpawn
p1356
sg48
(dp1357
g50
VALG Heinz HCS
p1358
sg52
Nssg44
VPT2M42.0292087S
p1359
sa(dp1360
g242
I313138863
sg243
I00
sg244
I00
sg245
(dp1361
g50
VE6 Huke HCS
p1362
sg52
Nssg248
(lp1363
I1095363701
asg250
I00
sg251
I01
sg252
I1
sg253
I0
sg254
I1
sg255
(dp1364
Vy
F11.4149189
sVx
F10.8520784
sVz
F4.0367920000000002
ssg257
(dp1365
Vy
F9.0340380000000007
sVx
F13.948837299999999
sVz
F4.0185570000000004
ssg259
I00
sg260
(dp1366
g50
VALG RyaNoob
p1367
sg52
Nssg264
(lp1368
sg266
(lp1369
(dp1370
g50
VE6 Shooter
p1371
sg52
Nsasg268
I00
sg44
VPT2M42.362197S
p1372
sg41
VDeath
p1373
sg271
I1
sa(dp1374
g47
I313138863
sg41
VWeaponDrop
p1375
sg189
I0
sg53
(lp1376
I1095363701
asg44
VPT2M42.3642185S
p1377
sg192
I0
sg193
VP0DT0H0M0.7000S
p1378
sg48
(dp1379
g50
VALG RyaNoob
p1380
sg52
Nssa(dp1381
g47
I2511447508
sg41
VWeaponDrop
p1382
sg189
I20
sg53
(lp1383
I2758383128
asg44
VPT2M42.3642185S
p1384
sg192
I11
sg193
VP0DT0H0M46.3500S
p1385
sg48
(dp1386
g50
VALG RyaNoob
p1387
sg52
Nssa(dp1388
g41
VMedal
p1389
sg48
(dp1390
g50
VALGPredevonator
p1391
sg52
Nssg290
I3400287617
sg44
VPT2M42.5942256S
p1392
sa(dp1393
g47
I313138863
sg48
(dp1394
g50
VE6 bubu dubu
p1395
sg52
Nssg53
(lp1396
I1095363701
asg41
VWeaponPickup
p1397
sg44
VPT2M46.7283375S
p1398
sa(dp1399
g47
I4096745987
sg48
(dp1400
g50
VE6 bubu dubu
p1401
sg52
Nssg53
(lp1402
I2758383128
asg41
VWeaponPickup
p1403
sg44
VPT2M46.7293565S
p1404
sa(dp1405
g41
VPlayerSpawn
p1406
sg48
(dp1407
g50
VE6 bubu dubu
p1408
sg52
Nssg44
VPT2M46.7293565S
p1409
sa(dp1410
g242
I669296699
sg243
I00
sg244
I01
sg245
(dp1411
g50
VALGPredevonator
p1412
sg52
Nssg248
(lp1413
I2758383128
asg250
I00
sg251
I00
sg252
I1
sg253
I0
sg254
I1
sg255
(dp1414
Vy
F6.3485865600000002
sVx
F15.7125874
sVz
F2.5842170000000002
ssg257
(dp1415
Vy
F6.5621039999999997
sVx
F15.9956455
sVz
F2.9949469999999998
ssg259
I00
sg260
(dp1416
g50
VE6 Huke HCS
p1417
sg52
Nssg264
(lp1418
sg266
(lp1419
(dp1420
g50
VALG ContrA HCS
p1421
sg52
Nsasg268
I00
sg44
VPT2M48.4283911S
p1422
sg41
VDeath
p1423
sg271
I1
sa(dp1424
g41
VImpulse
p1425
sg48
(dp1426
g50
VALGPredevonator
p1427
sg52
Nssg981
I2556889090
sg44
VPT2M48.4283911S
p1428
sa(dp1429
g41
VMedal
p1430
sg48
(dp1431
g50
VALGPredevonator
p1432
sg52
Nssg290
I2838259753
sg44
VPT2M48.4283911S
p1433
sa(dp1434
g41
VMedal
p1435
sg48
(dp1436
g50
VALGPredevonator
p1437
sg52
Nssg290
I2108880282
sg44
VPT2M48.4304105S
p1438
sa(dp1439
g47
I4096745987
sg41
VWeaponDrop
p1440
sg189
I12
sg53
(lp1441
I2758383128
asg44
VPT2M48.4304105S
p1442
sg192
I5
sg193
VP0DT0H0M16.6833S
p1443
sg48
(dp1444
g50
VE6 Huke HCS
p1445
sg52
Nssa(dp1446
g47
I313138863
sg41
VWeaponDrop
p1447
sg189
I21
sg53
(lp1448
I1095363701
asg44
VPT2M48.4313934S
p1449
sg192
I10
sg193
VP0DT0H0M7.2000S
p1450
sg48
(dp1451
g50
VE6 Huke HCS
p1452
sg52
Nssa(dp1453
g242
I313138863
sg243
I00
sg244
I00
sg245
(dp1454
g50
VE6 Shooter
p1455
sg52
Nssg248
(lp1456
I1095363701
asg250
I00
sg251
I01
sg252
I1
sg253
I0
sg254
I1
sg255
(dp1457
Vy
F-4.188796
sVx
F14.541048
sVz
F1.6750004300000001
ssg257
(dp1458
Vy
F-10.6236
sVx
F17.559118300000002
sVz
F3.901929
ssg259
I00
sg260
(dp1459
g50
VALG Heinz HCS
p1460
sg52
Nssg264
(lp1461
sg266
(lp1462
sg268
I00
sg44
VPT2M48.7444017S
p1463
sg41
VDeath
p1464
sg271
I1
sa(dp1465
g47
I313138863
sg41
VWeaponDrop
p1466
sg189
I0
sg53
(lp1467
I1095363701
asg44
VPT2M48.7464239S
p1468
sg192
I0
sg193
VP0DT0H0M0.7833S
p1469
sg48
(dp1470
g50
VALG Heinz HCS
p1471
sg52
Nssa(dp1472
g47
I4096745987
sg41
VWeaponDrop
p1473
sg189
I5
sg53
(lp1474
I2758383128
asg44
VPT2M48.7464239S
p1475
sg192
I3
sg193
VP0DT0H0M5.9333S
p1476
sg48
(dp1477
g50
VALG Heinz HCS
p1478
sg52
Nssa(dp1479
g242
I4096745987
sg243
I00
sg244
I00
sg245
(dp1480
g50
VE6 bubu dubu
p1481
sg52
Nssg248
(lp1482
I2758383128
asg250
I00
sg251
I01
sg252
I1
sg253
I0
sg254
I1
sg255
(dp1483
Vy
F-0.825596
sVx
F-0.52782034899999997
sVz
F0.549143732
ssg257
(dp1484
Vy
F4.4392909999999999
sVx
F18.817667
sVz
F-0.00590002537
ssg259
I00
sg260
(dp1485
g50
VALG ContrA HCS
p1486
sg52
Nssg264
(lp1487
sg266
(lp1488
(dp1489
g50
VE6 Huke HCS
p1490
sg52
Nsasg268
I01
sg44
VPT2M49.2614185S
p1491
sg41
VDeath
p1492
sg271
I1
sa(dp1493
g41
VMedal
p1494
sg48
(dp1495
g50
VE6 bubu dubu
p1496
sg52
Nssg290
I3261908037
sg44
VPT2M49.2634408S
p1497
sa(dp1498
g47
I313138863
sg41
VWeaponDrop
p1499
sg189
I0
sg53
(lp1500
I1095363701
asg44
VPT2M49.2644393S
p1501
sg192
I0
sg193
VP0DT0H0M0.8500S
p1502
sg48
(dp1503
g50
VALG ContrA HCS
p1504
sg52
Nssa(dp1505
g47
I4096745987
sg41
VWeaponDrop
p1506
sg189
I6
sg53
(lp1507
I2758383128
asg44
VPT2M49.2644393S
p1508
sg192
I4
sg193
VP0DT0H0M12.0667S
p1509
sg48
(dp1510
g50
VALG ContrA HCS
p1511
sg52
Nssa(dp1512
g47
I313138863
sg48
(dp1513
g50
VALG RyaNoob
p1514
sg52
Nssg53
(lp1515
I1095363701
asg41
VWeaponPickup
p1516
sg44
VPT2M50.3784545S
p1517
sa(dp1518
g47
I4096745987
sg48
(dp1519
g50
VALG RyaNoob
p1520
sg52
Nssg53
(lp1521
I2758383128
asg41
VWeaponPickup
p1522
sg44
VPT2M50.3794779S
p1523
sa(dp1524
g41
VPlayerSpawn
p1525
sg48
(dp1526
g50
VALG RyaNoob
p1527
sg52
Nssg44
VPT2M50.3794779S
p1528
sa(dp1529
g47
I313138863
sg41
VWeaponDrop
p1530
sg189
I0
sg53
(lp1531
I1095363701
asg44
VPT2M53.7105787S
p1532
sg192
I0
sg193
VP0DT0H0M1.2833S
p1533
sg48
(dp1534
g50
VE6 bubu dubu
p1535
sg52
Nssa(dp1536
g47
I2133511419
sg48
(dp1537
g50
VE6 bubu dubu
p1538
sg52
Nssg53
(lp1539
I2758383128
asg41
VWeaponPickup
p1540
sg44
VPT2M53.7105787S
p1541
sa(dp1542
g242
I4106030681
sg243
I00
sg244
I00
sg245
(dp1543
g50
VE6 Shooter
p1544
sg52
Nssg248
(lp1545
sg250
I00
sg251
I01
sg252
I1
sg253
I0
sg254
I1
sg255
(dp1546
Vy
F0.33289554700000001
sVx
F20.206298799999999
sVz
F-0.054920107099999997
ssg257
(dp1547
Vy
F8.6814450000000001
sVx
F13.7305346
sVz
F3.1995619999999998
ssg259
I00
sg260
(dp1548
g50
VALGPredevonator
p1549
sg52
Nssg264
(lp1550
sg266
(lp1551
(dp1552
g50
VE6 bubu dubu
p1553
sg52
Nsasg268
I00
sg44
VPT2M54.0775725S
p1554
sg41
VDeath
p1555
sg271
I1
sa(dp1556
g47
I669296699
sg41
VWeaponDrop
p1557
sg189
I9
sg53
(lp1558
I2758383128
asg44
VPT2M54.0795743S
p1559
sg192
I4
sg193
VP0DT0H0M53.9833S
p1560
sg48
(dp1561
g50
VALGPredevonator
p1562
sg52
Nssa(dp1563
g47
I669296699
sg41
VWeaponDrop
p1564
sg189
I0
sg53
(lp1565
I2758383128
asg44
VPT2M54.0795743S
p1566
sg192
I0
sg193
VP0DT0S
p1567
sg48
(dp1568
g50
VALGPredevonator
p1569
sg52
Nssa(dp1570
g47
I4096745987
sg41
VWeaponDrop
p1571
sg189
I0
sg53
(lp1572
I2758383128
asg44
VPT2M54.0795743S
p1573
sg192
I0
sg193
VP0DT0H0M24.2667S
p1574
sg48
(dp1575
g50
VALGPredevonator
p1576
sg52
Nssa(dp1577
g47
I313138863
sg48
(dp1578
g50
VE6 Huke HCS
p1579
sg52
Nssg53
(lp1580
I1095363701
asg41
VWeaponPickup
p1581
sg44
VPT2M56.4456756S
p1582
sa(dp1583
g47
I4096745987
sg48
(dp1584
g50
VE6 Huke HCS
p1585
sg52
Nssg53
(lp1586
I2758383128
asg41
VWeaponPickup
p1587
sg44
VPT2M56.4456756S
p1588
sa(dp1589
g41
VPlayerSpawn
p1590
sg48
(dp1591
g50
VE6 Huke HCS
p1592
sg52
Nssg44
VPT2M56.4456756S
p1593
sa(dp1594
g47
I313138863
sg48
(dp1595
g50
VALG Heinz HCS
p1596
sg52
Nssg53
(lp1597
I1095363701
asg41
VWeaponPickup
p1598
sg44
VPT2M56.7626777S
p1599
sa(dp1600
g47
I4096745987
sg48
(dp1601
g50
VALG Heinz HCS
p1602
sg52
Nssg53
(lp1603
I2758383128
asg41
VWeaponPickup
p1604
sg44
VPT2M56.7626777S
p1605
sa(dp1606
g41
VPlayerSpawn
p1607
sg48
(dp1608
g50
VALG Heinz HCS
p1609
sg52
Nssg44
VPT2M56.7626777S
p1610
sa(dp1611
g47
I313138863
sg48
(dp1612
g50
VALG ContrA HCS
p1613
sg52
Nssg53
(lp1614
I1095363701
asg41
VWeaponPickup
p1615
sg44
VPT2M57.2786944S
p1616
sa(dp1617
g47
I4096745987
sg48
(dp1618
g50
VALG ContrA HCS
p1619
sg52
Nssg53
(lp1620
I2758383128
asg41
VWeaponPickup
p1621
sg44
VPT2M57.2786944S
p1622
sa(dp1623
g41
VPlayerSpawn
p1624
sg48
(dp1625
g50
VALG ContrA HCS
p1626
sg52
Nssg44
VPT2M57.2786944S
p1627
sa(dp1628
g47
I313138863
sg41
VWeaponDrop
p1629
sg189
I0
sg53
(lp1630
I1095363701
asg44
VPT2M58.6107171S
p1631
sg192
I0
sg193
VP0DT0H0M0.5667S
p1632
sg48
(dp1633
g50
VALG Heinz HCS
p1634
sg52
Nssa(dp1635
g47
I723388907
sg48
(dp1636
g50
VALG Heinz HCS
p1637
sg52
Nssg53
(lp1638
I89283061
asg41
VWeaponPickup
p1639
sg44
VPT2M58.6107171S
p1640
sa(dp1641
g242
I313138863
sg243
I00
sg244
I00
sg245
(dp1642
g50
VALG RyaNoob
p1643
sg52
Nssg248
(lp1644
I1095363701
asg250
I00
sg251
I01
sg252
I1
sg253
I0
sg254
I1
sg255
(dp1645
Vy
F13.741252899999999
sVx
F20.771766700000001
sVz
F1.28127646
ssg257
(dp1646
Vy
F10.699885399999999
sVx
F21.460348100000001
sVz
F1.0156124799999999
ssg259
I00
sg260
(dp1647
g50
VE6 Shooter
p1648
sg52
Nssg264
(lp1649
sg266
(lp1650
sg268
I00
sg44
VPT3M0.0947636S
p1651
sg41
VDeath
p1652
sg271
I1
sa(dp1653
g47
I313138863
sg41
VWeaponDrop
p1654
sg189
I33
sg53
(lp1655
I1095363701
asg44
VPT3M0.0967912S
p1656
sg192
I15
sg193
VP0DT0H0M12.7500S
p1657
sg48
(dp1658
g50
VE6 Shooter
p1659
sg52
Nssa(dp1660
g47
I4096745987
sg41
VWeaponDrop
p1661
sg189
I15
sg53
(lp1662
I2758383128
asg44
VPT3M0.0967912S
p1663
sg192
I6
sg193
VP0DT0H0M29.3833S
p1664
sg48
(dp1665
g50
VE6 Shooter
p1666
sg52
Nssa(dp1667
g47
I313138863
sg48
(dp1668
g50
VALGPredevonator
p1669
sg52
Nssg53
(lp1670
I1095363701
asg41
VWeaponPickup
p1671
sg44
VPT3M2.0948356S
p1672
sa(dp1673
g47
I4096745987
sg48
(dp1674
g50
VALGPredevonator
p1675
sg52
Nssg53
(lp1676
I2758383128
asg41
VWeaponPickup
p1677
sg44
VPT3M2.0958527S
p1678
sa(dp1679
g41
VPlayerSpawn
p1680
sg48
(dp1681
g50
VALGPredevonator
p1682
sg52
Nssg44
VPT3M2.0958527S
p1683
sa(dp1684
g47
I313138863
sg48
(dp1685
g50
VE6 Shooter
p1686
sg52
Nssg53
(lp1687
I1095363701
asg41
VWeaponPickup
p1688
sg44
VPT3M8.1120407S
p1689
sa(dp1690
g47
I4096745987
sg48
(dp1691
g50
VE6 Shooter
p1692
sg52
Nssg53
(lp1693
I2758383128
asg41
VWeaponPickup
p1694
sg44
VPT3M8.1120407S
p1695
sa(dp1696
g41
VPlayerSpawn
p1697
sg48
(dp1698
g50
VE6 Shooter
p1699
sg52
Nssg44
VPT3M8.1120407S
p1700
sa(dp1701
g242
I4096745987
sg243
I00
sg244
I00
sg245
(dp1702
g50
VE6 bubu dubu
p1703
sg52
Nssg248
(lp1704
I2758383128
asg250
I00
sg251
I01
sg252
I1
sg253
I0
sg254
I1
sg255
(dp1705
Vy
F3.47796321
sVx
F22.304006600000001
sVz
F-0.0059000850000000002
ssg257
(dp1706
Vy
F13.806699999999999
sVx
F21.269259999999999
sVz
F1.0314174899999999
ssg259
I00
sg260
(dp1707
g50
VALG RyaNoob
p1708
sg52
Nssg264
(lp1709
sg266
(lp1710
sg268
I01
sg44
VPT3M8.1780237S
p1711
sg41
VDeath
p1712
sg271
I1
sa(dp1713
g41
VMedal
p1714
sg48
(dp1715
g50
VE6 bubu dubu
p1716
sg52
Nssg290
I3261908037
sg44
VPT3M8.1810259S
p1717
sa(dp1718
g47
I313138863
sg41
VWeaponDrop
p1719
sg189
I10
sg53
(lp1720
I1095363701
asg44
VPT3M8.1810259S
p1721
sg192
I6
sg193
VP0DT0H0M4.0500S
p1722
sg48
(dp1723
g50
VALG RyaNoob
p1724
sg52
Nssa(dp1725
g47
I313138863
sg41
VWeaponDrop
p1726
sg189
I0
sg53
(lp1727
I1095363701
asg44
VPT3M8.1810259S
p1728
sg192
I0
sg193
VP0DT0S
p1729
sg48
(dp1730
g50
VALG RyaNoob
p1731
sg52
Nssa(dp1732
g47
I4096745987
sg41
VWeaponDrop
p1733
sg189
I5
sg53
(lp1734
I2758383128
asg44
VPT3M8.1810259S
p1735
sg192
I3
sg193
VP0DT0H0M13.7500S
p1736
sg48
(dp1737
g50
VALG RyaNoob
p1738
sg52
Nssa(dp1739
g242
I4096745987
sg243
I00
sg244
I00
sg245
(dp1740
g50
VALGPredevonator
p1741
sg52
Nssg248
(lp1742
I2758383128
asg250
I00
sg251
I01
sg252
I1
sg253
I0
sg254
I1
sg255
(dp1743
Vy
F7.6454267500000004
sVx
F-3.0700681200000002
sVz
F2.46502519
ssg257
(dp1744
Vy
F-1.1958963899999999
sVx
F-3.1569507099999998
sVz
F4.2724770000000003
ssg259
I00
sg260
(dp1745
g50
VE6 Huke HCS
p1746
sg52
Nssg264
(lp1747
sg266
(lp1748
sg268
I01
sg44
VPT3M10.9951136S
p1749
sg41
VDeath
p1750
sg271
I1
sa(dp1751
g41
VMedal
p1752
sg48
(dp1753
g50
VALGPredevonator
p1754
sg52
Nssg290
I3261908037
sg44
VPT3M10.9971327S
p1755
sa(dp1756
g47
I313138863
sg41
VWeaponDrop
p1757
sg189
I8
sg53
(lp1758
I1095363701
asg44
VPT3M10.9981358S
p1759
sg192
I3
sg193
VP0DT0H0M4.6000S
p1760
sg48
(dp1761
g50
VE6 Huke HCS
p1762
sg52
Nssa(dp1763
g47
I4096745987
sg41
VWeaponDrop
p1764
sg189
I5
sg53
(lp1765
I2758383128
asg44
VPT3M10.9981358S
p1766
sg192
I4
sg193
VP0DT0H0M9.9500S
p1767
sg48
(dp1768
g50
VE6 Huke HCS
p1769
sg52
Nssa(dp1770
g242
I4106030681
sg243
I00
sg244
I00
sg245
(dp1771
g50
VE6 Shooter
p1772
sg52
Nssg248
(lp1773
sg250
I00
sg251
I00
sg252
I2
sg253
I0
sg254
I0
sg255
(dp1774
Vy
F-4.3860279999999996
sVx
F4.5198729999999996
sVz
F1.20363975
ssg257
(dp1775
Vy
F9.3501639999999995
sVx
F12.2889576
sVz
F5.5042586299999998
ssg259
I00
sg260
(dp1776
g262
g263
ssg264
(lp1777
sg266
(lp1778
sg268
I00
sg44
VPT3M13.6112448S
p1779
sg41
VDeath
p1780
sg271
I1
sa(dp1781
g242
I4106030681
sg243
I00
sg244
I00
sg245
(dp1782
g50
VE6 Shooter
p1783
sg52
Nssg248
(lp1784
sg250
I00
sg251
I01
sg252
I1
sg253
I0
sg254
I1
sg255
(dp1785
Vy
F-1.31769037
sVx
F1.941238
sVz
F0.022372156399999999
ssg257
(dp1786
Vy
F8.6219280000000005
sVx
F-1.2571041599999999
sVz
F3.0479085399999999
ssg259
I00
sg260
(dp1787
g50
VALGPredevonator
p1788
sg52
Nssg264
(lp1789
sg266
(lp1790
(dp1791
g50
VE6 Huke HCS
p1792
sg52
Nsasg268
I00
sg44
VPT3M15.4112553S
p1793
sg41
VDeath
p1794
sg271
I1
sa(dp1795
g47
I313138863
sg41
VWeaponDrop
p1796
sg189
I0
sg53
(lp1797
I1095363701
asg44
VPT3M15.4132561S
p1798
sg192
I0
sg193
VP0DT0H0M0.8000S
p1799
sg48
(dp1800
g50
VALGPredevonator
p1801
sg52
Nssa(dp1802
g47
I4096745987
sg41
VWeaponDrop
p1803
sg189
I8
sg53
(lp1804
I2758383128
asg44
VPT3M15.4132561S
p1805
sg192
I5
sg193
VP0DT0H0M12.5167S
p1806
sg48
(dp1807
g50
VALGPredevonator
p1808
sg52
Nssa(dp1809
g47
I313138863
sg48
(dp1810
g50
VALG RyaNoob
p1811
sg52
Nssg53
(lp1812
I1095363701
asg41
VWeaponPickup
p1813
sg44
VPT3M16.1953004S
p1814
sa(dp1815
g47
I4096745987
sg48
(dp1816
g50
VALG RyaNoob
p1817
sg52
Nssg53
(lp1818
I2758383128
asg41
VWeaponPickup
p1819
sg44
VPT3M16.1953004S
p1820
sa(dp1821
g41
VPlayerSpawn
p1822
sg48
(dp1823
g50
VALG RyaNoob
p1824
sg52
Nssg44
VPT3M16.1953004S
p1825
sa(dp1826
g47
I4096745987
sg41
VWeaponDrop
p1827
sg189
I12
sg53
(lp1828
I2758383128
asg44
VPT3M18.7273614S
p1829
sg192
I6
sg193
VP0DT0H0M26.2333S
p1830
sg48
(dp1831
g50
VE6 bubu dubu
p1832
sg52
Nssa(dp1833
g47
I669296699
sg48
(dp1834
g50
VE6 bubu dubu
p1835
sg52
Nssg53
(lp1836
I2758383128
asg41
VWeaponPickupPad
p1837
sg44
VPT3M18.7273614S
p1838
sa(dp1839
g47
I669296699
sg48
(dp1840
g50
VE6 bubu dubu
p1841
sg52
Nssg53
(lp1842
I2758383128
asg41
VWeaponPickup
p1843
sg44
VPT3M18.7273614S
p1844
sa(dp1845
g47
I313138863
sg48
(dp1846
g50
VE6 Huke HCS
p1847
sg52
Nssg53
(lp1848
I1095363701
asg41
VWeaponPickup
p1849
sg44
VPT3M19.0123903S
p1850
sa(dp1851
g47
I4096745987
sg48
(dp1852
g50
VE6 Huke HCS
p1853
sg52
Nssg53
(lp1854
I2758383128
asg41
VWeaponPickup
p1855
sg44
VPT3M19.0123903S
p1856
sa(dp1857
g41
VPlayerSpawn
p1858
sg48
(dp1859
g50
VE6 Huke HCS
p1860
sg52
Nssg44
VPT3M19.0123903S
p1861
sa(dp1862
g242
I4096745987
sg243
I00
sg244
I00
sg245
(dp1863
g50
VALG RyaNoob
p1864
sg52
Nssg248
(lp1865
I2758383128
asg250
I00
sg251
I01
sg252
I1
sg253
I0
sg254
I1
sg255
(dp1866
Vy
F10.652067199999999
sVx
F-3.0350804299999998
sVz
F1.60634923
ssg257
(dp1867
Vy
F10.697979
sVx
F1.4334418799999999
sVz
F1.5927541300000001
ssg259
I00
sg260
(dp1868
g50
VE6 Shooter
p1869
sg52
Nssg264
(lp1870
sg266
(lp1871
(dp1872
g50
VALG Heinz HCS
p1873
sg52
Nsasg268
I01
sg44
VPT3M21.7784599S
p1874
sg41
VDeath
p1875
sg271
I1
sa(dp1876
g41
VMedal
p1877
sg48
(dp1878
g50
VALG RyaNoob
p1879
sg52
Nssg290
I3261908037
sg44
VPT3M21.7794823S
p1880
sa(dp1881
g47
I313138863
sg41
VWeaponDrop
p1882
sg189
I7
sg53
(lp1883
I1095363701
asg44
VPT3M21.7794823S
p1884
sg192
I6
sg193
VP0DT0H0M3.3333S
p1885
sg48
(dp1886
g50
VE6 Shooter
p1887
sg52
Nssa(dp1888
g47
I4096745987
sg41
VWeaponDrop
p1889
sg189
I0
sg53
(lp1890
I2758383128
asg44
VPT3M21.7794823S
p1891
sg192
I0
sg193
VP0DT0H0M10.3333S
p1892
sg48
(dp1893
g50
VE6 Shooter
p1894
sg52
Nssa(dp1895
g47
I313138863
sg48
(dp1896
g50
VALGPredevonator
p1897
sg52
Nssg53
(lp1898
I1095363701
asg41
VWeaponPickup
p1899
sg44
VPT3M23.428531S
p1900
sa(dp1901
g47
I4096745987
sg48
(dp1902
g50
VALGPredevonator
p1903
sg52
Nssg53
(lp1904
I2758383128
asg41
VWeaponPickup
p1905
sg44
VPT3M23.4295305S
p1906
sa(dp1907
g41
VPlayerSpawn
p1908
sg48
(dp1909
g50
VALGPredevonator
p1910
sg52
Nssg44
VPT3M23.4295305S
p1911
sa(dp1912
g242
I4106030681
sg243
I00
sg244
I00
sg245
(dp1913
g50
VE6 Huke HCS
p1914
sg52
Nssg248
(lp1915
sg250
I00
sg251
I01
sg252
I1
sg253
I0
sg254
I1
sg255
(dp1916
Vy
F-3.51813245
sVx
F3.2398626799999999
sVz
F4.5400679999999998
ssg257
(dp1917
Vy
F8.1352930000000008
sVx
F21.4229755
sVz
F-0.00312867761
ssg259
I00
sg260
(dp1918
g50
VALG ContrA HCS
p1919
sg52
Nssg264
(lp1920
sg266
(lp1921
sg268
I00
sg44
VPT3M27.060627S
p1922
sg41
VDeath
p1923
sg271
I1
sa(dp1924
g41
VMedal
p1925
sg48
(dp1926
g50
VE6 Cratos HCS
p1927
sg52
Nssg290
I824733727
sg44
VPT3M27.0616277S
p1928
sa(dp1929
g41
VMedal
p1930
sg48
(dp1931
g50
VE6 Huke HCS
p1932
sg52
Nssg290
I3491849182
sg44
VPT3M27.0626271S
p1933
sa(dp1934
g47
I313138863
sg41
VWeaponDrop
p1935
sg189
I0
sg53
(lp1936
I1095363701
asg44
VPT3M27.0626271S
p1937
sg192
I0
sg193
VP0DT0H0M2.4167S
p1938
sg48
(dp1939
g50
VALG ContrA HCS
p1940
sg52
Nssa(dp1941
g47
I4096745987
sg41
VWeaponDrop
p1942
sg189
I3
sg53
(lp1943
I2758383128
asg44
VPT3M27.0626271S
p1944
sg192
I2
sg193
VP0DT0H0M27.3667S
p1945
sg48
(dp1946
g50
VALG ContrA HCS
p1947
sg52
Nssa(dp1948
g242
I4096745987
sg243
I00
sg244
I00
sg245
(dp1949
g50
VALGPredevonator
p1950
sg52
Nssg248
(lp1951
I2758383128
asg250
I00
sg251
I01
sg252
I1
sg253
I0
sg254
I1
sg255
(dp1952
Vy
F10.7953815
sVx
F-8.1300570000000008
sVz
F1.59990466
ssg257
(dp1953
Vy
F4.51058
sVx
F-9.8721320000000006
sVz
F1.9287618399999999
ssg259
I00
sg260
(dp1954
g50
VE6 Cratos HCS
p1955
sg52
Nssg264
(lp1956
sg266
(lp1957
(dp1958
g50
VALG ContrA HCS
p1959
sg52
Nsa(dp1960
g50
VALG RyaNoob
p1961
sg52
Nsasg268
I01
sg44
VPT3M28.6276995S
p1962
sg41
VDeath
p1963
sg271
I1
sa(dp1964
g41
VMedal
p1965
sg48
(dp1966
g50
VALGPredevonator
p1967
sg52
Nssg290
I3261908037
sg44
VPT3M28.6296987S
p1968
sa(dp1969
g47
I313138863
sg41
VWeaponDrop
p1970
sg189
I0
sg53
(lp1971
I1095363701
asg44
VPT3M28.6307016S
p1972
sg192
I0
sg193
VP0DT0H0M0.8667S
p1973
sg48
(dp1974
g50
VE6 Cratos HCS
p1975
sg52
Nssa(dp1976
g47
I4096745987
sg41
VWeaponDrop
p1977
sg189
I13
sg53
(lp1978
I2758383128
asg44
VPT3M28.6307016S
p1979
sg192
I6
sg193
VP0DT0H0M47.4000S
p1980
sg48
(dp1981
g50
VE6 Cratos HCS
p1982
sg52
Nssa(dp1983
g47
I313138863
sg48
(dp1984
g50
VE6 Shooter
p1985
sg52
Nssg53
(lp1986
I1095363701
asg41
VWeaponPickup
p1987
sg44
VPT3M29.795742S
p1988
sa(dp1989
g47
I4096745987
sg48
(dp1990
g50
VE6 Shooter
p1991
sg52
Nssg53
(lp1992
I2758383128
asg41
VWeaponPickup
p1993
sg44
VPT3M29.795742S
p1994
sa(dp1995
g41
VPlayerSpawn
p1996
sg48
(dp1997
g50
VE6 Shooter
p1998
sg52
Nssg44
VPT3M29.795742S
p1999
sa(dp2000
g47
I4096745987
sg41
VWeaponDrop
p2001
sg189
I7
sg53
(lp2002
I2758383128
asg44
VPT3M30.6597676S
p2003
sg192
I5
sg193
VP0DT0H0M11.8333S
p2004
sg48
(dp2005
g50
VALG RyaNoob
p2006
sg52
Nssa(dp2007
g47
I2511447508
sg48
(dp2008
g50
VALG RyaNoob
p2009
sg52
Nssg53
(lp2010
I2758383128
asg41
VWeaponPickup
p2011
sg44
VPT3M30.6607441S
p2012
sa(dp2013
g242
I4096745987
sg243
I00
sg244
I00
sg245
(dp2014
g50
VE6 Huke HCS
p2015
sg52
Nssg248
(lp2016
I2758383128
asg250
I00
sg251
I01
sg252
I1
sg253
I0
sg254
I1
sg255
(dp2017
Vy
F-0.64426165800000001
sVx
F2.4809950000000001
sVz
F-0.021233350000000002
ssg257
(dp2018
Vy
F-1.01430452
sVx
F-4.463368
sVz
F0.86377990000000004
ssg259
I00
sg260
(dp2019
g50
VALG Heinz HCS
p2020
sg52
Nssg264
(lp2021
sg266
(lp2022
sg268
I01
sg44
VPT3M32.7448094S
p2023
sg41
VDeath
p2024
sg271
I1
sa(dp2025
g41
VImpulse
p2026
sg48
(dp2027
g50
VE6 Huke HCS
p2028
sg52
Nssg981
I3174430457
sg44
VPT3M32.746833S
p2029
sa(dp2030
g41
VMedal
p2031
sg48
(dp2032
g50
VE6 Huke HCS
p2033
sg52
Nssg290
I3653057799
sg44
VPT3M32.7478288S
p2034
sa(dp2035
g47
I723388907
sg41
VWeaponDrop
p2036
sg189
I28
sg53
(lp2037
I89283061
asg44
VPT3M32.7488344S
p2038
sg192
I10
sg193
VP0DT0H0M11.6833S
p2039
sg48
(dp2040
g50
VALG Heinz HCS
p2041
sg52
Nssa(dp2042
g47
I4096745987
sg41
VWeaponDrop
p2043
sg189
I6
sg53
(lp2044
I2758383128
asg44
VPT3M32.7488344S
p2045
sg192
I1
sg193
VP0DT0H0M23.7333S
p2046
sg48
(dp2047
g50
VALG Heinz HCS
p2048
sg52
Nssa(dp2049
g47
I313138863
sg48
(dp2050
g50
VALG ContrA HCS
p2051
sg52
Nssg53
(lp2052
I1095363701
asg41
VWeaponPickup
p2053
sg44
VPT3M35.0789092S
p2054
sa(dp2055
g47
I4096745987
sg48
(dp2056
g50
VALG ContrA HCS
p2057
sg52
Nssg53
(lp2058
I2758383128
asg41
VWeaponPickup
p2059
sg44
VPT3M35.0789092S
p2060
sa(dp2061
g41
VPlayerSpawn
p2062
sg48
(dp2063
g50
VALG ContrA HCS
p2064
sg52
Nssg44
VPT3M35.0789092S
p2065
sa(dp2066
g47
I313138863
sg48
(dp2067
g50
VE6 Cratos HCS
p2068
sg52
Nssg53
(lp2069
I1095363701
asg41
VWeaponPickup
p2070
sg44
VPT3M36.6449592S
p2071
sa(dp2072
g47
I4096745987
sg48
(dp2073
g50
VE6 Cratos HCS
p2074
sg52
Nssg53
(lp2075
I2758383128
asg41
VWeaponPickup
p2076
sg44
VPT3M36.6449592S
p2077
sa(dp2078
g41
VPlayerSpawn
p2079
sg48
(dp2080
g50
VE6 Cratos HCS
p2081
sg52
Nssg44
VPT3M36.6449592S
p2082
sa(dp2083
g242
I4106030681
sg243
I00
sg244
I00
sg245
(dp2084
g50
VE6 Shooter
p2085
sg52
Nssg248
(lp2086
sg250
I00
sg251
I00
sg252
I2
sg253
I0
sg254
I0
sg255
(dp2087
Vy
F-9.009442
sVx
F3.1542370000000002
sVz
F3.2006250000000001
ssg257
(dp2088
Vy
F3.6524097900000001
sVx
F-2.4599254099999999
sVz
F3.2003512399999998
ssg259
I00
sg260
(dp2089
g262
g263
ssg264
(lp2090
sg266
(lp2091
sg268
I00
sg44
VPT3M38.8280048S
p2092
sg41
VDeath
p2093
sg271
I1
sa(dp2094
g242
I4096745987
sg243
I00
sg244
I00
sg245
(dp2095
g50
VALG ContrA HCS
p2096
sg52
Nssg248
(lp2097
I2758383128
asg250
I00
sg251
I01
sg252
I1
sg253
I0
sg254
I1
sg255
(dp2098
Vy
F0.52577830000000003
sVx
F9.0620019999999997
sVz
F-0.05489877
ssg257
(dp2099
Vy
F-1.0694645599999999
sVx
F-8.1268189999999993
sVz
F1.6004375200000001
ssg259
I00
sg260
(dp2100
g50
VE6 Huke HCS
p2101
sg52
Nssg264
(lp2102
sg266
(lp2103
(dp2104
g50
VALGPredevonator
p2105
sg52
Nsasg268
I01
sg44
VPT3M39.5610503S
p2106
sg41
VDeath
p2107
sg271
I1
sa(dp2108
g41
VImpulse
p2109
sg48
(dp2110
g50
VALG ContrA HCS
p2111
sg52
Nssg981
I2556889090
sg44
VPT3M39.5620458S
p2112
sa(dp2113
g41
VMedal
p2114
sg48
(dp2115
g50
VALG ContrA HCS
p2116
sg52
Nssg290
I352859864
sg44
VPT3M39.5620458S
p2117
sa(dp2118
g41
VMedal
p2119
sg48
(dp2120
g50
VALG ContrA HCS
p2121
sg52
Nssg290
I3261908037
sg44
VPT3M39.5630549S
p2122
sa(dp2123
g47
I313138863
sg41
VWeaponDrop
p2124
sg189
I16
sg53
(lp2125
I1095363701
asg44
VPT3M39.5640511S
p2126
sg192
I1
sg193
VP0DT0H0M3.9333S
p2127
sg48
(dp2128
g50
VE6 Huke HCS
p2129
sg52
Nssa(dp2130
g47
I4096745987
sg41
VWeaponDrop
p2131
sg189
I21
sg53
(lp2132
I2758383128
asg44
VPT3M39.5640511S
p2133
sg192
I13
sg193
VP0DT0H0M16.6167S
p2134
sg48
(dp2135
g50
VE6 Huke HCS
p2136
sg52
Nssa(dp2137
g242
I669296699
sg243
I00
sg244
I00
sg245
(dp2138
g50
VE6 bubu dubu
p2139
sg52
Nssg248
(lp2140
I2758383128
asg250
I00
sg251
I01
sg252
I1
sg253
I0
sg254
I1
sg255
(dp2141
Vy
F-6.6744437200000002
sVx
F7.4116644899999997
sVz
F3.2373044499999999
ssg257
(dp2142
Vy
F8.1054960000000005
sVx
F-4.6128516199999998
sVz
F4.0177917499999998
ssg259
I00
sg260
(dp2143
g50
VALG RyaNoob
p2144
sg52
Nssg264
(lp2145
sg266
(lp2146
(dp2147
g50
VE6 Shooter
p2148
sg52
Nsasg268
I00
sg44
VPT3M39.7780344S
p2149
sg41
VDeath
p2150
sg271
I1
sa(dp2151
g41
VImpulse
p2152
sg48
(dp2153
g50
VE6 bubu dubu
p2154
sg52
Nssg981
I2556889090
sg44
VPT3M39.7780344S
p2155
sa(dp2156
g41
VMedal
p2157
sg48
(dp2158
g50
VE6 bubu dubu
p2159
sg52
Nssg290
I352859864
sg44
VPT3M39.7780344S
p2160
sa(dp2161
g47
I313138863
sg41
VWeaponDrop
p2162
sg189
I0
sg53
(lp2163
I1095363701
asg44
VPT3M39.7790541S
p2164
sg192
I0
sg193
VP0DT0H0M2.6333S
p2165
sg48
(dp2166
g50
VALG RyaNoob
p2167
sg52
Nssa(dp2168
g47
I2511447508
sg41
VWeaponDrop
p2169
sg189
I5
sg53
(lp2170
I2758383128
asg44
VPT3M39.7790541S
p2171
sg192
I4
sg193
VP0DT0H0M9.1167S
p2172
sg48
(dp2173
g50
VALG RyaNoob
p2174
sg52
Nssa(dp2175
g47
I313138863
sg48
(dp2176
g50
VALG Heinz HCS
p2177
sg52
Nssg53
(lp2178
I1095363701
asg41
VWeaponPickup
p2179
sg44
VPT3M40.7620906S
p2180
sa(dp2181
g47
I4096745987
sg48
(dp2182
g50
VALG Heinz HCS
p2183
sg52
Nssg53
(lp2184
I2758383128
asg41
VWeaponPickup
p2185
sg44
VPT3M40.7620906S
p2186
sa(dp2187
g41
VPlayerSpawn
p2188
sg48
(dp2189
g50
VALG Heinz HCS
p2190
sg52
Nssg44
VPT3M40.7620906S
p2191
sa(dp2192
g47
I313138863
sg41
VWeaponDrop
p2193
sg189
I0
sg53
(lp2194
I1095363701
asg44
VPT3M42.410142S
p2195
sg192
I0
sg193
VP0DT0H0M1.5667S
p2196
sg48
(dp2197
g50
VE6 Shooter
p2198
sg52
Nssa(dp2199
g47
I524558978
sg48
(dp2200
g50
VE6 Shooter
p2201
sg52
Nssg53
(lp2202
I2758383128
asg41
VWeaponPickup
p2203
sg44
VPT3M42.410142S
p2204
sa(dp2205
g47
I313138863
sg41
VWeaponDrop
p2206
sg189
I0
sg53
(lp2207
I1095363701
asg44
VPT3M43.9101917S
p2208
sg192
I0
sg193
VP0DT0H0M1.1500S
p2209
sg48
(dp2210
g50
VALG Heinz HCS
p2211
sg52
Nssa(dp2212
g47
I723388907
sg48
(dp2213
g50
VALG Heinz HCS
p2214
sg52
Nssg53
(lp2215
I89283061
asg41
VWeaponPickup
p2216
sg44
VPT3M43.9101917S
p2217
sa(dp2218
g47
I313138863
sg48
(dp2219
g50
VE6 Huke HCS
p2220
sg52
Nssg53
(lp2221
I1095363701
asg41
VWeaponPickup
p2222
sg44
VPT3M47.5783036S
p2223
sa(dp2224
g47
I4096745987
sg48
(dp2225
g50
VE6 Huke HCS
p2226
sg52
Nssg53
(lp2227
I2758383128
asg41
VWeaponPickup
p2228
sg44
VPT3M47.5783036S
p2229
sa(dp2230
g41
VPlayerSpawn
p2231
sg48
(dp2232
g50
VE6 Huke HCS
p2233
sg52
Nssg44
VPT3M47.5793051S
p2234
sa(dp2235
g47
I313138863
sg48
(dp2236
g50
VALG RyaNoob
p2237
sg52
Nssg53
(lp2238
I1095363701
asg41
VWeaponPickup
p2239
sg44
VPT3M47.7952933S
p2240
sa(dp2241
g47
I4096745987
sg48
(dp2242
g50
VALG RyaNoob
p2243
sg52
Nssg53
(lp2244
I2758383128
asg41
VWeaponPickup
p2245
sg44
VPT3M47.7952933S
p2246
sa(dp2247
g41
VPlayerSpawn
p2248
sg48
(dp2249
g50
VALG RyaNoob
p2250
sg52
Nssg44
VPT3M47.7952933S
p2251
sa(dp2252
g47
I4096745987
sg41
VWeaponDrop
p2253
sg189
I19
sg53
(lp2254
I2758383128
asg44
VPT3M48.5103177S
p2255
sg192
I6
sg193
VP0DT0H0M24.6000S
p2256
sg48
(dp2257
g50
VALGPredevonator
p2258
sg52
Nssa(dp2259
g47
I424645655
sg48
(dp2260
g50
VALGPredevonator
p2261
sg52
Nssg53
(lp2262
I1327094800
asg41
VWeaponPickup
p2263
sg44
VPT3M48.5103177S
p2264
sa(dp2265
g242
I4096745987
sg243
I00
sg244
I00
sg245
(dp2266
g50
VE6 Cratos HCS
p2267
sg52
Nssg248
(lp2268
I2758383128
asg250
I00
sg251
I01
sg252
I1
sg253
I0
sg254
I1
sg255
(dp2269
Vy
F-2.42747
sVx
F-8.2793310000000009
sVz
F3.6040604100000002
ssg257
(dp2270
Vy
F5.4384655999999998
sVx
F-11.325442300000001
sVz
F2.630849
ssg259
I00
sg260
(dp2271
g50
VALG Heinz HCS
p2272
sg52
Nssg264
(lp2273
sg266
(lp2274
(dp2275
g50
VE6 Shooter
p2276
sg52
Nsasg268
I01
sg44
VPT3M49.7613539S
p2277
sg41
VDeath
p2278
sg271
I1
sa(dp2279
g41
VImpulse
p2280
sg48
(dp2281
g50
VE6 Cratos HCS
p2282
sg52
Nssg981
I2556889090
sg44
VPT3M49.7613539S
p2283
sa(dp2284
g41
VMedal
p2285
sg48
(dp2286
g50
VE6 Cratos HCS
p2287
sg52
Nssg290
I2838259753
sg44
VPT3M49.7613539S
p2288
sa(dp2289
g41
VMedal
p2290
sg48
(dp2291
g50
VE6 Cratos HCS
p2292
sg52
Nssg290
I3261908037
sg44
VPT3M49.7633779S
p2293
sa(dp2294
g47
I723388907
sg41
VWeaponDrop
p2295
sg189
I0
sg53
(lp2296
I89283061
asg44
VPT3M49.7633779S
p2297
sg192
I0
sg193
VP0DT0H0M0.3833S
p2298
sg48
(dp2299
g50
VALG Heinz HCS
p2300
sg52
Nssa(dp2301
g47
I4096745987
sg41
VWeaponDrop
p2302
sg189
I8
sg53
(lp2303
I2758383128
asg44
VPT3M49.7633779S
p2304
sg192
I7
sg193
VP0DT0H0M7.4667S
p2305
sg48
(dp2306
g50
VALG Heinz HCS
p2307
sg52
Nssa(dp2308
g242
I424645655
sg243
I00
sg244
I00
sg245
(dp2309
g50
VALGPredevonator
p2310
sg52
Nssg248
(lp2311
I1327094800
asg250
I00
sg251
I01
sg252
I1
sg253
I0
sg254
I1
sg255
(dp2312
Vy
F0.90896969999999999
sVx
F-8.9832029999999996
sVz
F1.5449339200000001
ssg257
(dp2313
Vy
F0.84932050000000003
sVx
F-5.7543980000000001
sVz
F1.3207438
ssg259
I00
sg260
(dp2314
g50
VE6 Shooter
p2315
sg52
Nssg264
(lp2316
sg266
(lp2317
(dp2318
g50
VALG Heinz HCS
p2319
sg52
Nsasg268
I01
sg44
VPT3M50.7443857S
p2320
sg41
VDeath
p2321
sg271
I1
sa(dp2322
g41
VMedal
p2323
sg48
(dp2324
g50
VALGPredevonator
p2325
sg52
Nssg290
I3261908037
sg44
VPT3M50.7453971S
p2326
sa(dp2327
g47
I524558978
sg41
VWeaponDrop
p2328
sg189
I3
sg53
(lp2329
I2758383128
asg44
VPT3M50.7464054S
p2330
sg192
I1
sg193
VP0DT0H0M5.3000S
p2331
sg48
(dp2332
g50
VE6 Shooter
p2333
sg52
Nssa(dp2334
g47
I4096745987
sg41
VWeaponDrop
p2335
sg189
I11
sg53
(lp2336
I2758383128
asg44
VPT3M50.7464054S
p2337
sg192
I6
sg193
VP0DT0H0M14.0833S
p2338
sg48
(dp2339
g50
VE6 Shooter
p2340
sg52
Nssa(dp2341
g47
I4096745987
sg41
VWeaponDrop
p2342
sg189
I0
sg53
(lp2343
I2758383128
asg44
VPT3M50.9264154S
p2344
sg192
I0
sg193
VP0DT0H0M2.4667S
p2345
sg48
(dp2346
g50
VALG RyaNoob
p2347
sg52
Nssa(dp2348
g47
I424645655
sg48
(dp2349
g50
VALG RyaNoob
p2350
sg52
Nssg53
(lp2351
I1327094800
asg41
VWeaponPickup
p2352
sg44
VPT3M50.9274118S
p2353
sa(dp2354
g242
I4096745987
sg243
I00
sg244
I01
sg245
(dp2355
g50
VE6 Cratos HCS
p2356
sg52
Nssg248
(lp2357
I2758383128
asg250
I00
sg251
I00
sg252
I1
sg253
I0
sg254
I1
sg255
(dp2358
Vy
F0.77207239999999999
sVx
F-9.1396750000000004
sVz
F1.9892019000000001
ssg257
(dp2359
Vy
F0.91359679999999999
sVx
F-9.2762539999999998
sVz
F1.5449339200000001
ssg259
I00
sg260
(dp2360
g50
VALGPredevonator
p2361
sg52
Nssg264
(lp2362
sg266
(lp2363
(dp2364
g50
VE6 Shooter
p2365
sg52
Nsasg268
I00
sg44
VPT3M51.1113975S
p2366
sg41
VDeath
p2367
sg271
I1
sa(dp2368
g41
VMedal
p2369
sg48
(dp2370
g50
VE6 Cratos HCS
p2371
sg52
Nssg290
I2287626681
sg44
VPT3M51.1124211S
p2372
sa(dp2373
g41
VMedal
p2374
sg48
(dp2375
g50
VE6 Cratos HCS
p2376
sg52
Nssg290
I2078758684
sg44
VPT3M51.1124211S
p2377
sa(dp2378
g47
I424645655
sg41
VWeaponDrop
p2379
sg189
I8
sg53
(lp2380
I1327094800
asg44
VPT3M51.113422S
p2381
sg192
I1
sg193
VP0DT0H0M2.6000S
p2382
sg48
(dp2383
g50
VALGPredevonator
p2384
sg52
Nssa(dp2385
g47
I313138863
sg41
VWeaponDrop
p2386
sg189
I0
sg53
(lp2387
I1095363701
asg44
VPT3M51.1144227S
p2388
sg192
I0
sg193
VP0DT0H0M0.4833S
p2389
sg48
(dp2390
g50
VALGPredevonator
p2391
sg52
Nssa(dp2392
g47
I313138863
sg48
(dp2393
g50
VALG Heinz HCS
p2394
sg52
Nssg53
(lp2395
I1095363701
asg41
VWeaponPickup
p2396
sg44
VPT3M57.7796097S
p2397
sa(dp2398
g47
I4096745987
sg48
(dp2399
g50
VALG Heinz HCS
p2400
sg52
Nssg53
(lp2401
I2758383128
asg41
VWeaponPickup
p2402
sg44
VPT3M57.7806314S
p2403
sa(dp2404
g41
VPlayerSpawn
p2405
sg48
(dp2406
g50
VALG Heinz HCS
p2407
sg52
Nssg44
VPT3M57.7806314S
p2408
sa(dp2409
g242
I4106030681
sg243
I00
sg244
I00
sg245
(dp2410
g50
VE6 Huke HCS
p2411
sg52
Nssg248
(lp2412
sg250
I00
sg251
I01
sg252
I1
sg253
I0
sg254
I1
sg255
(dp2413
Vy
F9.7984310000000008
sVx
F12.6120892
sVz
F3.1995623100000001
ssg257
(dp2414
Vy
F-2.8544939999999999
sVx
F22.915983199999999
sVz
F0.84090960000000003
ssg259
I00
sg260
(dp2415
g50
VALG RyaNoob
p2416
sg52
Nssg264
(lp2417
sg266
(lp2418
sg268
I00
sg44
VPT3M57.9606168S
p2419
sg41
VDeath
p2420
sg271
I1
sa(dp2421
g41
VMedal
p2422
sg48
(dp2423
g50
VE6 Huke HCS
p2424
sg52
Nssg290
I3491849182
sg44
VPT3M57.9626188S
p2425
sa(dp2426
g47
I313138863
sg41
VWeaponDrop
p2427
sg189
I0
sg53
(lp2428
I1095363701
asg44
VPT3M57.9626188S
p2429
sg192
I0
sg193
VP0DT0H0M0.6667S
p2430
sg48
(dp2431
g50
VALG RyaNoob
p2432
sg52
Nssa(dp2433
g47
I424645655
sg41
VWeaponDrop
p2434
sg189
I12
sg53
(lp2435
I1327094800
asg44
VPT3M57.9626188S
p2436
sg192
I9
sg193
VP0DT0H0M7.0333S
p2437
sg48
(dp2438
g50
VALG RyaNoob
p2439
sg52
Nssa(dp2440
g242
I4106030681
sg243
I00
sg244
I00
sg245
(dp2441
g50
VE6 Huke HCS
p2442
sg52
Nssg248
(lp2443
sg250
I00
sg251
I00
sg252
I2
sg253
I0
sg254
I0
sg255
(dp2444
Vy
F9.7984310000000008
sVx
F12.6120892
sVz
F3.1995623100000001
ssg257
(dp2445
Vy
F-4.2828470000000003
sVx
F21.1420174
sVz
F1.20812583
ssg259
I00
sg260
(dp2446
g262
g263
ssg264
(lp2447
sg266
(lp2448
sg268
I00
sg44
VPT3M57.9636383S
p2449
sg41
VDeath
p2450
sg271
I1
sa(dp2451
g47
I313138863
sg48
(dp2452
g50
VE6 Shooter
p2453
sg52
Nssg53
(lp2454
I1095363701
asg41
VWeaponPickup
p2455
sg44
VPT3M58.7616768S
p2456
sa(dp2457
g47
I4096745987
sg48
(dp2458
g50
VE6 Shooter
p2459
sg52
Nssg53
(lp2460
I2758383128
asg41
VWeaponPickup
p2461
sg44
VPT3M58.7616768S
p2462
sa(dp2463
g41
VPlayerSpawn
p2464
sg48
(dp2465
g50
VE6 Shooter
p2466
sg52
Nssg44
VPT3M58.7616768S
p2467
sa(dp2468
g47
I313138863
sg48
(dp2469
g50
VALGPredevonator
p2470
sg52
Nssg53
(lp2471
I1095363701
asg41
VWeaponPickup
p2472
sg44
VPT3M59.1286729S
p2473
sa(dp2474
g47
I4096745987
sg48
(dp2475
g50
VALGPredevonator
p2476
sg52
Nssg53
(lp2477
I2758383128
asg41
VWeaponPickup
p2478
sg44
VPT3M59.1286729S
p2479
sa(dp2480
g41
VPlayerSpawn
p2481
sg48
(dp2482
g50
VALGPredevonator
p2483
sg52
Nssg44
VPT3M59.1286729S
p2484
sa(dp2485
g242
I4096745987
sg243
I00
sg244
I00
sg245
(dp2486
g50
VE6 Shooter
p2487
sg52
Nssg248
(lp2488
I2758383128
asg250
I00
sg251
I01
sg252
I1
sg253
I0
sg254
I1
sg255
(dp2489
Vy
F-2.3066625599999999
sVx
F-9.6036719999999995
sVz
F4.290273
ssg257
(dp2490
Vy
F-5.2086670000000002
sVx
F-3.9753592000000002
sVz
F3.20260978
ssg259
I00
sg260
(dp2491
g50
VALGPredevonator
p2492
sg52
Nssg264
(lp2493
sg266
(lp2494
sg268
I01
sg44
VPT4M5.4278932S
p2495
sg41
VDeath
p2496
sg271
I1
sa(dp2497
g41
VMedal
p2498
sg48
(dp2499
g50
VE6 Shooter
p2500
sg52
Nssg290
I3261908037
sg44
VPT4M5.4298574S
p2501
sa(dp2502
g47
I313138863
sg41
VWeaponDrop
p2503
sg189
I0
sg53
(lp2504
I1095363701
asg44
VPT4M5.4308775S
p2505
sg192
I0
sg193
VP0DT0H0M0.4667S
p2506
sg48
(dp2507
g50
VALGPredevonator
p2508
sg52
Nssa(dp2509
g47
I4096745987
sg41
VWeaponDrop
p2510
sg189
I3
sg53
(lp2511
I2758383128
asg44
VPT4M5.4308775S
p2512
sg192
I3
sg193
VP0DT0H0M5.8333S
p2513
sg48
(dp2514
g50
VALGPredevonator
p2515
sg52
Nssa(dp2516
g47
I313138863
sg48
(dp2517
g50
VALG RyaNoob
p2518
sg52
Nssg53
(lp2519
I1095363701
asg41
VWeaponPickup
p2520
sg44
VPT4M5.9778738S
p2521
sa(dp2522
g47
I4096745987
sg48
(dp2523
g50
VALG RyaNoob
p2524
sg52
Nssg53
(lp2525
I2758383128
asg41
VWeaponPickup
p2526
sg44
VPT4M5.978896S
p2527
sa(dp2528
g41
VPlayerSpawn
p2529
sg48
(dp2530
g50
VALG RyaNoob
p2531
sg52
Nssg44
VPT4M5.978896S
p2532
sa(dp2533
g47
I313138863
sg41
VWeaponDrop
p2534
sg189
I0
sg53
(lp2535
I1095363701
asg44
VPT4M9.1269742S
p2536
sg192
I0
sg193
VP0DT0H0M1.5833S
p2537
sg48
(dp2538
g50
VALG Heinz HCS
p2539
sg52
Nssa(dp2540
g47
I723388907
sg48
(dp2541
g50
VALG Heinz HCS
p2542
sg52
Nssg53
(lp2543
I89283061
asg41
VWeaponPickup
p2544
sg44
VPT4M9.1269742S
p2545
sa(dp2546
g242
I4096745987
sg243
I00
sg244
I00
sg245
(dp2547
g50
VALG ContrA HCS
p2548
sg52
Nssg248
(lp2549
I2758383128
asg250
I00
sg251
I01
sg252
I1
sg253
I0
sg254
I1
sg255
(dp2550
Vy
F-9.6678390000000007
sVx
F-3.4508712300000002
sVz
F3.2022390000000001
ssg257
(dp2551
Vy
F-0.24620102299999999
sVx
F-3.521042
sVz
F3.6189680000000002
ssg259
I00
sg260
(dp2552
g50
VE6 Cratos HCS
p2553
sg52
Nssg264
(lp2554
sg266
(lp2555
(dp2556
g50
VALG Heinz HCS
p2557
sg52
Nsasg268
I01
sg44
VPT4M12.2280742S
p2558
sg41
VDeath
p2559
sg271
I1
sa(dp2560
g41
VMedal
p2561
sg48
(dp2562
g50
VALG ContrA HCS
p2563
sg52
Nssg290
I3261908037
sg44
VPT4M12.2290928S
p2564
sa(dp2565
g47
I313138863
sg41
VWeaponDrop
p2566
sg189
I3
sg53
(lp2567
I1095363701
asg44
VPT4M12.2290928S
p2568
sg192
I0
sg193
VP0DT0H0M5.2000S
p2569
sg48
(dp2570
g50
VE6 Cratos HCS
p2571
sg52
Nssa(dp2572
g47
I4096745987
sg41
VWeaponDrop
p2573
sg189
I9
sg53
(lp2574
I2758383128
asg44
VPT4M12.2290928S
p2575
sg192
I4
sg193
VP0DT0H0M30.3833S
p2576
sg48
(dp2577
g50
VE6 Cratos HCS
p2578
sg52
Nssa(dp2579
g47
I4096745987
sg41
VWeaponDrop
p2580
sg189
I0
sg53
(lp2581
I2758383128
asg44
VPT4M12.2290928S
p2582
sg192
I0
sg193
VP0DT0S
p2583
sg48
(dp2584
g50
VE6 Cratos HCS
p2585
sg52
Nssa(dp2586
g47
I4096745987
sg41
VWeaponDrop
p2587
sg189
I6
sg53
(lp2588
I2758383128
asg44
VPT4M12.4261013S
p2589
sg192
I6
sg193
VP0DT0H0M12.5333S
p2590
sg48
(dp2591
g50
VE6 Shooter
p2592
sg52
Nssa(dp2593
g47
I424645655
sg48
(dp2594
g50
VE6 Shooter
p2595
sg52
Nssg53
(lp2596
I1327094800
asg41
VWeaponPickup
p2597
sg44
VPT4M12.4270797S
p2598
sa(dp2599
g47
I313138863
sg48
(dp2600
g50
VALGPredevonator
p2601
sg52
Nssg53
(lp2602
I1095363701
asg41
VWeaponPickup
p2603
sg44
VPT4M13.4451312S
p2604
sa(dp2605
g47
I4096745987
sg48
(dp2606
g50
VALGPredevonator
p2607
sg52
Nssg53
(lp2608
I2758383128
asg41
VWeaponPickup
p2609
sg44
VPT4M13.4451312S
p2610
sa(dp2611
g41
VPlayerSpawn
p2612
sg48
(dp2613
g50
VALGPredevonator
p2614
sg52
Nssg44
VPT4M13.4451312S
p2615
sa(dp2616
g242
I4096745987
sg243
I00
sg244
I00
sg245
(dp2617
g50
VALG Heinz HCS
p2618
sg52
Nssg248
(lp2619
I2758383128
asg250
I00
sg251
I01
sg252
I1
sg253
I0
sg254
I1
sg255
(dp2620
Vy
F-0.75892709999999997
sVx
F-6.7524595300000003
sVz
F4.0305150000000003
ssg257
(dp2621
Vy
F3.7986206999999999
sVx
F-10.6516056
sVz
F2.1597490000000001
ssg259
I00
sg260
(dp2622
g50
VE6 Shooter
p2623
sg52
Nssg264
(lp2624
sg266
(lp2625
(dp2626
g50
VALG ContrA HCS
p2627
sg52
Nsasg268
I01
sg44
VPT4M18.4442713S
p2628
sg41
VDeath
p2629
sg271
I1
sa(dp2630
g41
VMedal
p2631
sg48
(dp2632
g50
VALG Heinz HCS
p2633
sg52
Nssg290
I3261908037
sg44
VPT4M18.4452909S
p2634
sa(dp2635
g47
I424645655
sg41
VWeaponDrop
p2636
sg189
I16
sg53
(lp2637
I1327094800
asg44
VPT4M18.4462914S
p2638
sg192
I10
sg193
VP0DT0H0M6.0167S
p2639
sg48
(dp2640
g50
VE6 Shooter
p2641
sg52
Nssa(dp2642
g47
I313138863
sg41
VWeaponDrop
p2643
sg189
I0
sg53
(lp2644
I1095363701
asg44
VPT4M18.4462914S
p2645
sg192
I0
sg193
VP0DT0H0M1.1333S
p2646
sg48
(dp2647
g50
VE6 Shooter
p2648
sg52
Nssa(dp2649
g47
I313138863
sg48
(dp2650
g50
VE6 Cratos HCS
p2651
sg52
Nssg53
(lp2652
I1095363701
asg41
VWeaponPickup
p2653
sg44
VPT4M20.2453492S
p2654
sa(dp2655
g47
I4096745987
sg48
(dp2656
g50
VE6 Cratos HCS
p2657
sg52
Nssg53
(lp2658
I2758383128
asg41
VWeaponPickup
p2659
sg44
VPT4M20.2453492S
p2660
sa(dp2661
g41
VPlayerSpawn
p2662
sg48
(dp2663
g50
VE6 Cratos HCS
p2664
sg52
Nssg44
VPT4M20.2453492S
p2665
sa(dp2666
g47
I4096745987
sg41
VWeaponDrop
p2667
sg189
I10
sg53
(lp2668
I2758383128
asg44
VPT4M26.0765505S
p2669
sg192
I5
sg193
VP0DT0H0M19.4000S
p2670
sg48
(dp2671
g50
VALG RyaNoob
p2672
sg52
Nssa(dp2673
g47
I424645655
sg48
(dp2674
g50
VALG RyaNoob
p2675
sg52
Nssg53
(lp2676
I1327094800
asg41
VWeaponPickup
p2677
sg44
VPT4M26.0765505S
p2678
sa(dp2679
g47
I313138863
sg48
(dp2680
g50
VE6 Shooter
p2681
sg52
Nssg53
(lp2682
I1095363701
asg41
VWeaponPickup
p2683
sg44
VPT4M26.4615305S
p2684
sa(dp2685
g47
I4096745987
sg48
(dp2686
g50
VE6 Shooter
p2687
sg52
Nssg53
(lp2688
I2758383128
asg41
VWeaponPickup
p2689
sg44
VPT4M26.4615305S
p2690
sa(dp2691
g41
VPlayerSpawn
p2692
sg48
(dp2693
g50
VE6 Shooter
p2694
sg52
Nssg44
VPT4M26.4615305S
p2695
sa(dp2696
g242
I4096745987
sg243
I00
sg244
I00
sg245
(dp2697
g50
VALGPredevonator
p2698
sg52
Nssg248
(lp2699
I2758383128
asg250
I00
sg251
I01
sg252
I1
sg253
I0
sg254
I1
sg255
(dp2700
Vy
F0.21800361600000001
sVx
F10.1065931
sVz
F-0.054919660000000002
ssg257
(dp2701
Vy
F-2.747614
sVx
F16.84854
sVz
F1.4973362699999999
ssg259
I00
sg260
(dp2702
g50
VE6 Cratos HCS
p2703
sg52
Nssg264
(lp2704
sg266
(lp2705
(dp2706
g50
VALG RyaNoob
p2707
sg52
Nsasg268
I01
sg44
VPT4M31.1446783S
p2708
sg41
VDeath
p2709
sg271
I1
sa(dp2710
g41
VImpulse
p2711
sg48
(dp2712
g50
VALGPredevonator
p2713
sg52
Nssg981
I2556889090
sg44
VPT4M31.1446783S
p2714
sa(dp2715
g41
VMedal
p2716
sg48
(dp2717
g50
VALGPredevonator
p2718
sg52
Nssg290
I2838259753
sg44
VPT4M31.1446783S
p2719
sa(dp2720
g41
VMedal
p2721
sg48
(dp2722
g50
VALGPredevonator
p2723
sg52
Nssg290
I3698887726
sg44
VPT4M31.1457142S
p2724
sa(dp2725
g41
VMedal
p2726
sg48
(dp2727
g50
VALGPredevonator
p2728
sg52
Nssg290
I3261908037
sg44
VPT4M31.1466803S
p2729
sa(dp2730
g47
I313138863
sg41
VWeaponDrop
p2731
sg189
I0
sg53
(lp2732
I1095363701
asg44
VPT4M31.1466803S
p2733
sg192
I0
sg193
VP0DT0H0M2.9833S
p2734
sg48
(dp2735
g50
VE6 Cratos HCS
p2736
sg52
Nssa(dp2737
g47
I4096745987
sg41
VWeaponDrop
p2738
sg189
I2
sg53
(lp2739
I2758383128
asg44
VPT4M31.1477039S
p2740
sg192
I0
sg193
VP0DT0H0M7.9167S
p2741
sg48
(dp2742
g50
VE6 Cratos HCS
p2743
sg52
Nssa(dp2744
g242
I669296699
sg243
I00
sg244
I00
sg245
(dp2745
g50
VE6 bubu dubu
p2746
sg52
Nssg248
(lp2747
I2758383128
asg250
I00
sg251
I01
sg252
I1
sg253
I0
sg254
I1
sg255
(dp2748
Vy
F11.1051044
sVx
F14.5482826
sVz
F3.2517385499999998
ssg257
(dp2749
Vy
F7.4749145500000003
sVx
F-4.4533405300000002
sVz
F3.5939784000000001
ssg259
I00
sg260
(dp2750
g50
VALG ContrA HCS
p2751
sg52
Nssg264
(lp2752
sg266
(lp2753
sg268
I00
sg44
VPT4M35.6268219S
p2754
sg41
VDeath
p2755
sg271
I1
sa(dp2756
g47
I313138863
sg41
VWeaponDrop
p2757
sg189
I0
sg53
(lp2758
I1095363701
asg44
VPT4M35.6288495S
p2759
sg192
I0
sg193
VP0DT0H0M0.3167S
p2760
sg48
(dp2761
g50
VALG ContrA HCS
p2762
sg52
Nssa(dp2763
g47
I4096745987
sg41
VWeaponDrop
p2764
sg189
I22
sg53
(lp2765
I2758383128
asg44
VPT4M35.6288495S
p2766
sg192
I11
sg193
VP0DT0H1M0.2333S
p2767
sg48
(dp2768
g50
VALG ContrA HCS
p2769
sg52
Nssa(dp2770
g242
I4096745987
sg243
I00
sg244
I00
sg245
(dp2771
g50
VE6 Huke HCS
p2772
sg52
Nssg248
(lp2773
I2758383128
asg250
I00
sg251
I01
sg252
I1
sg253
I0
sg254
I1
sg255
(dp2774
Vy
F5.4105860000000003
sVx
F15.915835400000001
sVz
F2.8876173500000002
ssg257
(dp2775
Vy
F3.5063390000000001
sVx
F13.479506499999999
sVz
F-0.0059000550000000004
ssg259
I00
sg260
(dp2776
g50
VALGPredevonator
p2777
sg52
Nssg264
(lp2778
sg266
(lp2779
sg268
I00
sg44
VPT4M35.8268283S
p2780
sg41
VDeath
p2781
sg271
I1
sa(dp2782
g47
I313138863
sg41
VWeaponDrop
p2783
sg189
I0
sg53
(lp2784
I1095363701
asg44
VPT4M35.8288644S
p2785
sg192
I0
sg193
VP0DT0H0M0.2667S
p2786
sg48
(dp2787
g50
VALGPredevonator
p2788
sg52
Nssa(dp2789
g47
I4096745987
sg41
VWeaponDrop
p2790
sg189
I7
sg53
(lp2791
I2758383128
asg44
VPT4M35.8288644S
p2792
sg192
I3
sg193
VP0DT0H0M22.1167S
p2793
sg48
(dp2794
g50
VALGPredevonator
p2795
sg52
Nssa(dp2796
g242
I4096745987
sg243
I00
sg244
I00
sg245
(dp2797
g50
VALG Heinz HCS
p2798
sg52
Nssg248
(lp2799
I2758383128
asg250
I00
sg251
I01
sg252
I1
sg253
I0
sg254
I1
sg255
(dp2800
Vy
F13.1470547
sVx
F5.6744870000000001
sVz
F3.9670040000000002
ssg257
(dp2801
Vy
F9.649089
sVx
F13.1716175
sVz
F3.1995619999999998
ssg259
I00
sg260
(dp2802
g50
VE6 bubu dubu
p2803
sg52
Nssg264
(lp2804
sg266
(lp2805
(dp2806
g50
VALG ContrA HCS
p2807
sg52
Nsasg268
I01
sg44
VPT4M37.3608771S
p2808
sg41
VDeath
p2809
sg271
I1
sa(dp2810
g41
VMedal
p2811
sg48
(dp2812
g50
VALG Heinz HCS
p2813
sg52
Nssg290
I3261908037
sg44
VPT4M37.3618968S
p2814
sa(dp2815
g47
I2133511419
sg41
VWeaponDrop
p2816
sg189
I9
sg53
(lp2817
I2758383128
asg44
VPT4M37.3629037S
p2818
sg192
I4
sg193
VP0DT0H0M25.0167S
p2819
sg48
(dp2820
g50
VE6 bubu dubu
p2821
sg52
Nssa(dp2822
g47
I669296699
sg41
VWeaponDrop
p2823
sg189
I7
sg53
(lp2824
I2758383128
asg44
VPT4M37.3629037S
p2825
sg192
I5
sg193
VP0DT0H0M58.1000S
p2826
sg48
(dp2827
g50
VE6 bubu dubu
p2828
sg52
Nssa(dp2829
g47
I313138863
sg48
(dp2830
g50
VE6 Cratos HCS
p2831
sg52
Nssg53
(lp2832
I1095363701
asg41
VWeaponPickup
p2833
sg44
VPT4M39.1609354S
p2834
sa(dp2835
g47
I4096745987
sg48
(dp2836
g50
VE6 Cratos HCS
p2837
sg52
Nssg53
(lp2838
I2758383128
asg41
VWeaponPickup
p2839
sg44
VPT4M39.1619374S
p2840
sa(dp2841
g41
VPlayerSpawn
p2842
sg48
(dp2843
g50
VE6 Cratos HCS
p2844
sg52
Nssg44
VPT4M39.1619374S
p2845
sa(dp2846
g242
I4106030681
sg243
I00
sg244
I00
sg245
(dp2847
g50
VALG Heinz HCS
p2848
sg52
Nssg248
(lp2849
sg250
I00
sg251
I01
sg252
I1
sg253
I0
sg254
I1
sg255
(dp2850
Vy
F8.9970909999999993
sVx
F7.6819186200000003
sVz
F3.2008214000000001
ssg257
(dp2851
Vy
F7.6513342900000003
sVx
F14.4278011
sVz
F3.1997070000000001
ssg259
I00
sg260
(dp2852
g50
VE6 Huke HCS
p2853
sg52
Nssg264
(lp2854
sg266
(lp2855
(dp2856
g50
VALGPredevonator
p2857
sg52
Nsa(dp2858
g50
VALG RyaNoob
p2859
sg52
Nsasg268
I00
sg44
VPT4M41.3270034S
p2860
sg41
VDeath
p2861
sg271
I1
sa(dp2862
g41
VMedal
p2863
sg48
(dp2864
g50
VALG Heinz HCS
p2865
sg52
Nssg290
I2078758684
sg44
VPT4M41.3290296S
p2866
sa(dp2867
g47
I4096745987
sg41
VWeaponDrop
p2868
sg189
I20
sg53
(lp2869
I2758383128
asg44
VPT4M41.3300287S
p2870
sg192
I9
sg193
VP0DT0H0M52.6833S
p2871
sg48
(dp2872
g50
VE6 Huke HCS
p2873
sg52
Nssa(dp2874
g47
I4096745987
sg41
VWeaponDrop
p2875
sg189
I0
sg53
(lp2876
I2758383128
asg44
VPT4M41.3300287S
p2877
sg192
I0
sg193
VP0DT0S
p2878
sg48
(dp2879
g50
VE6 Huke HCS
p2880
sg52
Nssa(dp2881
g47
I313138863
sg41
VWeaponDrop
p2882
sg189
I0
sg53
(lp2883
I1095363701
asg44
VPT4M41.3300287S
p2884
sg192
I0
sg193
VP0DT0H0M1.0667S
p2885
sg48
(dp2886
g50
VE6 Huke HCS
p2887
sg52
Nssa(dp2888
g47
I2492868984
sg48
(dp2889
g50
VALG Heinz HCS
p2890
sg52
Nssg53
(lp2891
I2758383128
asg41
VWeaponPickup
p2892
sg44
VPT4M42.6270449S
p2893
sa(dp2894
g242
I313138863
sg243
I00
sg244
I00
sg245
(dp2895
g50
VE6 Shooter
p2896
sg52
Nssg248
(lp2897
I1095363701
asg250
I00
sg251
I01
sg252
I1
sg253
I0
sg254
I1
sg255
(dp2898
Vy
F-4.5767049999999996
sVx
F16.200832399999999
sVz
F1.6750004300000001
ssg257
(dp2899
Vy
F-4.2259025599999998
sVx
F20.5492344
sVz
F1.2079458199999999
ssg259
I00
sg260
(dp2900
g50
VALG RyaNoob
p2901
sg52
Nssg264
(lp2902
sg266
(lp2903
sg268
I00
sg44
VPT4M43.0270823S
p2904
sg41
VDeath
p2905
sg271
I1
sa(dp2906
g47
I424645655
sg41
VWeaponDrop
p2907
sg189
I3
sg53
(lp2908
I1327094800
asg44
VPT4M43.0290802S
p2909
sg192
I3
sg193
VP0DT0H0M16.9500S
p2910
sg48
(dp2911
g50
VALG RyaNoob
p2912
sg52
Nssa(dp2913
g47
I313138863
sg41
VWeaponDrop
p2914
sg189
I0
sg53
(lp2915
I1095363701
asg44
VPT4M43.0300817S
p2916
sg192
I0
sg193
VP0DT0H0M0.7000S
p2917
sg48
(dp2918
g50
VALG RyaNoob
p2919
sg52
Nssa(dp2920
g47
I313138863
sg48
(dp2921
g50
VALG ContrA HCS
p2922
sg52
Nssg53
(lp2923
I1095363701
asg41
VWeaponPickup
p2924
sg44
VPT4M43.6440788S
p2925
sa(dp2926
g47
I4096745987
sg48
(dp2927
g50
VALG ContrA HCS
p2928
sg52
Nssg53
(lp2929
I2758383128
asg41
VWeaponPickup
p2930
sg44
VPT4M43.6451035S
p2931
sa(dp2932
g41
VPlayerSpawn
p2933
sg48
(dp2934
g50
VALG ContrA HCS
p2935
sg52
Nssg44
VPT4M43.6451035S
p2936
sa(dp2937
g47
I2492868984
sg41
VWeaponDrop
p2938
sg189
I0
sg53
(lp2939
I2758383128
asg44
VPT4M43.7610816S
p2940
sg192
I0
sg193
VP0DT0H0M0.9833S
p2941
sg48
(dp2942
g50
VALG Heinz HCS
p2943
sg52
Nssa(dp2944
g47
I313138863
sg48
(dp2945
g50
VALGPredevonator
p2946
sg52
Nssg53
(lp2947
I1095363701
asg41
VWeaponPickup
p2948
sg44
VPT4M43.8451094S
p2949
sa(dp2950
g47
I4096745987
sg48
(dp2951
g50
VALGPredevonator
p2952
sg52
Nssg53
(lp2953
I2758383128
asg41
VWeaponPickup
p2954
sg44
VPT4M43.8451094S
p2955
sa(dp2956
g41
VPlayerSpawn
p2957
sg48
(dp2958
g50
VALGPredevonator
p2959
sg52
Nssg44
VPT4M43.8451094S
p2960
sa(dp2961
g47
I313138863
sg48
(dp2962
g50
VE6 bubu dubu
p2963
sg52
Nssg53
(lp2964
I1095363701
asg41
VWeaponPickup
p2965
sg44
VPT4M45.378155S
p2966
sa(dp2967
g47
I4096745987
sg48
(dp2968
g50
VE6 bubu dubu
p2969
sg52
Nssg53
(lp2970
I2758383128
asg41
VWeaponPickup
p2971
sg44
VPT4M45.378155S
p2972
sa(dp2973
g41
VPlayerSpawn
p2974
sg48
(dp2975
g50
VE6 bubu dubu
p2976
sg52
Nssg44
VPT4M45.378155S
p2977
sa(dp2978
g47
I313138863
sg41
VWeaponDrop
p2979
sg189
I0
sg53
(lp2980
I1095363701
asg44
VPT4M47.1092124S
p2981
sg192
I0
sg193
VP0DT0H0M1.3167S
p2982
sg48
(dp2983
g50
VE6 bubu dubu
p2984
sg52
Nssa(dp2985
g47
I524558978
sg48
(dp2986
g50
VE6 bubu dubu
p2987
sg52
Nssg53
(lp2988
I2758383128
asg41
VWeaponPickup
p2989
sg44
VPT4M47.1101907S
p2990
sa(dp2991
g47
I313138863
sg41
VWeaponDrop
p2992
sg189
I0
sg53
(lp2993
I1095363701
asg44
VPT4M48.226246S
p2994
sg192
I0
sg193
VP0DT0H0M1.0000S
p2995
sg48
(dp2996
g50
VALG ContrA HCS
p2997
sg52
Nssa(dp2998
g47
I669296699
sg48
(dp2999
g50
VALG ContrA HCS
p3000
sg52
Nssg53
(lp3001
I2758383128
asg41
VWeaponPickup
p3002
sg44
VPT4M48.226246S
p3003
sa(dp3004
g47
I313138863
sg48
(dp3005
g50
VE6 Huke HCS
p3006
sg52
Nssg53
(lp3007
I1095363701
asg41
VWeaponPickup
p3008
sg44
VPT4M49.3442622S
p3009
sa(dp3010
g47
I4096745987
sg48
(dp3011
g50
VE6 Huke HCS
p3012
sg52
Nssg53
(lp3013
I2758383128
asg41
VWeaponPickup
p3014
sg44
VPT4M49.3442622S
p3015
sa(dp3016
g41
VPlayerSpawn
p3017
sg48
(dp3018
g50
VE6 Huke HCS
p3019
sg52
Nssg44
VPT4M49.3452841S
p3020
sa(dp3021
g47
I313138863
sg48
(dp3022
g50
VALG RyaNoob
p3023
sg52
Nssg53
(lp3024
I1095363701
asg41
VWeaponPickup
p3025
sg44
VPT4M51.044316S
p3026
sa(dp3027
g47
I4096745987
sg48
(dp3028
g50
VALG RyaNoob
p3029
sg52
Nssg53
(lp3030
I2758383128
asg41
VWeaponPickup
p3031
sg44
VPT4M51.0453176S
p3032
sa(dp3033
g41
VPlayerSpawn
p3034
sg48
(dp3035
g50
VALG RyaNoob
p3036
sg52
Nssg44
VPT4M51.0453176S
p3037
sa(dp3038
g47
I313138863
sg41
VWeaponDrop
p3039
sg189
I0
sg53
(lp3040
I1095363701
asg44
VPT4M51.4433281S
p3041
sg192
I0
sg193
VP0DT0H0M1.4333S
p3042
sg48
(dp3043
g50
VE6 Huke HCS
p3044
sg52
Nssa(dp3045
g47
I723388907
sg48
(dp3046
g50
VE6 Huke HCS
p3047
sg52
Nssg53
(lp3048
I89283061
asg41
VWeaponPickup
p3049
sg44
VPT4M51.4433281S
p3050
sa(dp3051
g242
I4106030681
sg243
I00
sg244
I00
sg245
(dp3052
g50
VALGPredevonator
p3053
sg52
Nssg248
(lp3054
sg250
I00
sg251
I01
sg252
I1
sg253
I0
sg254
I1
sg255
(dp3055
Vy
F10.5915728
sVx
F1.26903546
sVz
F3.4789235600000001
ssg257
(dp3056
Vy
F-1.27452886
sVx
F-3.1072592700000001
sVz
F3.2218518299999999
ssg259
I00
sg260
(dp3057
g50
VE6 bubu dubu
p3058
sg52
Nssg264
(lp3059
sg266
(lp3060
sg268
I00
sg44
VPT4M53.9274077S
p3061
sg41
VDeath
p3062
sg271
I1
sa(dp3063
g47
I524558978
sg41
VWeaponDrop
p3064
sg189
I1
sg53
(lp3065
I2758383128
asg44
VPT4M53.9294268S
p3066
sg192
I0
sg193
VP0DT0H0M3.2833S
p3067
sg48
(dp3068
g50
VE6 bubu dubu
p3069
sg52
Nssa(dp3070
g47
I4096745987
sg41
VWeaponDrop
p3071
sg189
I0
sg53
(lp3072
I2758383128
asg44
VPT4M53.9294268S
p3073
sg192
I0
sg193
VP0DT0H0M3.9500S
p3074
sg48
(dp3075
g50
VE6 bubu dubu
p3076
sg52
Nssa(dp3077
g47
I313138863
sg41
VWeaponDrop
p3078
sg189
I0
sg53
(lp3079
I1095363701
asg44
VPT4M56.8595261S
p3080
sg192
I0
sg193
VP0DT0H0M1.0000S
p3081
sg48
(dp3082
g50
VALG RyaNoob
p3083
sg52
Nssa(dp3084
g47
I2133511419
sg48
(dp3085
g50
VALG RyaNoob
p3086
sg52
Nssg53
(lp3087
I2758383128
asg41
VWeaponPickup
p3088
sg44
VPT4M56.8595261S
p3089
sa(dp3090
g47
I723388907
sg41
VWeaponDrop
p3091
sg189
I0
sg53
(lp3092
I89283061
asg44
VPT4M58.6925845S
p3093
sg192
I0
sg193
VP0DT0H0M1.1333S
p3094
sg48
(dp3095
g50
VE6 Huke HCS
p3096
sg52
Nssa(dp3097
g47
I524558978
sg48
(dp3098
g50
VE6 Huke HCS
p3099
sg52
Nssg53
(lp3100
I2758383128
asg41
VWeaponPickup
p3101
sg44
VPT4M58.6935802S
p3102
sa(dp3103
g242
I4106030681
sg243
I00
sg244
I00
sg245
(dp3104
g50
VALG RyaNoob
p3105
sg52
Nssg248
(lp3106
sg250
I00
sg251
I01
sg252
I1
sg253
I0
sg254
I1
sg255
(dp3107
Vy
F10.144285200000001
sVx
F4.9522550000000001
sVz
F2.5464737400000002
ssg257
(dp3108
Vy
F11.769306200000001
sVx
F-6.482818
sVz
F1.6064432900000001
ssg259
I00
sg260
(dp3109
g50
VE6 Cratos HCS
p3110
sg52
Nssg264
(lp3111
sg266
(lp3112
(dp3113
g50
VALGPredevonator
p3114
sg52
Nsasg268
I00
sg44
VPT4M59.8435966S
p3115
sg41
VDeath
p3116
sg271
I1
sa(dp3117
g47
I313138863
sg41
VWeaponDrop
p3118
sg189
I0
sg53
(lp3119
I1095363701
asg44
VPT4M59.8456216S
p3120
sg192
I0
sg193
VP0DT0H0M1.7500S
p3121
sg48
(dp3122
g50
VE6 Cratos HCS
p3123
sg52
Nssa(dp3124
g47
I4096745987
sg41
VWeaponDrop
p3125
sg189
I7
sg53
(lp3126
I2758383128
asg44
VPT4M59.8456216S
p3127
sg192
I3
sg193
VP0DT0H0M18.9333S
p3128
sg48
(dp3129
g50
VE6 Cratos HCS
p3130
sg52
Nssa(dp3131
g47
I313138863
sg48
(dp3132
g50
VE6 bubu dubu
p3133
sg52
Nssg53
(lp3134
I1095363701
asg41
VWeaponPickup
p3135
sg44
VPT5M1.9446883S
p3136
sa(dp3137
g47
I4096745987
sg48
(dp3138
g50
VE6 bubu dubu
p3139
sg52
Nssg53
(lp3140
I2758383128
asg41
VWeaponPickup
p3141
sg44
VPT5M1.9446883S
p3142
sa(dp3143
g41
VPlayerSpawn
p3144
sg48
(dp3145
g50
VE6 bubu dubu
p3146
sg52
Nssg44
VPT5M1.9446883S
p3147
sa(dp3148
g47
I313138863
sg48
(dp3149
g50
VE6 Cratos HCS
p3150
sg52
Nssg53
(lp3151
I1095363701
asg41
VWeaponPickup
p3152
sg44
VPT5M7.8608728S
p3153
sa(dp3154
g47
I4096745987
sg48
(dp3155
g50
VE6 Cratos HCS
p3156
sg52
Nssg53
(lp3157
I2758383128
asg41
VWeaponPickup
p3158
sg44
VPT5M7.8608728S
p3159
sa(dp3160
g41
VPlayerSpawn
p3161
sg48
(dp3162
g50
VE6 Cratos HCS
p3163
sg52
Nssg44
VPT5M7.8608728S
p3164
sa(dp3165
g242
I723388907
sg243
I00
sg244
I00
sg245
(dp3166
g50
VALG Heinz HCS
p3167
sg52
Nssg248
(lp3168
I89283061
asg250
I00
sg251
I01
sg252
I1
sg253
I0
sg254
I1
sg255
(dp3169
Vy
F-14.9504261
sVx
F14.027815800000001
sVz
F4.1779265399999996
ssg257
(dp3170
Vy
F-11.752531100000001
sVx
F13.8278265
sVz
F4.5999746300000002
ssg259
I00
sg260
(dp3171
g50
VE6 Shooter
p3172
sg52
Nssg264
(lp3173
sg266
(lp3174
sg268
I00
sg44
VPT5M9.2098966S
p3175
sg41
VDeath
p3176
sg271
I1
sa(dp3177
g47
I313138863
sg41
VWeaponDrop
p3178
sg189
I16
sg53
(lp3179
I1095363701
asg44
VPT5M9.2129217S
p3180
sg192
I9
sg193
VP0DT0H0M24.8167S
p3181
sg48
(dp3182
g50
VE6 Shooter
p3183
sg52
Nssa(dp3184
g47
I4096745987
sg41
VWeaponDrop
p3185
sg189
I5
sg53
(lp3186
I2758383128
asg44
VPT5M9.2139179S
p3187
sg192
I2
sg193
VP0DT0H0M17.9333S
p3188
sg48
(dp3189
g50
VE6 Shooter
p3190
sg52
Nssa(dp3191
g47
I313138863
sg41
VWeaponDrop
p3192
sg189
I0
sg53
(lp3193
I1095363701
asg44
VPT5M10.1089454S
p3194
sg192
I0
sg193
VP0DT0H0M1.6667S
p3195
sg48
(dp3196
g50
VE6 Cratos HCS
p3197
sg52
Nssa(dp3198
g47
I424645655
sg48
(dp3199
g50
VE6 Cratos HCS
p3200
sg52
Nssg53
(lp3201
I1327094800
asg41
VWeaponPickup
p3202
sg44
VPT5M10.1099256S
p3203
sa(dp3204
g242
I4096745987
sg243
I00
sg244
I00
sg245
(dp3205
g50
VALG Heinz HCS
p3206
sg52
Nssg248
(lp3207
I2758383128
asg250
I00
sg251
I01
sg252
I1
sg253
I0
sg254
I1
sg255
(dp3208
Vy
F-6.9263486900000002
sVx
F15.7293129
sVz
F1.7249464999999999
ssg257
(dp3209
Vy
F-4.9302396799999997
sVx
F20.107742300000002
sVz
F1.4620014400000001
ssg259
I00
sg260
(dp3210
g50
VE6 Cratos HCS
p3211
sg52
Nssg264
(lp3212
sg266
(lp3213
sg268
I01
sg44
VPT5M14.5600912S
p3214
sg41
VDeath
p3215
sg271
I1
sa(dp3216
g41
VMedal
p3217
sg48
(dp3218
g50
VALG Heinz HCS
p3219
sg52
Nssg290
I3261908037
sg44
VPT5M14.5630906S
p3220
sa(dp3221
g41
VMedal
p3222
sg48
(dp3223
g50
VALG Heinz HCS
p3224
sg52
Nssg290
I2430242797
sg44
VPT5M14.5630906S
p3225
sa(dp3226
g47
I424645655
sg41
VWeaponDrop
p3227
sg189
I15
sg53
(lp3228
I1327094800
asg44
VPT5M14.5630906S
p3229
sg192
I9
sg193
VP0DT0H0M4.4500S
p3230
sg48
(dp3231
g50
VE6 Cratos HCS
p3232
sg52
Nssa(dp3233
g47
I4096745987
sg41
VWeaponDrop
p3234
sg189
I0
sg53
(lp3235
I2758383128
asg44
VPT5M14.5630906S
p3236
sg192
I0
sg193
VP0DT0H0M0.5833S
p3237
sg48
(dp3238
g50
VE6 Cratos HCS
p3239
sg52
Nssa(dp3240
g47
I313138863
sg48
(dp3241
g50
VE6 Shooter
p3242
sg52
Nssg53
(lp3243
I1095363701
asg41
VWeaponPickup
p3244
sg44
VPT5M17.2271536S
p3245
sa(dp3246
g47
I4096745987
sg48
(dp3247
g50
VE6 Shooter
p3248
sg52
Nssg53
(lp3249
I2758383128
asg41
VWeaponPickup
p3250
sg44
VPT5M17.2281724S
p3251
sa(dp3252
g41
VPlayerSpawn
p3253
sg48
(dp3254
g50
VE6 Shooter
p3255
sg52
Nssg44
VPT5M17.2281724S
p3256
sa(dp3257
g242
I723388907
sg243
I00
sg244
I00
sg245
(dp3258
g50
VALG Heinz HCS
p3259
sg52
Nssg248
(lp3260
I89283061
asg250
I00
sg251
I01
sg252
I1
sg253
I0
sg254
I1
sg255
(dp3261
Vy
F-14.3456373
sVx
F15.650528899999999
sVz
F3.2011766399999999
ssg257
(dp3262
Vy
F-13.565849999999999
sVx
F11.3398275
sVz
F3.8714664000000001
ssg259
I00
sg260
(dp3263
g50
VE6 Huke HCS
p3264
sg52
Nssg264
(lp3265
sg266
(lp3266
(dp3267
g50
VALG RyaNoob
p3268
sg52
Nsasg268
I00
sg44
VPT5M19.9602407S
p3269
sg41
VDeath
p3270
sg271
I1
sa(dp3271
g47
I524558978
sg41
VWeaponDrop
p3272
sg189
I3
sg53
(lp3273
I2758383128
asg44
VPT5M19.962264S
p3274
sg192
I1
sg193
VP0DT0H0M16.6167S
p3275
sg48
(dp3276
g50
VE6 Huke HCS
p3277
sg52
Nssa(dp3278
g47
I4096745987
sg41
VWeaponDrop
p3279
sg189
I6
sg53
(lp3280
I2758383128
asg44
VPT5M19.962264S
p3281
sg192
I3
sg193
VP0DT0H0M11.4333S
p3282
sg48
(dp3283
g50
VE6 Huke HCS
p3284
sg52
Nssa(dp3285
g47
I313138863
sg41
VWeaponDrop
p3286
sg189
I0
sg53
(lp3287
I1095363701
asg44
VPT5M21.1762784S
p3288
sg192
I0
sg193
VP0DT0H0M1.0167S
p3289
sg48
(dp3290
g50
VE6 Shooter
p3291
sg52
Nssa(dp3292
g47
I723388907
sg48
(dp3293
g50
VE6 Shooter
p3294
sg52
Nssg53
(lp3295
I89283061
asg41
VWeaponPickup
p3296
sg44
VPT5M21.1762784S
p3297
sa(dp3298
g47
I313138863
sg48
(dp3299
g50
VE6 Cratos HCS
p3300
sg52
Nssg53
(lp3301
I1095363701
asg41
VWeaponPickup
p3302
sg44
VPT5M22.5773239S
p3303
sa(dp3304
g47
I4096745987
sg48
(dp3305
g50
VE6 Cratos HCS
p3306
sg52
Nssg53
(lp3307
I2758383128
asg41
VWeaponPickup
p3308
sg44
VPT5M22.5783487S
p3309
sa(dp3310
g41
VPlayerSpawn
p3311
sg48
(dp3312
g50
VE6 Cratos HCS
p3313
sg52
Nssg44
VPT5M22.5783487S
p3314
sa(dp3315
g242
I669296699
sg243
I00
sg244
I00
sg245
(dp3316
g50
VALG ContrA HCS
p3317
sg52
Nssg248
(lp3318
I2758383128
asg250
I00
sg251
I01
sg252
I1
sg253
I0
sg254
I1
sg255
(dp3319
Vy
F10.573573100000001
sVx
F10.310844400000001
sVz
F3.1995623100000001
ssg257
(dp3320
Vy
F4.0795955700000004
sVx
F0.74448950000000003
sVz
F4.0868916500000001
ssg259
I00
sg260
(dp3321
g50
VE6 Shooter
p3322
sg52
Nssg264
(lp3323
sg266
(lp3324
(dp3325
g50
VALGPredevonator
p3326
sg52
Nsasg268
I00
sg44
VPT5M25.8104267S
p3327
sg41
VDeath
p3328
sg271
I1
sa(dp3329
g41
VImpulse
p3330
sg48
(dp3331
g50
VALG ContrA HCS
p3332
sg52
Nssg981
I2556889090
sg44
VPT5M25.8104267S
p3333
sa(dp3334
g41
VMedal
p3335
sg48
(dp3336
g50
VALG ContrA HCS
p3337
sg52
Nssg290
I2838259753
sg44
VPT5M25.8104267S
p3338
sa(dp3339
g47
I723388907
sg41
VWeaponDrop
p3340
sg189
I12
sg53
(lp3341
I89283061
asg44
VPT5M25.8124536S
p3342
sg192
I7
sg193
VP0DT0H0M4.6333S
p3343
sg48
(dp3344
g50
VE6 Shooter
p3345
sg52
Nssa(dp3346
g47
I4096745987
sg41
VWeaponDrop
p3347
sg189
I0
sg53
(lp3348
I2758383128
asg44
VPT5M25.8124536S
p3349
sg192
I0
sg193
VP0DT0H0M2.9333S
p3350
sg48
(dp3351
g50
VE6 Shooter
p3352
sg52
Nssa(dp3353
g47
I313138863
sg48
(dp3354
g50
VE6 Huke HCS
p3355
sg52
Nssg53
(lp3356
I1095363701
asg41
VWeaponPickup
p3357
sg44
VPT5M27.9775209S
p3358
sa(dp3359
g47
I4096745987
sg48
(dp3360
g50
VE6 Huke HCS
p3361
sg52
Nssg53
(lp3362
I2758383128
asg41
VWeaponPickup
p3363
sg44
VPT5M27.9775209S
p3364
sa(dp3365
g41
VPlayerSpawn
p3366
sg48
(dp3367
g50
VE6 Huke HCS
p3368
sg52
Nssg44
VPT5M27.9775209S
p3369
sa(dp3370
g47
I313138863
sg41
VWeaponDrop
p3371
sg189
I24
sg53
(lp3372
I1095363701
asg44
VPT5M29.2425575S
p3373
sg192
I12
sg193
VP0DT0H0M5.1667S
p3374
sg48
(dp3375
g50
VALGPredevonator
p3376
sg52
Nssa(dp3377
g47
I1579758889
sg48
(dp3378
g50
VALGPredevonator
p3379
sg52
Nssg53
(lp3380
I2758383128
asg41
VWeaponPickup
p3381
sg44
VPT5M29.2425575S
p3382
sa(dp3383
g242
I4096745987
sg243
I00
sg244
I00
sg245
(dp3384
g50
VE6 bubu dubu
p3385
sg52
Nssg248
(lp3386
I2758383128
asg250
I00
sg251
I01
sg252
I1
sg253
I0
sg254
I1
sg255
(dp3387
Vy
F0.187393263
sVx
F-4.3209295299999999
sVz
F3.9994416199999998
ssg257
(dp3388
Vy
F-7.7676992399999998
sVx
F-1.074003
sVz
F3.2022390000000001
ssg259
I00
sg260
(dp3389
g50
VALG Heinz HCS
p3390
sg52
Nssg264
(lp3391
sg266
(lp3392
sg268
I01
sg44
VPT5M31.9436242S
p3393
sg41
VDeath
p3394
sg271
I1
sa(dp3395
g41
VMedal
p3396
sg48
(dp3397
g50
VE6 bubu dubu
p3398
sg52
Nssg290
I2782465081
sg44
VPT5M31.9456262S
p3399
sa(dp3400
g41
VMedal
p3401
sg48
(dp3402
g50
VE6 bubu dubu
p3403
sg52
Nssg290
I3261908037
sg44
VPT5M31.9466464S
p3404
sa(dp3405
g47
I723388907
sg41
VWeaponDrop
p3406
sg189
I77
sg53
(lp3407
I89283061
asg44
VPT5M31.9476275S
p3408
sg192
I32
sg193
VP0DT0H0M18.0000S
p3409
sg48
(dp3410
g50
VALG Heinz HCS
p3411
sg52
Nssa(dp3412
g47
I4096745987
sg41
VWeaponDrop
p3413
sg189
I36
sg53
(lp3414
I2758383128
asg44
VPT5M31.9476275S
p3415
sg192
I23
sg193
VP0DT0H1M13.5833S
p3416
sg48
(dp3417
g50
VALG Heinz HCS
p3418
sg52
Nssa(dp3419
g242
I4096745987
sg243
I00
sg244
I00
sg245
(dp3420
g50
VE6 Huke HCS
p3421
sg52
Nssg248
(lp3422
I2758383128
asg250
I00
sg251
I01
sg252
I1
sg253
I0
sg254
I1
sg255
(dp3423
Vy
F6.0378990000000003
sVx
F17.330196399999998
sVz
F2.10908937
ssg257
(dp3424
Vy
F8.3790600000000008
sVx
F13.9877644
sVz
F3.6199736599999999
ssg259
I00
sg260
(dp3425
g50
VALG ContrA HCS
p3426
sg52
Nssg264
(lp3427
sg266
(lp3428
(dp3429
g50
VE6 Cratos HCS
p3430
sg52
Nsasg268
I00
sg44
VPT5M33.3766948S
p3431
sg41
VDeath
p3432
sg271
I1
sa(dp3433
g47
I669296699
sg41
VWeaponDrop
p3434
sg189
I3
sg53
(lp3435
I2758383128
asg44
VPT5M33.3786944S
p3436
sg192
I2
sg193
VP0DT0H0M35.7000S
p3437
sg48
(dp3438
g50
VALG ContrA HCS
p3439
sg52
Nssa(dp3440
g47
I4096745987
sg41
VWeaponDrop
p3441
sg189
I0
sg53
(lp3442
I2758383128
asg44
VPT5M33.3786944S
p3443
sg192
I0
sg193
VP0DT0H0M13.0333S
p3444
sg48
(dp3445
g50
VALG ContrA HCS
p3446
sg52
Nssa(dp3447
g47
I313138863
sg48
(dp3448
g50
VE6 Shooter
p3449
sg52
Nssg53
(lp3450
I1095363701
asg41
VWeaponPickup
p3451
sg44
VPT5M33.8276862S
p3452
sa(dp3453
g47
I4096745987
sg48
(dp3454
g50
VE6 Shooter
p3455
sg52
Nssg53
(lp3456
I2758383128
asg41
VWeaponPickup
p3457
sg44
VPT5M33.8276862S
p3458
sa(dp3459
g41
VPlayerSpawn
p3460
sg48
(dp3461
g50
VE6 Shooter
p3462
sg52
Nssg44
VPT5M33.8276862S
p3463
sa(dp3464
g41
VMedal
p3465
sg48
(dp3466
g50
VE6 bubu dubu
p3467
sg52
Nssg290
I3400287617
sg44
VPT5M35.6097404S
p3468
sa(dp3469
g47
I4096745987
sg41
VWeaponDrop
p3470
sg189
I6
sg53
(lp3471
I2758383128
asg44
VPT5M38.8258687S
p3472
sg192
I4
sg193
VP0DT0H0M15.1000S
p3473
sg48
(dp3474
g50
VE6 Cratos HCS
p3475
sg52
Nssa(dp3476
g47
I424645655
sg48
(dp3477
g50
VE6 Cratos HCS
p3478
sg52
Nssg53
(lp3479
I1327094800
asg41
VWeaponPickup
p3480
sg44
VPT5M38.8258687S
p3481
sa(dp3482
g47
I313138863
sg48
(dp3483
g50
VALG Heinz HCS
p3484
sg52
Nssg53
(lp3485
I1095363701
asg41
VWeaponPickup
p3486
sg44
VPT5M39.960917S
p3487
sa(dp3488
g47
I4096745987
sg48
(dp3489
g50
VALG Heinz HCS
p3490
sg52
Nssg53
(lp3491
I2758383128
asg41
VWeaponPickup
p3492
sg44
VPT5M39.960917S
p3493
sa(dp3494
g41
VPlayerSpawn
p3495
sg48
(dp3496
g50
VALG Heinz HCS
p3497
sg52
Nssg44
VPT5M39.960917S
p3498
sa(dp3499
g47
I313138863
sg48
(dp3500
g50
VALG ContrA HCS
p3501
sg52
Nssg53
(lp3502
I1095363701
asg41
VWeaponPickup
p3503
sg44
VPT5M41.3939456S
p3504
sa(dp3505
g47
I4096745987
sg48
(dp3506
g50
VALG ContrA HCS
p3507
sg52
Nssg53
(lp3508
I2758383128
asg41
VWeaponPickup
p3509
sg44
VPT5M41.3949617S
p3510
sa(dp3511
g41
VPlayerSpawn
p3512
sg48
(dp3513
g50
VALG ContrA HCS
p3514
sg52
Nssg44
VPT5M41.3949617S
p3515
sa(dp3516
g47
I313138863
sg41
VWeaponDrop
p3517
sg189
I0
sg53
(lp3518
I1095363701
asg44
VPT5M43.1590099S
p3519
sg192
I0
sg193
VP0DT0H0M1.6167S
p3520
sg48
(dp3521
g50
VE6 Cratos HCS
p3522
sg52
Nssa(dp3523
g47
I723388907
sg48
(dp3524
g50
VE6 Cratos HCS
p3525
sg52
Nssg53
(lp3526
I89283061
asg41
VWeaponPickup
p3527
sg44
VPT5M43.1590099S
p3528
sa(dp3529
g47
I313138863
sg41
VWeaponDrop
p3530
sg189
I11
sg53
(lp3531
I1095363701
asg44
VPT5M43.7420247S
p3532
sg192
I5
sg193
VP0DT0H0M18.4000S
p3533
sg48
(dp3534
g50
VE6 bubu dubu
p3535
sg52
Nssa(dp3536
g47
I2133511419
sg48
(dp3537
g50
VE6 bubu dubu
p3538
sg52
Nssg53
(lp3539
I2758383128
asg41
VWeaponPickup
p3540
sg44
VPT5M43.743002S
p3541
sa(dp3542
g242
I723388907
sg243
I00
sg244
I00
sg245
(dp3543
g50
VE6 Cratos HCS
p3544
sg52
Nssg248
(lp3545
I89283061
asg250
I00
sg251
I01
sg252
I1
sg253
I0
sg254
I1
sg255
(dp3546
Vy
F12.594441399999999
sVx
F-2.7946827399999998
sVz
F1.5996532400000001
ssg257
(dp3547
Vy
F10.315135
sVx
F-1.28390431
sVz
F1.5995738500000001
ssg259
I00
sg260
(dp3548
g50
VALGPredevonator
p3549
sg52
Nssg264
(lp3550
sg266
(lp3551
sg268
I00
sg44
VPT5M45.9940726S
p3552
sg41
VDeath
p3553
sg271
I1
sa(dp3554
g47
I1579758889
sg41
VWeaponDrop
p3555
sg189
I0
sg53
(lp3556
I2758383128
asg44
VPT5M45.9960976S
p3557
sg192
I0
sg193
VP0DT0H0M11.1167S
p3558
sg48
(dp3559
g50
VALGPredevonator
p3560
sg52
Nssa(dp3561
g47
I4096745987
sg41
VWeaponDrop
p3562
sg189
I15
sg53
(lp3563
I2758383128
asg44
VPT5M45.9960976S
p3564
sg192
I10
sg193
VP0DT0H0M45.8667S
p3565
sg48
(dp3566
g50
VALGPredevonator
p3567
sg52
Nssa(dp3568
g242
I4096745987
sg243
I00
sg244
I00
sg245
(dp3569
g50
VE6 bubu dubu
p3570
sg52
Nssg248
(lp3571
I2758383128
asg250
I00
sg251
I01
sg252
I1
sg253
I0
sg254
I1
sg255
(dp3572
Vy
F-5.5446200000000001
sVx
F13.7847328
sVz
F1.6750004300000001
ssg257
(dp3573
Vy
F-4.973751
sVx
F22.967727700000001
sVz
F1.3165675400000001
ssg259
I00
sg260
(dp3574
g50
VALG Heinz HCS
p3575
sg52
Nssg264
(lp3576
sg266
(lp3577
(dp3578
g50
VE6 Huke HCS
p3579
sg52
Nsa(dp3580
g50
VE6 Shooter
p3581
sg52
Nsasg268
I01
sg44
VPT5M50.6272217S
p3582
sg41
VDeath
p3583
sg271
I1
sa(dp3584
g41
VMedal
p3585
sg48
(dp3586
g50
VE6 bubu dubu
p3587
sg52
Nssg290
I3261908037
sg44
VPT5M50.6302468S
p3588
sa(dp3589
g47
I313138863
sg41
VWeaponDrop
p3590
sg189
I0
sg53
(lp3591
I1095363701
asg44
VPT5M50.6302468S
p3592
sg192
I0
sg193
VP0DT0H0M0.5167S
p3593
sg48
(dp3594
g50
VALG Heinz HCS
p3595
sg52
Nssa(dp3596
g47
I4096745987
sg41
VWeaponDrop
p3597
sg189
I10
sg53
(lp3598
I2758383128
asg44
VPT5M50.6302468S
p3599
sg192
I3
sg193
VP0DT0H0M10.1500S
p3600
sg48
(dp3601
g50
VALG Heinz HCS
p3602
sg52
Nssa(dp3603
g47
I313138863
sg41
VWeaponDrop
p3604
sg189
I0
sg53
(lp3605
I1095363701
asg44
VPT5M52.1422937S
p3606
sg192
I0
sg193
VP0DT0H0M1.5333S
p3607
sg48
(dp3608
g50
VE6 Huke HCS
p3609
sg52
Nssa(dp3610
g47
I669296699
sg48
(dp3611
g50
VE6 Huke HCS
p3612
sg52
Nssg53
(lp3613
I2758383128
asg41
VWeaponPickup
p3614
sg44
VPT5M52.1422937S
p3615
sa(dp3616
g47
I313138863
sg48
(dp3617
g50
VALGPredevonator
p3618
sg52
Nssg53
(lp3619
I1095363701
asg41
VWeaponPickup
p3620
sg44
VPT5M54.0103306S
p3621
sa(dp3622
g47
I4096745987
sg48
(dp3623
g50
VALGPredevonator
p3624
sg52
Nssg53
(lp3625
I2758383128
asg41
VWeaponPickup
p3626
sg44
VPT5M54.0103306S
p3627
sa(dp3628
g41
VPlayerSpawn
p3629
sg48
(dp3630
g50
VALGPredevonator
p3631
sg52
Nssg44
VPT5M54.0103306S
p3632
sa(dp3633
g242
I4096745987
sg243
I00
sg244
I00
sg245
(dp3634
g50
VALG RyaNoob
p3635
sg52
Nssg248
(lp3636
I2758383128
asg250
I00
sg251
I01
sg252
I1
sg253
I0
sg254
I1
sg255
(dp3637
Vy
F10.059287100000001
sVx
F17.250791499999998
sVz
F3.1995619999999998
ssg257
(dp3638
Vy
F12.4105186
sVx
F9.6322159999999997
sVz
F3.9645233200000001
ssg259
I00
sg260
(dp3639
g50
VE6 Huke HCS
p3640
sg52
Nssg264
(lp3641
sg266
(lp3642
sg268
I01
sg44
VPT5M55.7103843S
p3643
sg41
VDeath
p3644
sg271
I1
sa(dp3645
g41
VMedal
p3646
sg48
(dp3647
g50
VALG RyaNoob
p3648
sg52
Nssg290
I466059351
sg44
VPT5M55.7124037S
p3649
sa(dp3650
g41
VMedal
p3651
sg48
(dp3652
g50
VALG RyaNoob
p3653
sg52
Nssg290
I2766284219
sg44
VPT5M55.7124037S
p3654
sa(dp3655
g47
I669296699
sg41
VWeaponDrop
p3656
sg189
I1
sg53
(lp3657
I2758383128
asg44
VPT5M55.7134094S
p3658
sg192
I1
sg193
VP0DT0H0M3.5667S
p3659
sg48
(dp3660
g50
VE6 Huke HCS
p3661
sg52
Nssa(dp3662
g47
I4096745987
sg41
VWeaponDrop
p3663
sg189
I14
sg53
(lp3664
I2758383128
asg44
VPT5M55.7134094S
p3665
sg192
I4
sg193
VP0DT0H0M22.6333S
p3666
sg48
(dp3667
g50
VE6 Huke HCS
p3668
sg52
Nssa(dp3669
g47
I313138863
sg48
(dp3670
g50
VALG Heinz HCS
p3671
sg52
Nssg53
(lp3672
I1095363701
asg41
VWeaponPickup
p3673
sg44
VPT5M58.6434788S
p3674
sa(dp3675
g47
I4096745987
sg48
(dp3676
g50
VALG Heinz HCS
p3677
sg52
Nssg53
(lp3678
I2758383128
asg41
VWeaponPickup
p3679
sg44
VPT5M58.6444991S
p3680
sa(dp3681
g41
VPlayerSpawn
p3682
sg48
(dp3683
g50
VALG Heinz HCS
p3684
sg52
Nssg44
VPT5M58.6444991S
p3685
sa(dp3686
g47
I313138863
sg41
VWeaponDrop
p3687
sg189
I0
sg53
(lp3688
I1095363701
asg44
VPT6M1.2255835S
p3689
sg192
I0
sg193
VP0DT0H0M2.4667S
p3690
sg48
(dp3691
g50
VALGPredevonator
p3692
sg52
Nssa(dp3693
g47
I1579758889
sg48
(dp3694
g50
VALGPredevonator
p3695
sg52
Nssg53
(lp3696
I2758383128
asg41
VWeaponPickup
p3697
sg44
VPT6M1.2255835S
p3698
sa(dp3699
g242
I4096745987
sg243
I00
sg244
I00
sg245
(dp3700
g50
VALG ContrA HCS
p3701
sg52
Nssg248
(lp3702
I2758383128
asg250
I00
sg251
I00
sg252
I2
sg253
I0
sg254
I0
sg255
(dp3703
Vy
F2.3990187600000001
sVx
F-4.3519079999999999
sVz
F3.1999983799999998
ssg257
(dp3704
Vy
F3.6540706200000002
sVx
F-2.45728087
sVz
F3.2084868000000002
ssg259
I00
sg260
(dp3705
g262
g263
ssg264
(lp3706
sg266
(lp3707
sg268
I00
sg44
VPT6M1.3265645S
p3708
sg41
VDeath
p3709
sg271
I1
sa(dp3710
g242
I2133511419
sg243
I00
sg244
I00
sg245
(dp3711
g50
VALG RyaNoob
p3712
sg52
Nssg248
(lp3713
I2758383128
asg250
I00
sg251
I01
sg252
I1
sg253
I0
sg254
I1
sg255
(dp3714
Vy
F12.8857079
sVx
F21.729753500000001
sVz
F-0.00312867761
ssg257
(dp3715
Vy
F13.741238600000001
sVx
F19.460760000000001
sVz
F1.9682490800000001
ssg259
I00
sg260
(dp3716
g50
VE6 Shooter
p3717
sg52
Nssg264
(lp3718
sg266
(lp3719
sg268
I00
sg44
VPT6M2.5926084S
p3720
sg41
VDeath
p3721
sg271
I1
sa(dp3722
g47
I313138863
sg41
VWeaponDrop
p3723
sg189
I0
sg53
(lp3724
I1095363701
asg44
VPT6M2.5946263S
p3725
sg192
I0
sg193
VP0DT0H0M11.9333S
p3726
sg48
(dp3727
g50
VE6 Shooter
p3728
sg52
Nssa(dp3729
g47
I4096745987
sg41
VWeaponDrop
p3730
sg189
I14
sg53
(lp3731
I2758383128
asg44
VPT6M2.5946263S
p3732
sg192
I4
sg193
VP0DT0H0M16.8333S
p3733
sg48
(dp3734
g50
VE6 Shooter
p3735
sg52
Nssa(dp3736
g47
I313138863
sg48
(dp3737
g50
VE6 Huke HCS
p3738
sg52
Nssg53
(lp3739
I1095363701
asg41
VWeaponPickup
p3740
sg44
VPT6M3.7276654S
p3741
sa(dp3742
g47
I4096745987
sg48
(dp3743
g50
VE6 Huke HCS
p3744
sg52
Nssg53
(lp3745
I2758383128
asg41
VWeaponPickup
p3746
sg44
VPT6M3.7276654S
p3747
sa(dp3748
g41
VPlayerSpawn
p3749
sg48
(dp3750
g50
VE6 Huke HCS
p3751
sg52
Nssg44
VPT6M3.7276654S
p3752
sa(dp3753
g242
I723388907
sg243
I00
sg244
I01
sg245
(dp3754
g50
VE6 Cratos HCS
p3755
sg52
Nssg248
(lp3756
I89283061
asg250
I00
sg251
I00
sg252
I1
sg253
I0
sg254
I1
sg255
(dp3757
Vy
F12.590723000000001
sVx
F2.5354739999999998
sVz
F3.2397503900000002
ssg257
(dp3758
Vy
F12.588274999999999
sVx
F2.04726052
sVz
F3.2636253800000001
ssg259
I00
sg260
(dp3759
g50
VALGPredevonator
p3760
sg52
Nssg264
(lp3761
sg266
(lp3762
sg268
I00
sg44
VPT6M4.9936814S
p3763
sg41
VDeath
p3764
sg271
I1
sa(dp3765
g41
VMedal
p3766
sg48
(dp3767
g50
VE6 Cratos HCS
p3768
sg52
Nssg290
I2287626681
sg44
VPT6M4.9947035S
p3769
sa(dp3770
g47
I4096745987
sg41
VWeaponDrop
p3771
sg189
I2
sg53
(lp3772
I2758383128
asg44
VPT6M4.9947035S
p3773
sg192
I1
sg193
VP0DT0H0M7.6000S
p3774
sg48
(dp3775
g50
VALGPredevonator
p3776
sg52
Nssa(dp3777
g47
I1579758889
sg41
VWeaponDrop
p3778
sg189
I0
sg53
(lp3779
I2758383128
asg44
VPT6M4.9957093S
p3780
sg192
I0
sg193
VP0DT0H0M0.9167S
p3781
sg48
(dp3782
g50
VALGPredevonator
p3783
sg52
Nssa(dp3784
g47
I313138863
sg48
(dp3785
g50
VE6 Shooter
p3786
sg52
Nssg53
(lp3787
I1095363701
asg41
VWeaponPickup
p3788
sg44
VPT6M10.6108844S
p3789
sa(dp3790
g47
I4096745987
sg48
(dp3791
g50
VE6 Shooter
p3792
sg52
Nssg53
(lp3793
I2758383128
asg41
VWeaponPickup
p3794
sg44
VPT6M10.6108844S
p3795
sa(dp3796
g41
VPlayerSpawn
p3797
sg48
(dp3798
g50
VE6 Shooter
p3799
sg52
Nssg44
VPT6M10.6108844S
p3800
sa(dp3801
g242
I313138863
sg243
I00
sg244
I00
sg245
(dp3802
g50
VALG ContrA HCS
p3803
sg52
Nssg248
(lp3804
I1095363701
asg250
I00
sg251
I01
sg252
I1
sg253
I0
sg254
I1
sg255
(dp3805
Vy
F3.8959484099999999
sVx
F1.0327596699999999
sVz
F0.111047268
ssg257
(dp3806
Vy
F6.3549175299999998
sVx
F4.2059850000000001
sVz
F0.67975795299999997
ssg259
I00
sg260
(dp3807
g50
VE6 Cratos HCS
p3808
sg52
Nssg264
(lp3809
sg266
(lp3810
(dp3811
g50
VALG Heinz HCS
p3812
sg52
Nsasg268
I00
sg44
VPT6M12.5439237S
p3813
sg41
VDeath
p3814
sg271
I1
sa(dp3815
g41
VImpulse
p3816
sg48
(dp3817
g50
VALG ContrA HCS
p3818
sg52
Nssg981
I2556889090
sg44
VPT6M12.5439237S
p3819
sa(dp3820
g41
VMedal
p3821
sg48
(dp3822
g50
VALG ContrA HCS
p3823
sg52
Nssg290
I2838259753
sg44
VPT6M12.5439237S
p3824
sa(dp3825
g47
I723388907
sg41
VWeaponDrop
p3826
sg189
I56
sg53
(lp3827
I89283061
asg44
VPT6M12.545942S
p3828
sg192
I38
sg193
VP0DT0H0M13.5000S
p3829
sg48
(dp3830
g50
VE6 Cratos HCS
p3831
sg52
Nssa(dp3832
g47
I723388907
sg41
VWeaponDrop
p3833
sg189
I0
sg53
(lp3834
I89283061
asg44
VPT6M12.545942S
p3835
sg192
I0
sg193
VP0DT0S
p3836
sg48
(dp3837
g50
VE6 Cratos HCS
p3838
sg52
Nssa(dp3839
g47
I424645655
sg41
VWeaponDrop
p3840
sg189
I21
sg53
(lp3841
I1327094800
asg44
VPT6M12.545942S
p3842
sg192
I3
sg193
VP0DT0H0M19.7500S
p3843
sg48
(dp3844
g50
VE6 Cratos HCS
p3845
sg52
Nssa(dp3846
g47
I313138863
sg48
(dp3847
g50
VALGPredevonator
p3848
sg52
Nssg53
(lp3849
I1095363701
asg41
VWeaponPickup
p3850
sg44
VPT6M13.0109642S
p3851
sa(dp3852
g47
I4096745987
sg48
(dp3853
g50
VALGPredevonator
p3854
sg52
Nssg53
(lp3855
I2758383128
asg41
VWeaponPickup
p3856
sg44
VPT6M13.0109642S
p3857
sa(dp3858
g41
VPlayerSpawn
p3859
sg48
(dp3860
g50
VALGPredevonator
p3861
sg52
Nssg44
VPT6M13.0109642S
p3862
sa(dp3863
g242
I4096745987
sg243
I00
sg244
I00
sg245
(dp3864
g50
VALG RyaNoob
p3865
sg52
Nssg248
(lp3866
I2758383128
asg250
I00
sg251
I01
sg252
I1
sg253
I0
sg254
I1
sg255
(dp3867
Vy
F9.8899950000000008
sVx
F5.2045529999999998
sVz
F3.5958420000000002
ssg257
(dp3868
Vy
F3.9456515300000001
sVx
F1.55368412
sVz
F-0.0057214796499999998
ssg259
I00
sg260
(dp3869
g50
VE6 bubu dubu
p3870
sg52
Nssg264
(lp3871
sg266
(lp3872
(dp3873
g50
VALG ContrA HCS
p3874
sg52
Nsasg268
I00
sg44
VPT6M14.9610484S
p3875
sg41
VDeath
p3876
sg271
I1
sa(dp3877
g41
VImpulse
p3878
sg48
(dp3879
g50
VALG RyaNoob
p3880
sg52
Nssg981
I2556889090
sg44
VPT6M14.9610484S
p3881
sa(dp3882
g41
VMedal
p3883
sg48
(dp3884
g50
VALG RyaNoob
p3885
sg52
Nssg290
I2838259753
sg44
VPT6M14.9610484S
p3886
sa(dp3887
g47
I2133511419
sg41
VWeaponDrop
p3888
sg189
I8
sg53
(lp3889
I2758383128
asg44
VPT6M14.9630188S
p3890
sg192
I1
sg193
VP0DT0H0M9.2500S
p3891
sg48
(dp3892
g50
VE6 bubu dubu
p3893
sg52
Nssa(dp3894
g47
I4096745987
sg41
VWeaponDrop
p3895
sg189
I30
sg53
(lp3896
I2758383128
asg44
VPT6M14.9630188S
p3897
sg192
I14
sg193
VP0DT0H0M45.3667S
p3898
sg48
(dp3899
g50
VE6 bubu dubu
p3900
sg52
Nssa(dp3901
g242
I4096745987
sg243
I00
sg244
I00
sg245
(dp3902
g50
VE6 Huke HCS
p3903
sg52
Nssg248
(lp3904
I2758383128
asg250
I00
sg251
I01
sg252
I1
sg253
I0
sg254
I1
sg255
(dp3905
Vy
F3.8442938299999998
sVx
F-3.6301567600000002
sVz
F3.25710583
ssg257
(dp3906
Vy
F9.9766969999999997
sVx
F5.0375730000000001
sVz
F3.3247327800000002
ssg259
I00
sg260
(dp3907
g50
VALG RyaNoob
p3908
sg52
Nssg264
(lp3909
sg266
(lp3910
(dp3911
g50
VE6 Shooter
p3912
sg52
Nsasg268
I01
sg44
VPT6M15.0770056S
p3913
sg41
VDeath
p3914
sg271
I1
sa(dp3915
g41
VMedal
p3916
sg48
(dp3917
g50
VE6 Huke HCS
p3918
sg52
Nssg290
I3261908037
sg44
VPT6M15.0780286S
p3919
sa(dp3920
g47
I2133511419
sg41
VWeaponDrop
p3921
sg189
I58
sg53
(lp3922
I2758383128
asg44
VPT6M15.0790285S
p3923
sg192
I20
sg193
VP0DT0H0M30.9333S
p3924
sg48
(dp3925
g50
VALG RyaNoob
p3926
sg52
Nssa(dp3927
g47
I4096745987
sg41
VWeaponDrop
p3928
sg189
I28
sg53
(lp3929
I2758383128
asg44
VPT6M15.0790285S
p3930
sg192
I13
sg193
VP0DT0H0M52.1000S
p3931
sg48
(dp3932
g50
VALG RyaNoob
p3933
sg52
Nssa(dp3934
g242
I4106030681
sg243
I00
sg244
I00
sg245
(dp3935
g50
VE6 Huke HCS
p3936
sg52
Nssg248
(lp3937
sg250
I00
sg251
I01
sg252
I1
sg253
I0
sg254
I1
sg255
(dp3938
Vy
F9.2055150000000001
sVx
F-0.50841689999999995
sVz
F4.3339662600000004
ssg257
(dp3939
Vy
F10.162562400000001
sVx
F1.66302788
sVz
F1.5927541300000001
ssg259
I00
sg260
(dp3940
g50
VALG Heinz HCS
p3941
sg52
Nssg264
(lp3942
sg266
(lp3943
(dp3944
g50
VE6 Shooter
p3945
sg52
Nsasg268
I00
sg44
VPT6M18.5591313S
p3946
sg41
VDeath
p3947
sg271
I1
sa(dp3948
g41
VMedal
p3949
sg48
(dp3950
g50
VE6 Huke HCS
p3951
sg52
Nssg290
I2078758684
sg44
VPT6M18.5611333S
p3952
sa(dp3953
g47
I313138863
sg41
VWeaponDrop
p3954
sg189
I18
sg53
(lp3955
I1095363701
asg44
VPT6M18.5621502S
p3956
sg192
I5
sg193
VP0DT0H0M5.5667S
p3957
sg48
(dp3958
g50
VALG Heinz HCS
p3959
sg52
Nssa(dp3960
g47
I4096745987
sg41
VWeaponDrop
p3961
sg189
I5
sg53
(lp3962
I2758383128
asg44
VPT6M18.5621502S
p3963
sg192
I1
sg193
VP0DT0H0M14.3500S
p3964
sg48
(dp3965
g50
VALG Heinz HCS
p3966
sg52
Nssa(dp3967
g47
I313138863
sg48
(dp3968
g50
VE6 Cratos HCS
p3969
sg52
Nssg53
(lp3970
I1095363701
asg41
VWeaponPickup
p3971
sg44
VPT6M20.5612012S
p3972
sa(dp3973
g47
I4096745987
sg48
(dp3974
g50
VE6 Cratos HCS
p3975
sg52
Nssg53
(lp3976
I2758383128
asg41
VWeaponPickup
p3977
sg44
VPT6M20.5612012S
p3978
sa(dp3979
g41
VPlayerSpawn
p3980
sg48
(dp3981
g50
VE6 Cratos HCS
p3982
sg52
Nssg44
VPT6M20.5612012S
p3983
sa(dp3984
g47
I313138863
sg48
(dp3985
g50
VE6 bubu dubu
p3986
sg52
Nssg53
(lp3987
I1095363701
asg41
VWeaponPickup
p3988
sg44
VPT6M22.9772801S
p3989
sa(dp3990
g47
I4096745987
sg48
(dp3991
g50
VE6 bubu dubu
p3992
sg52
Nssg53
(lp3993
I2758383128
asg41
VWeaponPickup
p3994
sg44
VPT6M22.9772801S
p3995
sa(dp3996
g41
VPlayerSpawn
p3997
sg48
(dp3998
g50
VE6 bubu dubu
p3999
sg52
Nssg44
VPT6M22.9772801S
p4000
sa(dp4001
g47
I313138863
sg48
(dp4002
g50
VALG RyaNoob
p4003
sg52
Nssg53
(lp4004
I1095363701
asg41
VWeaponPickup
p4005
sg44
VPT6M23.0942846S
p4006
sa(dp4007
g47
I4096745987
sg48
(dp4008
g50
VALG RyaNoob
p4009
sg52
Nssg53
(lp4010
I2758383128
asg41
VWeaponPickup
p4011
sg44
VPT6M23.0942846S
p4012
sa(dp4013
g41
VPlayerSpawn
p4014
sg48
(dp4015
g50
VALG RyaNoob
p4016
sg52
Nssg44
VPT6M23.0942846S
p4017
sa(dp4018
g242
I4096745987
sg243
I00
sg244
I00
sg245
(dp4019
g50
VALG ContrA HCS
p4020
sg52
Nssg248
(lp4021
I2758383128
asg250
I00
sg251
I01
sg252
I1
sg253
I0
sg254
I1
sg255
(dp4022
Vy
F-4.2213459999999996
sVx
F5.9604635200000002
sVz
F0.800039053
ssg257
(dp4023
Vy
F-5.4623403499999998
sVx
F9.2890840000000008
sVz
F1.386871
ssg259
I00
sg260
(dp4024
g50
VE6 Shooter
p4025
sg52
Nssg264
(lp4026
sg266
(lp4027
(dp4028
g50
VALGPredevonator
p4029
sg52
Nsasg268
I00
sg44
VPT6M24.543307S
p4030
sg41
VDeath
p4031
sg271
I1
sa(dp4032
g41
VImpulse
p4033
sg48
(dp4034
g50
VALG ContrA HCS
p4035
sg52
Nssg981
I2556889090
sg44
VPT6M24.543307S
p4036
sa(dp4037
g41
VMedal
p4038
sg48
(dp4039
g50
VALG ContrA HCS
p4040
sg52
Nssg290
I2838259753
sg44
VPT6M24.543307S
p4041
sa(dp4042
g47
I313138863
sg41
VWeaponDrop
p4043
sg189
I0
sg53
(lp4044
I1095363701
asg44
VPT6M24.5453302S
p4045
sg192
I0
sg193
VP0DT0H0M1.2333S
p4046
sg48
(dp4047
g50
VE6 Shooter
p4048
sg52
Nssa(dp4049
g47
I4096745987
sg41
VWeaponDrop
p4050
sg189
I14
sg53
(lp4051
I2758383128
asg44
VPT6M24.5453302S
p4052
sg192
I7
sg193
VP0DT0H0M12.7000S
p4053
sg48
(dp4054
g50
VE6 Shooter
p4055
sg52
Nssa(dp4056
g47
I313138863
sg41
VWeaponDrop
p4057
sg189
I0
sg53
(lp4058
I1095363701
asg44
VPT6M24.5583339S
p4059
sg192
I0
sg193
VP0DT0H0M1.0667S
p4060
sg48
(dp4061
g50
VE6 bubu dubu
p4062
sg52
Nssa(dp4063
g47
I723388907
sg48
(dp4064
g50
VE6 bubu dubu
p4065
sg52
Nssg53
(lp4066
I89283061
asg41
VWeaponPickup
p4067
sg44
VPT6M24.5593079S
p4068
sa(dp4069
g47
I313138863
sg41
VWeaponDrop
p4070
sg189
I0
sg53
(lp4071
I1095363701
asg44
VPT6M24.8923382S
p4072
sg192
I0
sg193
VP0DT0H0M1.2333S
p4073
sg48
(dp4074
g50
VALG RyaNoob
p4075
sg52
Nssa(dp4076
g47
I524558978
sg48
(dp4077
g50
VALG RyaNoob
p4078
sg52
Nssg53
(lp4079
I2758383128
asg41
VWeaponPickup
p4080
sg44
VPT6M24.8923382S
p4081
sa(dp4082
g47
I313138863
sg41
VWeaponDrop
p4083
sg189
I0
sg53
(lp4084
I1095363701
asg44
VPT6M25.7423805S
p4085
sg192
I0
sg193
VP0DT0H0M4.5167S
p4086
sg48
(dp4087
g50
VE6 Huke HCS
p4088
sg52
Nssa(dp4089
g47
I669296699
sg48
(dp4090
g50
VE6 Huke HCS
p4091
sg52
Nssg53
(lp4092
I2758383128
asg41
VWeaponPickupPad
p4093
sg44
VPT6M25.7423805S
p4094
sa(dp4095
g47
I669296699
sg48
(dp4096
g50
VE6 Huke HCS
p4097
sg52
Nssg53
(lp4098
I2758383128
asg41
VWeaponPickup
p4099
sg44
VPT6M25.7423805S
p4100
sa(dp4101
g47
I313138863
sg48
(dp4102
g50
VALG Heinz HCS
p4103
sg52
Nssg53
(lp4104
I1095363701
asg41
VWeaponPickup
p4105
sg44
VPT6M26.5774243S
p4106
sa(dp4107
g47
I4096745987
sg48
(dp4108
g50
VALG Heinz HCS
p4109
sg52
Nssg53
(lp4110
I2758383128
asg41
VWeaponPickup
p4111
sg44
VPT6M26.5774243S
p4112
sa(dp4113
g41
VPlayerSpawn
p4114
sg48
(dp4115
g50
VALG Heinz HCS
p4116
sg52
Nssg44
VPT6M26.5774243S
p4117
sa(dp4118
g47
I4096745987
sg41
VWeaponDrop
p4119
sg189
I0
sg53
(lp4120
I2758383128
asg44
VPT6M26.9423981S
p4121
sg192
I0
sg193
VP0DT0H0M2.3833S
p4122
sg48
(dp4123
g50
VE6 bubu dubu
p4124
sg52
Nssa(dp4125
g47
I424645655
sg48
(dp4126
g50
VE6 bubu dubu
p4127
sg52
Nssg53
(lp4128
I1327094800
asg41
VWeaponPickup
p4129
sg44
VPT6M26.9423981S
p4130
sa(dp4131
g47
I313138863
sg48
(dp4132
g50
VE6 Shooter
p4133
sg52
Nssg53
(lp4134
I1095363701
asg41
VWeaponPickup
p4135
sg44
VPT6M32.5606855S
p4136
sa(dp4137
g47
I4096745987
sg48
(dp4138
g50
VE6 Shooter
p4139
sg52
Nssg53
(lp4140
I2758383128
asg41
VWeaponPickup
p4141
sg44
VPT6M32.5606855S
p4142
sa(dp4143
g41
VPlayerSpawn
p4144
sg48
(dp4145
g50
VE6 Shooter
p4146
sg52
Nssg44
VPT6M32.5615662S
p4147
sa(dp4148
g242
I4106030681
sg243
I00
sg244
I00
sg245
(dp4149
g50
VALGPredevonator
p4150
sg52
Nssg248
(lp4151
sg250
I00
sg251
I00
sg252
I2
sg253
I0
sg254
I0
sg255
(dp4152
Vy
F-8.404954
sVx
F7.1467504499999999
sVz
F3.2011766399999999
ssg257
(dp4153
Vy
F9.3494270000000004
sVx
F12.289108300000001
sVz
F5.504264
ssg259
I00
sg260
(dp4154
g262
g263
ssg264
(lp4155
sg266
(lp4156
sg268
I00
sg44
VPT6M32.9595759S
p4157
sg41
VDeath
p4158
sg271
I1
sa(dp4159
g242
I4096745987
sg243
I00
sg244
I00
sg245
(dp4160
g50
VALG Heinz HCS
p4161
sg52
Nssg248
(lp4162
I2758383128
asg250
I00
sg251
I01
sg252
I1
sg253
I0
sg254
I1
sg255
(dp4163
Vy
F13.03304
sVx
F18.58736
sVz
F4.1472783099999999
ssg257
(dp4164
Vy
F9.6589310000000008
sVx
F9.0609950000000001
sVz
F3.1995623100000001
ssg259
I00
sg260
(dp4165
g50
VE6 Cratos HCS
p4166
sg52
Nssg264
(lp4167
sg266
(lp4168
(dp4169
g50
VALG RyaNoob
p4170
sg52
Nsa(dp4171
g50
VALGPredevonator
p4172
sg52
Nsasg268
I01
sg44
VPT6M35.3426528S
p4173
sg41
VDeath
p4174
sg271
I1
sa(dp4175
g41
VMedal
p4176
sg48
(dp4177
g50
VALG RyaNoob
p4178
sg52
Nssg290
I2366628262
sg44
VPT6M35.343654S
p4179
sa(dp4180
g41
VMedal
p4181
sg48
(dp4182
g50
VALG Heinz HCS
p4183
sg52
Nssg290
I3261908037
sg44
VPT6M35.3446778S
p4184
sa(dp4185
g47
I313138863
sg41
VWeaponDrop
p4186
sg189
I0
sg53
(lp4187
I1095363701
asg44
VPT6M35.3456771S
p4188
sg192
I0
sg193
VP0DT0H0M0.7667S
p4189
sg48
(dp4190
g50
VE6 Cratos HCS
p4191
sg52
Nssa(dp4192
g47
I4096745987
sg41
VWeaponDrop
p4193
sg189
I0
sg53
(lp4194
I2758383128
asg44
VPT6M35.3456771S
p4195
sg192
I0
sg193
VP0DT0H0M14.0167S
p4196
sg48
(dp4197
g50
VE6 Cratos HCS
p4198
sg52
Nssa(dp4199
g242
I424645655
sg243
I00
sg244
I00
sg245
(dp4200
g50
VE6 bubu dubu
p4201
sg52
Nssg248
(lp4202
I1327094800
asg250
I00
sg251
I01
sg252
I1
sg253
I0
sg254
I1
sg255
(dp4203
Vy
F0.28464263699999998
sVx
F0.306695
sVz
F-0.054832489999999998
ssg257
(dp4204
Vy
F0.194105953
sVx
F-7.0367135999999997
sVz
F1.5468175399999999
ssg259
I00
sg260
(dp4205
g50
VALG RyaNoob
p4206
sg52
Nssg264
(lp4207
sg266
(lp4208
sg268
I00
sg44
VPT6M37.9097349S
p4209
sg41
VDeath
p4210
sg271
I1
sa(dp4211
g47
I524558978
sg41
VWeaponDrop
p4212
sg189
I2
sg53
(lp4213
I2758383128
asg44
VPT6M37.9117595S
p4214
sg192
I1
sg193
VP0DT0H0M7.1333S
p4215
sg48
(dp4216
g50
VALG RyaNoob
p4217
sg52
Nssa(dp4218
g47
I524558978
sg41
VWeaponDrop
p4219
sg189
I0
sg53
(lp4220
I2758383128
asg44
VPT6M37.9117595S
p4221
sg192
I0
sg193
VP0DT0S
p4222
sg48
(dp4223
g50
VALG RyaNoob
p4224
sg52
Nssa(dp4225
g47
I4096745987
sg41
VWeaponDrop
p4226
sg189
I2
sg53
(lp4227
I2758383128
asg44
VPT6M37.9117595S
p4228
sg192
I1
sg193
VP0DT0H0M6.4500S
p4229
sg48
(dp4230
g50
VALG RyaNoob
p4231
sg52
Nssa(dp4232
g242
I4096745987
sg243
I00
sg244
I00
sg245
(dp4233
g50
VALGPredevonator
p4234
sg52
Nssg248
(lp4235
I2758383128
asg250
I00
sg251
I01
sg252
I1
sg253
I0
sg254
I1
sg255
(dp4236
Vy
F-0.47844702
sVx
F5.9653105699999998
sVz
F0.37928580000000001
ssg257
(dp4237
Vy
F-1.12551427
sVx
F-2.8478434099999999
sVz
F-0.0060837269999999997
ssg259
I00
sg260
(dp4238
g50
VE6 bubu dubu
p4239
sg52
Nssg264
(lp4240
sg266
(lp4241
sg268
I01
sg44
VPT6M39.2597769S
p4242
sg41
VDeath
p4243
sg271
I1
sa(dp4244
g41
VMedal
p4245
sg48
(dp4246
g50
VALGPredevonator
p4247
sg52
Nssg290
I3261908037
sg44
VPT6M39.2618065S
p4248
sa(dp4249
g47
I723388907
sg41
VWeaponDrop
p4250
sg189
I0
sg53
(lp4251
I89283061
asg44
VPT6M39.2627962S
p4252
sg192
I0
sg193
VP0DT0H0M0.5167S
p4253
sg48
(dp4254
g50
VE6 bubu dubu
p4255
sg52
Nssa(dp4256
g47
I424645655
sg41
VWeaponDrop
p4257
sg189
I21
sg53
(lp4258
I1327094800
asg44
VPT6M39.2627962S
p4259
sg192
I12
sg193
VP0DT0H0M12.3167S
p4260
sg48
(dp4261
g50
VE6 bubu dubu
p4262
sg52
Nssa(dp4263
g47
I313138863
sg41
VWeaponDrop
p4264
sg189
I0
sg53
(lp4265
I1095363701
asg44
VPT6M41.8418966S
p4266
sg192
I0
sg193
VP0DT0H0M1.7500S
p4267
sg48
(dp4268
g50
VE6 Shooter
p4269
sg52
Nssa(dp4270
g47
I524558978
sg48
(dp4271
g50
VE6 Shooter
p4272
sg52
Nssg53
(lp4273
I2758383128
asg41
VWeaponPickup
p4274
sg44
VPT6M41.8418966S
p4275
sa(dp4276
g47
I313138863
sg48
(dp4277
g50
VE6 Cratos HCS
p4278
sg52
Nssg53
(lp4279
I1095363701
asg41
VWeaponPickup
p4280
sg44
VPT6M43.3599097S
p4281
sa(dp4282
g47
I4096745987
sg48
(dp4283
g50
VE6 Cratos HCS
p4284
sg52
Nssg53
(lp4285
I2758383128
asg41
VWeaponPickup
p4286
sg44
VPT6M43.3599097S
p4287
sa(dp4288
g41
VPlayerSpawn
p4289
sg48
(dp4290
g50
VE6 Cratos HCS
p4291
sg52
Nssg44
VPT6M43.3599097S
p4292
sa(dp4293
g242
I4096745987
sg243
I00
sg244
I00
sg245
(dp4294
g50
VALG ContrA HCS
p4295
sg52
Nssg248
(lp4296
I2758383128
asg250
I00
sg251
I01
sg252
I1
sg253
I0
sg254
I1
sg255
(dp4297
Vy
F8.1012419999999992
sVx
F6.8684096300000004
sVz
F3.1968073800000001
ssg257
(dp4298
Vy
F7.74275351
sVx
F-4.1441555000000001
sVz
F2.5771775200000002
ssg259
I00
sg260
(dp4299
g50
VE6 Huke HCS
p4300
sg52
Nssg264
(lp4301
sg266
(lp4302
(dp4303
g50
VALG Heinz HCS
p4304
sg52
Nsasg268
I01
sg44
VPT6M43.7259222S
p4305
sg41
VDeath
p4306
sg271
I1
sa(dp4307
g41
VMedal
p4308
sg48
(dp4309
g50
VALG ContrA HCS
p4310
sg52
Nssg290
I3261908037
sg44
VPT6M43.727957S
p4311
sa(dp4312
g47
I669296699
sg41
VWeaponDrop
p4313
sg189
I3
sg53
(lp4314
I2758383128
asg44
VPT6M43.7289447S
p4315
sg192
I0
sg193
VP0DT0H0M17.9833S
p4316
sg48
(dp4317
g50
VE6 Huke HCS
p4318
sg52
Nssa(dp4319
g47
I4096745987
sg41
VWeaponDrop
p4320
sg189
I6
sg53
(lp4321
I2758383128
asg44
VPT6M43.7289447S
p4322
sg192
I5
sg193
VP0DT0H0M17.5000S
p4323
sg48
(dp4324
g50
VE6 Huke HCS
p4325
sg52
Nssa(dp4326
g47
I313138863
sg48
(dp4327
g50
VALG RyaNoob
p4328
sg52
Nssg53
(lp4329
I1095363701
asg41
VWeaponPickup
p4330
sg44
VPT6M45.9270193S
p4331
sa(dp4332
g47
I4096745987
sg48
(dp4333
g50
VALG RyaNoob
p4334
sg52
Nssg53
(lp4335
I2758383128
asg41
VWeaponPickup
p4336
sg44
VPT6M45.9270193S
p4337
sa(dp4338
g41
VPlayerSpawn
p4339
sg48
(dp4340
g50
VALG RyaNoob
p4341
sg52
Nssg44
VPT6M45.9270193S
p4342
sa(dp4343
g47
I313138863
sg48
(dp4344
g50
VE6 bubu dubu
p4345
sg52
Nssg53
(lp4346
I1095363701
asg41
VWeaponPickup
p4347
sg44
VPT6M47.2770583S
p4348
sa(dp4349
g47
I4096745987
sg48
(dp4350
g50
VE6 bubu dubu
p4351
sg52
Nssg53
(lp4352
I2758383128
asg41
VWeaponPickup
p4353
sg44
VPT6M47.2770583S
p4354
sa(dp4355
g41
VPlayerSpawn
p4356
sg48
(dp4357
g50
VE6 bubu dubu
p4358
sg52
Nssg44
VPT6M47.2770583S
p4359
sa(dp4360
g47
I2492868984
sg48
(dp4361
g50
VALG ContrA HCS
p4362
sg52
Nssg53
(lp4363
I2758383128
asg41
VWeaponPickup
p4364
sg44
VPT6M47.5760433S
p4365
sa(dp4366
g47
I2492868984
sg41
VWeaponDrop
p4367
sg189
I0
sg53
(lp4368
I2758383128
asg44
VPT6M48.7140803S
p4369
sg192
I0
sg193
VP0DT0H0M0.5500S
p4370
sg48
(dp4371
g50
VALG ContrA HCS
p4372
sg52
Nssa(dp4373
g242
I4096745987
sg243
I00
sg244
I00
sg245
(dp4374
g50
VALG RyaNoob
p4375
sg52
Nssg248
(lp4376
I2758383128
asg250
I00
sg251
I01
sg252
I1
sg253
I0
sg254
I1
sg255
(dp4377
Vy
F-3.1024706399999999
sVx
F9.7475269999999998
sVz
F3.2220246800000001
ssg257
(dp4378
Vy
F9.2587290000000007
sVx
F-6.9782349999999997
sVz
F3.2844329999999999
ssg259
I00
sg260
(dp4379
g50
VE6 Cratos HCS
p4380
sg52
Nssg264
(lp4381
sg266
(lp4382
(dp4383
g50
VALG ContrA HCS
p4384
sg52
Nsasg268
I01
sg44
VPT6M49.8261367S
p4385
sg41
VDeath
p4386
sg271
I1
sa(dp4387
g41
VMedal
p4388
sg48
(dp4389
g50
VALG RyaNoob
p4390
sg52
Nssg290
I3261908037
sg44
VPT6M49.8281354S
p4391
sa(dp4392
g47
I313138863
sg41
VWeaponDrop
p4393
sg189
I0
sg53
(lp4394
I1095363701
asg44
VPT6M49.8281354S
p4395
sg192
I0
sg193
VP0DT0H0M0.7667S
p4396
sg48
(dp4397
g50
VE6 Cratos HCS
p4398
sg52
Nssa(dp4399
g47
I4096745987
sg41
VWeaponDrop
p4400
sg189
I5
sg53
(lp4401
I2758383128
asg44
VPT6M49.8281354S
p4402
sg192
I4
sg193
VP0DT0H0M5.7000S
p4403
sg48
(dp4404
g50
VE6 Cratos HCS
p4405
sg52
Nssa(dp4406
g47
I313138863
sg41
VWeaponDrop
p4407
sg189
I0
sg53
(lp4408
I1095363701
asg44
VPT6M50.0921427S
p4409
sg192
I0
sg193
VP0DT0H0M1.5833S
p4410
sg48
(dp4411
g50
VALGPredevonator
p4412
sg52
Nssa(dp4413
g47
I669296699
sg48
(dp4414
g50
VALGPredevonator
p4415
sg52
Nssg53
(lp4416
I2758383128
asg41
VWeaponPickup
p4417
sg44
VPT6M50.0921427S
p4418
sa(dp4419
g47
I4096745987
sg41
VWeaponDrop
p4420
sg189
I33
sg53
(lp4421
I2758383128
asg44
VPT6M51.1081918S
p4422
sg192
I14
sg193
VP0DT0H1M5.4500S
p4423
sg48
(dp4424
g50
VALG ContrA HCS
p4425
sg52
Nssa(dp4426
g47
I2133511419
sg48
(dp4427
g50
VALG ContrA HCS
p4428
sg52
Nssg53
(lp4429
I2758383128
asg41
VWeaponPickup
p4430
sg44
VPT6M51.1091583S
p4431
sa(dp4432
g47
I313138863
sg48
(dp4433
g50
VE6 Huke HCS
p4434
sg52
Nssg53
(lp4435
I1095363701
asg41
VWeaponPickup
p4436
sg44
VPT6M51.7431782S
p4437
sa(dp4438
g47
I4096745987
sg48
(dp4439
g50
VE6 Huke HCS
p4440
sg52
Nssg53
(lp4441
I2758383128
asg41
VWeaponPickup
p4442
sg44
VPT6M51.7442021S
p4443
sa(dp4444
g41
VPlayerSpawn
p4445
sg48
(dp4446
g50
VE6 Huke HCS
p4447
sg52
Nssg44
VPT6M51.7442021S
p4448
sa(dp4449
g47
I313138863
sg41
VWeaponDrop
p4450
sg189
I14
sg53
(lp4451
I1095363701
asg44
VPT6M51.7922034S
p4452
sg192
I9
sg193
VP0DT0H0M3.8500S
p4453
sg48
(dp4454
g50
VALG ContrA HCS
p4455
sg52
Nssa(dp4456
g47
I4096745987
sg48
(dp4457
g50
VALG ContrA HCS
p4458
sg52
Nssg53
(lp4459
I2758383128
asg41
VWeaponPickup
p4460
sg44
VPT6M51.7922034S
p4461
sa(dp4462
g47
I313138863
sg41
VWeaponDrop
p4463
sg189
I0
sg53
(lp4464
I1095363701
asg44
VPT6M52.3582178S
p4465
sg192
I0
sg193
VP0DT0H0M4.4833S
p4466
sg48
(dp4467
g50
VE6 bubu dubu
p4468
sg52
Nssa(dp4469
g47
I723388907
sg48
(dp4470
g50
VE6 bubu dubu
p4471
sg52
Nssg53
(lp4472
I89283061
asg41
VWeaponPickup
p4473
sg44
VPT6M52.3592024S
p4474
sa(dp4475
g47
I4096745987
sg41
VWeaponDrop
p4476
sg189
I5
sg53
(lp4477
I2758383128
asg44
VPT6M52.5252215S
p4478
sg192
I4
sg193
VP0DT0H0M5.7333S
p4479
sg48
(dp4480
g50
VALG RyaNoob
p4481
sg52
Nssa(dp4482
g47
I424645655
sg48
(dp4483
g50
VALG RyaNoob
p4484
sg52
Nssg53
(lp4485
I1327094800
asg41
VWeaponPickup
p4486
sg44
VPT6M52.5252215S
p4487
sa(dp4488
g47
I313138863
sg41
VWeaponDrop
p4489
sg189
I0
sg53
(lp4490
I1095363701
asg44
VPT6M54.6422705S
p4491
sg192
I0
sg193
VP0DT0H0M2.9333S
p4492
sg48
(dp4493
g50
VALG Heinz HCS
p4494
sg52
Nssa(dp4495
g47
I1579758889
sg48
(dp4496
g50
VALG Heinz HCS
p4497
sg52
Nssg53
(lp4498
I2758383128
asg41
VWeaponPickup
p4499
sg44
VPT6M54.6422705S
p4500
sa(dp4501
g47
I4096745987
sg41
VWeaponDrop
p4502
sg189
I0
sg53
(lp4503
I2758383128
asg44
VPT6M57.7413942S
p4504
sg192
I0
sg193
VP0DT0H0M4.0667S
p4505
sg48
(dp4506
g50
VE6 Huke HCS
p4507
sg52
Nssa(dp4508
g47
I424645655
sg48
(dp4509
g50
VE6 Huke HCS
p4510
sg52
Nssg53
(lp4511
I1327094800
asg41
VWeaponPickup
p4512
sg44
VPT6M57.7423697S
p4513
sa(dp4514
g47
I313138863
sg48
(dp4515
g50
VE6 Cratos HCS
p4516
sg52
Nssg53
(lp4517
I1095363701
asg41
VWeaponPickup
p4518
sg44
VPT6M57.8433921S
p4519
sa(dp4520
g47
I4096745987
sg48
(dp4521
g50
VE6 Cratos HCS
p4522
sg52
Nssg53
(lp4523
I2758383128
asg41
VWeaponPickup
p4524
sg44
VPT6M57.8433921S
p4525
sa(dp4526
g41
VPlayerSpawn
p4527
sg48
(dp4528
g50
VE6 Cratos HCS
p4529
sg52
Nssg44
VPT6M57.8433921S
p4530
sa(dp4531
g47
I313138863
sg41
VWeaponDrop
p4532
sg189
I0
sg53
(lp4533
I1095363701
asg44
VPT7M8.5587361S
p4534
sg192
I0
sg193
VP0DT0H0M3.0167S
p4535
sg48
(dp4536
g50
VE6 Cratos HCS
p4537
sg52
Nssa(dp4538
g47
I723388907
sg48
(dp4539
g50
VE6 Cratos HCS
p4540
sg52
Nssg53
(lp4541
I89283061
asg41
VWeaponPickup
p4542
sg44
VPT7M8.5587361S
p4543
sa(dp4544
g242
I2133511419
sg243
I00
sg244
I00
sg245
(dp4545
g50
VALG ContrA HCS
p4546
sg52
Nssg248
(lp4547
I2758383128
asg250
I00
sg251
I01
sg252
I1
sg253
I0
sg254
I1
sg255
(dp4548
Vy
F8.3712409999999995
sVx
F-13.1653252
sVz
F2.2942495300000001
ssg257
(dp4549
Vy
F6.42276764
sVx
F-10.3214121
sVz
F2.3479290000000002
ssg259
I00
sg260
(dp4550
g50
VE6 Cratos HCS
p4551
sg52
Nssg264
(lp4552
sg266
(lp4553
sg268
I00
sg44
VPT7M17.2759946S
p4554
sg41
VDeath
p4555
sg271
I1
sa(dp4556
g47
I723388907
sg41
VWeaponDrop
p4557
sg189
I30
sg53
(lp4558
I89283061
asg44
VPT7M17.2790126S
p4559
sg192
I9
sg193
VP0DT0H0M6.8000S
p4560
sg48
(dp4561
g50
VE6 Cratos HCS
p4562
sg52
Nssa(dp4563
g47
I4096745987
sg41
VWeaponDrop
p4564
sg189
I0
sg53
(lp4565
I2758383128
asg44
VPT7M17.2790126S
p4566
sg192
I0
sg193
VP0DT0H0M9.6000S
p4567
sg48
(dp4568
g50
VE6 Cratos HCS
p4569
sg52
Nssa(dp4570
g242
I4096745987
sg243
I00
sg244
I00
sg245
(dp4571
g50
VALGPredevonator
p4572
sg52
Nssg248
(lp4573
I2758383128
asg250
I00
sg251
I01
sg252
I1
sg253
I0
sg254
I1
sg255
(dp4574
Vy
F12.225293199999999
sVx
F-5.9025683400000002
sVz
F1.60641634
ssg257
(dp4575
Vy
F11.635779400000001
sVx
F-11.9254847
sVz
F2.19371581
ssg259
I00
sg260
(dp4576
g50
VE6 Shooter
p4577
sg52
Nssg264
(lp4578
sg266
(lp4579
(dp4580
g50
VALG ContrA HCS
p4581
sg52
Nsasg268
I00
sg44
VPT7M19.2090566S
p4582
sg41
VDeath
p4583
sg271
I1
sa(dp4584
g47
I524558978
sg41
VWeaponDrop
p4585
sg189
I2
sg53
(lp4586
I2758383128
asg44
VPT7M19.2110761S
p4587
sg192
I0
sg193
VP0DT0H0M17.1167S
p4588
sg48
(dp4589
g50
VE6 Shooter
p4590
sg52
Nssa(dp4591
g47
I4096745987
sg41
VWeaponDrop
p4592
sg189
I13
sg53
(lp4593
I2758383128
asg44
VPT7M19.2110761S
p4594
sg192
I3
sg193
VP0DT0H0M27.7667S
p4595
sg48
(dp4596
g50
VE6 Shooter
p4597
sg52
Nssa(dp4598
g242
I723388907
sg243
I01
sg244
I00
sg245
(dp4599
g50
VE6 bubu dubu
p4600
sg52
Nssg248
(lp4601
I89283061
asg250
I00
sg251
I00
sg252
I1
sg253
I0
sg254
I1
sg255
(dp4602
Vy
F-10.1925068
sVx
F0.48355957900000002
sVz
F3.1944477600000001
ssg257
(dp4603
Vy
F-9.8190069999999992
sVx
F0.55339830000000001
sVz
F3.201476
ssg259
I00
sg260
(dp4604
g50
VALG RyaNoob
p4605
sg52
Nssg264
(lp4606
sg266
(lp4607
sg268
I00
sg44
VPT7M19.343061S
p4608
sg41
VDeath
p4609
sg271
I1
sa(dp4610
g41
VImpulse
p4611
sg48
(dp4612
g50
VE6 bubu dubu
p4613
sg52
Nssg981
I2556889090
sg44
VPT7M19.343061S
p4614
sa(dp4615
g41
VMedal
p4616
sg48
(dp4617
g50
VE6 bubu dubu
p4618
sg52
Nssg290
I2838259753
sg44
VPT7M19.343061S
p4619
sa(dp4620
g41
VMedal
p4621
sg48
(dp4622
g50
VE6 Huke HCS
p4623
sg52
Nssg290
I824733727
sg44
VPT7M19.343061S
p4624
sa(dp4625
g41
VMedal
p4626
sg48
(dp4627
g50
VE6 bubu dubu
p4628
sg52
Nssg290
I3270120991
sg44
VPT7M19.3441623S
p4629
sa(dp4630
g47
I424645655
sg41
VWeaponDrop
p4631
sg189
I9
sg53
(lp4632
I1327094800
asg44
VPT7M19.3441623S
p4633
sg192
I9
sg193
VP0DT0H0M26.8000S
p4634
sg48
(dp4635
g50
VALG RyaNoob
p4636
sg52
Nssa(dp4637
g47
I313138863
sg41
VWeaponDrop
p4638
sg189
I0
sg53
(lp4639
I1095363701
asg44
VPT7M19.3450844S
p4640
sg192
I0
sg193
VP0DT0H0M0.8667S
p4641
sg48
(dp4642
g50
VALG RyaNoob
p4643
sg52
Nssa(dp4644
g47
I4096745987
sg41
VWeaponDrop
p4645
sg189
I0
sg53
(lp4646
I2758383128
asg44
VPT7M20.6081037S
p4647
sg192
I0
sg193
VP0DT0H0M1.1500S
p4648
sg48
(dp4649
g50
VE6 bubu dubu
p4650
sg52
Nssa(dp4651
g47
I424645655
sg48
(dp4652
g50
VE6 bubu dubu
p4653
sg52
Nssg53
(lp4654
I1327094800
asg41
VWeaponPickup
p4655
sg44
VPT7M20.6091026S
p4656
sa(dp4657
g47
I313138863
sg48
(dp4658
g50
VE6 Cratos HCS
p4659
sg52
Nssg53
(lp4660
I1095363701
asg41
VWeaponPickup
p4661
sg44
VPT7M25.2932743S
p4662
sa(dp4663
g47
I4096745987
sg48
(dp4664
g50
VE6 Cratos HCS
p4665
sg52
Nssg53
(lp4666
I2758383128
asg41
VWeaponPickup
p4667
sg44
VPT7M25.2932743S
p4668
sa(dp4669
g41
VPlayerSpawn
p4670
sg48
(dp4671
g50
VE6 Cratos HCS
p4672
sg52
Nssg44
VPT7M25.2932743S
p4673
sa(dp4674
g47
I313138863
sg48
(dp4675
g50
VE6 Shooter
p4676
sg52
Nssg53
(lp4677
I1095363701
asg41
VWeaponPickup
p4678
sg44
VPT7M27.2263135S
p4679
sa(dp4680
g47
I4096745987
sg48
(dp4681
g50
VE6 Shooter
p4682
sg52
Nssg53
(lp4683
I2758383128
asg41
VWeaponPickup
p4684
sg44
VPT7M27.2263135S
p4685
sa(dp4686
g41
VPlayerSpawn
p4687
sg48
(dp4688
g50
VE6 Shooter
p4689
sg52
Nssg44
VPT7M27.2273389S
p4690
sa(dp4691
g47
I313138863
sg48
(dp4692
g50
VALG RyaNoob
p4693
sg52
Nssg53
(lp4694
I1095363701
asg41
VWeaponPickup
p4695
sg44
VPT7M27.3603554S
p4696
sa(dp4697
g47
I4096745987
sg48
(dp4698
g50
VALG RyaNoob
p4699
sg52
Nssg53
(lp4700
I2758383128
asg41
VWeaponPickup
p4701
sg44
VPT7M27.3603554S
p4702
sa(dp4703
g41
VPlayerSpawn
p4704
sg48
(dp4705
g50
VALG RyaNoob
p4706
sg52
Nssg44
VPT7M27.3603554S
p4707
sa(dp4708
g242
I4106030681
sg243
I00
sg244
I00
sg245
(dp4709
g50
VE6 Cratos HCS
p4710
sg52
Nssg248
(lp4711
sg250
I00
sg251
I00
sg252
I2
sg253
I0
sg254
I0
sg255
(dp4712
Vy
F-2.9765863399999999
sVx
F15.2507544
sVz
F1.67398
ssg257
(dp4713
Vy
F-4.2829829999999998
sVx
F21.142612499999998
sVz
F1.2081301200000001
ssg259
I00
sg260
(dp4714
g262
g263
ssg264
(lp4715
sg266
(lp4716
sg268
I00
sg44
VPT7M36.8588153S
p4717
sg41
VDeath
p4718
sg271
I1
sa(dp4719
g242
I669296699
sg243
I00
sg244
I00
sg245
(dp4720
g50
VALGPredevonator
p4721
sg52
Nssg248
(lp4722
I2758383128
asg250
I00
sg251
I01
sg252
I1
sg253
I0
sg254
I1
sg255
(dp4723
Vy
F8.9086660000000002
sVx
F14.286240599999999
sVz
F3.9945919999999999
ssg257
(dp4724
Vy
F3.0796861600000001
sVx
F18.9557514
sVz
F0.54213845699999996
ssg259
I00
sg260
(dp4725
g50
VE6 Cratos HCS
p4726
sg52
Nssg264
(lp4727
sg266
(lp4728
(dp4729
g50
VALG RyaNoob
p4730
sg52
Nsa(dp4731
g50
VALG Heinz HCS
p4732
sg52
Nsasg268
I01
sg44
VPT7M39.3597023S
p4733
sg41
VDeath
p4734
sg271
I1
sa(dp4735
g41
VImpulse
p4736
sg48
(dp4737
g50
VALGPredevonator
p4738
sg52
Nssg981
I2556889090
sg44
VPT7M39.3597023S
p4739
sa(dp4740
g41
VMedal
p4741
sg48
(dp4742
g50
VALGPredevonator
p4743
sg52
Nssg290
I2838259753
sg44
VPT7M39.3597023S
p4744
sa(dp4745
g41
VMedal
p4746
sg48
(dp4747
g50
VALGPredevonator
p4748
sg52
Nssg290
I848240062
sg44
VPT7M39.3607037S
p4749
sa(dp4750
g47
I313138863
sg41
VWeaponDrop
p4751
sg189
I0
sg53
(lp4752
I1095363701
asg44
VPT7M39.3617213S
p4753
sg192
I0
sg193
VP0DT0H0M1.1500S
p4754
sg48
(dp4755
g50
VE6 Cratos HCS
p4756
sg52
Nssa(dp4757
g47
I4096745987
sg41
VWeaponDrop
p4758
sg189
I5
sg53
(lp4759
I2758383128
asg44
VPT7M39.3617213S
p4760
sg192
I4
sg193
VP0DT0H0M12.9167S
p4761
sg48
(dp4762
g50
VE6 Cratos HCS
p4763
sg52
Nssa(dp4764
g47
I4096745987
sg41
VWeaponDrop
p4765
sg189
I1
sg53
(lp4766
I2758383128
asg44
VPT7M44.3248856S
p4767
sg192
I0
sg193
VP0DT0H0M16.5833S
p4768
sg48
(dp4769
g50
VE6 Shooter
p4770
sg52
Nssa(dp4771
g47
I424645655
sg48
(dp4772
g50
VE6 Shooter
p4773
sg52
Nssg53
(lp4774
I1327094800
asg41
VWeaponPickup
p4775
sg44
VPT7M44.3248856S
p4776
sa(dp4777
g47
I313138863
sg48
(dp4778
g50
VE6 Cratos HCS
p4779
sg52
Nssg53
(lp4780
I1095363701
asg41
VWeaponPickup
p4781
sg44
VPT7M47.3759584S
p4782
sa(dp4783
g47
I4096745987
sg48
(dp4784
g50
VE6 Cratos HCS
p4785
sg52
Nssg53
(lp4786
I2758383128
asg41
VWeaponPickup
p4787
sg44
VPT7M47.3769777S
p4788
sa(dp4789
g41
VPlayerSpawn
p4790
sg48
(dp4791
g50
VE6 Cratos HCS
p4792
sg52
Nssg44
VPT7M47.3769777S
p4793
sa(dp4794
g47
I4096745987
sg41
VWeaponDrop
p4795
sg189
I2
sg53
(lp4796
I2758383128
asg44
VPT7M52.6411457S
p4797
sg192
I0
sg193
VP0DT0H0M24.5833S
p4798
sg48
(dp4799
g50
VALG RyaNoob
p4800
sg52
Nssa(dp4801
g47
I424645655
sg48
(dp4802
g50
VALG RyaNoob
p4803
sg52
Nssg53
(lp4804
I1327094800
asg41
VWeaponPickup
p4805
sg44
VPT7M52.6421517S
p4806
sa(dp4807
g47
I313138863
sg41
VWeaponDrop
p4808
sg189
I0
sg53
(lp4809
I1095363701
asg44
VPT7M53.1081761S
p4810
sg192
I0
sg193
VP0DT0H0M3.4833S
p4811
sg48
(dp4812
g50
VE6 Huke HCS
p4813
sg52
Nssa(dp4814
g47
I723388907
sg48
(dp4815
g50
VE6 Huke HCS
p4816
sg52
Nssg53
(lp4817
I89283061
asg41
VWeaponPickup
p4818
sg44
VPT7M53.1081761S
p4819
sa(dp4820
g47
I313138863
sg41
VWeaponDrop
p4821
sg189
I0
sg53
(lp4822
I1095363701
asg44
VPT7M58.0083334S
p4823
sg192
I0
sg193
VP0DT0H0M2.7667S
p4824
sg48
(dp4825
g50
VE6 Cratos HCS
p4826
sg52
Nssa(dp4827
g47
I723388907
sg48
(dp4828
g50
VE6 Cratos HCS
p4829
sg52
Nssg53
(lp4830
I89283061
asg41
VWeaponPickup
p4831
sg44
VPT7M58.0083334S
p4832
sa(dp4833
g242
I2133511419
sg243
I00
sg244
I01
sg245
(dp4834
g50
VALG ContrA HCS
p4835
sg52
Nssg248
(lp4836
I2758383128
asg250
I00
sg251
I00
sg252
I1
sg253
I0
sg254
I1
sg255
(dp4837
Vy
F-3.9985175100000001
sVx
F0.94345449999999997
sVz
F5.3602559999999997
ssg257
(dp4838
Vy
F-4.3237943599999999
sVx
F0.81325769999999997
sVz
F5.2003199999999996
ssg259
I00
sg260
(dp4839
g50
VE6 Cratos HCS
p4840
sg52
Nssg264
(lp4841
sg266
(lp4842
sg268
I00
sg44
VPT8M2.9924579S
p4843
sg41
VDeath
p4844
sg271
I1
sa(dp4845
g41
VMedal
p4846
sg48
(dp4847
g50
VALG ContrA HCS
p4848
sg52
Nssg290
I2287626681
sg44
VPT8M2.9944595S
p4849
sa(dp4850
g41
VMedal
p4851
sg48
(dp4852
g50
VALG ContrA HCS
p4853
sg52
Nssg290
I2430242797
sg44
VPT8M2.9944595S
p4854
sa(dp4855
g47
I4096745987
sg41
VWeaponDrop
p4856
sg189
I4
sg53
(lp4857
I2758383128
asg44
VPT8M2.9944595S
p4858
sg192
I2
sg193
VP0DT0H0M12.0167S
p4859
sg48
(dp4860
g50
VE6 Cratos HCS
p4861
sg52
Nssa(dp4862
g47
I723388907
sg41
VWeaponDrop
p4863
sg189
I0
sg53
(lp4864
I89283061
asg44
VPT8M2.9954866S
p4865
sg192
I0
sg193
VP0DT0H0M0.8333S
p4866
sg48
(dp4867
g50
VE6 Cratos HCS
p4868
sg52
Nssa(dp4869
g242
I424645655
sg243
I00
sg244
I00
sg245
(dp4870
g50
VE6 bubu dubu
p4871
sg52
Nssg248
(lp4872
I1327094800
asg250
I00
sg251
I01
sg252
I1
sg253
I0
sg254
I1
sg255
(dp4873
Vy
F-2.8016352699999998
sVx
F-7.7331009999999996
sVz
F3.2555966399999998
ssg257
(dp4874
Vy
F-5.4112609999999997
sVx
F-0.89056670000000004
sVz
F4.0334034000000001
ssg259
I00
sg260
(dp4875
g50
VALG ContrA HCS
p4876
sg52
Nssg264
(lp4877
sg266
(lp4878
(dp4879
g50
VE6 Cratos HCS
p4880
sg52
Nsasg268
I01
sg44
VPT8M5.6755585S
p4881
sg41
VDeath
p4882
sg271
I1
sa(dp4883
g41
VMedal
p4884
sg48
(dp4885
g50
VE6 bubu dubu
p4886
sg52
Nssg290
I3261908037
sg44
VPT8M5.677564S
p4887
sa(dp4888
g47
I4096745987
sg41
VWeaponDrop
p4889
sg189
I12
sg53
(lp4890
I2758383128
asg44
VPT8M5.677564S
p4891
sg192
I6
sg193
VP0DT0H0M54.6167S
p4892
sg48
(dp4893
g50
VALG ContrA HCS
p4894
sg52
Nssa(dp4895
g47
I2133511419
sg41
VWeaponDrop
p4896
sg189
I45
sg53
(lp4897
I2758383128
asg44
VPT8M5.677564S
p4898
sg192
I20
sg193
VP0DT0H0M19.8000S
p4899
sg48
(dp4900
g50
VALG ContrA HCS
p4901
sg52
Nssa(dp4902
g47
I2133511419
sg41
VWeaponDrop
p4903
sg189
I0
sg53
(lp4904
I2758383128
asg44
VPT8M5.677564S
p4905
sg192
I0
sg193
VP0DT0S
p4906
sg48
(dp4907
g50
VALG ContrA HCS
p4908
sg52
Nssa(dp4909
g242
I424645655
sg243
I00
sg244
I00
sg245
(dp4910
g50
VE6 Shooter
p4911
sg52
Nssg248
(lp4912
I1327094800
asg250
I00
sg251
I01
sg252
I1
sg253
I0
sg254
I1
sg255
(dp4913
Vy
F12.7657042
sVx
F-4.5242800000000001
sVz
F1.6071549999999999
ssg257
(dp4914
Vy
F10.650722500000001
sVx
F2.7001110000000001
sVz
F2.4556195700000001
ssg259
I00
sg260
(dp4915
g50
VALG Heinz HCS
p4916
sg52
Nssg264
(lp4917
sg266
(lp4918
(dp4919
g50
VE6 bubu dubu
p4920
sg52
Nsa(dp4921
g50
VE6 Huke HCS
p4922
sg52
Nsasg268
I01
sg44
VPT8M5.9425514S
p4923
sg41
VDeath
p4924
sg271
I1
sa(dp4925
g41
VImpulse
p4926
sg48
(dp4927
g50
VE6 Shooter
p4928
sg52
Nssg981
I2556889090
sg44
VPT8M5.9425514S
p4929
sa(dp4930
g41
VMedal
p4931
sg48
(dp4932
g50
VE6 Shooter
p4933
sg52
Nssg290
I2838259753
sg44
VPT8M5.9425514S
p4934
sa(dp4935
g41
VMedal
p4936
sg48
(dp4937
g50
VE6 Shooter
p4938
sg52
Nssg290
I3261908037
sg44
VPT8M5.9435808S
p4939
sa(dp4940
g47
I1579758889
sg41
VWeaponDrop
p4941
sg189
I2
sg53
(lp4942
I2758383128
asg44
VPT8M5.9445697S
p4943
sg192
I0
sg193
VP0DT0H0M7.7000S
p4944
sg48
(dp4945
g50
VALG Heinz HCS
p4946
sg52
Nssa(dp4947
g47
I4096745987
sg41
VWeaponDrop
p4948
sg189
I17
sg53
(lp4949
I2758383128
asg44
VPT8M5.9445697S
p4950
sg192
I8
sg193
VP0DT0H1M28.7167S
p4951
sg48
(dp4952
g50
VALG Heinz HCS
p4953
sg52
Nssa(dp4954
g47
I313138863
sg48
(dp4955
g50
VE6 Cratos HCS
p4956
sg52
Nssg53
(lp4957
I1095363701
asg41
VWeaponPickup
p4958
sg44
VPT8M11.0097375S
p4959
sa(dp4960
g47
I4096745987
sg48
(dp4961
g50
VE6 Cratos HCS
p4962
sg52
Nssg53
(lp4963
I2758383128
asg41
VWeaponPickup
p4964
sg44
VPT8M11.0097375S
p4965
sa(dp4966
g41
VPlayerSpawn
p4967
sg48
(dp4968
g50
VE6 Cratos HCS
p4969
sg52
Nssg44
VPT8M11.0097375S
p4970
sa(dp4971
g47
I313138863
sg48
(dp4972
g50
VALG ContrA HCS
p4973
sg52
Nssg53
(lp4974
I1095363701
asg41
VWeaponPickup
p4975
sg44
VPT8M13.6928244S
p4976
sa(dp4977
g47
I4096745987
sg48
(dp4978
g50
VALG ContrA HCS
p4979
sg52
Nssg53
(lp4980
I2758383128
asg41
VWeaponPickup
p4981
sg44
VPT8M13.6928244S
p4982
sa(dp4983
g41
VPlayerSpawn
p4984
sg48
(dp4985
g50
VALG ContrA HCS
p4986
sg52
Nssg44
VPT8M13.6928244S
p4987
sa(dp4988
g47
I313138863
sg48
(dp4989
g50
VALG Heinz HCS
p4990
sg52
Nssg53
(lp4991
I1095363701
asg41
VWeaponPickup
p4992
sg44
VPT8M13.9598345S
p4993
sa(dp4994
g47
I4096745987
sg48
(dp4995
g50
VALG Heinz HCS
p4996
sg52
Nssg53
(lp4997
I2758383128
asg41
VWeaponPickup
p4998
sg44
VPT8M13.9598345S
p4999
sa(dp5000
g41
VPlayerSpawn
p5001
sg48
(dp5002
g50
VALG Heinz HCS
p5003
sg52
Nssg44
VPT8M13.9598345S
p5004
sa(dp5005
g41
VMedal
p5006
sg48
(dp5007
g50
VE6 bubu dubu
p5008
sg52
Nssg290
I3400287617
sg44
VPT8M13.9918087S
p5009
sa(dp5010
g47
I313138863
sg41
VWeaponDrop
p5011
sg189
I0
sg53
(lp5012
I1095363701
asg44
VPT8M21.5910717S
p5013
sg192
I0
sg193
VP0DT0H0M1.1000S
p5014
sg48
(dp5015
g50
VE6 Cratos HCS
p5016
sg52
Nssa(dp5017
g47
I1579758889
sg48
(dp5018
g50
VE6 Cratos HCS
p5019
sg52
Nssg53
(lp5020
I2758383128
asg41
VWeaponPickup
p5021
sg44
VPT8M21.5910717S
p5022
sa(dp5023
g47
I313138863
sg41
VWeaponDrop
p5024
sg189
I0
sg53
(lp5025
I1095363701
asg44
VPT8M28.8913049S
p5026
sg192
I0
sg193
VP0DT0H0M0.8333S
p5027
sg48
(dp5028
g50
VALG RyaNoob
p5029
sg52
Nssa(dp5030
g47
I524558978
sg48
(dp5031
g50
VALG RyaNoob
p5032
sg52
Nssg53
(lp5033
I2758383128
asg41
VWeaponPickup
p5034
sg44
VPT8M28.8913049S
p5035
sa(dp5036
g242
I4106030681
sg243
I00
sg244
I00
sg245
(dp5037
g50
VALG Heinz HCS
p5038
sg52
Nssg248
(lp5039
sg250
I00
sg251
I00
sg252
I2
sg253
I0
sg254
I0
sg255
(dp5040
Vy
F-6.5301537500000002
sVx
F-0.55031013500000003
sVz
F3.2022390000000001
ssg257
(dp5041
Vy
F3.6524686800000001
sVx
F-2.46001863
sVz
F3.2003452800000001
ssg259
I00
sg260
(dp5042
g262
g263
ssg264
(lp5043
sg266
(lp5044
sg268
I00
sg44
VPT8M29.2582969S
p5045
sg41
VDeath
p5046
sg271
I1
sa(dp5047
g242
I47178948
sg243
I00
sg244
I00
sg245
(dp5048
g50
VALG Heinz HCS
p5049
sg52
Nssg248
(lp5050
sg250
I00
sg251
I01
sg252
I1
sg253
I0
sg254
I1
sg255
(dp5051
Vy
F-6.5301537500000002
sVx
F-0.55031013500000003
sVz
F3.2022390000000001
ssg257
(dp5052
Vy
F3.50750947
sVx
F-1.5060271000000001
sVz
F3.2477145200000002
ssg259
I00
sg260
(dp5053
g50
VE6 bubu dubu
p5054
sg52
Nssg264
(lp5055
sg266
(lp5056
(dp5057
g50
VALGPredevonator
p5058
sg52
Nsasg268
I00
sg44
VPT8M29.2593212S
p5059
sg41
VDeath
p5060
sg271
I1
sa(dp5061
g41
VImpulse
p5062
sg48
(dp5063
g50
VALG Heinz HCS
p5064
sg52
Nssg981
I2556889090
sg44
VPT8M29.2593212S
p5065
sa(dp5066
g41
VMedal
p5067
sg48
(dp5068
g50
VALG Heinz HCS
p5069
sg52
Nssg290
I2838259753
sg44
VPT8M29.2593212S
p5070
sa(dp5071
g41
VMedal
p5072
sg48
(dp5073
g50
VALG ContrA HCS
p5074
sg52
Nssg290
I824733727
sg44
VPT8M29.2603249S
p5075
sa(dp5076
g47
I723388907
sg41
VWeaponDrop
p5077
sg189
I2
sg53
(lp5078
I89283061
asg44
VPT8M29.2603249S
p5079
sg192
I2
sg193
VP0DT0H0M30.1667S
p5080
sg48
(dp5081
g50
VE6 bubu dubu
p5082
sg52
Nssa(dp5083
g47
I723388907
sg41
VWeaponDrop
p5084
sg189
I0
sg53
(lp5085
I89283061
asg44
VPT8M29.2603249S
p5086
sg192
I0
sg193
VP0DT0S
p5087
sg48
(dp5088
g50
VE6 bubu dubu
p5089
sg52
Nssa(dp5090
g47
I424645655
sg41
VWeaponDrop
p5091
sg189
I48
sg53
(lp5092
I1327094800
asg44
VPT8M29.2603249S
p5093
sg192
I21
sg193
VP0DT0H1M6.1667S
p5094
sg48
(dp5095
g50
VE6 bubu dubu
p5096
sg52
Nssa(dp5097
g242
I4096745987
sg243
I00
sg244
I00
sg245
(dp5098
g50
VE6 Cratos HCS
p5099
sg52
Nssg248
(lp5100
I2758383128
asg250
I00
sg251
I01
sg252
I1
sg253
I0
sg254
I1
sg255
(dp5101
Vy
F11.3367109
sVx
F18.611170000000001
sVz
F3.8114759999999999
ssg257
(dp5102
Vy
F12.486677200000001
sVx
F19.913988100000001
sVz
F2.3572790000000001
ssg259
I00
sg260
(dp5103
g50
VALG ContrA HCS
p5104
sg52
Nssg264
(lp5105
sg266
(lp5106
sg268
I00
sg44
VPT8M35.7425063S
p5107
sg41
VDeath
p5108
sg271
I1
sa(dp5109
g47
I313138863
sg41
VWeaponDrop
p5110
sg189
I0
sg53
(lp5111
I1095363701
asg44
VPT8M35.7435335S
p5112
sg192
I0
sg193
VP0DT0H0M0.5167S
p5113
sg48
(dp5114
g50
VALG ContrA HCS
p5115
sg52
Nssa(dp5116
g47
I4096745987
sg41
VWeaponDrop
p5117
sg189
I6
sg53
(lp5118
I2758383128
asg44
VPT8M35.7435335S
p5119
sg192
I4
sg193
VP0DT0H0M21.5333S
p5120
sg48
(dp5121
g50
VALG ContrA HCS
p5122
sg52
Nssa(dp5123
g47
I313138863
sg48
(dp5124
g50
VE6 bubu dubu
p5125
sg52
Nssg53
(lp5126
I1095363701
asg41
VWeaponPickup
p5127
sg44
VPT8M37.2755549S
p5128
sa(dp5129
g47
I4096745987
sg48
(dp5130
g50
VE6 bubu dubu
p5131
sg52
Nssg53
(lp5132
I2758383128
asg41
VWeaponPickup
p5133
sg44
VPT8M37.2765764S
p5134
sa(dp5135
g41
VPlayerSpawn
p5136
sg48
(dp5137
g50
VE6 bubu dubu
p5138
sg52
Nssg44
VPT8M37.2765764S
p5139
sa(dp5140
g242
I723388907
sg243
I00
sg244
I00
sg245
(dp5141
g50
VE6 Huke HCS
p5142
sg52
Nssg248
(lp5143
I89283061
asg250
I00
sg251
I01
sg252
I1
sg253
I0
sg254
I1
sg255
(dp5144
Vy
F-9.7972029999999997
sVx
F12.789318099999999
sVz
F3.2011769999999999
ssg257
(dp5145
Vy
F-6.0584410000000002
sVx
F12.39142
sVz
F4.0656194699999997
ssg259
I00
sg260
(dp5146
g50
VALGPredevonator
p5147
sg52
Nssg264
(lp5148
sg266
(lp5149
sg268
I00
sg44
VPT8M39.7426335S
p5150
sg41
VDeath
p5151
sg271
I1
sa(dp5152
g47
I669296699
sg41
VWeaponDrop
p5153
sg189
I3
sg53
(lp5154
I2758383128
asg44
VPT8M39.7446561S
p5155
sg192
I3
sg193
VP0DT0H1M35.3500S
p5156
sg48
(dp5157
g50
VALGPredevonator
p5158
sg52
Nssa(dp5159
g47
I4096745987
sg41
VWeaponDrop
p5160
sg189
I34
sg53
(lp5161
I2758383128
asg44
VPT8M39.7446561S
p5162
sg192
I18
sg193
VP0DT0H0M49.7833S
p5163
sg48
(dp5164
g50
VALGPredevonator
p5165
sg52
Nssa(dp5166
g47
I4096745987
sg41
VWeaponDrop
p5167
sg189
I0
sg53
(lp5168
I2758383128
asg44
VPT8M41.0577005S
p5169
sg192
I0
sg193
VP0DT0H0M26.6333S
p5170
sg48
(dp5171
g50
VALG Heinz HCS
p5172
sg52
Nssa(dp5173
g47
I2511447508
sg48
(dp5174
g50
VALG Heinz HCS
p5175
sg52
Nssg53
(lp5176
I2758383128
asg41
VWeaponPickup
p5177
sg44
VPT8M41.0577005S
p5178
sa(dp5179
g47
I313138863
sg48
(dp5180
g50
VALG ContrA HCS
p5181
sg52
Nssg53
(lp5182
I1095363701
asg41
VWeaponPickup
p5183
sg44
VPT8M43.7587618S
p5184
sa(dp5185
g47
I4096745987
sg48
(dp5186
g50
VALG ContrA HCS
p5187
sg52
Nssg53
(lp5188
I2758383128
asg41
VWeaponPickup
p5189
sg44
VPT8M43.7597812S
p5190
sa(dp5191
g41
VPlayerSpawn
p5192
sg48
(dp5193
g50
VALG ContrA HCS
p5194
sg52
Nssg44
VPT8M43.7597812S
p5195
sa(dp5196
g47
I723388907
sg41
VWeaponDrop
p5197
sg189
I26
sg53
(lp5198
I89283061
asg44
VPT8M45.6578472S
p5199
sg192
I15
sg193
VP0DT0H0M19.5000S
p5200
sg48
(dp5201
g50
VE6 Huke HCS
p5202
sg52
Nssa(dp5203
g47
I669296699
sg48
(dp5204
g50
VE6 Huke HCS
p5205
sg52
Nssg53
(lp5206
I2758383128
asg41
VWeaponPickup
p5207
sg44
VPT8M45.6578472S
p5208
sa(dp5209
g47
I313138863
sg48
(dp5210
g50
VALGPredevonator
p5211
sg52
Nssg53
(lp5212
I1095363701
asg41
VWeaponPickup
p5213
sg44
VPT8M47.7588906S
p5214
sa(dp5215
g47
I4096745987
sg48
(dp5216
g50
VALGPredevonator
p5217
sg52
Nssg53
(lp5218
I2758383128
asg41
VWeaponPickup
p5219
sg44
VPT8M47.75989S
p5220
sa(dp5221
g41
VPlayerSpawn
p5222
sg48
(dp5223
g50
VALGPredevonator
p5224
sg52
Nssg44
VPT8M47.75989S
p5225
sa(dp5226
g47
I4096745987
sg41
VWeaponDrop
p5227
sg189
I0
sg53
(lp5228
I2758383128
asg44
VPT8M49.6739744S
p5229
sg192
I0
sg193
VP0DT0H0M1.2833S
p5230
sg48
(dp5231
g50
VALGPredevonator
p5232
sg52
Nssa(dp5233
g47
I424645655
sg48
(dp5234
g50
VALGPredevonator
p5235
sg52
Nssg53
(lp5236
I1327094800
asg41
VWeaponPickup
p5237
sg44
VPT8M49.6749763S
p5238
sa(dp5239
g47
I2492868984
sg48
(dp5240
g50
VALG ContrA HCS
p5241
sg52
Nssg53
(lp5242
I2758383128
asg41
VWeaponPickup
p5243
sg44
VPT8M50.3089715S
p5244
sa(dp5245
g242
I4096745987
sg243
I00
sg244
I01
sg245
(dp5246
g50
VE6 bubu dubu
p5247
sg52
Nssg248
(lp5248
I2758383128
asg250
I00
sg251
I00
sg252
I1
sg253
I0
sg254
I1
sg255
(dp5249
Vy
F3.8943114300000001
sVx
F7.17155933
sVz
F3.2010781800000001
ssg257
(dp5250
Vy
F4.4157650000000004
sVx
F7.0701520000000002
sVz
F3.2007184
ssg259
I00
sg260
(dp5251
g50
VALG ContrA HCS
p5252
sg52
Nssg264
(lp5253
sg266
(lp5254
sg268
I00
sg44
VPT8M50.6259862S
p5255
sg41
VDeath
p5256
sg271
I1
sa(dp5257
g41
VMedal
p5258
sg48
(dp5259
g50
VE6 bubu dubu
p5260
sg52
Nssg290
I2287626681
sg44
VPT8M50.6270018S
p5261
sa(dp5262
g47
I2492868984
sg41
VWeaponDrop
p5263
sg189
I0
sg53
(lp5264
I2758383128
asg44
VPT8M50.6280063S
p5265
sg192
I0
sg193
VP0DT0H0M0.1667S
p5266
sg48
(dp5267
g50
VALG ContrA HCS
p5268
sg52
Nssa(dp5269
g47
I313138863
sg41
VWeaponDrop
p5270
sg189
I0
sg53
(lp5271
I1095363701
asg44
VPT8M50.6290057S
p5272
sg192
I0
sg193
VP0DT0H0M0.4167S
p5273
sg48
(dp5274
g50
VALG ContrA HCS
p5275
sg52
Nssa(dp5276
g47
I4096745987
sg41
VWeaponDrop
p5277
sg189
I1
sg53
(lp5278
I2758383128
asg44
VPT8M50.6290057S
p5279
sg192
I1
sg193
VP0DT0H0M6.2833S
p5280
sg48
(dp5281
g50
VALG ContrA HCS
p5282
sg52
Nssa(dp5283
g47
I313138863
sg41
VWeaponDrop
p5284
sg189
I0
sg53
(lp5285
I1095363701
asg44
VPT8M54.5911328S
p5286
sg192
I0
sg193
VP0DT0H0M0.9500S
p5287
sg48
(dp5288
g50
VALG Heinz HCS
p5289
sg52
Nssa(dp5290
g47
I723388907
sg48
(dp5291
g50
VALG Heinz HCS
p5292
sg52
Nssg53
(lp5293
I89283061
asg41
VWeaponPickup
p5294
sg44
VPT8M54.5911328S
p5295
sa(dp5296
g47
I313138863
sg48
(dp5297
g50
VALG ContrA HCS
p5298
sg52
Nssg53
(lp5299
I1095363701
asg41
VWeaponPickup
p5300
sg44
VPT8M58.6422379S
p5301
sa(dp5302
g47
I4096745987
sg48
(dp5303
g50
VALG ContrA HCS
p5304
sg52
Nssg53
(lp5305
I2758383128
asg41
VWeaponPickup
p5306
sg44
VPT8M58.6432561S
p5307
sa(dp5308
g41
VPlayerSpawn
p5309
sg48
(dp5310
g50
VALG ContrA HCS
p5311
sg52
Nssg44
VPT8M58.6432561S
p5312
sa(dp5313
g242
I669296699
sg243
I00
sg244
I00
sg245
(dp5314
g50
VE6 Huke HCS
p5315
sg52
Nssg248
(lp5316
I2758383128
asg250
I00
sg251
I01
sg252
I1
sg253
I0
sg254
I1
sg255
(dp5317
Vy
F-5.8534759999999997
sVx
F9.9760570000000008
sVz
F4.5583925199999999
ssg257
(dp5318
Vy
F-4.1336550000000001
sVx
F0.069318980000000002
sVz
F5.1494236000000004
ssg259
I00
sg260
(dp5319
g50
VALG Heinz HCS
p5320
sg52
Nssg264
(lp5321
sg266
(lp5322
sg268
I01
sg44
VPT9M2.7583921S
p5323
sg41
VDeath
p5324
sg271
I1
sa(dp5325
g41
VMedal
p5326
sg48
(dp5327
g50
VE6 Huke HCS
p5328
sg52
Nssg290
I848240062
sg44
VPT9M2.7603718S
p5329
sa(dp5330
g47
I723388907
sg41
VWeaponDrop
p5331
sg189
I0
sg53
(lp5332
I89283061
asg44
VPT9M2.7603718S
p5333
sg192
I0
sg193
VP0DT0H0M0.6667S
p5334
sg48
(dp5335
g50
VALG Heinz HCS
p5336
sg52
Nssa(dp5337
g47
I2511447508
sg41
VWeaponDrop
p5338
sg189
I4
sg53
(lp5339
I2758383128
asg44
VPT9M2.7603718S
p5340
sg192
I2
sg193
VP0DT0H0M20.5500S
p5341
sg48
(dp5342
g50
VALG Heinz HCS
p5343
sg52
Nssa(dp5344
g242
I669296699
sg243
I00
sg244
I00
sg245
(dp5345
g50
VE6 Huke HCS
p5346
sg52
Nssg248
(lp5347
I2758383128
asg250
I00
sg251
I01
sg252
I1
sg253
I0
sg254
I1
sg255
(dp5348
Vy
F-6.1084059999999996
sVx
F13.1142979
sVz
F3.7678029999999998
ssg257
(dp5349
Vy
F8.9617579999999997
sVx
F-6.3240604400000002
sVz
F3.60000038
ssg259
I00
sg260
(dp5350
g50
VALG ContrA HCS
p5351
sg52
Nssg264
(lp5352
sg266
(lp5353
(dp5354
g50
VE6 Cratos HCS
p5355
sg52
Nsasg268
I01
sg44
VPT9M7.7755306S
p5356
sg41
VDeath
p5357
sg271
I1
sa(dp5358
g41
VMedal
p5359
sg48
(dp5360
g50
VE6 Huke HCS
p5361
sg52
Nssg290
I848240062
sg44
VPT9M7.7765543S
p5362
sa(dp5363
g47
I4096745987
sg41
VWeaponDrop
p5364
sg189
I0
sg53
(lp5365
I2758383128
asg44
VPT9M7.7775536S
p5366
sg192
I0
sg193
VP0DT0H0M8.7667S
p5367
sg48
(dp5368
g50
VALG ContrA HCS
p5369
sg52
Nssa(dp5370
g47
I313138863
sg41
VWeaponDrop
p5371
sg189
I0
sg53
(lp5372
I1095363701
asg44
VPT9M7.7785516S
p5373
sg192
I0
sg193
VP0DT0H0M0.3667S
p5374
sg48
(dp5375
g50
VALG ContrA HCS
p5376
sg52
Nssa(dp5377
g47
I424645655
sg41
VWeaponDrop
p5378
sg189
I15
sg53
(lp5379
I1327094800
asg44
VPT9M10.5246188S
p5380
sg192
I12
sg193
VP0DT0H0M20.8500S
p5381
sg48
(dp5382
g50
VALGPredevonator
p5383
sg52
Nssa(dp5384
g47
I2511447508
sg48
(dp5385
g50
VALGPredevonator
p5386
sg52
Nssg53
(lp5387
I2758383128
asg41
VWeaponPickup
p5388
sg44
VPT9M10.5246188S
p5389
sa(dp5390
g47
I313138863
sg48
(dp5391
g50
VALG Heinz HCS
p5392
sg52
Nssg53
(lp5393
I1095363701
asg41
VWeaponPickup
p5394
sg44
VPT9M10.775652S
p5395
sa(dp5396
g47
I4096745987
sg48
(dp5397
g50
VALG Heinz HCS
p5398
sg52
Nssg53
(lp5399
I2758383128
asg41
VWeaponPickup
p5400
sg44
VPT9M10.775652S
p5401
sa(dp5402
g41
VPlayerSpawn
p5403
sg48
(dp5404
g50
VALG Heinz HCS
p5405
sg52
Nssg44
VPT9M10.775652S
p5406
sa(dp5407
g47
I313138863
sg41
VWeaponDrop
p5408
sg189
I0
sg53
(lp5409
I1095363701
asg44
VPT9M11.224666S
p5410
sg192
I0
sg193
VP0DT0H0M0.7833S
p5411
sg48
(dp5412
g50
VALGPredevonator
p5413
sg52
Nssa(dp5414
g47
I723388907
sg48
(dp5415
g50
VALGPredevonator
p5416
sg52
Nssg53
(lp5417
I89283061
asg41
VWeaponPickup
p5418
sg44
VPT9M11.224666S
p5419
sa(dp5420
g47
I313138863
sg41
VWeaponDrop
p5421
sg189
I0
sg53
(lp5422
I1095363701
asg44
VPT9M14.1907632S
p5423
sg192
I0
sg193
VP0DT0H0M1.1833S
p5424
sg48
(dp5425
g50
VALG Heinz HCS
p5426
sg52
Nssa(dp5427
g47
I723388907
sg48
(dp5428
g50
VALG Heinz HCS
p5429
sg52
Nssg53
(lp5430
I89283061
asg41
VWeaponPickup
p5431
sg44
VPT9M14.1907632S
p5432
sa(dp5433
g47
I313138863
sg48
(dp5434
g50
VALG ContrA HCS
p5435
sg52
Nssg53
(lp5436
I1095363701
asg41
VWeaponPickup
p5437
sg44
VPT9M15.7928094S
p5438
sa(dp5439
g47
I4096745987
sg48
(dp5440
g50
VALG ContrA HCS
p5441
sg52
Nssg53
(lp5442
I2758383128
asg41
VWeaponPickup
p5443
sg44
VPT9M15.7928094S
p5444
sa(dp5445
g41
VPlayerSpawn
p5446
sg48
(dp5447
g50
VALG ContrA HCS
p5448
sg52
Nssg44
VPT9M15.7928094S
p5449
sa(dp5450
g47
I313138863
sg41
VWeaponDrop
p5451
sg189
I0
sg53
(lp5452
I1095363701
asg44
VPT9M17.9408784S
p5453
sg192
I0
sg193
VP0DT0H0M2.2000S
p5454
sg48
(dp5455
g50
VE6 bubu dubu
p5456
sg52
Nssa(dp5457
g47
I669296699
sg48
(dp5458
g50
VE6 bubu dubu
p5459
sg52
Nssg53
(lp5460
I2758383128
asg41
VWeaponPickupPad
p5461
sg44
VPT9M17.9408784S
p5462
sa(dp5463
g47
I669296699
sg48
(dp5464
g50
VE6 bubu dubu
p5465
sg52
Nssg53
(lp5466
I2758383128
asg41
VWeaponPickup
p5467
sg44
VPT9M17.9408784S
p5468
sa(dp5469
g242
I4096745987
sg243
I00
sg244
I00
sg245
(dp5470
g50
VE6 Cratos HCS
p5471
sg52
Nssg248
(lp5472
I2758383128
asg250
I00
sg251
I00
sg252
I2
sg253
I0
sg254
I0
sg255
(dp5473
Vy
F13.311641699999999
sVx
F17.106256500000001
sVz
F3.1995619999999998
ssg257
(dp5474
Vy
F9.3456010000000003
sVx
F12.281185199999999
sVz
F5.5111650000000001
ssg259
I00
sg260
(dp5475
g262
g263
ssg264
(lp5476
sg266
(lp5477
sg268
I00
sg44
VPT9M18.8588858S
p5478
sg41
VDeath
p5479
sg271
I1
sa(dp5480
g47
I4096745987
sg41
VWeaponDrop
p5481
sg189
I3
sg53
(lp5482
I2758383128
asg44
VPT9M22.7240328S
p5483
sg192
I1
sg193
VP0DT0H0M10.3667S
p5484
sg48
(dp5485
g50
VALG Heinz HCS
p5486
sg52
Nssa(dp5487
g47
I424645655
sg48
(dp5488
g50
VALG Heinz HCS
p5489
sg52
Nssg53
(lp5490
I1327094800
asg41
VWeaponPickup
p5491
sg44
VPT9M22.7240328S
p5492
sa(dp5493
g242
I669296699
sg243
I00
sg244
I01
sg245
(dp5494
g50
VE6 Huke HCS
p5495
sg52
Nssg248
(lp5496
I2758383128
asg250
I00
sg251
I00
sg252
I1
sg253
I0
sg254
I1
sg255
(dp5497
Vy
F-6.4843592599999997
sVx
F12.773100899999999
sVz
F4.22517443
ssg257
(dp5498
Vy
F-6.1138286600000002
sVx
F12.732805300000001
sVz
F3.8463106200000001
ssg259
I00
sg260
(dp5499
g50
VALG ContrA HCS
p5500
sg52
Nssg264
(lp5501
sg266
(lp5502
(dp5503
g50
VE6 Cratos HCS
p5504
sg52
Nsasg268
I00
sg44
VPT9M28.9752084S
p5505
sg41
VDeath
p5506
sg271
I1
sa(dp5507
g41
VMedal
p5508
sg48
(dp5509
g50
VE6 Huke HCS
p5510
sg52
Nssg290
I2287626681
sg44
VPT9M28.9762111S
p5511
sa(dp5512
g47
I4096745987
sg41
VWeaponDrop
p5513
sg189
I1
sg53
(lp5514
I2758383128
asg44
VPT9M28.9772341S
p5515
sg192
I0
sg193
VP0DT0H0M12.0667S
p5516
sg48
(dp5517
g50
VALG ContrA HCS
p5518
sg52
Nssa(dp5519
g47
I313138863
sg41
VWeaponDrop
p5520
sg189
I0
sg53
(lp5521
I1095363701
asg44
VPT9M28.9772341S
p5522
sg192
I0
sg193
VP0DT0H0M1.1167S
p5523
sg48
(dp5524
g50
VALG ContrA HCS
p5525
sg52
Nssa(dp5526
g41
VMedal
p5527
sg48
(dp5528
g50
VE6 Huke HCS
p5529
sg52
Nssg290
I3400287617
sg44
VPT9M32.9743372S
p5530
sa(dp5531
g242
I2460880172
sg243
I00
sg244
I00
sg245
(dp5532
g50
VALG RyaNoob
p5533
sg52
Nssg248
(lp5534
sg250
I00
sg251
I01
sg252
I1
sg253
I0
sg254
I1
sg255
(dp5535
Vy
F11.3663168
sVx
F20.183979000000001
sVz
F1.4404948900000001
ssg257
(dp5536
Vy
F5.3048944499999999
sVx
F12.6286182
sVz
F6.0553590000000002
ssg259
I00
sg260
(dp5537
g50
VE6 bubu dubu
p5538
sg52
Nssg264
(lp5539
sg266
(lp5540
(dp5541
g50
VALGPredevonator
p5542
sg52
Nsasg268
I00
sg44
VPT9M35.3414125S
p5543
sg41
VDeath
p5544
sg271
I1
sa(dp5545
g41
VMedal
p5546
sg48
(dp5547
g50
VALG RyaNoob
p5548
sg52
Nssg290
I2251767925
sg44
VPT9M35.3424347S
p5549
sa(dp5550
g47
I669296699
sg41
VWeaponDrop
p5551
sg189
I1
sg53
(lp5552
I2758383128
asg44
VPT9M35.3434328S
p5553
sg192
I0
sg193
VP0DT0H0M16.6000S
p5554
sg48
(dp5555
g50
VE6 bubu dubu
p5556
sg52
Nssa(dp5557
g47
I4096745987
sg41
VWeaponDrop
p5558
sg189
I9
sg53
(lp5559
I2758383128
asg44
VPT9M35.3434328S
p5560
sg192
I6
sg193
VP0DT0H0M39.2667S
p5561
sg48
(dp5562
g50
VE6 bubu dubu
p5563
sg52
Nssa(dp5564
g47
I4096745987
sg41
VWeaponDrop
p5565
sg189
I0
sg53
(lp5566
I2758383128
asg44
VPT9M35.3434328S
p5567
sg192
I0
sg193
VP0DT0S
p5568
sg48
(dp5569
g50
VE6 bubu dubu
p5570
sg52
Nssa(dp5571
g47
I313138863
sg48
(dp5572
g50
VALG ContrA HCS
p5573
sg52
Nssg53
(lp5574
I1095363701
asg41
VWeaponPickup
p5575
sg44
VPT9M36.9925066S
p5576
sa(dp5577
g47
I4096745987
sg48
(dp5578
g50
VALG ContrA HCS
p5579
sg52
Nssg53
(lp5580
I2758383128
asg41
VWeaponPickup
p5581
sg44
VPT9M36.9925066S
p5582
sa(dp5583
g41
VPlayerSpawn
p5584
sg48
(dp5585
g50
VALG ContrA HCS
p5586
sg52
Nssg44
VPT9M36.9925066S
p5587
sa(dp5588
g242
I424645655
sg243
I00
sg244
I00
sg245
(dp5589
g50
VE6 Huke HCS
p5590
sg52
Nssg248
(lp5591
I1327094800
asg250
I00
sg251
I01
sg252
I1
sg253
I0
sg254
I1
sg255
(dp5592
Vy
F-7.71984768
sVx
F10.34754
sVz
F3.2011766399999999
ssg257
(dp5593
Vy
F-12.5075941
sVx
F12.253869999999999
sVz
F3.2011766399999999
ssg259
I00
sg260
(dp5594
g50
VALGPredevonator
p5595
sg52
Nssg264
(lp5596
sg266
(lp5597
sg268
I00
sg44
VPT9M37.5914928S
p5598
sg41
VDeath
p5599
sg271
I1
sa(dp5600
g41
VMedal
p5601
sg48
(dp5602
g50
VE6 Huke HCS
p5603
sg52
Nssg290
I2430242797
sg44
VPT9M37.5935081S
p5604
sa(dp5605
g47
I723388907
sg41
VWeaponDrop
p5606
sg189
I20
sg53
(lp5607
I89283061
asg44
VPT9M37.5935081S
p5608
sg192
I10
sg193
VP0DT0H0M14.9667S
p5609
sg48
(dp5610
g50
VALGPredevonator
p5611
sg52
Nssa(dp5612
g47
I2511447508
sg41
VWeaponDrop
p5613
sg189
I3
sg53
(lp5614
I2758383128
asg44
VPT9M37.5935081S
p5615
sg192
I2
sg193
VP0DT0H0M11.9500S
p5616
sg48
(dp5617
g50
VALGPredevonator
p5618
sg52
Nssa(dp5619
g242
I424645655
sg243
I00
sg244
I00
sg245
(dp5620
g50
VALG Heinz HCS
p5621
sg52
Nssg248
(lp5622
I1327094800
asg250
I00
sg251
I01
sg252
I1
sg253
I0
sg254
I1
sg255
(dp5623
Vy
F-11.295290899999999
sVx
F8.1894989999999996
sVz
F3.7984805100000001
ssg257
(dp5624
Vy
F-10.0249386
sVx
F13.374598499999999
sVz
F5.7182269999999997
ssg259
I00
sg260
(dp5625
g50
VE6 Shooter
p5626
sg52
Nssg264
(lp5627
sg266
(lp5628
sg268
I01
sg44
VPT9M38.7745227S
p5629
sg41
VDeath
p5630
sg271
I1
sa(dp5631
g41
VMedal
p5632
sg48
(dp5633
g50
VALG Heinz HCS
p5634
sg52
Nssg290
I2782465081
sg44
VPT9M38.7765448S
p5635
sa(dp5636
g41
VMedal
p5637
sg48
(dp5638
g50
VALG Heinz HCS
p5639
sg52
Nssg290
I3261908037
sg44
VPT9M38.7775431S
p5640
sa(dp5641
g47
I313138863
sg41
VWeaponDrop
p5642
sg189
I0
sg53
(lp5643
I1095363701
asg44
VPT9M38.7775431S
p5644
sg192
I0
sg193
VP0DT0H0M0.5167S
p5645
sg48
(dp5646
g50
VE6 Shooter
p5647
sg52
Nssa(dp5648
g47
I424645655
sg41
VWeaponDrop
p5649
sg189
I65
sg53
(lp5650
I1327094800
asg44
VPT9M38.7775431S
p5651
sg192
I26
sg193
VP0DT0H1M54.4500S
p5652
sg48
(dp5653
g50
VE6 Shooter
p5654
sg52
Nssa(dp5655
g242
I424645655
sg243
I00
sg244
I00
sg245
(dp5656
g50
VE6 Shooter
p5657
sg52
Nssg248
(lp5658
I1327094800
asg250
I00
sg251
I01
sg252
I1
sg253
I0
sg254
I1
sg255
(dp5659
Vy
F-9.9916409999999996
sVx
F13.3590126
sVz
F5.7918099999999999
ssg257
(dp5660
Vy
F-11.273591
sVx
F8.1778469999999999
sVz
F3.8259582499999998
ssg259
I00
sg260
(dp5661
g50
VALG Heinz HCS
p5662
sg52
Nssg264
(lp5663
sg266
(lp5664
sg268
I01
sg44
VPT9M38.7925454S
p5665
sg41
VDeath
p5666
sg271
I1
sa(dp5667
g41
VMedal
p5668
sg48
(dp5669
g50
VE6 Shooter
p5670
sg52
Nssg290
I3261908037
sg44
VPT9M38.7945648S
p5671
sa(dp5672
g47
I723388907
sg41
VWeaponDrop
p5673
sg189
I0
sg53
(lp5674
I89283061
asg44
VPT9M38.795526S
p5675
sg192
I0
sg193
VP0DT0H0M0.4000S
p5676
sg48
(dp5677
g50
VALG Heinz HCS
p5678
sg52
Nssa(dp5679
g47
I424645655
sg41
VWeaponDrop
p5680
sg189
I14
sg53
(lp5681
I1327094800
asg44
VPT9M38.795526S
p5682
sg192
I8
sg193
VP0DT0H0M16.0667S
p5683
sg48
(dp5684
g50
VALG Heinz HCS
p5685
sg52
Nssa(dp5686
g242
I424645655
sg243
I00
sg244
I00
sg245
(dp5687
g50
VALG RyaNoob
p5688
sg52
Nssg248
(lp5689
I1327094800
asg250
I00
sg251
I01
sg252
I1
sg253
I0
sg254
I1
sg255
(dp5690
Vy
F11.784690899999999
sVx
F22.424790000000002
sVz
F1.0848581799999999
ssg257
(dp5691
Vy
F13.6915789
sVx
F20.438163800000002
sVz
F0.803608239
ssg259
I00
sg260
(dp5692
g50
VE6 Cratos HCS
p5693
sg52
Nssg264
(lp5694
sg266
(lp5695
sg268
I00
sg44
VPT9M39.6415504S
p5696
sg41
VDeath
p5697
sg271
I1
sa(dp5698
g41
VMedal
p5699
sg48
(dp5700
g50
VALG RyaNoob
p5701
sg52
Nssg290
I2782465081
sg44
VPT9M39.6425758S
p5702
sa(dp5703
g41
VMedal
p5704
sg48
(dp5705
g50
VALG RyaNoob
p5706
sg52
Nssg290
I2078758684
sg44
VPT9M39.6425758S
p5707
sa(dp5708
g47
I1579758889
sg41
VWeaponDrop
p5709
sg189
I10
sg53
(lp5710
I2758383128
asg44
VPT9M39.6435727S
p5711
sg192
I8
sg193
VP0DT0H0M29.6500S
p5712
sg48
(dp5713
g50
VE6 Cratos HCS
p5714
sg52
Nssa(dp5715
g47
I4096745987
sg41
VWeaponDrop
p5716
sg189
I20
sg53
(lp5717
I2758383128
asg44
VPT9M39.6435727S
p5718
sg192
I10
sg193
VP0DT0H0M57.8833S
p5719
sg48
(dp5720
g50
VE6 Cratos HCS
p5721
sg52
Nssa(dp5722
g47
I669296699
sg41
VWeaponDrop
p5723
sg189
I5
sg53
(lp5724
I2758383128
asg44
VPT9M41.2736042S
p5725
sg192
I5
sg193
VP0DT0H0M44.6833S
p5726
sg48
(dp5727
g50
VE6 Huke HCS
p5728
sg52
Nssa(dp5729
g47
I669296699
sg41
VWeaponDrop
p5730
sg189
I0
sg53
(lp5731
I2758383128
asg44
VPT9M41.2736042S
p5732
sg192
I0
sg193
VP0DT0S
p5733
sg48
(dp5734
g50
VE6 Huke HCS
p5735
sg52
Nssa(dp5736
g47
I723388907
sg48
(dp5737
g50
VE6 Huke HCS
p5738
sg52
Nssg53
(lp5739
I89283061
asg41
VWeaponPickup
p5740
sg44
VPT9M41.2736042S
p5741
sa(dp5742
g41
VMedal
p5743
sg48
(dp5744
g50
VALG RyaNoob
p5745
sg52
Nssg290
I3400287617
sg44
VPT9M42.773653S
p5746
sa(dp5747
g47
I313138863
sg48
(dp5748
g50
VE6 bubu dubu
p5749
sg52
Nssg53
(lp5750
I1095363701
asg41
VWeaponPickup
p5751
sg44
VPT9M43.3586918S
p5752
sa(dp5753
g47
I4096745987
sg48
(dp5754
g50
VE6 bubu dubu
p5755
sg52
Nssg53
(lp5756
I2758383128
asg41
VWeaponPickup
p5757
sg44
VPT9M43.3586918S
p5758
sa(dp5759
g41
VPlayerSpawn
p5760
sg48
(dp5761
g50
VE6 bubu dubu
p5762
sg52
Nssg44
VPT9M43.3586918S
p5763
sa(dp5764
g47
I313138863
sg41
VWeaponDrop
p5765
sg189
I0
sg53
(lp5766
I1095363701
asg44
VPT9M45.4237563S
p5767
sg192
I0
sg193
VP0DT0H0M1.0667S
p5768
sg48
(dp5769
g50
VE6 bubu dubu
p5770
sg52
Nssa(dp5771
g47
I723388907
sg48
(dp5772
g50
VE6 bubu dubu
p5773
sg52
Nssg53
(lp5774
I89283061
asg41
VWeaponPickup
p5775
sg44
VPT9M45.4237563S
p5776
sa(dp5777
g47
I313138863
sg48
(dp5778
g50
VALGPredevonator
p5779
sg52
Nssg53
(lp5780
I1095363701
asg41
VWeaponPickup
p5781
sg44
VPT9M45.609744S
p5782
sa(dp5783
g47
I4096745987
sg48
(dp5784
g50
VALGPredevonator
p5785
sg52
Nssg53
(lp5786
I2758383128
asg41
VWeaponPickup
p5787
sg44
VPT9M45.609744S
p5788
sa(dp5789
g41
VPlayerSpawn
p5790
sg48
(dp5791
g50
VALGPredevonator
p5792
sg52
Nssg44
VPT9M45.609744S
p5793
sa(dp5794
g47
I313138863
sg48
(dp5795
g50
VE6 Shooter
p5796
sg52
Nssg53
(lp5797
I1095363701
asg41
VWeaponPickup
p5798
sg44
VPT9M46.7917807S
p5799
sa(dp5800
g47
I4096745987
sg48
(dp5801
g50
VE6 Shooter
p5802
sg52
Nssg53
(lp5803
I2758383128
asg41
VWeaponPickup
p5804
sg44
VPT9M46.7927972S
p5805
sa(dp5806
g41
VPlayerSpawn
p5807
sg48
(dp5808
g50
VE6 Shooter
p5809
sg52
Nssg44
VPT9M46.7927972S
p5810
sa(dp5811
g47
I313138863
sg48
(dp5812
g50
VALG Heinz HCS
p5813
sg52
Nssg53
(lp5814
I1095363701
asg41
VWeaponPickup
p5815
sg44
VPT9M46.8088032S
p5816
sa(dp5817
g47
I4096745987
sg48
(dp5818
g50
VALG Heinz HCS
p5819
sg52
Nssg53
(lp5820
I2758383128
asg41
VWeaponPickup
p5821
sg44
VPT9M46.8088032S
p5822
sa(dp5823
g41
VPlayerSpawn
p5824
sg48
(dp5825
g50
VALG Heinz HCS
p5826
sg52
Nssg44
VPT9M46.8088032S
p5827
sa(dp5828
g47
I723388907
sg41
VWeaponDrop
p5829
sg189
I0
sg53
(lp5830
I89283061
asg44
VPT9M47.0738077S
p5831
sg192
I0
sg193
VP0DT0H0M1.2667S
p5832
sg48
(dp5833
g50
VE6 Huke HCS
p5834
sg52
Nssa(dp5835
g47
I669296699
sg48
(dp5836
g50
VE6 Huke HCS
p5837
sg52
Nssg53
(lp5838
I2758383128
asg41
VWeaponPickup
p5839
sg44
VPT9M47.0738077S
p5840
sa(dp5841
g47
I313138863
sg48
(dp5842
g50
VE6 Cratos HCS
p5843
sg52
Nssg53
(lp5844
I1095363701
asg41
VWeaponPickup
p5845
sg44
VPT9M47.6588303S
p5846
sa(dp5847
g47
I4096745987
sg48
(dp5848
g50
VE6 Cratos HCS
p5849
sg52
Nssg53
(lp5850
I2758383128
asg41
VWeaponPickup
p5851
sg44
VPT9M47.6588303S
p5852
sa(dp5853
g41
VPlayerSpawn
p5854
sg48
(dp5855
g50
VE6 Cratos HCS
p5856
sg52
Nssg44
VPT9M47.6588303S
p5857
sa(dp5858
g47
I4096745987
sg41
VWeaponDrop
p5859
sg189
I0
sg53
(lp5860
I2758383128
asg44
VPT9M50.2239084S
p5861
sg192
I0
sg193
VP0DT0H0M2.8333S
p5862
sg48
(dp5863
g50
VE6 Shooter
p5864
sg52
Nssa(dp5865
g47
I424645655
sg48
(dp5866
g50
VE6 Shooter
p5867
sg52
Nssg53
(lp5868
I1327094800
asg41
VWeaponPickup
p5869
sg44
VPT9M50.2239084S
p5870
sa(dp5871
g47
I669296699
sg41
VWeaponDrop
p5872
sg189
I1
sg53
(lp5873
I2758383128
asg44
VPT9M53.3570113S
p5874
sg192
I0
sg193
VP0DT0H0M3.5500S
p5875
sg48
(dp5876
g50
VE6 Huke HCS
p5877
sg52
Nssa(dp5878
g47
I313138863
sg48
(dp5879
g50
VE6 Huke HCS
p5880
sg52
Nssg53
(lp5881
I1095363701
asg41
VWeaponPickup
p5882
sg44
VPT9M53.3570113S
p5883
sa(dp5884
g47
I313138863
sg41
VWeaponDrop
p5885
sg189
I0
sg53
(lp5886
I1095363701
asg44
VPT9M59.8402175S
p5887
sg192
I0
sg193
VP0DT0H0M2.2667S
p5888
sg48
(dp5889
g50
VE6 Cratos HCS
p5890
sg52
Nssa(dp5891
g47
I723388907
sg48
(dp5892
g50
VE6 Cratos HCS
p5893
sg52
Nssg53
(lp5894
I89283061
asg41
VWeaponPickup
p5895
sg44
VPT9M59.8402175S
p5896
sa(dp5897
g47
I4096745987
sg41
VWeaponDrop
p5898
sg189
I2
sg53
(lp5899
I2758383128
asg44
VPT10M0.5902437S
p5900
sg192
I1
sg193
VP0DT0H0M20.0167S
p5901
sg48
(dp5902
g50
VALG ContrA HCS
p5903
sg52
Nssa(dp5904
g47
I424645655
sg48
(dp5905
g50
VALG ContrA HCS
p5906
sg52
Nssg53
(lp5907
I1327094800
asg41
VWeaponPickup
p5908
sg44
VPT10M0.5902437S
p5909
sa(dp5910
g47
I424645655
sg41
VWeaponDrop
p5911
sg189
I0
sg53
(lp5912
I1327094800
asg44
VPT10M1.6902841S
p5913
sg192
I0
sg193
VP0DT0H0M1.1000S
p5914
sg48
(dp5915
g50
VALG ContrA HCS
p5916
sg52
Nssa(dp5917
g47
I4096745987
sg48
(dp5918
g50
VALG ContrA HCS
p5919
sg52
Nssg53
(lp5920
I2758383128
asg41
VWeaponPickup
p5921
sg44
VPT10M1.6902841S
p5922
sa(dp5923
g47
I4096745987
sg41
VWeaponDrop
p5924
sg189
I0
sg53
(lp5925
I2758383128
asg44
VPT10M2.9903198S
p5926
sg192
I0
sg193
VP0DT0H0M14.8000S
p5927
sg48
(dp5928
g50
VE6 bubu dubu
p5929
sg52
Nssa(dp5930
g47
I669296699
sg48
(dp5931
g50
VE6 bubu dubu
p5932
sg52
Nssg53
(lp5933
I2758383128
asg41
VWeaponPickup
p5934
sg44
VPT10M2.9903198S
p5935
sa(dp5936
g242
I723388907
sg243
I00
sg244
I00
sg245
(dp5937
g50
VE6 bubu dubu
p5938
sg52
Nssg248
(lp5939
I89283061
asg250
I00
sg251
I01
sg252
I1
sg253
I0
sg254
I1
sg255
(dp5940
Vy
F5.8328833600000003
sVx
F17.274414100000001
sVz
F2.1001033800000002
ssg257
(dp5941
Vy
F7.7550806999999997
sVx
F15.8652534
sVz
F4.0839614900000001
ssg259
I00
sg260
(dp5942
g50
VALGPredevonator
p5943
sg52
Nssg264
(lp5944
sg266
(lp5945
(dp5946
g50
VE6 Cratos HCS
p5947
sg52
Nsasg268
I00
sg44
VPT10M9.8755173S
p5948
sg41
VDeath
p5949
sg271
I1
sa(dp5950
g47
I313138863
sg41
VWeaponDrop
p5951
sg189
I2
sg53
(lp5952
I1095363701
asg44
VPT10M9.8775425S
p5953
sg192
I2
sg193
VP0DT0H0M1.4000S
p5954
sg48
(dp5955
g50
VALGPredevonator
p5956
sg52
Nssa(dp5957
g47
I4096745987
sg41
VWeaponDrop
p5958
sg189
I8
sg53
(lp5959
I2758383128
asg44
VPT10M9.8775425S
p5960
sg192
I2
sg193
VP0DT0H0M22.8667S
p5961
sg48
(dp5962
g50
VALGPredevonator
p5963
sg52
Nssa(dp5964
g242
I424645655
sg243
I00
sg244
I01
sg245
(dp5965
g50
VALG RyaNoob
p5966
sg52
Nssg248
(lp5967
I1327094800
asg250
I00
sg251
I00
sg252
I1
sg253
I0
sg254
I1
sg255
(dp5968
Vy
F11.15213
sVx
F2.0683596099999999
sVz
F1.83596838
ssg257
(dp5969
Vy
F10.823513999999999
sVx
F2.1871521500000002
sVz
F1.5927541300000001
ssg259
I00
sg260
(dp5970
g50
VE6 Cratos HCS
p5971
sg52
Nssg264
(lp5972
sg266
(lp5973
sg268
I00
sg44
VPT10M11.2915628S
p5974
sg41
VDeath
p5975
sg271
I1
sa(dp5976
g41
VMedal
p5977
sg48
(dp5978
g50
VALG RyaNoob
p5979
sg52
Nssg290
I2077162827
sg44
VPT10M11.2925814S
p5980
sa(dp5981
g47
I723388907
sg41
VWeaponDrop
p5982
sg189
I7
sg53
(lp5983
I89283061
asg44
VPT10M11.2935849S
p5984
sg192
I3
sg193
VP0DT0H0M3.7167S
p5985
sg48
(dp5986
g50
VE6 Cratos HCS
p5987
sg52
Nssa(dp5988
g47
I4096745987
sg41
VWeaponDrop
p5989
sg189
I7
sg53
(lp5990
I2758383128
asg44
VPT10M11.2945985S
p5991
sg192
I5
sg193
VP0DT0H0M17.6500S
p5992
sg48
(dp5993
g50
VE6 Cratos HCS
p5994
sg52
Nssa(dp5995
g242
I669296699
sg243
I00
sg244
I00
sg245
(dp5996
g50
VE6 bubu dubu
p5997
sg52
Nssg248
(lp5998
I2758383128
asg250
I00
sg251
I01
sg252
I1
sg253
I0
sg254
I1
sg255
(dp5999
Vy
F11.6727247
sVx
F19.196065900000001
sVz
F3.1989079999999999
ssg257
(dp6000
Vy
F8.5525880000000001
sVx
F-4.1782250000000003
sVz
F3.19621873
ssg259
I00
sg260
(dp6001
g50
VALG RyaNoob
p6002
sg52
Nssg264
(lp6003
sg266
(lp6004
sg268
I00
sg44
VPT10M16.6077548S
p6005
sg41
VDeath
p6006
sg271
I1
sa(dp6007
g41
VMedal
p6008
sg48
(dp6009
g50
VE6 bubu dubu
p6010
sg52
Nssg290
I3698887726
sg44
VPT10M16.6087565S
p6011
sa(dp6012
g47
I524558978
sg41
VWeaponDrop
p6013
sg189
I4
sg53
(lp6014
I2758383128
asg44
VPT10M16.6097519S
p6015
sg192
I1
sg193
VP0DT0H0M48.8167S
p6016
sg48
(dp6017
g50
VALG RyaNoob
p6018
sg52
Nssa(dp6019
g47
I524558978
sg41
VWeaponDrop
p6020
sg189
I0
sg53
(lp6021
I2758383128
asg44
VPT10M16.6097519S
p6022
sg192
I0
sg193
VP0DT0S
p6023
sg48
(dp6024
g50
VALG RyaNoob
p6025
sg52
Nssa(dp6026
g47
I524558978
sg41
VWeaponDrop
p6027
sg189
I0
sg53
(lp6028
I2758383128
asg44
VPT10M16.6097519S
p6029
sg192
I0
sg193
VP0DT0S
p6030
sg48
(dp6031
g50
VALG RyaNoob
p6032
sg52
Nssa(dp6033
g47
I424645655
sg41
VWeaponDrop
p6034
sg189
I42
sg53
(lp6035
I1327094800
asg44
VPT10M16.6097519S
p6036
sg192
I18
sg193
VP0DT0H1M35.0167S
p6037
sg48
(dp6038
g50
VALG RyaNoob
p6039
sg52
Nssa(dp6040
g47
I424645655
sg41
VWeaponDrop
p6041
sg189
I0
sg53
(lp6042
I1327094800
asg44
VPT10M16.6097519S
p6043
sg192
I0
sg193
VP0DT0S
p6044
sg48
(dp6045
g50
VALG RyaNoob
p6046
sg52
Nssa(dp6047
g47
I313138863
sg48
(dp6048
g50
VALGPredevonator
p6049
sg52
Nssg53
(lp6050
I1095363701
asg41
VWeaponPickup
p6051
sg44
VPT10M17.8917974S
p6052
sa(dp6053
g47
I4096745987
sg48
(dp6054
g50
VALGPredevonator
p6055
sg52
Nssg53
(lp6056
I2758383128
asg41
VWeaponPickup
p6057
sg44
VPT10M17.8917974S
p6058
sa(dp6059
g41
VPlayerSpawn
p6060
sg48
(dp6061
g50
VALGPredevonator
p6062
sg52
Nssg44
VPT10M17.8917974S
p6063
sa(dp6064
g47
I313138863
sg48
(dp6065
g50
VE6 Cratos HCS
p6066
sg52
Nssg53
(lp6067
I1095363701
asg41
VWeaponPickup
p6068
sg44
VPT10M19.3088445S
p6069
sa(dp6070
g47
I4096745987
sg48
(dp6071
g50
VE6 Cratos HCS
p6072
sg52
Nssg53
(lp6073
I2758383128
asg41
VWeaponPickup
p6074
sg44
VPT10M19.3088445S
p6075
sa(dp6076
g41
VPlayerSpawn
p6077
sg48
(dp6078
g50
VE6 Cratos HCS
p6079
sg52
Nssg44
VPT10M19.3088445S
p6080
sa(dp6081
g47
I313138863
sg48
(dp6082
g50
VALG RyaNoob
p6083
sg52
Nssg53
(lp6084
I1095363701
asg41
VWeaponPickup
p6085
sg44
VPT10M24.6250098S
p6086
sa(dp6087
g47
I4096745987
sg48
(dp6088
g50
VALG RyaNoob
p6089
sg52
Nssg53
(lp6090
I2758383128
asg41
VWeaponPickup
p6091
sg44
VPT10M24.6250098S
p6092
sa(dp6093
g41
VPlayerSpawn
p6094
sg48
(dp6095
g50
VALG RyaNoob
p6096
sg52
Nssg44
VPT10M24.6250098S
p6097
sa(dp6098
g242
I424645655
sg243
I00
sg244
I00
sg245
(dp6099
g50
VE6 Shooter
p6100
sg52
Nssg248
(lp6101
I1327094800
asg250
I00
sg251
I00
sg252
I2
sg253
I0
sg254
I0
sg255
(dp6102
Vy
F-5.6010975800000002
sVx
F12.762966199999999
sVz
F1.72985363
ssg257
(dp6103
Vy
F-4.2824597400000002
sVx
F21.142859999999999
sVz
F1.2092140899999999
ssg259
I00
sg260
(dp6104
g262
g263
ssg264
(lp6105
sg266
(lp6106
sg268
I00
sg44
VPT10M25.6910229S
p6107
sg41
VDeath
p6108
sg271
I1
sa(dp6109
g242
I47178948
sg243
I00
sg244
I00
sg245
(dp6110
g50
VE6 Shooter
p6111
sg52
Nssg248
(lp6112
sg250
I00
sg251
I01
sg252
I1
sg253
I0
sg254
I1
sg255
(dp6113
Vy
F-5.6010975800000002
sVx
F12.762966199999999
sVz
F1.72985363
ssg257
(dp6114
Vy
F-4.2219424200000004
sVx
F22.00451
sVz
F0.73184514000000001
ssg259
I00
sg260
(dp6115
g50
VALGPredevonator
p6116
sg52
Nssg264
(lp6117
sg266
(lp6118
(dp6119
g50
VE6 Huke HCS
p6120
sg52
Nsasg268
I00
sg44
VPT10M25.6910229S
p6121
sg41
VDeath
p6122
sg271
I1
sa(dp6123
g47
I4096745987
sg41
VWeaponDrop
p6124
sg189
I2
sg53
(lp6125
I2758383128
asg44
VPT10M25.6940487S
p6126
sg192
I1
sg193
VP0DT0H0M7.2167S
p6127
sg48
(dp6128
g50
VALGPredevonator
p6129
sg52
Nssa(dp6130
g47
I313138863
sg41
VWeaponDrop
p6131
sg189
I0
sg53
(lp6132
I1095363701
asg44
VPT10M25.6940487S
p6133
sg192
I0
sg193
VP0DT0H0M0.5833S
p6134
sg48
(dp6135
g50
VALGPredevonator
p6136
sg52
Nssa(dp6137
g242
I4096745987
sg243
I00
sg244
I00
sg245
(dp6138
g50
VALG ContrA HCS
p6139
sg52
Nssg248
(lp6140
I2758383128
asg250
I00
sg251
I01
sg252
I1
sg253
I0
sg254
I1
sg255
(dp6141
Vy
F4.4194073700000001
sVx
F20.324972200000001
sVz
F-0.00590232
ssg257
(dp6142
Vy
F-4.3148813199999996
sVx
F15.8058
sVz
F1.77804494
ssg259
I00
sg260
(dp6143
g50
VE6 Shooter
p6144
sg52
Nssg264
(lp6145
sg266
(lp6146
(dp6147
g50
VALG Heinz HCS
p6148
sg52
Nsa(dp6149
g50
VALG RyaNoob
p6150
sg52
Nsasg268
I01
sg44
VPT10M28.8241242S
p6151
sg41
VDeath
p6152
sg271
I1
sa(dp6153
g41
VImpulse
p6154
sg48
(dp6155
g50
VALG ContrA HCS
p6156
sg52
Nssg981
I2556889090
sg44
VPT10M28.8251258S
p6157
sa(dp6158
g41
VMedal
p6159
sg48
(dp6160
g50
VALG ContrA HCS
p6161
sg52
Nssg290
I2838259753
sg44
VPT10M28.8251258S
p6162
sa(dp6163
g41
VMedal
p6164
sg48
(dp6165
g50
VALG ContrA HCS
p6166
sg52
Nssg290
I3261908037
sg44
VPT10M28.8261482S
p6167
sa(dp6168
g47
I313138863
sg41
VWeaponDrop
p6169
sg189
I0
sg53
(lp6170
I1095363701
asg44
VPT10M28.8391458S
p6171
sg192
I0
sg193
VP0DT0H0M5.6500S
p6172
sg48
(dp6173
g50
VE6 Shooter
p6174
sg52
Nssa(dp6175
g47
I424645655
sg41
VWeaponDrop
p6176
sg189
I18
sg53
(lp6177
I1327094800
asg44
VPT10M28.8391458S
p6178
sg192
I11
sg193
VP0DT0H0M33.5500S
p6179
sg48
(dp6180
g50
VE6 Shooter
p6181
sg52
Nssa(dp6182
g47
I424645655
sg41
VWeaponDrop
p6183
sg189
I0
sg53
(lp6184
I1327094800
asg44
VPT10M28.8391458S
p6185
sg192
I0
sg193
VP0DT0S
p6186
sg48
(dp6187
g50
VE6 Shooter
p6188
sg52
Nssa(dp6189
g47
I313138863
sg41
VWeaponDrop
p6190
sg189
I0
sg53
(lp6191
I1095363701
asg44
VPT10M30.5242049S
p6192
sg192
I0
sg193
VP0DT0H0M0.7000S
p6193
sg48
(dp6194
g50
VE6 Huke HCS
p6195
sg52
Nssa(dp6196
g47
I4096745987
sg48
(dp6197
g50
VE6 Huke HCS
p6198
sg52
Nssg53
(lp6199
I2758383128
asg41
VWeaponPickup
p6200
sg44
VPT10M30.5242049S
p6201
sa(dp6202
g47
I4096745987
sg41
VWeaponDrop
p6203
sg189
I0
sg53
(lp6204
I2758383128
asg44
VPT10M31.6402383S
p6205
sg192
I0
sg193
VP0DT0H0M1.1167S
p6206
sg48
(dp6207
g50
VE6 Huke HCS
p6208
sg52
Nssa(dp6209
g47
I723388907
sg48
(dp6210
g50
VE6 Huke HCS
p6211
sg52
Nssg53
(lp6212
I89283061
asg41
VWeaponPickup
p6213
sg44
VPT10M31.6402383S
p6214
sa(dp6215
g47
I313138863
sg48
(dp6216
g50
VALGPredevonator
p6217
sg52
Nssg53
(lp6218
I1095363701
asg41
VWeaponPickup
p6219
sg44
VPT10M33.7083046S
p6220
sa(dp6221
g47
I4096745987
sg48
(dp6222
g50
VALGPredevonator
p6223
sg52
Nssg53
(lp6224
I2758383128
asg41
VWeaponPickup
p6225
sg44
VPT10M33.7083046S
p6226
sa(dp6227
g41
VPlayerSpawn
p6228
sg48
(dp6229
g50
VALGPredevonator
p6230
sg52
Nssg44
VPT10M33.7083046S
p6231
sa(dp6232
g47
I313138863
sg48
(dp6233
g50
VE6 Shooter
p6234
sg52
Nssg53
(lp6235
I1095363701
asg41
VWeaponPickup
p6236
sg44
VPT10M36.8413814S
p6237
sa(dp6238
g47
I4096745987
sg48
(dp6239
g50
VE6 Shooter
p6240
sg52
Nssg53
(lp6241
I2758383128
asg41
VWeaponPickup
p6242
sg44
VPT10M36.8424042S
p6243
sa(dp6244
g41
VPlayerSpawn
p6245
sg48
(dp6246
g50
VE6 Shooter
p6247
sg52
Nssg44
VPT10M36.8424042S
p6248
sa(dp6249
g47
I313138863
sg41
VWeaponDrop
p6250
sg189
I0
sg53
(lp6251
I1095363701
asg44
VPT10M37.1734098S
p6252
sg192
I0
sg193
VP0DT0H0M8.5167S
p6253
sg48
(dp6254
g50
VALG Heinz HCS
p6255
sg52
Nssa(dp6256
g47
I723388907
sg48
(dp6257
g50
VALG Heinz HCS
p6258
sg52
Nssg53
(lp6259
I89283061
asg41
VWeaponPickup
p6260
sg44
VPT10M37.1734098S
p6261
sa(dp6262
g47
I4096745987
sg41
VWeaponDrop
p6263
sg189
I0
sg53
(lp6264
I2758383128
asg44
VPT10M38.5564631S
p6265
sg192
I0
sg193
VP0DT0H0M4.1333S
p6266
sg48
(dp6267
g50
VALGPredevonator
p6268
sg52
Nssa(dp6269
g47
I424645655
sg48
(dp6270
g50
VALGPredevonator
p6271
sg52
Nssg53
(lp6272
I1327094800
asg41
VWeaponPickup
p6273
sg44
VPT10M38.5574606S
p6274
sa(dp6275
g47
I424645655
sg41
VWeaponDrop
p6276
sg189
I0
sg53
(lp6277
I1327094800
asg44
VPT10M39.3904627S
p6278
sg192
I0
sg193
VP0DT0H0M0.8333S
p6279
sg48
(dp6280
g50
VALGPredevonator
p6281
sg52
Nssa(dp6282
g47
I4096745987
sg48
(dp6283
g50
VALGPredevonator
p6284
sg52
Nssg53
(lp6285
I2758383128
asg41
VWeaponPickup
p6286
sg44
VPT10M39.3904627S
p6287
sa(dp6288
g47
I313138863
sg41
VWeaponDrop
p6289
sg189
I0
sg53
(lp6290
I1095363701
asg44
VPT10M41.1735186S
p6291
sg192
I0
sg193
VP0DT0H0M1.1000S
p6292
sg48
(dp6293
g50
VE6 Cratos HCS
p6294
sg52
Nssa(dp6295
g47
I1579758889
sg48
(dp6296
g50
VE6 Cratos HCS
p6297
sg52
Nssg53
(lp6298
I2758383128
asg41
VWeaponPickup
p6299
sg44
VPT10M41.1735186S
p6300
sa(dp6301
g47
I313138863
sg41
VWeaponDrop
p6302
sg189
I0
sg53
(lp6303
I1095363701
asg44
VPT10M42.2235741S
p6304
sg192
I0
sg193
VP0DT0H0M0.9833S
p6305
sg48
(dp6306
g50
VE6 Shooter
p6307
sg52
Nssa(dp6308
g47
I524558978
sg48
(dp6309
g50
VE6 Shooter
p6310
sg52
Nssg53
(lp6311
I2758383128
asg41
VWeaponPickup
p6312
sg44
VPT10M42.2235741S
p6313
sa(dp6314
g47
I4096745987
sg41
VWeaponDrop
p6315
sg189
I0
sg53
(lp6316
I2758383128
asg44
VPT10M42.856593S
p6317
sg192
I0
sg193
VP0DT0H0M4.5500S
p6318
sg48
(dp6319
g50
VE6 Shooter
p6320
sg52
Nssa(dp6321
g47
I424645655
sg48
(dp6322
g50
VE6 Shooter
p6323
sg52
Nssg53
(lp6324
I1327094800
asg41
VWeaponPickup
p6325
sg44
VPT10M42.856593S
p6326
sa(dp6327
g47
I4096745987
sg41
VWeaponDrop
p6328
sg189
I2
sg53
(lp6329
I2758383128
asg44
VPT10M42.8575951S
p6330
sg192
I0
sg193
VP0DT0H0M15.1000S
p6331
sg48
(dp6332
g50
VALG RyaNoob
p6333
sg52
Nssa(dp6334
g47
I424645655
sg48
(dp6335
g50
VALG RyaNoob
p6336
sg52
Nssg53
(lp6337
I1327094800
asg41
VWeaponPickup
p6338
sg44
VPT10M42.8575951S
p6339
sa(dp6340
g47
I4096745987
sg41
VWeaponDrop
p6341
sg189
I17
sg53
(lp6342
I2758383128
asg44
VPT10M48.0067598S
p6343
sg192
I11
sg193
VP0DT0H0M51.7500S
p6344
sg48
(dp6345
g50
VALG Heinz HCS
p6346
sg52
Nssa(dp6347
g47
I424645655
sg48
(dp6348
g50
VALG Heinz HCS
p6349
sg52
Nssg53
(lp6350
I1327094800
asg41
VWeaponPickup
p6351
sg44
VPT10M48.0067598S
p6352
sa(dp6353
g47
I424645655
sg41
VWeaponDrop
p6354
sg189
I0
sg53
(lp6355
I1327094800
asg44
VPT10M49.1068017S
p6356
sg192
I0
sg193
VP0DT0H0M1.1000S
p6357
sg48
(dp6358
g50
VALG Heinz HCS
p6359
sg52
Nssa(dp6360
g47
I4096745987
sg48
(dp6361
g50
VALG Heinz HCS
p6362
sg52
Nssg53
(lp6363
I2758383128
asg41
VWeaponPickup
p6364
sg44
VPT10M49.1068017S
p6365
sa(dp6366
g41
VMedal
p6367
sg48
(dp6368
g50
VE6 Huke HCS
p6369
sg52
Nssg290
I1691836029
sg44
VPT10M49.723793S
p6370
sa(dp6371
g47
I2492868984
sg48
(dp6372
g50
VE6 bubu dubu
p6373
sg52
Nssg53
(lp6374
I2758383128
asg41
VWeaponPickup
p6375
sg44
VPT10M52.2238733S
p6376
sa(dp6377
g47
I2492868984
sg41
VWeaponDrop
p6378
sg189
I0
sg53
(lp6379
I2758383128
asg44
VPT10M53.3749096S
p6380
sg192
I0
sg193
VP0DT0H0M0.9833S
p6381
sg48
(dp6382
g50
VE6 bubu dubu
p6383
sg52
Nssa(dp6384
g242
I424645655
sg243
I00
sg244
I00
sg245
(dp6385
g50
VE6 Huke HCS
p6386
sg52
Nssg248
(lp6387
I1327094800
asg250
I00
sg251
I01
sg252
I1
sg253
I0
sg254
I1
sg255
(dp6388
Vy
F7.9023575800000003
sVx
F0.56727450000000001
sVz
F2.2254649999999998
ssg257
(dp6389
Vy
F6.1925177600000003
sVx
F7.3174343100000003
sVz
F-0.044014707200000003
ssg259
I00
sg260
(dp6390
g50
VALG ContrA HCS
p6391
sg52
Nssg264
(lp6392
sg266
(lp6393
(dp6394
g50
VE6 bubu dubu
p6395
sg52
Nsasg268
I01
sg44
VPT10M58.6580788S
p6396
sg41
VDeath
p6397
sg271
I1
sa(dp6398
g41
VMedal
p6399
sg48
(dp6400
g50
VE6 Huke HCS
p6401
sg52
Nssg290
I3261908037
sg44
VPT10M58.660103S
p6402
sa(dp6403
g47
I313138863
sg41
VWeaponDrop
p6404
sg189
I3
sg53
(lp6405
I1095363701
asg44
VPT10M58.660103S
p6406
sg192
I0
sg193
VP0DT0H0M7.5500S
p6407
sg48
(dp6408
g50
VALG ContrA HCS
p6409
sg52
Nssa(dp6410
g47
I4096745987
sg41
VWeaponDrop
p6411
sg189
I13
sg53
(lp6412
I2758383128
asg44
VPT10M58.660103S
p6413
sg192
I3
sg193
VP0DT0H0M53.0000S
p6414
sg48
(dp6415
g50
VALG ContrA HCS
p6416
sg52
Nssa(dp6417
g242
I723388907
sg243
I00
sg244
I01
sg245
(dp6418
g50
VE6 bubu dubu
p6419
sg52
Nssg248
(lp6420
I89283061
asg250
I00
sg251
I00
sg252
I1
sg253
I0
sg254
I1
sg255
(dp6421
Vy
F3.2416393800000001
sVx
F8.2227999999999994
sVz
F0.0054317712799999999
ssg257
(dp6422
Vy
F3.2662706400000001
sVx
F7.8073940000000004
sVz
F0.031568350000000002
ssg259
I00
sg260
(dp6423
g50
VALG RyaNoob
p6424
sg52
Nssg264
(lp6425
sg266
(lp6426
(dp6427
g50
VE6 Huke HCS
p6428
sg52
Nsasg268
I00
sg44
VPT11M3.9253825S
p6429
sg41
VDeath
p6430
sg271
I1
sa(dp6431
g41
VMedal
p6432
sg48
(dp6433
g50
VE6 bubu dubu
p6434
sg52
Nssg290
I2287626681
sg44
VPT11M3.9262675S
p6435
sa(dp6436
g47
I424645655
sg41
VWeaponDrop
p6437
sg189
I24
sg53
(lp6438
I1327094800
asg44
VPT11M3.9272668S
p6439
sg192
I15
sg193
VP0DT0H0M21.0667S
p6440
sg48
(dp6441
g50
VALG RyaNoob
p6442
sg52
Nssa(dp6443
g47
I313138863
sg41
VWeaponDrop
p6444
sg189
I11
sg53
(lp6445
I1095363701
asg44
VPT11M3.9272668S
p6446
sg192
I4
sg193
VP0DT0H0M3.1333S
p6447
sg48
(dp6448
g50
VALG RyaNoob
p6449
sg52
Nssa(dp6450
g47
I313138863
sg48
(dp6451
g50
VALG ContrA HCS
p6452
sg52
Nssg53
(lp6453
I1095363701
asg41
VWeaponPickup
p6454
sg44
VPT11M6.6753556S
p6455
sa(dp6456
g47
I4096745987
sg48
(dp6457
g50
VALG ContrA HCS
p6458
sg52
Nssg53
(lp6459
I2758383128
asg41
VWeaponPickup
p6460
sg44
VPT11M6.6753556S
p6461
sa(dp6462
g41
VPlayerSpawn
p6463
sg48
(dp6464
g50
VALG ContrA HCS
p6465
sg52
Nssg44
VPT11M6.6753556S
p6466
sa(dp6467
g242
I424645655
sg243
I00
sg244
I00
sg245
(dp6468
g50
VE6 Huke HCS
p6469
sg52
Nssg248
(lp6470
I1327094800
asg250
I00
sg251
I01
sg252
I1
sg253
I0
sg254
I1
sg255
(dp6471
Vy
F8.5508690000000005
sVx
F7.7766475699999997
sVz
F3.19678116
ssg257
(dp6472
Vy
F-4.5055040000000002
sVx
F16.396987899999999
sVz
F1.6750004300000001
ssg259
I00
sg260
(dp6473
g50
VALGPredevonator
p6474
sg52
Nssg264
(lp6475
sg266
(lp6476
(dp6477
g50
VE6 Cratos HCS
p6478
sg52
Nsasg268
I01
sg44
VPT11M9.2244167S
p6479
sg41
VDeath
p6480
sg271
I1
sa(dp6481
g41
VImpulse
p6482
sg48
(dp6483
g50
VE6 Huke HCS
p6484
sg52
Nssg981
I2556889090
sg44
VPT11M9.2244167S
p6485
sa(dp6486
g41
VMedal
p6487
sg48
(dp6488
g50
VE6 Huke HCS
p6489
sg52
Nssg290
I352859864
sg44
VPT11M9.2244167S
p6490
sa(dp6491
g41
VMedal
p6492
sg48
(dp6493
g50
VE6 Huke HCS
p6494
sg52
Nssg290
I3318955876
sg44
VPT11M9.2244167S
p6495
sa(dp6496
g41
VMedal
p6497
sg48
(dp6498
g50
VE6 Huke HCS
p6499
sg52
Nssg290
I3261908037
sg44
VPT11M9.2264517S
p6500
sa(dp6501
g47
I313138863
sg41
VWeaponDrop
p6502
sg189
I14
sg53
(lp6503
I1095363701
asg44
VPT11M9.2264517S
p6504
sg192
I9
sg193
VP0DT0H0M3.2167S
p6505
sg48
(dp6506
g50
VALGPredevonator
p6507
sg52
Nssa(dp6508
g47
I4096745987
sg41
VWeaponDrop
p6509
sg189
I9
sg53
(lp6510
I2758383128
asg44
VPT11M9.2264517S
p6511
sg192
I6
sg193
VP0DT0H0M27.3333S
p6512
sg48
(dp6513
g50
VALGPredevonator
p6514
sg52
Nssa(dp6515
g242
I723388907
sg243
I00
sg244
I00
sg245
(dp6516
g50
VALG Heinz HCS
p6517
sg52
Nssg248
(lp6518
I89283061
asg250
I00
sg251
I01
sg252
I1
sg253
I0
sg254
I1
sg255
(dp6519
Vy
F-4.6969890000000003
sVx
F7.3121200000000002
sVz
F1.190013
ssg257
(dp6520
Vy
F-3.06692052
sVx
F13.050229099999999
sVz
F3.1701834199999999
ssg259
I00
sg260
(dp6521
g50
VE6 Cratos HCS
p6522
sg52
Nssg264
(lp6523
sg266
(lp6524
(dp6525
g50
VALGPredevonator
p6526
sg52
Nsasg268
I00
sg44
VPT11M9.310441S
p6527
sg41
VDeath
p6528
sg271
I1
sa(dp6529
g41
VMedal
p6530
sg48
(dp6531
g50
VALG Heinz HCS
p6532
sg52
Nssg290
I3698887726
sg44
VPT11M9.3134392S
p6533
sa(dp6534
g47
I4096745987
sg41
VWeaponDrop
p6535
sg189
I24
sg53
(lp6536
I2758383128
asg44
VPT11M9.314441S
p6537
sg192
I10
sg193
VP0DT0H0M48.3333S
p6538
sg48
(dp6539
g50
VE6 Cratos HCS
p6540
sg52
Nssa(dp6541
g47
I1579758889
sg41
VWeaponDrop
p6542
sg189
I0
sg53
(lp6543
I2758383128
asg44
VPT11M9.3164227S
p6544
sg192
I0
sg193
VP0DT0H0M0.5667S
p6545
sg48
(dp6546
g50
VE6 Cratos HCS
p6547
sg52
Nssa(dp6548
g41
VRoundEnd
p6549
sg43
I0
sg44
VPT11M9.3244201S
p6550
sassba.