(lp1
cnumpy.core.multiarray
_reconstruct
p2
(cnumpy
ndarray
p3
(I0
tS'b'
tRp4
(I1
(I4
tcnumpy
dtype
p5
(S'U36'
I0
I1
tRp6
(I3
S'<'
NNNI144
I4
I8
tbI00
S'2\x00\x00\x000\x00\x00\x001\x00\x00\x006\x00\x00\x00-\x00\x00\x000\x00\x00\x007\x00\x00\x00-\x00\x00\x000\x00\x00\x009\x00\x00\x00\x00\x00\x00\x00\x00\x00\x00\x00\x00\x00\x00\x00\x00\x00\x00\x00\x00\x00\x00\x00\x00\x00\x00\x00\x00\x00\x00\x00\x00\x00\x00\x00\x00\x00\x00\x00\x00\x00\x00\x00\x00\x00\x00\x00\x00\x00\x00\x00\x00\x00\x00\x00\x00\x00\x00\x00\x00\x00\x00\x00\x00\x00\x00\x00\x00\x00\x00\x00\x00\x00\x00\x00\x00\x00\x00\x00\x00\x00\x00\x00\x00\x00\x00\x00\x00\x00\x00\x00\x00\x00\x00\x00\x00\x00\x00\x00\x00\x00\x00\x00\x00\x00\x00\x00E\x00\x00\x00m\x00\x00\x00p\x00\x00\x00i\x00\x00\x00r\x00\x00\x00e\x00\x00\x00\x00\x00\x00\x00\x00\x00\x00\x00\x00\x00\x00\x00\x00\x00\x00\x00\x00\x00\x00\x00\x00\x00\x00\x00\x00\x00\x00\x00\x00\x00\x00\x00\x00\x00\x00\x00\x00\x00\x00\x00\x00\x00\x00\x00\x00\x00\x00\x00\x00\x00\x00\x00\x00\x00\x00\x00\x00\x00\x00\x00\x00\x00\x00\x00\x00\x00\x00\x00\x00\x00\x00\x00\x00\x00\x00\x00\x00\x00\x00\x00\x00\x00\x00\x00\x00\x00\x00\x00\x00\x00\x00\x00\x00\x00\x00\x00\x00\x00\x00\x00\x00\x00\x00\x00\x00\x00\x00\x00\x00\x00\x00\x00\x00\x00\x00\x00\x00\x00\x00\x00S\x00\x00\x00t\x00\x00\x00r\x00\x00\x00o\x00\x00\x00n\x00\x00\x00g\x00\x00\x00h\x00\x00\x00o\x00\x00\x00l\x00\x00\x00d\x00\x00\x00s\x00\x00\x00\x00\x00\x00\x00\x00\x00\x00\x00\x00\x00\x00\x00\x00\x00\x00\x00\x00\x00\x00\x00\x00\x00\x00\x00\x00\x00\x00\x00\x00\x00\x00\x00\x00\x00\x00\x00\x00\x00\x00\x00\x00\x00\x00\x00\x00\x00\x00\x00\x00\x00\x00\x00\x00\x00\x00\x00\x00\x00\x00\x00\x00\x00\x00\x00\x00\x00\x00\x00\x00\x00\x00\x00\x00\x00\x00\x00\x00\x00\x00\x00\x00\x00\x00\x00\x00\x00\x00\x00\x00\x00\x00\x00\x00\x00\x00\x00\x00\x00\x00\x007\x00\x00\x00c\x00\x00\x002\x00\x00\x006\x00\x00\x00d\x00\x00\x003\x00\x00\x00e\x00\x00\x00f\x00\x00\x00-\x00\x00\x009\x00\x00\x002\x00\x00\x006\x00\x00\x00f\x00\x00\x00-\x00\x00\x004\x00\x00\x00e\x00\x00\x00b\x00\x00\x00a\x00\x00\x00-\x00\x00\x008\x00\x00\x005\x00\x00\x00e\x00\x00\x00e\x00\x00\x00-\x00\x00\x003\x00\x00\x00c\x00\x00\x00b\x00\x00\x001\x00\x00\x004\x00\x00\x00f\x00\x00\x008\x00\x00\x00b\x00\x00\x002\x00\x00\x000\x00\x00\x001\x00\x00\x004\x00\x00\x00'
tba(lp7
S'nv'
p8
aS'rng'
p9
aaccopy_reg
_reconstructor
p10
(c__main__
match_breakdown
p11
c__builtin__
object
p12
NtRp13
(dp14
S'details'
p15
(dp16
VIsCompleteSetOfEvents
p17
I01
sVLinks
p18
(dp19
VUgcFilmManifest
p20
(dp21
VAuthenticationLifetimeExtensionSupported
p22
I00
sVQueryString
p23
V?view=film-manifest
p24
sVRetryPolicyId
p25
Vexponentialretry
p26
sVPath
p27
V/h5/films/7c26d3ef-926f-4eba-85ee-3cb14f8b2014
p28
sVAcknowledgementTypeId
p29
I0
sVAuthorityId
p30
Vugc
p31
sVTopicName
p32
V
ssVStatsMatchDetails
p33
(dp34
g22
I00
sg23
Nsg25
Vexponentialretry
p35
sg27
Vh5/custom/matches/7c26d3ef-926f-4eba-85ee-3cb14f8b2014
p36
sg29
I0
sg30
Vspartanstats
p37
sg32
V
sssVGameEvents
p38
(lp39
(dp40
VEventName
p41
VRoundStart
p42
sVRoundIndex
p43
I0
sVTimeSinceStart
p44
VPT0.0580025S
p45
sa(dp46
VWeaponStockId
p47
I313138863
sVPlayer
p48
(dp49
VGamertag
p50
VRNG Commonly
p51
sVXuid
p52
NssVWeaponAttachmentIds
p53
(lp54
I1095363701
asg41
VWeaponPickup
p55
sg44
VPT18.1675819S
p56
sa(dp57
g47
I4096745987
sg48
(dp58
g50
VRNG Commonly
p59
sg52
Nssg53
(lp60
I2758383128
asg41
VWeaponPickup
p61
sg44
VPT18.1675819S
p62
sa(dp63
g41
VPlayerSpawn
p64
sg48
(dp65
g50
VRNG Commonly
p66
sg52
Nssg44
VPT18.1675819S
p67
sa(dp68
g47
I313138863
sg48
(dp69
g50
VnV RayneHCS
p70
sg52
Nssg53
(lp71
I1095363701
asg41
VWeaponPickup
p72
sg44
VPT18.1835826S
p73
sa(dp74
g47
I4096745987
sg48
(dp75
g50
VnV RayneHCS
p76
sg52
Nssg53
(lp77
I2758383128
asg41
VWeaponPickup
p78
sg44
VPT18.1835826S
p79
sa(dp80
g41
VPlayerSpawn
p81
sg48
(dp82
g50
VnV RayneHCS
p83
sg52
Nssg44
VPT18.1835826S
p84
sa(dp85
g47
I313138863
sg48
(dp86
g50
VnV Pistola HCS
p87
sg52
Nssg53
(lp88
I1095363701
asg41
VWeaponPickup
p89
sg44
VPT18.2005832S
p90
sa(dp91
g47
I4096745987
sg48
(dp92
g50
VnV Pistola HCS
p93
sg52
Nssg53
(lp94
I2758383128
asg41
VWeaponPickup
p95
sg44
VPT18.2005832S
p96
sa(dp97
g41
VPlayerSpawn
p98
sg48
(dp99
g50
VnV Pistola HCS
p100
sg52
Nssg44
VPT18.2005832S
p101
sa(dp102
g47
I313138863
sg48
(dp103
g50
VnV eL ToWn
p104
sg52
Nssg53
(lp105
I1095363701
asg41
VWeaponPickup
p106
sg44
VPT18.2165833S
p107
sa(dp108
g47
I4096745987
sg48
(dp109
g50
VnV eL ToWn
p110
sg52
Nssg53
(lp111
I2758383128
asg41
VWeaponPickup
p112
sg44
VPT18.2175833S
p113
sa(dp114
g41
VPlayerSpawn
p115
sg48
(dp116
g50
VnV eL ToWn
p117
sg52
Nssg44
VPT18.2175833S
p118
sa(dp119
g47
I313138863
sg48
(dp120
g50
VnV Mikwen HCS
p121
sg52
Nssg53
(lp122
I1095363701
asg41
VWeaponPickup
p123
sg44
VPT18.2335841S
p124
sa(dp125
g47
I4096745987
sg48
(dp126
g50
VnV Mikwen HCS
p127
sg52
Nssg53
(lp128
I2758383128
asg41
VWeaponPickup
p129
sg44
VPT18.2335841S
p130
sa(dp131
g41
VPlayerSpawn
p132
sg48
(dp133
g50
VnV Mikwen HCS
p134
sg52
Nssg44
VPT18.2335841S
p135
sa(dp136
g47
I313138863
sg48
(dp137
g50
VRNG Ninja HCS
p138
sg52
Nssg53
(lp139
I1095363701
asg41
VWeaponPickup
p140
sg44
VPT18.250585S
p141
sa(dp142
g47
I4096745987
sg48
(dp143
g50
VRNG Ninja HCS
p144
sg52
Nssg53
(lp145
I2758383128
asg41
VWeaponPickup
p146
sg44
VPT18.250585S
p147
sa(dp148
g41
VPlayerSpawn
p149
sg48
(dp150
g50
VRNG Ninja HCS
p151
sg52
Nssg44
VPT18.250585S
p152
sa(dp153
g47
I313138863
sg48
(dp154
g50
VRNG Penguin HCS
p155
sg52
Nssg53
(lp156
I1095363701
asg41
VWeaponPickup
p157
sg44
VPT18.2675851S
p158
sa(dp159
g47
I4096745987
sg48
(dp160
g50
VRNG Penguin HCS
p161
sg52
Nssg53
(lp162
I2758383128
asg41
VWeaponPickup
p163
sg44
VPT18.2675851S
p164
sa(dp165
g41
VPlayerSpawn
p166
sg48
(dp167
g50
VRNG Penguin HCS
p168
sg52
Nssg44
VPT18.2675851S
p169
sa(dp170
g47
I313138863
sg48
(dp171
g50
VRNG Victory X
p172
sg52
Nssg53
(lp173
I1095363701
asg41
VWeaponPickup
p174
sg44
VPT18.2835929S
p175
sa(dp176
g47
I4096745987
sg48
(dp177
g50
VRNG Victory X
p178
sg52
Nssg53
(lp179
I2758383128
asg41
VWeaponPickup
p180
sg44
VPT18.2835929S
p181
sa(dp182
g41
VPlayerSpawn
p183
sg48
(dp184
g50
VRNG Victory X
p185
sg52
Nssg44
VPT18.2835929S
p186
sa(dp187
VKillerWeaponStockId
p188
I4096745987
sVIsAssassination
p189
I00
sVIsMelee
p190
I00
sVKiller
p191
(dp192
g50
VRNG Ninja HCS
p193
sg52
NssVKillerWeaponAttachmentIds
p194
(lp195
I2758383128
asVIsGroundPound
p196
I00
sVIsWeapon
p197
I01
sVDeathDisposition
p198
I1
sVVictimStockId
p199
I0
sVVictimAgent
p200
I1
sVKillerWorldLocation
p201
(dp202
Vy
F1.68985045
sVx
F7.4897632600000001
sVz
F-0.47494249999999999
ssVVictimWorldLocation
p203
(dp204
Vy
F-8.959346
sVx
F10.4559593
sVz
F0.52579295599999998
ssVIsShoulderBash
p205
I00
sVVictim
p206
(dp207
g50
VnV Pistola HCS
p208
sg52
NssVVictimAttachmentIds
p209
(lp210
sVAssistants
p211
(lp212
sVIsHeadshot
p213
I01
sg44
VPT23.5687542S
p214
sg41
VDeath
p215
sVKillerAgent
p216
I1
sa(dp217
g41
VImpulse
p218
sg48
(dp219
g50
VRNG Ninja HCS
p220
sg52
NssVImpulseId
p221
I3174430457
sg44
VPT23.570754S
p222
sa(dp223
g41
VMedal
p224
sg48
(dp225
g50
VRNG Ninja HCS
p226
sg52
NssVMedalId
p227
I3653057799
sg44
VPT23.5737549S
p228
sa(dp229
g41
VMedal
p230
sg48
(dp231
g50
VRNG Ninja HCS
p232
sg52
Nssg227
I3001183151
sg44
VPT23.5737549S
p233
sa(dp234
g47
I313138863
sg41
VWeaponDrop
p235
sVShotsFired
p236
I0
sg53
(lp237
I1095363701
asg44
VPT23.5767546S
p238
sVShotsLanded
p239
I0
sVTimeWeaponActiveAsPrimary
p240
VP0DT0H0M1.3500S
p241
sg48
(dp242
g50
VnV Pistola HCS
p243
sg52
Nssa(dp244
g47
I4096745987
sg41
VWeaponDrop
p245
sg236
I5
sg53
(lp246
I2758383128
asg44
VPT23.5767546S
p247
sg239
I4
sg240
VP0DT0H0M4.0167S
p248
sg48
(dp249
g50
VnV Pistola HCS
p250
sg52
Nssa(dp251
g188
I4096745987
sg189
I00
sg190
I00
sg191
(dp252
g50
VnV Mikwen HCS
p253
sg52
Nssg194
(lp254
I2758383128
asg196
I00
sg197
I01
sg198
I1
sg199
I0
sg200
I1
sg201
(dp255
Vy
F-3.54996848
sVx
F-0.26485234499999999
sVz
F1.35548
ssg203
(dp256
Vy
F1.5856832300000001
sVx
F4.3004837
sVz
F0.4367162
ssg205
I00
sg206
(dp257
g50
VRNG Ninja HCS
p258
sg52
Nssg209
(lp259
sg211
(lp260
(dp261
g50
VnV Pistola HCS
p262
sg52
Nsasg213
I01
sg44
VPT26.7168557S
p263
sg41
VDeath
p264
sg216
I1
sa(dp265
g41
VMedal
p266
sg48
(dp267
g50
VnV Mikwen HCS
p268
sg52
Nssg227
I3261908037
sg44
VPT26.7188558S
p269
sa(dp270
g47
I313138863
sg41
VWeaponDrop
p271
sg236
I0
sg53
(lp272
I1095363701
asg44
VPT26.7198554S
p273
sg239
I0
sg240
VP0DT0H0M0.9500S
p274
sg48
(dp275
g50
VRNG Ninja HCS
p276
sg52
Nssa(dp277
g47
I4096745987
sg41
VWeaponDrop
p278
sg236
I10
sg53
(lp279
I2758383128
asg44
VPT26.7198554S
p280
sg239
I7
sg240
VP0DT0H0M7.5167S
p281
sg48
(dp282
g50
VRNG Ninja HCS
p283
sg52
Nssa(dp284
g188
I3190813201
sg189
I00
sg190
I00
sg191
(dp285
g50
VnV eL ToWn
p286
sg52
Nssg194
(lp287
sg196
I00
sg197
I01
sg198
I1
sg199
I0
sg200
I1
sg201
(dp288
Vy
F-3.4166834399999999
sVx
F16.943777099999998
sVz
F1.8688297300000001
ssg203
(dp289
Vy
F-1.30029869
sVx
F17.826534299999999
sVz
F0.80044466299999995
ssg205
I00
sg206
(dp290
g50
VRNG Penguin HCS
p291
sg52
Nssg209
(lp292
sg211
(lp293
sg213
I00
sg44
VPT27.6338854S
p294
sg41
VDeath
p295
sg216
I1
sa(dp296
g47
I313138863
sg41
VWeaponDrop
p297
sg236
I10
sg53
(lp298
I1095363701
asg44
VPT27.6358846S
p299
sg239
I3
sg240
VP0DT0H0M4.6000S
p300
sg48
(dp301
g50
VRNG Penguin HCS
p302
sg52
Nssa(dp303
g47
I313138863
sg41
VWeaponDrop
p304
sg236
I0
sg53
(lp305
I1095363701
asg44
VPT27.6358846S
p306
sg239
I0
sg240
VP0DT0S
p307
sg48
(dp308
g50
VRNG Penguin HCS
p309
sg52
Nssa(dp310
g47
I4096745987
sg41
VWeaponDrop
p311
sg236
I0
sg53
(lp312
I2758383128
asg44
VPT27.6358846S
p313
sg239
I0
sg240
VP0DT0H0M4.7667S
p314
sg48
(dp315
g50
VRNG Penguin HCS
p316
sg52
Nssa(dp317
g188
I4096745987
sg189
I00
sg190
I00
sg191
(dp318
g50
VRNG Commonly
p319
sg52
Nssg194
(lp320
I2758383128
asg196
I00
sg197
I01
sg198
I1
sg199
I0
sg200
I1
sg201
(dp321
Vy
F5.8834714899999998
sVx
F2.0094811899999998
sVz
F0.28372144700000002
ssg203
(dp322
Vy
F-4.4169549999999997
sVx
F3.5804255
sVz
F1.1159902799999999
ssg205
I00
sg206
(dp323
g50
VnV Mikwen HCS
p324
sg52
Nssg209
(lp325
sg211
(lp326
(dp327
g50
VRNG Ninja HCS
p328
sg52
Nsasg213
I01
sg44
VPT28.0998994S
p329
sg41
VDeath
p330
sg216
I1
sa(dp331
g41
VMedal
p332
sg48
(dp333
g50
VRNG Commonly
p334
sg52
Nssg227
I3261908037
sg44
VPT28.1008989S
p335
sa(dp336
g47
I313138863
sg41
VWeaponDrop
p337
sg236
I0
sg53
(lp338
I1095363701
asg44
VPT28.1018995S
p339
sg239
I0
sg240
VP0DT0H0M1.0333S
p340
sg48
(dp341
g50
VnV Mikwen HCS
p342
sg52
Nssa(dp343
g47
I4096745987
sg41
VWeaponDrop
p344
sg236
I8
sg53
(lp345
I2758383128
asg44
VPT28.1018995S
p346
sg239
I5
sg240
VP0DT0H0M8.8333S
p347
sg48
(dp348
g50
VnV Mikwen HCS
p349
sg52
Nssa(dp350
g41
VMedal
p351
sg48
(dp352
g50
VnV eL ToWn
p353
sg52
Nssg227
I3400287617
sg44
VPT30.3319811S
p354
sa(dp355
g47
I313138863
sg41
VWeaponDrop
p356
sg236
I0
sg53
(lp357
I1095363701
asg44
VPT30.7819843S
p358
sg239
I0
sg240
VP0DT0H0M2.1333S
p359
sg48
(dp360
g50
VRNG Commonly
p361
sg52
Nssa(dp362
g47
I524558978
sg48
(dp363
g50
VRNG Commonly
p364
sg52
Nssg53
(lp365
I2758383128
asg41
VWeaponPickup
p366
sg44
VPT30.7819843S
p367
sa(dp368
g47
I313138863
sg48
(dp369
g50
VnV Pistola HCS
p370
sg52
Nssg53
(lp371
I1095363701
asg41
VWeaponPickup
p372
sg44
VPT31.5840116S
p373
sa(dp374
g47
I4096745987
sg48
(dp375
g50
VnV Pistola HCS
p376
sg52
Nssg53
(lp377
I2758383128
asg41
VWeaponPickup
p378
sg44
VPT31.5840116S
p379
sa(dp380
g41
VPlayerSpawn
p381
sg48
(dp382
g50
VnV Pistola HCS
p383
sg52
Nssg44
VPT31.5840116S
p384
sa(dp385
g47
I2492868984
sg48
(dp386
g50
VRNG Victory X
p387
sg52
Nssg53
(lp388
I2758383128
asg41
VWeaponPickup
p389
sg44
VPT32.016025S
p390
sa(dp391
g188
I4096745987
sg189
I00
sg190
I00
sg191
(dp392
g50
VnV RayneHCS
p393
sg52
Nssg194
(lp394
I2758383128
asg196
I00
sg197
I01
sg198
I1
sg199
I0
sg200
I1
sg201
(dp395
Vy
F-7.9356299999999997
sVx
F17.309932700000001
sVz
F1.59981251
ssg203
(dp396
Vy
F0.28994360000000002
sVx
F22.8574123
sVz
F1.600101
ssg205
I00
sg206
(dp397
g50
VRNG Victory X
p398
sg52
Nssg209
(lp399
sg211
(lp400
(dp401
g50
VnV eL ToWn
p402
sg52
Nsasg213
I01
sg44
VPT32.700047S
p403
sg41
VDeath
p404
sg216
I1
sa(dp405
g41
VMedal
p406
sg48
(dp407
g50
VnV RayneHCS
p408
sg52
Nssg227
I3261908037
sg44
VPT32.7020466S
p409
sa(dp410
g47
I313138863
sg41
VWeaponDrop
p411
sg236
I0
sg53
(lp412
I1095363701
asg44
VPT32.7020466S
p413
sg239
I0
sg240
VP0DT0H0M0.8167S
p414
sg48
(dp415
g50
VRNG Victory X
p416
sg52
Nssa(dp417
g47
I4096745987
sg41
VWeaponDrop
p418
sg236
I9
sg53
(lp419
I2758383128
asg44
VPT32.7020466S
p420
sg239
I4
sg240
VP0DT0H0M13.0667S
p421
sg48
(dp422
g50
VRNG Victory X
p423
sg52
Nssa(dp424
g47
I2492868984
sg41
VWeaponDrop
p425
sg236
I0
sg53
(lp426
I2758383128
asg44
VPT32.7020466S
p427
sg239
I0
sg240
VP0DT0H0M0.5333S
p428
sg48
(dp429
g50
VRNG Victory X
p430
sg52
Nssa(dp431
g188
I4096745987
sg189
I00
sg190
I00
sg191
(dp432
g50
VRNG Commonly
p433
sg52
Nssg194
(lp434
I2758383128
asg196
I00
sg197
I01
sg198
I1
sg199
I0
sg200
I1
sg201
(dp435
Vy
F-1.3374319100000001
sVx
F4.1132383299999997
sVz
F3.784895e-06
ssg203
(dp436
Vy
F3.3331008
sVx
F18.079158799999998
sVz
F1.6585257099999999
ssg205
I00
sg206
(dp437
g50
VnV eL ToWn
p438
sg52
Nssg209
(lp439
sg211
(lp440
sg213
I01
sg44
VPT33.0500583S
p441
sg41
VDeath
p442
sg216
I1
sa(dp443
g41
VMedal
p444
sg48
(dp445
g50
VRNG Commonly
p446
sg52
Nssg227
I3261908037
sg44
VPT33.0510582S
p447
sa(dp448
g41
VMedal
p449
sg48
(dp450
g50
VRNG Commonly
p451
sg52
Nssg227
I2078758684
sg44
VPT33.0510582S
p452
sa(dp453
g47
I313138863
sg41
VWeaponDrop
p454
sg236
I2
sg53
(lp455
I1095363701
asg44
VPT33.0520586S
p456
sg239
I2
sg240
VP0DT0H0M4.2667S
p457
sg48
(dp458
g50
VnV eL ToWn
p459
sg52
Nssa(dp460
g47
I313138863
sg41
VWeaponDrop
p461
sg236
I0
sg53
(lp462
I1095363701
asg44
VPT33.0520586S
p463
sg239
I0
sg240
VP0DT0S
p464
sg48
(dp465
g50
VnV eL ToWn
p466
sg52
Nssa(dp467
g47
I4096745987
sg41
VWeaponDrop
p468
sg236
I4
sg53
(lp469
I2758383128
asg44
VPT33.0520586S
p470
sg239
I2
sg240
VP0DT0H0M10.5667S
p471
sg48
(dp472
g50
VnV eL ToWn
p473
sg52
Nssa(dp474
g47
I313138863
sg48
(dp475
g50
VRNG Ninja HCS
p476
sg52
Nssg53
(lp477
I1095363701
asg41
VWeaponPickup
p478
sg44
VPT34.733112S
p479
sa(dp480
g47
I4096745987
sg48
(dp481
g50
VRNG Ninja HCS
p482
sg52
Nssg53
(lp483
I2758383128
asg41
VWeaponPickup
p484
sg44
VPT34.7341122S
p485
sa(dp486
g41
VPlayerSpawn
p487
sg48
(dp488
g50
VRNG Ninja HCS
p489
sg52
Nssg44
VPT34.7341122S
p490
sa(dp491
g47
I313138863
sg48
(dp492
g50
VRNG Penguin HCS
p493
sg52
Nssg53
(lp494
I1095363701
asg41
VWeaponPickup
p495
sg44
VPT35.6501413S
p496
sa(dp497
g47
I4096745987
sg48
(dp498
g50
VRNG Penguin HCS
p499
sg52
Nssg53
(lp500
I2758383128
asg41
VWeaponPickup
p501
sg44
VPT35.6501413S
p502
sa(dp503
g41
VPlayerSpawn
p504
sg48
(dp505
g50
VRNG Penguin HCS
p506
sg52
Nssg44
VPT35.6501413S
p507
sa(dp508
g41
VMedal
p509
sg48
(dp510
g50
VRNG Commonly
p511
sg52
Nssg227
I3565443938
sg44
VPT35.7401442S
p512
sa(dp513
g41
VMedal
p514
sg48
(dp515
g50
VRNG Ninja HCS
p516
sg52
Nssg227
I1637841390
sg44
VPT35.7411444S
p517
sa(dp518
g47
I313138863
sg48
(dp519
g50
VnV Mikwen HCS
p520
sg52
Nssg53
(lp521
I1095363701
asg41
VWeaponPickup
p522
sg44
VPT36.1171566S
p523
sa(dp524
g47
I4096745987
sg48
(dp525
g50
VnV Mikwen HCS
p526
sg52
Nssg53
(lp527
I2758383128
asg41
VWeaponPickup
p528
sg44
VPT36.1171566S
p529
sa(dp530
g41
VPlayerSpawn
p531
sg48
(dp532
g50
VnV Mikwen HCS
p533
sg52
Nssg44
VPT36.1171566S
p534
sa(dp535
g188
I4096745987
sg189
I00
sg190
I00
sg191
(dp536
g50
VRNG Commonly
p537
sg52
Nssg194
(lp538
I2758383128
asg196
I00
sg197
I01
sg198
I1
sg199
I0
sg200
I1
sg201
(dp539
Vy
F-0.058173164700000002
sVx
F6.2563190000000004
sVz
F-0.74819016500000002
ssg203
(dp540
Vy
F-7.2852935800000003
sVx
F13.548248299999999
sVz
F2.1962597399999999
ssg205
I00
sg206
(dp541
g50
VnV RayneHCS
p542
sg52
Nssg209
(lp543
sg211
(lp544
sg213
I01
sg44
VPT37.3331948S
p545
sg41
VDeath
p546
sg216
I1
sa(dp547
g41
VMedal
p548
sg48
(dp549
g50
VRNG Commonly
p550
sg52
Nssg227
I2782465081
sg44
VPT37.3351945S
p551
sa(dp552
g41
VMedal
p553
sg48
(dp554
g50
VRNG Commonly
p555
sg52
Nssg227
I3261908037
sg44
VPT37.3361945S
p556
sa(dp557
g41
VMedal
p558
sg48
(dp559
g50
VRNG Commonly
p560
sg52
Nssg227
I2763748638
sg44
VPT37.3361945S
p561
sa(dp562
g47
I313138863
sg41
VWeaponDrop
p563
sg236
I0
sg53
(lp564
I1095363701
asg44
VPT37.3361945S
p565
sg239
I0
sg240
VP0DT0H0M2.3333S
p566
sg48
(dp567
g50
VnV RayneHCS
p568
sg52
Nssa(dp569
g47
I4096745987
sg41
VWeaponDrop
p570
sg236
I12
sg53
(lp571
I2758383128
asg44
VPT37.3361945S
p572
sg239
I7
sg240
VP0DT0H0M16.8167S
p573
sg48
(dp574
g50
VnV RayneHCS
p575
sg52
Nssa(dp576
g47
I4096745987
sg41
VWeaponDrop
p577
sg236
I0
sg53
(lp578
I2758383128
asg44
VPT38.7322379S
p579
sg239
I0
sg240
VP0DT0H0M1.7667S
p580
sg48
(dp581
g50
VnV Mikwen HCS
p582
sg52
Nssa(dp583
g47
I523953283
sg48
(dp584
g50
VnV Mikwen HCS
p585
sg52
Nssg53
(lp586
I2208825748
asg41
VWeaponPickup
p587
sg44
VPT38.7322379S
p588
sa(dp589
g188
I4096745987
sg189
I00
sg190
I00
sg191
(dp590
g50
VRNG Ninja HCS
p591
sg52
Nssg194
(lp592
I2758383128
asg196
I00
sg197
I00
sg198
I2
sg199
I0
sg200
I0
sg201
(dp593
Vy
F10.971386900000001
sVx
F5.0418979999999998
sVz
F0.8000488
ssg203
(dp594
Vy
F11.912518499999999
sVx
F8.0818615000000005
sVz
F0.80103159999999995
ssg205
I00
sg206
(dp595
S'Gamertag'
p596
S'None'
p597
ssg209
(lp598
sg211
(lp599
sg213
I00
sg44
VPT38.9162458S
p600
sg41
VDeath
p601
sg216
I1
sa(dp602
g41
VMedal
p603
sg48
(dp604
g50
VnV Pistola HCS
p605
sg52
Nssg227
I3565443938
sg44
VPT38.949276S
p606
sa(dp607
g41
VMedal
p608
sg48
(dp609
g50
VnV Mikwen HCS
p610
sg52
Nssg227
I1637841390
sg44
VPT38.949276S
p611
sa(dp612
g41
VMedal
p613
sg48
(dp614
g50
VnV RayneHCS
p615
sg52
Nssg227
I1637841390
sg44
VPT38.949276S
p616
sa(dp617
g41
VMedal
p618
sg48
(dp619
g50
VnV eL ToWn
p620
sg52
Nssg227
I1637841390
sg44
VPT38.949276S
p621
sa(dp622
g47
I313138863
sg48
(dp623
g50
VRNG Victory X
p624
sg52
Nssg53
(lp625
I1095363701
asg41
VWeaponPickup
p626
sg44
VPT40.7173073S
p627
sa(dp628
g47
I4096745987
sg48
(dp629
g50
VRNG Victory X
p630
sg52
Nssg53
(lp631
I2758383128
asg41
VWeaponPickup
p632
sg44
VPT40.7183036S
p633
sa(dp634
g41
VPlayerSpawn
p635
sg48
(dp636
g50
VRNG Victory X
p637
sg52
Nssg44
VPT40.7183036S
p638
sa(dp639
g47
I313138863
sg48
(dp640
g50
VnV eL ToWn
p641
sg52
Nssg53
(lp642
I1095363701
asg41
VWeaponPickup
p643
sg44
VPT41.0663138S
p644
sa(dp645
g47
I4096745987
sg48
(dp646
g50
VnV eL ToWn
p647
sg52
Nssg53
(lp648
I2758383128
asg41
VWeaponPickup
p649
sg44
VPT41.0673146S
p650
sa(dp651
g41
VPlayerSpawn
p652
sg48
(dp653
g50
VnV eL ToWn
p654
sg52
Nssg44
VPT41.0673146S
p655
sa(dp656
g41
VMedal
p657
sg48
(dp658
g50
VRNG Penguin HCS
p659
sg52
Nssg227
I3565443938
sg44
VPT43.7153975S
p660
sa(dp661
g41
VMedal
p662
sg48
(dp663
g50
VRNG Ninja HCS
p664
sg52
Nssg227
I1637841390
sg44
VPT43.7163989S
p665
sa(dp666
g41
VMedal
p667
sg48
(dp668
g50
VRNG Victory X
p669
sg52
Nssg227
I1637841390
sg44
VPT43.7163989S
p670
sa(dp671
g41
VMedal
p672
sg48
(dp673
g50
VRNG Commonly
p674
sg52
Nssg227
I1637841390
sg44
VPT43.7163989S
p675
sa(dp676
g47
I313138863
sg48
(dp677
g50
VnV RayneHCS
p678
sg52
Nssg53
(lp679
I1095363701
asg41
VWeaponPickup
p680
sg44
VPT45.3504519S
p681
sa(dp682
g47
I4096745987
sg48
(dp683
g50
VnV RayneHCS
p684
sg52
Nssg53
(lp685
I2758383128
asg41
VWeaponPickup
p686
sg44
VPT45.3504519S
p687
sa(dp688
g41
VPlayerSpawn
p689
sg48
(dp690
g50
VnV RayneHCS
p691
sg52
Nssg44
VPT45.3504519S
p692
sa(dp693
g47
I313138863
sg41
VWeaponDrop
p694
sg236
I0
sg53
(lp695
I1095363701
asg44
VPT46.9485006S
p696
sg239
I0
sg240
VP0DT0H0M5.4000S
p697
sg48
(dp698
g50
VRNG Ninja HCS
p699
sg52
Nssa(dp700
g47
I2278207101
sg48
(dp701
g50
VRNG Ninja HCS
p702
sg52
Nssg53
(lp703
I2758383128
asg41
VWeaponPickupPad
p704
sg44
VPT46.9485006S
p705
sa(dp706
g47
I2278207101
sg48
(dp707
g50
VRNG Ninja HCS
p708
sg52
Nssg53
(lp709
I2758383128
asg41
VWeaponPickup
p710
sg44
VPT46.950503S
p711
sa(dp712
g188
I4106030681
sg189
I00
sg190
I00
sg191
(dp713
g50
VRNG Commonly
p714
sg52
Nssg194
(lp715
sg196
I00
sg197
I00
sg198
I2
sg199
I0
sg200
I0
sg201
(dp716
Vy
F2.6550767400000002
sVx
F-0.241355136
sVz
F0.130777687
ssg203
(dp717
Vy
F-0.19803734100000001
sVx
F-8.4610400000000006
sVz
F1.7995233500000001
ssg205
I00
sg206
(dp718
g596
g597
ssg209
(lp719
sg211
(lp720
sg213
I00
sg44
VPT47.2165116S
p721
sg41
VDeath
p722
sg216
I1
sa(dp723
g188
I4106030681
sg189
I00
sg190
I00
sg191
(dp724
g50
VRNG Commonly
p725
sg52
Nssg194
(lp726
sg196
I00
sg197
I00
sg198
I2
sg199
I0
sg200
I0
sg201
(dp727
Vy
F2.6550767400000002
sVx
F-0.241355136
sVz
F0.130777687
ssg203
(dp728
Vy
F0.19808988299999999
sVx
F-8.4610020000000006
sVz
F1.7995241900000001
ssg205
I00
sg206
(dp729
g596
g597
ssg209
(lp730
sg211
(lp731
sg213
I00
sg44
VPT47.2165116S
p732
sg41
VDeath
p733
sg216
I1
sa(dp734
g188
I47178948
sg189
I00
sg190
I00
sg191
(dp735
g50
VRNG Commonly
p736
sg52
Nssg194
(lp737
sg196
I00
sg197
I00
sg198
I0
sg199
I0
sg200
I1
sg201
(dp738
Vy
F2.6550767400000002
sVx
F-0.241355136
sVz
F0.130777687
ssg203
(dp739
Vy
F-0.083530350000000003
sVx
F-7.6413979999999997
sVz
F1.8415099399999999
ssg205
I00
sg206
(dp740
g50
VRNG Ninja HCS
p741
sg52
Nssg209
(lp742
sg211
(lp743
sg213
I00
sg44
VPT47.2165116S
p744
sg41
VDeath
p745
sg216
I1
sa(dp746
g47
I2278207101
sg41
VWeaponDrop
p747
sg236
I0
sg53
(lp748
I2758383128
asg44
VPT47.2175113S
p749
sg239
I0
sg240
VP0DT0H0M0.2667S
p750
sg48
(dp751
g50
VRNG Ninja HCS
p752
sg52
Nssa(dp753
g47
I4096745987
sg41
VWeaponDrop
p754
sg236
I2
sg53
(lp755
I2758383128
asg44
VPT47.2175113S
p756
sg239
I0
sg240
VP0DT0H0M6.8167S
p757
sg48
(dp758
g50
VRNG Ninja HCS
p759
sg52
Nssa(dp760
g47
I524558978
sg41
VWeaponDrop
p761
sg236
I3
sg53
(lp762
I2758383128
asg44
VPT51.1156362S
p763
sg239
I2
sg240
VP0DT0H0M9.0333S
p764
sg48
(dp765
g50
VRNG Commonly
p766
sg52
Nssa(dp767
g47
I524558978
sg41
VWeaponDrop
p768
sg236
I0
sg53
(lp769
I2758383128
asg44
VPT51.1156362S
p770
sg239
I0
sg240
VP0DT0S
p771
sg48
(dp772
g50
VRNG Commonly
p773
sg52
Nssa(dp774
g47
I2278207101
sg48
(dp775
g50
VRNG Commonly
p776
sg52
Nssg53
(lp777
I2758383128
asg41
VWeaponPickup
p778
sg44
VPT51.1156362S
p779
sa(dp780
g188
I4096745987
sg189
I00
sg190
I01
sg191
(dp781
g50
VRNG Victory X
p782
sg52
Nssg194
(lp783
I2758383128
asg196
I00
sg197
I00
sg198
I1
sg199
I0
sg200
I1
sg201
(dp784
Vy
F-5.8009269999999997
sVx
F16.708864200000001
sVz
F2.5780572899999998
ssg203
(dp785
Vy
F-6.0134754199999998
sVx
F16.4079552
sVz
F2.7150660000000002
ssg205
I00
sg206
(dp786
g50
VnV eL ToWn
p787
sg52
Nssg209
(lp788
sg211
(lp789
(dp790
g50
VRNG Penguin HCS
p791
sg52
Nsasg213
I00
sg44
VPT51.6166527S
p792
sg41
VDeath
p793
sg216
I1
sa(dp794
g41
VMedal
p795
sg48
(dp796
g50
VRNG Victory X
p797
sg52
Nssg227
I2287626681
sg44
VPT51.6186516S
p798
sa(dp799
g47
I4096745987
sg41
VWeaponDrop
p800
sg236
I2
sg53
(lp801
I2758383128
asg44
VPT51.6186516S
p802
sg239
I2
sg240
VP0DT0H0M10.1333S
p803
sg48
(dp804
g50
VnV eL ToWn
p805
sg52
Nssa(dp806
g47
I313138863
sg41
VWeaponDrop
p807
sg236
I0
sg53
(lp808
I1095363701
asg44
VPT51.6186516S
p809
sg239
I0
sg240
VP0DT0H0M0.4167S
p810
sg48
(dp811
g50
VnV eL ToWn
p812
sg52
Nssa(dp813
g188
I4096745987
sg189
I00
sg190
I00
sg191
(dp814
g50
VnV RayneHCS
p815
sg52
Nssg194
(lp816
I2758383128
asg196
I00
sg197
I01
sg198
I1
sg199
I0
sg200
I1
sg201
(dp817
Vy
F-10.577556599999999
sVx
F16.590297700000001
sVz
F1.6001641799999999
ssg203
(dp818
Vy
F-5.28478241
sVx
F16.7115574
sVz
F2.5876908300000001
ssg205
I00
sg206
(dp819
g50
VRNG Victory X
p820
sg52
Nssg209
(lp821
sg211
(lp822
sg213
I01
sg44
VPT52.1346684S
p823
sg41
VDeath
p824
sg216
I1
sa(dp825
g41
VMedal
p826
sg48
(dp827
g50
VnV RayneHCS
p828
sg52
Nssg227
I3261908037
sg44
VPT52.1356781S
p829
sa(dp830
g47
I313138863
sg41
VWeaponDrop
p831
sg236
I0
sg53
(lp832
I1095363701
asg44
VPT52.1366691S
p833
sg239
I0
sg240
VP0DT0H0M1.7000S
p834
sg48
(dp835
g50
VRNG Victory X
p836
sg52
Nssa(dp837
g47
I4096745987
sg41
VWeaponDrop
p838
sg236
I0
sg53
(lp839
I2758383128
asg44
VPT52.1366691S
p840
sg239
I0
sg240
VP0DT0H0M9.7167S
p841
sg48
(dp842
g50
VRNG Victory X
p843
sg52
Nssa(dp844
g47
I313138863
sg48
(dp845
g50
VRNG Ninja HCS
p846
sg52
Nssg53
(lp847
I1095363701
asg41
VWeaponPickup
p848
sg44
VPT55.2337682S
p849
sa(dp850
g47
I4096745987
sg48
(dp851
g50
VRNG Ninja HCS
p852
sg52
Nssg53
(lp853
I2758383128
asg41
VWeaponPickup
p854
sg44
VPT55.2337682S
p855
sa(dp856
g41
VPlayerSpawn
p857
sg48
(dp858
g50
VRNG Ninja HCS
p859
sg52
Nssg44
VPT55.2337682S
p860
sa(dp861
g188
I2278207101
sg189
I00
sg190
I00
sg191
(dp862
g50
VRNG Commonly
p863
sg52
Nssg194
(lp864
I2758383128
asg196
I00
sg197
I01
sg198
I1
sg199
I0
sg200
I1
sg201
(dp865
Vy
F0.45905820000000003
sVx
F-4.9312643999999999
sVz
F1.2958538500000001
ssg203
(dp866
Vy
F0.63451950000000001
sVx
F-7.1113414800000001
sVz
F1.7995219200000001
ssg205
I00
sg206
(dp867
g50
VnV Mikwen HCS
p868
sg52
Nssg209
(lp869
sg211
(lp870
sg213
I00
sg44
VPT55.4327738S
p871
sg41
VDeath
p872
sg216
I1
sa(dp873
g47
I313138863
sg41
VWeaponDrop
p874
sg236
I13
sg53
(lp875
I1095363701
asg44
VPT55.4347748S
p876
sg239
I1
sg240
VP0DT0H0M5.8500S
p877
sg48
(dp878
g50
VnV Mikwen HCS
p879
sg52
Nssa(dp880
g47
I523953283
sg41
VWeaponDrop
p881
sg236
I3
sg53
(lp882
I2208825748
asg44
VPT55.4347748S
p883
sg239
I1
sg240
VP0DT0H0M11.7000S
p884
sg48
(dp885
g50
VnV Mikwen HCS
p886
sg52
Nssa(dp887
g188
I313138863
sg189
I00
sg190
I00
sg191
(dp888
g50
VnV Pistola HCS
p889
sg52
Nssg194
(lp890
I1095363701
asg196
I00
sg197
I01
sg198
I1
sg199
I0
sg200
I1
sg201
(dp891
Vy
F8.5868719999999996
sVx
F12.782135
sVz
F1.4439809299999999
ssg203
(dp892
Vy
F8.3179655100000005
sVx
F16.3950958
sVz
F2.2935976999999999
ssg205
I00
sg206
(dp893
g50
VRNG Penguin HCS
p894
sg52
Nssg209
(lp895
sg211
(lp896
(dp897
g50
VnV eL ToWn
p898
sg52
Nsasg213
I00
sg44
VPT56.0507943S
p899
sg41
VDeath
p900
sg216
I1
sa(dp901
g47
I313138863
sg41
VWeaponDrop
p902
sg236
I19
sg53
(lp903
I1095363701
asg44
VPT56.0517941S
p904
sg239
I10
sg240
VP0DT0H0M6.7500S
p905
sg48
(dp906
g50
VRNG Penguin HCS
p907
sg52
Nssa(dp908
g47
I4096745987
sg41
VWeaponDrop
p909
sg236
I4
sg53
(lp910
I2758383128
asg44
VPT56.0517941S
p911
sg239
I3
sg240
VP0DT0H0M13.6500S
p912
sg48
(dp913
g50
VRNG Penguin HCS
p914
sg52
Nssa(dp915
g47
I313138863
sg48
(dp916
g50
VnV eL ToWn
p917
sg52
Nssg53
(lp918
I1095363701
asg41
VWeaponPickup
p919
sg44
VPT59.6329087S
p920
sa(dp921
g47
I4096745987
sg48
(dp922
g50
VnV eL ToWn
p923
sg52
Nssg53
(lp924
I2758383128
asg41
VWeaponPickup
p925
sg44
VPT59.6339093S
p926
sa(dp927
g41
VPlayerSpawn
p928
sg48
(dp929
g50
VnV eL ToWn
p930
sg52
Nssg44
VPT59.6339093S
p931
sa(dp932
g47
I313138863
sg48
(dp933
g50
VRNG Victory X
p934
sg52
Nssg53
(lp935
I1095363701
asg41
VWeaponPickup
p936
sg44
VPT1M0.1499255S
p937
sa(dp938
g47
I4096745987
sg48
(dp939
g50
VRNG Victory X
p940
sg52
Nssg53
(lp941
I2758383128
asg41
VWeaponPickup
p942
sg44
VPT1M0.150928S
p943
sa(dp944
g41
VPlayerSpawn
p945
sg48
(dp946
g50
VRNG Victory X
p947
sg52
Nssg44
VPT1M0.150928S
p948
sa(dp949
g41
VMedal
p950
sg48
(dp951
g50
VRNG Commonly
p952
sg52
Nssg227
I2916014239
sg44
VPT1M1.6839743S
p953
sa(dp954
g47
I313138863
sg48
(dp955
g50
VnV Mikwen HCS
p956
sg52
Nssg53
(lp957
I1095363701
asg41
VWeaponPickup
p958
sg44
VPT1M3.4500312S
p959
sa(dp960
g47
I4096745987
sg48
(dp961
g50
VnV Mikwen HCS
p962
sg52
Nssg53
(lp963
I2758383128
asg41
VWeaponPickup
p964
sg44
VPT1M3.4500312S
p965
sa(dp966
g41
VPlayerSpawn
p967
sg48
(dp968
g50
VnV Mikwen HCS
p969
sg52
Nssg44
VPT1M3.4510309S
p970
sa(dp971
g188
I4096745987
sg189
I00
sg190
I00
sg191
(dp972
g50
VnV RayneHCS
p973
sg52
Nssg194
(lp974
I2758383128
asg196
I00
sg197
I01
sg198
I1
sg199
I0
sg200
I1
sg201
(dp975
Vy
F-5.7539110000000004
sVx
F9.3496050000000004
sVz
F0.88896673900000001
ssg203
(dp976
Vy
F-10.9410419
sVx
F4.3012576100000004
sVz
F1.7057599999999999
ssg205
I00
sg206
(dp977
g50
VRNG Ninja HCS
p978
sg52
Nssg209
(lp979
sg211
(lp980
sg213
I01
sg44
VPT1M3.9330466S
p981
sg41
VDeath
p982
sg216
I1
sa(dp983
g41
VImpulse
p984
sg48
(dp985
g50
VnV RayneHCS
p986
sg52
Nssg221
I3174430457
sg44
VPT1M3.9340457S
p987
sa(dp988
g41
VMedal
p989
sg48
(dp990
g50
VnV RayneHCS
p991
sg52
Nssg227
I3653057799
sg44
VPT1M3.9350458S
p992
sa(dp993
g47
I313138863
sg41
VWeaponDrop
p994
sg236
I0
sg53
(lp995
I1095363701
asg44
VPT1M3.9360464S
p996
sg239
I0
sg240
VP0DT0H0M0.8833S
p997
sg48
(dp998
g50
VRNG Ninja HCS
p999
sg52
Nssa(dp1000
g47
I4096745987
sg41
VWeaponDrop
p1001
sg236
I8
sg53
(lp1002
I2758383128
asg44
VPT1M3.9360464S
p1003
sg239
I2
sg240
VP0DT0H0M7.8167S
p1004
sg48
(dp1005
g50
VRNG Ninja HCS
p1006
sg52
Nssa(dp1007
g47
I313138863
sg48
(dp1008
g50
VRNG Penguin HCS
p1009
sg52
Nssg53
(lp1010
I1095363701
asg41
VWeaponPickup
p1011
sg44
VPT1M4.0670499S
p1012
sa(dp1013
g47
I4096745987
sg48
(dp1014
g50
VRNG Penguin HCS
p1015
sg52
Nssg53
(lp1016
I2758383128
asg41
VWeaponPickup
p1017
sg44
VPT1M4.0670499S
p1018
sa(dp1019
g41
VPlayerSpawn
p1020
sg48
(dp1021
g50
VRNG Penguin HCS
p1022
sg52
Nssg44
VPT1M4.0670499S
p1023
sa(dp1024
g188
I2278207101
sg189
I00
sg190
I00
sg191
(dp1025
g50
VRNG Commonly
p1026
sg52
Nssg194
(lp1027
I2758383128
asg196
I00
sg197
I01
sg198
I1
sg199
I0
sg200
I1
sg201
(dp1028
Vy
F2.1773386000000001
sVx
F4.0724673300000003
sVz
F1.27836967
ssg203
(dp1029
Vy
F-4.3851060000000004
sVx
F10.161853799999999
sVz
F0.87834405900000001
ssg205
I00
sg206
(dp1030
g50
VnV RayneHCS
p1031
sg52
Nssg209
(lp1032
sg211
(lp1033
(dp1034
g50
VRNG Ninja HCS
p1035
sg52
Nsasg213
I00
sg44
VPT1M5.6991029S
p1036
sg41
VDeath
p1037
sg216
I1
sa(dp1038
g41
VMedal
p1039
sg48
(dp1040
g50
VRNG Commonly
p1041
sg52
Nssg227
I2430242797
sg44
VPT1M5.7011026S
p1042
sa(dp1043
g47
I313138863
sg41
VWeaponDrop
p1044
sg236
I0
sg53
(lp1045
I1095363701
asg44
VPT1M5.7011026S
p1046
sg239
I0
sg240
VP0DT0H0M2.9500S
p1047
sg48
(dp1048
g50
VnV RayneHCS
p1049
sg52
Nssa(dp1050
g47
I4096745987
sg41
VWeaponDrop
p1051
sg236
I14
sg53
(lp1052
I2758383128
asg44
VPT1M5.7011026S
p1053
sg239
I10
sg240
VP0DT0H0M17.4000S
p1054
sg48
(dp1055
g50
VnV RayneHCS
p1056
sg52
Nssa(dp1057
g41
VMedal
p1058
sg48
(dp1059
g50
VRNG Penguin HCS
p1060
sg52
Nssg227
I2916014239
sg44
VPT1M9.6652279S
p1061
sa(dp1062
g188
I313138863
sg189
I00
sg190
I01
sg191
(dp1063
g50
VRNG Penguin HCS
p1064
sg52
Nssg194
(lp1065
I1095363701
asg196
I00
sg197
I00
sg198
I1
sg199
I0
sg200
I1
sg201
(dp1066
Vy
F15.5229654
sVx
F4.0853859999999997
sVz
F0.83628950000000002
ssg203
(dp1067
Vy
F15.858437500000001
sVx
F3.9833731700000001
sVz
F0.8427173
ssg205
I00
sg206
(dp1068
g50
VnV eL ToWn
p1069
sg52
Nssg209
(lp1070
sg211
(lp1071
(dp1072
g50
VRNG Commonly
p1073
sg52
Nsa(dp1074
g50
VRNG Victory X
p1075
sg52
Nsasg213
I00
sg44
VPT1M10.3992634S
p1076
sg41
VDeath
p1077
sg216
I1
sa(dp1078
g41
VMedal
p1079
sg48
(dp1080
g50
VRNG Penguin HCS
p1081
sg52
Nssg227
I2287626681
sg44
VPT1M10.4002551S
p1082
sa(dp1083
g47
I313138863
sg41
VWeaponDrop
p1084
sg236
I7
sg53
(lp1085
I1095363701
asg44
VPT1M10.4012638S
p1086
sg239
I5
sg240
VP0DT0H0M4.1833S
p1087
sg48
(dp1088
g50
VnV eL ToWn
p1089
sg52
Nssa(dp1090
g47
I4096745987
sg41
VWeaponDrop
p1091
sg236
I0
sg53
(lp1092
I2758383128
asg44
VPT1M10.4012638S
p1093
sg239
I0
sg240
VP0DT0H0M6.5833S
p1094
sg48
(dp1095
g50
VnV eL ToWn
p1096
sg52
Nssa(dp1097
g47
I313138863
sg48
(dp1098
g50
VRNG Ninja HCS
p1099
sg52
Nssg53
(lp1100
I1095363701
asg41
VWeaponPickup
p1101
sg44
VPT1M11.9503033S
p1102
sa(dp1103
g47
I4096745987
sg48
(dp1104
g50
VRNG Ninja HCS
p1105
sg52
Nssg53
(lp1106
I2758383128
asg41
VWeaponPickup
p1107
sg44
VPT1M11.9503033S
p1108
sa(dp1109
g41
VPlayerSpawn
p1110
sg48
(dp1111
g50
VRNG Ninja HCS
p1112
sg52
Nssg44
VPT1M11.9503033S
p1113
sa(dp1114
g41
VMedal
p1115
sg48
(dp1116
g50
VnV Mikwen HCS
p1117
sg52
Nssg227
I2916014239
sg44
VPT1M13.4153487S
p1118
sa(dp1119
g47
I313138863
sg48
(dp1120
g50
VnV RayneHCS
p1121
sg52
Nssg53
(lp1122
I1095363701
asg41
VWeaponPickup
p1123
sg44
VPT1M13.7163593S
p1124
sa(dp1125
g47
I4096745987
sg48
(dp1126
g50
VnV RayneHCS
p1127
sg52
Nssg53
(lp1128
I2758383128
asg41
VWeaponPickup
p1129
sg44
VPT1M13.7173594S
p1130
sa(dp1131
g41
VPlayerSpawn
p1132
sg48
(dp1133
g50
VnV RayneHCS
p1134
sg52
Nssg44
VPT1M13.7173594S
p1135
sa(dp1136
g41
VMedal
p1137
sg48
(dp1138
g50
VRNG Commonly
p1139
sg52
Nssg227
I2916014239
sg44
VPT1M14.6823905S
p1140
sa(dp1141
g188
I4096745987
sg189
I00
sg190
I00
sg191
(dp1142
g50
VRNG Ninja HCS
p1143
sg52
Nssg194
(lp1144
I2758383128
asg196
I00
sg197
I01
sg198
I1
sg199
I0
sg200
I1
sg201
(dp1145
Vy
F-7.1956720000000001
sVx
F-4.8628159999999996
sVz
F1.62601781
ssg203
(dp1146
Vy
F-6.5952553700000003
sVx
F2.21905851
sVz
F1.0353574800000001
ssg205
I00
sg206
(dp1147
g50
VnV Mikwen HCS
p1148
sg52
Nssg209
(lp1149
sg211
(lp1150
sg213
I01
sg44
VPT1M16.5164488S
p1151
sg41
VDeath
p1152
sg216
I1
sa(dp1153
g41
VImpulse
p1154
sg48
(dp1155
g50
VRNG Ninja HCS
p1156
sg52
Nssg221
I3174430457
sg44
VPT1M16.5174575S
p1157
sa(dp1158
g41
VMedal
p1159
sg48
(dp1160
g50
VRNG Commonly
p1161
sg52
Nssg227
I824733727
sg44
VPT1M16.5184482S
p1162
sa(dp1163
g41
VMedal
p1164
sg48
(dp1165
g50
VRNG Ninja HCS
p1166
sg52
Nssg227
I3653057799
sg44
VPT1M16.5195755S
p1167
sa(dp1168
g47
I313138863
sg41
VWeaponDrop
p1169
sg236
I0
sg53
(lp1170
I1095363701
asg44
VPT1M16.5195755S
p1171
sg239
I0
sg240
VP0DT0H0M1.0333S
p1172
sg48
(dp1173
g50
VnV Mikwen HCS
p1174
sg52
Nssa(dp1175
g47
I4096745987
sg41
VWeaponDrop
p1176
sg236
I7
sg53
(lp1177
I2758383128
asg44
VPT1M16.5195755S
p1178
sg239
I2
sg240
VP0DT0H0M12.0333S
p1179
sg48
(dp1180
g50
VnV Mikwen HCS
p1181
sg52
Nssa(dp1182
g188
I4096745987
sg189
I00
sg190
I00
sg191
(dp1183
g50
VnV Pistola HCS
p1184
sg52
Nssg194
(lp1185
I2758383128
asg196
I00
sg197
I01
sg198
I1
sg199
I0
sg200
I1
sg201
(dp1186
Vy
F-7.1139150000000004
sVx
F5.9647430000000004
sVz
F3.784895e-06
ssg203
(dp1187
Vy
F-5.858962
sVx
F-5.0350766199999999
sVz
F1.2734363099999999
ssg205
I00
sg206
(dp1188
g50
VRNG Ninja HCS
p1189
sg52
Nssg209
(lp1190
sg211
(lp1191
sg213
I01
sg44
VPT1M18.3495071S
p1192
sg41
VDeath
p1193
sg216
I1
sa(dp1194
g41
VMedal
p1195
sg48
(dp1196
g50
VnV Pistola HCS
p1197
sg52
Nssg227
I3261908037
sg44
VPT1M18.352507S
p1198
sa(dp1199
g47
I313138863
sg41
VWeaponDrop
p1200
sg236
I0
sg53
(lp1201
I1095363701
asg44
VPT1M18.352507S
p1202
sg239
I0
sg240
VP0DT0H0M0.8333S
p1203
sg48
(dp1204
g50
VRNG Ninja HCS
p1205
sg52
Nssa(dp1206
g47
I4096745987
sg41
VWeaponDrop
p1207
sg236
I9
sg53
(lp1208
I2758383128
asg44
VPT1M18.352507S
p1209
sg239
I8
sg240
VP0DT0H0M5.5667S
p1210
sg48
(dp1211
g50
VRNG Ninja HCS
p1212
sg52
Nssa(dp1213
g47
I313138863
sg48
(dp1214
g50
VnV eL ToWn
p1215
sg52
Nssg53
(lp1216
I1095363701
asg41
VWeaponPickup
p1217
sg44
VPT1M18.4165103S
p1218
sa(dp1219
g47
I4096745987
sg48
(dp1220
g50
VnV eL ToWn
p1221
sg52
Nssg53
(lp1222
I2758383128
asg41
VWeaponPickup
p1223
sg44
VPT1M18.4165103S
p1224
sa(dp1225
g41
VPlayerSpawn
p1226
sg48
(dp1227
g50
VnV eL ToWn
p1228
sg52
Nssg44
VPT1M18.4165103S
p1229
sa(dp1230
g188
I2278207101
sg189
I00
sg190
I00
sg191
(dp1231
g50
VRNG Commonly
p1232
sg52
Nssg194
(lp1233
I2758383128
asg196
I00
sg197
I01
sg198
I1
sg199
I0
sg200
I1
sg201
(dp1234
Vy
F-6.9946299999999999
sVx
F1.6773191700000001
sVz
F3.784895e-06
ssg203
(dp1235
Vy
F-5.8820329999999998
sVx
F6.1250689999999999
sVz
F0.35823833900000002
ssg205
I00
sg206
(dp1236
g50
VnV Pistola HCS
p1237
sg52
Nssg209
(lp1238
sg211
(lp1239
(dp1240
g50
VRNG Ninja HCS
p1241
sg52
Nsa(dp1242
g50
VRNG Penguin HCS
p1243
sg52
Nsasg213
I00
sg44
VPT1M21.1335965S
p1244
sg41
VDeath
p1245
sg216
I1
sa(dp1246
g47
I313138863
sg41
VWeaponDrop
p1247
sg236
I22
sg53
(lp1248
I1095363701
asg44
VPT1M21.1355966S
p1249
sg239
I11
sg240
VP0DT0H0M9.5500S
p1250
sg48
(dp1251
g50
VnV Pistola HCS
p1252
sg52
Nssa(dp1253
g47
I4096745987
sg41
VWeaponDrop
p1254
sg236
I9
sg53
(lp1255
I2758383128
asg44
VPT1M21.1355966S
p1256
sg239
I6
sg240
VP0DT0H0M40.0000S
p1257
sg48
(dp1258
g50
VnV Pistola HCS
p1259
sg52
Nssa(dp1260
g188
I4096745987
sg189
I00
sg190
I00
sg191
(dp1261
g50
VnV RayneHCS
p1262
sg52
Nssg194
(lp1263
I2758383128
asg196
I00
sg197
I01
sg198
I1
sg199
I0
sg200
I1
sg201
(dp1264
Vy
F-5.4155369999999996
sVx
F11.59385
sVz
F-9.5665454900000003e-06
ssg203
(dp1265
Vy
F-10.0668945
sVx
F0.229041934
sVz
F0.37316787200000001
ssg205
I00
sg206
(dp1266
g50
VRNG Commonly
p1267
sg52
Nssg209
(lp1268
sg211
(lp1269
(dp1270
g50
VnV Pistola HCS
p1271
sg52
Nsasg213
I01
sg44
VPT1M23.9996887S
p1272
sg41
VDeath
p1273
sg216
I1
sa(dp1274
g41
VMedal
p1275
sg48
(dp1276
g50
VnV RayneHCS
p1277
sg52
Nssg227
I3261908037
sg44
VPT1M24.0026876S
p1278
sa(dp1279
g47
I2278207101
sg41
VWeaponDrop
p1280
sg236
I69
sg53
(lp1281
I2758383128
asg44
VPT1M24.0026876S
p1282
sg239
I38
sg240
VP0DT0H0M26.9000S
p1283
sg48
(dp1284
g50
VRNG Commonly
p1285
sg52
Nssa(dp1286
g47
I4096745987
sg41
VWeaponDrop
p1287
sg236
I22
sg53
(lp1288
I2758383128
asg44
VPT1M24.0026876S
p1289
sg239
I11
sg240
VP0DT0H0M27.7667S
p1290
sg48
(dp1291
g50
VRNG Commonly
p1292
sg52
Nssa(dp1293
g47
I313138863
sg48
(dp1294
g50
VnV Mikwen HCS
p1295
sg52
Nssg53
(lp1296
I1095363701
asg41
VWeaponPickup
p1297
sg44
VPT1M24.5327056S
p1298
sa(dp1299
g47
I4096745987
sg48
(dp1300
g50
VnV Mikwen HCS
p1301
sg52
Nssg53
(lp1302
I2758383128
asg41
VWeaponPickup
p1303
sg44
VPT1M24.5337124S
p1304
sa(dp1305
g41
VPlayerSpawn
p1306
sg48
(dp1307
g50
VnV Mikwen HCS
p1308
sg52
Nssg44
VPT1M24.5337124S
p1309
sa(dp1310
g47
I313138863
sg48
(dp1311
g50
VRNG Ninja HCS
p1312
sg52
Nssg53
(lp1313
I1095363701
asg41
VWeaponPickup
p1314
sg44
VPT1M26.3667644S
p1315
sa(dp1316
g47
I4096745987
sg48
(dp1317
g50
VRNG Ninja HCS
p1318
sg52
Nssg53
(lp1319
I2758383128
asg41
VWeaponPickup
p1320
sg44
VPT1M26.3667644S
p1321
sa(dp1322
g41
VPlayerSpawn
p1323
sg48
(dp1324
g50
VRNG Ninja HCS
p1325
sg52
Nssg44
VPT1M26.3667644S
p1326
sa(dp1327
g188
I313138863
sg189
I00
sg190
I00
sg191
(dp1328
g50
VRNG Penguin HCS
p1329
sg52
Nssg194
(lp1330
I1095363701
asg196
I00
sg197
I01
sg198
I1
sg199
I0
sg200
I1
sg201
(dp1331
Vy
F-3.1883933500000001
sVx
F7.7191124000000002
sVz
F-0.3422249
ssg203
(dp1332
Vy
F-5.2136426
sVx
F9.2135314899999994
sVz
F-4.0382146799999996e-06
ssg205
I00
sg206
(dp1333
g50
VnV RayneHCS
p1334
sg52
Nssg209
(lp1335
sg211
(lp1336
(dp1337
g50
VRNG Commonly
p1338
sg52
Nsasg213
I00
sg44
VPT1M26.4007657S
p1339
sg41
VDeath
p1340
sg216
I1
sa(dp1341
g47
I313138863
sg41
VWeaponDrop
p1342
sg236
I5
sg53
(lp1343
I1095363701
asg44
VPT1M26.4017652S
p1344
sg239
I4
sg240
VP0DT0H0M1.6333S
p1345
sg48
(dp1346
g50
VnV RayneHCS
p1347
sg52
Nssa(dp1348
g47
I4096745987
sg41
VWeaponDrop
p1349
sg236
I7
sg53
(lp1350
I2758383128
asg44
VPT1M26.4017652S
p1351
sg239
I5
sg240
VP0DT0H0M11.0500S
p1352
sg48
(dp1353
g50
VnV RayneHCS
p1354
sg52
Nssa(dp1355
g47
I313138863
sg41
VWeaponDrop
p1356
sg236
I0
sg53
(lp1357
I1095363701
asg44
VPT1M27.5478002S
p1358
sg239
I0
sg240
VP0DT0H0M1.0333S
p1359
sg48
(dp1360
g50
VnV Mikwen HCS
p1361
sg52
Nssa(dp1362
g47
I2278207101
sg48
(dp1363
g50
VnV Mikwen HCS
p1364
sg52
Nssg53
(lp1365
I2758383128
asg41
VWeaponPickup
p1366
sg44
VPT1M27.5488021S
p1367
sa(dp1368
g47
I313138863
sg48
(dp1369
g50
VnV Pistola HCS
p1370
sg52
Nssg53
(lp1371
I1095363701
asg41
VWeaponPickup
p1372
sg44
VPT1M29.1498536S
p1373
sa(dp1374
g47
I4096745987
sg48
(dp1375
g50
VnV Pistola HCS
p1376
sg52
Nssg53
(lp1377
I2758383128
asg41
VWeaponPickup
p1378
sg44
VPT1M29.1498536S
p1379
sa(dp1380
g41
VPlayerSpawn
p1381
sg48
(dp1382
g50
VnV Pistola HCS
p1383
sg52
Nssg44
VPT1M29.1508536S
p1384
sa(dp1385
g47
I313138863
sg48
(dp1386
g50
VRNG Commonly
p1387
sg52
Nssg53
(lp1388
I1095363701
asg41
VWeaponPickup
p1389
sg44
VPT1M32.0169553S
p1390
sa(dp1391
g47
I4096745987
sg48
(dp1392
g50
VRNG Commonly
p1393
sg52
Nssg53
(lp1394
I2758383128
asg41
VWeaponPickup
p1395
sg44
VPT1M32.0169553S
p1396
sa(dp1397
g41
VPlayerSpawn
p1398
sg48
(dp1399
g50
VRNG Commonly
p1400
sg52
Nssg44
VPT1M32.0169553S
p1401
sa(dp1402
g47
I4096745987
sg41
VWeaponDrop
p1403
sg236
I0
sg53
(lp1404
I2758383128
asg44
VPT1M34.2980164S
p1405
sg239
I0
sg240
VP0DT0H0M1.4833S
p1406
sg48
(dp1407
g50
VRNG Commonly
p1408
sg52
Nssa(dp1409
g47
I523953283
sg48
(dp1410
g50
VRNG Commonly
p1411
sg52
Nssg53
(lp1412
I2208825748
asg41
VWeaponPickup
p1413
sg44
VPT1M34.2980164S
p1414
sa(dp1415
g47
I313138863
sg48
(dp1416
g50
VnV RayneHCS
p1417
sg52
Nssg53
(lp1418
I1095363701
asg41
VWeaponPickup
p1419
sg44
VPT1M34.4170222S
p1420
sa(dp1421
g47
I4096745987
sg48
(dp1422
g50
VnV RayneHCS
p1423
sg52
Nssg53
(lp1424
I2758383128
asg41
VWeaponPickup
p1425
sg44
VPT1M34.4170222S
p1426
sa(dp1427
g41
VPlayerSpawn
p1428
sg48
(dp1429
g50
VnV RayneHCS
p1430
sg52
Nssg44
VPT1M34.4170222S
p1431
sa(dp1432
g188
I4096745987
sg189
I00
sg190
I00
sg191
(dp1433
g50
VRNG Victory X
p1434
sg52
Nssg194
(lp1435
I2758383128
asg196
I00
sg197
I01
sg198
I1
sg199
I0
sg200
I1
sg201
(dp1436
Vy
F-7.8875510000000002
sVx
F11.661433199999999
sVz
F-9.5367430000000007e-06
ssg203
(dp1437
Vy
F-3.6982699999999999
sVx
F10.4992857
sVz
F1.3210059999999999
ssg205
I00
sg206
(dp1438
g50
VnV eL ToWn
p1439
sg52
Nssg209
(lp1440
sg211
(lp1441
sg213
I00
sg44
VPT1M35.8490671S
p1442
sg41
VDeath
p1443
sg216
I1
sa(dp1444
g47
I313138863
sg41
VWeaponDrop
p1445
sg236
I22
sg53
(lp1446
I1095363701
asg44
VPT1M35.851067S
p1447
sg239
I9
sg240
VP0DT0H0M5.5000S
p1448
sg48
(dp1449
g50
VnV eL ToWn
p1450
sg52
Nssa(dp1451
g47
I4096745987
sg41
VWeaponDrop
p1452
sg236
I7
sg53
(lp1453
I2758383128
asg44
VPT1M35.851067S
p1454
sg239
I2
sg240
VP0DT0H0M11.9333S
p1455
sg48
(dp1456
g50
VnV eL ToWn
p1457
sg52
Nssa(dp1458
g188
I4096745987
sg189
I00
sg190
I00
sg191
(dp1459
g50
VnV Mikwen HCS
p1460
sg52
Nssg194
(lp1461
I2758383128
asg196
I00
sg197
I01
sg198
I1
sg199
I0
sg200
I1
sg201
(dp1462
Vy
F2.54569936
sVx
F-2.55625868
sVz
F0.40117394899999997
ssg203
(dp1463
Vy
F2.1465127499999999
sVx
F-0.99487270000000005
sVz
F0.42065677000000001
ssg205
I00
sg206
(dp1464
g50
VRNG Penguin HCS
p1465
sg52
Nssg209
(lp1466
sg211
(lp1467
sg213
I01
sg44
VPT1M36.6660939S
p1468
sg41
VDeath
p1469
sg216
I1
sa(dp1470
g41
VMedal
p1471
sg48
(dp1472
g50
VnV Mikwen HCS
p1473
sg52
Nssg227
I3261908037
sg44
VPT1M36.6680933S
p1474
sa(dp1475
g47
I313138863
sg41
VWeaponDrop
p1476
sg236
I51
sg53
(lp1477
I1095363701
asg44
VPT1M36.6680933S
p1478
sg239
I29
sg240
VP0DT0H0M22.6833S
p1479
sg48
(dp1480
g50
VRNG Penguin HCS
p1481
sg52
Nssa(dp1482
g47
I313138863
sg41
VWeaponDrop
p1483
sg236
I0
sg53
(lp1484
I1095363701
asg44
VPT1M36.6680933S
p1485
sg239
I0
sg240
VP0DT0S
p1486
sg48
(dp1487
g50
VRNG Penguin HCS
p1488
sg52
Nssa(dp1489
g47
I4096745987
sg41
VWeaponDrop
p1490
sg236
I3
sg53
(lp1491
I2758383128
asg44
VPT1M36.6680933S
p1492
sg239
I1
sg240
VP0DT0H0M9.9167S
p1493
sg48
(dp1494
g50
VRNG Penguin HCS
p1495
sg52
Nssa(dp1496
g47
I2278207101
sg41
VWeaponDrop
p1497
sg236
I3
sg53
(lp1498
I2758383128
asg44
VPT1M37.698125S
p1499
sg239
I3
sg240
VP0DT0H0M3.2667S
p1500
sg48
(dp1501
g50
VnV Mikwen HCS
p1502
sg52
Nssa(dp1503
g47
I313138863
sg48
(dp1504
g50
VnV Mikwen HCS
p1505
sg52
Nssg53
(lp1506
I1095363701
asg41
VWeaponPickup
p1507
sg44
VPT1M37.698125S
p1508
sa(dp1509
g188
I4096745987
sg189
I00
sg190
I00
sg191
(dp1510
g50
VnV Pistola HCS
p1511
sg52
Nssg194
(lp1512
I2758383128
asg196
I00
sg197
I01
sg198
I1
sg199
I0
sg200
I1
sg201
(dp1513
Vy
F-9.0625789999999995
sVx
F15.1430264
sVz
F2.4486509999999999
ssg203
(dp1514
Vy
F-2.8584883200000002
sVx
F8.7594999999999992
sVz
F-0.44520762600000002
ssg205
I00
sg206
(dp1515
g50
VRNG Victory X
p1516
sg52
Nssg209
(lp1517
sg211
(lp1518
(dp1519
g50
VnV eL ToWn
p1520
sg52
Nsasg213
I01
sg44
VPT1M37.9331346S
p1521
sg41
VDeath
p1522
sg216
I1
sa(dp1523
g41
VMedal
p1524
sg48
(dp1525
g50
VnV Pistola HCS
p1526
sg52
Nssg227
I3261908037
sg44
VPT1M37.9341337S
p1527
sa(dp1528
g47
I313138863
sg41
VWeaponDrop
p1529
sg236
I14
sg53
(lp1530
I1095363701
asg44
VPT1M37.9351334S
p1531
sg239
I5
sg240
VP0DT0H0M12.1500S
p1532
sg48
(dp1533
g50
VRNG Victory X
p1534
sg52
Nssa(dp1535
g47
I313138863
sg41
VWeaponDrop
p1536
sg236
I0
sg53
(lp1537
I1095363701
asg44
VPT1M37.9351334S
p1538
sg239
I0
sg240
VP0DT0S
p1539
sg48
(dp1540
g50
VRNG Victory X
p1541
sg52
Nssa(dp1542
g47
I4096745987
sg41
VWeaponDrop
p1543
sg236
I11
sg53
(lp1544
I2758383128
asg44
VPT1M37.9351334S
p1545
sg239
I5
sg240
VP0DT0H0M25.6333S
p1546
sg48
(dp1547
g50
VRNG Victory X
p1548
sg52
Nssa(dp1549
g188
I313138863
sg189
I00
sg190
I00
sg191
(dp1550
g50
VRNG Ninja HCS
p1551
sg52
Nssg194
(lp1552
I1095363701
asg196
I00
sg197
I01
sg198
I1
sg199
I0
sg200
I1
sg201
(dp1553
Vy
F-0.547513366
sVx
F-3.3487279999999999
sVz
F0.51884839999999999
ssg203
(dp1554
Vy
F-0.48541674000000001
sVx
F-0.28821363999999999
sVz
F0.46709233500000003
ssg205
I00
sg206
(dp1555
g50
VnV Mikwen HCS
p1556
sg52
Nssg209
(lp1557
sg211
(lp1558
(dp1559
g50
VRNG Penguin HCS
p1560
sg52
Nsasg213
I00
sg44
VPT1M39.2991781S
p1561
sg41
VDeath
p1562
sg216
I1
sa(dp1563
g47
I313138863
sg41
VWeaponDrop
p1564
sg236
I10
sg53
(lp1565
I1095363701
asg44
VPT1M39.3011774S
p1566
sg239
I9
sg240
VP0DT0H0M1.6000S
p1567
sg48
(dp1568
g50
VnV Mikwen HCS
p1569
sg52
Nssa(dp1570
g47
I4096745987
sg41
VWeaponDrop
p1571
sg236
I3
sg53
(lp1572
I2758383128
asg44
VPT1M39.3011774S
p1573
sg239
I2
sg240
VP0DT0H0M8.8667S
p1574
sg48
(dp1575
g50
VnV Mikwen HCS
p1576
sg52
Nssa(dp1577
g188
I523953283
sg189
I00
sg190
I00
sg191
(dp1578
g50
VRNG Commonly
p1579
sg52
Nssg194
(lp1580
I2208825748
asg196
I00
sg197
I01
sg198
I1
sg199
I0
sg200
I1
sg201
(dp1581
Vy
F6.8134055099999999
sVx
F8.1234455099999998
sVz
F2.9802322400000001e-08
ssg203
(dp1582
Vy
F-4.6743309999999996
sVx
F7.5082810000000002
sVz
F1.6391277299999999e-06
ssg205
I00
sg206
(dp1583
g50
VnV Pistola HCS
p1584
sg52
Nssg209
(lp1585
sg211
(lp1586
sg213
I01
sg44
VPT1M41.9992638S
p1587
sg41
VDeath
p1588
sg216
I1
sa(dp1589
g41
VMedal
p1590
sg48
(dp1591
g50
VRNG Commonly
p1592
sg52
Nssg227
I3261908037
sg44
VPT1M42.0012642S
p1593
sa(dp1594
g47
I313138863
sg41
VWeaponDrop
p1595
sg236
I0
sg53
(lp1596
I1095363701
asg44
VPT1M42.0012642S
p1597
sg239
I0
sg240
VP0DT0H0M0.6833S
p1598
sg48
(dp1599
g50
VnV Pistola HCS
p1600
sg52
Nssa(dp1601
g47
I4096745987
sg41
VWeaponDrop
p1602
sg236
I2
sg53
(lp1603
I2758383128
asg44
VPT1M42.0012642S
p1604
sg239
I1
sg240
VP0DT0H0M12.1667S
p1605
sg48
(dp1606
g50
VnV Pistola HCS
p1607
sg52
Nssa(dp1608
g47
I313138863
sg48
(dp1609
g50
VnV eL ToWn
p1610
sg52
Nssg53
(lp1611
I1095363701
asg41
VWeaponPickup
p1612
sg44
VPT1M43.8663243S
p1613
sa(dp1614
g47
I4096745987
sg48
(dp1615
g50
VnV eL ToWn
p1616
sg52
Nssg53
(lp1617
I2758383128
asg41
VWeaponPickup
p1618
sg44
VPT1M43.8663243S
p1619
sa(dp1620
g41
VPlayerSpawn
p1621
sg48
(dp1622
g50
VnV eL ToWn
p1623
sg52
Nssg44
VPT1M43.8663243S
p1624
sa(dp1625
g47
I313138863
sg48
(dp1626
g50
VRNG Penguin HCS
p1627
sg52
Nssg53
(lp1628
I1095363701
asg41
VWeaponPickup
p1629
sg44
VPT1M44.6833507S
p1630
sa(dp1631
g47
I4096745987
sg48
(dp1632
g50
VRNG Penguin HCS
p1633
sg52
Nssg53
(lp1634
I2758383128
asg41
VWeaponPickup
p1635
sg44
VPT1M44.6833507S
p1636
sa(dp1637
g41
VPlayerSpawn
p1638
sg48
(dp1639
g50
VRNG Penguin HCS
p1640
sg52
Nssg44
VPT1M44.6833507S
p1641
sa(dp1642
g47
I313138863
sg48
(dp1643
g50
VRNG Victory X
p1644
sg52
Nssg53
(lp1645
I1095363701
asg41
VWeaponPickup
p1646
sg44
VPT1M45.9493912S
p1647
sa(dp1648
g47
I4096745987
sg48
(dp1649
g50
VRNG Victory X
p1650
sg52
Nssg53
(lp1651
I2758383128
asg41
VWeaponPickup
p1652
sg44
VPT1M45.9503915S
p1653
sa(dp1654
g41
VPlayerSpawn
p1655
sg48
(dp1656
g50
VRNG Victory X
p1657
sg52
Nssg44
VPT1M45.9503915S
p1658
sa(dp1659
g41
VMedal
p1660
sg48
(dp1661
g50
VRNG Commonly
p1662
sg52
Nssg227
I3400287617
sg44
VPT1M47.2154307S
p1663
sa(dp1664
g47
I313138863
sg48
(dp1665
g50
VnV Mikwen HCS
p1666
sg52
Nssg53
(lp1667
I1095363701
asg41
VWeaponPickup
p1668
sg44
VPT1M47.316435S
p1669
sa(dp1670
g47
I4096745987
sg48
(dp1671
g50
VnV Mikwen HCS
p1672
sg52
Nssg53
(lp1673
I2758383128
asg41
VWeaponPickup
p1674
sg44
VPT1M47.316435S
p1675
sa(dp1676
g41
VPlayerSpawn
p1677
sg48
(dp1678
g50
VnV Mikwen HCS
p1679
sg52
Nssg44
VPT1M47.316435S
p1680
sa(dp1681
g47
I313138863
sg48
(dp1682
g50
VnV Pistola HCS
p1683
sg52
Nssg53
(lp1684
I1095363701
asg41
VWeaponPickup
p1685
sg44
VPT1M50.0165215S
p1686
sa(dp1687
g47
I4096745987
sg48
(dp1688
g50
VnV Pistola HCS
p1689
sg52
Nssg53
(lp1690
I2758383128
asg41
VWeaponPickup
p1691
sg44
VPT1M50.0165215S
p1692
sa(dp1693
g41
VPlayerSpawn
p1694
sg48
(dp1695
g50
VnV Pistola HCS
p1696
sg52
Nssg44
VPT1M50.0165215S
p1697
sa(dp1698
g188
I313138863
sg189
I00
sg190
I00
sg191
(dp1699
g50
VRNG Penguin HCS
p1700
sg52
Nssg194
(lp1701
I1095363701
asg196
I00
sg197
I01
sg198
I1
sg199
I0
sg200
I1
sg201
(dp1702
Vy
F5.8749310000000001
sVx
F16.022697399999998
sVz
F2.4645223600000001
ssg203
(dp1703
Vy
F2.7625829999999998
sVx
F17.909572600000001
sVz
F2.243538
ssg205
I00
sg206
(dp1704
g50
VnV eL ToWn
p1705
sg52
Nssg209
(lp1706
sg211
(lp1707
(dp1708
g50
VRNG Victory X
p1709
sg52
Nsasg213
I00
sg44
VPT1M52.8176099S
p1710
sg41
VDeath
p1711
sg216
I1
sa(dp1712
g47
I313138863
sg41
VWeaponDrop
p1713
sg236
I0
sg53
(lp1714
I1095363701
asg44
VPT1M52.8196102S
p1715
sg239
I0
sg240
VP0DT0H0M3.8667S
p1716
sg48
(dp1717
g50
VnV eL ToWn
p1718
sg52
Nssa(dp1719
g47
I4096745987
sg41
VWeaponDrop
p1720
sg236
I1
sg53
(lp1721
I2758383128
asg44
VPT1M52.8196102S
p1722
sg239
I1
sg240
VP0DT0H0M5.0833S
p1723
sg48
(dp1724
g50
VnV eL ToWn
p1725
sg52
Nssa(dp1726
g188
I313138863
sg189
I00
sg190
I01
sg191
(dp1727
g50
VnV RayneHCS
p1728
sg52
Nssg194
(lp1729
I1095363701
asg196
I00
sg197
I00
sg198
I1
sg199
I0
sg200
I1
sg201
(dp1730
Vy
F-1.34052455
sVx
F13.9737005
sVz
F0.79590079999999996
ssg203
(dp1731
Vy
F-1.22887635
sVx
F13.3957119
sVz
F1.31374514
ssg205
I00
sg206
(dp1732
g50
VRNG Commonly
p1733
sg52
Nssg209
(lp1734
sg211
(lp1735
sg213
I00
sg44
VPT1M56.4327265S
p1736
sg41
VDeath
p1737
sg216
I1
sa(dp1738
g41
VMedal
p1739
sg48
(dp1740
g50
VnV RayneHCS
p1741
sg52
Nssg227
I2287626681
sg44
VPT1M56.4337264S
p1742
sa(dp1743
g47
I523953283
sg41
VWeaponDrop
p1744
sg236
I7
sg53
(lp1745
I2208825748
asg44
VPT1M56.4337264S
p1746
sg239
I5
sg240
VP0DT0H0M22.1333S
p1747
sg48
(dp1748
g50
VRNG Commonly
p1749
sg52
Nssa(dp1750
g47
I313138863
sg41
VWeaponDrop
p1751
sg236
I0
sg53
(lp1752
I1095363701
asg44
VPT1M56.434727S
p1753
sg239
I0
sg240
VP0DT0H0M0.8000S
p1754
sg48
(dp1755
g50
VRNG Commonly
p1756
sg52
Nssa(dp1757
g188
I3190813201
sg189
I00
sg190
I00
sg191
(dp1758
g50
VRNG Commonly
p1759
sg52
Nssg194
(lp1760
sg196
I00
sg197
I01
sg198
I1
sg199
I0
sg200
I1
sg201
(dp1761
Vy
F-1.08155811
sVx
F13.108513800000001
sVz
F1.97733855
ssg203
(dp1762
Vy
F-1.6057043099999999
sVx
F14.155939099999999
sVz
F0.79999880000000001
ssg205
I00
sg206
(dp1763
g50
VnV RayneHCS
p1764
sg52
Nssg209
(lp1765
sg211
(lp1766
sg213
I00
sg44
VPT1M56.9487421S
p1767
sg41
VDeath
p1768
sg216
I1
sa(dp1769
g41
VMedal
p1770
sg48
(dp1771
g50
VRNG Commonly
p1772
sg52
Nssg227
I285057226
sg44
VPT1M56.9507424S
p1773
sa(dp1774
g47
I313138863
sg41
VWeaponDrop
p1775
sg236
I6
sg53
(lp1776
I1095363701
asg44
VPT1M56.9507424S
p1777
sg239
I6
sg240
VP0DT0H0M5.3667S
p1778
sg48
(dp1779
g50
VnV RayneHCS
p1780
sg52
Nssa(dp1781
g47
I313138863
sg41
VWeaponDrop
p1782
sg236
I0
sg53
(lp1783
I1095363701
asg44
VPT1M56.9507424S
p1784
sg239
I0
sg240
VP0DT0S
p1785
sg48
(dp1786
g50
VnV RayneHCS
p1787
sg52
Nssa(dp1788
g47
I4096745987
sg41
VWeaponDrop
p1789
sg236
I6
sg53
(lp1790
I2758383128
asg44
VPT1M56.9507424S
p1791
sg239
I6
sg240
VP0DT0H0M17.1667S
p1792
sg48
(dp1793
g50
VnV RayneHCS
p1794
sg52
Nssa(dp1795
g188
I4096745987
sg189
I00
sg190
I00
sg191
(dp1796
g50
VnV Mikwen HCS
p1797
sg52
Nssg194
(lp1798
I2758383128
asg196
I00
sg197
I01
sg198
I1
sg199
I0
sg200
I1
sg201
(dp1799
Vy
F-16.583320000000001
sVx
F12.219618799999999
sVz
F1.169862
ssg203
(dp1800
Vy
F-16.326025000000001
sVx
F6.87994766
sVz
F1.061272
ssg205
I00
sg206
(dp1801
g50
VRNG Ninja HCS
p1802
sg52
Nssg209
(lp1803
sg211
(lp1804
sg213
I01
sg44
VPT2M0.7328643S
p1805
sg41
VDeath
p1806
sg216
I1
sa(dp1807
g41
VMedal
p1808
sg48
(dp1809
g50
VnV Mikwen HCS
p1810
sg52
Nssg227
I3261908037
sg44
VPT2M0.7348633S
p1811
sa(dp1812
g47
I4096745987
sg41
VWeaponDrop
p1813
sg236
I12
sg53
(lp1814
I2758383128
asg44
VPT2M0.7358636S
p1815
sg239
I7
sg240
VP0DT0H0M26.5333S
p1816
sg48
(dp1817
g50
VRNG Ninja HCS
p1818
sg52
Nssa(dp1819
g47
I313138863
sg41
VWeaponDrop
p1820
sg236
I14
sg53
(lp1821
I1095363701
asg44
VPT2M0.7358636S
p1822
sg239
I6
sg240
VP0DT0H0M7.8333S
p1823
sg48
(dp1824
g50
VRNG Ninja HCS
p1825
sg52
Nssa(dp1826
g47
I313138863
sg48
(dp1827
g50
VnV eL ToWn
p1828
sg52
Nssg53
(lp1829
I1095363701
asg41
VWeaponPickup
p1830
sg44
VPT2M0.8328672S
p1831
sa(dp1832
g47
I4096745987
sg48
(dp1833
g50
VnV eL ToWn
p1834
sg52
Nssg53
(lp1835
I2758383128
asg41
VWeaponPickup
p1836
sg44
VPT2M0.8328672S
p1837
sa(dp1838
g41
VPlayerSpawn
p1839
sg48
(dp1840
g50
VnV eL ToWn
p1841
sg52
Nssg44
VPT2M0.8328672S
p1842
sa(dp1843
g188
I4096745987
sg189
I00
sg190
I00
sg191
(dp1844
g50
VRNG Victory X
p1845
sg52
Nssg194
(lp1846
I2758383128
asg196
I00
sg197
I01
sg198
I1
sg199
I0
sg200
I1
sg201
(dp1847
Vy
F3.1785538199999999
sVx
F19.0404968
sVz
F1.0330010700000001
ssg203
(dp1848
Vy
F-4.2576785099999999
sVx
F18.5620251
sVz
F1.30636442
ssg205
I00
sg206
(dp1849
g50
VnV Pistola HCS
p1850
sg52
Nssg209
(lp1851
sg211
(lp1852
(dp1853
g50
VRNG Penguin HCS
p1854
sg52
Nsasg213
I00
sg44
VPT2M3.981967S
p1855
sg41
VDeath
p1856
sg216
I1
sa(dp1857
g41
VImpulse
p1858
sg48
(dp1859
g50
VRNG Victory X
p1860
sg52
Nssg221
I2556889090
sg44
VPT2M3.9829682S
p1861
sa(dp1862
g41
VMedal
p1863
sg48
(dp1864
g50
VRNG Victory X
p1865
sg52
Nssg227
I2838259753
sg44
VPT2M3.9829682S
p1866
sa(dp1867
g47
I313138863
sg41
VWeaponDrop
p1868
sg236
I6
sg53
(lp1869
I1095363701
asg44
VPT2M3.983968S
p1870
sg239
I3
sg240
VP0DT0H0M4.3333S
p1871
sg48
(dp1872
g50
VnV Pistola HCS
p1873
sg52
Nssa(dp1874
g47
I4096745987
sg41
VWeaponDrop
p1875
sg236
I4
sg53
(lp1876
I2758383128
asg44
VPT2M3.9849683S
p1877
sg239
I3
sg240
VP0DT0H0M9.6333S
p1878
sg48
(dp1879
g50
VnV Pistola HCS
p1880
sg52
Nssa(dp1881
g47
I313138863
sg48
(dp1882
g50
VRNG Commonly
p1883
sg52
Nssg53
(lp1884
I1095363701
asg41
VWeaponPickup
p1885
sg44
VPT2M4.4499832S
p1886
sa(dp1887
g47
I4096745987
sg48
(dp1888
g50
VRNG Commonly
p1889
sg52
Nssg53
(lp1890
I2758383128
asg41
VWeaponPickup
p1891
sg44
VPT2M4.4499832S
p1892
sa(dp1893
g41
VPlayerSpawn
p1894
sg48
(dp1895
g50
VRNG Commonly
p1896
sg52
Nssg44
VPT2M4.4499832S
p1897
sa(dp1898
g47
I313138863
sg48
(dp1899
g50
VnV RayneHCS
p1900
sg52
Nssg53
(lp1901
I1095363701
asg41
VWeaponPickup
p1902
sg44
VPT2M4.966S
p1903
sa(dp1904
g47
I4096745987
sg48
(dp1905
g50
VnV RayneHCS
p1906
sg52
Nssg53
(lp1907
I2758383128
asg41
VWeaponPickup
p1908
sg44
VPT2M4.966S
p1909
sa(dp1910
g41
VPlayerSpawn
p1911
sg48
(dp1912
g50
VnV RayneHCS
p1913
sg52
Nssg44
VPT2M4.966S
p1914
sa(dp1915
g188
I4096745987
sg189
I00
sg190
I00
sg191
(dp1916
g50
VnV Mikwen HCS
p1917
sg52
Nssg194
(lp1918
I2758383128
asg196
I00
sg197
I01
sg198
I1
sg199
I0
sg200
I1
sg201
(dp1919
Vy
F-12.4672842
sVx
F16.453891800000001
sVz
F2.8659379999999999
ssg203
(dp1920
Vy
F0.69903669999999996
sVx
F20.260458
sVz
F2.4472577599999998
ssg205
I00
sg206
(dp1921
g50
VRNG Victory X
p1922
sg52
Nssg209
(lp1923
sg211
(lp1924
sg213
I01
sg44
VPT2M6.7660569S
p1925
sg41
VDeath
p1926
sg216
I1
sa(dp1927
g41
VImpulse
p1928
sg48
(dp1929
g50
VnV Mikwen HCS
p1930
sg52
Nssg221
I3174430457
sg44
VPT2M6.7680566S
p1931
sa(dp1932
g41
VMedal
p1933
sg48
(dp1934
g50
VnV Mikwen HCS
p1935
sg52
Nssg227
I3653057799
sg44
VPT2M6.7690564S
p1936
sa(dp1937
g47
I313138863
sg41
VWeaponDrop
p1938
sg236
I0
sg53
(lp1939
I1095363701
asg44
VPT2M6.7690564S
p1940
sg239
I0
sg240
VP0DT0H0M0.4167S
p1941
sg48
(dp1942
g50
VRNG Victory X
p1943
sg52
Nssa(dp1944
g47
I4096745987
sg41
VWeaponDrop
p1945
sg236
I13
sg53
(lp1946
I2758383128
asg44
VPT2M6.7690564S
p1947
sg239
I8
sg240
VP0DT0H0M20.4000S
p1948
sg48
(dp1949
g50
VRNG Victory X
p1950
sg52
Nssa(dp1951
g41
VMedal
p1952
sg48
(dp1953
g50
VnV RayneHCS
p1954
sg52
Nssg227
I2916014239
sg44
VPT2M7.7821033S
p1955
sa(dp1956
g47
I313138863
sg48
(dp1957
g50
VRNG Ninja HCS
p1958
sg52
Nssg53
(lp1959
I1095363701
asg41
VWeaponPickup
p1960
sg44
VPT2M8.7491201S
p1961
sa(dp1962
g47
I4096745987
sg48
(dp1963
g50
VRNG Ninja HCS
p1964
sg52
Nssg53
(lp1965
I2758383128
asg41
VWeaponPickup
p1966
sg44
VPT2M8.750121S
p1967
sa(dp1968
g41
VPlayerSpawn
p1969
sg48
(dp1970
g50
VRNG Ninja HCS
p1971
sg52
Nssg44
VPT2M8.750121S
p1972
sa(dp1973
g47
I313138863
sg48
(dp1974
g50
VnV Pistola HCS
p1975
sg52
Nssg53
(lp1976
I1095363701
asg41
VWeaponPickup
p1977
sg44
VPT2M11.9992246S
p1978
sa(dp1979
g47
I4096745987
sg48
(dp1980
g50
VnV Pistola HCS
p1981
sg52
Nssg53
(lp1982
I2758383128
asg41
VWeaponPickup
p1983
sg44
VPT2M12.0002249S
p1984
sa(dp1985
g41
VPlayerSpawn
p1986
sg48
(dp1987
g50
VnV Pistola HCS
p1988
sg52
Nssg44
VPT2M12.0002249S
p1989
sa(dp1990
g188
I313138863
sg189
I00
sg190
I00
sg191
(dp1991
g50
VnV eL ToWn
p1992
sg52
Nssg194
(lp1993
I1095363701
asg196
I00
sg197
I01
sg198
I1
sg199
I0
sg200
I1
sg201
(dp1994
Vy
F8.2082660000000001
sVx
F-7.8210600000000001
sVz
F0.80044174199999996
ssg203
(dp1995
Vy
F6.6269836399999997
sVx
F-5.2428546000000003
sVz
F1.808568
ssg205
I00
sg206
(dp1996
g50
VRNG Commonly
p1997
sg52
Nssg209
(lp1998
sg211
(lp1999
sg213
I00
sg44
VPT2M13.5992759S
p2000
sg41
VDeath
p2001
sg216
I1
sa(dp2002
g47
I313138863
sg41
VWeaponDrop
p2003
sg236
I3
sg53
(lp2004
I1095363701
asg44
VPT2M13.6012749S
p2005
sg239
I0
sg240
VP0DT0H0M5.1167S
p2006
sg48
(dp2007
g50
VRNG Commonly
p2008
sg52
Nssa(dp2009
g47
I4096745987
sg41
VWeaponDrop
p2010
sg236
I0
sg53
(lp2011
I2758383128
asg44
VPT2M13.6012749S
p2012
sg239
I0
sg240
VP0DT0H0M4.0333S
p2013
sg48
(dp2014
g50
VRNG Commonly
p2015
sg52
Nssa(dp2016
g188
I313138863
sg189
I00
sg190
I00
sg191
(dp2017
g50
VnV RayneHCS
p2018
sg52
Nssg194
(lp2019
I1095363701
asg196
I00
sg197
I01
sg198
I1
sg199
I0
sg200
I1
sg201
(dp2020
Vy
F-2.4142950000000001
sVx
F19.582965900000001
sVz
F0.98259365600000004
ssg203
(dp2021
Vy
F-1.91448891
sVx
F12.313385
sVz
F1.0557196099999999
ssg205
I00
sg206
(dp2022
g50
VRNG Penguin HCS
p2023
sg52
Nssg209
(lp2024
sg211
(lp2025
(dp2026
g50
VnV Mikwen HCS
p2027
sg52
Nsasg213
I00
sg44
VPT2M14.2822966S
p2028
sg41
VDeath
p2029
sg216
I1
sa(dp2030
g47
I313138863
sg41
VWeaponDrop
p2031
sg236
I43
sg53
(lp2032
I1095363701
asg44
VPT2M14.2842976S
p2033
sg239
I21
sg240
VP0DT0H0M18.5833S
p2034
sg48
(dp2035
g50
VRNG Penguin HCS
p2036
sg52
Nssa(dp2037
g47
I4096745987
sg41
VWeaponDrop
p2038
sg236
I5
sg53
(lp2039
I2758383128
asg44
VPT2M14.2842976S
p2040
sg239
I3
sg240
VP0DT0H0M11.0167S
p2041
sg48
(dp2042
g50
VRNG Penguin HCS
p2043
sg52
Nssa(dp2044
g188
I4096745987
sg189
I00
sg190
I00
sg191
(dp2045
g50
VRNG Ninja HCS
p2046
sg52
Nssg194
(lp2047
I2758383128
asg196
I00
sg197
I01
sg198
I1
sg199
I0
sg200
I1
sg201
(dp2048
Vy
F7.7390179999999997
sVx
F2.3575272599999999
sVz
F3.784895e-06
ssg203
(dp2049
Vy
F9.2541689999999992
sVx
F-7.5863769999999997
sVz
F1.81687975
ssg205
I00
sg206
(dp2050
g50
VnV eL ToWn
p2051
sg52
Nssg209
(lp2052
sg211
(lp2053
(dp2054
g50
VRNG Commonly
p2055
sg52
Nsasg213
I01
sg44
VPT2M14.4323017S
p2056
sg41
VDeath
p2057
sg216
I1
sa(dp2058
g41
VMedal
p2059
sg48
(dp2060
g50
VRNG Ninja HCS
p2061
sg52
Nssg227
I3261908037
sg44
VPT2M14.4343018S
p2062
sa(dp2063
g47
I313138863
sg41
VWeaponDrop
p2064
sg236
I18
sg53
(lp2065
I1095363701
asg44
VPT2M14.4353026S
p2066
sg239
I6
sg240
VP0DT0H0M4.2500S
p2067
sg48
(dp2068
g50
VnV eL ToWn
p2069
sg52
Nssa(dp2070
g47
I4096745987
sg41
VWeaponDrop
p2071
sg236
I4
sg53
(lp2072
I2758383128
asg44
VPT2M14.4353026S
p2073
sg239
I4
sg240
VP0DT0H0M9.3500S
p2074
sg48
(dp2075
g50
VnV eL ToWn
p2076
sg52
Nssa(dp2077
g47
I313138863
sg48
(dp2078
g50
VRNG Victory X
p2079
sg52
Nssg53
(lp2080
I1095363701
asg41
VWeaponPickup
p2081
sg44
VPT2M14.783313S
p2082
sa(dp2083
g47
I4096745987
sg48
(dp2084
g50
VRNG Victory X
p2085
sg52
Nssg53
(lp2086
I2758383128
asg41
VWeaponPickup
p2087
sg44
VPT2M14.783313S
p2088
sa(dp2089
g41
VPlayerSpawn
p2090
sg48
(dp2091
g50
VRNG Victory X
p2092
sg52
Nssg44
VPT2M14.783313S
p2093
sa(dp2094
g188
I4096745987
sg189
I00
sg190
I00
sg191
(dp2095
g50
VnV Mikwen HCS
p2096
sg52
Nssg194
(lp2097
I2758383128
asg196
I00
sg197
I01
sg198
I1
sg199
I0
sg200
I1
sg201
(dp2098
Vy
F-2.11413479
sVx
F9.2223900000000008
sVz
F-0.75249840000000001
ssg203
(dp2099
Vy
F3.4349379999999998
sVx
F0.68869139999999995
sVz
F0.64723540000000002
ssg205
I00
sg206
(dp2100
g50
VRNG Ninja HCS
p2101
sg52
Nssg209
(lp2102
sg211
(lp2103
(dp2104
g50
VnV Pistola HCS
p2105
sg52
Nsasg213
I01
sg44
VPT2M18.6324361S
p2106
sg41
VDeath
p2107
sg216
I1
sa(dp2108
g41
VImpulse
p2109
sg48
(dp2110
g50
VnV Mikwen HCS
p2111
sg52
Nssg221
I2556889090
sg44
VPT2M18.6324361S
p2112
sa(dp2113
g41
VMedal
p2114
sg48
(dp2115
g50
VnV Mikwen HCS
p2116
sg52
Nssg227
I2838259753
sg44
VPT2M18.6324361S
p2117
sa(dp2118
g41
VMedal
p2119
sg48
(dp2120
g50
VnV Mikwen HCS
p2121
sg52
Nssg227
I3261908037
sg44
VPT2M18.6344361S
p2122
sa(dp2123
g47
I313138863
sg41
VWeaponDrop
p2124
sg236
I0
sg53
(lp2125
I1095363701
asg44
VPT2M18.6344361S
p2126
sg239
I0
sg240
VP0DT0H0M0.8167S
p2127
sg48
(dp2128
g50
VRNG Ninja HCS
p2129
sg52
Nssa(dp2130
g47
I4096745987
sg41
VWeaponDrop
p2131
sg236
I18
sg53
(lp2132
I2758383128
asg44
VPT2M18.6344361S
p2133
sg239
I9
sg240
VP0DT0H0M9.0667S
p2134
sg48
(dp2135
g50
VRNG Ninja HCS
p2136
sg52
Nssa(dp2137
g47
I313138863
sg41
VWeaponDrop
p2138
sg236
I0
sg53
(lp2139
I1095363701
asg44
VPT2M21.0645165S
p2140
sg239
I0
sg240
VP0DT0H0M1.7833S
p2141
sg48
(dp2142
g50
VRNG Victory X
p2143
sg52
Nssa(dp2144
g47
I2278207101
sg48
(dp2145
g50
VRNG Victory X
p2146
sg52
Nssg53
(lp2147
I2758383128
asg41
VWeaponPickupPad
p2148
sg44
VPT2M21.0645165S
p2149
sa(dp2150
g47
I2278207101
sg48
(dp2151
g50
VRNG Victory X
p2152
sg52
Nssg53
(lp2153
I2758383128
asg41
VWeaponPickup
p2154
sg44
VPT2M21.0645165S
p2155
sa(dp2156
g47
I313138863
sg48
(dp2157
g50
VRNG Commonly
p2158
sg52
Nssg53
(lp2159
I1095363701
asg41
VWeaponPickup
p2160
sg44
VPT2M21.6165322S
p2161
sa(dp2162
g47
I4096745987
sg48
(dp2163
g50
VRNG Commonly
p2164
sg52
Nssg53
(lp2165
I2758383128
asg41
VWeaponPickup
p2166
sg44
VPT2M21.6165322S
p2167
sa(dp2168
g41
VPlayerSpawn
p2169
sg48
(dp2170
g50
VRNG Commonly
p2171
sg52
Nssg44
VPT2M21.6165322S
p2172
sa(dp2173
g47
I313138863
sg48
(dp2174
g50
VRNG Penguin HCS
p2175
sg52
Nssg53
(lp2176
I1095363701
asg41
VWeaponPickup
p2177
sg44
VPT2M22.2995544S
p2178
sa(dp2179
g47
I4096745987
sg48
(dp2180
g50
VRNG Penguin HCS
p2181
sg52
Nssg53
(lp2182
I2758383128
asg41
VWeaponPickup
p2183
sg44
VPT2M22.2995544S
p2184
sa(dp2185
g41
VPlayerSpawn
p2186
sg48
(dp2187
g50
VRNG Penguin HCS
p2188
sg52
Nssg44
VPT2M22.2995544S
p2189
sa(dp2190
g47
I313138863
sg48
(dp2191
g50
VnV eL ToWn
p2192
sg52
Nssg53
(lp2193
I1095363701
asg41
VWeaponPickup
p2194
sg44
VPT2M22.4495591S
p2195
sa(dp2196
g47
I4096745987
sg48
(dp2197
g50
VnV eL ToWn
p2198
sg52
Nssg53
(lp2199
I2758383128
asg41
VWeaponPickup
p2200
sg44
VPT2M22.4495591S
p2201
sa(dp2202
g41
VPlayerSpawn
p2203
sg48
(dp2204
g50
VnV eL ToWn
p2205
sg52
Nssg44
VPT2M22.4495591S
p2206
sa(dp2207
g41
VMedal
p2208
sg48
(dp2209
g50
VnV Pistola HCS
p2210
sg52
Nssg227
I3565443938
sg44
VPT2M22.7645667S
p2211
sa(dp2212
g41
VMedal
p2213
sg48
(dp2214
g50
VnV Mikwen HCS
p2215
sg52
Nssg227
I3565443938
sg44
VPT2M22.7645667S
p2216
sa(dp2217
g47
I313138863
sg48
(dp2218
g50
VRNG Ninja HCS
p2219
sg52
Nssg53
(lp2220
I1095363701
asg41
VWeaponPickup
p2221
sg44
VPT2M26.6496933S
p2222
sa(dp2223
g47
I4096745987
sg48
(dp2224
g50
VRNG Ninja HCS
p2225
sg52
Nssg53
(lp2226
I2758383128
asg41
VWeaponPickup
p2227
sg44
VPT2M26.6496933S
p2228
sa(dp2229
g41
VPlayerSpawn
p2230
sg48
(dp2231
g50
VRNG Ninja HCS
p2232
sg52
Nssg44
VPT2M26.6496933S
p2233
sa(dp2234
g188
I2278207101
sg189
I00
sg190
I00
sg191
(dp2235
g50
VRNG Victory X
p2236
sg52
Nssg194
(lp2237
I2758383128
asg196
I00
sg197
I01
sg198
I1
sg199
I0
sg200
I1
sg201
(dp2238
Vy
F-3.4648685499999998
sVx
F-1.6017375
sVz
F0.94708216199999995
ssg203
(dp2239
Vy
F0.20642054100000001
sVx
F-0.81129200000000001
sVz
F0.47284507799999997
ssg205
I00
sg206
(dp2240
g50
VnV Pistola HCS
p2241
sg52
Nssg209
(lp2242
sg211
(lp2243
sg213
I00
sg44
VPT2M30.5158164S
p2244
sg41
VDeath
p2245
sg216
I1
sa(dp2246
g47
I313138863
sg41
VWeaponDrop
p2247
sg236
I7
sg53
(lp2248
I1095363701
asg44
VPT2M30.5168167S
p2249
sg239
I7
sg240
VP0DT0H0M4.7333S
p2250
sg48
(dp2251
g50
VnV Pistola HCS
p2252
sg52
Nssa(dp2253
g47
I4096745987
sg41
VWeaponDrop
p2254
sg236
I11
sg53
(lp2255
I2758383128
asg44
VPT2M30.5168167S
p2256
sg239
I5
sg240
VP0DT0H0M13.7833S
p2257
sg48
(dp2258
g50
VnV Pistola HCS
p2259
sg52
Nssa(dp2260
g188
I4106030681
sg189
I00
sg190
I00
sg191
(dp2261
g50
VnV Pistola HCS
p2262
sg52
Nssg194
(lp2263
sg196
I00
sg197
I00
sg198
I2
sg199
I0
sg200
I0
sg201
(dp2264
Vy
F1.4611192900000001
sVx
F-1.73993862
sVz
F1.1548050599999999
ssg203
(dp2265
Vy
F-1.6206187000000001
sVx
F-0.49882584800000002
sVz
F0.42065750000000002
ssg205
I00
sg206
(dp2266
g596
g597
ssg209
(lp2267
sg211
(lp2268
sg213
I00
sg44
VPT2M31.3158427S
p2269
sg41
VDeath
p2270
sg216
I1
sa(dp2271
g188
I4106030681
sg189
I00
sg190
I00
sg191
(dp2272
g50
VnV eL ToWn
p2273
sg52
Nssg194
(lp2274
sg196
I00
sg197
I01
sg198
I1
sg199
I0
sg200
I1
sg201
(dp2275
Vy
F-7.7773046499999996
sVx
F14.782975199999999
sVz
F1.62332261
ssg203
(dp2276
Vy
F-14.6818943
sVx
F12.9030275
sVz
F2.367734
ssg205
I00
sg206
(dp2277
g50
VRNG Commonly
p2278
sg52
Nssg209
(lp2279
sg211
(lp2280
(dp2281
g50
VnV Mikwen HCS
p2282
sg52
Nsasg213
I00
sg44
VPT2M33.3819083S
p2283
sg41
VDeath
p2284
sg216
I1
sa(dp2285
g47
I313138863
sg41
VWeaponDrop
p2286
sg236
I0
sg53
(lp2287
I1095363701
asg44
VPT2M33.3839083S
p2288
sg239
I0
sg240
VP0DT0H0M3.3833S
p2289
sg48
(dp2290
g50
VRNG Commonly
p2291
sg52
Nssa(dp2292
g47
I4096745987
sg41
VWeaponDrop
p2293
sg236
I5
sg53
(lp2294
I2758383128
asg44
VPT2M33.3839083S
p2295
sg239
I2
sg240
VP0DT0H0M8.3833S
p2296
sg48
(dp2297
g50
VRNG Commonly
p2298
sg52
Nssa(dp2299
g188
I4106030681
sg189
I00
sg190
I00
sg191
(dp2300
g50
VnV RayneHCS
p2301
sg52
Nssg194
(lp2302
sg196
I00
sg197
I00
sg198
I2
sg199
I0
sg200
I0
sg201
(dp2303
Vy
F8.2894869999999994
sVx
F15.7960911
sVz
F1.60030293
ssg203
(dp2304
Vy
F1.61523843
sVx
F-0.49887633300000001
sVz
F0.42065989999999998
ssg205
I00
sg206
(dp2305
g596
g597
ssg209
(lp2306
sg211
(lp2307
sg213
I00
sg44
VPT2M33.5319138S
p2308
sg41
VDeath
p2309
sg216
I1
sa(dp2310
g47
I2492868984
sg48
(dp2311
g50
VnV Mikwen HCS
p2312
sg52
Nssg53
(lp2313
I2758383128
asg41
VWeaponPickup
p2314
sg44
VPT2M33.7819214S
p2315
sa(dp2316
g47
I2492868984
sg41
VWeaponDrop
p2317
sg236
I0
sg53
(lp2318
I2758383128
asg44
VPT2M34.933957S
p2319
sg239
I0
sg240
VP0DT0H0M1.0000S
p2320
sg48
(dp2321
g50
VnV Mikwen HCS
p2322
sg52
Nssa(dp2323
g47
I4096745987
sg41
VWeaponDrop
p2324
sg236
I0
sg53
(lp2325
I2758383128
asg44
VPT2M35.1479632S
p2326
sg239
I0
sg240
VP0DT0H0M5.7333S
p2327
sg48
(dp2328
g50
VRNG Victory X
p2329
sg52
Nssa(dp2330
g47
I524558978
sg48
(dp2331
g50
VRNG Victory X
p2332
sg52
Nssg53
(lp2333
I2758383128
asg41
VWeaponPickup
p2334
sg44
VPT2M35.1479632S
p2335
sa(dp2336
g188
I313138863
sg189
I01
sg190
I00
sg191
(dp2337
g50
VRNG Penguin HCS
p2338
sg52
Nssg194
(lp2339
I1095363701
asg196
I00
sg197
I00
sg198
I1
sg199
I0
sg200
I1
sg201
(dp2340
Vy
F-11.6636772
sVx
F6.4869566000000001
sVz
F0.70281360000000004
ssg203
(dp2341
Vy
F-12.079090000000001
sVx
F6.7608103799999997
sVz
F0.95011009999999996
ssg205
I00
sg206
(dp2342
g50
VnV eL ToWn
p2343
sg52
Nssg209
(lp2344
sg211
(lp2345
sg213
I00
sg44
VPT2M37.6020418S
p2346
sg41
VDeath
p2347
sg216
I1
sa(dp2348
g41
VMedal
p2349
sg48
(dp2350
g50
VRNG Penguin HCS
p2351
sg52
Nssg227
I3270120991
sg44
VPT2M37.6030437S
p2352
sa(dp2353
g47
I313138863
sg41
VWeaponDrop
p2354
sg236
I0
sg53
(lp2355
I1095363701
asg44
VPT2M37.6040442S
p2356
sg239
I0
sg240
VP0DT0H0M3.5833S
p2357
sg48
(dp2358
g50
VnV eL ToWn
p2359
sg52
Nssa(dp2360
g47
I4096745987
sg41
VWeaponDrop
p2361
sg236
I9
sg53
(lp2362
I2758383128
asg44
VPT2M37.6040442S
p2363
sg239
I5
sg240
VP0DT0H0M11.5667S
p2364
sg48
(dp2365
g50
VnV eL ToWn
p2366
sg52
Nssa(dp2367
g47
I313138863
sg48
(dp2368
g50
VnV Pistola HCS
p2369
sg52
Nssg53
(lp2370
I1095363701
asg41
VWeaponPickup
p2371
sg44
VPT2M38.5330737S
p2372
sa(dp2373
g47
I4096745987
sg48
(dp2374
g50
VnV Pistola HCS
p2375
sg52
Nssg53
(lp2376
I2758383128
asg41
VWeaponPickup
p2377
sg44
VPT2M38.5330737S
p2378
sa(dp2379
g41
VPlayerSpawn
p2380
sg48
(dp2381
g50
VnV Pistola HCS
p2382
sg52
Nssg44
VPT2M38.5330737S
p2383
sa(dp2384
g188
I4096745987
sg189
I01
sg190
I00
sg191
(dp2385
g50
VRNG Ninja HCS
p2386
sg52
Nssg194
(lp2387
I2758383128
asg196
I00
sg197
I00
sg198
I1
sg199
I0
sg200
I1
sg201
(dp2388
Vy
F-0.57275310000000001
sVx
F7.3548007000000002
sVz
F-0.80001205200000003
ssg203
(dp2389
Vy
F-0.69799789999999995
sVx
F7.0136560000000001
sVz
F-0.80001175400000002
ssg205
I00
sg206
(dp2390
g50
VnV Mikwen HCS
p2391
sg52
Nssg209
(lp2392
sg211
(lp2393
(dp2394
g50
VRNG Victory X
p2395
sg52
Nsasg213
I00
sg44
VPT2M39.2660959S
p2396
sg41
VDeath
p2397
sg216
I1
sa(dp2398
g41
VMedal
p2399
sg48
(dp2400
g50
VRNG Victory X
p2401
sg52
Nssg227
I2366628262
sg44
VPT2M39.2660959S
p2402
sa(dp2403
g41
VMedal
p2404
sg48
(dp2405
g50
VRNG Ninja HCS
p2406
sg52
Nssg227
I3270120991
sg44
VPT2M39.2670968S
p2407
sa(dp2408
g47
I313138863
sg41
VWeaponDrop
p2409
sg236
I22
sg53
(lp2410
I1095363701
asg44
VPT2M39.2680972S
p2411
sg239
I10
sg240
VP0DT0H0M14.5500S
p2412
sg48
(dp2413
g50
VnV Mikwen HCS
p2414
sg52
Nssa(dp2415
g47
I4096745987
sg41
VWeaponDrop
p2416
sg236
I25
sg53
(lp2417
I2758383128
asg44
VPT2M39.2690969S
p2418
sg239
I13
sg240
VP0DT0H0M36.3833S
p2419
sg48
(dp2420
g50
VnV Mikwen HCS
p2421
sg52
Nssa(dp2422
g41
VMedal
p2423
sg48
(dp2424
g50
VRNG Penguin HCS
p2425
sg52
Nssg227
I3565443938
sg44
VPT2M39.3480988S
p2426
sa(dp2427
g41
VMedal
p2428
sg48
(dp2429
g50
VRNG Commonly
p2430
sg52
Nssg227
I1637841390
sg44
VPT2M39.3490993S
p2431
sa(dp2432
g47
I313138863
sg48
(dp2433
g50
VRNG Commonly
p2434
sg52
Nssg53
(lp2435
I1095363701
asg41
VWeaponPickup
p2436
sg44
VPT2M41.3991655S
p2437
sa(dp2438
g47
I4096745987
sg48
(dp2439
g50
VRNG Commonly
p2440
sg52
Nssg53
(lp2441
I2758383128
asg41
VWeaponPickup
p2442
sg44
VPT2M41.3991655S
p2443
sa(dp2444
g41
VPlayerSpawn
p2445
sg48
(dp2446
g50
VRNG Commonly
p2447
sg52
Nssg44
VPT2M41.3991655S
p2448
sa(dp2449
g188
I4106030681
sg189
I00
sg190
I00
sg191
(dp2450
g50
VnV Pistola HCS
p2451
sg52
Nssg194
(lp2452
sg196
I00
sg197
I01
sg198
I1
sg199
I0
sg200
I1
sg201
(dp2453
Vy
F9.7207760000000007
sVx
F0.93073919999999999
sVz
F0.32465660000000002
ssg203
(dp2454
Vy
F0.376282334
sVx
F2.6877265000000001
sVz
F1.1197834
ssg205
I00
sg206
(dp2455
g50
VRNG Victory X
p2456
sg52
Nssg209
(lp2457
sg211
(lp2458
(dp2459
g50
VnV Mikwen HCS
p2460
sg52
Nsasg213
I00
sg44
VPT2M41.8661804S
p2461
sg41
VDeath
p2462
sg216
I1
sa(dp2463
g41
VMedal
p2464
sg48
(dp2465
g50
VnV Pistola HCS
p2466
sg52
Nssg227
I1351381581
sg44
VPT2M41.8671847S
p2467
sa(dp2468
g47
I2278207101
sg41
VWeaponDrop
p2469
sg236
I37
sg53
(lp2470
I2758383128
asg44
VPT2M41.8681801S
p2471
sg239
I16
sg240
VP0DT0H0M16.5000S
p2472
sg48
(dp2473
g50
VRNG Victory X
p2474
sg52
Nssa(dp2475
g47
I524558978
sg41
VWeaponDrop
p2476
sg236
I1
sg53
(lp2477
I2758383128
asg44
VPT2M41.8681801S
p2478
sg239
I1
sg240
VP0DT0H0M3.0667S
p2479
sg48
(dp2480
g50
VRNG Victory X
p2481
sg52
Nssa(dp2482
g47
I524558978
sg41
VWeaponDrop
p2483
sg236
I0
sg53
(lp2484
I2758383128
asg44
VPT2M41.8681801S
p2485
sg239
I0
sg240
VP0DT0S
p2486
sg48
(dp2487
g50
VRNG Victory X
p2488
sg52
Nssa(dp2489
g41
VMedal
p2490
sg48
(dp2491
g50
VRNG Ninja HCS
p2492
sg52
Nssg227
I3565443938
sg44
VPT2M42.3811947S
p2493
sa(dp2494
g41
VMedal
p2495
sg48
(dp2496
g50
VRNG Victory X
p2497
sg52
Nssg227
I2105198095
sg44
VPT2M42.3821968S
p2498
sa(dp2499
g41
VMedal
p2500
sg48
(dp2501
g50
VRNG Ninja HCS
p2502
sg52
Nssg227
I2105198095
sg44
VPT2M42.3821968S
p2503
sa(dp2504
g41
VMedal
p2505
sg48
(dp2506
g50
VRNG Penguin HCS
p2507
sg52
Nssg227
I2105198095
sg44
VPT2M42.3821968S
p2508
sa(dp2509
g41
VMedal
p2510
sg48
(dp2511
g50
VRNG Commonly
p2512
sg52
Nssg227
I2105198095
sg44
VPT2M42.3821968S
p2513
sa(dp2514
g41
VMedal
p2515
sg48
(dp2516
g50
VRNG Victory X
p2517
sg52
Nssg227
I1637841390
sg44
VPT2M42.3821968S
p2518
sa(dp2519
g47
I313138863
sg48
(dp2520
g50
VnV eL ToWn
p2521
sg52
Nssg53
(lp2522
I1095363701
asg41
VWeaponPickup
p2523
sg44
VPT2M45.6153002S
p2524
sa(dp2525
g47
I4096745987
sg48
(dp2526
g50
VnV eL ToWn
p2527
sg52
Nssg53
(lp2528
I2758383128
asg41
VWeaponPickup
p2529
sg44
VPT2M45.6163005S
p2530
sa(dp2531
g41
VPlayerSpawn
p2532
sg48
(dp2533
g50
VnV eL ToWn
p2534
sg52
Nssg44
VPT2M45.6163005S
p2535
sa(dp2536
g188
I313138863
sg189
I00
sg190
I00
sg191
(dp2537
g50
VRNG Ninja HCS
p2538
sg52
Nssg194
(lp2539
I1095363701
asg196
I00
sg197
I01
sg198
I1
sg199
I0
sg200
I1
sg201
(dp2540
Vy
F11.6399946
sVx
F5.4741897599999998
sVz
F1.8582019999999999
ssg203
(dp2541
Vy
F14.3259344
sVx
F6.9483232499999996
sVz
F0.79999876000000003
ssg205
I00
sg206
(dp2542
g50
VnV RayneHCS
p2543
sg52
Nssg209
(lp2544
sg211
(lp2545
(dp2546
g50
VRNG Penguin HCS
p2547
sg52
Nsasg213
I00
sg44
VPT2M46.88234S
p2548
sg41
VDeath
p2549
sg216
I1
sa(dp2550
g41
VMedal
p2551
sg48
(dp2552
g50
VRNG Ninja HCS
p2553
sg52
Nssg227
I1351381581
sg44
VPT2M46.883341S
p2554
sa(dp2555
g41
VMedal
p2556
sg48
(dp2557
g50
VRNG Ninja HCS
p2558
sg52
Nssg227
I2916014239
sg44
VPT2M46.883341S
p2559
sa(dp2560
g47
I313138863
sg41
VWeaponDrop
p2561
sg236
I22
sg53
(lp2562
I1095363701
asg44
VPT2M46.8843556S
p2563
sg239
I10
sg240
VP0DT0H0M20.6167S
p2564
sg48
(dp2565
g50
VnV RayneHCS
p2566
sg52
Nssa(dp2567
g47
I4096745987
sg41
VWeaponDrop
p2568
sg236
I8
sg53
(lp2569
I2758383128
asg44
VPT2M46.8843556S
p2570
sg239
I3
sg240
VP0DT0H0M21.3000S
p2571
sg48
(dp2572
g50
VnV RayneHCS
p2573
sg52
Nssa(dp2574
g47
I313138863
sg48
(dp2575
g50
VnV Mikwen HCS
p2576
sg52
Nssg53
(lp2577
I1095363701
asg41
VWeaponPickup
p2578
sg44
VPT2M47.2823539S
p2579
sa(dp2580
g47
I4096745987
sg48
(dp2581
g50
VnV Mikwen HCS
p2582
sg52
Nssg53
(lp2583
I2758383128
asg41
VWeaponPickup
p2584
sg44
VPT2M47.2823539S
p2585
sa(dp2586
g41
VPlayerSpawn
p2587
sg48
(dp2588
g50
VnV Mikwen HCS
p2589
sg52
Nssg44
VPT2M47.2823539S
p2590
sa(dp2591
g47
I313138863
sg48
(dp2592
g50
VRNG Victory X
p2593
sg52
Nssg53
(lp2594
I1095363701
asg41
VWeaponPickup
p2595
sg44
VPT2M49.8824372S
p2596
sa(dp2597
g47
I4096745987
sg48
(dp2598
g50
VRNG Victory X
p2599
sg52
Nssg53
(lp2600
I2758383128
asg41
VWeaponPickup
p2601
sg44
VPT2M49.8834364S
p2602
sa(dp2603
g41
VPlayerSpawn
p2604
sg48
(dp2605
g50
VRNG Victory X
p2606
sg52
Nssg44
VPT2M49.8834364S
p2607
sa(dp2608
g188
I313138863
sg189
I00
sg190
I00
sg191
(dp2609
g50
VRNG Penguin HCS
p2610
sg52
Nssg194
(lp2611
I1095363701
asg196
I00
sg197
I01
sg198
I1
sg199
I0
sg200
I1
sg201
(dp2612
Vy
F9.3826929999999997
sVx
F-1.8100351100000001
sVz
F3.7550926200000002e-06
ssg203
(dp2613
Vy
F12.1824455
sVx
F-0.988296866
sVz
F3.7550926200000002e-06
ssg205
I00
sg206
(dp2614
g50
VnV Pistola HCS
p2615
sg52
Nssg209
(lp2616
sg211
(lp2617
sg213
I00
sg44
VPT2M50.8824682S
p2618
sg41
VDeath
p2619
sg216
I1
sa(dp2620
g41
VImpulse
p2621
sg48
(dp2622
g50
VRNG Penguin HCS
p2623
sg52
Nssg221
I2556889090
sg44
VPT2M50.8824682S
p2624
sa(dp2625
g41
VMedal
p2626
sg48
(dp2627
g50
VRNG Penguin HCS
p2628
sg52
Nssg227
I2838259753
sg44
VPT2M50.8824682S
p2629
sa(dp2630
g41
VMedal
p2631
sg48
(dp2632
g50
VRNG Ninja HCS
p2633
sg52
Nssg227
I824733727
sg44
VPT2M50.883469S
p2634
sa(dp2635
g47
I313138863
sg41
VWeaponDrop
p2636
sg236
I0
sg53
(lp2637
I1095363701
asg44
VPT2M50.8844683S
p2638
sg239
I0
sg240
VP0DT0H0M1.1000S
p2639
sg48
(dp2640
g50
VnV Pistola HCS
p2641
sg52
Nssa(dp2642
g47
I4096745987
sg41
VWeaponDrop
p2643
sg236
I10
sg53
(lp2644
I2758383128
asg44
VPT2M50.8844683S
p2645
sg239
I5
sg240
VP0DT0H0M11.2500S
p2646
sg48
(dp2647
g50
VnV Pistola HCS
p2648
sg52
Nssa(dp2649
g47
I313138863
sg41
VWeaponDrop
p2650
sg236
I0
sg53
(lp2651
I1095363701
asg44
VPT2M52.3305133S
p2652
sg239
I0
sg240
VP0DT0H0M4.6000S
p2653
sg48
(dp2654
g50
VRNG Commonly
p2655
sg52
Nssa(dp2656
g47
I2278207101
sg48
(dp2657
g50
VRNG Commonly
p2658
sg52
Nssg53
(lp2659
I2758383128
asg41
VWeaponPickup
p2660
sg44
VPT2M52.3315152S
p2661
sa(dp2662
g47
I313138863
sg48
(dp2663
g50
VnV RayneHCS
p2664
sg52
Nssg53
(lp2665
I1095363701
asg41
VWeaponPickup
p2666
sg44
VPT2M54.8995975S
p2667
sa(dp2668
g47
I4096745987
sg48
(dp2669
g50
VnV RayneHCS
p2670
sg52
Nssg53
(lp2671
I2758383128
asg41
VWeaponPickup
p2672
sg44
VPT2M54.8995975S
p2673
sa(dp2674
g41
VPlayerSpawn
p2675
sg48
(dp2676
g50
VnV RayneHCS
p2677
sg52
Nssg44
VPT2M54.8995975S
p2678
sa(dp2679
g188
I2460880172
sg189
I00
sg190
I00
sg191
(dp2680
g50
VnV Mikwen HCS
p2681
sg52
Nssg194
(lp2682
sg196
I00
sg197
I00
sg198
I2
sg199
I0
sg200
I0
sg201
(dp2683
Vy
F13.6736393
sVx
F14.389657
sVz
F1.7352747900000001
ssg203
(dp2684
Vy
F11.9122629
sVx
F8.0798930000000002
sVz
F0.80117124299999998
ssg205
I00
sg206
(dp2685
g596
g597
ssg209
(lp2686
sg211
(lp2687
sg213
I00
sg44
VPT2M58.0316968S
p2688
sg41
VDeath
p2689
sg216
I1
sa(dp2690
g47
I313138863
sg48
(dp2691
g50
VnV Pistola HCS
p2692
sg52
Nssg53
(lp2693
I1095363701
asg41
VWeaponPickup
p2694
sg44
VPT2M58.8987253S
p2695
sa(dp2696
g47
I4096745987
sg48
(dp2697
g50
VnV Pistola HCS
p2698
sg52
Nssg53
(lp2699
I2758383128
asg41
VWeaponPickup
p2700
sg44
VPT2M58.8997253S
p2701
sa(dp2702
g41
VPlayerSpawn
p2703
sg48
(dp2704
g50
VnV Pistola HCS
p2705
sg52
Nssg44
VPT2M58.8997253S
p2706
sa(dp2707
g188
I4096745987
sg189
I00
sg190
I00
sg191
(dp2708
g50
VRNG Penguin HCS
p2709
sg52
Nssg194
(lp2710
I2758383128
asg196
I00
sg197
I01
sg198
I1
sg199
I0
sg200
I1
sg201
(dp2711
Vy
F15.780405999999999
sVx
F1.3702462900000001
sVz
F1.79999971
ssg203
(dp2712
Vy
F13.055368400000001
sVx
F12.4459658
sVz
F1.66128075
ssg205
I00
sg206
(dp2713
g50
VnV eL ToWn
p2714
sg52
Nssg209
(lp2715
sg211
(lp2716
(dp2717
g50
VRNG Ninja HCS
p2718
sg52
Nsasg213
I00
sg44
VPT3M2.0648355S
p2719
sg41
VDeath
p2720
sg216
I1
sa(dp2721
g47
I313138863
sg41
VWeaponDrop
p2722
sg236
I19
sg53
(lp2723
I1095363701
asg44
VPT3M2.0668262S
p2724
sg239
I8
sg240
VP0DT0H0M5.2833S
p2725
sg48
(dp2726
g50
VnV eL ToWn
p2727
sg52
Nssa(dp2728
g47
I4096745987
sg41
VWeaponDrop
p2729
sg236
I4
sg53
(lp2730
I2758383128
asg44
VPT3M2.0668262S
p2731
sg239
I1
sg240
VP0DT0H0M11.1667S
p2732
sg48
(dp2733
g50
VnV eL ToWn
p2734
sg52
Nssa(dp2735
g188
I4106030681
sg189
I00
sg190
I00
sg191
(dp2736
g50
VRNG Commonly
p2737
sg52
Nssg194
(lp2738
sg196
I00
sg197
I01
sg198
I1
sg199
I0
sg200
I1
sg201
(dp2739
Vy
F6.7968200000000003
sVx
F3.9303731900000001
sVz
F3.784895e-06
ssg203
(dp2740
Vy
F7.3979629999999998
sVx
F15.226052299999999
sVz
F2.00208831
ssg205
I00
sg206
(dp2741
g50
VnV RayneHCS
p2742
sg52
Nssg209
(lp2743
sg211
(lp2744
(dp2745
g50
VRNG Victory X
p2746
sg52
Nsasg213
I00
sg44
VPT3M2.1988308S
p2747
sg41
VDeath
p2748
sg216
I1
sa(dp2749
g47
I313138863
sg41
VWeaponDrop
p2750
sg236
I0
sg53
(lp2751
I1095363701
asg44
VPT3M2.2009742S
p2752
sg239
I0
sg240
VP0DT0H0M0.8167S
p2753
sg48
(dp2754
g50
VnV RayneHCS
p2755
sg52
Nssa(dp2756
g47
I4096745987
sg41
VWeaponDrop
p2757
sg236
I3
sg53
(lp2758
I2758383128
asg44
VPT3M2.2009742S
p2759
sg239
I2
sg240
VP0DT0H0M6.4833S
p2760
sg48
(dp2761
g50
VnV RayneHCS
p2762
sg52
Nssa(dp2763
g188
I4096745987
sg189
I00
sg190
I00
sg191
(dp2764
g50
VRNG Ninja HCS
p2765
sg52
Nssg194
(lp2766
I2758383128
asg196
I00
sg197
I01
sg198
I1
sg199
I0
sg200
I1
sg201
(dp2767
Vy
F10.783110600000001
sVx
F8.0568120000000008
sVz
F2.2069292100000002
ssg203
(dp2768
Vy
F10.179413800000001
sVx
F12.0101738
sVz
F2.3893635299999998
ssg205
I00
sg206
(dp2769
g50
VnV Mikwen HCS
p2770
sg52
Nssg209
(lp2771
sg211
(lp2772
(dp2773
g50
VRNG Penguin HCS
p2774
sg52
Nsa(dp2775
g50
VRNG Commonly
p2776
sg52
Nsasg213
I01
sg44
VPT3M4.5993444S
p2777
sg41
VDeath
p2778
sg216
I1
sa(dp2779
g41
VMedal
p2780
sg48
(dp2781
g50
VRNG Ninja HCS
p2782
sg52
Nssg227
I3261908037
sg44
VPT3M4.6009071S
p2783
sa(dp2784
g47
I313138863
sg41
VWeaponDrop
p2785
sg236
I6
sg53
(lp2786
I1095363701
asg44
VPT3M4.6009071S
p2787
sg239
I1
sg240
VP0DT0H0M6.7500S
p2788
sg48
(dp2789
g50
VnV Mikwen HCS
p2790
sg52
Nssa(dp2791
g47
I4096745987
sg41
VWeaponDrop
p2792
sg236
I7
sg53
(lp2793
I2758383128
asg44
VPT3M4.6009071S
p2794
sg239
I3
sg240
VP0DT0H0M10.5667S
p2795
sg48
(dp2796
g50
VnV Mikwen HCS
p2797
sg52
Nssa(dp2798
g47
I313138863
sg48
(dp2799
g50
VnV eL ToWn
p2800
sg52
Nssg53
(lp2801
I1095363701
asg41
VWeaponPickup
p2802
sg44
VPT3M10.0820835S
p2803
sa(dp2804
g47
I4096745987
sg48
(dp2805
g50
VnV eL ToWn
p2806
sg52
Nssg53
(lp2807
I2758383128
asg41
VWeaponPickup
p2808
sg44
VPT3M10.0820835S
p2809
sa(dp2810
g41
VPlayerSpawn
p2811
sg48
(dp2812
g50
VnV eL ToWn
p2813
sg52
Nssg44
VPT3M10.0820835S
p2814
sa(dp2815
g47
I313138863
sg48
(dp2816
g50
VnV RayneHCS
p2817
sg52
Nssg53
(lp2818
I1095363701
asg41
VWeaponPickup
p2819
sg44
VPT3M10.2160877S
p2820
sa(dp2821
g47
I4096745987
sg48
(dp2822
g50
VnV RayneHCS
p2823
sg52
Nssg53
(lp2824
I2758383128
asg41
VWeaponPickup
p2825
sg44
VPT3M10.2160877S
p2826
sa(dp2827
g41
VPlayerSpawn
p2828
sg48
(dp2829
g50
VnV RayneHCS
p2830
sg52
Nssg44
VPT3M10.2160877S
p2831
sa(dp2832
g188
I2278207101
sg189
I00
sg190
I00
sg191
(dp2833
g50
VRNG Commonly
p2834
sg52
Nssg194
(lp2835
I2758383128
asg196
I00
sg197
I01
sg198
I1
sg199
I0
sg200
I1
sg201
(dp2836
Vy
F-13.252233500000001
sVx
F5.4694070000000004
sVz
F1.7927084
ssg203
(dp2837
Vy
F-15.29598
sVx
F8.2484859999999998
sVz
F1.1969734400000001
ssg205
I00
sg206
(dp2838
g50
VnV Pistola HCS
p2839
sg52
Nssg209
(lp2840
sg211
(lp2841
(dp2842
g50
VRNG Penguin HCS
p2843
sg52
Nsasg213
I00
sg44
VPT3M11.4321255S
p2844
sg41
VDeath
p2845
sg216
I1
sa(dp2846
g41
VMedal
p2847
sg48
(dp2848
g50
VRNG Commonly
p2849
sg52
Nssg227
I1351381581
sg44
VPT3M11.4331258S
p2850
sa(dp2851
g41
VMedal
p2852
sg48
(dp2853
g50
VRNG Commonly
p2854
sg52
Nssg227
I2916014239
sg44
VPT3M11.4341263S
p2855
sa(dp2856
g47
I313138863
sg41
VWeaponDrop
p2857
sg236
I4
sg53
(lp2858
I1095363701
asg44
VPT3M11.4341263S
p2859
sg239
I1
sg240
VP0DT0H0M1.4000S
p2860
sg48
(dp2861
g50
VnV Pistola HCS
p2862
sg52
Nssa(dp2863
g47
I4096745987
sg41
VWeaponDrop
p2864
sg236
I1
sg53
(lp2865
I2758383128
asg44
VPT3M11.4341263S
p2866
sg239
I0
sg240
VP0DT0H0M11.1333S
p2867
sg48
(dp2868
g50
VnV Pistola HCS
p2869
sg52
Nssa(dp2870
g47
I313138863
sg48
(dp2871
g50
VnV Mikwen HCS
p2872
sg52
Nssg53
(lp2873
I1095363701
asg41
VWeaponPickup
p2874
sg44
VPT3M12.615164S
p2875
sa(dp2876
g47
I4096745987
sg48
(dp2877
g50
VnV Mikwen HCS
p2878
sg52
Nssg53
(lp2879
I2758383128
asg41
VWeaponPickup
p2880
sg44
VPT3M12.6161648S
p2881
sa(dp2882
g41
VPlayerSpawn
p2883
sg48
(dp2884
g50
VnV Mikwen HCS
p2885
sg52
Nssg44
VPT3M12.6161648S
p2886
sa(dp2887
g47
I4096745987
sg41
VWeaponDrop
p2888
sg236
I5
sg53
(lp2889
I2758383128
asg44
VPT3M15.7302618S
p2890
sg239
I0
sg240
VP0DT0H0M18.9000S
p2891
sg48
(dp2892
g50
VRNG Commonly
p2893
sg52
Nssa(dp2894
g47
I523953283
sg48
(dp2895
g50
VRNG Commonly
p2896
sg52
Nssg53
(lp2897
I2208825748
asg41
VWeaponPickup
p2898
sg44
VPT3M15.7312633S
p2899
sa(dp2900
g188
I4096745987
sg189
I00
sg190
I00
sg191
(dp2901
g50
VRNG Ninja HCS
p2902
sg52
Nssg194
(lp2903
I2758383128
asg196
I00
sg197
I01
sg198
I1
sg199
I0
sg200
I1
sg201
(dp2904
Vy
F9.2334779999999999
sVx
F6.3718686099999999
sVz
F3.5710670000000002
ssg203
(dp2905
Vy
F8.21082
sVx
F-3.8789663299999999
sVz
F0.94800759999999995
ssg205
I00
sg206
(dp2906
g50
VnV Mikwen HCS
p2907
sg52
Nssg209
(lp2908
sg211
(lp2909
sg213
I01
sg44
VPT3M19.0153691S
p2910
sg41
VDeath
p2911
sg216
I1
sa(dp2912
g41
VImpulse
p2913
sg48
(dp2914
g50
VRNG Ninja HCS
p2915
sg52
Nssg221
I3174430457
sg44
VPT3M19.0163692S
p2916
sa(dp2917
g41
VMedal
p2918
sg48
(dp2919
g50
VRNG Ninja HCS
p2920
sg52
Nssg227
I3653057799
sg44
VPT3M19.017368S
p2921
sa(dp2922
g47
I313138863
sg41
VWeaponDrop
p2923
sg236
I0
sg53
(lp2924
I1095363701
asg44
VPT3M19.017368S
p2925
sg239
I0
sg240
VP0DT0H0M0.6833S
p2926
sg48
(dp2927
g50
VnV Mikwen HCS
p2928
sg52
Nssa(dp2929
g47
I4096745987
sg41
VWeaponDrop
p2930
sg236
I4
sg53
(lp2931
I2758383128
asg44
VPT3M19.017368S
p2932
sg239
I4
sg240
VP0DT0H0M5.7167S
p2933
sg48
(dp2934
g50
VnV Mikwen HCS
p2935
sg52
Nssa(dp2936
g47
I313138863
sg48
(dp2937
g50
VnV Pistola HCS
p2938
sg52
Nssg53
(lp2939
I1095363701
asg41
VWeaponPickup
p2940
sg44
VPT3M19.4493832S
p2941
sa(dp2942
g47
I4096745987
sg48
(dp2943
g50
VnV Pistola HCS
p2944
sg52
Nssg53
(lp2945
I2758383128
asg41
VWeaponPickup
p2946
sg44
VPT3M19.4493832S
p2947
sa(dp2948
g41
VPlayerSpawn
p2949
sg48
(dp2950
g50
VnV Pistola HCS
p2951
sg52
Nssg44
VPT3M19.4493832S
p2952
sa(dp2953
g41
VMedal
p2954
sg48
(dp2955
g50
VRNG Ninja HCS
p2956
sg52
Nssg227
I2916014239
sg44
VPT3M20.3144096S
p2957
sa(dp2958
g188
I313138863
sg189
I00
sg190
I00
sg191
(dp2959
g50
VnV eL ToWn
p2960
sg52
Nssg194
(lp2961
I1095363701
asg196
I00
sg197
I01
sg198
I1
sg199
I0
sg200
I1
sg201
(dp2962
Vy
F12.6324053
sVx
F9.3322120000000002
sVz
F2.5085656599999999
ssg203
(dp2963
Vy
F13.801757800000001
sVx
F5.2094035099999996
sVz
F0.79999876000000003
ssg205
I00
sg206
(dp2964
g50
VRNG Ninja HCS
p2965
sg52
Nssg209
(lp2966
sg211
(lp2967
(dp2968
g50
VnV Mikwen HCS
p2969
sg52
Nsa(dp2970
g50
VnV RayneHCS
p2971
sg52
Nsasg213
I00
sg44
VPT3M20.6154207S
p2972
sg41
VDeath
p2973
sg216
I1
sa(dp2974
g47
I313138863
sg41
VWeaponDrop
p2975
sg236
I63
sg53
(lp2976
I1095363701
asg44
VPT3M20.6174198S
p2977
sg239
I17
sg240
VP0DT0H0M21.3500S
p2978
sg48
(dp2979
g50
VRNG Ninja HCS
p2980
sg52
Nssa(dp2981
g47
I4096745987
sg41
VWeaponDrop
p2982
sg236
I25
sg53
(lp2983
I2758383128
asg44
VPT3M20.6174198S
p2984
sg239
I9
sg240
VP0DT0H0M32.6167S
p2985
sg48
(dp2986
g50
VRNG Ninja HCS
p2987
sg52
Nssa(dp2988
g47
I4096745987
sg41
VWeaponDrop
p2989
sg236
I0
sg53
(lp2990
I2758383128
asg44
VPT3M20.6174198S
p2991
sg239
I0
sg240
VP0DT0S
p2992
sg48
(dp2993
g50
VRNG Ninja HCS
p2994
sg52
Nssa(dp2995
g188
I523953283
sg189
I00
sg190
I00
sg191
(dp2996
g50
VRNG Commonly
p2997
sg52
Nssg194
(lp2998
I2208825748
asg196
I00
sg197
I01
sg198
I1
sg199
I0
sg200
I1
sg201
(dp2999
Vy
F6.0701099999999997
sVx
F5.3950567200000004
sVz
F1.102679
ssg203
(dp3000
Vy
F15.289920800000001
sVx
F7.5896425199999999
sVz
F0.79999876000000003
ssg205
I00
sg206
(dp3001
g50
VnV eL ToWn
p3002
sg52
Nssg209
(lp3003
sg211
(lp3004
sg213
I00
sg44
VPT3M23.2815058S
p3005
sg41
VDeath
p3006
sg216
I1
sa(dp3007
g41
VMedal
p3008
sg48
(dp3009
g50
VRNG Commonly
p3010
sg52
Nssg227
I1351381581
sg44
VPT3M23.2825059S
p3011
sa(dp3012
g47
I313138863
sg41
VWeaponDrop
p3013
sg236
I7
sg53
(lp3014
I1095363701
asg44
VPT3M23.2835052S
p3015
sg239
I3
sg240
VP0DT0H0M2.9167S
p3016
sg48
(dp3017
g50
VnV eL ToWn
p3018
sg52
Nssa(dp3019
g47
I4096745987
sg41
VWeaponDrop
p3020
sg236
I0
sg53
(lp3021
I2758383128
asg44
VPT3M23.2835052S
p3022
sg239
I0
sg240
VP0DT0H0M10.2833S
p3023
sg48
(dp3024
g50
VnV eL ToWn
p3025
sg52
Nssa(dp3026
g188
I313138863
sg189
I01
sg190
I00
sg191
(dp3027
g50
VnV RayneHCS
p3028
sg52
Nssg194
(lp3029
I1095363701
asg196
I00
sg197
I00
sg198
I1
sg199
I0
sg200
I1
sg201
(dp3030
Vy
F10.4931231
sVx
F8.4641660000000005
sVz
F2.20626378
ssg203
(dp3031
Vy
F10.839444200000001
sVx
F8.4291370000000008
sVz
F2.30505
ssg205
I00
sg206
(dp3032
g50
VRNG Penguin HCS
p3033
sg52
Nssg209
(lp3034
sg211
(lp3035
sg213
I00
sg44
VPT3M24.6985502S
p3036
sg41
VDeath
p3037
sg216
I1
sa(dp3038
g41
VMedal
p3039
sg48
(dp3040
g50
VnV RayneHCS
p3041
sg52
Nssg227
I3270120991
sg44
VPT3M24.6995505S
p3042
sa(dp3043
g47
I313138863
sg41
VWeaponDrop
p3044
sg236
I39
sg53
(lp3045
I1095363701
asg44
VPT3M24.7005507S
p3046
sg239
I18
sg240
VP0DT0H0M33.3667S
p3047
sg48
(dp3048
g50
VRNG Penguin HCS
p3049
sg52
Nssa(dp3050
g47
I313138863
sg41
VWeaponDrop
p3051
sg236
I0
sg53
(lp3052
I1095363701
asg44
VPT3M24.7005507S
p3053
sg239
I0
sg240
VP0DT0S
p3054
sg48
(dp3055
g50
VRNG Penguin HCS
p3056
sg52
Nssa(dp3057
g47
I4096745987
sg41
VWeaponDrop
p3058
sg236
I22
sg53
(lp3059
I2758383128
asg44
VPT3M24.7005507S
p3060
sg239
I10
sg240
VP0DT0H0M29.0333S
p3061
sg48
(dp3062
g50
VRNG Penguin HCS
p3063
sg52
Nssa(dp3064
g47
I313138863
sg48
(dp3065
g50
VnV Mikwen HCS
p3066
sg52
Nssg53
(lp3067
I1095363701
asg41
VWeaponPickup
p3068
sg44
VPT3M27.0326258S
p3069
sa(dp3070
g47
I4096745987
sg48
(dp3071
g50
VnV Mikwen HCS
p3072
sg52
Nssg53
(lp3073
I2758383128
asg41
VWeaponPickup
p3074
sg44
VPT3M27.0326258S
p3075
sa(dp3076
g41
VPlayerSpawn
p3077
sg48
(dp3078
g50
VnV Mikwen HCS
p3079
sg52
Nssg44
VPT3M27.0326258S
p3080
sa(dp3081
g41
VMedal
p3082
sg48
(dp3083
g50
VRNG Victory X
p3084
sg52
Nssg227
I2916014239
sg44
VPT3M27.2146314S
p3085
sa(dp3086
g47
I313138863
sg48
(dp3087
g50
VRNG Ninja HCS
p3088
sg52
Nssg53
(lp3089
I1095363701
asg41
VWeaponPickup
p3090
sg44
VPT3M28.6326769S
p3091
sa(dp3092
g47
I4096745987
sg48
(dp3093
g50
VRNG Ninja HCS
p3094
sg52
Nssg53
(lp3095
I2758383128
asg41
VWeaponPickup
p3096
sg44
VPT3M28.6326769S
p3097
sa(dp3098
g41
VPlayerSpawn
p3099
sg48
(dp3100
g50
VRNG Ninja HCS
p3101
sg52
Nssg44
VPT3M28.6326769S
p3102
sa(dp3103
g188
I4096745987
sg189
I00
sg190
I00
sg191
(dp3104
g50
VnV Pistola HCS
p3105
sg52
Nssg194
(lp3106
I2758383128
asg196
I00
sg197
I00
sg198
I2
sg199
I0
sg200
I0
sg201
(dp3107
Vy
F-15.122251500000001
sVx
F9.3091670000000004
sVz
F0.79999869999999995
ssg203
(dp3108
Vy
F-11.902866400000001
sVx
F8.0821620000000003
sVz
F0.80090665800000005
ssg205
I00
sg206
(dp3109
g596
g597
ssg209
(lp3110
sg211
(lp3111
sg213
I00
sg44
VPT3M29.4487029S
p3112
sg41
VDeath
p3113
sg216
I1
sa(dp3114
g188
I523953283
sg189
I00
sg190
I00
sg191
(dp3115
g50
VRNG Commonly
p3116
sg52
Nssg194
(lp3117
I2208825748
asg196
I00
sg197
I01
sg198
I1
sg199
I0
sg200
I1
sg201
(dp3118
Vy
F5.4148670000000001
sVx
F3.9587089999999998
sVz
F3.784895e-06
ssg203
(dp3119
Vy
F8.1112579999999994
sVx
F16.607467700000001
sVz
F1.6008061200000001
ssg205
I00
sg206
(dp3120
g50
VnV RayneHCS
p3121
sg52
Nssg209
(lp3122
sg211
(lp3123
sg213
I01
sg44
VPT3M30.2147268S
p3124
sg41
VDeath
p3125
sg216
I1
sa(dp3126
g41
VMedal
p3127
sg48
(dp3128
g50
VRNG Commonly
p3129
sg52
Nssg227
I2494364276
sg44
VPT3M30.2167266S
p3130
sa(dp3131
g41
VMedal
p3132
sg48
(dp3133
g50
VRNG Commonly
p3134
sg52
Nssg227
I3261908037
sg44
VPT3M30.2177269S
p3135
sa(dp3136
g47
I313138863
sg41
VWeaponDrop
p3137
sg236
I11
sg53
(lp3138
I1095363701
asg44
VPT3M30.2177269S
p3139
sg239
I4
sg240
VP0DT0H0M9.2667S
p3140
sg48
(dp3141
g50
VnV RayneHCS
p3142
sg52
Nssa(dp3143
g47
I313138863
sg41
VWeaponDrop
p3144
sg236
I0
sg53
(lp3145
I1095363701
asg44
VPT3M30.2177269S
p3146
sg239
I0
sg240
VP0DT0S
p3147
sg48
(dp3148
g50
VnV RayneHCS
p3149
sg52
Nssa(dp3150
g47
I4096745987
sg41
VWeaponDrop
p3151
sg236
I1
sg53
(lp3152
I2758383128
asg44
VPT3M30.2177269S
p3153
sg239
I0
sg240
VP0DT0H0M10.7333S
p3154
sg48
(dp3155
g50
VnV RayneHCS
p3156
sg52
Nssa(dp3157
g47
I313138863
sg48
(dp3158
g50
VnV eL ToWn
p3159
sg52
Nssg53
(lp3160
I1095363701
asg41
VWeaponPickup
p3161
sg44
VPT3M31.2987616S
p3162
sa(dp3163
g47
I4096745987
sg48
(dp3164
g50
VnV eL ToWn
p3165
sg52
Nssg53
(lp3166
I2758383128
asg41
VWeaponPickup
p3167
sg44
VPT3M31.2987616S
p3168
sa(dp3169
g41
VPlayerSpawn
p3170
sg48
(dp3171
g50
VnV eL ToWn
p3172
sg52
Nssg44
VPT3M31.2987616S
p3173
sa(dp3174
g41
VMedal
p3175
sg48
(dp3176
g50
VnV Pistola HCS
p3177
sg52
Nssg227
I3565443938
sg44
VPT3M32.1477886S
p3178
sa(dp3179
g41
VMedal
p3180
sg48
(dp3181
g50
VnV Mikwen HCS
p3182
sg52
Nssg227
I3565443938
sg44
VPT3M32.1477886S
p3183
sa(dp3184
g47
I313138863
sg48
(dp3185
g50
VRNG Penguin HCS
p3186
sg52
Nssg53
(lp3187
I1095363701
asg41
VWeaponPickup
p3188
sg44
VPT3M32.7158077S
p3189
sa(dp3190
g47
I4096745987
sg48
(dp3191
g50
VRNG Penguin HCS
p3192
sg52
Nssg53
(lp3193
I2758383128
asg41
VWeaponPickup
p3194
sg44
VPT3M32.7158077S
p3195
sa(dp3196
g41
VPlayerSpawn
p3197
sg48
(dp3198
g50
VRNG Penguin HCS
p3199
sg52
Nssg44
VPT3M32.7158077S
p3200
sa(dp3201
g188
I4106030681
sg189
I00
sg190
I00
sg191
(dp3202
g50
VRNG Victory X
p3203
sg52
Nssg194
(lp3204
sg196
I00
sg197
I01
sg198
I1
sg199
I0
sg200
I1
sg201
(dp3205
Vy
F5.9900217099999997
sVx
F15.552413
sVz
F3.0735888500000001
ssg203
(dp3206
Vy
F-6.9509925800000003
sVx
F20.026456799999998
sVz
F1.60010147
ssg205
I00
sg206
(dp3207
g50
VnV Pistola HCS
p3208
sg52
Nssg209
(lp3209
sg211
(lp3210
(dp3211
g50
VRNG Penguin HCS
p3212
sg52
Nsasg213
I00
sg44
VPT3M37.5309612S
p3213
sg41
VDeath
p3214
sg216
I1
sa(dp3215
g47
I313138863
sg41
VWeaponDrop
p3216
sg236
I0
sg53
(lp3217
I1095363701
asg44
VPT3M37.5329609S
p3218
sg239
I0
sg240
VP0DT0H0M0.6333S
p3219
sg48
(dp3220
g50
VnV Pistola HCS
p3221
sg52
Nssa(dp3222
g47
I4096745987
sg41
VWeaponDrop
p3223
sg236
I8
sg53
(lp3224
I2758383128
asg44
VPT3M37.5329609S
p3225
sg239
I3
sg240
VP0DT0H0M17.4500S
p3226
sg48
(dp3227
g50
VnV Pistola HCS
p3228
sg52
Nssa(dp3229
g47
I313138863
sg48
(dp3230
g50
VnV RayneHCS
p3231
sg52
Nssg53
(lp3232
I1095363701
asg41
VWeaponPickup
p3233
sg44
VPT3M38.2319832S
p3234
sa(dp3235
g47
I4096745987
sg48
(dp3236
g50
VnV RayneHCS
p3237
sg52
Nssg53
(lp3238
I2758383128
asg41
VWeaponPickup
p3239
sg44
VPT3M38.2319832S
p3240
sa(dp3241
g41
VPlayerSpawn
p3242
sg48
(dp3243
g50
VnV RayneHCS
p3244
sg52
Nssg44
VPT3M38.2319832S
p3245
sa(dp3246
g47
I2278207101
sg41
VWeaponDrop
p3247
sg236
I35
sg53
(lp3248
I2758383128
asg44
VPT3M39.6970291S
p3249
sg239
I15
sg240
VP0DT0H0M13.1500S
p3250
sg48
(dp3251
g50
VRNG Commonly
p3252
sg52
Nssa(dp3253
g47
I524558978
sg48
(dp3254
g50
VRNG Commonly
p3255
sg52
Nssg53
(lp3256
I2758383128
asg41
VWeaponPickup
p3257
sg44
VPT3M39.6970291S
p3258
sa(dp3259
g47
I4096745987
sg41
VWeaponDrop
p3260
sg236
I0
sg53
(lp3261
I2758383128
asg44
VPT3M40.9470771S
p3262
sg239
I0
sg240
VP0DT0H0M13.1500S
p3263
sg48
(dp3264
g50
VnV Mikwen HCS
p3265
sg52
Nssa(dp3266
g47
I523953283
sg48
(dp3267
g50
VnV Mikwen HCS
p3268
sg52
Nssg53
(lp3269
I2208825748
asg41
VWeaponPickup
p3270
sg44
VPT3M40.9470771S
p3271
sa(dp3272
g188
I4096745987
sg189
I00
sg190
I00
sg191
(dp3273
g50
VnV RayneHCS
p3274
sg52
Nssg194
(lp3275
I2758383128
asg196
I00
sg197
I01
sg198
I1
sg199
I0
sg200
I1
sg201
(dp3276
Vy
F-7.09213
sVx
F17.32536
sVz
F2.3932449999999998
ssg203
(dp3277
Vy
F6.3288393000000003
sVx
F19.301753999999999
sVz
F1.6001008699999999
ssg205
I00
sg206
(dp3278
g50
VRNG Victory X
p3279
sg52
Nssg209
(lp3280
sg211
(lp3281
(dp3282
g50
VnV Pistola HCS
p3283
sg52
Nsa(dp3284
g50
VnV eL ToWn
p3285
sg52
Nsasg213
I01
sg44
VPT3M42.648125S
p3286
sg41
VDeath
p3287
sg216
I1
sa(dp3288
g41
VImpulse
p3289
sg48
(dp3290
g50
VnV RayneHCS
p3291
sg52
Nssg221
I2556889090
sg44
VPT3M42.648125S
p3292
sa(dp3293
g41
VMedal
p3294
sg48
(dp3295
g50
VnV RayneHCS
p3296
sg52
Nssg227
I2838259753
sg44
VPT3M42.648125S
p3297
sa(dp3298
g41
VMedal
p3299
sg48
(dp3300
g50
VnV RayneHCS
p3301
sg52
Nssg227
I3261908037
sg44
VPT3M42.6501248S
p3302
sa(dp3303
g47
I313138863
sg41
VWeaponDrop
p3304
sg236
I15
sg53
(lp3305
I1095363701
asg44
VPT3M42.6501248S
p3306
sg239
I8
sg240
VP0DT0H0M8.6667S
p3307
sg48
(dp3308
g50
VRNG Victory X
p3309
sg52
Nssa(dp3310
g47
I4096745987
sg41
VWeaponDrop
p3311
sg236
I12
sg53
(lp3312
I2758383128
asg44
VPT3M42.6501248S
p3313
sg239
I5
sg240
VP0DT0H0M44.1000S
p3314
sg48
(dp3315
g50
VRNG Victory X
p3316
sg52
Nssa(dp3317
g188
I4096745987
sg189
I00
sg190
I00
sg191
(dp3318
g50
VRNG Ninja HCS
p3319
sg52
Nssg194
(lp3320
I2758383128
asg196
I00
sg197
I01
sg198
I1
sg199
I0
sg200
I1
sg201
(dp3321
Vy
F-5.5780370000000001
sVx
F1.6587766399999999
sVz
F1.43400562
ssg203
(dp3322
Vy
F-4.77618265
sVx
F11.2726889
sVz
F-8.1062319999999996e-06
ssg205
I00
sg206
(dp3323
g50
VnV eL ToWn
p3324
sg52
Nssg209
(lp3325
sg211
(lp3326
(dp3327
g50
VRNG Victory X
p3328
sg52
Nsasg213
I01
sg44
VPT3M42.83113S
p3329
sg41
VDeath
p3330
sg216
I1
sa(dp3331
g41
VMedal
p3332
sg48
(dp3333
g50
VRNG Ninja HCS
p3334
sg52
Nssg227
I3261908037
sg44
VPT3M42.8331416S
p3335
sa(dp3336
g47
I313138863
sg41
VWeaponDrop
p3337
sg236
I0
sg53
(lp3338
I1095363701
asg44
VPT3M42.8341314S
p3339
sg239
I0
sg240
VP0DT0H0M0.9000S
p3340
sg48
(dp3341
g50
VnV eL ToWn
p3342
sg52
Nssa(dp3343
g47
I4096745987
sg41
VWeaponDrop
p3344
sg236
I5
sg53
(lp3345
I2758383128
asg44
VPT3M42.8341314S
p3346
sg239
I2
sg240
VP0DT0H0M10.6333S
p3347
sg48
(dp3348
g50
VnV eL ToWn
p3349
sg52
Nssa(dp3350
g188
I313138863
sg189
I00
sg190
I00
sg191
(dp3351
g50
VRNG Penguin HCS
p3352
sg52
Nssg194
(lp3353
I1095363701
asg196
I00
sg197
I01
sg198
I1
sg199
I0
sg200
I1
sg201
(dp3354
Vy
F-8.3253850000000007
sVx
F19.375783899999998
sVz
F1.997436
ssg203
(dp3355
Vy
F-8.1837510000000009
sVx
F17.399429999999999
sVz
F1.59985566
ssg205
I00
sg206
(dp3356
g50
VnV RayneHCS
p3357
sg52
Nssg209
(lp3358
sg211
(lp3359
(dp3360
g50
VRNG Victory X
p3361
sg52
Nsasg213
I00
sg44
VPT3M44.5991873S
p3362
sg41
VDeath
p3363
sg216
I1
sa(dp3364
g47
I313138863
sg41
VWeaponDrop
p3365
sg236
I11
sg53
(lp3366
I1095363701
asg44
VPT3M44.6011868S
p3367
sg239
I8
sg240
VP0DT0H0M2.2333S
p3368
sg48
(dp3369
g50
VnV RayneHCS
p3370
sg52
Nssa(dp3371
g47
I4096745987
sg41
VWeaponDrop
p3372
sg236
I3
sg53
(lp3373
I2758383128
asg44
VPT3M44.6011868S
p3374
sg239
I3
sg240
VP0DT0H0M4.1333S
p3375
sg48
(dp3376
g50
VnV RayneHCS
p3377
sg52
Nssa(dp3378
g47
I313138863
sg48
(dp3379
g50
VnV Pistola HCS
p3380
sg52
Nssg53
(lp3381
I1095363701
asg41
VWeaponPickup
p3382
sg44
VPT3M45.5482181S
p3383
sa(dp3384
g47
I4096745987
sg48
(dp3385
g50
VnV Pistola HCS
p3386
sg52
Nssg53
(lp3387
I2758383128
asg41
VWeaponPickup
p3388
sg44
VPT3M45.5492184S
p3389
sa(dp3390
g41
VPlayerSpawn
p3391
sg48
(dp3392
g50
VnV Pistola HCS
p3393
sg52
Nssg44
VPT3M45.5492184S
p3394
sa(dp3395
g188
I4096745987
sg189
I00
sg190
I00
sg191
(dp3396
g50
VRNG Ninja HCS
p3397
sg52
Nssg194
(lp3398
I2758383128
asg196
I00
sg197
I01
sg198
I1
sg199
I0
sg200
I1
sg201
(dp3399
Vy
F-11.2297621
sVx
F1.1828905300000001
sVz
F2.7513990000000002
ssg203
(dp3400
Vy
F-16.902885399999999
sVx
F1.49210906
sVz
F1.79999971
ssg205
I00
sg206
(dp3401
g50
VnV Mikwen HCS
p3402
sg52
Nssg209
(lp3403
sg211
(lp3404
(dp3405
g50
VRNG Commonly
p3406
sg52
Nsasg213
I01
sg44
VPT3M47.9812953S
p3407
sg41
VDeath
p3408
sg216
I1
sa(dp3409
g41
VImpulse
p3410
sg48
(dp3411
g50
VRNG Ninja HCS
p3412
sg52
Nssg221
I2556889090
sg44
VPT3M47.9822962S
p3413
sa(dp3414
g41
VMedal
p3415
sg48
(dp3416
g50
VRNG Ninja HCS
p3417
sg52
Nssg227
I2838259753
sg44
VPT3M47.9822962S
p3418
sa(dp3419
g41
VMedal
p3420
sg48
(dp3421
g50
VRNG Ninja HCS
p3422
sg52
Nssg227
I3261908037
sg44
VPT3M47.9833036S
p3423
sa(dp3424
g47
I523953283
sg41
VWeaponDrop
p3425
sg236
I12
sg53
(lp3426
I2208825748
asg44
VPT3M47.9833036S
p3427
sg239
I7
sg240
VP0DT0H0M7.0333S
p3428
sg48
(dp3429
g50
VnV Mikwen HCS
p3430
sg52
Nssa(dp3431
g47
I313138863
sg41
VWeaponDrop
p3432
sg236
I0
sg53
(lp3433
I1095363701
asg44
VPT3M47.9852949S
p3434
sg239
I0
sg240
VP0DT0H0M0.7667S
p3435
sg48
(dp3436
g50
VnV Mikwen HCS
p3437
sg52
Nssa(dp3438
g188
I4096745987
sg189
I00
sg190
I00
sg191
(dp3439
g50
VnV Pistola HCS
p3440
sg52
Nssg194
(lp3441
I2758383128
asg196
I00
sg197
I01
sg198
I1
sg199
I0
sg200
I1
sg201
(dp3442
Vy
F8.0256950000000007
sVx
F14.719389
sVz
F1.59961748
ssg203
(dp3443
Vy
F8.7521719999999998
sVx
F0.6551363
sVz
F3.784895e-06
ssg205
I00
sg206
(dp3444
g50
VRNG Commonly
p3445
sg52
Nssg209
(lp3446
sg211
(lp3447
(dp3448
g50
VnV Mikwen HCS
p3449
sg52
Nsasg213
I01
sg44
VPT3M49.4653438S
p3450
sg41
VDeath
p3451
sg216
I1
sa(dp3452
g41
VMedal
p3453
sg48
(dp3454
g50
VnV Pistola HCS
p3455
sg52
Nssg227
I3261908037
sg44
VPT3M49.4663427S
p3456
sa(dp3457
g47
I524558978
sg41
VWeaponDrop
p3458
sg236
I0
sg53
(lp3459
I2758383128
asg44
VPT3M49.4663427S
p3460
sg239
I0
sg240
VP0DT0H0M1.3167S
p3461
sg48
(dp3462
g50
VRNG Commonly
p3463
sg52
Nssa(dp3464
g47
I523953283
sg41
VWeaponDrop
p3465
sg236
I28
sg53
(lp3466
I2208825748
asg44
VPT3M49.4663427S
p3467
sg239
I13
sg240
VP0DT0H0M30.1000S
p3468
sg48
(dp3469
g50
VRNG Commonly
p3470
sg52
Nssa(dp3471
g47
I313138863
sg48
(dp3472
g50
VRNG Victory X
p3473
sg52
Nssg53
(lp3474
I1095363701
asg41
VWeaponPickup
p3475
sg44
VPT3M50.665382S
p3476
sa(dp3477
g47
I4096745987
sg48
(dp3478
g50
VRNG Victory X
p3479
sg52
Nssg53
(lp3480
I2758383128
asg41
VWeaponPickup
p3481
sg44
VPT3M50.665382S
p3482
sa(dp3483
g41
VPlayerSpawn
p3484
sg48
(dp3485
g50
VRNG Victory X
p3486
sg52
Nssg44
VPT3M50.665382S
p3487
sa(dp3488
g47
I313138863
sg48
(dp3489
g50
VnV eL ToWn
p3490
sg52
Nssg53
(lp3491
I1095363701
asg41
VWeaponPickup
p3492
sg44
VPT3M50.8483882S
p3493
sa(dp3494
g47
I4096745987
sg48
(dp3495
g50
VnV eL ToWn
p3496
sg52
Nssg53
(lp3497
I2758383128
asg41
VWeaponPickup
p3498
sg44
VPT3M50.8483882S
p3499
sa(dp3500
g41
VPlayerSpawn
p3501
sg48
(dp3502
g50
VnV eL ToWn
p3503
sg52
Nssg44
VPT3M50.8493878S
p3504
sa(dp3505
g47
I313138863
sg48
(dp3506
g50
VnV RayneHCS
p3507
sg52
Nssg53
(lp3508
I1095363701
asg41
VWeaponPickup
p3509
sg44
VPT3M52.6154445S
p3510
sa(dp3511
g47
I4096745987
sg48
(dp3512
g50
VnV RayneHCS
p3513
sg52
Nssg53
(lp3514
I2758383128
asg41
VWeaponPickup
p3515
sg44
VPT3M52.6154445S
p3516
sa(dp3517
g41
VPlayerSpawn
p3518
sg48
(dp3519
g50
VnV RayneHCS
p3520
sg52
Nssg44
VPT3M52.6154445S
p3521
sa(dp3522
g47
I313138863
sg48
(dp3523
g50
VnV Mikwen HCS
p3524
sg52
Nssg53
(lp3525
I1095363701
asg41
VWeaponPickup
p3526
sg44
VPT3M55.998553S
p3527
sa(dp3528
g47
I4096745987
sg48
(dp3529
g50
VnV Mikwen HCS
p3530
sg52
Nssg53
(lp3531
I2758383128
asg41
VWeaponPickup
p3532
sg44
VPT3M55.998553S
p3533
sa(dp3534
g41
VPlayerSpawn
p3535
sg48
(dp3536
g50
VnV Mikwen HCS
p3537
sg52
Nssg44
VPT3M55.998553S
p3538
sa(dp3539
g41
VMedal
p3540
sg48
(dp3541
g50
VRNG Penguin HCS
p3542
sg52
Nssg227
I3565443938
sg44
VPT3M56.4305653S
p3543
sa(dp3544
g41
VMedal
p3545
sg48
(dp3546
g50
VRNG Victory X
p3547
sg52
Nssg227
I2105198095
sg44
VPT3M56.4315658S
p3548
sa(dp3549
g41
VMedal
p3550
sg48
(dp3551
g50
VRNG Ninja HCS
p3552
sg52
Nssg227
I2105198095
sg44
VPT3M56.4315658S
p3553
sa(dp3554
g41
VMedal
p3555
sg48
(dp3556
g50
VRNG Penguin HCS
p3557
sg52
Nssg227
I2105198095
sg44
VPT3M56.4315658S
p3558
sa(dp3559
g41
VMedal
p3560
sg48
(dp3561
g50
VRNG Commonly
p3562
sg52
Nssg227
I2105198095
sg44
VPT3M56.4315658S
p3563
sa(dp3564
g41
VMedal
p3565
sg48
(dp3566
g50
VRNG Ninja HCS
p3567
sg52
Nssg227
I1637841390
sg44
VPT3M56.4315658S
p3568
sa(dp3569
g47
I313138863
sg48
(dp3570
g50
VRNG Commonly
p3571
sg52
Nssg53
(lp3572
I1095363701
asg41
VWeaponPickup
p3573
sg44
VPT3M57.4815998S
p3574
sa(dp3575
g47
I4096745987
sg48
(dp3576
g50
VRNG Commonly
p3577
sg52
Nssg53
(lp3578
I2758383128
asg41
VWeaponPickup
p3579
sg44
VPT3M57.4826001S
p3580
sa(dp3581
g41
VPlayerSpawn
p3582
sg48
(dp3583
g50
VRNG Commonly
p3584
sg52
Nssg44
VPT3M57.4826001S
p3585
sa(dp3586
g47
I313138863
sg41
VWeaponDrop
p3587
sg236
I0
sg53
(lp3588
I1095363701
asg44
VPT3M59.3466681S
p3589
sg239
I0
sg240
VP0DT0H0M0.8000S
p3590
sg48
(dp3591
g50
VnV Mikwen HCS
p3592
sg52
Nssa(dp3593
g47
I523953283
sg48
(dp3594
g50
VnV Mikwen HCS
p3595
sg52
Nssg53
(lp3596
I2208825748
asg41
VWeaponPickup
p3597
sg44
VPT3M59.3476593S
p3598
sa(dp3599
g47
I4096745987
sg41
VWeaponDrop
p3600
sg236
I0
sg53
(lp3601
I2758383128
asg44
VPT4M0.3806914S
p3602
sg239
I0
sg240
VP0DT0H0M2.6667S
p3603
sg48
(dp3604
g50
VnV Mikwen HCS
p3605
sg52
Nssa(dp3606
g47
I524558978
sg48
(dp3607
g50
VnV Mikwen HCS
p3608
sg52
Nssg53
(lp3609
I2758383128
asg41
VWeaponPickup
p3610
sg44
VPT4M0.3806914S
p3611
sa(dp3612
g41
VMedal
p3613
sg48
(dp3614
g50
VnV Pistola HCS
p3615
sg52
Nssg227
I3565443938
sg44
VPT4M2.0977559S
p3616
sa(dp3617
g41
VMedal
p3618
sg48
(dp3619
g50
VnV RayneHCS
p3620
sg52
Nssg227
I1637841390
sg44
VPT4M2.0977559S
p3621
sa(dp3622
g188
I523953283
sg189
I00
sg190
I00
sg191
(dp3623
g50
VnV Mikwen HCS
p3624
sg52
Nssg194
(lp3625
I2208825748
asg196
I00
sg197
I01
sg198
I1
sg199
I0
sg200
I1
sg201
(dp3626
Vy
F4.4774775499999997
sVx
F-0.67896460000000003
sVz
F2.9100503899999999
ssg203
(dp3627
Vy
F-2.5205361800000001
sVx
F9.5758430000000008
sVz
F1.3897453500000001
ssg205
I00
sg206
(dp3628
g50
VRNG Ninja HCS
p3629
sg52
Nssg209
(lp3630
sg211
(lp3631
(dp3632
g50
VnV eL ToWn
p3633
sg52
Nsasg213
I01
sg44
VPT4M5.8978687S
p3634
sg41
VDeath
p3635
sg216
I1
sa(dp3636
g41
VMedal
p3637
sg48
(dp3638
g50
VnV Mikwen HCS
p3639
sg52
Nssg227
I3261908037
sg44
VPT4M5.8998683S
p3640
sa(dp3641
g47
I4096745987
sg41
VWeaponDrop
p3642
sg236
I16
sg53
(lp3643
I2758383128
asg44
VPT4M5.8998683S
p3644
sg239
I9
sg240
VP0DT0H0M36.4333S
p3645
sg48
(dp3646
g50
VRNG Ninja HCS
p3647
sg52
Nssa(dp3648
g47
I313138863
sg41
VWeaponDrop
p3649
sg236
I0
sg53
(lp3650
I1095363701
asg44
VPT4M5.9008694S
p3651
sg239
I0
sg240
VP0DT0H0M0.8333S
p3652
sg48
(dp3653
g50
VRNG Ninja HCS
p3654
sg52
Nssa(dp3655
g188
I313138863
sg189
I00
sg190
I00
sg191
(dp3656
g50
VRNG Victory X
p3657
sg52
Nssg194
(lp3658
I1095363701
asg196
I00
sg197
I01
sg198
I1
sg199
I0
sg200
I1
sg201
(dp3659
Vy
F7.1247654000000002
sVx
F20.2879276
sVz
F1.6810441
ssg203
(dp3660
Vy
F7.9875912700000002
sVx
F17.446441700000001
sVz
F1.60043764
ssg205
I00
sg206
(dp3661
g50
VnV RayneHCS
p3662
sg52
Nssg209
(lp3663
sg211
(lp3664
(dp3665
g50
VRNG Penguin HCS
p3666
sg52
Nsasg213
I00
sg44
VPT4M8.8479637S
p3667
sg41
VDeath
p3668
sg216
I1
sa(dp3669
g47
I313138863
sg41
VWeaponDrop
p3670
sg236
I0
sg53
(lp3671
I1095363701
asg44
VPT4M8.8499632S
p3672
sg239
I0
sg240
VP0DT0H0M1.2167S
p3673
sg48
(dp3674
g50
VnV RayneHCS
p3675
sg52
Nssa(dp3676
g47
I4096745987
sg41
VWeaponDrop
p3677
sg236
I7
sg53
(lp3678
I2758383128
asg44
VPT4M8.8499632S
p3679
sg239
I4
sg240
VP0DT0H0M15.0167S
p3680
sg48
(dp3681
g50
VnV RayneHCS
p3682
sg52
Nssa(dp3683
g188
I4096745987
sg189
I00
sg190
I00
sg191
(dp3684
g50
VnV Pistola HCS
p3685
sg52
Nssg194
(lp3686
I2758383128
asg196
I00
sg197
I01
sg198
I1
sg199
I0
sg200
I1
sg201
(dp3687
Vy
F8.187659
sVx
F13.781708699999999
sVz
F1.6235676999999999
ssg203
(dp3688
Vy
F6.8528260000000003
sVx
F20.950864800000002
sVz
F1.60010111
ssg205
I00
sg206
(dp3689
g50
VRNG Victory X
p3690
sg52
Nssg209
(lp3691
sg211
(lp3692
(dp3693
g50
VnV RayneHCS
p3694
sg52
Nsasg213
I01
sg44
VPT4M9.4319825S
p3695
sg41
VDeath
p3696
sg216
I1
sa(dp3697
g41
VMedal
p3698
sg48
(dp3699
g50
VnV Pistola HCS
p3700
sg52
Nssg227
I3261908037
sg44
VPT4M9.433982S
p3701
sa(dp3702
g47
I313138863
sg41
VWeaponDrop
p3703
sg236
I16
sg53
(lp3704
I1095363701
asg44
VPT4M9.433982S
p3705
sg239
I7
sg240
VP0DT0H0M4.9167S
p3706
sg48
(dp3707
g50
VRNG Victory X
p3708
sg52
Nssa(dp3709
g47
I4096745987
sg41
VWeaponDrop
p3710
sg236
I0
sg53
(lp3711
I2758383128
asg44
VPT4M9.434983S
p3712
sg239
I0
sg240
VP0DT0H0M13.8500S
p3713
sg48
(dp3714
g50
VRNG Victory X
p3715
sg52
Nssa(dp3716
g188
I313138863
sg189
I00
sg190
I00
sg191
(dp3717
g50
VRNG Penguin HCS
p3718
sg52
Nssg194
(lp3719
I1095363701
asg196
I00
sg197
I01
sg198
I1
sg199
I0
sg200
I1
sg201
(dp3720
Vy
F-3.0240547699999998
sVx
F19.514165899999998
sVz
F3.1070530000000001
ssg203
(dp3721
Vy
F2.8057835099999999
sVx
F17.018211399999998
sVz
F2.8569908100000001
ssg205
I00
sg206
(dp3722
g50
VnV eL ToWn
p3723
sg52
Nssg209
(lp3724
sg211
(lp3725
(dp3726
g50
VRNG Ninja HCS
p3727
sg52
Nsa(dp3728
g50
VRNG Commonly
p3729
sg52
Nsasg213
I00
sg44
VPT4M11.4980484S
p3730
sg41
VDeath
p3731
sg216
I1
sa(dp3732
g47
I313138863
sg41
VWeaponDrop
p3733
sg236
I17
sg53
(lp3734
I1095363701
asg44
VPT4M11.5000477S
p3735
sg239
I7
sg240
VP0DT0H0M7.4000S
p3736
sg48
(dp3737
g50
VnV eL ToWn
p3738
sg52
Nssa(dp3739
g47
I4096745987
sg41
VWeaponDrop
p3740
sg236
I2
sg53
(lp3741
I2758383128
asg44
VPT4M11.5000477S
p3742
sg239
I0
sg240
VP0DT0H0M13.2500S
p3743
sg48
(dp3744
g50
VnV eL ToWn
p3745
sg52
Nssa(dp3746
g188
I4106030681
sg189
I00
sg190
I00
sg191
(dp3747
g50
VnV Mikwen HCS
p3748
sg52
Nssg194
(lp3749
sg196
I00
sg197
I01
sg198
I1
sg199
I0
sg200
I1
sg201
(dp3750
Vy
F-7.2026095400000001
sVx
F2.1442325100000001
sVz
F2.5828056300000002
ssg203
(dp3751
Vy
F-5.3350844400000001
sVx
F-1.8461973700000001
sVz
F2.16024971
ssg205
I00
sg206
(dp3752
g50
VRNG Commonly
p3753
sg52
Nssg209
(lp3754
sg211
(lp3755
sg213
I00
sg44
VPT4M12.5650829S
p3756
sg41
VDeath
p3757
sg216
I1
sa(dp3758
g47
I313138863
sg41
VWeaponDrop
p3759
sg236
I0
sg53
(lp3760
I1095363701
asg44
VPT4M12.566082S
p3761
sg239
I0
sg240
VP0DT0H0M1.8500S
p3762
sg48
(dp3763
g50
VRNG Commonly
p3764
sg52
Nssa(dp3765
g47
I4096745987
sg41
VWeaponDrop
p3766
sg236
I6
sg53
(lp3767
I2758383128
asg44
VPT4M12.566082S
p3768
sg239
I3
sg240
VP0DT0H0M13.2333S
p3769
sg48
(dp3770
g50
VRNG Commonly
p3771
sg52
Nssa(dp3772
g47
I313138863
sg48
(dp3773
g50
VRNG Ninja HCS
p3774
sg52
Nssg53
(lp3775
I1095363701
asg41
VWeaponPickup
p3776
sg44
VPT4M13.9151256S
p3777
sa(dp3778
g47
I4096745987
sg48
(dp3779
g50
VRNG Ninja HCS
p3780
sg52
Nssg53
(lp3781
I2758383128
asg41
VWeaponPickup
p3782
sg44
VPT4M13.9151256S
p3783
sa(dp3784
g41
VPlayerSpawn
p3785
sg48
(dp3786
g50
VRNG Ninja HCS
p3787
sg52
Nssg44
VPT4M13.9151256S
p3788
sa(dp3789
g188
I523953283
sg189
I00
sg190
I00
sg191
(dp3790
g50
VnV Mikwen HCS
p3791
sg52
Nssg194
(lp3792
I2208825748
asg196
I00
sg197
I01
sg198
I1
sg199
I0
sg200
I1
sg201
(dp3793
Vy
F-0.6859982
sVx
F4.1408896400000001
sVz
F3.784895e-06
ssg203
(dp3794
Vy
F-0.73660769999999998
sVx
F15.065306700000001
sVz
F0.79999876000000003
ssg205
I00
sg206
(dp3795
g50
VRNG Penguin HCS
p3796
sg52
Nssg209
(lp3797
sg211
(lp3798
(dp3799
g50
VnV Pistola HCS
p3800
sg52
Nsasg213
I01
sg44
VPT4M15.8811881S
p3801
sg41
VDeath
p3802
sg216
I1
sa(dp3803
g41
VMedal
p3804
sg48
(dp3805
g50
VnV Mikwen HCS
p3806
sg52
Nssg227
I3261908037
sg44
VPT4M15.8831877S
p3807
sa(dp3808
g41
VMedal
p3809
sg48
(dp3810
g50
VnV Mikwen HCS
p3811
sg52
Nssg227
I2078758684
sg44
VPT4M15.8831877S
p3812
sa(dp3813
g47
I313138863
sg41
VWeaponDrop
p3814
sg236
I34
sg53
(lp3815
I1095363701
asg44
VPT4M15.8841882S
p3816
sg239
I11
sg240
VP0DT0H0M16.2167S
p3817
sg48
(dp3818
g50
VRNG Penguin HCS
p3819
sg52
Nssa(dp3820
g47
I4096745987
sg41
VWeaponDrop
p3821
sg236
I15
sg53
(lp3822
I2758383128
asg44
VPT4M15.8841882S
p3823
sg239
I7
sg240
VP0DT0H0M26.9500S
p3824
sg48
(dp3825
g50
VRNG Penguin HCS
p3826
sg52
Nssa(dp3827
g47
I313138863
sg48
(dp3828
g50
VnV RayneHCS
p3829
sg52
Nssg53
(lp3830
I1095363701
asg41
VWeaponPickup
p3831
sg44
VPT4M16.8652205S
p3832
sa(dp3833
g47
I4096745987
sg48
(dp3834
g50
VnV RayneHCS
p3835
sg52
Nssg53
(lp3836
I2758383128
asg41
VWeaponPickup
p3837
sg44
VPT4M16.8652205S
p3838
sa(dp3839
g41
VPlayerSpawn
p3840
sg48
(dp3841
g50
VnV RayneHCS
p3842
sg52
Nssg44
VPT4M16.8652205S
p3843
sa(dp3844
g47
I313138863
sg48
(dp3845
g50
VRNG Victory X
p3846
sg52
Nssg53
(lp3847
I1095363701
asg41
VWeaponPickup
p3848
sg44
VPT4M17.4482392S
p3849
sa(dp3850
g47
I4096745987
sg48
(dp3851
g50
VRNG Victory X
p3852
sg52
Nssg53
(lp3853
I2758383128
asg41
VWeaponPickup
p3854
sg44
VPT4M17.4492392S
p3855
sa(dp3856
g41
VPlayerSpawn
p3857
sg48
(dp3858
g50
VRNG Victory X
p3859
sg52
Nssg44
VPT4M17.4492392S
p3860
sa(dp3861
g47
I313138863
sg41
VWeaponDrop
p3862
sg236
I0
sg53
(lp3863
I1095363701
asg44
VPT4M19.347299S
p3864
sg239
I0
sg240
VP0DT0H0M2.9167S
p3865
sg48
(dp3866
g50
VRNG Ninja HCS
p3867
sg52
Nssa(dp3868
g47
I2278207101
sg48
(dp3869
g50
VRNG Ninja HCS
p3870
sg52
Nssg53
(lp3871
I2758383128
asg41
VWeaponPickupPad
p3872
sg44
VPT4M19.347299S
p3873
sa(dp3874
g47
I2278207101
sg48
(dp3875
g50
VRNG Ninja HCS
p3876
sg52
Nssg53
(lp3877
I2758383128
asg41
VWeaponPickup
p3878
sg44
VPT4M19.347299S
p3879
sa(dp3880
g47
I313138863
sg48
(dp3881
g50
VnV eL ToWn
p3882
sg52
Nssg53
(lp3883
I1095363701
asg41
VWeaponPickup
p3884
sg44
VPT4M19.5153052S
p3885
sa(dp3886
g47
I4096745987
sg48
(dp3887
g50
VnV eL ToWn
p3888
sg52
Nssg53
(lp3889
I2758383128
asg41
VWeaponPickup
p3890
sg44
VPT4M19.5153052S
p3891
sa(dp3892
g41
VPlayerSpawn
p3893
sg48
(dp3894
g50
VnV eL ToWn
p3895
sg52
Nssg44
VPT4M19.5153052S
p3896
sa(dp3897
g47
I313138863
sg48
(dp3898
g50
VRNG Commonly
p3899
sg52
Nssg53
(lp3900
I1095363701
asg41
VWeaponPickup
p3901
sg44
VPT4M20.5823392S
p3902
sa(dp3903
g47
I4096745987
sg48
(dp3904
g50
VRNG Commonly
p3905
sg52
Nssg53
(lp3906
I2758383128
asg41
VWeaponPickup
p3907
sg44
VPT4M20.5823392S
p3908
sa(dp3909
g41
VPlayerSpawn
p3910
sg48
(dp3911
g50
VRNG Commonly
p3912
sg52
Nssg44
VPT4M20.5823392S
p3913
sa(dp3914
g188
I4096745987
sg189
I00
sg190
I00
sg191
(dp3915
g50
VRNG Victory X
p3916
sg52
Nssg194
(lp3917
I2758383128
asg196
I00
sg197
I01
sg198
I1
sg199
I0
sg200
I1
sg201
(dp3918
Vy
F5.681781
sVx
F2.0400154599999998
sVz
F3.784895e-06
ssg203
(dp3919
Vy
F0.37305310000000003
sVx
F3.1605677600000002
sVz
F3.7550926200000002e-06
ssg205
I00
sg206
(dp3920
g50
VnV Mikwen HCS
p3921
sg52
Nssg209
(lp3922
sg211
(lp3923
sg213
I00
sg44
VPT4M21.7643767S
p3924
sg41
VDeath
p3925
sg216
I1
sa(dp3926
g41
VMedal
p3927
sg48
(dp3928
g50
VRNG Victory X
p3929
sg52
Nssg227
I1351381581
sg44
VPT4M21.7653772S
p3930
sa(dp3931
g47
I523953283
sg41
VWeaponDrop
p3932
sg236
I5
sg53
(lp3933
I2208825748
asg44
VPT4M21.7663764S
p3934
sg239
I3
sg240
VP0DT0H0M6.0333S
p3935
sg48
(dp3936
g50
VnV Mikwen HCS
p3937
sg52
Nssa(dp3938
g47
I524558978
sg41
VWeaponDrop
p3939
sg236
I2
sg53
(lp3940
I2758383128
asg44
VPT4M21.7663764S
p3941
sg239
I2
sg240
VP0DT0H0M16.2667S
p3942
sg48
(dp3943
g50
VnV Mikwen HCS
p3944
sg52
Nssa(dp3945
g47
I524558978
sg41
VWeaponDrop
p3946
sg236
I0
sg53
(lp3947
I2758383128
asg44
VPT4M21.7663764S
p3948
sg239
I0
sg240
VP0DT0S
p3949
sg48
(dp3950
g50
VnV Mikwen HCS
p3951
sg52
Nssa(dp3952
g41
VMedal
p3953
sg48
(dp3954
g50
VnV Pistola HCS
p3955
sg52
Nssg227
I3565443938
sg44
VPT4M22.1143885S
p3956
sa(dp3957
g41
VMedal
p3958
sg48
(dp3959
g50
VnV RayneHCS
p3960
sg52
Nssg227
I3565443938
sg44
VPT4M22.1143885S
p3961
sa(dp3962
g41
VMedal
p3963
sg48
(dp3964
g50
VnV Mikwen HCS
p3965
sg52
Nssg227
I1637841390
sg44
VPT4M22.1143885S
p3966
sa(dp3967
g47
I313138863
sg48
(dp3968
g50
VRNG Penguin HCS
p3969
sg52
Nssg53
(lp3970
I1095363701
asg41
VWeaponPickup
p3971
sg44
VPT4M23.8984457S
p3972
sa(dp3973
g47
I4096745987
sg48
(dp3974
g50
VRNG Penguin HCS
p3975
sg52
Nssg53
(lp3976
I2758383128
asg41
VWeaponPickup
p3977
sg44
VPT4M23.8984457S
p3978
sa(dp3979
g41
VPlayerSpawn
p3980
sg48
(dp3981
g50
VRNG Penguin HCS
p3982
sg52
Nssg44
VPT4M23.8994452S
p3983
sa(dp3984
g188
I313138863
sg189
I00
sg190
I00
sg191
(dp3985
g50
VnV RayneHCS
p3986
sg52
Nssg194
(lp3987
I1095363701
asg196
I00
sg197
I01
sg198
I1
sg199
I0
sg200
I1
sg201
(dp3988
Vy
F5.6224474899999999
sVx
F7.154115
sVz
F3.784895e-06
ssg203
(dp3989
Vy
F8.4149609999999999
sVx
F8.5089410000000001
sVz
F0.56173139999999999
ssg205
I00
sg206
(dp3990
g50
VRNG Commonly
p3991
sg52
Nssg209
(lp3992
sg211
(lp3993
sg213
I00
sg44
VPT4M26.5645305S
p3994
sg41
VDeath
p3995
sg216
I1
sa(dp3996
g47
I313138863
sg41
VWeaponDrop
p3997
sg236
I0
sg53
(lp3998
I1095363701
asg44
VPT4M26.56653S
p3999
sg239
I0
sg240
VP0DT0H0M0.6167S
p4000
sg48
(dp4001
g50
VRNG Commonly
p4002
sg52
Nssa(dp4003
g47
I4096745987
sg41
VWeaponDrop
p4004
sg236
I2
sg53
(lp4005
I2758383128
asg44
VPT4M26.56653S
p4006
sg239
I2
sg240
VP0DT0H0M5.3667S
p4007
sg48
(dp4008
g50
VRNG Commonly
p4009
sg52
Nssa(dp4010
g47
I4096745987
sg41
VWeaponDrop
p4011
sg236
I0
sg53
(lp4012
I2758383128
asg44
VPT4M26.56653S
p4013
sg239
I0
sg240
VP0DT0S
p4014
sg48
(dp4015
g50
VRNG Commonly
p4016
sg52
Nssa(dp4017
g41
VMedal
p4018
sg48
(dp4019
g50
VnV RayneHCS
p4020
sg52
Nssg227
I3400287617
sg44
VPT4M29.7306312S
p4021
sa(dp4022
g47
I313138863
sg48
(dp4023
g50
VnV Mikwen HCS
p4024
sg52
Nssg53
(lp4025
I1095363701
asg41
VWeaponPickup
p4026
sg44
VPT4M29.7816336S
p4027
sa(dp4028
g47
I4096745987
sg48
(dp4029
g50
VnV Mikwen HCS
p4030
sg52
Nssg53
(lp4031
I2758383128
asg41
VWeaponPickup
p4032
sg44
VPT4M29.7816336S
p4033
sa(dp4034
g41
VPlayerSpawn
p4035
sg48
(dp4036
g50
VnV Mikwen HCS
p4037
sg52
Nssg44
VPT4M29.7816336S
p4038
sa(dp4039
g188
I313138863
sg189
I00
sg190
I01
sg191
(dp4040
g50
VnV Pistola HCS
p4041
sg52
Nssg194
(lp4042
I1095363701
asg196
I00
sg197
I00
sg198
I1
sg199
I0
sg200
I1
sg201
(dp4043
Vy
F-1.15279
sVx
F6.1966652900000003
sVz
F-0.35895037699999999
ssg203
(dp4044
Vy
F-1.0384897
sVx
F5.5724099999999996
sVz
F-0.42125323399999998
ssg205
I00
sg206
(dp4045
g50
VRNG Victory X
p4046
sg52
Nssg209
(lp4047
sg211
(lp4048
(dp4049
g50
VnV RayneHCS
p4050
sg52
Nsasg213
I00
sg44
VPT4M31.064674S
p4051
sg41
VDeath
p4052
sg216
I1
sa(dp4053
g41
VMedal
p4054
sg48
(dp4055
g50
VnV eL ToWn
p4056
sg52
Nssg227
I824733727
sg44
VPT4M31.0656745S
p4057
sa(dp4058
g41
VMedal
p4059
sg48
(dp4060
g50
VnV Pistola HCS
p4061
sg52
Nssg227
I1351381581
sg44
VPT4M31.0656745S
p4062
sa(dp4063
g41
VMedal
p4064
sg48
(dp4065
g50
VnV Pistola HCS
p4066
sg52
Nssg227
I2287626681
sg44
VPT4M31.0656745S
p4067
sa(dp4068
g47
I4096745987
sg41
VWeaponDrop
p4069
sg236
I10
sg53
(lp4070
I2758383128
asg44
VPT4M31.0666745S
p4071
sg239
I6
sg240
VP0DT0H0M11.5333S
p4072
sg48
(dp4073
g50
VRNG Victory X
p4074
sg52
Nssa(dp4075
g47
I313138863
sg41
VWeaponDrop
p4076
sg236
I2
sg53
(lp4077
I1095363701
asg44
VPT4M31.0676753S
p4078
sg239
I0
sg240
VP0DT0H0M2.0833S
p4079
sg48
(dp4080
g50
VRNG Victory X
p4081
sg52
Nssa(dp4082
g188
I313138863
sg189
I00
sg190
I00
sg191
(dp4083
g50
VRNG Penguin HCS
p4084
sg52
Nssg194
(lp4085
I1095363701
asg196
I00
sg197
I01
sg198
I1
sg199
I0
sg200
I1
sg201
(dp4086
Vy
F-4.7330110000000003
sVx
F9.4884789999999999
sVz
F0.44365835199999998
ssg203
(dp4087
Vy
F1.06170678
sVx
F7.6734404600000001
sVz
F-0.80001175400000002
ssg205
I00
sg206
(dp4088
g50
VnV RayneHCS
p4089
sg52
Nssg209
(lp4090
sg211
(lp4091
(dp4092
g50
VRNG Victory X
p4093
sg52
Nsasg213
I00
sg44
VPT4M32.0157056S
p4094
sg41
VDeath
p4095
sg216
I1
sa(dp4096
g47
I313138863
sg41
VWeaponDrop
p4097
sg236
I23
sg53
(lp4098
I1095363701
asg44
VPT4M32.0177048S
p4099
sg239
I10
sg240
VP0DT0H0M7.4000S
p4100
sg48
(dp4101
g50
VnV RayneHCS
p4102
sg52
Nssa(dp4103
g47
I313138863
sg41
VWeaponDrop
p4104
sg236
I0
sg53
(lp4105
I1095363701
asg44
VPT4M32.0177048S
p4106
sg239
I0
sg240
VP0DT0S
p4107
sg48
(dp4108
g50
VnV RayneHCS
p4109
sg52
Nssa(dp4110
g47
I4096745987
sg41
VWeaponDrop
p4111
sg236
I0
sg53
(lp4112
I2758383128
asg44
VPT4M32.0177048S
p4113
sg239
I0
sg240
VP0DT0H0M7.7500S
p4114
sg48
(dp4115
g50
VnV RayneHCS
p4116
sg52
Nssa(dp4117
g188
I2278207101
sg189
I00
sg190
I00
sg191
(dp4118
g50
VRNG Ninja HCS
p4119
sg52
Nssg194
(lp4120
I2758383128
asg196
I00
sg197
I01
sg198
I1
sg199
I0
sg200
I1
sg201
(dp4121
Vy
F1.5852873300000001
sVx
F4.6054062800000004
sVz
F0.88322630000000002
ssg203
(dp4122
Vy
F-0.692043662
sVx
F6.0391545300000002
sVz
F-0.80001175400000002
ssg205
I00
sg206
(dp4123
g50
VnV Pistola HCS
p4124
sg52
Nssg209
(lp4125
sg211
(lp4126
sg213
I00
sg44
VPT4M32.7147279S
p4127
sg41
VDeath
p4128
sg216
I1
sa(dp4129
g47
I313138863
sg41
VWeaponDrop
p4130
sg236
I12
sg53
(lp4131
I1095363701
asg44
VPT4M32.7167279S
p4132
sg239
I8
sg240
VP0DT0H0M7.8667S
p4133
sg48
(dp4134
g50
VnV Pistola HCS
p4135
sg52
Nssa(dp4136
g47
I313138863
sg41
VWeaponDrop
p4137
sg236
I0
sg53
(lp4138
I1095363701
asg44
VPT4M32.7167279S
p4139
sg239
I0
sg240
VP0DT0S
p4140
sg48
(dp4141
g50
VnV Pistola HCS
p4142
sg52
Nssa(dp4143
g47
I4096745987
sg41
VWeaponDrop
p4144
sg236
I17
sg53
(lp4145
I2758383128
asg44
VPT4M32.7167279S
p4146
sg239
I10
sg240
VP0DT0H0M39.3000S
p4147
sg48
(dp4148
g50
VnV Pistola HCS
p4149
sg52
Nssa(dp4150
g47
I313138863
sg48
(dp4151
g50
VRNG Commonly
p4152
sg52
Nssg53
(lp4153
I1095363701
asg41
VWeaponPickup
p4154
sg44
VPT4M34.5817876S
p4155
sa(dp4156
g47
I4096745987
sg48
(dp4157
g50
VRNG Commonly
p4158
sg52
Nssg53
(lp4159
I2758383128
asg41
VWeaponPickup
p4160
sg44
VPT4M34.5817876S
p4161
sa(dp4162
g41
VPlayerSpawn
p4163
sg48
(dp4164
g50
VRNG Commonly
p4165
sg52
Nssg44
VPT4M34.5817876S
p4166
sa(dp4167
g47
I2492868984
sg48
(dp4168
g50
VnV eL ToWn
p4169
sg52
Nssg53
(lp4170
I2758383128
asg41
VWeaponPickup
p4171
sg44
VPT4M35.8808284S
p4172
sa(dp4173
g41
VMedal
p4174
sg48
(dp4175
g50
VRNG Ninja HCS
p4176
sg52
Nssg227
I3565443938
sg44
VPT4M36.7468543S
p4177
sa(dp4178
g41
VMedal
p4179
sg48
(dp4180
g50
VRNG Penguin HCS
p4181
sg52
Nssg227
I3565443938
sg44
VPT4M36.7468543S
p4182
sa(dp4183
g41
VMedal
p4184
sg48
(dp4185
g50
VRNG Victory X
p4186
sg52
Nssg227
I1637841390
sg44
VPT4M36.7478562S
p4187
sa(dp4188
g47
I2492868984
sg41
VWeaponDrop
p4189
sg236
I0
sg53
(lp4190
I2758383128
asg44
VPT4M37.031865S
p4191
sg239
I0
sg240
VP0DT0H0M0.9833S
p4192
sg48
(dp4193
g50
VnV eL ToWn
p4194
sg52
Nssa(dp4195
g47
I313138863
sg48
(dp4196
g50
VRNG Victory X
p4197
sg52
Nssg53
(lp4198
I1095363701
asg41
VWeaponPickup
p4199
sg44
VPT4M39.0819314S
p4200
sa(dp4201
g47
I4096745987
sg48
(dp4202
g50
VRNG Victory X
p4203
sg52
Nssg53
(lp4204
I2758383128
asg41
VWeaponPickup
p4205
sg44
VPT4M39.0819314S
p4206
sa(dp4207
g41
VPlayerSpawn
p4208
sg48
(dp4209
g50
VRNG Victory X
p4210
sg52
Nssg44
VPT4M39.0819314S
p4211
sa(dp4212
g47
I313138863
sg48
(dp4213
g50
VnV RayneHCS
p4214
sg52
Nssg53
(lp4215
I1095363701
asg41
VWeaponPickup
p4216
sg44
VPT4M40.031962S
p4217
sa(dp4218
g47
I4096745987
sg48
(dp4219
g50
VnV RayneHCS
p4220
sg52
Nssg53
(lp4221
I2758383128
asg41
VWeaponPickup
p4222
sg44
VPT4M40.031962S
p4223
sa(dp4224
g41
VPlayerSpawn
p4225
sg48
(dp4226
g50
VnV RayneHCS
p4227
sg52
Nssg44
VPT4M40.031962S
p4228
sa(dp4229
g41
VMedal
p4230
sg48
(dp4231
g50
VRNG Ninja HCS
p4232
sg52
Nssg227
I3400287617
sg44
VPT4M40.429972S
p4233
sa(dp4234
g47
I313138863
sg48
(dp4235
g50
VnV Pistola HCS
p4236
sg52
Nssg53
(lp4237
I1095363701
asg41
VWeaponPickup
p4238
sg44
VPT4M40.731984S
p4239
sa(dp4240
g47
I4096745987
sg48
(dp4241
g50
VnV Pistola HCS
p4242
sg52
Nssg53
(lp4243
I2758383128
asg41
VWeaponPickup
p4244
sg44
VPT4M40.731984S
p4245
sa(dp4246
g41
VPlayerSpawn
p4247
sg48
(dp4248
g50
VnV Pistola HCS
p4249
sg52
Nssg44
VPT4M40.731984S
p4250
sa(dp4251
g47
I4096745987
sg41
VWeaponDrop
p4252
sg236
I0
sg53
(lp4253
I2758383128
asg44
VPT4M41.580009S
p4254
sg239
I0
sg240
VP0DT0H0M2.1500S
p4255
sg48
(dp4256
g50
VRNG Victory X
p4257
sg52
Nssa(dp4258
g47
I523953283
sg48
(dp4259
g50
VRNG Victory X
p4260
sg52
Nssg53
(lp4261
I2208825748
asg41
VWeaponPickup
p4262
sg44
VPT4M41.580009S
p4263
sa(dp4264
g188
I313138863
sg189
I00
sg190
I00
sg191
(dp4265
g50
VRNG Penguin HCS
p4266
sg52
Nssg194
(lp4267
I1095363701
asg196
I00
sg197
I01
sg198
I1
sg199
I0
sg200
I1
sg201
(dp4268
Vy
F-2.4646294100000001
sVx
F9.0698279999999993
sVz
F-0.455775559
ssg203
(dp4269
Vy
F1.0623754299999999
sVx
F6.8591540000000002
sVz
F-0.80001169999999999
ssg205
I00
sg206
(dp4270
g50
VnV Mikwen HCS
p4271
sg52
Nssg209
(lp4272
sg211
(lp4273
(dp4274
g50
VRNG Commonly
p4275
sg52
Nsa(dp4276
g50
VRNG Victory X
p4277
sg52
Nsa(dp4278
g50
VRNG Ninja HCS
p4279
sg52
Nsasg213
I00
sg44
VPT4M43.9480872S
p4280
sg41
VDeath
p4281
sg216
I1
sa(dp4282
g41
VMedal
p4283
sg48
(dp4284
g50
VRNG Commonly
p4285
sg52
Nssg227
I1326375333
sg44
VPT4M43.9480872S
p4286
sa(dp4287
g41
VMedal
p4288
sg48
(dp4289
g50
VRNG Victory X
p4290
sg52
Nssg227
I1326375333
sg44
VPT4M43.9480872S
p4291
sa(dp4292
g41
VMedal
p4293
sg48
(dp4294
g50
VRNG Ninja HCS
p4295
sg52
Nssg227
I1326375333
sg44
VPT4M43.9480872S
p4296
sa(dp4297
g41
VMedal
p4298
sg48
(dp4299
g50
VRNG Penguin HCS
p4300
sg52
Nssg227
I194124164
sg44
VPT4M43.9490861S
p4301
sa(dp4302
g41
VMedal
p4303
sg48
(dp4304
g50
VRNG Penguin HCS
p4305
sg52
Nssg227
I1351381581
sg44
VPT4M43.9490861S
p4306
sa(dp4307
g41
VMedal
p4308
sg48
(dp4309
g50
VRNG Penguin HCS
p4310
sg52
Nssg227
I2916014239
sg44
VPT4M43.9500981S
p4311
sa(dp4312
g47
I313138863
sg41
VWeaponDrop
p4313
sg236
I8
sg53
(lp4314
I1095363701
asg44
VPT4M43.9500981S
p4315
sg239
I2
sg240
VP0DT0H0M6.9833S
p4316
sg48
(dp4317
g50
VnV Mikwen HCS
p4318
sg52
Nssa(dp4319
g47
I4096745987
sg41
VWeaponDrop
p4320
sg236
I9
sg53
(lp4321
I2758383128
asg44
VPT4M43.9510872S
p4322
sg239
I6
sg240
VP0DT0H0M7.1833S
p4323
sg48
(dp4324
g50
VnV Mikwen HCS
p4325
sg52
Nssa(dp4326
g188
I4096745987
sg189
I00
sg190
I00
sg191
(dp4327
g50
VnV Pistola HCS
p4328
sg52
Nssg194
(lp4329
I2758383128
asg196
I00
sg197
I01
sg198
I1
sg199
I0
sg200
I1
sg201
(dp4330
Vy
F-6.8028683699999997
sVx
F-3.0758795700000001
sVz
F1.88551354
ssg203
(dp4331
Vy
F-8.0949729999999995
sVx
F1.7135313700000001
sVz
F0.84120130000000004
ssg205
I00
sg206
(dp4332
g50
VRNG Commonly
p4333
sg52
Nssg209
(lp4334
sg211
(lp4335
sg213
I01
sg44
VPT4M48.431231S
p4336
sg41
VDeath
p4337
sg216
I1
sa(dp4338
g41
VMedal
p4339
sg48
(dp4340
g50
VnV Pistola HCS
p4341
sg52
Nssg227
I3261908037
sg44
VPT4M48.4332297S
p4342
sa(dp4343
g47
I313138863
sg41
VWeaponDrop
p4344
sg236
I10
sg53
(lp4345
I1095363701
asg44
VPT4M48.4342303S
p4346
sg239
I3
sg240
VP0DT0H0M8.9000S
p4347
sg48
(dp4348
g50
VRNG Commonly
p4349
sg52
Nssa(dp4350
g47
I4096745987
sg41
VWeaponDrop
p4351
sg236
I0
sg53
(lp4352
I2758383128
asg44
VPT4M48.4342303S
p4353
sg239
I0
sg240
VP0DT0H0M4.9333S
p4354
sg48
(dp4355
g50
VRNG Commonly
p4356
sg52
Nssa(dp4357
g41
VMedal
p4358
sg48
(dp4359
g50
VRNG Ninja HCS
p4360
sg52
Nssg227
I3565443938
sg44
VPT4M50.7803048S
p4361
sa(dp4362
g41
VMedal
p4363
sg48
(dp4364
g50
VRNG Victory X
p4365
sg52
Nssg227
I2105198095
sg44
VPT4M50.7803048S
p4366
sa(dp4367
g41
VMedal
p4368
sg48
(dp4369
g50
VRNG Ninja HCS
p4370
sg52
Nssg227
I2105198095
sg44
VPT4M50.7803048S
p4371
sa(dp4372
g41
VMedal
p4373
sg48
(dp4374
g50
VRNG Penguin HCS
p4375
sg52
Nssg227
I2105198095
sg44
VPT4M50.7803048S
p4376
sa(dp4377
g41
VMedal
p4378
sg48
(dp4379
g50
VRNG Commonly
p4380
sg52
Nssg227
I2105198095
sg44
VPT4M50.7803048S
p4381
sa(dp4382
g41
VMedal
p4383
sg48
(dp4384
g50
VRNG Commonly
p4385
sg52
Nssg227
I1637841390
sg44
VPT4M50.7813116S
p4386
sa(dp4387
g47
I313138863
sg48
(dp4388
g50
VnV Mikwen HCS
p4389
sg52
Nssg53
(lp4390
I1095363701
asg41
VWeaponPickup
p4391
sg44
VPT4M51.9813431S
p4392
sa(dp4393
g47
I4096745987
sg48
(dp4394
g50
VnV Mikwen HCS
p4395
sg52
Nssg53
(lp4396
I2758383128
asg41
VWeaponPickup
p4397
sg44
VPT4M51.9823443S
p4398
sa(dp4399
g41
VPlayerSpawn
p4400
sg48
(dp4401
g50
VnV Mikwen HCS
p4402
sg52
Nssg44
VPT4M51.9823443S
p4403
sa(dp4404
g41
VMedal
p4405
sg48
(dp4406
g50
VnV RayneHCS
p4407
sg52
Nssg227
I3565443938
sg44
VPT4M53.2803845S
p4408
sa(dp4409
g188
I4096745987
sg189
I00
sg190
I00
sg191
(dp4410
g50
VnV eL ToWn
p4411
sg52
Nssg194
(lp4412
I2758383128
asg196
I00
sg197
I01
sg198
I1
sg199
I0
sg200
I1
sg201
(dp4413
Vy
F13.8114548
sVx
F8.8221539999999994
sVz
F1.65865862
ssg203
(dp4414
Vy
F11.4899807
sVx
F4.1555194899999996
sVz
F1.87335658
ssg205
I00
sg206
(dp4415
g50
VRNG Ninja HCS
p4416
sg52
Nssg209
(lp4417
sg211
(lp4418
sg213
I01
sg44
VPT4M55.2814498S
p4419
sg41
VDeath
p4420
sg216
I1
sa(dp4421
g41
VMedal
p4422
sg48
(dp4423
g50
VnV eL ToWn
p4424
sg52
Nssg227
I2766284219
sg44
VPT4M55.2844488S
p4425
sa(dp4426
g47
I2278207101
sg41
VWeaponDrop
p4427
sg236
I72
sg53
(lp4428
I2758383128
asg44
VPT4M55.2844488S
p4429
sg239
I34
sg240
VP0DT0H0M24.5167S
p4430
sg48
(dp4431
g50
VRNG Ninja HCS
p4432
sg52
Nssa(dp4433
g47
I2278207101
sg41
VWeaponDrop
p4434
sg236
I0
sg53
(lp4435
I2758383128
asg44
VPT4M55.2844488S
p4436
sg239
I0
sg240
VP0DT0S
p4437
sg48
(dp4438
g50
VRNG Ninja HCS
p4439
sg52
Nssa(dp4440
g47
I4096745987
sg41
VWeaponDrop
p4441
sg236
I6
sg53
(lp4442
I2758383128
asg44
VPT4M55.2844488S
p4443
sg239
I4
sg240
VP0DT0H0M13.9167S
p4444
sg48
(dp4445
g50
VRNG Ninja HCS
p4446
sg52
Nssa(dp4447
g47
I313138863
sg41
VWeaponDrop
p4448
sg236
I0
sg53
(lp4449
I1095363701
asg44
VPT4M55.5964576S
p4450
sg239
I0
sg240
VP0DT0H0M1.1167S
p4451
sg48
(dp4452
g50
VnV Pistola HCS
p4453
sg52
Nssa(dp4454
g47
I524558978
sg48
(dp4455
g50
VnV Pistola HCS
p4456
sg52
Nssg53
(lp4457
I2758383128
asg41
VWeaponPickup
p4458
sg44
VPT4M55.5964576S
p4459
sa(dp4460
g47
I313138863
sg48
(dp4461
g50
VRNG Commonly
p4462
sg52
Nssg53
(lp4463
I1095363701
asg41
VWeaponPickup
p4464
sg44
VPT4M56.4484866S
p4465
sa(dp4466
g47
I4096745987
sg48
(dp4467
g50
VRNG Commonly
p4468
sg52
Nssg53
(lp4469
I2758383128
asg41
VWeaponPickup
p4470
sg44
VPT4M56.4484866S
p4471
sa(dp4472
g41
VPlayerSpawn
p4473
sg48
(dp4474
g50
VRNG Commonly
p4475
sg52
Nssg44
VPT4M56.4484866S
p4476
sa(dp4477
g41
VMedal
p4478
sg48
(dp4479
g50
VRNG Commonly
p4480
sg52
Nssg227
I2916014239
sg44
VPT5M1.3806451S
p4481
sa(dp4482
g188
I313138863
sg189
I00
sg190
I00
sg191
(dp4483
g50
VnV Mikwen HCS
p4484
sg52
Nssg194
(lp4485
I1095363701
asg196
I00
sg197
I01
sg198
I1
sg199
I0
sg200
I1
sg201
(dp4486
Vy
F-3.0104157900000001
sVx
F-2.3170218500000002
sVz
F0.807942033
ssg203
(dp4487
Vy
F-2.8312620000000002
sVx
F3.9197757200000001
sVz
F3.784895e-06
ssg205
I00
sg206
(dp4488
g50
VRNG Commonly
p4489
sg52
Nssg209
(lp4490
sg211
(lp4491
sg213
I00
sg44
VPT5M1.6146519S
p4492
sg41
VDeath
p4493
sg216
I1
sa(dp4494
g47
I313138863
sg41
VWeaponDrop
p4495
sg236
I8
sg53
(lp4496
I1095363701
asg44
VPT5M1.616651S
p4497
sg239
I1
sg240
VP0DT0H0M2.2167S
p4498
sg48
(dp4499
g50
VRNG Commonly
p4500
sg52
Nssa(dp4501
g47
I4096745987
sg41
VWeaponDrop
p4502
sg236
I0
sg53
(lp4503
I2758383128
asg44
VPT5M1.616651S
p4504
sg239
I0
sg240
VP0DT0H0M2.9500S
p4505
sg48
(dp4506
g50
VRNG Commonly
p4507
sg52
Nssa(dp4508
g41
VMedal
p4509
sg48
(dp4510
g50
VnV eL ToWn
p4511
sg52
Nssg227
I3565443938
sg44
VPT5M2.1136678S
p4512
sa(dp4513
g41
VMedal
p4514
sg48
(dp4515
g50
VnV Pistola HCS
p4516
sg52
Nssg227
I3565443938
sg44
VPT5M2.1136678S
p4517
sa(dp4518
g47
I313138863
sg48
(dp4519
g50
VRNG Ninja HCS
p4520
sg52
Nssg53
(lp4521
I1095363701
asg41
VWeaponPickup
p4522
sg44
VPT5M3.2987054S
p4523
sa(dp4524
g47
I4096745987
sg48
(dp4525
g50
VRNG Ninja HCS
p4526
sg52
Nssg53
(lp4527
I2758383128
asg41
VWeaponPickup
p4528
sg44
VPT5M3.2987054S
p4529
sa(dp4530
g41
VPlayerSpawn
p4531
sg48
(dp4532
g50
VRNG Ninja HCS
p4533
sg52
Nssg44
VPT5M3.2987054S
p4534
sa(dp4535
g41
VMedal
p4536
sg48
(dp4537
g50
VnV Mikwen HCS
p4538
sg52
Nssg227
I3400287617
sg44
VPT5M5.4467731S
p4539
sa(dp4540
g188
I4096745987
sg189
I00
sg190
I00
sg191
(dp4541
g50
VRNG Penguin HCS
p4542
sg52
Nssg194
(lp4543
I2758383128
asg196
I00
sg197
I01
sg198
I1
sg199
I0
sg200
I1
sg201
(dp4544
Vy
F-0.063248429999999994
sVx
F13.1465292
sVz
F1.51023376
ssg203
(dp4545
Vy
F-0.047597326299999999
sVx
F2.4685670000000002
sVz
F3.784895e-06
ssg205
I00
sg206
(dp4546
g50
VnV Mikwen HCS
p4547
sg52
Nssg209
(lp4548
sg211
(lp4549
(dp4550
g50
VRNG Commonly
p4551
sg52
Nsasg213
I01
sg44
VPT5M6.9648235S
p4552
sg41
VDeath
p4553
sg216
I1
sa(dp4554
g41
VMedal
p4555
sg48
(dp4556
g50
VRNG Penguin HCS
p4557
sg52
Nssg227
I1351381581
sg44
VPT5M6.9658227S
p4558
sa(dp4559
g41
VMedal
p4560
sg48
(dp4561
g50
VRNG Penguin HCS
p4562
sg52
Nssg227
I3261908037
sg44
VPT5M6.9658227S
p4563
sa(dp4564
g47
I313138863
sg41
VWeaponDrop
p4565
sg236
I12
sg53
(lp4566
I1095363701
asg44
VPT5M6.9668225S
p4567
sg239
I4
sg240
VP0DT0H0M8.2500S
p4568
sg48
(dp4569
g50
VnV Mikwen HCS
p4570
sg52
Nssa(dp4571
g47
I4096745987
sg41
VWeaponDrop
p4572
sg236
I0
sg53
(lp4573
I2758383128
asg44
VPT5M6.9668225S
p4574
sg239
I0
sg240
VP0DT0H0M6.7333S
p4575
sg48
(dp4576
g50
VnV Mikwen HCS
p4577
sg52
Nssa(dp4578
g188
I4096745987
sg189
I00
sg190
I00
sg191
(dp4579
g50
VnV Pistola HCS
p4580
sg52
Nssg194
(lp4581
I2758383128
asg196
I00
sg197
I01
sg198
I1
sg199
I0
sg200
I1
sg201
(dp4582
Vy
F4.7724332800000004
sVx
F4.3373200000000001
sVz
F3.784895e-06
ssg203
(dp4583
Vy
F2.21054745
sVx
F-2.97156858
sVz
F0.40117347199999998
ssg205
I00
sg206
(dp4584
g50
VRNG Victory X
p4585
sg52
Nssg209
(lp4586
sg211
(lp4587
(dp4588
g50
VnV eL ToWn
p4589
sg52
Nsasg213
I01
sg44
VPT5M7.6808462S
p4590
sg41
VDeath
p4591
sg216
I1
sa(dp4592
g41
VMedal
p4593
sg48
(dp4594
g50
VnV Pistola HCS
p4595
sg52
Nssg227
I3261908037
sg44
VPT5M7.6828457S
p4596
sa(dp4597
g47
I313138863
sg41
VWeaponDrop
p4598
sg236
I0
sg53
(lp4599
I1095363701
asg44
VPT5M7.6828457S
p4600
sg239
I0
sg240
VP0DT0H0M0.3500S
p4601
sg48
(dp4602
g50
VRNG Victory X
p4603
sg52
Nssa(dp4604
g47
I523953283
sg41
VWeaponDrop
p4605
sg236
I17
sg53
(lp4606
I2208825748
asg44
VPT5M7.6828457S
p4607
sg239
I7
sg240
VP0DT0H0M26.0833S
p4608
sg48
(dp4609
g50
VRNG Victory X
p4610
sg52
Nssa(dp4611
g47
I313138863
sg48
(dp4612
g50
VRNG Commonly
p4613
sg52
Nssg53
(lp4614
I1095363701
asg41
VWeaponPickup
p4615
sg44
VPT5M9.6319092S
p4616
sa(dp4617
g47
I4096745987
sg48
(dp4618
g50
VRNG Commonly
p4619
sg52
Nssg53
(lp4620
I2758383128
asg41
VWeaponPickup
p4621
sg44
VPT5M9.6319092S
p4622
sa(dp4623
g41
VPlayerSpawn
p4624
sg48
(dp4625
g50
VRNG Commonly
p4626
sg52
Nssg44
VPT5M9.6319092S
p4627
sa(dp4628
g188
I4096745987
sg189
I00
sg190
I00
sg191
(dp4629
g50
VnV eL ToWn
p4630
sg52
Nssg194
(lp4631
I2758383128
asg196
I00
sg197
I01
sg198
I1
sg199
I0
sg200
I1
sg201
(dp4632
Vy
F-1.2797215
sVx
F7.7756953199999996
sVz
F-0.80001169999999999
ssg203
(dp4633
Vy
F5.8624200000000002
sVx
F8.3398090000000007
sVz
F-8.0466270000000001e-07
ssg205
I00
sg206
(dp4634
g50
VRNG Penguin HCS
p4635
sg52
Nssg209
(lp4636
sg211
(lp4637
(dp4638
g50
VnV RayneHCS
p4639
sg52
Nsasg213
I00
sg44
VPT5M10.2809294S
p4640
sg41
VDeath
p4641
sg216
I1
sa(dp4642
g47
I313138863
sg41
VWeaponDrop
p4643
sg236
I48
sg53
(lp4644
I1095363701
asg44
VPT5M10.2829292S
p4645
sg239
I11
sg240
VP0DT0H0M34.0000S
p4646
sg48
(dp4647
g50
VRNG Penguin HCS
p4648
sg52
Nssa(dp4649
g47
I4096745987
sg41
VWeaponDrop
p4650
sg236
I11
sg53
(lp4651
I2758383128
asg44
VPT5M10.2829292S
p4652
sg239
I4
sg240
VP0DT0H0M12.3667S
p4653
sg48
(dp4654
g50
VRNG Penguin HCS
p4655
sg52
Nssa(dp4656
g188
I4096745987
sg189
I00
sg190
I01
sg191
(dp4657
g50
VRNG Ninja HCS
p4658
sg52
Nssg194
(lp4659
I2758383128
asg196
I00
sg197
I00
sg198
I1
sg199
I0
sg200
I1
sg201
(dp4660
Vy
F-0.010403515800000001
sVx
F9.1179100000000002
sVz
F-0.80001163500000005
ssg203
(dp4661
Vy
F0.42381986999999999
sVx
F9.1351560000000003
sVz
F-0.83573359999999997
ssg205
I00
sg206
(dp4662
g50
VnV eL ToWn
p4663
sg52
Nssg209
(lp4664
sg211
(lp4665
(dp4666
g50
VRNG Penguin HCS
p4667
sg52
Nsasg213
I00
sg44
VPT5M12.080987S
p4668
sg41
VDeath
p4669
sg216
I1
sa(dp4670
g41
VMedal
p4671
sg48
(dp4672
g50
VRNG Ninja HCS
p4673
sg52
Nssg227
I1351381581
sg44
VPT5M12.0829861S
p4674
sa(dp4675
g41
VMedal
p4676
sg48
(dp4677
g50
VRNG Ninja HCS
p4678
sg52
Nssg227
I2287626681
sg44
VPT5M12.0829861S
p4679
sa(dp4680
g47
I4096745987
sg41
VWeaponDrop
p4681
sg236
I7
sg53
(lp4682
I2758383128
asg44
VPT5M12.0829861S
p4683
sg239
I3
sg240
VP0DT0H0M29.2000S
p4684
sg48
(dp4685
g50
VnV eL ToWn
p4686
sg52
Nssa(dp4687
g47
I4096745987
sg41
VWeaponDrop
p4688
sg236
I0
sg53
(lp4689
I2758383128
asg44
VPT5M12.0829861S
p4690
sg239
I0
sg240
VP0DT0S
p4691
sg48
(dp4692
g50
VnV eL ToWn
p4693
sg52
Nssa(dp4694
g47
I313138863
sg41
VWeaponDrop
p4695
sg236
I21
sg53
(lp4696
I1095363701
asg44
VPT5M12.0839874S
p4697
sg239
I12
sg240
VP0DT0H0M22.3500S
p4698
sg48
(dp4699
g50
VnV eL ToWn
p4700
sg52
Nssa(dp4701
g188
I313138863
sg189
I00
sg190
I00
sg191
(dp4702
g50
VRNG Ninja HCS
p4703
sg52
Nssg194
(lp4704
I1095363701
asg196
I00
sg197
I01
sg198
I1
sg199
I0
sg200
I1
sg201
(dp4705
Vy
F-1.8626440799999999
sVx
F8.5022540000000006
sVz
F0.244849861
ssg203
(dp4706
Vy
F3.0306639999999998
sVx
F9.0964200000000002
sVz
F-0.44581860000000001
ssg205
I00
sg206
(dp4707
g50
VnV Pistola HCS
p4708
sg52
Nssg209
(lp4709
sg211
(lp4710
(dp4711
g50
VRNG Victory X
p4712
sg52
Nsasg213
I00
sg44
VPT5M13.3810283S
p4713
sg41
VDeath
p4714
sg216
I1
sa(dp4715
g41
VMedal
p4716
sg48
(dp4717
g50
VRNG Ninja HCS
p4718
sg52
Nssg227
I1351381581
sg44
VPT5M13.3820289S
p4719
sa(dp4720
g41
VMedal
p4721
sg48
(dp4722
g50
VRNG Ninja HCS
p4723
sg52
Nssg227
I2078758684
sg44
VPT5M13.3820289S
p4724
sa(dp4725
g47
I4096745987
sg41
VWeaponDrop
p4726
sg236
I14
sg53
(lp4727
I2758383128
asg44
VPT5M13.3830286S
p4728
sg239
I7
sg240
VP0DT0H0M30.4000S
p4729
sg48
(dp4730
g50
VnV Pistola HCS
p4731
sg52
Nssa(dp4732
g47
I4096745987
sg41
VWeaponDrop
p4733
sg236
I0
sg53
(lp4734
I2758383128
asg44
VPT5M13.3830286S
p4735
sg239
I0
sg240
VP0DT0S
p4736
sg48
(dp4737
g50
VnV Pistola HCS
p4738
sg52
Nssa(dp4739
g47
I524558978
sg41
VWeaponDrop
p4740
sg236
I0
sg53
(lp4741
I2758383128
asg44
VPT5M13.3830286S
p4742
sg239
I0
sg240
VP0DT0H0M1.1167S
p4743
sg48
(dp4744
g50
VnV Pistola HCS
p4745
sg52
Nssa(dp4746
g188
I313138863
sg189
I00
sg190
I00
sg191
(dp4747
g50
VnV RayneHCS
p4748
sg52
Nssg194
(lp4749
I1095363701
asg196
I00
sg197
I01
sg198
I1
sg199
I0
sg200
I1
sg201
(dp4750
Vy
F0.54869100000000004
sVx
F9.1837719999999994
sVz
F-0.80001163500000005
ssg203
(dp4751
Vy
F-2.3230849999999998
sVx
F7.4500465399999998
sVz
F-0.68507373299999996
ssg205
I00
sg206
(dp4752
g50
VRNG Ninja HCS
p4753
sg52
Nssg209
(lp4754
sg211
(lp4755
(dp4756
g50
VnV eL ToWn
p4757
sg52
Nsa(dp4758
g50
VnV Pistola HCS
p4759
sg52
Nsasg213
I00
sg44
VPT5M14.264057S
p4760
sg41
VDeath
p4761
sg216
I1
sa(dp4762
g47
I313138863
sg41
VWeaponDrop
p4763
sg236
I13
sg53
(lp4764
I1095363701
asg44
VPT5M14.2660568S
p4765
sg239
I11
sg240
VP0DT0H0M2.5333S
p4766
sg48
(dp4767
g50
VRNG Ninja HCS
p4768
sg52
Nssa(dp4769
g47
I4096745987
sg41
VWeaponDrop
p4770
sg236
I5
sg53
(lp4771
I2758383128
asg44
VPT5M14.2660568S
p4772
sg239
I2
sg240
VP0DT0H0M8.4333S
p4773
sg48
(dp4774
g50
VRNG Ninja HCS
p4775
sg52
Nssa(dp4776
g47
I4096745987
sg41
VWeaponDrop
p4777
sg236
I0
sg53
(lp4778
I2758383128
asg44
VPT5M14.2660568S
p4779
sg239
I0
sg240
VP0DT0S
p4780
sg48
(dp4781
g50
VRNG Ninja HCS
p4782
sg52
Nssa(dp4783
g188
I313138863
sg189
I00
sg190
I00
sg191
(dp4784
g50
VRNG Commonly
p4785
sg52
Nssg194
(lp4786
I1095363701
asg196
I00
sg197
I01
sg198
I1
sg199
I0
sg200
I1
sg201
(dp4787
Vy
F-0.90830266500000001
sVx
F3.6451539999999998
sVz
F3.784895e-06
ssg203
(dp4788
Vy
F-0.018837739999999999
sVx
F9.3749859999999998
sVz
F-0.80001163500000005
ssg205
I00
sg206
(dp4789
g50
VnV RayneHCS
p4790
sg52
Nssg209
(lp4791
sg211
(lp4792
(dp4793
g50
VRNG Ninja HCS
p4794
sg52
Nsasg213
I00
sg44
VPT5M14.7480724S
p4795
sg41
VDeath
p4796
sg216
I1
sa(dp4797
g41
VMedal
p4798
sg48
(dp4799
g50
VRNG Commonly
p4800
sg52
Nssg227
I1351381581
sg44
VPT5M14.7490811S
p4801
sa(dp4802
g41
VMedal
p4803
sg48
(dp4804
g50
VRNG Commonly
p4805
sg52
Nssg227
I2916014239
sg44
VPT5M14.7500727S
p4806
sa(dp4807
g47
I313138863
sg41
VWeaponDrop
p4808
sg236
I36
sg53
(lp4809
I1095363701
asg44
VPT5M14.7500727S
p4810
sg239
I9
sg240
VP0DT0H0M10.4000S
p4811
sg48
(dp4812
g50
VnV RayneHCS
p4813
sg52
Nssa(dp4814
g47
I4096745987
sg41
VWeaponDrop
p4815
sg236
I13
sg53
(lp4816
I2758383128
asg44
VPT5M14.7500727S
p4817
sg239
I5
sg240
VP0DT0H0M24.3000S
p4818
sg48
(dp4819
g50
VnV RayneHCS
p4820
sg52
Nssa(dp4821
g47
I313138863
sg48
(dp4822
g50
VnV Mikwen HCS
p4823
sg52
Nssg53
(lp4824
I1095363701
asg41
VWeaponPickup
p4825
sg44
VPT5M14.9810801S
p4826
sa(dp4827
g47
I4096745987
sg48
(dp4828
g50
VnV Mikwen HCS
p4829
sg52
Nssg53
(lp4830
I2758383128
asg41
VWeaponPickup
p4831
sg44
VPT5M14.9810801S
p4832
sa(dp4833
g41
VPlayerSpawn
p4834
sg48
(dp4835
g50
VnV Mikwen HCS
p4836
sg52
Nssg44
VPT5M14.9820893S
p4837
sa(dp4838
g47
I313138863
sg48
(dp4839
g50
VRNG Victory X
p4840
sg52
Nssg53
(lp4841
I1095363701
asg41
VWeaponPickup
p4842
sg44
VPT5M15.6981028S
p4843
sa(dp4844
g47
I4096745987
sg48
(dp4845
g50
VRNG Victory X
p4846
sg52
Nssg53
(lp4847
I2758383128
asg41
VWeaponPickup
p4848
sg44
VPT5M15.6981028S
p4849
sa(dp4850
g41
VPlayerSpawn
p4851
sg48
(dp4852
g50
VRNG Victory X
p4853
sg52
Nssg44
VPT5M15.6981028S
p4854
sa(dp4855
g47
I313138863
sg48
(dp4856
g50
VRNG Penguin HCS
p4857
sg52
Nssg53
(lp4858
I1095363701
asg41
VWeaponPickup
p4859
sg44
VPT5M18.2981862S
p4860
sa(dp4861
g47
I4096745987
sg48
(dp4862
g50
VRNG Penguin HCS
p4863
sg52
Nssg53
(lp4864
I2758383128
asg41
VWeaponPickup
p4865
sg44
VPT5M18.2981862S
p4866
sa(dp4867
g41
VPlayerSpawn
p4868
sg48
(dp4869
g50
VRNG Penguin HCS
p4870
sg52
Nssg44
VPT5M18.2981862S
p4871
sa(dp4872
g47
I313138863
sg48
(dp4873
g50
VnV eL ToWn
p4874
sg52
Nssg53
(lp4875
I1095363701
asg41
VWeaponPickup
p4876
sg44
VPT5M20.0982438S
p4877
sa(dp4878
g47
I4096745987
sg48
(dp4879
g50
VnV eL ToWn
p4880
sg52
Nssg53
(lp4881
I2758383128
asg41
VWeaponPickup
p4882
sg44
VPT5M20.0982438S
p4883
sa(dp4884
g41
VPlayerSpawn
p4885
sg48
(dp4886
g50
VnV eL ToWn
p4887
sg52
Nssg44
VPT5M20.0982438S
p4888
sa(dp4889
g47
I313138863
sg48
(dp4890
g50
VnV Pistola HCS
p4891
sg52
Nssg53
(lp4892
I1095363701
asg41
VWeaponPickup
p4893
sg44
VPT5M21.3982852S
p4894
sa(dp4895
g47
I4096745987
sg48
(dp4896
g50
VnV Pistola HCS
p4897
sg52
Nssg53
(lp4898
I2758383128
asg41
VWeaponPickup
p4899
sg44
VPT5M21.3982852S
p4900
sa(dp4901
g41
VPlayerSpawn
p4902
sg48
(dp4903
g50
VnV Pistola HCS
p4904
sg52
Nssg44
VPT5M21.3982852S
p4905
sa(dp4906
g188
I4096745987
sg189
I00
sg190
I00
sg191
(dp4907
g50
VRNG Commonly
p4908
sg52
Nssg194
(lp4909
I2758383128
asg196
I00
sg197
I00
sg198
I2
sg199
I0
sg200
I0
sg201
(dp4910
Vy
F-2.220326
sVx
F-1.832641
sVz
F0.40105116400000002
ssg203
(dp4911
Vy
F1.61702323
sVx
F-0.49857574700000001
sVz
F0.42106282699999997
ssg205
I00
sg206
(dp4912
g596
g597
ssg209
(lp4913
sg211
(lp4914
sg213
I00
sg44
VPT5M21.6142922S
p4915
sg41
VDeath
p4916
sg216
I1
sa(dp4917
g47
I313138863
sg48
(dp4918
g50
VRNG Ninja HCS
p4919
sg52
Nssg53
(lp4920
I1095363701
asg41
VWeaponPickup
p4921
sg44
VPT5M22.2813137S
p4922
sa(dp4923
g47
I4096745987
sg48
(dp4924
g50
VRNG Ninja HCS
p4925
sg52
Nssg53
(lp4926
I2758383128
asg41
VWeaponPickup
p4927
sg44
VPT5M22.2823138S
p4928
sa(dp4929
g41
VPlayerSpawn
p4930
sg48
(dp4931
g50
VRNG Ninja HCS
p4932
sg52
Nssg44
VPT5M22.2823138S
p4933
sa(dp4934
g188
I47178948
sg189
I00
sg190
I00
sg191
(dp4935
g50
VRNG Victory X
p4936
sg52
Nssg194
(lp4937
sg196
I00
sg197
I00
sg198
I2
sg199
I0
sg200
I0
sg201
(dp4938
Vy
F12.3255968
sVx
F-0.45611992499999998
sVz
F3.7550926200000002e-06
ssg203
(dp4939
Vy
F13.6515579
sVx
F-0.46105733500000001
sVz
F1.8020393800000001
ssg205
I00
sg206
(dp4940
g596
g597
ssg209
(lp4941
sg211
(lp4942
sg213
I00
sg44
VPT5M22.4643192S
p4943
sg41
VDeath
p4944
sg216
I1
sa(dp4945
g47
I313138863
sg48
(dp4946
g50
VnV RayneHCS
p4947
sg52
Nssg53
(lp4948
I1095363701
asg41
VWeaponPickup
p4949
sg44
VPT5M22.764329S
p4950
sa(dp4951
g47
I4096745987
sg48
(dp4952
g50
VnV RayneHCS
p4953
sg52
Nssg53
(lp4954
I2758383128
asg41
VWeaponPickup
p4955
sg44
VPT5M22.7653291S
p4956
sa(dp4957
g41
VPlayerSpawn
p4958
sg48
(dp4959
g50
VnV RayneHCS
p4960
sg52
Nssg44
VPT5M22.7653291S
p4961
sa(dp4962
g188
I313138863
sg189
I00
sg190
I00
sg191
(dp4963
g50
VRNG Victory X
p4964
sg52
Nssg194
(lp4965
I1095363701
asg196
I00
sg197
I01
sg198
I1
sg199
I0
sg200
I1
sg201
(dp4966
Vy
F15.8938541
sVx
F8.3332409999999992
sVz
F0.79999876000000003
ssg203
(dp4967
Vy
F16.650688200000001
sVx
F5.7846975299999999
sVz
F0.80008279999999998
ssg205
I00
sg206
(dp4968
g50
VnV Mikwen HCS
p4969
sg52
Nssg209
(lp4970
sg211
(lp4971
(dp4972
g50
VRNG Penguin HCS
p4973
sg52
Nsasg213
I00
sg44
VPT5M26.9974644S
p4974
sg41
VDeath
p4975
sg216
I1
sa(dp4976
g47
I313138863
sg41
VWeaponDrop
p4977
sg236
I10
sg53
(lp4978
I1095363701
asg44
VPT5M26.9994635S
p4979
sg239
I5
sg240
VP0DT0H0M5.3667S
p4980
sg48
(dp4981
g50
VnV Mikwen HCS
p4982
sg52
Nssa(dp4983
g47
I4096745987
sg41
VWeaponDrop
p4984
sg236
I9
sg53
(lp4985
I2758383128
asg44
VPT5M26.9994635S
p4986
sg239
I3
sg240
VP0DT0H0M6.6500S
p4987
sg48
(dp4988
g50
VnV Mikwen HCS
p4989
sg52
Nssa(dp4990
g188
I313138863
sg189
I00
sg190
I00
sg191
(dp4991
g50
VnV eL ToWn
p4992
sg52
Nssg194
(lp4993
I1095363701
asg196
I00
sg197
I01
sg198
I1
sg199
I0
sg200
I1
sg201
(dp4994
Vy
F14.9901581
sVx
F12.5132236
sVz
F1.9999701999999999
ssg203
(dp4995
Vy
F15.024374999999999
sVx
F10.86284
sVz
F0.79999876000000003
ssg205
I00
sg206
(dp4996
g50
VRNG Victory X
p4997
sg52
Nssg209
(lp4998
sg211
(lp4999
(dp5000
g50
VnV Mikwen HCS
p5001
sg52
Nsasg213
I00
sg44
VPT5M28.7485209S
p5002
sg41
VDeath
p5003
sg216
I1
sa(dp5004
g47
I313138863
sg41
VWeaponDrop
p5005
sg236
I19
sg53
(lp5006
I1095363701
asg44
VPT5M28.7495204S
p5007
sg239
I6
sg240
VP0DT0H0M5.3167S
p5008
sg48
(dp5009
g50
VRNG Victory X
p5010
sg52
Nssa(dp5011
g47
I4096745987
sg41
VWeaponDrop
p5012
sg236
I3
sg53
(lp5013
I2758383128
asg44
VPT5M28.7495204S
p5014
sg239
I1
sg240
VP0DT0H0M7.7333S
p5015
sg48
(dp5016
g50
VRNG Victory X
p5017
sg52
Nssa(dp5018
g188
I4096745987
sg189
I00
sg190
I01
sg191
(dp5019
g50
VRNG Penguin HCS
p5020
sg52
Nssg194
(lp5021
I2758383128
asg196
I00
sg197
I00
sg198
I1
sg199
I0
sg200
I1
sg201
(dp5022
Vy
F12.4549646
sVx
F9.6213639999999998
sVz
F0.79419916899999998
ssg203
(dp5023
Vy
F12.251285599999999
sVx
F10.0859442
sVz
F0.79999876000000003
ssg205
I00
sg206
(dp5024
g50
VnV eL ToWn
p5025
sg52
Nssg209
(lp5026
sg211
(lp5027
sg213
I00
sg44
VPT5M32.7976505S
p5028
sg41
VDeath
p5029
sg216
I1
sa(dp5030
g41
VMedal
p5031
sg48
(dp5032
g50
VRNG Penguin HCS
p5033
sg52
Nssg227
I2287626681
sg44
VPT5M32.7996528S
p5034
sa(dp5035
g47
I313138863
sg41
VWeaponDrop
p5036
sg236
I22
sg53
(lp5037
I1095363701
asg44
VPT5M32.8006505S
p5038
sg239
I10
sg240
VP0DT0H0M6.1833S
p5039
sg48
(dp5040
g50
VnV eL ToWn
p5041
sg52
Nssa(dp5042
g47
I4096745987
sg41
VWeaponDrop
p5043
sg236
I0
sg53
(lp5044
I2758383128
asg44
VPT5M32.8016501S
p5045
sg239
I0
sg240
VP0DT0H0M6.5167S
p5046
sg48
(dp5047
g50
VnV eL ToWn
p5048
sg52
Nssa(dp5049
g188
I2460880172
sg189
I00
sg190
I00
sg191
(dp5050
g50
VnV eL ToWn
p5051
sg52
Nssg194
(lp5052
sg196
I00
sg197
I00
sg198
I2
sg199
I0
sg200
I0
sg201
(dp5053
Vy
F11.9821119
sVx
F11.2891645
sVz
F0.70643619999999996
ssg203
(dp5054
Vy
F11.912474599999999
sVx
F8.0804670000000005
sVz
F0.80117110000000002
ssg205
I00
sg206
(dp5055
g596
g597
ssg209
(lp5056
sg211
(lp5057
sg213
I00
sg44
VPT5M33.664678S
p5058
sg41
VDeath
p5059
sg216
I1
sa(dp5060
g188
I313138863
sg189
I00
sg190
I00
sg191
(dp5061
g50
VRNG Commonly
p5062
sg52
Nssg194
(lp5063
I1095363701
asg196
I00
sg197
I01
sg198
I1
sg199
I0
sg200
I1
sg201
(dp5064
Vy
F11.502901100000001
sVx
F5.4933075899999997
sVz
F0.80002740000000006
ssg203
(dp5065
Vy
F11.237496399999999
sVx
F6.6354255699999998
sVz
F1.4529829999999999
ssg205
I00
sg206
(dp5066
g50
VnV RayneHCS
p5067
sg52
Nssg209
(lp5068
sg211
(lp5069
sg213
I00
sg44
VPT5M33.7136786S
p5070
sg41
VDeath
p5071
sg216
I1
sa(dp5072
g47
I313138863
sg41
VWeaponDrop
p5073
sg236
I0
sg53
(lp5074
I1095363701
asg44
VPT5M33.7166794S
p5075
sg239
I0
sg240
VP0DT0H0M2.8167S
p5076
sg48
(dp5077
g50
VnV RayneHCS
p5078
sg52
Nssa(dp5079
g47
I4096745987
sg41
VWeaponDrop
p5080
sg236
I0
sg53
(lp5081
I2758383128
asg44
VPT5M33.7166794S
p5082
sg239
I0
sg240
VP0DT0H0M8.1333S
p5083
sg48
(dp5084
g50
VnV RayneHCS
p5085
sg52
Nssa(dp5086
g188
I4096745987
sg189
I00
sg190
I00
sg191
(dp5087
g50
VnV Pistola HCS
p5088
sg52
Nssg194
(lp5089
I2758383128
asg196
I00
sg197
I01
sg198
I1
sg199
I0
sg200
I1
sg201
(dp5090
Vy
F-2.9923102899999998
sVx
F2.2208039999999998
sVz
F1.0646013000000001
ssg203
(dp5091
Vy
F11.383862499999999
sVx
F5.5546990000000003
sVz
F1.3355423200000001
ssg205
I00
sg206
(dp5092
g50
VRNG Commonly
p5093
sg52
Nssg209
(lp5094
sg211
(lp5095
(dp5096
g50
VnV RayneHCS
p5097
sg52
Nsasg213
I01
sg44
VPT5M33.8976851S
p5098
sg41
VDeath
p5099
sg216
I1
sa(dp5100
g41
VMedal
p5101
sg48
(dp5102
g50
VnV Pistola HCS
p5103
sg52
Nssg227
I1351381581
sg44
VPT5M33.8986846S
p5104
sa(dp5105
g41
VMedal
p5106
sg48
(dp5107
g50
VnV Pistola HCS
p5108
sg52
Nssg227
I3261908037
sg44
VPT5M33.8986846S
p5109
sa(dp5110
g47
I313138863
sg41
VWeaponDrop
p5111
sg236
I14
sg53
(lp5112
I1095363701
asg44
VPT5M33.8996965S
p5113
sg239
I5
sg240
VP0DT0H0M7.9667S
p5114
sg48
(dp5115
g50
VRNG Commonly
p5116
sg52
Nssa(dp5117
g47
I4096745987
sg41
VWeaponDrop
p5118
sg236
I8
sg53
(lp5119
I2758383128
asg44
VPT5M33.8996965S
p5120
sg239
I4
sg240
VP0DT0H0M16.3000S
p5121
sg48
(dp5122
g50
VRNG Commonly
p5123
sg52
Nssa(dp5124
g47
I313138863
sg48
(dp5125
g50
VnV Mikwen HCS
p5126
sg52
Nssg53
(lp5127
I1095363701
asg41
VWeaponPickup
p5128
sg44
VPT5M35.0147273S
p5129
sa(dp5130
g47
I4096745987
sg48
(dp5131
g50
VnV Mikwen HCS
p5132
sg52
Nssg53
(lp5133
I2758383128
asg41
VWeaponPickup
p5134
sg44
VPT5M35.0147273S
p5135
sa(dp5136
g41
VPlayerSpawn
p5137
sg48
(dp5138
g50
VnV Mikwen HCS
p5139
sg52
Nssg44
VPT5M35.0147273S
p5140
sa(dp5141
g41
VMedal
p5142
sg48
(dp5143
g50
VRNG Penguin HCS
p5144
sg52
Nssg227
I3565443938
sg44
VPT5M35.8967492S
p5145
sa(dp5146
g41
VMedal
p5147
sg48
(dp5148
g50
VRNG Victory X
p5149
sg52
Nssg227
I1637841390
sg44
VPT5M35.8967492S
p5150
sa(dp5151
g41
VMedal
p5152
sg48
(dp5153
g50
VRNG Commonly
p5154
sg52
Nssg227
I1637841390
sg44
VPT5M35.8967492S
p5155
sa(dp5156
g47
I313138863
sg48
(dp5157
g50
VRNG Victory X
p5158
sg52
Nssg53
(lp5159
I1095363701
asg41
VWeaponPickup
p5160
sg44
VPT5M36.7647873S
p5161
sa(dp5162
g47
I4096745987
sg48
(dp5163
g50
VRNG Victory X
p5164
sg52
Nssg53
(lp5165
I2758383128
asg41
VWeaponPickup
p5166
sg44
VPT5M36.7647873S
p5167
sa(dp5168
g41
VPlayerSpawn
p5169
sg48
(dp5170
g50
VRNG Victory X
p5171
sg52
Nssg44
VPT5M36.7647873S
p5172
sa(dp5173
g188
I4096745987
sg189
I00
sg190
I00
sg191
(dp5174
g50
VRNG Ninja HCS
p5175
sg52
Nssg194
(lp5176
I2758383128
asg196
I00
sg197
I01
sg198
I1
sg199
I0
sg200
I1
sg201
(dp5177
Vy
F8.2421579999999999
sVx
F1.8920131899999999
sVz
F1.10904574
ssg203
(dp5178
Vy
F-0.19986280000000001
sVx
F4.7461950000000002
sVz
F0.0255006552
ssg205
I00
sg206
(dp5179
g50
VnV Pistola HCS
p5180
sg52
Nssg209
(lp5181
sg211
(lp5182
sg213
I01
sg44
VPT5M38.8478441S
p5183
sg41
VDeath
p5184
sg216
I1
sa(dp5185
g41
VMedal
p5186
sg48
(dp5187
g50
VRNG Ninja HCS
p5188
sg52
Nssg227
I1351381581
sg44
VPT5M38.8498436S
p5189
sa(dp5190
g41
VMedal
p5191
sg48
(dp5192
g50
VRNG Ninja HCS
p5193
sg52
Nssg227
I3261908037
sg44
VPT5M38.8508435S
p5194
sa(dp5195
g47
I4096745987
sg41
VWeaponDrop
p5196
sg236
I17
sg53
(lp5197
I2758383128
asg44
VPT5M38.8518441S
p5198
sg239
I11
sg240
VP0DT0H0M16.4667S
p5199
sg48
(dp5200
g50
VnV Pistola HCS
p5201
sg52
Nssa(dp5202
g47
I313138863
sg41
VWeaponDrop
p5203
sg236
I0
sg53
(lp5204
I1095363701
asg44
VPT5M38.8518441S
p5205
sg239
I0
sg240
VP0DT0H0M0.9833S
p5206
sg48
(dp5207
g50
VnV Pistola HCS
p5208
sg52
Nssa(dp5209
g47
I4106030681
sg41
VWeaponDrop
p5210
sg236
I0
sg53
(lp5211
sg44
VPT5M38.9128436S
p5212
sg239
I1
sg240
VPT0S
p5213
sg48
(dp5214
g50
VnV Pistola HCS
p5215
sg52
Nssa(dp5216
g47
I313138863
sg48
(dp5217
g50
VnV eL ToWn
p5218
sg52
Nssg53
(lp5219
I1095363701
asg41
VWeaponPickup
p5220
sg44
VPT5M40.8149066S
p5221
sa(dp5222
g47
I4096745987
sg48
(dp5223
g50
VnV eL ToWn
p5224
sg52
Nssg53
(lp5225
I2758383128
asg41
VWeaponPickup
p5226
sg44
VPT5M40.8149066S
p5227
sa(dp5228
g41
VPlayerSpawn
p5229
sg48
(dp5230
g50
VnV eL ToWn
p5231
sg52
Nssg44
VPT5M40.8149066S
p5232
sa(dp5233
g47
I313138863
sg48
(dp5234
g50
VnV RayneHCS
p5235
sg52
Nssg53
(lp5236
I1095363701
asg41
VWeaponPickup
p5237
sg44
VPT5M41.7309359S
p5238
sa(dp5239
g47
I4096745987
sg48
(dp5240
g50
VnV RayneHCS
p5241
sg52
Nssg53
(lp5242
I2758383128
asg41
VWeaponPickup
p5243
sg44
VPT5M41.7319354S
p5244
sa(dp5245
g41
VPlayerSpawn
p5246
sg48
(dp5247
g50
VnV RayneHCS
p5248
sg52
Nssg44
VPT5M41.7319354S
p5249
sa(dp5250
g47
I313138863
sg48
(dp5251
g50
VRNG Commonly
p5252
sg52
Nssg53
(lp5253
I1095363701
asg41
VWeaponPickup
p5254
sg44
VPT5M41.9149422S
p5255
sa(dp5256
g47
I4096745987
sg48
(dp5257
g50
VRNG Commonly
p5258
sg52
Nssg53
(lp5259
I2758383128
asg41
VWeaponPickup
p5260
sg44
VPT5M41.9149422S
p5261
sa(dp5262
g41
VPlayerSpawn
p5263
sg48
(dp5264
g50
VRNG Commonly
p5265
sg52
Nssg44
VPT5M41.9149422S
p5266
sa(dp5267
g188
I4096745987
sg189
I00
sg190
I00
sg191
(dp5268
g50
VRNG Victory X
p5269
sg52
Nssg194
(lp5270
I2758383128
asg196
I00
sg197
I01
sg198
I1
sg199
I0
sg200
I1
sg201
(dp5271
Vy
F7.7204213099999999
sVx
F7.5334124600000001
sVz
F2.2947788199999999e-06
ssg203
(dp5272
Vy
F-2.4578720000000001
sVx
F8.7932609999999993
sVz
F0.2526796
ssg205
I00
sg206
(dp5273
g50
VnV Mikwen HCS
p5274
sg52
Nssg209
(lp5275
sg211
(lp5276
(dp5277
g50
VRNG Penguin HCS
p5278
sg52
Nsasg213
I00
sg44
VPT5M44.5140345S
p5279
sg41
VDeath
p5280
sg216
I1
sa(dp5281
g41
VImpulse
p5282
sg48
(dp5283
g50
VRNG Victory X
p5284
sg52
Nssg221
I2556889090
sg44
VPT5M44.5140345S
p5285
sa(dp5286
g41
VMedal
p5287
sg48
(dp5288
g50
VRNG Victory X
p5289
sg52
Nssg227
I2838259753
sg44
VPT5M44.5140345S
p5290
sa(dp5291
g41
VMedal
p5292
sg48
(dp5293
g50
VRNG Victory X
p5294
sg52
Nssg227
I1351381581
sg44
VPT5M44.515025S
p5295
sa(dp5296
g41
VMedal
p5297
sg48
(dp5298
g50
VRNG Penguin HCS
p5299
sg52
Nssg227
I2916014239
sg44
VPT5M44.5160246S
p5300
sa(dp5301
g47
I313138863
sg41
VWeaponDrop
p5302
sg236
I0
sg53
(lp5303
I1095363701
asg44
VPT5M44.5160246S
p5304
sg239
I0
sg240
VP0DT0H0M0.8500S
p5305
sg48
(dp5306
g50
VnV Mikwen HCS
p5307
sg52
Nssa(dp5308
g47
I4096745987
sg41
VWeaponDrop
p5309
sg236
I4
sg53
(lp5310
I2758383128
asg44
VPT5M44.5160246S
p5311
sg239
I4
sg240
VP0DT0H0M8.6500S
p5312
sg48
(dp5313
g50
VnV Mikwen HCS
p5314
sg52
Nssa(dp5315
g188
I4096745987
sg189
I00
sg190
I00
sg191
(dp5316
g50
VnV eL ToWn
p5317
sg52
Nssg194
(lp5318
I2758383128
asg196
I00
sg197
I01
sg198
I1
sg199
I0
sg200
I1
sg201
(dp5319
Vy
F-2.45202184
sVx
F7.52981663
sVz
F-0.64482724700000005
ssg203
(dp5320
Vy
F7.8598156000000001
sVx
F8.6058610000000009
sVz
F-1.81794167e-06
ssg205
I00
sg206
(dp5321
g50
VRNG Victory X
p5322
sg52
Nssg209
(lp5323
sg211
(lp5324
(dp5325
g50
VnV Mikwen HCS
p5326
sg52
Nsasg213
I01
sg44
VPT5M45.6310609S
p5327
sg41
VDeath
p5328
sg216
I1
sa(dp5329
g41
VMedal
p5330
sg48
(dp5331
g50
VnV eL ToWn
p5332
sg52
Nssg227
I3261908037
sg44
VPT5M45.6320606S
p5333
sa(dp5334
g47
I313138863
sg41
VWeaponDrop
p5335
sg236
I0
sg53
(lp5336
I1095363701
asg44
VPT5M45.6330602S
p5337
sg239
I0
sg240
VP0DT0H0M0.9000S
p5338
sg48
(dp5339
g50
VRNG Victory X
p5340
sg52
Nssa(dp5341
g47
I4096745987
sg41
VWeaponDrop
p5342
sg236
I7
sg53
(lp5343
I2758383128
asg44
VPT5M45.6330602S
p5344
sg239
I7
sg240
VP0DT0H0M7.9667S
p5345
sg48
(dp5346
g50
VRNG Victory X
p5347
sg52
Nssa(dp5348
g188
I313138863
sg189
I00
sg190
I01
sg191
(dp5349
g50
VRNG Penguin HCS
p5350
sg52
Nssg194
(lp5351
I1095363701
asg196
I00
sg197
I00
sg198
I1
sg199
I0
sg200
I1
sg201
(dp5352
Vy
F-1.62043929
sVx
F7.4391765599999999
sVz
F-0.80001163500000005
ssg203
(dp5353
Vy
F-1.871726
sVx
F7.7045890000000004
sVz
F-0.80001169999999999
ssg205
I00
sg206
(dp5354
g50
VnV eL ToWn
p5355
sg52
Nssg209
(lp5356
sg211
(lp5357
(dp5358
g50
VRNG Victory X
p5359
sg52
Nsasg213
I00
sg44
VPT5M46.3140823S
p5360
sg41
VDeath
p5361
sg216
I1
sa(dp5362
g41
VMedal
p5363
sg48
(dp5364
g50
VRNG Penguin HCS
p5365
sg52
Nssg227
I1351381581
sg44
VPT5M46.3160817S
p5366
sa(dp5367
g41
VMedal
p5368
sg48
(dp5369
g50
VRNG Penguin HCS
p5370
sg52
Nssg227
I2287626681
sg44
VPT5M46.3160817S
p5371
sa(dp5372
g47
I4096745987
sg41
VWeaponDrop
p5373
sg236
I4
sg53
(lp5374
I2758383128
asg44
VPT5M46.3160817S
p5375
sg239
I3
sg240
VP0DT0H0M4.7333S
p5376
sg48
(dp5377
g50
VnV eL ToWn
p5378
sg52
Nssa(dp5379
g47
I313138863
sg41
VWeaponDrop
p5380
sg236
I0
sg53
(lp5381
I1095363701
asg44
VPT5M46.3170855S
p5382
sg239
I0
sg240
VP0DT0H0M0.7667S
p5383
sg48
(dp5384
g50
VnV eL ToWn
p5385
sg52
Nssa(dp5386
g47
I313138863
sg48
(dp5387
g50
VnV Pistola HCS
p5388
sg52
Nssg53
(lp5389
I1095363701
asg41
VWeaponPickup
p5390
sg44
VPT5M46.8641001S
p5391
sa(dp5392
g47
I4096745987
sg48
(dp5393
g50
VnV Pistola HCS
p5394
sg52
Nssg53
(lp5395
I2758383128
asg41
VWeaponPickup
p5396
sg44
VPT5M46.8641001S
p5397
sa(dp5398
g41
VPlayerSpawn
p5399
sg48
(dp5400
g50
VnV Pistola HCS
p5401
sg52
Nssg44
VPT5M46.8641001S
p5402
sa(dp5403
g188
I313138863
sg189
I00
sg190
I00
sg191
(dp5404
g50
VnV RayneHCS
p5405
sg52
Nssg194
(lp5406
I1095363701
asg196
I00
sg197
I01
sg198
I1
sg199
I0
sg200
I1
sg201
(dp5407
Vy
F-2.7086939999999999
sVx
F-1.63550091
sVz
F0.70519113499999997
ssg203
(dp5408
Vy
F0.13877429999999999
sVx
F-2.8355662800000001
sVz
F0.39999997599999998
ssg205
I00
sg206
(dp5409
g50
VRNG Ninja HCS
p5410
sg52
Nssg209
(lp5411
sg211
(lp5412
(dp5413
g50
VnV Mikwen HCS
p5414
sg52
Nsasg213
I00
sg44
VPT5M47.3311154S
p5415
sg41
VDeath
p5416
sg216
I1
sa(dp5417
g47
I313138863
sg41
VWeaponDrop
p5418
sg236
I2
sg53
(lp5419
I1095363701
asg44
VPT5M47.3331153S
p5420
sg239
I1
sg240
VP0DT0H0M2.3500S
p5421
sg48
(dp5422
g50
VRNG Ninja HCS
p5423
sg52
Nssa(dp5424
g47
I4096745987
sg41
VWeaponDrop
p5425
sg236
I20
sg53
(lp5426
I2758383128
asg44
VPT5M47.3331153S
p5427
sg239
I9
sg240
VP0DT0H0M22.7000S
p5428
sg48
(dp5429
g50
VRNG Ninja HCS
p5430
sg52
Nssa(dp5431
g188
I4096745987
sg189
I00
sg190
I00
sg191
(dp5432
g50
VnV Pistola HCS
p5433
sg52
Nssg194
(lp5434
I2758383128
asg196
I00
sg197
I01
sg198
I1
sg199
I0
sg200
I1
sg201
(dp5435
Vy
F-11.824143400000001
sVx
F0.30404716700000001
sVz
F2.91467214
ssg203
(dp5436
Vy
F4.0547976500000003
sVx
F3.8278181600000001
sVz
F3.8146972699999997e-06
ssg205
I00
sg206
(dp5437
g50
VRNG Commonly
p5438
sg52
Nssg209
(lp5439
sg211
(lp5440
sg213
I01
sg44
VPT5M50.0472016S
p5441
sg41
VDeath
p5442
sg216
I1
sa(dp5443
g41
VMedal
p5444
sg48
(dp5445
g50
VnV Pistola HCS
p5446
sg52
Nssg227
I3261908037
sg44
VPT5M50.0492014S
p5447
sa(dp5448
g47
I313138863
sg41
VWeaponDrop
p5449
sg236
I0
sg53
(lp5450
I1095363701
asg44
VPT5M50.0502022S
p5451
sg239
I0
sg240
VP0DT0H0M0.7833S
p5452
sg48
(dp5453
g50
VRNG Commonly
p5454
sg52
Nssa(dp5455
g47
I4096745987
sg41
VWeaponDrop
p5456
sg236
I3
sg53
(lp5457
I2758383128
asg44
VPT5M50.0502022S
p5458
sg239
I0
sg240
VP0DT0H0M7.3500S
p5459
sg48
(dp5460
g50
VRNG Commonly
p5461
sg52
Nssa(dp5462
g188
I313138863
sg189
I00
sg190
I00
sg191
(dp5463
g50
VRNG Penguin HCS
p5464
sg52
Nssg194
(lp5465
I1095363701
asg196
I00
sg197
I01
sg198
I1
sg199
I0
sg200
I1
sg201
(dp5466
Vy
F-4.0313270000000001
sVx
F2.0735969999999999
sVz
F3.8146972699999997e-06
ssg203
(dp5467
Vy
F-3.3341400000000001
sVx
F1.4078084200000001
sVz
F3.784895e-06
ssg205
I00
sg206
(dp5468
g50
VnV RayneHCS
p5469
sg52
Nssg209
(lp5470
sg211
(lp5471
(dp5472
g50
VRNG Ninja HCS
p5473
sg52
Nsasg213
I00
sg44
VPT5M50.4312143S
p5474
sg41
VDeath
p5475
sg216
I1
sa(dp5476
g41
VMedal
p5477
sg48
(dp5478
g50
VRNG Penguin HCS
p5479
sg52
Nssg227
I2078758684
sg44
VPT5M50.4322137S
p5480
sa(dp5481
g47
I313138863
sg41
VWeaponDrop
p5482
sg236
I14
sg53
(lp5483
I1095363701
asg44
VPT5M50.4322137S
p5484
sg239
I7
sg240
VP0DT0H0M4.9833S
p5485
sg48
(dp5486
g50
VnV RayneHCS
p5487
sg52
Nssa(dp5488
g47
I4096745987
sg41
VWeaponDrop
p5489
sg236
I0
sg53
(lp5490
I2758383128
asg44
VPT5M50.4322137S
p5491
sg239
I0
sg240
VP0DT0H0M3.7167S
p5492
sg48
(dp5493
g50
VnV RayneHCS
p5494
sg52
Nssa(dp5495
g47
I313138863
sg48
(dp5496
g50
VnV Mikwen HCS
p5497
sg52
Nssg53
(lp5498
I1095363701
asg41
VWeaponPickup
p5499
sg44
VPT5M52.5312917S
p5500
sa(dp5501
g47
I4096745987
sg48
(dp5502
g50
VnV Mikwen HCS
p5503
sg52
Nssg53
(lp5504
I2758383128
asg41
VWeaponPickup
p5505
sg44
VPT5M52.5312917S
p5506
sa(dp5507
g41
VPlayerSpawn
p5508
sg48
(dp5509
g50
VnV Mikwen HCS
p5510
sg52
Nssg44
VPT5M52.5312917S
p5511
sa(dp5512
g47
I313138863
sg48
(dp5513
g50
VRNG Victory X
p5514
sg52
Nssg53
(lp5515
I1095363701
asg41
VWeaponPickup
p5516
sg44
VPT5M53.6473172S
p5517
sa(dp5518
g47
I4096745987
sg48
(dp5519
g50
VRNG Victory X
p5520
sg52
Nssg53
(lp5521
I2758383128
asg41
VWeaponPickup
p5522
sg44
VPT5M53.6483177S
p5523
sa(dp5524
g41
VPlayerSpawn
p5525
sg48
(dp5526
g50
VRNG Victory X
p5527
sg52
Nssg44
VPT5M53.6483177S
p5528
sa(dp5529
g47
I313138863
sg48
(dp5530
g50
VnV eL ToWn
p5531
sg52
Nssg53
(lp5532
I1095363701
asg41
VWeaponPickup
p5533
sg44
VPT5M54.3313404S
p5534
sa(dp5535
g47
I4096745987
sg48
(dp5536
g50
VnV eL ToWn
p5537
sg52
Nssg53
(lp5538
I2758383128
asg41
VWeaponPickup
p5539
sg44
VPT5M54.3313404S
p5540
sa(dp5541
g41
VPlayerSpawn
p5542
sg48
(dp5543
g50
VnV eL ToWn
p5544
sg52
Nssg44
VPT5M54.3313404S
p5545
sa(dp5546
g47
I313138863
sg48
(dp5547
g50
VRNG Ninja HCS
p5548
sg52
Nssg53
(lp5549
I1095363701
asg41
VWeaponPickup
p5550
sg44
VPT5M55.3473715S
p5551
sa(dp5552
g47
I4096745987
sg48
(dp5553
g50
VRNG Ninja HCS
p5554
sg52
Nssg53
(lp5555
I2758383128
asg41
VWeaponPickup
p5556
sg44
VPT5M55.348372S
p5557
sa(dp5558
g41
VPlayerSpawn
p5559
sg48
(dp5560
g50
VRNG Ninja HCS
p5561
sg52
Nssg44
VPT5M55.348372S
p5562
sa(dp5563
g41
VRoundEnd
p5564
sg43
I0
sg44
VPT5M56.5134089S
p5565
sassba.