(dp1
S'cbcea2c0-f206-11e4-8c4a-24be05e24f7e'
p2
cnumpy.core.multiarray
scalar
p3
(cnumpy
dtype
p4
(S'S7'
I0
I1
tRp5
(I3
S'|'
NNNI7
I1
I0
tbS'Riptide'
tRp6
sS'cc040aa1-f206-11e4-a3e0-24be05e24f7e'
p7
g3
(g4
(S'S6'
I0
I1
tRp8
(I3
S'|'
NNNI6
I1
I0
tbS'Fathom'
tRp9
sS'c7805740-f206-11e4-982c-24be05e24f7e'
p10
g3
(g4
(S'S7'
I0
I1
tRp11
(I3
S'|'
NNNI7
I1
I0
tbS'Glacier'
tRp12
sS'ca737f8f-f206-11e4-a7e2-24be05e24f7e'
p13
g3
(g4
(S'S10'
I0
I1
tRp14
(I3
S'|'
NNNI10
I1
I0
tbS'Overgrowth'
tRp15
sS'cebd854f-f206-11e4-b46e-24be05e24f7e'
p16
g3
(g4
(S'S8'
I0
I1
tRp17
(I3
S'|'
NNNI8
I1
I0
tbS'Coliseum'
tRp18
sS'cc3ca6d1-f206-11e4-87c3-24be05e24f7e'
p19
g3
(g4
(S'S6'
I0
I1
tRp20
(I3
S'|'
NNNI6
I1
I0
tbS'Stasis'
tRp21
sS'cdee4e70-f206-11e4-87a2-24be05e24f7e'
p22
g3
(g4
(S'S6'
I0
I1
tRp23
(I3
S'|'
NNNI6
I1
I0
tbS'Regret'
tRp24
sS'c74c9d0f-f206-11e4-8330-24be05e24f7e'
p25
g3
(g4
(S'S6'
I0
I1
tRp26
(I3
S'|'
NNNI6
I1
I0
tbS'Alpine'
tRp27
sS'ce89a40f-f206-11e4-b83f-24be05e24f7e'
p28
g3
(g4
(S'S6'
I0
I1
tRp29
(I3
S'|'
NNNI6
I1
I0
tbS'Tyrant'
tRp30
sS'cdb934b0-f206-11e4-8810-24be05e24f7e'
p31
g3
(g4
(S'S6'
I0
I1
tRp32
(I3
S'|'
NNNI6
I1
I0
tbS'Empire'
tRp33
sS'cb914b9e-f206-11e4-b447-24be05e24f7e'
p34
g3
(g4
(S'S3'
I0
I1
tRp35
(I3
S'|'
NNNI3
I1
I0
tbS'Rig'
tRp36
sS'caacb800-f206-11e4-81ab-24be05e24f7e'
p37
g3
(g4
(S'S5'
I0
I1
tRp38
(I3
S'|'
NNNI5
I1
I0
tbS'Plaza'
tRp39
sS'cd844200-f206-11e4-9393-24be05e24f7e'
p40
g3
(g4
(S'S4'
I0
I1
tRp41
(I3
S'|'
NNNI4
I1
I0
tbS'Eden'
tRp42
sS'cae999f0-f206-11e4-9835-24be05e24f7e'
p43
g3
(g4
(S'S5'
I0
I1
tRp44
(I3
S'|'
NNNI5
I1
I0
tbS'Array'
tRp45
sS'ce1dc2de-f206-11e4-a646-24be05e24f7e'
p46
g3
(g4
(S'S5'
I0
I1
tRp47
(I3
S'|'
NNNI5
I1
I0
tbS'Truth'
tRp48
sS'c7b7baf0-f206-11e4-ae9a-24be05e24f7e'
p49
g3
(g4
(S'S8'
I0
I1
tRp50
(I3
S'|'
NNNI8
I1
I0
tbS'Parallax'
tRp51
sS'cc74f4e1-f206-11e4-ad66-24be05e24f7e'
p52
g3
(g4
(S'S6'
I0
I1
tRp53
(I3
S'|'
NNNI6
I1
I0
tbS'Torque'
tRp54
s.