(lp1
cnumpy.core.multiarray
_reconstruct
p2
(cnumpy
ndarray
p3
(I0
tS'b'
tRp4
(I1
(I4
tcnumpy
dtype
p5
(S'U36'
I0
I1
tRp6
(I3
S'<'
NNNI144
I4
I8
tbI00
S'2\x00\x00\x000\x00\x00\x001\x00\x00\x006\x00\x00\x00-\x00\x00\x000\x00\x00\x006\x00\x00\x00-\x00\x00\x001\x00\x00\x008\x00\x00\x00\x00\x00\x00\x00\x00\x00\x00\x00\x00\x00\x00\x00\x00\x00\x00\x00\x00\x00\x00\x00\x00\x00\x00\x00\x00\x00\x00\x00\x00\x00\x00\x00\x00\x00\x00\x00\x00\x00\x00\x00\x00\x00\x00\x00\x00\x00\x00\x00\x00\x00\x00\x00\x00\x00\x00\x00\x00\x00\x00\x00\x00\x00\x00\x00\x00\x00\x00\x00\x00\x00\x00\x00\x00\x00\x00\x00\x00\x00\x00\x00\x00\x00\x00\x00\x00\x00\x00\x00\x00\x00\x00\x00\x00\x00\x00\x00\x00\x00\x00\x00\x00\x00\x00\x00P\x00\x00\x00l\x00\x00\x00a\x00\x00\x00z\x00\x00\x00a\x00\x00\x00\x00\x00\x00\x00\x00\x00\x00\x00\x00\x00\x00\x00\x00\x00\x00\x00\x00\x00\x00\x00\x00\x00\x00\x00\x00\x00\x00\x00\x00\x00\x00\x00\x00\x00\x00\x00\x00\x00\x00\x00\x00\x00\x00\x00\x00\x00\x00\x00\x00\x00\x00\x00\x00\x00\x00\x00\x00\x00\x00\x00\x00\x00\x00\x00\x00\x00\x00\x00\x00\x00\x00\x00\x00\x00\x00\x00\x00\x00\x00\x00\x00\x00\x00\x00\x00\x00\x00\x00\x00\x00\x00\x00\x00\x00\x00\x00\x00\x00\x00\x00\x00\x00\x00\x00\x00\x00\x00\x00\x00\x00\x00\x00\x00\x00\x00\x00\x00\x00\x00\x00\x00\x00\x00\x00S\x00\x00\x00l\x00\x00\x00a\x00\x00\x00y\x00\x00\x00e\x00\x00\x00r\x00\x00\x00\x00\x00\x00\x00\x00\x00\x00\x00\x00\x00\x00\x00\x00\x00\x00\x00\x00\x00\x00\x00\x00\x00\x00\x00\x00\x00\x00\x00\x00\x00\x00\x00\x00\x00\x00\x00\x00\x00\x00\x00\x00\x00\x00\x00\x00\x00\x00\x00\x00\x00\x00\x00\x00\x00\x00\x00\x00\x00\x00\x00\x00\x00\x00\x00\x00\x00\x00\x00\x00\x00\x00\x00\x00\x00\x00\x00\x00\x00\x00\x00\x00\x00\x00\x00\x00\x00\x00\x00\x00\x00\x00\x00\x00\x00\x00\x00\x00\x00\x00\x00\x00\x00\x00\x00\x00\x00\x00\x00\x00\x00\x00\x00\x00\x00\x00\x00\x00\x00\x00\x005\x00\x00\x001\x00\x00\x00a\x00\x00\x000\x00\x00\x005\x00\x00\x00b\x00\x00\x00b\x00\x00\x00b\x00\x00\x00-\x00\x00\x008\x00\x00\x00b\x00\x00\x002\x00\x00\x00f\x00\x00\x00-\x00\x00\x004\x00\x00\x00f\x00\x00\x006\x00\x00\x004\x00\x00\x00-\x00\x00\x00a\x00\x00\x007\x00\x00\x001\x00\x00\x00a\x00\x00\x00-\x00\x00\x000\x00\x00\x005\x00\x00\x00f\x00\x00\x005\x00\x00\x001\x00\x00\x004\x00\x00\x005\x00\x00\x00e\x00\x00\x003\x00\x00\x001\x00\x00\x006\x00\x00\x002\x00\x00\x00'
tba(lp7
S'tl'
p8
aS'e6'
p9
aaccopy_reg
_reconstructor
p10
(c__main__
match_breakdown
p11
c__builtin__
object
p12
NtRp13
(dp14
S'details'
p15
(dp16
VIsCompleteSetOfEvents
p17
I01
sVLinks
p18
(dp19
VUgcFilmManifest
p20
(dp21
VAuthenticationLifetimeExtensionSupported
p22
I00
sVQueryString
p23
V?view=film-manifest
p24
sVRetryPolicyId
p25
Vexponentialretry
p26
sVPath
p27
V/h5/films/51a05bbb-8b2f-4f64-a71a-05f5145e3162
p28
sVAcknowledgementTypeId
p29
I0
sVAuthorityId
p30
Vugc
p31
sVTopicName
p32
V
ssVStatsMatchDetails
p33
(dp34
g22
I00
sg23
Nsg25
Vexponentialretry
p35
sg27
Vh5/custom/matches/51a05bbb-8b2f-4f64-a71a-05f5145e3162
p36
sg29
I0
sg30
Vspartanstats
p37
sg32
V
sssVGameEvents
p38
(lp39
(dp40
VEventName
p41
VRoundStart
p42
sVRoundIndex
p43
I0
sVTimeSinceStart
p44
VPT0.0250259S
p45
sa(dp46
VWeaponStockId
p47
I313138863
sVPlayer
p48
(dp49
VGamertag
p50
VE6 Shooter
p51
sVXuid
p52
NssVWeaponAttachmentIds
p53
(lp54
I1095363701
asg41
VWeaponPickup
p55
sg44
VPT17.7750258S
p56
sa(dp57
g47
I4096745987
sg48
(dp58
g50
VE6 Shooter
p59
sg52
Nssg53
(lp60
I2758383128
asg41
VWeaponPickup
p61
sg44
VPT17.7760462S
p62
sa(dp63
g41
VPlayerSpawn
p64
sg48
(dp65
g50
VE6 Shooter
p66
sg52
Nssg44
VPT17.7760462S
p67
sa(dp68
g47
I313138863
sg48
(dp69
g50
VTL Eco HCS
p70
sg52
Nssg53
(lp71
I1095363701
asg41
VWeaponPickup
p72
sg44
VPT17.7910267S
p73
sa(dp74
g47
I4096745987
sg48
(dp75
g50
VTL Eco HCS
p76
sg52
Nssg53
(lp77
I2758383128
asg41
VWeaponPickup
p78
sg44
VPT17.7920504S
p79
sa(dp80
g41
VPlayerSpawn
p81
sg48
(dp82
g50
VTL Eco HCS
p83
sg52
Nssg44
VPT17.7920504S
p84
sa(dp85
g47
I313138863
sg48
(dp86
g50
VTL Danoxide
p87
sg52
Nssg53
(lp88
I1095363701
asg41
VWeaponPickup
p89
sg44
VPT17.808028S
p90
sa(dp91
g47
I4096745987
sg48
(dp92
g50
VTL Danoxide
p93
sg52
Nssg53
(lp94
I2758383128
asg41
VWeaponPickup
p95
sg44
VPT17.808028S
p96
sa(dp97
g41
VPlayerSpawn
p98
sg48
(dp99
g50
VTL Danoxide
p100
sg52
Nssg44
VPT17.808028S
p101
sa(dp102
g47
I313138863
sg48
(dp103
g50
VE6 bubu dubu
p104
sg52
Nssg53
(lp105
I1095363701
asg41
VWeaponPickup
p106
sg44
VPT17.8250296S
p107
sa(dp108
g47
I4096745987
sg48
(dp109
g50
VE6 bubu dubu
p110
sg52
Nssg53
(lp111
I2758383128
asg41
VWeaponPickup
p112
sg44
VPT17.8250296S
p113
sa(dp114
g41
VPlayerSpawn
p115
sg48
(dp116
g50
VE6 bubu dubu
p117
sg52
Nssg44
VPT17.8250296S
p118
sa(dp119
g47
I313138863
sg48
(dp120
g50
VTL Spartan HCS
p121
sg52
Nssg53
(lp122
I1095363701
asg41
VWeaponPickup
p123
sg44
VPT17.8410297S
p124
sa(dp125
g47
I4096745987
sg48
(dp126
g50
VTL Spartan HCS
p127
sg52
Nssg53
(lp128
I2758383128
asg41
VWeaponPickup
p129
sg44
VPT17.8420532S
p130
sa(dp131
g41
VPlayerSpawn
p132
sg48
(dp133
g50
VTL Spartan HCS
p134
sg52
Nssg44
VPT17.8420532S
p135
sa(dp136
g47
I313138863
sg48
(dp137
g50
VTL StelluR
p138
sg52
Nssg53
(lp139
I1095363701
asg41
VWeaponPickup
p140
sg44
VPT17.858031S
p141
sa(dp142
g47
I4096745987
sg48
(dp143
g50
VTL StelluR
p144
sg52
Nssg53
(lp145
I2758383128
asg41
VWeaponPickup
p146
sg44
VPT17.858031S
p147
sa(dp148
g41
VPlayerSpawn
p149
sg48
(dp150
g50
VTL StelluR
p151
sg52
Nssg44
VPT17.858031S
p152
sa(dp153
g47
I313138863
sg48
(dp154
g50
VE6 Huke HCS
p155
sg52
Nssg53
(lp156
I1095363701
asg41
VWeaponPickup
p157
sg44
VPT17.8750514S
p158
sa(dp159
g47
I4096745987
sg48
(dp160
g50
VE6 Huke HCS
p161
sg52
Nssg53
(lp162
I2758383128
asg41
VWeaponPickup
p163
sg44
VPT17.8750514S
p164
sa(dp165
g41
VPlayerSpawn
p166
sg48
(dp167
g50
VE6 Huke HCS
p168
sg52
Nssg44
VPT17.8750514S
p169
sa(dp170
g47
I313138863
sg48
(dp171
g50
VE6 Cratos HCS
p172
sg52
Nssg53
(lp173
I1095363701
asg41
VWeaponPickup
p174
sg44
VPT17.8910319S
p175
sa(dp176
g47
I4096745987
sg48
(dp177
g50
VE6 Cratos HCS
p178
sg52
Nssg53
(lp179
I2758383128
asg41
VWeaponPickup
p180
sg44
VPT17.8920552S
p181
sa(dp182
g41
VPlayerSpawn
p183
sg48
(dp184
g50
VE6 Cratos HCS
p185
sg52
Nssg44
VPT17.8920552S
p186
sa(dp187
g47
I313138863
sg41
VWeaponDrop
p188
sVShotsFired
p189
I0
sg53
(lp190
I1095363701
asg44
VPT20.5402044S
p191
sVShotsLanded
p192
I0
sVTimeWeaponActiveAsPrimary
p193
VP0DT0H0M1.0000S
p194
sg48
(dp195
g50
VTL Danoxide
p196
sg52
Nssa(dp197
g47
I723388907
sg48
(dp198
g50
VTL Danoxide
p199
sg52
Nssg53
(lp200
I89283061
asg41
VWeaponPickup
p201
sg44
VPT20.5402044S
p202
sa(dp203
g47
I4096745987
sg41
VWeaponDrop
p204
sg189
I0
sg53
(lp205
I2758383128
asg44
VPT21.023239S
p206
sg192
I0
sg193
VP0DT0H0M1.8833S
p207
sg48
(dp208
g50
VTL StelluR
p209
sg52
Nssa(dp210
g47
I424645655
sg48
(dp211
g50
VTL StelluR
p212
sg52
Nssg53
(lp213
I1327094800
asg41
VWeaponPickup
p214
sg44
VPT21.023239S
p215
sa(dp216
g47
I4096745987
sg41
VWeaponDrop
p217
sg189
I0
sg53
(lp218
I2758383128
asg44
VPT21.2562271S
p219
sg192
I0
sg193
VP0DT0H0M2.6333S
p220
sg48
(dp221
g50
VE6 Cratos HCS
p222
sg52
Nssa(dp223
g47
I424645655
sg48
(dp224
g50
VE6 Cratos HCS
p225
sg52
Nssg53
(lp226
I1327094800
asg41
VWeaponPickup
p227
sg44
VPT21.2572268S
p228
sa(dp229
VKillerWeaponStockId
p230
I4096745987
sVIsAssassination
p231
I00
sVIsMelee
p232
I00
sVKiller
p233
(dp234
g50
VTL Spartan HCS
p235
sg52
NssVKillerWeaponAttachmentIds
p236
(lp237
I2758383128
asVIsGroundPound
p238
I00
sVIsWeapon
p239
I01
sVDeathDisposition
p240
I1
sVVictimStockId
p241
I0
sVVictimAgent
p242
I1
sVKillerWorldLocation
p243
(dp244
Vy
F8.36646
sVx
F4.6034620000000004
sVz
F1.37751055
ssVVictimWorldLocation
p245
(dp246
Vy
F-3.4485051599999998
sVx
F2.97225428
sVz
F0.80879880000000004
ssVIsShoulderBash
p247
I00
sVVictim
p248
(dp249
g50
VE6 bubu dubu
p250
sg52
NssVVictimAttachmentIds
p251
(lp252
sVAssistants
p253
(lp254
(dp255
g50
VTL Eco HCS
p256
sg52
NsasVIsHeadshot
p257
I01
sg44
VPT26.060505S
p258
sg41
VDeath
p259
sVKillerAgent
p260
I1
sa(dp261
g41
VMedal
p262
sg48
(dp263
g50
VTL Spartan HCS
p264
sg52
NssVMedalId
p265
I2838259753
sg44
VPT26.0615045S
p266
sa(dp267
g41
VImpulse
p268
sg48
(dp269
g50
VTL Spartan HCS
p270
sg52
NssVImpulseId
p271
I2556889090
sg44
VPT26.0615045S
p272
sa(dp273
g41
VMedal
p274
sg48
(dp275
g50
VTL Spartan HCS
p276
sg52
Nssg265
I3261908037
sg44
VPT26.0655275S
p277
sa(dp278
g41
VMedal
p279
sg48
(dp280
g50
VTL Spartan HCS
p281
sg52
Nssg265
I3001183151
sg44
VPT26.0655275S
p282
sa(dp283
g47
I313138863
sg41
VWeaponDrop
p284
sg189
I0
sg53
(lp285
I1095363701
asg44
VPT26.0945287S
p286
sg192
I0
sg193
VP0DT0H0M1.2000S
p287
sg48
(dp288
g50
VE6 bubu dubu
p289
sg52
Nssa(dp290
g47
I4096745987
sg41
VWeaponDrop
p291
sg189
I6
sg53
(lp292
I2758383128
asg44
VPT26.0945287S
p293
sg192
I3
sg193
VP0DT0H0M7.0333S
p294
sg48
(dp295
g50
VE6 bubu dubu
p296
sg52
Nssa(dp297
g47
I2492868984
sg48
(dp298
g50
VE6 Huke HCS
p299
sg52
Nssg53
(lp300
I2758383128
asg41
VWeaponPickup
p301
sg44
VPT27.2085697S
p302
sa(dp303
g47
I2492868984
sg41
VWeaponDrop
p304
sg189
I0
sg53
(lp305
I2758383128
asg44
VPT28.3576353S
p306
sg192
I0
sg193
VP0DT0H0M1.0000S
p307
sg48
(dp308
g50
VE6 Huke HCS
p309
sg52
Nssa(dp310
g230
I424645655
sg231
I00
sg232
I00
sg233
(dp311
g50
VTL StelluR
p312
sg52
Nssg236
(lp313
I1327094800
asg238
I00
sg239
I01
sg240
I1
sg241
I0
sg242
I1
sg243
(dp314
Vy
F-8.1209930000000004
sVx
F4.7837786700000002
sVz
F3.201133
ssg245
(dp315
Vy
F-10.442019999999999
sVx
F5.2160979999999997
sVz
F3.59193468
ssg247
I00
sg248
(dp316
g50
VE6 Shooter
p317
sg52
Nssg251
(lp318
sg253
(lp319
sg257
I00
sg44
VPT28.8906662S
p320
sg41
VDeath
p321
sg260
I1
sa(dp322
g47
I313138863
sg41
VWeaponDrop
p323
sg189
I0
sg53
(lp324
I1095363701
asg44
VPT28.892689S
p325
sg192
I0
sg193
VP0DT0H0M0.5667S
p326
sg48
(dp327
g50
VE6 Shooter
p328
sg52
Nssa(dp329
g47
I4096745987
sg41
VWeaponDrop
p330
sg189
I5
sg53
(lp331
I2758383128
asg44
VPT28.892689S
p332
sg192
I0
sg193
VP0DT0H0M10.5500S
p333
sg48
(dp334
g50
VE6 Shooter
p335
sg52
Nssa(dp336
g230
I4096745987
sg231
I00
sg232
I00
sg233
(dp337
g50
VE6 Huke HCS
p338
sg52
Nssg236
(lp339
I2758383128
asg238
I00
sg239
I01
sg240
I1
sg241
I0
sg242
I1
sg243
(dp340
Vy
F3.2735683899999999
sVx
F9.3595439999999996
sVz
F2.1562955399999999
ssg245
(dp341
Vy
F5.9867699999999999
sVx
F10.1154642
sVz
F0.90753996400000003
ssg247
I00
sg248
(dp342
g50
VTL Eco HCS
p343
sg52
Nssg251
(lp344
sg253
(lp345
(dp346
g50
VE6 bubu dubu
p347
sg52
Nsa(dp348
g50
VE6 Shooter
p349
sg52
Nsasg257
I00
sg44
VPT29.6077331S
p350
sg41
VDeath
p351
sg260
I1
sa(dp352
g47
I313138863
sg41
VWeaponDrop
p353
sg189
I0
sg53
(lp354
I1095363701
asg44
VPT29.6097283S
p355
sg192
I0
sg193
VP0DT0H0M4.3167S
p356
sg48
(dp357
g50
VTL Eco HCS
p358
sg52
Nssa(dp359
g47
I4096745987
sg41
VWeaponDrop
p360
sg189
I9
sg53
(lp361
I2758383128
asg44
VPT29.6097283S
p362
sg192
I7
sg193
VP0DT0H0M7.5000S
p363
sg48
(dp364
g50
VTL Eco HCS
p365
sg52
Nssa(dp366
g47
I313138863
sg41
VWeaponDrop
p367
sg189
I0
sg53
(lp368
I1095363701
asg44
VPT30.3567684S
p369
sg192
I0
sg193
VP0DT0H0M1.9833S
p370
sg48
(dp371
g50
VE6 Cratos HCS
p372
sg52
Nssa(dp373
g47
I669296699
sg48
(dp374
g50
VE6 Cratos HCS
p375
sg52
Nssg53
(lp376
I2758383128
asg41
VWeaponPickupPad
p377
sg44
VPT30.3567684S
p378
sa(dp379
g47
I669296699
sg48
(dp380
g50
VE6 Cratos HCS
p381
sg52
Nssg53
(lp382
I2758383128
asg41
VWeaponPickup
p383
sg44
VPT30.3587525S
p384
sa(dp385
g47
I313138863
sg48
(dp386
g50
VE6 bubu dubu
p387
sg52
Nssg53
(lp388
I1095363701
asg41
VWeaponPickup
p389
sg44
VPT34.0749652S
p390
sa(dp391
g47
I4096745987
sg48
(dp392
g50
VE6 bubu dubu
p393
sg52
Nssg53
(lp394
I2758383128
asg41
VWeaponPickup
p395
sg44
VPT34.0749652S
p396
sa(dp397
g41
VPlayerSpawn
p398
sg48
(dp399
g50
VE6 bubu dubu
p400
sg52
Nssg44
VPT34.0749652S
p401
sa(dp402
g47
I313138863
sg41
VWeaponDrop
p403
sg189
I0
sg53
(lp404
I1095363701
asg44
VPT34.7900278S
p405
sg192
I0
sg193
VP0DT0H0M1.5167S
p406
sg48
(dp407
g50
VE6 Huke HCS
p408
sg52
Nssa(dp409
g47
I2133511419
sg48
(dp410
g50
VE6 Huke HCS
p411
sg52
Nssg53
(lp412
I2758383128
asg41
VWeaponPickup
p413
sg44
VPT34.7910063S
p414
sa(dp415
g47
I4096745987
sg41
VWeaponDrop
p416
sg189
I2
sg53
(lp417
I2758383128
asg44
VPT36.5901319S
p418
sg192
I0
sg193
VP0DT0H0M13.9833S
p419
sg48
(dp420
g50
VTL Danoxide
p421
sg52
Nssa(dp422
g47
I2511447508
sg48
(dp423
g50
VTL Danoxide
p424
sg52
Nssg53
(lp425
I2758383128
asg41
VWeaponPickup
p426
sg44
VPT36.5901319S
p427
sa(dp428
g47
I313138863
sg48
(dp429
g50
VE6 Shooter
p430
sg52
Nssg53
(lp431
I1095363701
asg41
VWeaponPickup
p432
sg44
VPT36.9081283S
p433
sa(dp434
g47
I4096745987
sg48
(dp435
g50
VE6 Shooter
p436
sg52
Nssg53
(lp437
I2758383128
asg41
VWeaponPickup
p438
sg44
VPT36.9091283S
p439
sa(dp440
g41
VPlayerSpawn
p441
sg48
(dp442
g50
VE6 Shooter
p443
sg52
Nssg44
VPT36.9091283S
p444
sa(dp445
g47
I313138863
sg48
(dp446
g50
VTL Eco HCS
p447
sg52
Nssg53
(lp448
I1095363701
asg41
VWeaponPickup
p449
sg44
VPT37.6251906S
p450
sa(dp451
g47
I4096745987
sg48
(dp452
g50
VTL Eco HCS
p453
sg52
Nssg53
(lp454
I2758383128
asg41
VWeaponPickup
p455
sg44
VPT37.6251906S
p456
sa(dp457
g41
VPlayerSpawn
p458
sg48
(dp459
g50
VTL Eco HCS
p460
sg52
Nssg44
VPT37.6261704S
p461
sa(dp462
g230
I4096745987
sg231
I00
sg232
I00
sg233
(dp463
g50
VE6 Huke HCS
p464
sg52
Nssg236
(lp465
I2758383128
asg238
I00
sg239
I00
sg240
I2
sg241
I0
sg242
I0
sg243
(dp466
Vy
F-3.1280399999999999
sVx
F23.168026000000001
sVz
F0.18568944900000001
ssg245
(dp467
Vy
F-4.2828470000000003
sVx
F21.1420174
sVz
F1.20812583
ssg247
I00
sg248
(dp468
S'Gamertag'
p469
S'None'
p470
ssg251
(lp471
sg253
(lp472
sg257
I00
sg44
VPT41.6744283S
p473
sg41
VDeath
p474
sg260
I1
sa(dp475
g47
I313138863
sg41
VWeaponDrop
p476
sg189
I0
sg53
(lp477
I1095363701
asg44
VPT42.4574477S
p478
sg192
I0
sg193
VP0DT0H0M0.8667S
p479
sg48
(dp480
g50
VTL Eco HCS
p481
sg52
Nssa(dp482
g47
I1579758889
sg48
(dp483
g50
VTL Eco HCS
p484
sg52
Nssg53
(lp485
I2758383128
asg41
VWeaponPickup
p486
sg44
VPT42.4574477S
p487
sa(dp488
g230
I4096745987
sg231
I00
sg232
I01
sg233
(dp489
g50
VE6 Huke HCS
p490
sg52
Nssg236
(lp491
I2758383128
asg238
I00
sg239
I00
sg240
I1
sg241
I0
sg242
I1
sg243
(dp492
Vy
F-4.8734760000000001
sVx
F20.913309999999999
sVz
F0.75239867000000005
ssg245
(dp493
Vy
F-4.5588874800000001
sVx
F20.507371899999999
sVz
F1.34642982
ssg247
I00
sg248
(dp494
g50
VTL StelluR
p495
sg52
Nssg251
(lp496
sg253
(lp497
(dp498
g50
VE6 Shooter
p499
sg52
Nsa(dp500
g50
VE6 Cratos HCS
p501
sg52
Nsasg257
I00
sg44
VPT43.4085035S
p502
sg41
VDeath
p503
sg260
I1
sa(dp504
g41
VMedal
p505
sg48
(dp506
g50
VE6 Huke HCS
p507
sg52
Nssg265
I2287626681
sg44
VPT43.4095222S
p508
sa(dp509
g47
I424645655
sg41
VWeaponDrop
p510
sg189
I24
sg53
(lp511
I1327094800
asg44
VPT43.4105203S
p512
sg192
I12
sg193
VP0DT0H0M22.3833S
p513
sg48
(dp514
g50
VTL StelluR
p515
sg52
Nssa(dp516
g47
I313138863
sg41
VWeaponDrop
p517
sg189
I0
sg53
(lp518
I1095363701
asg44
VPT43.4105203S
p519
sg192
I0
sg193
VP0DT0H0M1.2833S
p520
sg48
(dp521
g50
VTL StelluR
p522
sg52
Nssa(dp523
g41
VMedal
p524
sg48
(dp525
g50
VE6 Huke HCS
p526
sg52
Nssg265
I3400287617
sg44
VPT48.4247906S
p527
sa(dp528
g47
I313138863
sg48
(dp529
g50
VTL StelluR
p530
sg52
Nssg53
(lp531
I1095363701
asg41
VWeaponPickup
p532
sg44
VPT51.4259821S
p533
sa(dp534
g47
I4096745987
sg48
(dp535
g50
VTL StelluR
p536
sg52
Nssg53
(lp537
I2758383128
asg41
VWeaponPickup
p538
sg44
VPT51.4259821S
p539
sa(dp540
g41
VPlayerSpawn
p541
sg48
(dp542
g50
VTL StelluR
p543
sg52
Nssg44
VPT51.4259821S
p544
sa(dp545
g47
I4096745987
sg41
VWeaponDrop
p546
sg189
I5
sg53
(lp547
I2758383128
asg44
VPT52.0910029S
p548
sg192
I2
sg193
VP0DT0H0M17.0500S
p549
sg48
(dp550
g50
VE6 bubu dubu
p551
sg52
Nssa(dp552
g47
I424645655
sg48
(dp553
g50
VE6 bubu dubu
p554
sg52
Nssg53
(lp555
I1327094800
asg41
VWeaponPickup
p556
sg44
VPT52.0910029S
p557
sa(dp558
g230
I723388907
sg231
I00
sg232
I00
sg233
(dp559
g50
VTL Danoxide
p560
sg52
Nssg236
(lp561
I89283061
asg238
I00
sg239
I01
sg240
I1
sg241
I0
sg242
I1
sg243
(dp562
Vy
F3.8838240000000002
sVx
F15.4288864
sVz
F-0.0059000550000000004
ssg245
(dp563
Vy
F1.1241298900000001
sVx
F16.756080000000001
sVz
F0.47214800000000001
ssg247
I00
sg248
(dp564
g50
VE6 Shooter
p565
sg52
Nssg251
(lp566
sg253
(lp567
sg257
I00
sg44
VPT54.5251419S
p568
sg41
VDeath
p569
sg260
I1
sa(dp570
g41
VMedal
p571
sg48
(dp572
g50
VTL Danoxide
p573
sg52
Nssg265
I2838259753
sg44
VPT54.5251419S
p574
sa(dp575
g41
VImpulse
p576
sg48
(dp577
g50
VTL Danoxide
p578
sg52
Nssg271
I2556889090
sg44
VPT54.5261613S
p579
sa(dp580
g47
I313138863
sg41
VWeaponDrop
p581
sg189
I0
sg53
(lp582
I1095363701
asg44
VPT54.5271506S
p583
sg192
I0
sg193
VP0DT0H0M0.5500S
p584
sg48
(dp585
g50
VE6 Shooter
p586
sg52
Nssa(dp587
g47
I4096745987
sg41
VWeaponDrop
p588
sg189
I7
sg53
(lp589
I2758383128
asg44
VPT54.5271506S
p590
sg192
I4
sg193
VP0DT0H0M17.0667S
p591
sg48
(dp592
g50
VE6 Shooter
p593
sg52
Nssa(dp594
g230
I2133511419
sg231
I00
sg232
I00
sg233
(dp595
g50
VE6 Huke HCS
p596
sg52
Nssg236
(lp597
I2758383128
asg238
I00
sg239
I01
sg240
I1
sg241
I0
sg242
I1
sg243
(dp598
Vy
F-5.4124559999999997
sVx
F8.2239039999999992
sVz
F0.79997419999999997
ssg245
(dp599
Vy
F-4.5385359999999997
sVx
F3.89857626
sVz
F1.6964914799999999
ssg247
I00
sg248
(dp600
g50
VTL Eco HCS
p601
sg52
Nssg251
(lp602
sg253
(lp603
(dp604
g50
VE6 bubu dubu
p605
sg52
Nsa(dp606
g50
VE6 Shooter
p607
sg52
Nsasg257
I00
sg44
VPT55.0921762S
p608
sg41
VDeath
p609
sg260
I1
sa(dp610
g47
I1579758889
sg41
VWeaponDrop
p611
sg189
I1
sg53
(lp612
I2758383128
asg44
VPT55.0931779S
p613
sg192
I0
sg193
VP0DT0H0M2.7500S
p614
sg48
(dp615
g50
VTL Eco HCS
p616
sg52
Nssa(dp617
g47
I4096745987
sg41
VWeaponDrop
p618
sg189
I4
sg53
(lp619
I2758383128
asg44
VPT55.0931779S
p620
sg192
I1
sg193
VP0DT0H0M13.8500S
p621
sg48
(dp622
g50
VTL Eco HCS
p623
sg52
Nssa(dp624
g230
I2133511419
sg231
I00
sg232
I00
sg233
(dp625
g50
VE6 Huke HCS
p626
sg52
Nssg236
(lp627
I2758383128
asg238
I00
sg239
I01
sg240
I1
sg241
I0
sg242
I1
sg243
(dp628
Vy
F-5.2760610000000003
sVx
F4.7525130000000004
sVz
F1.0837259299999999
ssg245
(dp629
Vy
F-5.3660054199999996
sVx
F6.3417029999999999
sVz
F0.79997669999999999
ssg247
I00
sg248
(dp630
g50
VTL Spartan HCS
p631
sg52
Nssg251
(lp632
sg253
(lp633
(dp634
g50
VE6 Shooter
p635
sg52
Nsa(dp636
g50
VE6 bubu dubu
p637
sg52
Nsasg257
I00
sg44
VPT57.3423047S
p638
sg41
VDeath
p639
sg260
I1
sa(dp640
g41
VMedal
p641
sg48
(dp642
g50
VE6 Huke HCS
p643
sg52
Nssg265
I2078758684
sg44
VPT57.3443242S
p644
sa(dp645
g47
I313138863
sg41
VWeaponDrop
p646
sg189
I0
sg53
(lp647
I1095363701
asg44
VPT57.3443242S
p648
sg192
I0
sg193
VP0DT0H0M18.4167S
p649
sg48
(dp650
g50
VTL Spartan HCS
p651
sg52
Nssa(dp652
g47
I4096745987
sg41
VWeaponDrop
p653
sg189
I4
sg53
(lp654
I2758383128
asg44
VPT57.3443242S
p655
sg192
I3
sg193
VP0DT0H0M21.0833S
p656
sg48
(dp657
g50
VTL Spartan HCS
p658
sg52
Nssa(dp659
g230
I4096745987
sg231
I00
sg232
I00
sg233
(dp660
g50
VTL StelluR
p661
sg52
Nssg236
(lp662
I2758383128
asg238
I00
sg239
I01
sg240
I1
sg241
I0
sg242
I1
sg243
(dp663
Vy
F2.0885212399999999
sVx
F2.1902816299999999
sVz
F0.83597089999999996
ssg245
(dp664
Vy
F-4.5441584600000002
sVx
F2.1478204700000001
sVz
F1.6082313100000001
ssg247
I00
sg248
(dp665
g50
VE6 Huke HCS
p666
sg52
Nssg251
(lp667
sg253
(lp668
(dp669
g50
VTL Eco HCS
p670
sg52
Nsasg257
I01
sg44
VPT59.3414198S
p671
sg41
VDeath
p672
sg260
I1
sa(dp673
g41
VMedal
p674
sg48
(dp675
g50
VTL StelluR
p676
sg52
Nssg265
I3261908037
sg44
VPT59.3424384S
p677
sa(dp678
g47
I2133511419
sg41
VWeaponDrop
p679
sg189
I23
sg53
(lp680
I2758383128
asg44
VPT59.3434433S
p681
sg192
I10
sg193
VP0DT0H0M10.4167S
p682
sg48
(dp683
g50
VE6 Huke HCS
p684
sg52
Nssa(dp685
g47
I4096745987
sg41
VWeaponDrop
p686
sg189
I9
sg53
(lp687
I2758383128
asg44
VPT59.3434433S
p688
sg192
I5
sg193
VP0DT0H0M28.5167S
p689
sg48
(dp690
g50
VE6 Huke HCS
p691
sg52
Nssa(dp692
g47
I4096745987
sg41
VWeaponDrop
p693
sg189
I0
sg53
(lp694
I2758383128
asg44
VPT59.3434433S
p695
sg192
I0
sg193
VP0DT0S
p696
sg48
(dp697
g50
VE6 Huke HCS
p698
sg52
Nssa(dp699
g47
I4096745987
sg41
VWeaponDrop
p700
sg189
I0
sg53
(lp701
I2758383128
asg44
VPT59.3434433S
p702
sg192
I0
sg193
VP0DT0S
p703
sg48
(dp704
g50
VE6 Huke HCS
p705
sg52
Nssa(dp706
g47
I313138863
sg48
(dp707
g50
VE6 Shooter
p708
sg52
Nssg53
(lp709
I1095363701
asg41
VWeaponPickup
p710
sg44
VPT1M2.5426053S
p711
sa(dp712
g47
I4096745987
sg48
(dp713
g50
VE6 Shooter
p714
sg52
Nssg53
(lp715
I2758383128
asg41
VWeaponPickup
p716
sg44
VPT1M2.5426053S
p717
sa(dp718
g41
VPlayerSpawn
p719
sg48
(dp720
g50
VE6 Shooter
p721
sg52
Nssg44
VPT1M2.5426053S
p722
sa(dp723
g47
I313138863
sg48
(dp724
g50
VTL Eco HCS
p725
sg52
Nssg53
(lp726
I1095363701
asg41
VWeaponPickup
p727
sg44
VPT1M3.1086377S
p728
sa(dp729
g47
I4096745987
sg48
(dp730
g50
VTL Eco HCS
p731
sg52
Nssg53
(lp732
I2758383128
asg41
VWeaponPickup
p733
sg44
VPT1M3.1086377S
p734
sa(dp735
g41
VPlayerSpawn
p736
sg48
(dp737
g50
VTL Eco HCS
p738
sg52
Nssg44
VPT1M3.1096553S
p739
sa(dp740
g47
I313138863
sg48
(dp741
g50
VTL Spartan HCS
p742
sg52
Nssg53
(lp743
I1095363701
asg41
VWeaponPickup
p744
sg44
VPT1M5.358767S
p745
sa(dp746
g47
I4096745987
sg48
(dp747
g50
VTL Spartan HCS
p748
sg52
Nssg53
(lp749
I2758383128
asg41
VWeaponPickup
p750
sg44
VPT1M5.3597865S
p751
sa(dp752
g41
VPlayerSpawn
p753
sg48
(dp754
g50
VTL Spartan HCS
p755
sg52
Nssg44
VPT1M5.3597865S
p756
sa(dp757
g47
I313138863
sg48
(dp758
g50
VE6 Huke HCS
p759
sg52
Nssg53
(lp760
I1095363701
asg41
VWeaponPickup
p761
sg44
VPT1M7.3588836S
p762
sa(dp763
g47
I4096745987
sg48
(dp764
g50
VE6 Huke HCS
p765
sg52
Nssg53
(lp766
I2758383128
asg41
VWeaponPickup
p767
sg44
VPT1M7.3599069S
p768
sa(dp769
g41
VPlayerSpawn
p770
sg48
(dp771
g50
VE6 Huke HCS
p772
sg52
Nssg44
VPT1M7.3599069S
p773
sa(dp774
g230
I4096745987
sg231
I00
sg232
I00
sg233
(dp775
g50
VTL Eco HCS
p776
sg52
Nssg236
(lp777
I2758383128
asg238
I00
sg239
I00
sg240
I2
sg241
I0
sg242
I0
sg243
(dp778
Vy
F6.2953863099999996
sVx
F-3.3345811400000001
sVz
F4.4418106100000001
ssg245
(dp779
Vy
F3.6524624800000001
sVx
F-2.4600274600000001
sVz
F3.2003424200000001
ssg247
I00
sg248
(dp780
g469
g470
ssg251
(lp781
sg253
(lp782
sg257
I00
sg44
VPT1M8.2749581S
p783
sg41
VDeath
p784
sg260
I1
sa(dp785
g47
I4096745987
sg41
VWeaponDrop
p786
sg189
I0
sg53
(lp787
I2758383128
asg44
VPT1M8.3909641S
p788
sg192
I0
sg193
VP0DT0H0M2.1333S
p789
sg48
(dp790
g50
VTL Spartan HCS
p791
sg52
Nssa(dp792
g47
I424645655
sg48
(dp793
g50
VTL Spartan HCS
p794
sg52
Nssg53
(lp795
I1327094800
asg41
VWeaponPickup
p796
sg44
VPT1M8.3909641S
p797
sa(dp798
g230
I4096745987
sg231
I00
sg232
I00
sg233
(dp799
g50
VTL StelluR
p800
sg52
Nssg236
(lp801
I2758383128
asg238
I00
sg239
I00
sg240
I2
sg241
I0
sg242
I0
sg243
(dp802
Vy
F11.412660000000001
sVx
F11.4687033
sVz
F3.1995623100000001
ssg245
(dp803
Vy
F9.3494270000000004
sVx
F12.289108300000001
sVz
F5.504264
ssg247
I00
sg248
(dp804
g469
g470
ssg251
(lp805
sg253
(lp806
sg257
I00
sg44
VPT1M11.7581353S
p807
sg41
VDeath
p808
sg260
I1
sa(dp809
g47
I313138863
sg41
VWeaponDrop
p810
sg189
I0
sg53
(lp811
I1095363701
asg44
VPT1M18.3575179S
p812
sg192
I0
sg193
VP0DT0H0M2.0667S
p813
sg48
(dp814
g50
VE6 Shooter
p815
sg52
Nssa(dp816
g47
I524558978
sg48
(dp817
g50
VE6 Shooter
p818
sg52
Nssg53
(lp819
I2758383128
asg41
VWeaponPickup
p820
sg44
VPT1M18.3575179S
p821
sa(dp822
g47
I313138863
sg41
VWeaponDrop
p823
sg189
I0
sg53
(lp824
I1095363701
asg44
VPT1M19.0075719S
p825
sg192
I0
sg193
VP0DT0H0M1.5333S
p826
sg48
(dp827
g50
VE6 Huke HCS
p828
sg52
Nssa(dp829
g47
I723388907
sg48
(dp830
g50
VE6 Huke HCS
p831
sg52
Nssg53
(lp832
I89283061
asg41
VWeaponPickup
p833
sg44
VPT1M19.0075719S
p834
sa(dp835
g47
I4096745987
sg41
VWeaponDrop
p836
sg189
I0
sg53
(lp837
I2758383128
asg44
VPT1M44.125019S
p838
sg192
I0
sg193
VP0DT0H0M27.8000S
p839
sg48
(dp840
g50
VE6 Shooter
p841
sg52
Nssa(dp842
g47
I424645655
sg48
(dp843
g50
VE6 Shooter
p844
sg52
Nssg53
(lp845
I1327094800
asg41
VWeaponPickup
p846
sg44
VPT1M44.125019S
p847
sa(dp848
g47
I313138863
sg41
VWeaponDrop
p849
sg189
I0
sg53
(lp850
I1095363701
asg44
VPT1M44.6750507S
p851
sg192
I0
sg193
VP0DT0H0M1.1833S
p852
sg48
(dp853
g50
VE6 bubu dubu
p854
sg52
Nssa(dp855
g47
I723388907
sg48
(dp856
g50
VE6 bubu dubu
p857
sg52
Nssg53
(lp858
I89283061
asg41
VWeaponPickup
p859
sg44
VPT1M44.6750507S
p860
sa(dp861
g230
I424645655
sg231
I00
sg232
I00
sg233
(dp862
g50
VE6 Shooter
p863
sg52
Nssg236
(lp864
I1327094800
asg238
I00
sg239
I01
sg240
I1
sg241
I0
sg242
I1
sg243
(dp865
Vy
F0.243755
sVx
F-10.3760881
sVz
F3.3965879999999999
ssg245
(dp866
Vy
F-1.20157874
sVx
F-4.7746796600000003
sVz
F0.59591340000000004
ssg247
I00
sg248
(dp867
g50
VTL Eco HCS
p868
sg52
Nssg251
(lp869
sg253
(lp870
(dp871
g50
VE6 Huke HCS
p872
sg52
Nsasg257
I00
sg44
VPT1M47.0921714S
p873
sg41
VDeath
p874
sg260
I1
sa(dp875
g47
I313138863
sg41
VWeaponDrop
p876
sg189
I0
sg53
(lp877
I1095363701
asg44
VPT1M47.0951941S
p878
sg192
I0
sg193
VP0DT0H0M16.4000S
p879
sg48
(dp880
g50
VTL Eco HCS
p881
sg52
Nssa(dp882
g47
I4096745987
sg41
VWeaponDrop
p883
sg189
I6
sg53
(lp884
I2758383128
asg44
VPT1M47.0951941S
p885
sg192
I2
sg193
VP0DT0H0M27.5833S
p886
sg48
(dp887
g50
VTL Eco HCS
p888
sg52
Nssa(dp889
g47
I313138863
sg48
(dp890
g50
VTL Eco HCS
p891
sg52
Nssg53
(lp892
I1095363701
asg41
VWeaponPickup
p893
sg44
VPT1M55.1096329S
p894
sa(dp895
g47
I4096745987
sg48
(dp896
g50
VTL Eco HCS
p897
sg52
Nssg53
(lp898
I2758383128
asg41
VWeaponPickup
p899
sg44
VPT1M55.1106542S
p900
sa(dp901
g41
VPlayerSpawn
p902
sg48
(dp903
g50
VTL Eco HCS
p904
sg52
Nssg44
VPT1M55.1106542S
p905
sa(dp906
g230
I723388907
sg231
I00
sg232
I00
sg233
(dp907
g50
VE6 Huke HCS
p908
sg52
Nssg236
(lp909
I89283061
asg238
I00
sg239
I01
sg240
I1
sg241
I0
sg242
I1
sg243
(dp910
Vy
F9.8005669999999991
sVx
F-8.9912130000000001
sVz
F2.8720111799999999
ssg245
(dp911
Vy
F8.1493880000000001
sVx
F-5.4392685900000002
sVz
F3.60000038
ssg247
I00
sg248
(dp912
g50
VTL Danoxide
p913
sg52
Nssg251
(lp914
sg253
(lp915
(dp916
g50
VE6 Shooter
p917
sg52
Nsasg257
I00
sg44
VPT2M2.6930201S
p918
sg41
VDeath
p919
sg260
I1
sa(dp920
g47
I723388907
sg41
VWeaponDrop
p921
sg189
I80
sg53
(lp922
I89283061
asg44
VPT2M2.6950386S
p923
sg192
I32
sg193
VP0DT0H0M27.3167S
p924
sg48
(dp925
g50
VTL Danoxide
p926
sg52
Nssa(dp927
g47
I2511447508
sg41
VWeaponDrop
p928
sg189
I14
sg53
(lp929
I2758383128
asg44
VPT2M2.6950386S
p930
sg192
I8
sg193
VP0DT0H1M2.5833S
p931
sg48
(dp932
g50
VTL Danoxide
p933
sg52
Nssa(dp934
g230
I723388907
sg231
I00
sg232
I00
sg233
(dp935
g50
VE6 bubu dubu
p936
sg52
Nssg236
(lp937
I89283061
asg238
I00
sg239
I01
sg240
I1
sg241
I0
sg242
I1
sg243
(dp938
Vy
F-4.910101
sVx
F-2.4182105100000002
sVz
F4.0035990000000004
ssg245
(dp939
Vy
F-4.7006053899999998
sVx
F2.5099113000000002
sVz
F5.1225366599999997
ssg247
I00
sg248
(dp940
g50
VTL StelluR
p941
sg52
Nssg251
(lp942
sg253
(lp943
sg257
I00
sg44
VPT2M5.6431707S
p944
sg41
VDeath
p945
sg260
I1
sa(dp946
g41
VMedal
p947
sg48
(dp948
g50
VE6 bubu dubu
p949
sg52
Nssg265
I2838259753
sg44
VPT2M5.6431707S
p950
sa(dp951
g41
VImpulse
p952
sg48
(dp953
g50
VE6 bubu dubu
p954
sg52
Nssg271
I2556889090
sg44
VPT2M5.6431707S
p955
sa(dp956
g47
I4096745987
sg41
VWeaponDrop
p957
sg189
I27
sg53
(lp958
I2758383128
asg44
VPT2M5.6452069S
p959
sg192
I17
sg193
VP0DT0H1M12.9167S
p960
sg48
(dp961
g50
VTL StelluR
p962
sg52
Nssa(dp963
g47
I313138863
sg41
VWeaponDrop
p964
sg189
I0
sg53
(lp965
I1095363701
asg44
VPT2M5.6452069S
p966
sg192
I0
sg193
VP0DT0H0M1.3000S
p967
sg48
(dp968
g50
VTL StelluR
p969
sg52
Nssa(dp970
g41
VMedal
p971
sg48
(dp972
g50
VE6 Huke HCS
p973
sg52
Nssg265
I3400287617
sg44
VPT2M5.9921896S
p974
sa(dp975
g47
I313138863
sg48
(dp976
g50
VTL Danoxide
p977
sg52
Nssg53
(lp978
I1095363701
asg41
VWeaponPickup
p979
sg44
VPT2M10.7104523S
p980
sa(dp981
g47
I4096745987
sg48
(dp982
g50
VTL Danoxide
p983
sg52
Nssg53
(lp984
I2758383128
asg41
VWeaponPickup
p985
sg44
VPT2M10.7104523S
p986
sa(dp987
g41
VPlayerSpawn
p988
sg48
(dp989
g50
VTL Danoxide
p990
sg52
Nssg44
VPT2M10.7104523S
p991
sa(dp992
g47
I313138863
sg48
(dp993
g50
VTL StelluR
p994
sg52
Nssg53
(lp995
I1095363701
asg41
VWeaponPickup
p996
sg44
VPT2M13.6595817S
p997
sa(dp998
g47
I4096745987
sg48
(dp999
g50
VTL StelluR
p1000
sg52
Nssg53
(lp1001
I2758383128
asg41
VWeaponPickup
p1002
sg44
VPT2M13.6605823S
p1003
sa(dp1004
g41
VPlayerSpawn
p1005
sg48
(dp1006
g50
VTL StelluR
p1007
sg52
Nssg44
VPT2M13.6605823S
p1008
sa(dp1009
g230
I723388907
sg231
I00
sg232
I00
sg233
(dp1010
g50
VE6 Huke HCS
p1011
sg52
Nssg236
(lp1012
I89283061
asg238
I00
sg239
I01
sg240
I1
sg241
I0
sg242
I1
sg243
(dp1013
Vy
F-0.76732520000000004
sVx
F-2.3899089999999998
sVz
F0.31803160000000003
ssg245
(dp1014
Vy
F1.2486363599999999
sVx
F-7.5493750000000004
sVz
F1.5449305799999999
ssg247
I00
sg248
(dp1015
g50
VTL Spartan HCS
p1016
sg52
Nssg251
(lp1017
sg253
(lp1018
sg257
I00
sg44
VPT2M13.7595876S
p1019
sg41
VDeath
p1020
sg260
I1
sa(dp1021
g47
I313138863
sg41
VWeaponDrop
p1022
sg189
I0
sg53
(lp1023
I1095363701
asg44
VPT2M13.7616068S
p1024
sg192
I0
sg193
VP0DT0H0M13.0333S
p1025
sg48
(dp1026
g50
VTL Spartan HCS
p1027
sg52
Nssa(dp1028
g47
I424645655
sg41
VWeaponDrop
p1029
sg189
I6
sg53
(lp1030
I1327094800
asg44
VPT2M13.7616068S
p1031
sg192
I2
sg193
VP0DT0H0M53.2333S
p1032
sg48
(dp1033
g50
VTL Spartan HCS
p1034
sg52
Nssa(dp1035
g230
I4106030681
sg231
I00
sg232
I00
sg233
(dp1036
g50
VTL Eco HCS
p1037
sg52
Nssg236
(lp1038
sg238
I00
sg239
I01
sg240
I1
sg241
I0
sg242
I1
sg243
(dp1039
Vy
F12.348447800000001
sVx
F3.3306987299999999
sVz
F3.2230432000000002
ssg245
(dp1040
Vy
F11.384871499999999
sVx
F-0.73275715100000005
sVz
F1.599407
ssg247
I00
sg248
(dp1041
g50
VE6 Shooter
p1042
sg52
Nssg251
(lp1043
sg253
(lp1044
sg257
I00
sg44
VPT2M16.1927115S
p1045
sg41
VDeath
p1046
sg260
I1
sa(dp1047
g47
I524558978
sg41
VWeaponDrop
p1048
sg189
I3
sg53
(lp1049
I2758383128
asg44
VPT2M16.1947122S
p1050
sg192
I2
sg193
VP0DT0H0M15.0833S
p1051
sg48
(dp1052
g50
VE6 Shooter
p1053
sg52
Nssa(dp1054
g47
I524558978
sg41
VWeaponDrop
p1055
sg189
I0
sg53
(lp1056
I2758383128
asg44
VPT2M16.1947122S
p1057
sg192
I0
sg193
VP0DT0S
p1058
sg48
(dp1059
g50
VE6 Shooter
p1060
sg52
Nssa(dp1061
g47
I524558978
sg41
VWeaponDrop
p1062
sg189
I0
sg53
(lp1063
I2758383128
asg44
VPT2M16.1947122S
p1064
sg192
I0
sg193
VP0DT0S
p1065
sg48
(dp1066
g50
VE6 Shooter
p1067
sg52
Nssa(dp1068
g47
I424645655
sg41
VWeaponDrop
p1069
sg189
I47
sg53
(lp1070
I1327094800
asg44
VPT2M16.1947122S
p1071
sg192
I11
sg193
VP0DT0H0M28.7000S
p1072
sg48
(dp1073
g50
VE6 Shooter
p1074
sg52
Nssa(dp1075
g230
I424645655
sg231
I00
sg232
I00
sg233
(dp1076
g50
VE6 Shooter
p1077
sg52
Nssg236
(lp1078
I1327094800
asg238
I00
sg239
I01
sg240
I1
sg241
I0
sg242
I1
sg243
(dp1079
Vy
F11.384787599999999
sVx
F-0.83081240000000001
sVz
F1.5352876200000001
ssg245
(dp1080
Vy
F12.280311599999999
sVx
F3.2357399999999998
sVz
F3.2201919999999999
ssg247
I00
sg248
(dp1081
g50
VTL Eco HCS
p1082
sg52
Nssg251
(lp1083
sg253
(lp1084
(dp1085
g50
VE6 bubu dubu
p1086
sg52
Nsasg257
I01
sg44
VPT2M16.2427484S
p1087
sg41
VDeath
p1088
sg260
I1
sa(dp1089
g41
VMedal
p1090
sg48
(dp1091
g50
VE6 Shooter
p1092
sg52
Nssg265
I3261908037
sg44
VPT2M16.2447147S
p1093
sa(dp1094
g47
I313138863
sg41
VWeaponDrop
p1095
sg189
I9
sg53
(lp1096
I1095363701
asg44
VPT2M16.2447147S
p1097
sg192
I4
sg193
VP0DT0H0M4.5000S
p1098
sg48
(dp1099
g50
VTL Eco HCS
p1100
sg52
Nssa(dp1101
g47
I4096745987
sg41
VWeaponDrop
p1102
sg189
I4
sg53
(lp1103
I2758383128
asg44
VPT2M16.2447147S
p1104
sg192
I2
sg193
VP0DT0H0M16.6333S
p1105
sg48
(dp1106
g50
VTL Eco HCS
p1107
sg52
Nssa(dp1108
g47
I313138863
sg41
VWeaponDrop
p1109
sg189
I0
sg53
(lp1110
I1095363701
asg44
VPT2M17.8088121S
p1111
sg192
I0
sg193
VP0DT0H0M1.4500S
p1112
sg48
(dp1113
g50
VTL StelluR
p1114
sg52
Nssa(dp1115
g47
I424645655
sg48
(dp1116
g50
VTL StelluR
p1117
sg52
Nssg53
(lp1118
I1327094800
asg41
VWeaponPickup
p1119
sg44
VPT2M17.8088121S
p1120
sa(dp1121
g47
I313138863
sg48
(dp1122
g50
VTL Spartan HCS
p1123
sg52
Nssg53
(lp1124
I1095363701
asg41
VWeaponPickup
p1125
sg44
VPT2M21.7770165S
p1126
sa(dp1127
g47
I4096745987
sg48
(dp1128
g50
VTL Spartan HCS
p1129
sg52
Nssg53
(lp1130
I2758383128
asg41
VWeaponPickup
p1131
sg44
VPT2M21.7770165S
p1132
sa(dp1133
g41
VPlayerSpawn
p1134
sg48
(dp1135
g50
VTL Spartan HCS
p1136
sg52
Nssg44
VPT2M21.7770165S
p1137
sa(dp1138
g230
I424645655
sg231
I00
sg232
I00
sg233
(dp1139
g50
VE6 bubu dubu
p1140
sg52
Nssg236
(lp1141
I1327094800
asg238
I00
sg239
I01
sg240
I1
sg241
I0
sg242
I1
sg243
(dp1142
Vy
F-9.7559799999999992
sVx
F0.20549344999999999
sVz
F3.2018439999999999
ssg245
(dp1143
Vy
F-9.7756430000000005
sVx
F7.9075389999999999
sVz
F3.2011766399999999
ssg247
I00
sg248
(dp1144
g50
VTL Danoxide
p1145
sg52
Nssg251
(lp1146
sg253
(lp1147
sg257
I01
sg44
VPT2M22.5760634S
p1148
sg41
VDeath
p1149
sg260
I1
sa(dp1150
g41
VMedal
p1151
sg48
(dp1152
g50
VE6 bubu dubu
p1153
sg52
Nssg265
I3261908037
sg44
VPT2M22.5790616S
p1154
sa(dp1155
g47
I313138863
sg41
VWeaponDrop
p1156
sg189
I6
sg53
(lp1157
I1095363701
asg44
VPT2M22.5790616S
p1158
sg192
I6
sg193
VP0DT0H0M2.3167S
p1159
sg48
(dp1160
g50
VTL Danoxide
p1161
sg52
Nssa(dp1162
g47
I4096745987
sg41
VWeaponDrop
p1163
sg189
I3
sg53
(lp1164
I2758383128
asg44
VPT2M22.5790616S
p1165
sg192
I0
sg193
VP0DT0H0M9.5500S
p1166
sg48
(dp1167
g50
VTL Danoxide
p1168
sg52
Nssa(dp1169
g47
I313138863
sg48
(dp1170
g50
VE6 Shooter
p1171
sg52
Nssg53
(lp1172
I1095363701
asg41
VWeaponPickup
p1173
sg44
VPT2M24.2101405S
p1174
sa(dp1175
g47
I4096745987
sg48
(dp1176
g50
VE6 Shooter
p1177
sg52
Nssg53
(lp1178
I2758383128
asg41
VWeaponPickup
p1179
sg44
VPT2M24.2101405S
p1180
sa(dp1181
g41
VPlayerSpawn
p1182
sg48
(dp1183
g50
VE6 Shooter
p1184
sg52
Nssg44
VPT2M24.2101405S
p1185
sa(dp1186
g47
I313138863
sg48
(dp1187
g50
VTL Eco HCS
p1188
sg52
Nssg53
(lp1189
I1095363701
asg41
VWeaponPickup
p1190
sg44
VPT2M24.2601473S
p1191
sa(dp1192
g47
I4096745987
sg48
(dp1193
g50
VTL Eco HCS
p1194
sg52
Nssg53
(lp1195
I2758383128
asg41
VWeaponPickup
p1196
sg44
VPT2M24.2601473S
p1197
sa(dp1198
g41
VPlayerSpawn
p1199
sg48
(dp1200
g50
VTL Eco HCS
p1201
sg52
Nssg44
VPT2M24.2601473S
p1202
sa(dp1203
g47
I313138863
sg41
VWeaponDrop
p1204
sg189
I0
sg53
(lp1205
I1095363701
asg44
VPT2M26.3932565S
p1206
sg192
I0
sg193
VP0DT0H0M2.1833S
p1207
sg48
(dp1208
g50
VE6 Shooter
p1209
sg52
Nssa(dp1210
g47
I524558978
sg48
(dp1211
g50
VE6 Shooter
p1212
sg52
Nssg53
(lp1213
I2758383128
asg41
VWeaponPickup
p1214
sg44
VPT2M26.3932565S
p1215
sa(dp1216
g47
I2492868984
sg48
(dp1217
g50
VE6 Huke HCS
p1218
sg52
Nssg53
(lp1219
I2758383128
asg41
VWeaponPickup
p1220
sg44
VPT2M29.4763915S
p1221
sa(dp1222
g230
I4096745987
sg231
I00
sg232
I00
sg233
(dp1223
g50
VE6 Shooter
p1224
sg52
Nssg236
(lp1225
I2758383128
asg238
I00
sg239
I01
sg240
I1
sg241
I0
sg242
I1
sg243
(dp1226
Vy
F10.154086100000001
sVx
F6.1618952800000004
sVz
F3.80913448
ssg245
(dp1227
Vy
F13.343566900000001
sVx
F15.025656700000001
sVz
F3.1995619999999998
ssg247
I00
sg248
(dp1228
g50
VTL StelluR
p1229
sg52
Nssg251
(lp1230
sg253
(lp1231
sg257
I01
sg44
VPT2M29.6093993S
p1232
sg41
VDeath
p1233
sg260
I1
sa(dp1234
g41
VMedal
p1235
sg48
(dp1236
g50
VE6 Cratos HCS
p1237
sg52
Nssg265
I824733727
sg44
VPT2M29.6104226S
p1238
sa(dp1239
g41
VMedal
p1240
sg48
(dp1241
g50
VE6 Shooter
p1242
sg52
Nssg265
I2683910456
sg44
VPT2M29.6114188S
p1243
sa(dp1244
g47
I424645655
sg41
VWeaponDrop
p1245
sg189
I9
sg53
(lp1246
I1327094800
asg44
VPT2M29.6114188S
p1247
sg192
I6
sg193
VP0DT0H0M11.8000S
p1248
sg48
(dp1249
g50
VTL StelluR
p1250
sg52
Nssa(dp1251
g47
I4096745987
sg41
VWeaponDrop
p1252
sg189
I0
sg53
(lp1253
I2758383128
asg44
VPT2M29.6114188S
p1254
sg192
I0
sg193
VP0DT0H0M2.7000S
p1255
sg48
(dp1256
g50
VTL StelluR
p1257
sg52
Nssa(dp1258
g47
I313138863
sg48
(dp1259
g50
VTL Danoxide
p1260
sg52
Nssg53
(lp1261
I1095363701
asg41
VWeaponPickup
p1262
sg44
VPT2M30.5934732S
p1263
sa(dp1264
g47
I4096745987
sg48
(dp1265
g50
VTL Danoxide
p1266
sg52
Nssg53
(lp1267
I2758383128
asg41
VWeaponPickup
p1268
sg44
VPT2M30.5934732S
p1269
sa(dp1270
g41
VPlayerSpawn
p1271
sg48
(dp1272
g50
VTL Danoxide
p1273
sg52
Nssg44
VPT2M30.5934732S
p1274
sa(dp1275
g47
I2492868984
sg41
VWeaponDrop
p1276
sg189
I0
sg53
(lp1277
I2758383128
asg44
VPT2M30.643452S
p1278
sg192
I0
sg193
VP0DT0H0M1.0000S
p1279
sg48
(dp1280
g50
VE6 Huke HCS
p1281
sg52
Nssa(dp1282
g230
I669296699
sg231
I00
sg232
I00
sg233
(dp1283
g50
VE6 Cratos HCS
p1284
sg52
Nssg236
(lp1285
I2758383128
asg238
I00
sg239
I01
sg240
I1
sg241
I0
sg242
I1
sg243
(dp1286
Vy
F8.5740409999999994
sVx
F-4.5590004899999998
sVz
F3.60000038
ssg245
(dp1287
Vy
F-8.1444369999999999
sVx
F-3.3927724399999999
sVz
F3.2022390000000001
ssg247
I00
sg248
(dp1288
g50
VTL Eco HCS
p1289
sg52
Nssg251
(lp1290
sg253
(lp1291
(dp1292
g50
VE6 bubu dubu
p1293
sg52
Nsasg257
I01
sg44
VPT2M37.0767811S
p1294
sg41
VDeath
p1295
sg260
I1
sa(dp1296
g41
VMedal
p1297
sg48
(dp1298
g50
VE6 bubu dubu
p1299
sg52
Nssg265
I3744028405
sg44
VPT2M37.0767811S
p1300
sa(dp1301
g41
VMedal
p1302
sg48
(dp1303
g50
VE6 Cratos HCS
p1304
sg52
Nssg265
I848240062
sg44
VPT2M37.0778043S
p1305
sa(dp1306
g47
I313138863
sg41
VWeaponDrop
p1307
sg189
I13
sg53
(lp1308
I1095363701
asg44
VPT2M37.0788057S
p1309
sg192
I7
sg193
VP0DT0H0M3.4000S
p1310
sg48
(dp1311
g50
VTL Eco HCS
p1312
sg52
Nssa(dp1313
g47
I4096745987
sg41
VWeaponDrop
p1314
sg189
I0
sg53
(lp1315
I2758383128
asg44
VPT2M37.0788057S
p1316
sg192
I0
sg193
VP0DT0H0M9.4167S
p1317
sg48
(dp1318
g50
VTL Eco HCS
p1319
sg52
Nssa(dp1320
g230
I4096745987
sg231
I00
sg232
I00
sg233
(dp1321
g50
VE6 Huke HCS
p1322
sg52
Nssg236
(lp1323
I2758383128
asg238
I00
sg239
I01
sg240
I1
sg241
I0
sg242
I1
sg243
(dp1324
Vy
F7.9774117499999999
sVx
F15.3151932
sVz
F3.1691567900000002
ssg245
(dp1325
Vy
F-11.1129055
sVx
F16.7347565
sVz
F3.2338304500000001
ssg247
I00
sg248
(dp1326
g50
VTL Danoxide
p1327
sg52
Nssg251
(lp1328
sg253
(lp1329
(dp1330
g50
VE6 bubu dubu
p1331
sg52
Nsasg257
I00
sg44
VPT2M37.6098129S
p1332
sg41
VDeath
p1333
sg260
I1
sa(dp1334
g47
I313138863
sg41
VWeaponDrop
p1335
sg189
I0
sg53
(lp1336
I1095363701
asg44
VPT2M37.6128089S
p1337
sg192
I0
sg193
VP0DT0H0M0.4333S
p1338
sg48
(dp1339
g50
VTL Danoxide
p1340
sg52
Nssa(dp1341
g47
I4096745987
sg41
VWeaponDrop
p1342
sg189
I11
sg53
(lp1343
I2758383128
asg44
VPT2M37.6128089S
p1344
sg192
I1
sg193
VP0DT0H0M6.5833S
p1345
sg48
(dp1346
g50
VTL Danoxide
p1347
sg52
Nssa(dp1348
g47
I313138863
sg48
(dp1349
g50
VTL StelluR
p1350
sg52
Nssg53
(lp1351
I1095363701
asg41
VWeaponPickup
p1352
sg44
VPT2M37.6268127S
p1353
sa(dp1354
g47
I4096745987
sg48
(dp1355
g50
VTL StelluR
p1356
sg52
Nssg53
(lp1357
I2758383128
asg41
VWeaponPickup
p1358
sg44
VPT2M37.6279663S
p1359
sa(dp1360
g41
VPlayerSpawn
p1361
sg48
(dp1362
g50
VTL StelluR
p1363
sg52
Nssg44
VPT2M37.6279663S
p1364
sa(dp1365
g230
I723388907
sg231
I00
sg232
I00
sg233
(dp1366
g50
VE6 Huke HCS
p1367
sg52
Nssg236
(lp1368
I89283061
asg238
I00
sg239
I01
sg240
I1
sg241
I0
sg242
I1
sg243
(dp1369
Vy
F1.587197
sVx
F21.7753315
sVz
F0.83293519999999999
ssg245
(dp1370
Vy
F4.5911355
sVx
F18.402355199999999
sVz
F-0.0059040189999999999
ssg247
I00
sg248
(dp1371
g50
VTL Spartan HCS
p1372
sg52
Nssg251
(lp1373
sg253
(lp1374
sg257
I00
sg44
VPT2M41.6440159S
p1375
sg41
VDeath
p1376
sg260
I1
sa(dp1377
g41
VMedal
p1378
sg48
(dp1379
g50
VE6 Huke HCS
p1380
sg52
Nssg265
I2078758684
sg44
VPT2M41.6450396S
p1381
sa(dp1382
g47
I313138863
sg41
VWeaponDrop
p1383
sg189
I11
sg53
(lp1384
I1095363701
asg44
VPT2M41.6460375S
p1385
sg192
I7
sg193
VP0DT0H0M9.0333S
p1386
sg48
(dp1387
g50
VTL Spartan HCS
p1388
sg52
Nssa(dp1389
g47
I4096745987
sg41
VWeaponDrop
p1390
sg189
I2
sg53
(lp1391
I2758383128
asg44
VPT2M41.6460375S
p1392
sg192
I0
sg193
VP0DT0H0M10.8333S
p1393
sg48
(dp1394
g50
VTL Spartan HCS
p1395
sg52
Nssa(dp1396
g230
I4096745987
sg231
I00
sg232
I00
sg233
(dp1397
g50
VE6 Shooter
p1398
sg52
Nssg236
(lp1399
I2758383128
asg238
I00
sg239
I01
sg240
I1
sg241
I0
sg242
I1
sg243
(dp1400
Vy
F-8.3040629999999993
sVx
F4.9129304899999999
sVz
F4.2292230000000002
ssg245
(dp1401
Vy
F-12.47729
sVx
F8.9802330000000001
sVz
F4.31433439
ssg247
I00
sg248
(dp1402
g50
VTL StelluR
p1403
sg52
Nssg251
(lp1404
sg253
(lp1405
sg257
I01
sg44
VPT2M43.4601078S
p1406
sg41
VDeath
p1407
sg260
I1
sa(dp1408
g41
VMedal
p1409
sg48
(dp1410
g50
VE6 Shooter
p1411
sg52
Nssg265
I3261908037
sg44
VPT2M43.461108S
p1412
sa(dp1413
g47
I313138863
sg41
VWeaponDrop
p1414
sg189
I0
sg53
(lp1415
I1095363701
asg44
VPT2M43.4621292S
p1416
sg192
I0
sg193
VP0DT0H0M1.4667S
p1417
sg48
(dp1418
g50
VTL StelluR
p1419
sg52
Nssa(dp1420
g47
I4096745987
sg41
VWeaponDrop
p1421
sg189
I3
sg53
(lp1422
I2758383128
asg44
VPT2M43.4621292S
p1423
sg192
I1
sg193
VP0DT0H0M4.3667S
p1424
sg48
(dp1425
g50
VTL StelluR
p1426
sg52
Nssa(dp1427
g47
I4096745987
sg41
VWeaponDrop
p1428
sg189
I0
sg53
(lp1429
I2758383128
asg44
VPT2M43.4621292S
p1430
sg192
I0
sg193
VP0DT0S
p1431
sg48
(dp1432
g50
VTL StelluR
p1433
sg52
Nssa(dp1434
g47
I313138863
sg48
(dp1435
g50
VTL Eco HCS
p1436
sg52
Nssg53
(lp1437
I1095363701
asg41
VWeaponPickup
p1438
sg44
VPT2M45.0931908S
p1439
sa(dp1440
g47
I4096745987
sg48
(dp1441
g50
VTL Eco HCS
p1442
sg52
Nssg53
(lp1443
I2758383128
asg41
VWeaponPickup
p1444
sg44
VPT2M45.0942112S
p1445
sa(dp1446
g41
VPlayerSpawn
p1447
sg48
(dp1448
g50
VTL Eco HCS
p1449
sg52
Nssg44
VPT2M45.0942112S
p1450
sa(dp1451
g47
I313138863
sg48
(dp1452
g50
VTL Danoxide
p1453
sg52
Nssg53
(lp1454
I1095363701
asg41
VWeaponPickup
p1455
sg44
VPT2M45.6272381S
p1456
sa(dp1457
g47
I4096745987
sg48
(dp1458
g50
VTL Danoxide
p1459
sg52
Nssg53
(lp1460
I2758383128
asg41
VWeaponPickup
p1461
sg44
VPT2M45.6272381S
p1462
sa(dp1463
g41
VPlayerSpawn
p1464
sg48
(dp1465
g50
VTL Danoxide
p1466
sg52
Nssg44
VPT2M45.6272381S
p1467
sa(dp1468
g47
I313138863
sg48
(dp1469
g50
VTL Spartan HCS
p1470
sg52
Nssg53
(lp1471
I1095363701
asg41
VWeaponPickup
p1472
sg44
VPT2M49.6604485S
p1473
sa(dp1474
g47
I4096745987
sg48
(dp1475
g50
VTL Spartan HCS
p1476
sg52
Nssg53
(lp1477
I2758383128
asg41
VWeaponPickup
p1478
sg44
VPT2M49.6614447S
p1479
sa(dp1480
g41
VPlayerSpawn
p1481
sg48
(dp1482
g50
VTL Spartan HCS
p1483
sg52
Nssg44
VPT2M49.6614447S
p1484
sa(dp1485
g230
I424645655
sg231
I00
sg232
I00
sg233
(dp1486
g50
VE6 bubu dubu
p1487
sg52
Nssg236
(lp1488
I1327094800
asg238
I00
sg239
I00
sg240
I2
sg241
I0
sg242
I0
sg243
(dp1489
Vy
F-5.0247497599999997
sVx
F2.0413157900000001
sVz
F5.1534019999999998
ssg245
(dp1490
Vy
F-4.2828464500000001
sVx
F21.1420174
sVz
F1.208126
ssg247
I00
sg248
(dp1491
g469
g470
ssg251
(lp1492
sg253
(lp1493
sg257
I00
sg44
VPT2M51.2095048S
p1494
sg41
VDeath
p1495
sg260
I1
sa(dp1496
g47
I313138863
sg48
(dp1497
g50
VTL StelluR
p1498
sg52
Nssg53
(lp1499
I1095363701
asg41
VWeaponPickup
p1500
sg44
VPT2M51.4775412S
p1501
sa(dp1502
g47
I4096745987
sg48
(dp1503
g50
VTL StelluR
p1504
sg52
Nssg53
(lp1505
I2758383128
asg41
VWeaponPickup
p1506
sg44
VPT2M51.4775412S
p1507
sa(dp1508
g41
VPlayerSpawn
p1509
sg48
(dp1510
g50
VTL StelluR
p1511
sg52
Nssg44
VPT2M51.4775412S
p1512
sa(dp1513
g230
I4096745987
sg231
I00
sg232
I00
sg233
(dp1514
g50
VE6 Shooter
p1515
sg52
Nssg236
(lp1516
I2758383128
asg238
I00
sg239
I01
sg240
I1
sg241
I0
sg242
I1
sg243
(dp1517
Vy
F-3.2999887499999998
sVx
F1.2080766000000001
sVz
F5.2003199999999996
ssg245
(dp1518
Vy
F-8.8789759999999998
sVx
F-5.6745140000000003
sVz
F4.0764990000000001
ssg247
I00
sg248
(dp1519
g50
VTL Danoxide
p1520
sg52
Nssg251
(lp1521
sg253
(lp1522
(dp1523
g50
VE6 bubu dubu
p1524
sg52
Nsasg257
I00
sg44
VPT2M58.2598644S
p1525
sg41
VDeath
p1526
sg260
I1
sa(dp1527
g47
I313138863
sg41
VWeaponDrop
p1528
sg189
I9
sg53
(lp1529
I1095363701
asg44
VPT2M58.2618899S
p1530
sg192
I2
sg193
VP0DT0H0M6.8833S
p1531
sg48
(dp1532
g50
VTL Danoxide
p1533
sg52
Nssa(dp1534
g47
I4096745987
sg41
VWeaponDrop
p1535
sg189
I0
sg53
(lp1536
I2758383128
asg44
VPT2M58.2618899S
p1537
sg192
I0
sg193
VP0DT0H0M5.7500S
p1538
sg48
(dp1539
g50
VTL Danoxide
p1540
sg52
Nssa(dp1541
g230
I4096745987
sg231
I00
sg232
I00
sg233
(dp1542
g50
VTL StelluR
p1543
sg52
Nssg236
(lp1544
I2758383128
asg238
I00
sg239
I01
sg240
I1
sg241
I0
sg242
I1
sg243
(dp1545
Vy
F-9.9119360000000007
sVx
F-5.6136856100000001
sVz
F3.2142529999999998
ssg245
(dp1546
Vy
F-4.9808459999999997
sVx
F0.85179640000000001
sVz
F3.2022397499999999
ssg247
I00
sg248
(dp1547
g50
VE6 bubu dubu
p1548
sg52
Nssg251
(lp1549
sg253
(lp1550
(dp1551
g50
VTL Danoxide
p1552
sg52
Nsa(dp1553
g50
VTL Eco HCS
p1554
sg52
Nsa(dp1555
g50
VTL Spartan HCS
p1556
sg52
Nsasg257
I01
sg44
VPT2M58.8438965S
p1557
sg41
VDeath
p1558
sg260
I1
sa(dp1559
g41
VMedal
p1560
sg48
(dp1561
g50
VTL StelluR
p1562
sg52
Nssg265
I194124164
sg44
VPT2M58.8438965S
p1563
sa(dp1564
g41
VMedal
p1565
sg48
(dp1566
g50
VTL Danoxide
p1567
sg52
Nssg265
I1326375333
sg44
VPT2M58.8438965S
p1568
sa(dp1569
g41
VMedal
p1570
sg48
(dp1571
g50
VTL Eco HCS
p1572
sg52
Nssg265
I1326375333
sg44
VPT2M58.8438965S
p1573
sa(dp1574
g41
VMedal
p1575
sg48
(dp1576
g50
VTL Spartan HCS
p1577
sg52
Nssg265
I1326375333
sg44
VPT2M58.8438965S
p1578
sa(dp1579
g41
VMedal
p1580
sg48
(dp1581
g50
VTL StelluR
p1582
sg52
Nssg265
I3261908037
sg44
VPT2M58.8449184S
p1583
sa(dp1584
g47
I723388907
sg41
VWeaponDrop
p1585
sg189
I85
sg53
(lp1586
I89283061
asg44
VPT2M58.8459183S
p1587
sg192
I35
sg193
VP0DT0H0M31.5000S
p1588
sg48
(dp1589
g50
VE6 bubu dubu
p1590
sg52
Nssa(dp1591
g47
I424645655
sg41
VWeaponDrop
p1592
sg189
I67
sg53
(lp1593
I1327094800
asg44
VPT2M58.8459183S
p1594
sg192
I37
sg193
VP0DT0H1M35.0333S
p1595
sg48
(dp1596
g50
VE6 bubu dubu
p1597
sg52
Nssa(dp1598
g47
I424645655
sg41
VWeaponDrop
p1599
sg189
I0
sg53
(lp1600
I1327094800
asg44
VPT2M58.8459183S
p1601
sg192
I0
sg193
VP0DT0S
p1602
sg48
(dp1603
g50
VE6 bubu dubu
p1604
sg52
Nssa(dp1605
g230
I669296699
sg231
I00
sg232
I00
sg233
(dp1606
g50
VE6 Cratos HCS
p1607
sg52
Nssg236
(lp1608
I2758383128
asg238
I00
sg239
I01
sg240
I1
sg241
I0
sg242
I1
sg243
(dp1609
Vy
F4.8281545599999998
sVx
F-3.7034060000000002
sVz
F3.0039053
ssg245
(dp1610
Vy
F-10.503191899999999
sVx
F-3.25688362
sVz
F3.4307024500000001
ssg247
I00
sg248
(dp1611
g50
VTL StelluR
p1612
sg52
Nssg251
(lp1613
sg253
(lp1614
(dp1615
g50
VE6 bubu dubu
p1616
sg52
Nsa(dp1617
g50
VE6 Shooter
p1618
sg52
Nsasg257
I00
sg44
VPT3M0.5269816S
p1619
sg41
VDeath
p1620
sg260
I1
sa(dp1621
g41
VMedal
p1622
sg48
(dp1623
g50
VE6 Shooter
p1624
sg52
Nssg265
I2366628262
sg44
VPT3M0.5269816S
p1625
sa(dp1626
g47
I313138863
sg41
VWeaponDrop
p1627
sg189
I0
sg53
(lp1628
I1095363701
asg44
VPT3M0.5289818S
p1629
sg192
I0
sg193
VP0DT0H0M0.4667S
p1630
sg48
(dp1631
g50
VTL StelluR
p1632
sg52
Nssa(dp1633
g47
I4096745987
sg41
VWeaponDrop
p1634
sg189
I10
sg53
(lp1635
I2758383128
asg44
VPT3M0.5289818S
p1636
sg192
I5
sg193
VP0DT0H0M8.5833S
p1637
sg48
(dp1638
g50
VTL StelluR
p1639
sg52
Nssa(dp1640
g230
I4096745987
sg231
I00
sg232
I00
sg233
(dp1641
g50
VE6 Shooter
p1642
sg52
Nssg236
(lp1643
I2758383128
asg238
I00
sg239
I01
sg240
I1
sg241
I0
sg242
I1
sg243
(dp1644
Vy
F-3.3872366
sVx
F1.52387977
sVz
F5.2003199999999996
ssg245
(dp1645
Vy
F-8.0865969999999994
sVx
F-2.3904800000000002
sVz
F3.2022392700000002
ssg247
I00
sg248
(dp1646
g50
VTL Eco HCS
p1647
sg52
Nssg251
(lp1648
sg253
(lp1649
(dp1650
g50
VE6 bubu dubu
p1651
sg52
Nsa(dp1652
g50
VE6 Huke HCS
p1653
sg52
Nsasg257
I01
sg44
VPT3M3.4771327S
p1654
sg41
VDeath
p1655
sg260
I1
sa(dp1656
g41
VMedal
p1657
sg48
(dp1658
g50
VE6 Shooter
p1659
sg52
Nssg265
I3261908037
sg44
VPT3M3.4784232S
p1660
sa(dp1661
g41
VMedal
p1662
sg48
(dp1663
g50
VE6 Shooter
p1664
sg52
Nssg265
I2430242797
sg44
VPT3M3.4784232S
p1665
sa(dp1666
g47
I4096745987
sg41
VWeaponDrop
p1667
sg189
I10
sg53
(lp1668
I2758383128
asg44
VPT3M3.4791559S
p1669
sg192
I2
sg193
VP0DT0H0M17.6167S
p1670
sg48
(dp1671
g50
VTL Eco HCS
p1672
sg52
Nssa(dp1673
g47
I313138863
sg41
VWeaponDrop
p1674
sg189
I0
sg53
(lp1675
I1095363701
asg44
VPT3M3.4791559S
p1676
sg192
I0
sg193
VP0DT0H0M0.7667S
p1677
sg48
(dp1678
g50
VTL Eco HCS
p1679
sg52
Nssa(dp1680
g47
I313138863
sg48
(dp1681
g50
VTL Danoxide
p1682
sg52
Nssg53
(lp1683
I1095363701
asg41
VWeaponPickup
p1684
sg44
VPT3M6.2772765S
p1685
sa(dp1686
g47
I4096745987
sg48
(dp1687
g50
VTL Danoxide
p1688
sg52
Nssg53
(lp1689
I2758383128
asg41
VWeaponPickup
p1690
sg44
VPT3M6.2772765S
p1691
sa(dp1692
g41
VPlayerSpawn
p1693
sg48
(dp1694
g50
VTL Danoxide
p1695
sg52
Nssg44
VPT3M6.2772765S
p1696
sa(dp1697
g47
I313138863
sg48
(dp1698
g50
VE6 bubu dubu
p1699
sg52
Nssg53
(lp1700
I1095363701
asg41
VWeaponPickup
p1701
sg44
VPT3M6.8603067S
p1702
sa(dp1703
g47
I4096745987
sg48
(dp1704
g50
VE6 bubu dubu
p1705
sg52
Nssg53
(lp1706
I2758383128
asg41
VWeaponPickup
p1707
sg44
VPT3M6.8613262S
p1708
sa(dp1709
g41
VPlayerSpawn
p1710
sg48
(dp1711
g50
VE6 bubu dubu
p1712
sg52
Nssg44
VPT3M6.8613262S
p1713
sa(dp1714
g230
I723388907
sg231
I00
sg232
I00
sg233
(dp1715
g50
VE6 Huke HCS
p1716
sg52
Nssg236
(lp1717
I89283061
asg238
I00
sg239
I01
sg240
I1
sg241
I0
sg242
I1
sg243
(dp1718
Vy
F-4.6298589999999997
sVx
F-2.9768695799999998
sVz
F3.86937475
ssg245
(dp1719
Vy
F-0.32775900000000002
sVx
F-3.0141215300000002
sVz
F3.1999995700000001
ssg247
I00
sg248
(dp1720
g50
VTL Spartan HCS
p1721
sg52
Nssg251
(lp1722
sg253
(lp1723
(dp1724
g50
VE6 Shooter
p1725
sg52
Nsasg257
I00
sg44
VPT3M6.9773112S
p1726
sg41
VDeath
p1727
sg260
I1
sa(dp1728
g41
VMedal
p1729
sg48
(dp1730
g50
VE6 Huke HCS
p1731
sg52
Nssg265
I2838259753
sg44
VPT3M6.9773112S
p1732
sa(dp1733
g41
VImpulse
p1734
sg48
(dp1735
g50
VE6 Huke HCS
p1736
sg52
Nssg271
I2556889090
sg44
VPT3M6.9773112S
p1737
sa(dp1738
g41
VMedal
p1739
sg48
(dp1740
g50
VE6 Huke HCS
p1741
sg52
Nssg265
I2430242797
sg44
VPT3M6.978331S
p1742
sa(dp1743
g47
I313138863
sg41
VWeaponDrop
p1744
sg189
I17
sg53
(lp1745
I1095363701
asg44
VPT3M6.978331S
p1746
sg192
I3
sg193
VP0DT0H0M13.5500S
p1747
sg48
(dp1748
g50
VTL Spartan HCS
p1749
sg52
Nssa(dp1750
g47
I4096745987
sg41
VWeaponDrop
p1751
sg189
I0
sg53
(lp1752
I2758383128
asg44
VPT3M6.978331S
p1753
sg192
I0
sg193
VP0DT0H0M3.7667S
p1754
sg48
(dp1755
g50
VTL Spartan HCS
p1756
sg52
Nssa(dp1757
g41
VMedal
p1758
sg48
(dp1759
g50
VE6 Shooter
p1760
sg52
Nssg265
I3400287617
sg44
VPT3M7.5923623S
p1761
sa(dp1762
g47
I313138863
sg48
(dp1763
g50
VTL StelluR
p1764
sg52
Nssg53
(lp1765
I1095363701
asg41
VWeaponPickup
p1766
sg44
VPT3M8.5443943S
p1767
sa(dp1768
g47
I4096745987
sg48
(dp1769
g50
VTL StelluR
p1770
sg52
Nssg53
(lp1771
I2758383128
asg41
VWeaponPickup
p1772
sg44
VPT3M8.5443943S
p1773
sa(dp1774
g41
VPlayerSpawn
p1775
sg48
(dp1776
g50
VTL StelluR
p1777
sg52
Nssg44
VPT3M8.5443943S
p1778
sa(dp1779
g230
I669296699
sg231
I00
sg232
I00
sg233
(dp1780
g50
VE6 Cratos HCS
p1781
sg52
Nssg236
(lp1782
I2758383128
asg238
I00
sg239
I01
sg240
I1
sg241
I0
sg242
I1
sg243
(dp1783
Vy
F8.3836460000000006
sVx
F-6.1134930000000001
sVz
F3.60000038
ssg245
(dp1784
Vy
F12.187243499999999
sVx
F19.287690000000001
sVz
F3.1516594900000001
ssg247
I00
sg248
(dp1785
g50
VTL StelluR
p1786
sg52
Nssg251
(lp1787
sg253
(lp1788
sg257
I01
sg44
VPT3M10.8935124S
p1789
sg41
VDeath
p1790
sg260
I1
sa(dp1791
g41
VMedal
p1792
sg48
(dp1793
g50
VE6 Cratos HCS
p1794
sg52
Nssg265
I848240062
sg44
VPT3M10.8955483S
p1795
sa(dp1796
g47
I4096745987
sg41
VWeaponDrop
p1797
sg189
I0
sg53
(lp1798
I2758383128
asg44
VPT3M10.8955483S
p1799
sg192
I0
sg193
VP0DT0H0M1.8667S
p1800
sg48
(dp1801
g50
VTL StelluR
p1802
sg52
Nssa(dp1803
g47
I313138863
sg41
VWeaponDrop
p1804
sg189
I0
sg53
(lp1805
I1095363701
asg44
VPT3M10.8965149S
p1806
sg192
I0
sg193
VP0DT0H0M0.4833S
p1807
sg48
(dp1808
g50
VTL StelluR
p1809
sg52
Nssa(dp1810
g47
I313138863
sg48
(dp1811
g50
VTL Eco HCS
p1812
sg52
Nssg53
(lp1813
I1095363701
asg41
VWeaponPickup
p1814
sg44
VPT3M11.4935508S
p1815
sa(dp1816
g47
I4096745987
sg48
(dp1817
g50
VTL Eco HCS
p1818
sg52
Nssg53
(lp1819
I2758383128
asg41
VWeaponPickup
p1820
sg44
VPT3M11.4945628S
p1821
sa(dp1822
g41
VPlayerSpawn
p1823
sg48
(dp1824
g50
VTL Eco HCS
p1825
sg52
Nssg44
VPT3M11.4945628S
p1826
sa(dp1827
g47
I4096745987
sg41
VWeaponDrop
p1828
sg189
I0
sg53
(lp1829
I2758383128
asg44
VPT3M11.942591S
p1830
sg192
I0
sg193
VP0DT0H0M4.0333S
p1831
sg48
(dp1832
g50
VE6 bubu dubu
p1833
sg52
Nssa(dp1834
g47
I424645655
sg48
(dp1835
g50
VE6 bubu dubu
p1836
sg52
Nssg53
(lp1837
I1327094800
asg41
VWeaponPickup
p1838
sg44
VPT3M11.942591S
p1839
sa(dp1840
g47
I313138863
sg48
(dp1841
g50
VTL Spartan HCS
p1842
sg52
Nssg53
(lp1843
I1095363701
asg41
VWeaponPickup
p1844
sg44
VPT3M14.9947425S
p1845
sa(dp1846
g47
I4096745987
sg48
(dp1847
g50
VTL Spartan HCS
p1848
sg52
Nssg53
(lp1849
I2758383128
asg41
VWeaponPickup
p1850
sg44
VPT3M14.9947425S
p1851
sa(dp1852
g41
VPlayerSpawn
p1853
sg48
(dp1854
g50
VTL Spartan HCS
p1855
sg52
Nssg44
VPT3M14.9947425S
p1856
sa(dp1857
g47
I313138863
sg48
(dp1858
g50
VTL StelluR
p1859
sg52
Nssg53
(lp1860
I1095363701
asg41
VWeaponPickup
p1861
sg44
VPT3M18.9109254S
p1862
sa(dp1863
g47
I4096745987
sg48
(dp1864
g50
VTL StelluR
p1865
sg52
Nssg53
(lp1866
I2758383128
asg41
VWeaponPickup
p1867
sg44
VPT3M18.9119478S
p1868
sa(dp1869
g41
VPlayerSpawn
p1870
sg48
(dp1871
g50
VTL StelluR
p1872
sg52
Nssg44
VPT3M18.9119478S
p1873
sa(dp1874
g230
I4096745987
sg231
I00
sg232
I00
sg233
(dp1875
g50
VE6 Shooter
p1876
sg52
Nssg236
(lp1877
I2758383128
asg238
I00
sg239
I01
sg240
I1
sg241
I0
sg242
I1
sg243
(dp1878
Vy
F-1.7505930700000001
sVx
F20.30864
sVz
F-0.0065329372899999997
ssg245
(dp1879
Vy
F5.7530183800000003
sVx
F20.461427700000002
sVz
F0.23481875699999999
ssg247
I00
sg248
(dp1880
g50
VTL Danoxide
p1881
sg52
Nssg251
(lp1882
sg253
(lp1883
(dp1884
g50
VE6 bubu dubu
p1885
sg52
Nsasg257
I01
sg44
VPT3M18.9439231S
p1886
sg41
VDeath
p1887
sg260
I1
sa(dp1888
g41
VMedal
p1889
sg48
(dp1890
g50
VE6 Shooter
p1891
sg52
Nssg265
I2838259753
sg44
VPT3M18.9439231S
p1892
sa(dp1893
g41
VImpulse
p1894
sg48
(dp1895
g50
VE6 Shooter
p1896
sg52
Nssg271
I2556889090
sg44
VPT3M18.9439231S
p1897
sa(dp1898
g41
VMedal
p1899
sg48
(dp1900
g50
VE6 Shooter
p1901
sg52
Nssg265
I3261908037
sg44
VPT3M18.9459248S
p1902
sa(dp1903
g47
I313138863
sg41
VWeaponDrop
p1904
sg189
I0
sg53
(lp1905
I1095363701
asg44
VPT3M18.9459248S
p1906
sg192
I0
sg193
VP0DT0H0M0.4500S
p1907
sg48
(dp1908
g50
VTL Danoxide
p1909
sg52
Nssa(dp1910
g47
I4096745987
sg41
VWeaponDrop
p1911
sg189
I12
sg53
(lp1912
I2758383128
asg44
VPT3M18.9459248S
p1913
sg192
I6
sg193
VP0DT0H0M12.2167S
p1914
sg48
(dp1915
g50
VTL Danoxide
p1916
sg52
Nssa(dp1917
g230
I4096745987
sg231
I00
sg232
I00
sg233
(dp1918
g50
VE6 Shooter
p1919
sg52
Nssg236
(lp1920
I2758383128
asg238
I00
sg239
I01
sg240
I1
sg241
I0
sg242
I1
sg243
(dp1921
Vy
F-2.4085580000000002
sVx
F23.432146100000001
sVz
F0.28941142600000003
ssg245
(dp1922
Vy
F9.9177789999999995
sVx
F21.7191525
sVz
F-0.00312867761
ssg247
I00
sg248
(dp1923
g50
VTL Eco HCS
p1924
sg52
Nssg251
(lp1925
sg253
(lp1926
(dp1927
g50
VE6 bubu dubu
p1928
sg52
Nsa(dp1929
g50
VE6 Huke HCS
p1930
sg52
Nsasg257
I01
sg44
VPT3M20.8770239S
p1931
sg41
VDeath
p1932
sg260
I1
sa(dp1933
g41
VMedal
p1934
sg48
(dp1935
g50
VE6 Shooter
p1936
sg52
Nssg265
I3261908037
sg44
VPT3M20.8790425S
p1937
sa(dp1938
g41
VMedal
p1939
sg48
(dp1940
g50
VE6 Shooter
p1941
sg52
Nssg265
I2078758684
sg44
VPT3M20.8790425S
p1942
sa(dp1943
g47
I313138863
sg41
VWeaponDrop
p1944
sg189
I1
sg53
(lp1945
I1095363701
asg44
VPT3M20.8790425S
p1946
sg192
I0
sg193
VP0DT0H0M2.3333S
p1947
sg48
(dp1948
g50
VTL Eco HCS
p1949
sg52
Nssa(dp1950
g47
I4096745987
sg41
VWeaponDrop
p1951
sg189
I6
sg53
(lp1952
I2758383128
asg44
VPT3M20.8790425S
p1953
sg192
I1
sg193
VP0DT0H0M7.0500S
p1954
sg48
(dp1955
g50
VTL Eco HCS
p1956
sg52
Nssa(dp1957
g230
I3190813201
sg231
I00
sg232
I00
sg233
(dp1958
g50
VTL Danoxide
p1959
sg52
Nssg236
(lp1960
sg238
I00
sg239
I01
sg240
I1
sg241
I0
sg242
I1
sg243
(dp1961
Vy
F6.3163404500000002
sVx
F22.345469999999999
sVz
F0.102968216
ssg245
(dp1962
Vy
F-4.5703620000000003
sVx
F22.219860000000001
sVz
F0.80995799999999996
ssg247
I00
sg248
(dp1963
g50
VE6 Shooter
p1964
sg52
Nssg251
(lp1965
sg253
(lp1966
sg257
I00
sg44
VPT3M22.2111286S
p1967
sg41
VDeath
p1968
sg260
I1
sa(dp1969
g41
VMedal
p1970
sg48
(dp1971
g50
VTL Danoxide
p1972
sg52
Nssg265
I285057226
sg44
VPT3M22.2131145S
p1973
sa(dp1974
g47
I4096745987
sg41
VWeaponDrop
p1975
sg189
I35
sg53
(lp1976
I2758383128
asg44
VPT3M22.2131145S
p1977
sg192
I17
sg193
VP0DT0H0M39.5833S
p1978
sg48
(dp1979
g50
VE6 Shooter
p1980
sg52
Nssa(dp1981
g47
I524558978
sg41
VWeaponDrop
p1982
sg189
I3
sg53
(lp1983
I2758383128
asg44
VPT3M22.2141179S
p1984
sg192
I2
sg193
VP0DT0H0M16.2333S
p1985
sg48
(dp1986
g50
VE6 Shooter
p1987
sg52
Nssa(dp1988
g47
I524558978
sg41
VWeaponDrop
p1989
sg189
I0
sg53
(lp1990
I2758383128
asg44
VPT3M22.2141179S
p1991
sg192
I0
sg193
VP0DT0S
p1992
sg48
(dp1993
g50
VE6 Shooter
p1994
sg52
Nssa(dp1995
g47
I524558978
sg41
VWeaponDrop
p1996
sg189
I0
sg53
(lp1997
I2758383128
asg44
VPT3M22.2141179S
p1998
sg192
I0
sg193
VP0DT0S
p1999
sg48
(dp2000
g50
VE6 Shooter
p2001
sg52
Nssa(dp2002
g47
I313138863
sg48
(dp2003
g50
VTL Danoxide
p2004
sg52
Nssg53
(lp2005
I1095363701
asg41
VWeaponPickup
p2006
sg44
VPT3M26.9613605S
p2007
sa(dp2008
g47
I4096745987
sg48
(dp2009
g50
VTL Danoxide
p2010
sg52
Nssg53
(lp2011
I2758383128
asg41
VWeaponPickup
p2012
sg44
VPT3M26.9613605S
p2013
sa(dp2014
g41
VPlayerSpawn
p2015
sg48
(dp2016
g50
VTL Danoxide
p2017
sg52
Nssg44
VPT3M26.9613605S
p2018
sa(dp2019
g47
I313138863
sg41
VWeaponDrop
p2020
sg189
I0
sg53
(lp2021
I1095363701
asg44
VPT3M27.6263731S
p2022
sg192
I0
sg193
VP0DT0H0M5.2833S
p2023
sg48
(dp2024
g50
VTL StelluR
p2025
sg52
Nssa(dp2026
g47
I723388907
sg48
(dp2027
g50
VTL StelluR
p2028
sg52
Nssg53
(lp2029
I89283061
asg41
VWeaponPickup
p2030
sg44
VPT3M27.6263731S
p2031
sa(dp2032
g47
I313138863
sg48
(dp2033
g50
VTL Eco HCS
p2034
sg52
Nssg53
(lp2035
I1095363701
asg41
VWeaponPickup
p2036
sg44
VPT3M28.8944521S
p2037
sa(dp2038
g47
I4096745987
sg48
(dp2039
g50
VTL Eco HCS
p2040
sg52
Nssg53
(lp2041
I2758383128
asg41
VWeaponPickup
p2042
sg44
VPT3M28.8944521S
p2043
sa(dp2044
g41
VPlayerSpawn
p2045
sg48
(dp2046
g50
VTL Eco HCS
p2047
sg52
Nssg44
VPT3M28.8944521S
p2048
sa(dp2049
g47
I4096745987
sg41
VWeaponDrop
p2050
sg189
I0
sg53
(lp2051
I2758383128
asg44
VPT3M30.1595175S
p2052
sg192
I0
sg193
VP0DT0H0M2.8667S
p2053
sg48
(dp2054
g50
VTL Danoxide
p2055
sg52
Nssa(dp2056
g47
I424645655
sg48
(dp2057
g50
VTL Danoxide
p2058
sg52
Nssg53
(lp2059
I1327094800
asg41
VWeaponPickup
p2060
sg44
VPT3M30.1595175S
p2061
sa(dp2062
g47
I313138863
sg48
(dp2063
g50
VE6 Shooter
p2064
sg52
Nssg53
(lp2065
I1095363701
asg41
VWeaponPickup
p2066
sg44
VPT3M30.2275029S
p2067
sa(dp2068
g47
I4096745987
sg48
(dp2069
g50
VE6 Shooter
p2070
sg52
Nssg53
(lp2071
I2758383128
asg41
VWeaponPickup
p2072
sg44
VPT3M30.2285204S
p2073
sa(dp2074
g41
VPlayerSpawn
p2075
sg48
(dp2076
g50
VE6 Shooter
p2077
sg52
Nssg44
VPT3M30.2285204S
p2078
sa(dp2079
g47
I313138863
sg41
VWeaponDrop
p2080
sg189
I0
sg53
(lp2081
I1095363701
asg44
VPT3M37.5758842S
p2082
sg192
I0
sg193
VP0DT0H0M1.6833S
p2083
sg48
(dp2084
g50
VE6 Shooter
p2085
sg52
Nssa(dp2086
g47
I524558978
sg48
(dp2087
g50
VE6 Shooter
p2088
sg52
Nssg53
(lp2089
I2758383128
asg41
VWeaponPickup
p2090
sg44
VPT3M37.5769022S
p2091
sa(dp2092
g230
I4096745987
sg231
I00
sg232
I00
sg233
(dp2093
g50
VE6 Shooter
p2094
sg52
Nssg236
(lp2095
I2758383128
asg238
I00
sg239
I01
sg240
I1
sg241
I0
sg242
I1
sg243
(dp2096
Vy
F-5.5562659999999999
sVx
F17.840398799999999
sVz
F2.34232759
ssg245
(dp2097
Vy
F-3.0516812799999999
sVx
F0.66525983799999999
sVz
F5.2004203799999997
ssg247
I00
sg248
(dp2098
g50
VTL Spartan HCS
p2099
sg52
Nssg251
(lp2100
sg253
(lp2101
sg257
I01
sg44
VPT3M40.3440201S
p2102
sg41
VDeath
p2103
sg260
I1
sa(dp2104
g41
VMedal
p2105
sg48
(dp2106
g50
VE6 Shooter
p2107
sg52
Nssg265
I2683910456
sg44
VPT3M40.3450426S
p2108
sa(dp2109
g47
I313138863
sg41
VWeaponDrop
p2110
sg189
I0
sg53
(lp2111
I1095363701
asg44
VPT3M40.3460393S
p2112
sg192
I0
sg193
VP0DT0H0M8.2167S
p2113
sg48
(dp2114
g50
VTL Spartan HCS
p2115
sg52
Nssa(dp2116
g47
I4096745987
sg41
VWeaponDrop
p2117
sg189
I0
sg53
(lp2118
I2758383128
asg44
VPT3M40.3460393S
p2119
sg192
I0
sg193
VP0DT0H0M17.1333S
p2120
sg48
(dp2121
g50
VTL Spartan HCS
p2122
sg52
Nssa(dp2123
g47
I313138863
sg41
VWeaponDrop
p2124
sg189
I5
sg53
(lp2125
I1095363701
asg44
VPT3M40.476052S
p2126
sg192
I0
sg193
VP0DT0H0M4.0667S
p2127
sg48
(dp2128
g50
VTL Danoxide
p2129
sg52
Nssa(dp2130
g47
I723388907
sg48
(dp2131
g50
VTL Danoxide
p2132
sg52
Nssg53
(lp2133
I89283061
asg41
VWeaponPickup
p2134
sg44
VPT3M40.476052S
p2135
sa(dp2136
g47
I313138863
sg48
(dp2137
g50
VTL Spartan HCS
p2138
sg52
Nssg53
(lp2139
I1095363701
asg41
VWeaponPickup
p2140
sg44
VPT3M48.3614322S
p2141
sa(dp2142
g47
I4096745987
sg48
(dp2143
g50
VTL Spartan HCS
p2144
sg52
Nssg53
(lp2145
I2758383128
asg41
VWeaponPickup
p2146
sg44
VPT3M48.3614322S
p2147
sa(dp2148
g41
VPlayerSpawn
p2149
sg48
(dp2150
g50
VTL Spartan HCS
p2151
sg52
Nssg44
VPT3M48.3614322S
p2152
sa(dp2153
g230
I424645655
sg231
I00
sg232
I00
sg233
(dp2154
g50
VTL Danoxide
p2155
sg52
Nssg236
(lp2156
I1327094800
asg238
I00
sg239
I00
sg240
I2
sg241
I0
sg242
I0
sg243
(dp2157
Vy
F2.0373220000000001
sVx
F-4.4159459999999999
sVz
F3.1999986200000001
ssg245
(dp2158
Vy
F3.6524624800000001
sVx
F-2.4600274600000001
sVz
F3.2003424200000001
ssg247
I00
sg248
(dp2159
g469
g470
ssg251
(lp2160
sg253
(lp2161
sg257
I00
sg44
VPT3M53.4936946S
p2162
sg41
VDeath
p2163
sg260
I1
sa(dp2164
g47
I4096745987
sg41
VWeaponDrop
p2165
sg189
I0
sg53
(lp2166
I2758383128
asg44
VPT4M22.4932034S
p2167
sg192
I0
sg193
VP0DT0H0M51.7333S
p2168
sg48
(dp2169
g50
VTL Eco HCS
p2170
sg52
Nssa(dp2171
g47
I424645655
sg48
(dp2172
g50
VTL Eco HCS
p2173
sg52
Nssg53
(lp2174
I1327094800
asg41
VWeaponPickup
p2175
sg44
VPT4M22.4932034S
p2176
sa(dp2177
g47
I2492868984
sg48
(dp2178
g50
VE6 bubu dubu
p2179
sg52
Nssg53
(lp2180
I2758383128
asg41
VWeaponPickup
p2181
sg44
VPT4M33.2777308S
p2182
sa(dp2183
g230
I669296699
sg231
I00
sg232
I00
sg233
(dp2184
g50
VE6 Cratos HCS
p2185
sg52
Nssg236
(lp2186
I2758383128
asg238
I00
sg239
I01
sg240
I1
sg241
I0
sg242
I1
sg243
(dp2187
Vy
F9.6755650000000006
sVx
F14.90889
sVz
F4.1957779999999998
ssg245
(dp2188
Vy
F10.774334899999999
sVx
F-0.630877256
sVz
F2.3764448200000001
ssg247
I00
sg248
(dp2189
g50
VTL StelluR
p2190
sg52
Nssg251
(lp2191
sg253
(lp2192
(dp2193
g50
VE6 Huke HCS
p2194
sg52
Nsasg257
I00
sg44
VPT4M34.4107891S
p2195
sg41
VDeath
p2196
sg260
I1
sa(dp2197
g41
VMedal
p2198
sg48
(dp2199
g50
VE6 Cratos HCS
p2200
sg52
Nssg265
I352859864
sg44
VPT4M34.4107891S
p2201
sa(dp2202
g41
VImpulse
p2203
sg48
(dp2204
g50
VE6 Cratos HCS
p2205
sg52
Nssg271
I2556889090
sg44
VPT4M34.4107891S
p2206
sa(dp2207
g47
I723388907
sg41
VWeaponDrop
p2208
sg189
I11
sg53
(lp2209
I89283061
asg44
VPT4M34.4128068S
p2210
sg192
I9
sg193
VP0DT0H0M8.4333S
p2211
sg48
(dp2212
g50
VTL StelluR
p2213
sg52
Nssa(dp2214
g47
I4096745987
sg41
VWeaponDrop
p2215
sg189
I4
sg53
(lp2216
I2758383128
asg44
VPT4M34.4128068S
p2217
sg192
I0
sg193
VP0DT0H1M1.7833S
p2218
sg48
(dp2219
g50
VTL StelluR
p2220
sg52
Nssa(dp2221
g47
I2492868984
sg41
VWeaponDrop
p2222
sg189
I0
sg53
(lp2223
I2758383128
asg44
VPT4M34.4287893S
p2224
sg192
I0
sg193
VP0DT0H0M0.9833S
p2225
sg48
(dp2226
g50
VE6 bubu dubu
p2227
sg52
Nssa(dp2228
g230
I723388907
sg231
I00
sg232
I00
sg233
(dp2229
g50
VE6 Huke HCS
p2230
sg52
Nssg236
(lp2231
I89283061
asg238
I00
sg239
I01
sg240
I1
sg241
I0
sg242
I1
sg243
(dp2232
Vy
F10.396251700000001
sVx
F1.54444015
sVz
F1.7355144
ssg245
(dp2233
Vy
F12.653069500000001
sVx
F-3.2562685
sVz
F2.0725493400000001
ssg247
I00
sg248
(dp2234
g50
VTL Danoxide
p2235
sg52
Nssg251
(lp2236
sg253
(lp2237
(dp2238
g50
VE6 bubu dubu
p2239
sg52
Nsasg257
I00
sg44
VPT4M38.8450422S
p2240
sg41
VDeath
p2241
sg260
I1
sa(dp2242
g41
VMedal
p2243
sg48
(dp2244
g50
VE6 bubu dubu
p2245
sg52
Nssg265
I3744028405
sg44
VPT4M38.8460159S
p2246
sa(dp2247
g41
VMedal
p2248
sg48
(dp2249
g50
VE6 Huke HCS
p2250
sg52
Nssg265
I466059351
sg44
VPT4M38.8460159S
p2251
sa(dp2252
g47
I723388907
sg41
VWeaponDrop
p2253
sg189
I22
sg53
(lp2254
I89283061
asg44
VPT4M38.8470148S
p2255
sg192
I11
sg193
VP0DT0H0M3.2167S
p2256
sg48
(dp2257
g50
VTL Danoxide
p2258
sg52
Nssa(dp2259
g47
I424645655
sg41
VWeaponDrop
p2260
sg189
I33
sg53
(lp2261
I1327094800
asg44
VPT4M38.8470148S
p2262
sg192
I8
sg193
VP0DT0H1M1.7333S
p2263
sg48
(dp2264
g50
VTL Danoxide
p2265
sg52
Nssa(dp2266
g230
I313138863
sg231
I00
sg232
I00
sg233
(dp2267
g50
VTL Eco HCS
p2268
sg52
Nssg236
(lp2269
I1095363701
asg238
I00
sg239
I01
sg240
I1
sg241
I0
sg242
I1
sg243
(dp2270
Vy
F11.452199999999999
sVx
F-3.1074936399999999
sVz
F1.60634911
ssg245
(dp2271
Vy
F11.5158
sVx
F2.22071934
sVz
F2.5474505399999998
ssg247
I00
sg248
(dp2272
g50
VE6 Huke HCS
p2273
sg52
Nssg251
(lp2274
sg253
(lp2275
(dp2276
g50
VTL Danoxide
p2277
sg52
Nsasg257
I00
sg44
VPT4M40.8621198S
p2278
sg41
VDeath
p2279
sg260
I1
sa(dp2280
g47
I723388907
sg41
VWeaponDrop
p2281
sg189
I275
sg53
(lp2282
I89283061
asg44
VPT4M40.8631439S
p2283
sg192
I115
sg193
VP0DT0H2M31.3833S
p2284
sg48
(dp2285
g50
VE6 Huke HCS
p2286
sg52
Nssa(dp2287
g47
I4096745987
sg41
VWeaponDrop
p2288
sg189
I10
sg53
(lp2289
I2758383128
asg44
VPT4M40.8631439S
p2290
sg192
I5
sg193
VP0DT0H0M59.5667S
p2291
sg48
(dp2292
g50
VE6 Huke HCS
p2293
sg52
Nssa(dp2294
g47
I313138863
sg48
(dp2295
g50
VTL StelluR
p2296
sg52
Nssg53
(lp2297
I1095363701
asg41
VWeaponPickup
p2298
sg44
VPT4M42.4292189S
p2299
sa(dp2300
g47
I4096745987
sg48
(dp2301
g50
VTL StelluR
p2302
sg52
Nssg53
(lp2303
I2758383128
asg41
VWeaponPickup
p2304
sg44
VPT4M42.4292189S
p2305
sa(dp2306
g41
VPlayerSpawn
p2307
sg48
(dp2308
g50
VTL StelluR
p2309
sg52
Nssg44
VPT4M42.4292189S
p2310
sa(dp2311
g41
VMedal
p2312
sg48
(dp2313
g50
VE6 Cratos HCS
p2314
sg52
Nssg265
I1691836029
sg44
VPT4M43.6942641S
p2315
sa(dp2316
g230
I313138863
sg231
I01
sg232
I00
sg233
(dp2317
g50
VE6 bubu dubu
p2318
sg52
Nssg236
(lp2319
I1095363701
asg238
I00
sg239
I00
sg240
I1
sg241
I0
sg242
I1
sg243
(dp2320
Vy
F13.648717899999999
sVx
F-3.6721415500000001
sVz
F1.59331048
ssg245
(dp2321
Vy
F13.5043755
sVx
F-3.9877129999999998
sVz
F1.5996170000000001
ssg247
I00
sg248
(dp2322
g50
VTL Eco HCS
p2323
sg52
Nssg251
(lp2324
sg253
(lp2325
sg257
I00
sg44
VPT4M44.4283022S
p2326
sg41
VDeath
p2327
sg260
I1
sa(dp2328
g41
VMedal
p2329
sg48
(dp2330
g50
VE6 bubu dubu
p2331
sg52
Nssg265
I3270120991
sg44
VPT4M44.4283022S
p2332
sa(dp2333
g47
I313138863
sg41
VWeaponDrop
p2334
sg189
I15
sg53
(lp2335
I1095363701
asg44
VPT4M44.4293213S
p2336
sg192
I6
sg193
VP0DT0H0M7.0833S
p2337
sg48
(dp2338
g50
VTL Eco HCS
p2339
sg52
Nssa(dp2340
g47
I424645655
sg41
VWeaponDrop
p2341
sg189
I18
sg53
(lp2342
I1327094800
asg44
VPT4M44.4303018S
p2343
sg192
I9
sg193
VP0DT0H0M16.7167S
p2344
sg48
(dp2345
g50
VTL Eco HCS
p2346
sg52
Nssa(dp2347
g47
I524558978
sg41
VWeaponDrop
p2348
sg189
I1
sg53
(lp2349
I2758383128
asg44
VPT4M46.2273935S
p2350
sg192
I1
sg193
VP0DT0H0M3.3167S
p2351
sg48
(dp2352
g50
VE6 Shooter
p2353
sg52
Nssa(dp2354
g47
I524558978
sg41
VWeaponDrop
p2355
sg189
I0
sg53
(lp2356
I2758383128
asg44
VPT4M46.2273935S
p2357
sg192
I0
sg193
VP0DT0S
p2358
sg48
(dp2359
g50
VE6 Shooter
p2360
sg52
Nssa(dp2361
g47
I1579758889
sg48
(dp2362
g50
VE6 Shooter
p2363
sg52
Nssg53
(lp2364
I2758383128
asg41
VWeaponPickup
p2365
sg44
VPT4M46.2273935S
p2366
sa(dp2367
g47
I313138863
sg48
(dp2368
g50
VTL Danoxide
p2369
sg52
Nssg53
(lp2370
I1095363701
asg41
VWeaponPickup
p2371
sg44
VPT4M46.8624537S
p2372
sa(dp2373
g47
I4096745987
sg48
(dp2374
g50
VTL Danoxide
p2375
sg52
Nssg53
(lp2376
I2758383128
asg41
VWeaponPickup
p2377
sg44
VPT4M46.8624537S
p2378
sa(dp2379
g41
VPlayerSpawn
p2380
sg48
(dp2381
g50
VTL Danoxide
p2382
sg52
Nssg44
VPT4M46.863425S
p2383
sa(dp2384
g47
I313138863
sg41
VWeaponDrop
p2385
sg189
I0
sg53
(lp2386
I1095363701
asg44
VPT4M47.2104464S
p2387
sg192
I0
sg193
VP0DT0H0M0.8500S
p2388
sg48
(dp2389
g50
VTL StelluR
p2390
sg52
Nssa(dp2391
g47
I424645655
sg48
(dp2392
g50
VTL StelluR
p2393
sg52
Nssg53
(lp2394
I1327094800
asg41
VWeaponPickup
p2395
sg44
VPT4M47.2104464S
p2396
sa(dp2397
g47
I313138863
sg48
(dp2398
g50
VE6 Huke HCS
p2399
sg52
Nssg53
(lp2400
I1095363701
asg41
VWeaponPickup
p2401
sg44
VPT4M48.8785486S
p2402
sa(dp2403
g47
I4096745987
sg48
(dp2404
g50
VE6 Huke HCS
p2405
sg52
Nssg53
(lp2406
I2758383128
asg41
VWeaponPickup
p2407
sg44
VPT4M48.8785486S
p2408
sa(dp2409
g41
VPlayerSpawn
p2410
sg48
(dp2411
g50
VE6 Huke HCS
p2412
sg52
Nssg44
VPT4M48.8785486S
p2413
sa(dp2414
g47
I4096745987
sg41
VWeaponDrop
p2415
sg189
I0
sg53
(lp2416
I2758383128
asg44
VPT4M50.3936068S
p2417
sg192
I0
sg193
VP0DT0H0M2.5167S
p2418
sg48
(dp2419
g50
VTL Danoxide
p2420
sg52
Nssa(dp2421
g47
I424645655
sg48
(dp2422
g50
VTL Danoxide
p2423
sg52
Nssg53
(lp2424
I1327094800
asg41
VWeaponPickup
p2425
sg44
VPT4M50.3936068S
p2426
sa(dp2427
g47
I313138863
sg48
(dp2428
g50
VTL Eco HCS
p2429
sg52
Nssg53
(lp2430
I1095363701
asg41
VWeaponPickup
p2431
sg44
VPT4M52.4457122S
p2432
sa(dp2433
g47
I4096745987
sg48
(dp2434
g50
VTL Eco HCS
p2435
sg52
Nssg53
(lp2436
I2758383128
asg41
VWeaponPickup
p2437
sg44
VPT4M52.4457122S
p2438
sa(dp2439
g41
VPlayerSpawn
p2440
sg48
(dp2441
g50
VTL Eco HCS
p2442
sg52
Nssg44
VPT4M52.4457122S
p2443
sa(dp2444
g230
I424645655
sg231
I00
sg232
I01
sg233
(dp2445
g50
VTL StelluR
p2446
sg52
Nssg236
(lp2447
I1327094800
asg238
I00
sg239
I00
sg240
I1
sg241
I0
sg242
I1
sg243
(dp2448
Vy
F0.78673749999999998
sVx
F-3.9797272700000001
sVz
F0.1886177
ssg245
(dp2449
Vy
F0.99064964099999997
sVx
F-3.6230106399999999
sVz
F0.03260851
ssg247
I00
sg248
(dp2450
g50
VE6 Shooter
p2451
sg52
Nssg251
(lp2452
sg253
(lp2453
sg257
I00
sg44
VPT4M53.1117454S
p2454
sg41
VDeath
p2455
sg260
I1
sa(dp2456
g41
VMedal
p2457
sg48
(dp2458
g50
VTL StelluR
p2459
sg52
Nssg265
I2838259753
sg44
VPT4M53.1117454S
p2460
sa(dp2461
g41
VImpulse
p2462
sg48
(dp2463
g50
VTL StelluR
p2464
sg52
Nssg271
I2556889090
sg44
VPT4M53.1117454S
p2465
sa(dp2466
g41
VMedal
p2467
sg48
(dp2468
g50
VTL StelluR
p2469
sg52
Nssg265
I2782465081
sg44
VPT4M53.1117454S
p2470
sa(dp2471
g41
VMedal
p2472
sg48
(dp2473
g50
VTL StelluR
p2474
sg52
Nssg265
I2287626681
sg44
VPT4M53.1127656S
p2475
sa(dp2476
g47
I4096745987
sg41
VWeaponDrop
p2477
sg189
I5
sg53
(lp2478
I2758383128
asg44
VPT4M53.1127656S
p2479
sg192
I2
sg193
VP0DT0H1M13.5500S
p2480
sg48
(dp2481
g50
VE6 Shooter
p2482
sg52
Nssa(dp2483
g47
I1579758889
sg41
VWeaponDrop
p2484
sg189
I5
sg53
(lp2485
I2758383128
asg44
VPT4M53.1137639S
p2486
sg192
I4
sg193
VP0DT0H0M4.3333S
p2487
sg48
(dp2488
g50
VE6 Shooter
p2489
sg52
Nssa(dp2490
g230
I4106030681
sg231
I00
sg232
I00
sg233
(dp2491
g50
VE6 Huke HCS
p2492
sg52
Nssg236
(lp2493
sg238
I00
sg239
I00
sg240
I2
sg241
I0
sg242
I0
sg243
(dp2494
Vy
F7.1478185700000001
sVx
F22.051042599999999
sVz
F-0.00312867761
ssg245
(dp2495
Vy
F-4.2828464500000001
sVx
F21.142021199999999
sVz
F1.20812988
ssg247
I00
sg248
(dp2496
g469
g470
ssg251
(lp2497
sg253
(lp2498
sg257
I00
sg44
VPT4M55.2448559S
p2499
sg41
VDeath
p2500
sg260
I1
sa(dp2501
g230
I4096745987
sg231
I00
sg232
I00
sg233
(dp2502
g50
VE6 Huke HCS
p2503
sg52
Nssg236
(lp2504
I2758383128
asg238
I00
sg239
I01
sg240
I1
sg241
I0
sg242
I1
sg243
(dp2505
Vy
F2.3690500000000001
sVx
F16.688186600000002
sVz
F0.91397220000000001
ssg245
(dp2506
Vy
F-10.696525599999999
sVx
F14.9045849
sVz
F3.2052689999999999
ssg247
I00
sg248
(dp2507
g50
VTL Eco HCS
p2508
sg52
Nssg251
(lp2509
sg253
(lp2510
sg257
I01
sg44
VPT4M58.9110553S
p2511
sg41
VDeath
p2512
sg260
I1
sa(dp2513
g41
VMedal
p2514
sg48
(dp2515
g50
VE6 Huke HCS
p2516
sg52
Nssg265
I3261908037
sg44
VPT4M58.9140675S
p2517
sa(dp2518
g47
I313138863
sg41
VWeaponDrop
p2519
sg189
I0
sg53
(lp2520
I1095363701
asg44
VPT4M58.9140675S
p2521
sg192
I0
sg193
VP0DT0H0M0.6167S
p2522
sg48
(dp2523
g50
VTL Eco HCS
p2524
sg52
Nssa(dp2525
g47
I4096745987
sg41
VWeaponDrop
p2526
sg189
I4
sg53
(lp2527
I2758383128
asg44
VPT4M58.9140675S
p2528
sg192
I2
sg193
VP0DT0H0M5.8500S
p2529
sg48
(dp2530
g50
VTL Eco HCS
p2531
sg52
Nssa(dp2532
g230
I424645655
sg231
I00
sg232
I00
sg233
(dp2533
g50
VTL Danoxide
p2534
sg52
Nssg236
(lp2535
I1327094800
asg238
I00
sg239
I01
sg240
I1
sg241
I0
sg242
I1
sg243
(dp2536
Vy
F-3.2454190000000001
sVx
F15.2874727
sVz
F1.6876439999999999
ssg245
(dp2537
Vy
F2.1104780000000001
sVx
F16.790240000000001
sVz
F1.034853
ssg247
I00
sg248
(dp2538
g50
VE6 Huke HCS
p2539
sg52
Nssg251
(lp2540
sg253
(lp2541
(dp2542
g50
VTL Eco HCS
p2543
sg52
Nsasg257
I01
sg44
VPT4M59.2610609S
p2544
sg41
VDeath
p2545
sg260
I1
sa(dp2546
g41
VMedal
p2547
sg48
(dp2548
g50
VTL Danoxide
p2549
sg52
Nssg265
I3261908037
sg44
VPT4M59.2620615S
p2550
sa(dp2551
g47
I313138863
sg41
VWeaponDrop
p2552
sg189
I0
sg53
(lp2553
I1095363701
asg44
VPT4M59.2630791S
p2554
sg192
I0
sg193
VP0DT0H0M0.6500S
p2555
sg48
(dp2556
g50
VE6 Huke HCS
p2557
sg52
Nssa(dp2558
g47
I4096745987
sg41
VWeaponDrop
p2559
sg189
I9
sg53
(lp2560
I2758383128
asg44
VPT4M59.2630791S
p2561
sg192
I7
sg193
VP0DT0H0M9.7333S
p2562
sg48
(dp2563
g50
VE6 Huke HCS
p2564
sg52
Nssa(dp2565
g47
I313138863
sg41
VWeaponDrop
p2566
sg189
I2
sg53
(lp2567
I1095363701
asg44
VPT5M0.7941394S
p2568
sg192
I1
sg193
VP0DT0H0M5.2000S
p2569
sg48
(dp2570
g50
VE6 bubu dubu
p2571
sg52
Nssa(dp2572
g47
I313138863
sg41
VWeaponDrop
p2573
sg189
I0
sg53
(lp2574
I1095363701
asg44
VPT5M0.7941394S
p2575
sg192
I0
sg193
VP0DT0S
p2576
sg48
(dp2577
g50
VE6 bubu dubu
p2578
sg52
Nssa(dp2579
g47
I723388907
sg48
(dp2580
g50
VE6 bubu dubu
p2581
sg52
Nssg53
(lp2582
I89283061
asg41
VWeaponPickup
p2583
sg44
VPT5M0.7941394S
p2584
sa(dp2585
g47
I313138863
sg48
(dp2586
g50
VE6 Shooter
p2587
sg52
Nssg53
(lp2588
I1095363701
asg41
VWeaponPickup
p2589
sg44
VPT5M1.1281571S
p2590
sa(dp2591
g47
I4096745987
sg48
(dp2592
g50
VE6 Shooter
p2593
sg52
Nssg53
(lp2594
I2758383128
asg41
VWeaponPickup
p2595
sg44
VPT5M1.12918S
p2596
sa(dp2597
g41
VPlayerSpawn
p2598
sg48
(dp2599
g50
VE6 Shooter
p2600
sg52
Nssg44
VPT5M1.12918S
p2601
sa(dp2602
g47
I313138863
sg41
VWeaponDrop
p2603
sg189
I0
sg53
(lp2604
I1095363701
asg44
VPT5M2.8272467S
p2605
sg192
I0
sg193
VP0DT0H0M1.7000S
p2606
sg48
(dp2607
g50
VE6 Shooter
p2608
sg52
Nssa(dp2609
g47
I524558978
sg48
(dp2610
g50
VE6 Shooter
p2611
sg52
Nssg53
(lp2612
I2758383128
asg41
VWeaponPickup
p2613
sg44
VPT5M2.8272467S
p2614
sa(dp2615
g230
I424645655
sg231
I00
sg232
I00
sg233
(dp2616
g50
VE6 bubu dubu
p2617
sg52
Nssg236
(lp2618
I1327094800
asg238
I00
sg239
I01
sg240
I1
sg241
I0
sg242
I1
sg243
(dp2619
Vy
F12.4821758
sVx
F2.7967577000000001
sVz
F3.2636258599999999
ssg245
(dp2620
Vy
F13.322658499999999
sVx
F4.4363622700000001
sVz
F3.2112171599999999
ssg247
I00
sg248
(dp2621
g50
VTL StelluR
p2622
sg52
Nssg251
(lp2623
sg253
(lp2624
sg257
I01
sg44
VPT5M5.8613989S
p2625
sg41
VDeath
p2626
sg260
I1
sa(dp2627
g41
VMedal
p2628
sg48
(dp2629
g50
VE6 bubu dubu
p2630
sg52
Nssg265
I3261908037
sg44
VPT5M5.8644241S
p2631
sa(dp2632
g47
I424645655
sg41
VWeaponDrop
p2633
sg189
I17
sg53
(lp2634
I1327094800
asg44
VPT5M5.8654469S
p2635
sg192
I8
sg193
VP0DT0H0M18.6500S
p2636
sg48
(dp2637
g50
VTL StelluR
p2638
sg52
Nssa(dp2639
g47
I424645655
sg41
VWeaponDrop
p2640
sg189
I0
sg53
(lp2641
I1327094800
asg44
VPT5M5.8654469S
p2642
sg192
I0
sg193
VP0DT0S
p2643
sg48
(dp2644
g50
VTL StelluR
p2645
sg52
Nssa(dp2646
g47
I4096745987
sg41
VWeaponDrop
p2647
sg189
I0
sg53
(lp2648
I2758383128
asg44
VPT5M5.8654469S
p2649
sg192
I0
sg193
VP0DT0H0M3.9333S
p2650
sg48
(dp2651
g50
VTL StelluR
p2652
sg52
Nssa(dp2653
g230
I4106030681
sg231
I00
sg232
I00
sg233
(dp2654
g50
VTL StelluR
p2655
sg52
Nssg236
(lp2656
sg238
I00
sg239
I01
sg240
I1
sg241
I0
sg242
I1
sg243
(dp2657
Vy
F12.5716562
sVx
F4.5964965800000002
sVz
F3.0840679999999998
ssg245
(dp2658
Vy
F8.1775520000000004
sVx
F13.58281
sVz
F3.1995619999999998
ssg247
I00
sg248
(dp2659
g50
VE6 Cratos HCS
p2660
sg52
Nssg251
(lp2661
sg253
(lp2662
(dp2663
g50
VTL Danoxide
p2664
sg52
Nsa(dp2665
g50
VTL Spartan HCS
p2666
sg52
Nsasg257
I00
sg44
VPT5M6.2444194S
p2667
sg41
VDeath
p2668
sg260
I1
sa(dp2669
g41
VMedal
p2670
sg48
(dp2671
g50
VTL StelluR
p2672
sg52
Nssg265
I285057226
sg44
VPT5M6.2464185S
p2673
sa(dp2674
g47
I424645655
sg41
VWeaponDrop
p2675
sg189
I54
sg53
(lp2676
I1327094800
asg44
VPT5M6.2464185S
p2677
sg192
I19
sg193
VP0DT0H1M8.4333S
p2678
sg48
(dp2679
g50
VE6 Cratos HCS
p2680
sg52
Nssa(dp2681
g47
I669296699
sg41
VWeaponDrop
p2682
sg189
I15
sg53
(lp2683
I2758383128
asg44
VPT5M6.2484423S
p2684
sg192
I4
sg193
VP0DT0H3M35.3000S
p2685
sg48
(dp2686
g50
VE6 Cratos HCS
p2687
sg52
Nssa(dp2688
g47
I313138863
sg48
(dp2689
g50
VTL Eco HCS
p2690
sg52
Nssg53
(lp2691
I1095363701
asg41
VWeaponPickup
p2692
sg44
VPT5M6.9284539S
p2693
sa(dp2694
g47
I4096745987
sg48
(dp2695
g50
VTL Eco HCS
p2696
sg52
Nssg53
(lp2697
I2758383128
asg41
VWeaponPickup
p2698
sg44
VPT5M6.9284539S
p2699
sa(dp2700
g41
VPlayerSpawn
p2701
sg48
(dp2702
g50
VTL Eco HCS
p2703
sg52
Nssg44
VPT5M6.9284539S
p2704
sa(dp2705
g47
I313138863
sg48
(dp2706
g50
VE6 Huke HCS
p2707
sg52
Nssg53
(lp2708
I1095363701
asg41
VWeaponPickup
p2709
sg44
VPT5M7.2784721S
p2710
sa(dp2711
g47
I4096745987
sg48
(dp2712
g50
VE6 Huke HCS
p2713
sg52
Nssg53
(lp2714
I2758383128
asg41
VWeaponPickup
p2715
sg44
VPT5M7.2784721S
p2716
sa(dp2717
g41
VPlayerSpawn
p2718
sg48
(dp2719
g50
VE6 Huke HCS
p2720
sg52
Nssg44
VPT5M7.2794964S
p2721
sa(dp2722
g47
I4096745987
sg41
VWeaponDrop
p2723
sg189
I0
sg53
(lp2724
I2758383128
asg44
VPT5M8.8275526S
p2725
sg192
I0
sg193
VP0DT0H0M0.6667S
p2726
sg48
(dp2727
g50
VE6 Huke HCS
p2728
sg52
Nssa(dp2729
g47
I424645655
sg48
(dp2730
g50
VE6 Huke HCS
p2731
sg52
Nssg53
(lp2732
I1327094800
asg41
VWeaponPickup
p2733
sg44
VPT5M8.8275526S
p2734
sa(dp2735
g47
I313138863
sg41
VWeaponDrop
p2736
sg189
I0
sg53
(lp2737
I1095363701
asg44
VPT5M10.1436372S
p2738
sg192
I0
sg193
VP0DT0H0M1.8833S
p2739
sg48
(dp2740
g50
VTL Danoxide
p2741
sg52
Nssa(dp2742
g47
I2133511419
sg48
(dp2743
g50
VTL Danoxide
p2744
sg52
Nssg53
(lp2745
I2758383128
asg41
VWeaponPickup
p2746
sg44
VPT5M10.1446183S
p2747
sa(dp2748
g47
I313138863
sg48
(dp2749
g50
VTL StelluR
p2750
sg52
Nssg53
(lp2751
I1095363701
asg41
VWeaponPickup
p2752
sg44
VPT5M13.8788107S
p2753
sa(dp2754
g47
I4096745987
sg48
(dp2755
g50
VTL StelluR
p2756
sg52
Nssg53
(lp2757
I2758383128
asg41
VWeaponPickup
p2758
sg44
VPT5M13.8798092S
p2759
sa(dp2760
g41
VPlayerSpawn
p2761
sg48
(dp2762
g50
VTL StelluR
p2763
sg52
Nssg44
VPT5M13.8798092S
p2764
sa(dp2765
g230
I4096745987
sg231
I00
sg232
I00
sg233
(dp2766
g50
VE6 Shooter
p2767
sg52
Nssg236
(lp2768
I2758383128
asg238
I00
sg239
I01
sg240
I1
sg241
I0
sg242
I1
sg243
(dp2769
Vy
F2.3453721999999999
sVx
F-4.147189
sVz
F3.6382117300000001
ssg245
(dp2770
Vy
F13.2890224
sVx
F3.1529836699999998
sVz
F3.209152
ssg247
I00
sg248
(dp2771
g50
VTL Spartan HCS
p2772
sg52
Nssg251
(lp2773
sg253
(lp2774
(dp2775
g50
VE6 bubu dubu
p2776
sg52
Nsasg257
I01
sg44
VPT5M13.8798092S
p2777
sg41
VDeath
p2778
sg260
I1
sa(dp2779
g41
VMedal
p2780
sg48
(dp2781
g50
VE6 Huke HCS
p2782
sg52
Nssg265
I824733727
sg44
VPT5M13.8798092S
p2783
sa(dp2784
g41
VMedal
p2785
sg48
(dp2786
g50
VE6 Shooter
p2787
sg52
Nssg265
I3261908037
sg44
VPT5M13.8808104S
p2788
sa(dp2789
g47
I313138863
sg41
VWeaponDrop
p2790
sg189
I0
sg53
(lp2791
I1095363701
asg44
VPT5M13.8818276S
p2792
sg192
I0
sg193
VP0DT0H0M16.5167S
p2793
sg48
(dp2794
g50
VTL Spartan HCS
p2795
sg52
Nssa(dp2796
g47
I4096745987
sg41
VWeaponDrop
p2797
sg189
I22
sg53
(lp2798
I2758383128
asg44
VPT5M13.8818276S
p2799
sg192
I12
sg193
VP0DT0H1M9.0000S
p2800
sg48
(dp2801
g50
VTL Spartan HCS
p2802
sg52
Nssa(dp2803
g47
I313138863
sg48
(dp2804
g50
VE6 Cratos HCS
p2805
sg52
Nssg53
(lp2806
I1095363701
asg41
VWeaponPickup
p2807
sg44
VPT5M14.2618289S
p2808
sa(dp2809
g47
I4096745987
sg48
(dp2810
g50
VE6 Cratos HCS
p2811
sg52
Nssg53
(lp2812
I2758383128
asg41
VWeaponPickup
p2813
sg44
VPT5M14.262853S
p2814
sa(dp2815
g41
VPlayerSpawn
p2816
sg48
(dp2817
g50
VE6 Cratos HCS
p2818
sg52
Nssg44
VPT5M14.262853S
p2819
sa(dp2820
g47
I313138863
sg48
(dp2821
g50
VTL Spartan HCS
p2822
sg52
Nssg53
(lp2823
I1095363701
asg41
VWeaponPickup
p2824
sg44
VPT5M21.8952202S
p2825
sa(dp2826
g47
I4096745987
sg48
(dp2827
g50
VTL Spartan HCS
p2828
sg52
Nssg53
(lp2829
I2758383128
asg41
VWeaponPickup
p2830
sg44
VPT5M21.8952202S
p2831
sa(dp2832
g41
VPlayerSpawn
p2833
sg48
(dp2834
g50
VTL Spartan HCS
p2835
sg52
Nssg44
VPT5M21.8962389S
p2836
sa(dp2837
g47
I313138863
sg41
VWeaponDrop
p2838
sg189
I0
sg53
(lp2839
I1095363701
asg44
VPT5M24.2773423S
p2840
sg192
I0
sg193
VP0DT0H0M0.8333S
p2841
sg48
(dp2842
g50
VTL Eco HCS
p2843
sg52
Nssa(dp2844
g47
I424645655
sg48
(dp2845
g50
VTL Eco HCS
p2846
sg52
Nssg53
(lp2847
I1327094800
asg41
VWeaponPickup
p2848
sg44
VPT5M24.2773423S
p2849
sa(dp2850
g47
I4096745987
sg41
VWeaponDrop
p2851
sg189
I8
sg53
(lp2852
I2758383128
asg44
VPT5M25.3934219S
p2853
sg192
I4
sg193
VP0DT0H0M16.7167S
p2854
sg48
(dp2855
g50
VTL Eco HCS
p2856
sg52
Nssa(dp2857
g47
I669296699
sg48
(dp2858
g50
VTL Eco HCS
p2859
sg52
Nssg53
(lp2860
I2758383128
asg41
VWeaponPickup
p2861
sg44
VPT5M25.3947478S
p2862
sa(dp2863
g230
I313138863
sg231
I00
sg232
I00
sg233
(dp2864
g50
VE6 Cratos HCS
p2865
sg52
Nssg236
(lp2866
I1095363701
asg238
I00
sg239
I01
sg240
I1
sg241
I0
sg242
I1
sg243
(dp2867
Vy
F3.51263952
sVx
F10.937860499999999
sVz
F0.26554339999999999
ssg245
(dp2868
Vy
F2.9917047000000001
sVx
F8.0163539999999998
sVz
F0.49044900000000002
ssg247
I00
sg248
(dp2869
g50
VTL Danoxide
p2870
sg52
Nssg251
(lp2871
sg253
(lp2872
sg257
I00
sg44
VPT5M30.9116808S
p2873
sg41
VDeath
p2874
sg260
I1
sa(dp2875
g47
I2133511419
sg41
VWeaponDrop
p2876
sg189
I4
sg53
(lp2877
I2758383128
asg44
VPT5M30.9137054S
p2878
sg192
I2
sg193
VP0DT0H0M8.7500S
p2879
sg48
(dp2880
g50
VTL Danoxide
p2881
sg52
Nssa(dp2882
g47
I424645655
sg41
VWeaponDrop
p2883
sg189
I66
sg53
(lp2884
I1327094800
asg44
VPT5M30.9137054S
p2885
sg192
I30
sg193
VP0DT0H0M30.9000S
p2886
sg48
(dp2887
g50
VTL Danoxide
p2888
sg52
Nssa(dp2889
g230
I4096745987
sg231
I00
sg232
I00
sg233
(dp2890
g50
VTL Spartan HCS
p2891
sg52
Nssg236
(lp2892
I2758383128
asg238
I00
sg239
I01
sg240
I1
sg241
I0
sg242
I1
sg243
(dp2893
Vy
F-2.5668573399999999
sVx
F14.9025316
sVz
F-0.0059000550000000004
ssg245
(dp2894
Vy
F3.5086045299999999
sVx
F10.442780000000001
sVz
F0.87308072999999997
ssg247
I00
sg248
(dp2895
g50
VE6 Cratos HCS
p2896
sg52
Nssg251
(lp2897
sg253
(lp2898
(dp2899
g50
VTL Danoxide
p2900
sg52
Nsasg257
I01
sg44
VPT5M31.4787102S
p2901
sg41
VDeath
p2902
sg260
I1
sa(dp2903
g41
VMedal
p2904
sg48
(dp2905
g50
VTL Spartan HCS
p2906
sg52
Nssg265
I3261908037
sg44
VPT5M31.4797337S
p2907
sa(dp2908
g47
I313138863
sg41
VWeaponDrop
p2909
sg189
I22
sg53
(lp2910
I1095363701
asg44
VPT5M31.4797337S
p2911
sg192
I14
sg193
VP0DT0H0M3.7000S
p2912
sg48
(dp2913
g50
VE6 Cratos HCS
p2914
sg52
Nssa(dp2915
g47
I4096745987
sg41
VWeaponDrop
p2916
sg189
I1
sg53
(lp2917
I2758383128
asg44
VPT5M31.4797337S
p2918
sg192
I0
sg193
VP0DT0H0M13.5167S
p2919
sg48
(dp2920
g50
VE6 Cratos HCS
p2921
sg52
Nssa(dp2922
g230
I4096745987
sg231
I00
sg232
I00
sg233
(dp2923
g50
VTL StelluR
p2924
sg52
Nssg236
(lp2925
I2758383128
asg238
I00
sg239
I01
sg240
I1
sg241
I0
sg242
I1
sg243
(dp2926
Vy
F-14.0568781
sVx
F10.135307299999999
sVz
F3.9626052399999998
ssg245
(dp2927
Vy
F-10.4391479
sVx
F7.1371765099999998
sVz
F4.3180675500000003
ssg247
I00
sg248
(dp2928
g50
VE6 Shooter
p2929
sg52
Nssg251
(lp2930
sg253
(lp2931
sg257
I01
sg44
VPT5M34.1618479S
p2932
sg41
VDeath
p2933
sg260
I1
sa(dp2934
g41
VMedal
p2935
sg48
(dp2936
g50
VTL StelluR
p2937
sg52
Nssg265
I3261908037
sg44
VPT5M34.1638657S
p2938
sa(dp2939
g47
I524558978
sg41
VWeaponDrop
p2940
sg189
I7
sg53
(lp2941
I2758383128
asg44
VPT5M34.1638657S
p2942
sg192
I2
sg193
VP0DT0H0M18.2167S
p2943
sg48
(dp2944
g50
VE6 Shooter
p2945
sg52
Nssa(dp2946
g47
I524558978
sg41
VWeaponDrop
p2947
sg189
I0
sg53
(lp2948
I2758383128
asg44
VPT5M34.1638657S
p2949
sg192
I0
sg193
VP0DT0S
p2950
sg48
(dp2951
g50
VE6 Shooter
p2952
sg52
Nssa(dp2953
g47
I524558978
sg41
VWeaponDrop
p2954
sg189
I0
sg53
(lp2955
I2758383128
asg44
VPT5M34.1638657S
p2956
sg192
I0
sg193
VP0DT0S
p2957
sg48
(dp2958
g50
VE6 Shooter
p2959
sg52
Nssa(dp2960
g47
I4096745987
sg41
VWeaponDrop
p2961
sg189
I10
sg53
(lp2962
I2758383128
asg44
VPT5M34.1638657S
p2963
sg192
I3
sg193
VP0DT0H0M13.1167S
p2964
sg48
(dp2965
g50
VE6 Shooter
p2966
sg52
Nssa(dp2967
g230
I424645655
sg231
I00
sg232
I00
sg233
(dp2968
g50
VE6 Huke HCS
p2969
sg52
Nssg236
(lp2970
I1327094800
asg238
I00
sg239
I01
sg240
I1
sg241
I0
sg242
I1
sg243
(dp2971
Vy
F-11.283142099999999
sVx
F9.1171769999999999
sVz
F3.2011766399999999
ssg245
(dp2972
Vy
F-11.7917919
sVx
F11.6701765
sVz
F3.2011766399999999
ssg247
I00
sg248
(dp2973
g50
VTL StelluR
p2974
sg52
Nssg251
(lp2975
sg253
(lp2976
(dp2977
g50
VE6 Shooter
p2978
sg52
Nsasg257
I00
sg44
VPT5M35.244927S
p2979
sg41
VDeath
p2980
sg260
I1
sa(dp2981
g47
I313138863
sg41
VWeaponDrop
p2982
sg189
I0
sg53
(lp2983
I1095363701
asg44
VPT5M35.2469047S
p2984
sg192
I0
sg193
VP0DT0H0M0.7000S
p2985
sg48
(dp2986
g50
VTL StelluR
p2987
sg52
Nssa(dp2988
g47
I4096745987
sg41
VWeaponDrop
p2989
sg189
I15
sg53
(lp2990
I2758383128
asg44
VPT5M35.2469047S
p2991
sg192
I10
sg193
VP0DT0H0M20.6667S
p2992
sg48
(dp2993
g50
VTL StelluR
p2994
sg52
Nssa(dp2995
g47
I313138863
sg48
(dp2996
g50
VTL Danoxide
p2997
sg52
Nssg53
(lp2998
I1095363701
asg41
VWeaponPickup
p2999
sg44
VPT5M38.9290925S
p3000
sa(dp3001
g47
I4096745987
sg48
(dp3002
g50
VTL Danoxide
p3003
sg52
Nssg53
(lp3004
I2758383128
asg41
VWeaponPickup
p3005
sg44
VPT5M38.930263S
p3006
sa(dp3007
g41
VPlayerSpawn
p3008
sg48
(dp3009
g50
VTL Danoxide
p3010
sg52
Nssg44
VPT5M38.930263S
p3011
sa(dp3012
g47
I313138863
sg48
(dp3013
g50
VE6 Cratos HCS
p3014
sg52
Nssg53
(lp3015
I1095363701
asg41
VWeaponPickup
p3016
sg44
VPT5M39.4951206S
p3017
sa(dp3018
g47
I4096745987
sg48
(dp3019
g50
VE6 Cratos HCS
p3020
sg52
Nssg53
(lp3021
I2758383128
asg41
VWeaponPickup
p3022
sg44
VPT5M39.4961436S
p3023
sa(dp3024
g41
VPlayerSpawn
p3025
sg48
(dp3026
g50
VE6 Cratos HCS
p3027
sg52
Nssg44
VPT5M39.4961436S
p3028
sa(dp3029
g47
I313138863
sg48
(dp3030
g50
VE6 Shooter
p3031
sg52
Nssg53
(lp3032
I1095363701
asg41
VWeaponPickup
p3033
sg44
VPT5M42.1792601S
p3034
sa(dp3035
g47
I4096745987
sg48
(dp3036
g50
VE6 Shooter
p3037
sg52
Nssg53
(lp3038
I2758383128
asg41
VWeaponPickup
p3039
sg44
VPT5M42.1792601S
p3040
sa(dp3041
g41
VPlayerSpawn
p3042
sg48
(dp3043
g50
VE6 Shooter
p3044
sg52
Nssg44
VPT5M42.1792601S
p3045
sa(dp3046
g47
I313138863
sg48
(dp3047
g50
VTL StelluR
p3048
sg52
Nssg53
(lp3049
I1095363701
asg41
VWeaponPickup
p3050
sg44
VPT5M43.2623314S
p3051
sa(dp3052
g47
I4096745987
sg48
(dp3053
g50
VTL StelluR
p3054
sg52
Nssg53
(lp3055
I2758383128
asg41
VWeaponPickup
p3056
sg44
VPT5M43.2623314S
p3057
sa(dp3058
g41
VPlayerSpawn
p3059
sg48
(dp3060
g50
VTL StelluR
p3061
sg52
Nssg44
VPT5M43.2623314S
p3062
sa(dp3063
g230
I4096745987
sg231
I00
sg232
I00
sg233
(dp3064
g50
VE6 Cratos HCS
p3065
sg52
Nssg236
(lp3066
I2758383128
asg238
I00
sg239
I01
sg240
I1
sg241
I0
sg242
I1
sg243
(dp3067
Vy
F-10.185912099999999
sVx
F6.3341019999999997
sVz
F3.3511865099999998
ssg245
(dp3068
Vy
F-14.510147099999999
sVx
F13.8502378
sVz
F3.20117545
ssg247
I00
sg248
(dp3069
g50
VTL Spartan HCS
p3070
sg52
Nssg251
(lp3071
sg253
(lp3072
(dp3073
g50
VE6 Huke HCS
p3074
sg52
Nsasg257
I01
sg44
VPT5M44.1613597S
p3075
sg41
VDeath
p3076
sg260
I1
sa(dp3077
g41
VMedal
p3078
sg48
(dp3079
g50
VE6 Cratos HCS
p3080
sg52
Nssg265
I3261908037
sg44
VPT5M44.1633606S
p3081
sa(dp3082
g47
I313138863
sg41
VWeaponDrop
p3083
sg189
I0
sg53
(lp3084
I1095363701
asg44
VPT5M44.1633606S
p3085
sg192
I0
sg193
VP0DT0H0M9.6167S
p3086
sg48
(dp3087
g50
VTL Spartan HCS
p3088
sg52
Nssa(dp3089
g47
I4096745987
sg41
VWeaponDrop
p3090
sg189
I14
sg53
(lp3091
I2758383128
asg44
VPT5M44.1633606S
p3092
sg192
I8
sg193
VP0DT0H0M12.6500S
p3093
sg48
(dp3094
g50
VTL Spartan HCS
p3095
sg52
Nssa(dp3096
g230
I313138863
sg231
I00
sg232
I00
sg233
(dp3097
g50
VTL Danoxide
p3098
sg52
Nssg236
(lp3099
I1095363701
asg238
I00
sg239
I01
sg240
I1
sg241
I0
sg242
I1
sg243
(dp3100
Vy
F-4.9365773199999996
sVx
F7.9615163799999999
sVz
F3.19718575
ssg245
(dp3101
Vy
F-5.3837165799999998
sVx
F10.1524944
sVz
F1.12098527
ssg247
I00
sg248
(dp3102
g50
VE6 Cratos HCS
p3103
sg52
Nssg251
(lp3104
sg253
(lp3105
sg257
I00
sg44
VPT5M52.0787647S
p3106
sg41
VDeath
p3107
sg260
I1
sa(dp3108
g47
I313138863
sg41
VWeaponDrop
p3109
sg189
I0
sg53
(lp3110
I1095363701
asg44
VPT5M52.0797827S
p3111
sg192
I0
sg193
VP0DT0H0M3.5833S
p3112
sg48
(dp3113
g50
VE6 Cratos HCS
p3114
sg52
Nssa(dp3115
g47
I4096745987
sg41
VWeaponDrop
p3116
sg189
I4
sg53
(lp3117
I2758383128
asg44
VPT5M52.0807659S
p3118
sg192
I4
sg193
VP0DT0H0M9.0000S
p3119
sg48
(dp3120
g50
VE6 Cratos HCS
p3121
sg52
Nssa(dp3122
g47
I313138863
sg48
(dp3123
g50
VTL Spartan HCS
p3124
sg52
Nssg53
(lp3125
I1095363701
asg41
VWeaponPickup
p3126
sg44
VPT5M52.1797903S
p3127
sa(dp3128
g47
I4096745987
sg48
(dp3129
g50
VTL Spartan HCS
p3130
sg52
Nssg53
(lp3131
I2758383128
asg41
VWeaponPickup
p3132
sg44
VPT5M52.1797903S
p3133
sa(dp3134
g41
VPlayerSpawn
p3135
sg48
(dp3136
g50
VTL Spartan HCS
p3137
sg52
Nssg44
VPT5M52.1797903S
p3138
sa(dp3139
g230
I424645655
sg231
I00
sg232
I00
sg233
(dp3140
g50
VTL Eco HCS
p3141
sg52
Nssg236
(lp3142
I1327094800
asg238
I00
sg239
I01
sg240
I1
sg241
I0
sg242
I1
sg243
(dp3143
Vy
F4.6544914200000003
sVx
F14.883172
sVz
F-0.00590002537
ssg245
(dp3144
Vy
F3.1040213099999998
sVx
F8.7195
sVz
F-0.054921360000000002
ssg247
I00
sg248
(dp3145
g50
VE6 bubu dubu
p3146
sg52
Nssg251
(lp3147
sg253
(lp3148
(dp3149
g50
VTL StelluR
p3150
sg52
Nsasg257
I01
sg44
VPT5M53.6628699S
p3151
sg41
VDeath
p3152
sg260
I1
sa(dp3153
g41
VMedal
p3154
sg48
(dp3155
g50
VTL Eco HCS
p3156
sg52
Nssg265
I3261908037
sg44
VPT5M53.6638695S
p3157
sa(dp3158
g47
I723388907
sg41
VWeaponDrop
p3159
sg189
I34
sg53
(lp3160
I89283061
asg44
VPT5M53.6648701S
p3161
sg192
I18
sg193
VP0DT0H0M12.0167S
p3162
sg48
(dp3163
g50
VE6 bubu dubu
p3164
sg52
Nssa(dp3165
g47
I424645655
sg41
VWeaponDrop
p3166
sg189
I69
sg53
(lp3167
I1327094800
asg44
VPT5M53.6648701S
p3168
sg192
I33
sg193
VP0DT0H2M24.5500S
p3169
sg48
(dp3170
g50
VE6 bubu dubu
p3171
sg52
Nssa(dp3172
g47
I424645655
sg41
VWeaponDrop
p3173
sg189
I0
sg53
(lp3174
I1327094800
asg44
VPT5M53.6648701S
p3175
sg192
I0
sg193
VP0DT0S
p3176
sg48
(dp3177
g50
VE6 bubu dubu
p3178
sg52
Nssa(dp3179
g230
I313138863
sg231
I00
sg232
I01
sg233
(dp3180
g50
VTL StelluR
p3181
sg52
Nssg236
(lp3182
I1095363701
asg238
I00
sg239
I00
sg240
I1
sg241
I0
sg242
I1
sg243
(dp3183
Vy
F6.2629099999999998
sVx
F-11.594162000000001
sVz
F1.59730971
ssg245
(dp3184
Vy
F5.9403214499999999
sVx
F-11.8740025
sVz
F1.5922480800000001
ssg247
I00
sg248
(dp3185
g50
VE6 Shooter
p3186
sg52
Nssg251
(lp3187
sg253
(lp3188
sg257
I00
sg44
VPT5M59.5791513S
p3189
sg41
VDeath
p3190
sg260
I1
sa(dp3191
g41
VMedal
p3192
sg48
(dp3193
g50
VTL StelluR
p3194
sg52
Nssg265
I2782465081
sg44
VPT5M59.5791513S
p3195
sa(dp3196
g41
VMedal
p3197
sg48
(dp3198
g50
VTL StelluR
p3199
sg52
Nssg265
I250435527
sg44
VPT5M59.5801693S
p3200
sa(dp3201
g47
I313138863
sg41
VWeaponDrop
p3202
sg189
I36
sg53
(lp3203
I1095363701
asg44
VPT5M59.5801693S
p3204
sg192
I10
sg193
VP0DT0H0M12.1167S
p3205
sg48
(dp3206
g50
VE6 Shooter
p3207
sg52
Nssa(dp3208
g47
I313138863
sg41
VWeaponDrop
p3209
sg189
I0
sg53
(lp3210
I1095363701
asg44
VPT5M59.5801693S
p3211
sg192
I0
sg193
VP0DT0S
p3212
sg48
(dp3213
g50
VE6 Shooter
p3214
sg52
Nssa(dp3215
g47
I4096745987
sg41
VWeaponDrop
p3216
sg189
I0
sg53
(lp3217
I2758383128
asg44
VPT5M59.5811511S
p3218
sg192
I0
sg193
VP0DT0H0M5.2833S
p3219
sg48
(dp3220
g50
VE6 Shooter
p3221
sg52
Nssa(dp3222
g230
I313138863
sg231
I00
sg232
I01
sg233
(dp3223
g50
VE6 Shooter
p3224
sg52
Nssg236
(lp3225
I1095363701
asg238
I00
sg239
I00
sg240
I1
sg241
I0
sg242
I1
sg243
(dp3226
Vy
F5.9403214499999999
sVx
F-11.8740025
sVz
F1.81724811
ssg245
(dp3227
Vy
F6.2629099999999998
sVx
F-11.594162000000001
sVz
F1.59730971
ssg247
I00
sg248
(dp3228
g50
VTL StelluR
p3229
sg52
Nssg251
(lp3230
sg253
(lp3231
sg257
I00
sg44
VPT5M59.5811511S
p3232
sg41
VDeath
p3233
sg260
I1
sa(dp3234
g41
VMedal
p3235
sg48
(dp3236
g50
VE6 Shooter
p3237
sg52
Nssg265
I250435527
sg44
VPT5M59.5811511S
p3238
sa(dp3239
g47
I313138863
sg41
VWeaponDrop
p3240
sg189
I22
sg53
(lp3241
I1095363701
asg44
VPT5M59.5821684S
p3242
sg192
I8
sg193
VP0DT0H0M5.4000S
p3243
sg48
(dp3244
g50
VTL StelluR
p3245
sg52
Nssa(dp3246
g47
I313138863
sg41
VWeaponDrop
p3247
sg189
I0
sg53
(lp3248
I1095363701
asg44
VPT5M59.5821684S
p3249
sg192
I0
sg193
VP0DT0S
p3250
sg48
(dp3251
g50
VTL StelluR
p3252
sg52
Nssa(dp3253
g47
I4096745987
sg41
VWeaponDrop
p3254
sg189
I10
sg53
(lp3255
I2758383128
asg44
VPT5M59.5831512S
p3256
sg192
I5
sg193
VP0DT0H0M10.9167S
p3257
sg48
(dp3258
g50
VTL StelluR
p3259
sg52
Nssa(dp3260
g47
I313138863
sg48
(dp3261
g50
VE6 Cratos HCS
p3262
sg52
Nssg53
(lp3263
I1095363701
asg41
VWeaponPickup
p3264
sg44
VPT6M0.0961942S
p3265
sa(dp3266
g47
I4096745987
sg48
(dp3267
g50
VE6 Cratos HCS
p3268
sg52
Nssg53
(lp3269
I2758383128
asg41
VWeaponPickup
p3270
sg44
VPT6M0.0961942S
p3271
sa(dp3272
g41
VPlayerSpawn
p3273
sg48
(dp3274
g50
VE6 Cratos HCS
p3275
sg52
Nssg44
VPT6M0.0961942S
p3276
sa(dp3277
g230
I4106030681
sg231
I00
sg232
I00
sg233
(dp3278
g50
VTL Spartan HCS
p3279
sg52
Nssg236
(lp3280
sg238
I00
sg239
I01
sg240
I1
sg241
I0
sg242
I1
sg243
(dp3281
Vy
F-7.5979549999999998
sVx
F-3.4390461399999999
sVz
F3.7045502699999999
ssg245
(dp3282
Vy
F-9.813447
sVx
F2.4905688800000001
sVz
F3.3971486099999999
ssg247
I00
sg248
(dp3283
g50
VE6 Huke HCS
p3284
sg52
Nssg251
(lp3285
sg253
(lp3286
sg257
I00
sg44
VPT6M1.0122225S
p3287
sg41
VDeath
p3288
sg260
I1
sa(dp3289
g41
VMedal
p3290
sg48
(dp3291
g50
VTL Spartan HCS
p3292
sg52
Nssg265
I2838259753
sg44
VPT6M1.0122225S
p3293
sa(dp3294
g41
VImpulse
p3295
sg48
(dp3296
g50
VTL Spartan HCS
p3297
sg52
Nssg271
I2556889090
sg44
VPT6M1.0122225S
p3298
sa(dp3299
g41
VMedal
p3300
sg48
(dp3301
g50
VTL Danoxide
p3302
sg52
Nssg265
I824733727
sg44
VPT6M1.0122225S
p3303
sa(dp3304
g47
I313138863
sg41
VWeaponDrop
p3305
sg189
I0
sg53
(lp3306
I1095363701
asg44
VPT6M1.0132631S
p3307
sg192
I0
sg193
VP0DT0H0M1.2000S
p3308
sg48
(dp3309
g50
VE6 Huke HCS
p3310
sg52
Nssa(dp3311
g47
I424645655
sg41
VWeaponDrop
p3312
sg189
I42
sg53
(lp3313
I1327094800
asg44
VPT6M1.0132631S
p3314
sg192
I24
sg193
VP0DT0H0M51.8667S
p3315
sg48
(dp3316
g50
VE6 Huke HCS
p3317
sg52
Nssa(dp3318
g47
I313138863
sg48
(dp3319
g50
VE6 bubu dubu
p3320
sg52
Nssg53
(lp3321
I1095363701
asg41
VWeaponPickup
p3322
sg44
VPT6M1.6792745S
p3323
sa(dp3324
g47
I4096745987
sg48
(dp3325
g50
VE6 bubu dubu
p3326
sg52
Nssg53
(lp3327
I2758383128
asg41
VWeaponPickup
p3328
sg44
VPT6M1.6792745S
p3329
sa(dp3330
g41
VPlayerSpawn
p3331
sg48
(dp3332
g50
VE6 bubu dubu
p3333
sg52
Nssg44
VPT6M1.6792745S
p3334
sa(dp3335
g47
I313138863
sg41
VWeaponDrop
p3336
sg189
I0
sg53
(lp3337
I1095363701
asg44
VPT6M1.8449258S
p3338
sg192
I0
sg193
VP0DT0H0M0.9833S
p3339
sg48
(dp3340
g50
VE6 Cratos HCS
p3341
sg52
Nssa(dp3342
g47
I723388907
sg48
(dp3343
g50
VE6 Cratos HCS
p3344
sg52
Nssg53
(lp3345
I89283061
asg41
VWeaponPickup
p3346
sg44
VPT6M1.8449258S
p3347
sa(dp3348
g47
I313138863
sg41
VWeaponDrop
p3349
sg189
I23
sg53
(lp3350
I1095363701
asg44
VPT6M2.7113328S
p3351
sg192
I9
sg193
VP0DT0H0M7.3833S
p3352
sg48
(dp3353
g50
VTL Danoxide
p3354
sg52
Nssa(dp3355
g47
I2133511419
sg48
(dp3356
g50
VTL Danoxide
p3357
sg52
Nssg53
(lp3358
I2758383128
asg41
VWeaponPickup
p3359
sg44
VPT6M2.7113328S
p3360
sa(dp3361
g47
I4096745987
sg41
VWeaponDrop
p3362
sg189
I0
sg53
(lp3363
I2758383128
asg44
VPT6M4.7614523S
p3364
sg192
I0
sg193
VP0DT0H0M2.4000S
p3365
sg48
(dp3366
g50
VE6 bubu dubu
p3367
sg52
Nssa(dp3368
g47
I424645655
sg48
(dp3369
g50
VE6 bubu dubu
p3370
sg52
Nssg53
(lp3371
I1327094800
asg41
VWeaponPickup
p3372
sg44
VPT6M4.7614523S
p3373
sa(dp3374
g47
I313138863
sg48
(dp3375
g50
VE6 Shooter
p3376
sg52
Nssg53
(lp3377
I1095363701
asg41
VWeaponPickup
p3378
sg44
VPT6M7.5965598S
p3379
sa(dp3380
g47
I4096745987
sg48
(dp3381
g50
VE6 Shooter
p3382
sg52
Nssg53
(lp3383
I2758383128
asg41
VWeaponPickup
p3384
sg44
VPT6M7.5965598S
p3385
sa(dp3386
g41
VPlayerSpawn
p3387
sg48
(dp3388
g50
VE6 Shooter
p3389
sg52
Nssg44
VPT6M7.5965598S
p3390
sa(dp3391
g47
I313138863
sg48
(dp3392
g50
VTL StelluR
p3393
sg52
Nssg53
(lp3394
I1095363701
asg41
VWeaponPickup
p3395
sg44
VPT6M7.6295857S
p3396
sa(dp3397
g47
I4096745987
sg48
(dp3398
g50
VTL StelluR
p3399
sg52
Nssg53
(lp3400
I2758383128
asg41
VWeaponPickup
p3401
sg44
VPT6M7.6295857S
p3402
sa(dp3403
g41
VPlayerSpawn
p3404
sg48
(dp3405
g50
VTL StelluR
p3406
sg52
Nssg44
VPT6M7.6295857S
p3407
sa(dp3408
g47
I4096745987
sg41
VWeaponDrop
p3409
sg189
I5
sg53
(lp3410
I2758383128
asg44
VPT6M9.0276576S
p3411
sg192
I2
sg193
VP0DT0H0M12.2167S
p3412
sg48
(dp3413
g50
VTL Spartan HCS
p3414
sg52
Nssa(dp3415
g47
I2511447508
sg48
(dp3416
g50
VTL Spartan HCS
p3417
sg52
Nssg53
(lp3418
I2758383128
asg41
VWeaponPickup
p3419
sg44
VPT6M9.0276576S
p3420
sa(dp3421
g47
I313138863
sg48
(dp3422
g50
VE6 Huke HCS
p3423
sg52
Nssg53
(lp3424
I1095363701
asg41
VWeaponPickup
p3425
sg44
VPT6M9.0296327S
p3426
sa(dp3427
g47
I4096745987
sg48
(dp3428
g50
VE6 Huke HCS
p3429
sg52
Nssg53
(lp3430
I2758383128
asg41
VWeaponPickup
p3431
sg44
VPT6M9.0306533S
p3432
sa(dp3433
g41
VPlayerSpawn
p3434
sg48
(dp3435
g50
VE6 Huke HCS
p3436
sg52
Nssg44
VPT6M9.0306533S
p3437
sa(dp3438
g47
I313138863
sg41
VWeaponDrop
p3439
sg189
I0
sg53
(lp3440
I1095363701
asg44
VPT6M9.8116732S
p3441
sg192
I0
sg193
VP0DT0H0M1.2500S
p3442
sg48
(dp3443
g50
VE6 Shooter
p3444
sg52
Nssa(dp3445
g47
I524558978
sg48
(dp3446
g50
VE6 Shooter
p3447
sg52
Nssg53
(lp3448
I2758383128
asg41
VWeaponPickup
p3449
sg44
VPT6M9.8116732S
p3450
sa(dp3451
g230
I669296699
sg231
I00
sg232
I00
sg233
(dp3452
g50
VTL Eco HCS
p3453
sg52
Nssg236
(lp3454
I2758383128
asg238
I00
sg239
I01
sg240
I1
sg241
I0
sg242
I1
sg243
(dp3455
Vy
F11.587600699999999
sVx
F16.658828700000001
sVz
F3.1995623100000001
ssg245
(dp3456
Vy
F-14.3356028
sVx
F14.872948600000001
sVz
F3.2011766399999999
ssg247
I00
sg248
(dp3457
g50
VE6 Huke HCS
p3458
sg52
Nssg251
(lp3459
sg253
(lp3460
sg257
I01
sg44
VPT6M11.0787391S
p3461
sg41
VDeath
p3462
sg260
I1
sa(dp3463
g41
VMedal
p3464
sg48
(dp3465
g50
VTL Eco HCS
p3466
sg52
Nssg265
I848240062
sg44
VPT6M11.0797621S
p3467
sa(dp3468
g47
I313138863
sg41
VWeaponDrop
p3469
sg189
I0
sg53
(lp3470
I1095363701
asg44
VPT6M11.0837613S
p3471
sg192
I0
sg193
VP0DT0H0M0.9000S
p3472
sg48
(dp3473
g50
VE6 Huke HCS
p3474
sg52
Nssa(dp3475
g47
I4096745987
sg41
VWeaponDrop
p3476
sg189
I0
sg53
(lp3477
I2758383128
asg44
VPT6M11.0837613S
p3478
sg192
I0
sg193
VP0DT0H0M1.1500S
p3479
sg48
(dp3480
g50
VE6 Huke HCS
p3481
sg52
Nssa(dp3482
g47
I313138863
sg41
VWeaponDrop
p3483
sg189
I0
sg53
(lp3484
I1095363701
asg44
VPT6M11.9607831S
p3485
sg192
I0
sg193
VP0DT0H0M6.8500S
p3486
sg48
(dp3487
g50
VTL Spartan HCS
p3488
sg52
Nssa(dp3489
g47
I1579758889
sg48
(dp3490
g50
VTL Spartan HCS
p3491
sg52
Nssg53
(lp3492
I2758383128
asg41
VWeaponPickup
p3493
sg44
VPT6M11.9617832S
p3494
sa(dp3495
g47
I313138863
sg41
VWeaponDrop
p3496
sg189
I0
sg53
(lp3497
I1095363701
asg44
VPT6M16.2110015S
p3498
sg192
I0
sg193
VP0DT0H0M1.2833S
p3499
sg48
(dp3500
g50
VTL StelluR
p3501
sg52
Nssa(dp3502
g47
I424645655
sg48
(dp3503
g50
VTL StelluR
p3504
sg52
Nssg53
(lp3505
I1327094800
asg41
VWeaponPickup
p3506
sg44
VPT6M16.2110015S
p3507
sa(dp3508
g47
I313138863
sg48
(dp3509
g50
VE6 Huke HCS
p3510
sg52
Nssg53
(lp3511
I1095363701
asg41
VWeaponPickup
p3512
sg44
VPT6M19.0961734S
p3513
sa(dp3514
g47
I4096745987
sg48
(dp3515
g50
VE6 Huke HCS
p3516
sg52
Nssg53
(lp3517
I2758383128
asg41
VWeaponPickup
p3518
sg44
VPT6M19.0971697S
p3519
sa(dp3520
g41
VPlayerSpawn
p3521
sg48
(dp3522
g50
VE6 Huke HCS
p3523
sg52
Nssg44
VPT6M19.0971697S
p3524
sa(dp3525
g230
I2133511419
sg231
I00
sg232
I01
sg233
(dp3526
g50
VTL Danoxide
p3527
sg52
Nssg236
(lp3528
I2758383128
asg238
I00
sg239
I00
sg240
I1
sg241
I0
sg242
I1
sg243
(dp3529
Vy
F14.016848599999999
sVx
F-4.6320399999999999
sVz
F1.5997303700000001
ssg245
(dp3530
Vy
F13.948914500000001
sVx
F-4.2303156900000003
sVz
F1.5954483699999999
ssg247
I00
sg248
(dp3531
g50
VE6 Cratos HCS
p3532
sg52
Nssg251
(lp3533
sg253
(lp3534
sg257
I00
sg44
VPT6M25.2964677S
p3535
sg41
VDeath
p3536
sg260
I1
sa(dp3537
g41
VMedal
p3538
sg48
(dp3539
g50
VTL Danoxide
p3540
sg52
Nssg265
I250435527
sg44
VPT6M25.2974658S
p3541
sa(dp3542
g47
I723388907
sg41
VWeaponDrop
p3543
sg189
I17
sg53
(lp3544
I89283061
asg44
VPT6M25.2984679S
p3545
sg192
I8
sg193
VP0DT0H0M14.6667S
p3546
sg48
(dp3547
g50
VE6 Cratos HCS
p3548
sg52
Nssa(dp3549
g47
I723388907
sg41
VWeaponDrop
p3550
sg189
I0
sg53
(lp3551
I89283061
asg44
VPT6M25.2984679S
p3552
sg192
I0
sg193
VP0DT0S
p3553
sg48
(dp3554
g50
VE6 Cratos HCS
p3555
sg52
Nssa(dp3556
g47
I4096745987
sg41
VWeaponDrop
p3557
sg189
I0
sg53
(lp3558
I2758383128
asg44
VPT6M25.2984679S
p3559
sg192
I0
sg193
VP0DT0H0M9.5500S
p3560
sg48
(dp3561
g50
VE6 Cratos HCS
p3562
sg52
Nssa(dp3563
g47
I313138863
sg41
VWeaponDrop
p3564
sg189
I0
sg53
(lp3565
I1095363701
asg44
VPT6M25.6127928S
p3566
sg192
I0
sg193
VPT0S
p3567
sg48
(dp3568
g50
VE6 Shooter
p3569
sg52
Nssa(dp3570
g230
I723388907
sg231
I00
sg232
I01
sg233
(dp3571
g50
VE6 Cratos HCS
p3572
sg52
Nssg236
(lp3573
I89283061
asg238
I00
sg239
I00
sg240
I1
sg241
I0
sg242
I1
sg243
(dp3574
Vy
F13.7406673
sVx
F-3.5612587900000001
sVz
F2.5993556999999998
ssg245
(dp3575
Vy
F13.867446899999999
sVx
F-4.6635866200000002
sVz
F1.6006602000000001
ssg247
I00
sg248
(dp3576
g50
VTL Danoxide
p3577
sg52
Nssg251
(lp3578
sg253
(lp3579
sg257
I00
sg44
VPT6M25.6624833S
p3580
sg41
VDeath
p3581
sg260
I1
sa(dp3582
g41
VMedal
p3583
sg48
(dp3584
g50
VE6 Cratos HCS
p3585
sg52
Nssg265
I2287626681
sg44
VPT6M25.6634851S
p3586
sa(dp3587
g41
VMedal
p3588
sg48
(dp3589
g50
VE6 Cratos HCS
p3590
sg52
Nssg265
I285057226
sg44
VPT6M25.6634851S
p3591
sa(dp3592
g47
I2133511419
sg41
VWeaponDrop
p3593
sg189
I11
sg53
(lp3594
I2758383128
asg44
VPT6M25.6644831S
p3595
sg192
I11
sg193
VP0DT0H0M13.3333S
p3596
sg48
(dp3597
g50
VTL Danoxide
p3598
sg52
Nssa(dp3599
g47
I2133511419
sg41
VWeaponDrop
p3600
sg189
I0
sg53
(lp3601
I2758383128
asg44
VPT6M25.6644831S
p3602
sg192
I0
sg193
VP0DT0S
p3603
sg48
(dp3604
g50
VTL Danoxide
p3605
sg52
Nssa(dp3606
g47
I4096745987
sg41
VWeaponDrop
p3607
sg189
I0
sg53
(lp3608
I2758383128
asg44
VPT6M25.6644831S
p3609
sg192
I0
sg193
VP0DT0H0M26.0167S
p3610
sg48
(dp3611
g50
VTL Danoxide
p3612
sg52
Nssa(dp3613
g230
I4106030681
sg231
I00
sg232
I00
sg233
(dp3614
g50
VE6 Shooter
p3615
sg52
Nssg236
(lp3616
sg238
I00
sg239
I01
sg240
I1
sg241
I0
sg242
I1
sg243
(dp3617
Vy
F-9.1673910000000003
sVx
F0.59220743200000003
sVz
F3.2015726600000001
ssg245
(dp3618
Vy
F-10.9266109
sVx
F8.4083699999999997
sVz
F4.0014770000000004
ssg247
I00
sg248
(dp3619
g50
VTL StelluR
p3620
sg52
Nssg251
(lp3621
sg253
(lp3622
sg257
I00
sg44
VPT6M27.8125953S
p3623
sg41
VDeath
p3624
sg260
I1
sa(dp3625
g47
I424645655
sg41
VWeaponDrop
p3626
sg189
I3
sg53
(lp3627
I1327094800
asg44
VPT6M27.8136123S
p3628
sg192
I1
sg193
VP0DT0H0M11.6000S
p3629
sg48
(dp3630
g50
VTL StelluR
p3631
sg52
Nssa(dp3632
g47
I4096745987
sg41
VWeaponDrop
p3633
sg189
I0
sg53
(lp3634
I2758383128
asg44
VPT6M27.8136123S
p3635
sg192
I0
sg193
VP0DT0H0M7.3000S
p3636
sg48
(dp3637
g50
VTL StelluR
p3638
sg52
Nssa(dp3639
g47
I313138863
sg48
(dp3640
g50
VE6 Cratos HCS
p3641
sg52
Nssg53
(lp3642
I1095363701
asg41
VWeaponPickup
p3643
sg44
VPT6M33.3128994S
p3644
sa(dp3645
g47
I4096745987
sg48
(dp3646
g50
VE6 Cratos HCS
p3647
sg52
Nssg53
(lp3648
I2758383128
asg41
VWeaponPickup
p3649
sg44
VPT6M33.3128994S
p3650
sa(dp3651
g41
VPlayerSpawn
p3652
sg48
(dp3653
g50
VE6 Cratos HCS
p3654
sg52
Nssg44
VPT6M33.3128994S
p3655
sa(dp3656
g47
I313138863
sg48
(dp3657
g50
VTL Danoxide
p3658
sg52
Nssg53
(lp3659
I1095363701
asg41
VWeaponPickup
p3660
sg44
VPT6M33.6798963S
p3661
sa(dp3662
g47
I4096745987
sg48
(dp3663
g50
VTL Danoxide
p3664
sg52
Nssg53
(lp3665
I2758383128
asg41
VWeaponPickup
p3666
sg44
VPT6M33.6798963S
p3667
sa(dp3668
g41
VPlayerSpawn
p3669
sg48
(dp3670
g50
VTL Danoxide
p3671
sg52
Nssg44
VPT6M33.6798963S
p3672
sa(dp3673
g47
I2492868984
sg48
(dp3674
g50
VE6 Huke HCS
p3675
sg52
Nssg53
(lp3676
I2758383128
asg41
VWeaponPickup
p3677
sg44
VPT6M35.1949746S
p3678
sa(dp3679
g47
I313138863
sg48
(dp3680
g50
VTL StelluR
p3681
sg52
Nssg53
(lp3682
I1095363701
asg41
VWeaponPickup
p3683
sg44
VPT6M35.8300291S
p3684
sa(dp3685
g47
I4096745987
sg48
(dp3686
g50
VTL StelluR
p3687
sg52
Nssg53
(lp3688
I2758383128
asg41
VWeaponPickup
p3689
sg44
VPT6M35.8300291S
p3690
sa(dp3691
g41
VPlayerSpawn
p3692
sg48
(dp3693
g50
VTL StelluR
p3694
sg52
Nssg44
VPT6M35.8300291S
p3695
sa(dp3696
g47
I2492868984
sg41
VWeaponDrop
p3697
sg189
I0
sg53
(lp3698
I2758383128
asg44
VPT6M36.3630323S
p3699
sg192
I0
sg193
VP0DT0H0M1.0000S
p3700
sg48
(dp3701
g50
VE6 Huke HCS
p3702
sg52
Nssa(dp3703
g230
I4096745987
sg231
I00
sg232
I00
sg233
(dp3704
g50
VE6 Shooter
p3705
sg52
Nssg236
(lp3706
I2758383128
asg238
I00
sg239
I01
sg240
I1
sg241
I0
sg242
I1
sg243
(dp3707
Vy
F-0.65294176299999995
sVx
F6.8720612499999998
sVz
F3.7244164899999999
ssg245
(dp3708
Vy
F-1.32392347
sVx
F22.092971800000001
sVz
F0.3872254
ssg247
I00
sg248
(dp3709
g50
VTL Eco HCS
p3710
sg52
Nssg251
(lp3711
sg253
(lp3712
sg257
I01
sg44
VPT6M37.5291168S
p3713
sg41
VDeath
p3714
sg260
I1
sa(dp3715
g41
VMedal
p3716
sg48
(dp3717
g50
VE6 Shooter
p3718
sg52
Nssg265
I3261908037
sg44
VPT6M37.5311181S
p3719
sa(dp3720
g47
I424645655
sg41
VWeaponDrop
p3721
sg189
I18
sg53
(lp3722
I1327094800
asg44
VPT6M37.5320943S
p3723
sg192
I7
sg193
VP0DT0H0M22.9333S
p3724
sg48
(dp3725
g50
VTL Eco HCS
p3726
sg52
Nssa(dp3727
g47
I669296699
sg41
VWeaponDrop
p3728
sg189
I2
sg53
(lp3729
I2758383128
asg44
VPT6M37.5320943S
p3730
sg192
I1
sg193
VP0DT0H0M50.1167S
p3731
sg48
(dp3732
g50
VTL Eco HCS
p3733
sg52
Nssa(dp3734
g47
I313138863
sg41
VWeaponDrop
p3735
sg189
I0
sg53
(lp3736
I1095363701
asg44
VPT6M40.5112694S
p3737
sg192
I0
sg193
VP0DT0H0M10.0500S
p3738
sg48
(dp3739
g50
VE6 Huke HCS
p3740
sg52
Nssa(dp3741
g47
I669296699
sg48
(dp3742
g50
VE6 Huke HCS
p3743
sg52
Nssg53
(lp3744
I2758383128
asg41
VWeaponPickupPad
p3745
sg44
VPT6M40.5112694S
p3746
sa(dp3747
g47
I669296699
sg48
(dp3748
g50
VE6 Huke HCS
p3749
sg52
Nssg53
(lp3750
I2758383128
asg41
VWeaponPickup
p3751
sg44
VPT6M40.5122763S
p3752
sa(dp3753
g47
I313138863
sg41
VWeaponDrop
p3754
sg189
I0
sg53
(lp3755
I1095363701
asg44
VPT6M42.6283759S
p3756
sg192
I0
sg193
VP0DT0H0M5.6667S
p3757
sg48
(dp3758
g50
VE6 bubu dubu
p3759
sg52
Nssa(dp3760
g47
I669296699
sg48
(dp3761
g50
VE6 bubu dubu
p3762
sg52
Nssg53
(lp3763
I2758383128
asg41
VWeaponPickup
p3764
sg44
VPT6M42.6283759S
p3765
sa(dp3766
g47
I313138863
sg48
(dp3767
g50
VTL Eco HCS
p3768
sg52
Nssg53
(lp3769
I1095363701
asg41
VWeaponPickup
p3770
sg44
VPT6M45.5465567S
p3771
sa(dp3772
g47
I4096745987
sg48
(dp3773
g50
VTL Eco HCS
p3774
sg52
Nssg53
(lp3775
I2758383128
asg41
VWeaponPickup
p3776
sg44
VPT6M45.5465567S
p3777
sa(dp3778
g41
VPlayerSpawn
p3779
sg48
(dp3780
g50
VTL Eco HCS
p3781
sg52
Nssg44
VPT6M45.547505S
p3782
sa(dp3783
g230
I3190813201
sg231
I00
sg232
I00
sg233
(dp3784
g50
VTL Danoxide
p3785
sg52
Nssg236
(lp3786
sg238
I00
sg239
I01
sg240
I1
sg241
I0
sg242
I1
sg243
(dp3787
Vy
F9.7106829999999995
sVx
F22.072095900000001
sVz
F0.88367430000000002
ssg245
(dp3788
Vy
F-5.7943509999999998
sVx
F21.383379000000001
sVz
F0.79821330000000001
ssg247
I00
sg248
(dp3789
g50
VE6 bubu dubu
p3790
sg52
Nssg251
(lp3791
sg253
(lp3792
(dp3793
g50
VTL Eco HCS
p3794
sg52
Nsasg257
I00
sg44
VPT6M49.81272S
p3795
sg41
VDeath
p3796
sg260
I1
sa(dp3797
g47
I669296699
sg41
VWeaponDrop
p3798
sg189
I2
sg53
(lp3799
I2758383128
asg44
VPT6M49.8147391S
p3800
sg192
I0
sg193
VP0DT0H0M6.5667S
p3801
sg48
(dp3802
g50
VE6 bubu dubu
p3803
sg52
Nssa(dp3804
g47
I424645655
sg41
VWeaponDrop
p3805
sg189
I6
sg53
(lp3806
I1327094800
asg44
VPT6M49.8147391S
p3807
sg192
I3
sg193
VP0DT0H0M33.5000S
p3808
sg48
(dp3809
g50
VE6 bubu dubu
p3810
sg52
Nssa(dp3811
g230
I669296699
sg231
I00
sg232
I00
sg233
(dp3812
g50
VE6 Huke HCS
p3813
sg52
Nssg236
(lp3814
I2758383128
asg238
I00
sg239
I01
sg240
I1
sg241
I0
sg242
I1
sg243
(dp3815
Vy
F13.643184700000001
sVx
F6.3852706000000001
sVz
F3.19991088
ssg245
(dp3816
Vy
F-3.6178457700000002
sVx
F1.9860371400000001
sVz
F5.1534019999999998
ssg247
I00
sg248
(dp3817
g50
VTL Eco HCS
p3818
sg52
Nssg251
(lp3819
sg253
(lp3820
sg257
I01
sg44
VPT6M51.1627896S
p3821
sg41
VDeath
p3822
sg260
I1
sa(dp3823
g41
VMedal
p3824
sg48
(dp3825
g50
VE6 Huke HCS
p3826
sg52
Nssg265
I848240062
sg44
VPT6M51.1638119S
p3827
sa(dp3828
g47
I313138863
sg41
VWeaponDrop
p3829
sg189
I0
sg53
(lp3830
I1095363701
asg44
VPT6M51.1648237S
p3831
sg192
I0
sg193
VP0DT0H0M0.2500S
p3832
sg48
(dp3833
g50
VTL Eco HCS
p3834
sg52
Nssa(dp3835
g47
I4096745987
sg41
VWeaponDrop
p3836
sg189
I3
sg53
(lp3837
I2758383128
asg44
VPT6M51.1648237S
p3838
sg192
I2
sg193
VP0DT0H0M5.3667S
p3839
sg48
(dp3840
g50
VTL Eco HCS
p3841
sg52
Nssa(dp3842
g47
I524558978
sg41
VWeaponDrop
p3843
sg189
I1
sg53
(lp3844
I2758383128
asg44
VPT6M51.211815S
p3845
sg192
I0
sg193
VP0DT0H0M4.6167S
p3846
sg48
(dp3847
g50
VE6 Shooter
p3848
sg52
Nssa(dp3849
g47
I2133511419
sg48
(dp3850
g50
VE6 Shooter
p3851
sg52
Nssg53
(lp3852
I2758383128
asg41
VWeaponPickup
p3853
sg44
VPT6M51.211815S
p3854
sa(dp3855
g230
I313138863
sg231
I00
sg232
I00
sg233
(dp3856
g50
VTL StelluR
p3857
sg52
Nssg236
(lp3858
I1095363701
asg238
I00
sg239
I01
sg240
I1
sg241
I0
sg242
I1
sg243
(dp3859
Vy
F9.7991410000000005
sVx
F12.440610899999999
sVz
F3.5559620000000001
ssg245
(dp3860
Vy
F13.7987833
sVx
F18.0767937
sVz
F4.0273237200000001
ssg247
I00
sg248
(dp3861
g50
VE6 Cratos HCS
p3862
sg52
Nssg251
(lp3863
sg253
(lp3864
sg257
I00
sg44
VPT6M51.6798157S
p3865
sg41
VDeath
p3866
sg260
I1
sa(dp3867
g47
I313138863
sg41
VWeaponDrop
p3868
sg189
I18
sg53
(lp3869
I1095363701
asg44
VPT6M51.6818357S
p3870
sg192
I11
sg193
VP0DT0H0M7.1333S
p3871
sg48
(dp3872
g50
VE6 Cratos HCS
p3873
sg52
Nssa(dp3874
g47
I4096745987
sg41
VWeaponDrop
p3875
sg189
I0
sg53
(lp3876
I2758383128
asg44
VPT6M51.6818357S
p3877
sg192
I0
sg193
VP0DT0H0M11.2333S
p3878
sg48
(dp3879
g50
VE6 Cratos HCS
p3880
sg52
Nssa(dp3881
g230
I669296699
sg231
I00
sg232
I00
sg233
(dp3882
g50
VE6 Huke HCS
p3883
sg52
Nssg236
(lp3884
I2758383128
asg238
I00
sg239
I01
sg240
I1
sg241
I0
sg242
I1
sg243
(dp3885
Vy
F11.9602165
sVx
F7.9139179999999998
sVz
F3.1995623100000001
ssg245
(dp3886
Vy
F9.7846869999999999
sVx
F12.7774038
sVz
F3.1995623100000001
ssg247
I00
sg248
(dp3887
g50
VTL StelluR
p3888
sg52
Nssg251
(lp3889
sg253
(lp3890
(dp3891
g50
VE6 Cratos HCS
p3892
sg52
Nsasg257
I00
sg44
VPT6M53.1288908S
p3893
sg41
VDeath
p3894
sg260
I1
sa(dp3895
g41
VMedal
p3896
sg48
(dp3897
g50
VE6 Huke HCS
p3898
sg52
Nssg265
I1986137636
sg44
VPT6M53.1298914S
p3899
sa(dp3900
g41
VMedal
p3901
sg48
(dp3902
g50
VE6 Huke HCS
p3903
sg52
Nssg265
I2078758684
sg44
VPT6M53.1298914S
p3904
sa(dp3905
g47
I313138863
sg41
VWeaponDrop
p3906
sg189
I34
sg53
(lp3907
I1095363701
asg44
VPT6M53.130909S
p3908
sg192
I15
sg193
VP0DT0H0M14.8333S
p3909
sg48
(dp3910
g50
VTL StelluR
p3911
sg52
Nssa(dp3912
g47
I4096745987
sg41
VWeaponDrop
p3913
sg189
I0
sg53
(lp3914
I2758383128
asg44
VPT6M53.130909S
p3915
sg192
I0
sg193
VP0DT0H0M2.4667S
p3916
sg48
(dp3917
g50
VTL StelluR
p3918
sg52
Nssa(dp3919
g230
I4096745987
sg231
I00
sg232
I00
sg233
(dp3920
g50
VE6 Huke HCS
p3921
sg52
Nssg236
(lp3922
I2758383128
asg238
I00
sg239
I01
sg240
I1
sg241
I0
sg242
I1
sg243
(dp3923
Vy
F10.8607035
sVx
F9.6785080000000008
sVz
F3.1995623100000001
ssg245
(dp3924
Vy
F12.148783699999999
sVx
F18.460697199999998
sVz
F3.4636529999999999
ssg247
I00
sg248
(dp3925
g50
VTL Danoxide
p3926
sg52
Nssg251
(lp3927
sg253
(lp3928
sg257
I01
sg44
VPT6M55.2960007S
p3929
sg41
VDeath
p3930
sg260
I1
sa(dp3931
g41
VImpulse
p3932
sg48
(dp3933
g50
VE6 Huke HCS
p3934
sg52
Nssg271
I3174430457
sg44
VPT6M55.2980042S
p3935
sa(dp3936
g41
VMedal
p3937
sg48
(dp3938
g50
VE6 Huke HCS
p3939
sg52
Nssg265
I3653057799
sg44
VPT6M55.2990261S
p3940
sa(dp3941
g41
VMedal
p3942
sg48
(dp3943
g50
VE6 Huke HCS
p3944
sg52
Nssg265
I2763748638
sg44
VPT6M55.2990261S
p3945
sa(dp3946
g47
I313138863
sg41
VWeaponDrop
p3947
sg189
I13
sg53
(lp3948
I1095363701
asg44
VPT6M55.2990261S
p3949
sg192
I2
sg193
VP0DT0H0M4.0500S
p3950
sg48
(dp3951
g50
VTL Danoxide
p3952
sg52
Nssa(dp3953
g47
I4096745987
sg41
VWeaponDrop
p3954
sg189
I17
sg53
(lp3955
I2758383128
asg44
VPT6M55.2990261S
p3956
sg192
I10
sg193
VP0DT0H0M17.5667S
p3957
sg48
(dp3958
g50
VTL Danoxide
p3959
sg52
Nssa(dp3960
g47
I313138863
sg48
(dp3961
g50
VE6 bubu dubu
p3962
sg52
Nssg53
(lp3963
I1095363701
asg41
VWeaponPickup
p3964
sg44
VPT6M57.8301504S
p3965
sa(dp3966
g47
I4096745987
sg48
(dp3967
g50
VE6 bubu dubu
p3968
sg52
Nssg53
(lp3969
I2758383128
asg41
VWeaponPickup
p3970
sg44
VPT6M57.8301504S
p3971
sa(dp3972
g41
VPlayerSpawn
p3973
sg48
(dp3974
g50
VE6 bubu dubu
p3975
sg52
Nssg44
VPT6M57.8301504S
p3976
sa(dp3977
g47
I313138863
sg48
(dp3978
g50
VTL Eco HCS
p3979
sg52
Nssg53
(lp3980
I1095363701
asg41
VWeaponPickup
p3981
sg44
VPT6M59.1802245S
p3982
sa(dp3983
g47
I4096745987
sg48
(dp3984
g50
VTL Eco HCS
p3985
sg52
Nssg53
(lp3986
I2758383128
asg41
VWeaponPickup
p3987
sg44
VPT6M59.1802245S
p3988
sa(dp3989
g41
VPlayerSpawn
p3990
sg48
(dp3991
g50
VTL Eco HCS
p3992
sg52
Nssg44
VPT6M59.1802245S
p3993
sa(dp3994
g47
I313138863
sg48
(dp3995
g50
VE6 Cratos HCS
p3996
sg52
Nssg53
(lp3997
I1095363701
asg41
VWeaponPickup
p3998
sg44
VPT6M59.6962271S
p3999
sa(dp4000
g47
I4096745987
sg48
(dp4001
g50
VE6 Cratos HCS
p4002
sg52
Nssg53
(lp4003
I2758383128
asg41
VWeaponPickup
p4004
sg44
VPT6M59.6972492S
p4005
sa(dp4006
g41
VPlayerSpawn
p4007
sg48
(dp4008
g50
VE6 Cratos HCS
p4009
sg52
Nssg44
VPT6M59.6972492S
p4010
sa(dp4011
g47
I313138863
sg48
(dp4012
g50
VTL StelluR
p4013
sg52
Nssg53
(lp4014
I1095363701
asg41
VWeaponPickup
p4015
sg44
VPT7M1.146302S
p4016
sa(dp4017
g47
I4096745987
sg48
(dp4018
g50
VTL StelluR
p4019
sg52
Nssg53
(lp4020
I2758383128
asg41
VWeaponPickup
p4021
sg44
VPT7M1.1473287S
p4022
sa(dp4023
g41
VPlayerSpawn
p4024
sg48
(dp4025
g50
VTL StelluR
p4026
sg52
Nssg44
VPT7M1.1473287S
p4027
sa(dp4028
g47
I4096745987
sg41
VWeaponDrop
p4029
sg189
I0
sg53
(lp4030
I2758383128
asg44
VPT7M1.8783406S
p4031
sg192
I0
sg193
VP0DT0H0M0.2833S
p4032
sg48
(dp4033
g50
VE6 bubu dubu
p4034
sg52
Nssa(dp4035
g47
I424645655
sg48
(dp4036
g50
VE6 bubu dubu
p4037
sg52
Nssg53
(lp4038
I1327094800
asg41
VWeaponPickup
p4039
sg44
VPT7M1.8783406S
p4040
sa(dp4041
g47
I313138863
sg48
(dp4042
g50
VTL Danoxide
p4043
sg52
Nssg53
(lp4044
I1095363701
asg41
VWeaponPickup
p4045
sg44
VPT7M3.3304375S
p4046
sa(dp4047
g47
I4096745987
sg48
(dp4048
g50
VTL Danoxide
p4049
sg52
Nssg53
(lp4050
I2758383128
asg41
VWeaponPickup
p4051
sg44
VPT7M3.3304375S
p4052
sa(dp4053
g41
VPlayerSpawn
p4054
sg48
(dp4055
g50
VTL Danoxide
p4056
sg52
Nssg44
VPT7M3.3304375S
p4057
sa(dp4058
g41
VMedal
p4059
sg48
(dp4060
g50
VE6 Huke HCS
p4061
sg52
Nssg265
I3400287617
sg44
VPT7M3.5124228S
p4062
sa(dp4063
g47
I313138863
sg41
VWeaponDrop
p4064
sg189
I0
sg53
(lp4065
I1095363701
asg44
VPT7M3.6954316S
p4066
sg192
I0
sg193
VP0DT0H0M1.4167S
p4067
sg48
(dp4068
g50
VTL StelluR
p4069
sg52
Nssa(dp4070
g47
I424645655
sg48
(dp4071
g50
VTL StelluR
p4072
sg52
Nssg53
(lp4073
I1327094800
asg41
VWeaponPickup
p4074
sg44
VPT7M3.6954316S
p4075
sa(dp4076
g47
I313138863
sg41
VWeaponDrop
p4077
sg189
I0
sg53
(lp4078
I1095363701
asg44
VPT7M3.7614626S
p4079
sg192
I0
sg193
VP0DT0H0M4.2833S
p4080
sg48
(dp4081
g50
VE6 bubu dubu
p4082
sg52
Nssa(dp4083
g47
I669296699
sg48
(dp4084
g50
VE6 bubu dubu
p4085
sg52
Nssg53
(lp4086
I2758383128
asg41
VWeaponPickup
p4087
sg44
VPT7M3.7624416S
p4088
sa(dp4089
g47
I313138863
sg41
VWeaponDrop
p4090
sg189
I0
sg53
(lp4091
I1095363701
asg44
VPT7M4.0114507S
p4092
sg192
I0
sg193
VP0DT0H0M0.8167S
p4093
sg48
(dp4094
g50
VTL Eco HCS
p4095
sg52
Nssa(dp4096
g47
I723388907
sg48
(dp4097
g50
VTL Eco HCS
p4098
sg52
Nssg53
(lp4099
I89283061
asg41
VWeaponPickup
p4100
sg44
VPT7M4.0124482S
p4101
sa(dp4102
g230
I1579758889
sg231
I00
sg232
I00
sg233
(dp4103
g50
VTL Spartan HCS
p4104
sg52
Nssg236
(lp4105
I2758383128
asg238
I00
sg239
I01
sg240
I1
sg241
I0
sg242
I1
sg243
(dp4106
Vy
F-9.3018169999999998
sVx
F-1.9913130999999999
sVz
F4.0797896400000004
ssg245
(dp4107
Vy
F-9.7292339999999999
sVx
F2.5623
sVz
F3.7978596699999998
ssg247
I00
sg248
(dp4108
g50
VE6 Cratos HCS
p4109
sg52
Nssg251
(lp4110
sg253
(lp4111
sg257
I00
sg44
VPT7M8.6126833S
p4112
sg41
VDeath
p4113
sg260
I1
sa(dp4114
g47
I313138863
sg41
VWeaponDrop
p4115
sg189
I9
sg53
(lp4116
I1095363701
asg44
VPT7M8.6136923S
p4117
sg192
I8
sg193
VP0DT0H0M5.9333S
p4118
sg48
(dp4119
g50
VE6 Cratos HCS
p4120
sg52
Nssa(dp4121
g47
I4096745987
sg41
VWeaponDrop
p4122
sg189
I0
sg53
(lp4123
I2758383128
asg44
VPT7M8.6136923S
p4124
sg192
I0
sg193
VP0DT0H0M2.9667S
p4125
sg48
(dp4126
g50
VE6 Cratos HCS
p4127
sg52
Nssa(dp4128
g47
I4096745987
sg41
VWeaponDrop
p4129
sg189
I0
sg53
(lp4130
I2758383128
asg44
VPT7M10.0787588S
p4131
sg192
I0
sg193
VP0DT0H0M1.8667S
p4132
sg48
(dp4133
g50
VTL StelluR
p4134
sg52
Nssa(dp4135
g47
I723388907
sg48
(dp4136
g50
VTL StelluR
p4137
sg52
Nssg53
(lp4138
I89283061
asg41
VWeaponPickup
p4139
sg44
VPT7M10.0787588S
p4140
sa(dp4141
g47
I313138863
sg48
(dp4142
g50
VE6 Cratos HCS
p4143
sg52
Nssg53
(lp4144
I1095363701
asg41
VWeaponPickup
p4145
sg44
VPT7M16.6301134S
p4146
sa(dp4147
g47
I4096745987
sg48
(dp4148
g50
VE6 Cratos HCS
p4149
sg52
Nssg53
(lp4150
I2758383128
asg41
VWeaponPickup
p4151
sg44
VPT7M16.6301134S
p4152
sa(dp4153
g41
VPlayerSpawn
p4154
sg48
(dp4155
g50
VE6 Cratos HCS
p4156
sg52
Nssg44
VPT7M16.6301134S
p4157
sa(dp4158
g230
I424645655
sg231
I00
sg232
I00
sg233
(dp4159
g50
VTL StelluR
p4160
sg52
Nssg236
(lp4161
I1327094800
asg238
I00
sg239
I01
sg240
I1
sg241
I0
sg242
I1
sg243
(dp4162
Vy
F2.7772228700000001
sVx
F-4.4139670000000004
sVz
F3.1999983799999998
ssg245
(dp4163
Vy
F12.070978200000001
sVx
F11.9375038
sVz
F4.2733664500000001
ssg247
I00
sg248
(dp4164
g50
VE6 Shooter
p4165
sg52
Nssg251
(lp4166
sg253
(lp4167
sg257
I01
sg44
VPT7M21.1793276S
p4168
sg41
VDeath
p4169
sg260
I1
sa(dp4170
g41
VImpulse
p4171
sg48
(dp4172
g50
VTL StelluR
p4173
sg52
Nssg271
I3174430457
sg44
VPT7M21.1813467S
p4174
sa(dp4175
g41
VMedal
p4176
sg48
(dp4177
g50
VTL StelluR
p4178
sg52
Nssg265
I1080468863
sg44
VPT7M21.1823296S
p4179
sa(dp4180
g47
I2133511419
sg41
VWeaponDrop
p4181
sg189
I10
sg53
(lp4182
I2758383128
asg44
VPT7M21.1823296S
p4183
sg192
I1
sg193
VP0DT0H0M20.9833S
p4184
sg48
(dp4185
g50
VE6 Shooter
p4186
sg52
Nssa(dp4187
g47
I4096745987
sg41
VWeaponDrop
p4188
sg189
I13
sg53
(lp4189
I2758383128
asg44
VPT7M21.1823296S
p4190
sg192
I7
sg193
VP0DT0H0M46.7167S
p4191
sg48
(dp4192
g50
VE6 Shooter
p4193
sg52
Nssa(dp4194
g47
I313138863
sg48
(dp4195
g50
VE6 Shooter
p4196
sg52
Nssg53
(lp4197
I1095363701
asg41
VWeaponPickup
p4198
sg44
VPT7M29.1967379S
p4199
sa(dp4200
g47
I4096745987
sg48
(dp4201
g50
VE6 Shooter
p4202
sg52
Nssg53
(lp4203
I2758383128
asg41
VWeaponPickup
p4204
sg44
VPT7M29.1967379S
p4205
sa(dp4206
g41
VPlayerSpawn
p4207
sg48
(dp4208
g50
VE6 Shooter
p4209
sg52
Nssg44
VPT7M29.1967379S
p4210
sa(dp4211
g47
I313138863
sg41
VWeaponDrop
p4212
sg189
I0
sg53
(lp4213
I1095363701
asg44
VPT7M29.9957774S
p4214
sg192
I0
sg193
VP0DT0H0M1.0000S
p4215
sg48
(dp4216
g50
VTL Danoxide
p4217
sg52
Nssa(dp4218
g47
I723388907
sg48
(dp4219
g50
VTL Danoxide
p4220
sg52
Nssg53
(lp4221
I89283061
asg41
VWeaponPickup
p4222
sg44
VPT7M29.9957774S
p4223
sa(dp4224
g47
I313138863
sg41
VWeaponDrop
p4225
sg189
I0
sg53
(lp4226
I1095363701
asg44
VPT7M35.6620934S
p4227
sg192
I0
sg193
VP0DT0H0M0.9667S
p4228
sg48
(dp4229
g50
VE6 Shooter
p4230
sg52
Nssa(dp4231
g47
I2133511419
sg48
(dp4232
g50
VE6 Shooter
p4233
sg52
Nssg53
(lp4234
I2758383128
asg41
VWeaponPickup
p4235
sg44
VPT7M35.6620934S
p4236
sa(dp4237
g230
I669296699
sg231
I00
sg232
I00
sg233
(dp4238
g50
VE6 bubu dubu
p4239
sg52
Nssg236
(lp4240
I2758383128
asg238
I00
sg239
I01
sg240
I1
sg241
I0
sg242
I1
sg243
(dp4241
Vy
F-6.0255284299999996
sVx
F12.859109999999999
sVz
F3.6938235800000001
ssg245
(dp4242
Vy
F9.1712290000000003
sVx
F-6.5214576700000002
sVz
F3.5721259999999999
ssg247
I00
sg248
(dp4243
g50
VTL Spartan HCS
p4244
sg52
Nssg251
(lp4245
sg253
(lp4246
sg257
I01
sg44
VPT7M37.6471702S
p4247
sg41
VDeath
p4248
sg260
I1
sa(dp4249
g41
VMedal
p4250
sg48
(dp4251
g50
VE6 bubu dubu
p4252
sg52
Nssg265
I848240062
sg44
VPT7M37.6481961S
p4253
sa(dp4254
g47
I2511447508
sg41
VWeaponDrop
p4255
sg189
I8
sg53
(lp4256
I2758383128
asg44
VPT7M37.6491955S
p4257
sg192
I6
sg193
VP0DT0H0M41.1667S
p4258
sg48
(dp4259
g50
VTL Spartan HCS
p4260
sg52
Nssa(dp4261
g47
I1579758889
sg41
VWeaponDrop
p4262
sg189
I10
sg53
(lp4263
I2758383128
asg44
VPT7M37.6501932S
p4264
sg192
I4
sg193
VP0DT0H0M45.2167S
p4265
sg48
(dp4266
g50
VTL Spartan HCS
p4267
sg52
Nssa(dp4268
g230
I669296699
sg231
I00
sg232
I00
sg233
(dp4269
g50
VE6 bubu dubu
p4270
sg52
Nssg236
(lp4271
I2758383128
asg238
I00
sg239
I01
sg240
I1
sg241
I0
sg242
I1
sg243
(dp4272
Vy
F-8.5740429999999996
sVx
F5.7205524399999996
sVz
F3.2011756899999999
ssg245
(dp4273
Vy
F-9.1947910000000004
sVx
F1.7451282699999999
sVz
F3.2001852999999998
ssg247
I00
sg248
(dp4274
g50
VTL StelluR
p4275
sg52
Nssg251
(lp4276
sg253
(lp4277
(dp4278
g50
VE6 Cratos HCS
p4279
sg52
Nsasg257
I01
sg44
VPT7M42.6964485S
p4280
sg41
VDeath
p4281
sg260
I1
sa(dp4282
g41
VMedal
p4283
sg48
(dp4284
g50
VE6 bubu dubu
p4285
sg52
Nssg265
I2838259753
sg44
VPT7M42.6964485S
p4286
sa(dp4287
g41
VImpulse
p4288
sg48
(dp4289
g50
VE6 bubu dubu
p4290
sg52
Nssg271
I2556889090
sg44
VPT7M42.6964485S
p4291
sa(dp4292
g41
VMedal
p4293
sg48
(dp4294
g50
VE6 bubu dubu
p4295
sg52
Nssg265
I848240062
sg44
VPT7M42.6984291S
p4296
sa(dp4297
g47
I424645655
sg41
VWeaponDrop
p4298
sg189
I30
sg53
(lp4299
I1327094800
asg44
VPT7M42.6984291S
p4300
sg192
I21
sg193
VP0DT0H0M35.8000S
p4301
sg48
(dp4302
g50
VTL StelluR
p4303
sg52
Nssa(dp4304
g47
I723388907
sg41
VWeaponDrop
p4305
sg189
I0
sg53
(lp4306
I89283061
asg44
VPT7M42.6984291S
p4307
sg192
I0
sg193
VP0DT0H0M2.4500S
p4308
sg48
(dp4309
g50
VTL StelluR
p4310
sg52
Nssa(dp4311
g47
I313138863
sg48
(dp4312
g50
VTL Spartan HCS
p4313
sg52
Nssg53
(lp4314
I1095363701
asg41
VWeaponPickup
p4315
sg44
VPT7M45.6635814S
p4316
sa(dp4317
g47
I4096745987
sg48
(dp4318
g50
VTL Spartan HCS
p4319
sg52
Nssg53
(lp4320
I2758383128
asg41
VWeaponPickup
p4321
sg44
VPT7M45.6635814S
p4322
sa(dp4323
g41
VPlayerSpawn
p4324
sg48
(dp4325
g50
VTL Spartan HCS
p4326
sg52
Nssg44
VPT7M45.6635814S
p4327
sa(dp4328
g47
I4096745987
sg41
VWeaponDrop
p4329
sg189
I2
sg53
(lp4330
I2758383128
asg44
VPT7M47.7626882S
p4331
sg192
I0
sg193
VP0DT0H0M15.1167S
p4332
sg48
(dp4333
g50
VE6 Cratos HCS
p4334
sg52
Nssa(dp4335
g47
I424645655
sg48
(dp4336
g50
VE6 Cratos HCS
p4337
sg52
Nssg53
(lp4338
I1327094800
asg41
VWeaponPickup
p4339
sg44
VPT7M47.7626882S
p4340
sa(dp4341
g47
I313138863
sg41
VWeaponDrop
p4342
sg189
I12
sg53
(lp4343
I1095363701
asg44
VPT7M48.6457584S
p4344
sg192
I7
sg193
VP0DT0H0M16.2167S
p4345
sg48
(dp4346
g50
VE6 Cratos HCS
p4347
sg52
Nssa(dp4348
g47
I723388907
sg48
(dp4349
g50
VE6 Cratos HCS
p4350
sg52
Nssg53
(lp4351
I89283061
asg41
VWeaponPickup
p4352
sg44
VPT7M48.6457584S
p4353
sa(dp4354
g47
I4096745987
sg41
VWeaponDrop
p4355
sg189
I0
sg53
(lp4356
I2758383128
asg44
VPT7M49.5457988S
p4357
sg192
I0
sg193
VP0DT0H0M41.2833S
p4358
sg48
(dp4359
g50
VTL Eco HCS
p4360
sg52
Nssa(dp4361
g47
I424645655
sg48
(dp4362
g50
VTL Eco HCS
p4363
sg52
Nssg53
(lp4364
I1327094800
asg41
VWeaponPickup
p4365
sg44
VPT7M49.5457988S
p4366
sa(dp4367
g47
I313138863
sg48
(dp4368
g50
VTL StelluR
p4369
sg52
Nssg53
(lp4370
I1095363701
asg41
VWeaponPickup
p4371
sg44
VPT7M50.7138582S
p4372
sa(dp4373
g47
I4096745987
sg48
(dp4374
g50
VTL StelluR
p4375
sg52
Nssg53
(lp4376
I2758383128
asg41
VWeaponPickup
p4377
sg44
VPT7M50.7138582S
p4378
sa(dp4379
g41
VPlayerSpawn
p4380
sg48
(dp4381
g50
VTL StelluR
p4382
sg52
Nssg44
VPT7M50.7138582S
p4383
sa(dp4384
g47
I313138863
sg41
VWeaponDrop
p4385
sg189
I0
sg53
(lp4386
I1095363701
asg44
VPT7M56.1291416S
p4387
sg192
I0
sg193
VP0DT0H0M1.0833S
p4388
sg48
(dp4389
g50
VTL Spartan HCS
p4390
sg52
Nssa(dp4391
g47
I1579758889
sg48
(dp4392
g50
VTL Spartan HCS
p4393
sg52
Nssg53
(lp4394
I2758383128
asg41
VWeaponPickup
p4395
sg44
VPT7M56.1291416S
p4396
sa(dp4397
g230
I669296699
sg231
I00
sg232
I00
sg233
(dp4398
g50
VE6 Huke HCS
p4399
sg52
Nssg236
(lp4400
I2758383128
asg238
I00
sg239
I01
sg240
I1
sg241
I0
sg242
I1
sg243
(dp4401
Vy
F5.0582113299999998
sVx
F16.463672599999999
sVz
F2.0914864500000001
ssg245
(dp4402
Vy
F-1.2963378400000001
sVx
F-1.1975964299999999
sVz
F-0.0060645043800000003
ssg247
I00
sg248
(dp4403
g50
VTL Eco HCS
p4404
sg52
Nssg251
(lp4405
sg253
(lp4406
sg257
I00
sg44
VPT8M0.5133427S
p4407
sg41
VDeath
p4408
sg260
I1
sa(dp4409
g47
I723388907
sg41
VWeaponDrop
p4410
sg189
I0
sg53
(lp4411
I89283061
asg44
VPT8M0.5153651S
p4412
sg192
I0
sg193
VP0DT0H0M8.2500S
p4413
sg48
(dp4414
g50
VTL Eco HCS
p4415
sg52
Nssa(dp4416
g47
I424645655
sg41
VWeaponDrop
p4417
sg189
I21
sg53
(lp4418
I1327094800
asg44
VPT8M0.5153651S
p4419
sg192
I2
sg193
VP0DT0H0M10.9667S
p4420
sg48
(dp4421
g50
VTL Eco HCS
p4422
sg52
Nssa(dp4423
g230
I424645655
sg231
I00
sg232
I00
sg233
(dp4424
g50
VE6 Cratos HCS
p4425
sg52
Nssg236
(lp4426
I1327094800
asg238
I00
sg239
I01
sg240
I1
sg241
I0
sg242
I1
sg243
(dp4427
Vy
F-3.8847208000000002
sVx
F1.88866746
sVz
F5.1532783499999999
ssg245
(dp4428
Vy
F6.7627790000000001
sVx
F8.3626079999999998
sVz
F3.1968160000000001
ssg247
I00
sg248
(dp4429
g50
VTL Spartan HCS
p4430
sg52
Nssg251
(lp4431
sg253
(lp4432
sg257
I01
sg44
VPT8M2.3964489S
p4433
sg41
VDeath
p4434
sg260
I1
sa(dp4435
g41
VMedal
p4436
sg48
(dp4437
g50
VE6 Cratos HCS
p4438
sg52
Nssg265
I3261908037
sg44
VPT8M2.3984571S
p4439
sa(dp4440
g47
I4096745987
sg41
VWeaponDrop
p4441
sg189
I2
sg53
(lp4442
I2758383128
asg44
VPT8M2.3994615S
p4443
sg192
I1
sg193
VP0DT0H0M15.0167S
p4444
sg48
(dp4445
g50
VTL Spartan HCS
p4446
sg52
Nssa(dp4447
g47
I1579758889
sg41
VWeaponDrop
p4448
sg189
I0
sg53
(lp4449
I2758383128
asg44
VPT8M2.4004379S
p4450
sg192
I0
sg193
VP0DT0H0M0.6333S
p4451
sg48
(dp4452
g50
VTL Spartan HCS
p4453
sg52
Nssa(dp4454
g230
I3190813201
sg231
I00
sg232
I00
sg233
(dp4455
g50
VE6 Huke HCS
p4456
sg52
Nssg236
(lp4457
sg238
I00
sg239
I01
sg240
I1
sg241
I0
sg242
I1
sg243
(dp4458
Vy
F10.5495853
sVx
F8.0862350000000003
sVz
F4.0029680000000001
ssg245
(dp4459
Vy
F10.6025791
sVx
F13.1880846
sVz
F3.65162063
ssg247
I00
sg248
(dp4460
g50
VTL Danoxide
p4461
sg52
Nssg251
(lp4462
sg253
(lp4463
(dp4464
g50
VE6 Cratos HCS
p4465
sg52
Nsa(dp4466
g50
VE6 Shooter
p4467
sg52
Nsasg257
I00
sg44
VPT8M7.1136795S
p4468
sg41
VDeath
p4469
sg260
I1
sa(dp4470
g41
VMedal
p4471
sg48
(dp4472
g50
VE6 Huke HCS
p4473
sg52
Nssg265
I2430242797
sg44
VPT8M7.1147012S
p4474
sa(dp4475
g47
I723388907
sg41
VWeaponDrop
p4476
sg189
I27
sg53
(lp4477
I89283061
asg44
VPT8M7.1147012S
p4478
sg192
I6
sg193
VP0DT0H0M15.6667S
p4479
sg48
(dp4480
g50
VTL Danoxide
p4481
sg52
Nssa(dp4482
g47
I4096745987
sg41
VWeaponDrop
p4483
sg189
I13
sg53
(lp4484
I2758383128
asg44
VPT8M7.1147012S
p4485
sg192
I3
sg193
VP0DT0H0M47.1167S
p4486
sg48
(dp4487
g50
VTL Danoxide
p4488
sg52
Nssa(dp4489
g47
I313138863
sg48
(dp4490
g50
VTL Eco HCS
p4491
sg52
Nssg53
(lp4492
I1095363701
asg41
VWeaponPickup
p4493
sg44
VPT8M8.5307519S
p4494
sa(dp4495
g47
I4096745987
sg48
(dp4496
g50
VTL Eco HCS
p4497
sg52
Nssg53
(lp4498
I2758383128
asg41
VWeaponPickup
p4499
sg44
VPT8M8.5317693S
p4500
sa(dp4501
g41
VPlayerSpawn
p4502
sg48
(dp4503
g50
VTL Eco HCS
p4504
sg52
Nssg44
VPT8M8.5317693S
p4505
sa(dp4506
g230
I4096745987
sg231
I00
sg232
I00
sg233
(dp4507
g50
VTL StelluR
p4508
sg52
Nssg236
(lp4509
I2758383128
asg238
I00
sg239
I01
sg240
I1
sg241
I0
sg242
I1
sg243
(dp4510
Vy
F-2.1517365000000002
sVx
F-10.891250599999999
sVz
F4.0929669999999998
ssg245
(dp4511
Vy
F-3.2815825900000002
sVx
F0.36481493700000001
sVz
F3.3522234000000002
ssg247
I00
sg248
(dp4512
g50
VE6 Cratos HCS
p4513
sg52
Nssg251
(lp4514
sg253
(lp4515
sg257
I01
sg44
VPT8M8.8797698S
p4516
sg41
VDeath
p4517
sg260
I1
sa(dp4518
g41
VMedal
p4519
sg48
(dp4520
g50
VTL StelluR
p4521
sg52
Nssg265
I3261908037
sg44
VPT8M8.8807707S
p4522
sa(dp4523
g47
I723388907
sg41
VWeaponDrop
p4524
sg189
I0
sg53
(lp4525
I89283061
asg44
VPT8M8.8817812S
p4526
sg192
I0
sg193
VP0DT0H0M1.8000S
p4527
sg48
(dp4528
g50
VE6 Cratos HCS
p4529
sg52
Nssa(dp4530
g47
I424645655
sg41
VWeaponDrop
p4531
sg189
I36
sg53
(lp4532
I1327094800
asg44
VPT8M8.8817812S
p4533
sg192
I22
sg193
VP0DT0H0M19.1167S
p4534
sg48
(dp4535
g50
VE6 Cratos HCS
p4536
sg52
Nssa(dp4537
g47
I313138863
sg48
(dp4538
g50
VTL Spartan HCS
p4539
sg52
Nssg53
(lp4540
I1095363701
asg41
VWeaponPickup
p4541
sg44
VPT8M10.4148967S
p4542
sa(dp4543
g47
I4096745987
sg48
(dp4544
g50
VTL Spartan HCS
p4545
sg52
Nssg53
(lp4546
I2758383128
asg41
VWeaponPickup
p4547
sg44
VPT8M10.4158708S
p4548
sa(dp4549
g41
VPlayerSpawn
p4550
sg48
(dp4551
g50
VTL Spartan HCS
p4552
sg52
Nssg44
VPT8M10.4158708S
p4553
sa(dp4554
g47
I313138863
sg41
VWeaponDrop
p4555
sg189
I0
sg53
(lp4556
I1095363701
asg44
VPT8M12.1629375S
p4557
sg192
I0
sg193
VP0DT0H0M1.3000S
p4558
sg48
(dp4559
g50
VTL StelluR
p4560
sg52
Nssa(dp4561
g47
I424645655
sg48
(dp4562
g50
VTL StelluR
p4563
sg52
Nssg53
(lp4564
I1327094800
asg41
VWeaponPickup
p4565
sg44
VPT8M12.1629375S
p4566
sa(dp4567
g47
I313138863
sg48
(dp4568
g50
VTL Danoxide
p4569
sg52
Nssg53
(lp4570
I1095363701
asg41
VWeaponPickup
p4571
sg44
VPT8M15.1311144S
p4572
sa(dp4573
g47
I4096745987
sg48
(dp4574
g50
VTL Danoxide
p4575
sg52
Nssg53
(lp4576
I2758383128
asg41
VWeaponPickup
p4577
sg44
VPT8M15.1311144S
p4578
sa(dp4579
g41
VPlayerSpawn
p4580
sg48
(dp4581
g50
VTL Danoxide
p4582
sg52
Nssg44
VPT8M15.1311144S
p4583
sa(dp4584
g47
I313138863
sg48
(dp4585
g50
VE6 Cratos HCS
p4586
sg52
Nssg53
(lp4587
I1095363701
asg41
VWeaponPickup
p4588
sg44
VPT8M16.89718S
p4589
sa(dp4590
g47
I4096745987
sg48
(dp4591
g50
VE6 Cratos HCS
p4592
sg52
Nssg53
(lp4593
I2758383128
asg41
VWeaponPickup
p4594
sg44
VPT8M16.8981807S
p4595
sa(dp4596
g41
VPlayerSpawn
p4597
sg48
(dp4598
g50
VE6 Cratos HCS
p4599
sg52
Nssg44
VPT8M16.8981807S
p4600
sa(dp4601
g230
I4106030681
sg231
I00
sg232
I00
sg233
(dp4602
g50
VTL Spartan HCS
p4603
sg52
Nssg236
(lp4604
sg238
I00
sg239
I01
sg240
I1
sg241
I0
sg242
I1
sg243
(dp4605
Vy
F13.9438076
sVx
F-2.7781229999999999
sVz
F1.61384046
ssg245
(dp4606
Vy
F9.1926775000000003
sVx
F-3.2364480000000002
sVz
F2.3644379999999998
ssg247
I00
sg248
(dp4607
g50
VE6 Shooter
p4608
sg52
Nssg251
(lp4609
sg253
(lp4610
sg257
I00
sg44
VPT8M19.1462975S
p4611
sg41
VDeath
p4612
sg260
I1
sa(dp4613
g41
VMedal
p4614
sg48
(dp4615
g50
VTL Spartan HCS
p4616
sg52
Nssg265
I2838259753
sg44
VPT8M19.1473177S
p4617
sa(dp4618
g41
VImpulse
p4619
sg48
(dp4620
g50
VTL Spartan HCS
p4621
sg52
Nssg271
I2556889090
sg44
VPT8M19.1473177S
p4622
sa(dp4623
g41
VMedal
p4624
sg48
(dp4625
g50
VTL Eco HCS
p4626
sg52
Nssg265
I824733727
sg44
VPT8M19.1473177S
p4627
sa(dp4628
g47
I2133511419
sg41
VWeaponDrop
p4629
sg189
I28
sg53
(lp4630
I2758383128
asg44
VPT8M19.1493153S
p4631
sg192
I16
sg193
VP0DT0H0M7.5667S
p4632
sg48
(dp4633
g50
VE6 Shooter
p4634
sg52
Nssa(dp4635
g47
I4096745987
sg41
VWeaponDrop
p4636
sg189
I0
sg53
(lp4637
I2758383128
asg44
VPT8M19.1493153S
p4638
sg192
I0
sg193
VP0DT0H0M41.4167S
p4639
sg48
(dp4640
g50
VE6 Shooter
p4641
sg52
Nssa(dp4642
g230
I669296699
sg231
I00
sg232
I00
sg233
(dp4643
g50
VE6 Huke HCS
p4644
sg52
Nssg236
(lp4645
I2758383128
asg238
I00
sg239
I01
sg240
I1
sg241
I0
sg242
I1
sg243
(dp4646
Vy
F10.0008965
sVx
F11.2929955
sVz
F3.8328216099999999
ssg245
(dp4647
Vy
F12.216789199999999
sVx
F-5.8851675999999999
sVz
F1.6064101500000001
ssg247
I00
sg248
(dp4648
g50
VTL Spartan HCS
p4649
sg52
Nssg251
(lp4650
sg253
(lp4651
(dp4652
g50
VE6 bubu dubu
p4653
sg52
Nsasg257
I00
sg44
VPT8M20.5303659S
p4654
sg41
VDeath
p4655
sg260
I1
sa(dp4656
g47
I313138863
sg41
VWeaponDrop
p4657
sg189
I0
sg53
(lp4658
I1095363701
asg44
VPT8M20.5323652S
p4659
sg192
I0
sg193
VP0DT0H0M1.4833S
p4660
sg48
(dp4661
g50
VTL Spartan HCS
p4662
sg52
Nssa(dp4663
g47
I4096745987
sg41
VWeaponDrop
p4664
sg189
I4
sg53
(lp4665
I2758383128
asg44
VPT8M20.5323652S
p4666
sg192
I4
sg193
VP0DT0H0M8.6333S
p4667
sg48
(dp4668
g50
VTL Spartan HCS
p4669
sg52
Nssa(dp4670
g230
I4096745987
sg231
I00
sg232
I00
sg233
(dp4671
g50
VE6 Cratos HCS
p4672
sg52
Nssg236
(lp4673
I2758383128
asg238
I00
sg239
I01
sg240
I1
sg241
I0
sg242
I1
sg243
(dp4674
Vy
F3.88046932
sVx
F22.412338299999998
sVz
F0.53341656900000001
ssg245
(dp4675
Vy
F-1.5119381000000001
sVx
F16.6229668
sVz
F-0.05490747
ssg247
I00
sg248
(dp4676
g50
VTL Danoxide
p4677
sg52
Nssg251
(lp4678
sg253
(lp4679
sg257
I01
sg44
VPT8M22.0974467S
p4680
sg41
VDeath
p4681
sg260
I1
sa(dp4682
g41
VMedal
p4683
sg48
(dp4684
g50
VE6 Cratos HCS
p4685
sg52
Nssg265
I3261908037
sg44
VPT8M22.0994478S
p4686
sa(dp4687
g47
I313138863
sg41
VWeaponDrop
p4688
sg189
I0
sg53
(lp4689
I1095363701
asg44
VPT8M22.1004481S
p4690
sg192
I0
sg193
VP0DT0H0M0.5333S
p4691
sg48
(dp4692
g50
VTL Danoxide
p4693
sg52
Nssa(dp4694
g47
I4096745987
sg41
VWeaponDrop
p4695
sg189
I5
sg53
(lp4696
I2758383128
asg44
VPT8M22.1004481S
p4697
sg192
I3
sg193
VP0DT0H0M6.4333S
p4698
sg48
(dp4699
g50
VTL Danoxide
p4700
sg52
Nssa(dp4701
g230
I313138863
sg231
I00
sg232
I00
sg233
(dp4702
g50
VTL Eco HCS
p4703
sg52
Nssg236
(lp4704
I1095363701
asg238
I00
sg239
I00
sg240
I2
sg241
I0
sg242
I0
sg243
(dp4705
Vy
F7.1070200000000003
sVx
F-2.3327963399999998
sVz
F3.1998579999999999
ssg245
(dp4706
Vy
F3.6524624800000001
sVx
F-2.4600274600000001
sVz
F3.2003424200000001
ssg247
I00
sg248
(dp4707
g469
g470
ssg251
(lp4708
sg253
(lp4709
sg257
I00
sg44
VPT8M23.9305398S
p4710
sg41
VDeath
p4711
sg260
I1
sa(dp4712
g47
I313138863
sg48
(dp4713
g50
VE6 Shooter
p4714
sg52
Nssg53
(lp4715
I1095363701
asg41
VWeaponPickup
p4716
sg44
VPT8M27.1647305S
p4717
sa(dp4718
g47
I4096745987
sg48
(dp4719
g50
VE6 Shooter
p4720
sg52
Nssg53
(lp4721
I2758383128
asg41
VWeaponPickup
p4722
sg44
VPT8M27.1647305S
p4723
sa(dp4724
g41
VPlayerSpawn
p4725
sg48
(dp4726
g50
VE6 Shooter
p4727
sg52
Nssg44
VPT8M27.1647305S
p4728
sa(dp4729
g47
I313138863
sg48
(dp4730
g50
VTL Spartan HCS
p4731
sg52
Nssg53
(lp4732
I1095363701
asg41
VWeaponPickup
p4733
sg44
VPT8M28.5477991S
p4734
sa(dp4735
g47
I4096745987
sg48
(dp4736
g50
VTL Spartan HCS
p4737
sg52
Nssg53
(lp4738
I2758383128
asg41
VWeaponPickup
p4739
sg44
VPT8M28.5477991S
p4740
sa(dp4741
g41
VPlayerSpawn
p4742
sg48
(dp4743
g50
VTL Spartan HCS
p4744
sg52
Nssg44
VPT8M28.5477991S
p4745
sa(dp4746
g47
I313138863
sg48
(dp4747
g50
VTL Danoxide
p4748
sg52
Nssg53
(lp4749
I1095363701
asg41
VWeaponPickup
p4750
sg44
VPT8M30.1148589S
p4751
sa(dp4752
g47
I4096745987
sg48
(dp4753
g50
VTL Danoxide
p4754
sg52
Nssg53
(lp4755
I2758383128
asg41
VWeaponPickup
p4756
sg44
VPT8M30.1148589S
p4757
sa(dp4758
g41
VPlayerSpawn
p4759
sg48
(dp4760
g50
VTL Danoxide
p4761
sg52
Nssg44
VPT8M30.1148589S
p4762
sa(dp4763
g230
I4096745987
sg231
I00
sg232
I00
sg233
(dp4764
g50
VTL StelluR
p4765
sg52
Nssg236
(lp4766
I2758383128
asg238
I00
sg239
I01
sg240
I1
sg241
I0
sg242
I1
sg243
(dp4767
Vy
F8.0411789999999996
sVx
F-2.7769913700000002
sVz
F3.2000005200000001
ssg245
(dp4768
Vy
F10.6693487
sVx
F11.2870264
sVz
F3.5249774500000002
ssg247
I00
sg248
(dp4769
g50
VE6 Huke HCS
p4770
sg52
Nssg251
(lp4771
sg253
(lp4772
sg257
I00
sg44
VPT8M30.3138671S
p4773
sg41
VDeath
p4774
sg260
I1
sa(dp4775
g47
I669296699
sg41
VWeaponDrop
p4776
sg189
I12
sg53
(lp4777
I2758383128
asg44
VPT8M30.3148867S
p4778
sg192
I6
sg193
VP0DT0H1M44.1833S
p4779
sg48
(dp4780
g50
VE6 Huke HCS
p4781
sg52
Nssa(dp4782
g47
I4096745987
sg41
VWeaponDrop
p4783
sg189
I15
sg53
(lp4784
I2758383128
asg44
VPT8M30.3148867S
p4785
sg192
I9
sg193
VP0DT0H0M15.9500S
p4786
sg48
(dp4787
g50
VE6 Huke HCS
p4788
sg52
Nssa(dp4789
g47
I313138863
sg41
VWeaponDrop
p4790
sg189
I0
sg53
(lp4791
I1095363701
asg44
VPT8M30.6628847S
p4792
sg192
I0
sg193
VP0DT0H0M0.8500S
p4793
sg48
(dp4794
g50
VTL Spartan HCS
p4795
sg52
Nssa(dp4796
g47
I723388907
sg48
(dp4797
g50
VTL Spartan HCS
p4798
sg52
Nssg53
(lp4799
I89283061
asg41
VWeaponPickup
p4800
sg44
VPT8M30.6628847S
p4801
sa(dp4802
g230
I4096745987
sg231
I00
sg232
I00
sg233
(dp4803
g50
VE6 Shooter
p4804
sg52
Nssg236
(lp4805
I2758383128
asg238
I00
sg239
I01
sg240
I1
sg241
I0
sg242
I1
sg243
(dp4806
Vy
F-5.6891509999999998
sVx
F7.2506356199999997
sVz
F3.19718575
ssg245
(dp4807
Vy
F-4.3215255700000004
sVx
F0.94759409999999999
sVz
F5.2003199999999996
ssg247
I00
sg248
(dp4808
g50
VTL Eco HCS
p4809
sg52
Nssg251
(lp4810
sg253
(lp4811
sg257
I01
sg44
VPT8M34.5640841S
p4812
sg41
VDeath
p4813
sg260
I1
sa(dp4814
g41
VMedal
p4815
sg48
(dp4816
g50
VE6 Shooter
p4817
sg52
Nssg265
I3261908037
sg44
VPT8M34.5661065S
p4818
sa(dp4819
g47
I313138863
sg41
VWeaponDrop
p4820
sg189
I7
sg53
(lp4821
I1095363701
asg44
VPT8M34.5661065S
p4822
sg192
I0
sg193
VP0DT0H0M9.4167S
p4823
sg48
(dp4824
g50
VTL Eco HCS
p4825
sg52
Nssa(dp4826
g47
I4096745987
sg41
VWeaponDrop
p4827
sg189
I16
sg53
(lp4828
I2758383128
asg44
VPT8M34.5661065S
p4829
sg192
I6
sg193
VP0DT0H0M16.6167S
p4830
sg48
(dp4831
g50
VTL Eco HCS
p4832
sg52
Nssa(dp4833
g230
I424645655
sg231
I00
sg232
I00
sg233
(dp4834
g50
VE6 bubu dubu
p4835
sg52
Nssg236
(lp4836
I1327094800
asg238
I00
sg239
I01
sg240
I1
sg241
I0
sg242
I1
sg243
(dp4837
Vy
F3.56310678
sVx
F-1.96159613
sVz
F3.2003202399999999
ssg245
(dp4838
Vy
F6.0038809999999998
sVx
F-2.3878924800000001
sVz
F3.2000009999999999
ssg247
I00
sg248
(dp4839
g50
VTL StelluR
p4840
sg52
Nssg251
(lp4841
sg253
(lp4842
(dp4843
g50
VE6 Huke HCS
p4844
sg52
Nsa(dp4845
g50
VE6 Cratos HCS
p4846
sg52
Nsasg257
I01
sg44
VPT8M34.6300952S
p4847
sg41
VDeath
p4848
sg260
I1
sa(dp4849
g41
VMedal
p4850
sg48
(dp4851
g50
VE6 bubu dubu
p4852
sg52
Nssg265
I3261908037
sg44
VPT8M34.6320889S
p4853
sa(dp4854
g47
I424645655
sg41
VWeaponDrop
p4855
sg189
I33
sg53
(lp4856
I1327094800
asg44
VPT8M34.6320889S
p4857
sg192
I10
sg193
VP0DT0H0M18.3667S
p4858
sg48
(dp4859
g50
VTL StelluR
p4860
sg52
Nssa(dp4861
g47
I4096745987
sg41
VWeaponDrop
p4862
sg189
I18
sg53
(lp4863
I2758383128
asg44
VPT8M34.6320889S
p4864
sg192
I11
sg193
VP0DT0H0M24.2500S
p4865
sg48
(dp4866
g50
VTL StelluR
p4867
sg52
Nssa(dp4868
g47
I313138863
sg48
(dp4869
g50
VE6 Huke HCS
p4870
sg52
Nssg53
(lp4871
I1095363701
asg41
VWeaponPickup
p4872
sg44
VPT8M38.3312983S
p4873
sa(dp4874
g47
I4096745987
sg48
(dp4875
g50
VE6 Huke HCS
p4876
sg52
Nssg53
(lp4877
I2758383128
asg41
VWeaponPickup
p4878
sg44
VPT8M38.3312983S
p4879
sa(dp4880
g41
VPlayerSpawn
p4881
sg48
(dp4882
g50
VE6 Huke HCS
p4883
sg52
Nssg44
VPT8M38.3312983S
p4884
sa(dp4885
g230
I424645655
sg231
I00
sg232
I00
sg233
(dp4886
g50
VE6 bubu dubu
p4887
sg52
Nssg236
(lp4888
I1327094800
asg238
I00
sg239
I01
sg240
I1
sg241
I0
sg242
I1
sg243
(dp4889
Vy
F5.9537490000000002
sVx
F-1.1394354099999999
sVz
F3.2035167200000001
ssg245
(dp4890
Vy
F5.76625443
sVx
F8.4945369999999993
sVz
F4.2692909999999999
ssg247
I00
sg248
(dp4891
g50
VTL Danoxide
p4892
sg52
Nssg251
(lp4893
sg253
(lp4894
(dp4895
g50
VE6 Shooter
p4896
sg52
Nsasg257
I01
sg44
VPT8M39.5803658S
p4897
sg41
VDeath
p4898
sg260
I1
sa(dp4899
g41
VMedal
p4900
sg48
(dp4901
g50
VE6 bubu dubu
p4902
sg52
Nssg265
I3261908037
sg44
VPT8M39.581341S
p4903
sa(dp4904
g41
VMedal
p4905
sg48
(dp4906
g50
VE6 bubu dubu
p4907
sg52
Nssg265
I2078758684
sg44
VPT8M39.5823422S
p4908
sa(dp4909
g47
I313138863
sg41
VWeaponDrop
p4910
sg189
I0
sg53
(lp4911
I1095363701
asg44
VPT8M39.5923622S
p4912
sg192
I0
sg193
VP0DT0H0M2.7500S
p4913
sg48
(dp4914
g50
VTL Danoxide
p4915
sg52
Nssa(dp4916
g47
I4096745987
sg41
VWeaponDrop
p4917
sg189
I0
sg53
(lp4918
I2758383128
asg44
VPT8M39.5923622S
p4919
sg192
I0
sg193
VP0DT0H0M6.7167S
p4920
sg48
(dp4921
g50
VTL Danoxide
p4922
sg52
Nssa(dp4923
g47
I2492868984
sg48
(dp4924
g50
VE6 Cratos HCS
p4925
sg52
Nssg53
(lp4926
I2758383128
asg41
VWeaponPickup
p4927
sg44
VPT8M39.8133542S
p4928
sa(dp4929
g47
I2492868984
sg41
VWeaponDrop
p4930
sg189
I0
sg53
(lp4931
I2758383128
asg44
VPT8M40.9474103S
p4932
sg192
I0
sg193
VP0DT0H0M0.9833S
p4933
sg48
(dp4934
g50
VE6 Cratos HCS
p4935
sg52
Nssa(dp4936
g47
I313138863
sg48
(dp4937
g50
VTL Eco HCS
p4938
sg52
Nssg53
(lp4939
I1095363701
asg41
VWeaponPickup
p4940
sg44
VPT8M42.5804946S
p4941
sa(dp4942
g47
I4096745987
sg48
(dp4943
g50
VTL Eco HCS
p4944
sg52
Nssg53
(lp4945
I2758383128
asg41
VWeaponPickup
p4946
sg44
VPT8M42.5815127S
p4947
sa(dp4948
g41
VPlayerSpawn
p4949
sg48
(dp4950
g50
VTL Eco HCS
p4951
sg52
Nssg44
VPT8M42.5815127S
p4952
sa(dp4953
g47
I313138863
sg48
(dp4954
g50
VTL StelluR
p4955
sg52
Nssg53
(lp4956
I1095363701
asg41
VWeaponPickup
p4957
sg44
VPT8M42.6475087S
p4958
sa(dp4959
g47
I4096745987
sg48
(dp4960
g50
VTL StelluR
p4961
sg52
Nssg53
(lp4962
I2758383128
asg41
VWeaponPickup
p4963
sg44
VPT8M42.6475087S
p4964
sa(dp4965
g41
VPlayerSpawn
p4966
sg48
(dp4967
g50
VTL StelluR
p4968
sg52
Nssg44
VPT8M42.6475087S
p4969
sa(dp4970
g230
I723388907
sg231
I00
sg232
I01
sg233
(dp4971
g50
VTL Spartan HCS
p4972
sg52
Nssg236
(lp4973
I89283061
asg238
I00
sg239
I00
sg240
I1
sg241
I0
sg242
I1
sg243
(dp4974
Vy
F8.6360890000000001
sVx
F-5.9749169999999996
sVz
F3.5890555399999999
ssg245
(dp4975
Vy
F8.4423960000000005
sVx
F-5.4948816300000001
sVz
F3.60000038
ssg247
I00
sg248
(dp4976
g50
VE6 bubu dubu
p4977
sg52
Nssg251
(lp4978
sg253
(lp4979
sg257
I00
sg44
VPT8M44.4805925S
p4980
sg41
VDeath
p4981
sg260
I1
sa(dp4982
g41
VMedal
p4983
sg48
(dp4984
g50
VTL Spartan HCS
p4985
sg52
Nssg265
I2782465081
sg44
VPT8M44.4805925S
p4986
sa(dp4987
g41
VMedal
p4988
sg48
(dp4989
g50
VTL Spartan HCS
p4990
sg52
Nssg265
I2287626681
sg44
VPT8M44.481616S
p4991
sa(dp4992
g47
I424645655
sg41
VWeaponDrop
p4993
sg189
I42
sg53
(lp4994
I1327094800
asg44
VPT8M44.4826118S
p4995
sg192
I21
sg193
VP0DT0H0M41.1667S
p4996
sg48
(dp4997
g50
VE6 bubu dubu
p4998
sg52
Nssa(dp4999
g47
I669296699
sg41
VWeaponDrop
p5000
sg189
I5
sg53
(lp5001
I2758383128
asg44
VPT8M44.4836112S
p5002
sg192
I4
sg193
VP0DT0H1M0.9000S
p5003
sg48
(dp5004
g50
VE6 bubu dubu
p5005
sg52
Nssa(dp5006
g230
I4096745987
sg231
I00
sg232
I00
sg233
(dp5007
g50
VE6 Shooter
p5008
sg52
Nssg236
(lp5009
I2758383128
asg238
I00
sg239
I01
sg240
I1
sg241
I0
sg242
I1
sg243
(dp5010
Vy
F5.9206023200000004
sVx
F-0.86082613500000005
sVz
F4.1933484099999996
ssg245
(dp5011
Vy
F9.4373129999999996
sVx
F-6.8144640000000001
sVz
F3.4286103200000002
ssg247
I00
sg248
(dp5012
g50
VTL Spartan HCS
p5013
sg52
Nssg251
(lp5014
sg253
(lp5015
(dp5016
g50
VE6 bubu dubu
p5017
sg52
Nsasg257
I01
sg44
VPT8M45.1136467S
p5018
sg41
VDeath
p5019
sg260
I1
sa(dp5020
g41
VMedal
p5021
sg48
(dp5022
g50
VE6 Shooter
p5023
sg52
Nssg265
I1792284502
sg44
VPT8M45.1146354S
p5024
sa(dp5025
g41
VMedal
p5026
sg48
(dp5027
g50
VE6 Shooter
p5028
sg52
Nssg265
I3261908037
sg44
VPT8M45.1146354S
p5029
sa(dp5030
g47
I723388907
sg41
VWeaponDrop
p5031
sg189
I10
sg53
(lp5032
I89283061
asg44
VPT8M45.1156463S
p5033
sg192
I9
sg193
VP0DT0H0M7.7500S
p5034
sg48
(dp5035
g50
VTL Spartan HCS
p5036
sg52
Nssa(dp5037
g47
I723388907
sg41
VWeaponDrop
p5038
sg189
I0
sg53
(lp5039
I89283061
asg44
VPT8M45.1156463S
p5040
sg192
I0
sg193
VP0DT0S
p5041
sg48
(dp5042
g50
VTL Spartan HCS
p5043
sg52
Nssa(dp5044
g47
I4096745987
sg41
VWeaponDrop
p5045
sg189
I3
sg53
(lp5046
I2758383128
asg44
VPT8M45.1156463S
p5047
sg192
I0
sg193
VP0DT0H0M7.9667S
p5048
sg48
(dp5049
g50
VTL Spartan HCS
p5050
sg52
Nssa(dp5051
g41
VRoundEnd
p5052
sg43
I0
sg44
VPT8M45.1306431S
p5053
sassba.