(lp1
cnumpy.core.multiarray
_reconstruct
p2
(cnumpy
ndarray
p3
(I0
tS'b'
tRp4
(I1
(I4
tcnumpy
dtype
p5
(S'U36'
I0
I1
tRp6
(I3
S'<'
NNNI144
I4
I8
tbI00
S'2\x00\x00\x000\x00\x00\x001\x00\x00\x006\x00\x00\x00-\x00\x00\x000\x00\x00\x007\x00\x00\x00-\x00\x00\x000\x00\x00\x001\x00\x00\x00\x00\x00\x00\x00\x00\x00\x00\x00\x00\x00\x00\x00\x00\x00\x00\x00\x00\x00\x00\x00\x00\x00\x00\x00\x00\x00\x00\x00\x00\x00\x00\x00\x00\x00\x00\x00\x00\x00\x00\x00\x00\x00\x00\x00\x00\x00\x00\x00\x00\x00\x00\x00\x00\x00\x00\x00\x00\x00\x00\x00\x00\x00\x00\x00\x00\x00\x00\x00\x00\x00\x00\x00\x00\x00\x00\x00\x00\x00\x00\x00\x00\x00\x00\x00\x00\x00\x00\x00\x00\x00\x00\x00\x00\x00\x00\x00\x00\x00\x00\x00\x00\x00\x00\x00R\x00\x00\x00i\x00\x00\x00g\x00\x00\x00\x00\x00\x00\x00\x00\x00\x00\x00\x00\x00\x00\x00\x00\x00\x00\x00\x00\x00\x00\x00\x00\x00\x00\x00\x00\x00\x00\x00\x00\x00\x00\x00\x00\x00\x00\x00\x00\x00\x00\x00\x00\x00\x00\x00\x00\x00\x00\x00\x00\x00\x00\x00\x00\x00\x00\x00\x00\x00\x00\x00\x00\x00\x00\x00\x00\x00\x00\x00\x00\x00\x00\x00\x00\x00\x00\x00\x00\x00\x00\x00\x00\x00\x00\x00\x00\x00\x00\x00\x00\x00\x00\x00\x00\x00\x00\x00\x00\x00\x00\x00\x00\x00\x00\x00\x00\x00\x00\x00\x00\x00\x00\x00\x00\x00\x00\x00\x00\x00\x00\x00\x00\x00\x00\x00\x00\x00\x00\x00\x00\x00\x00\x00S\x00\x00\x00l\x00\x00\x00a\x00\x00\x00y\x00\x00\x00e\x00\x00\x00r\x00\x00\x00\x00\x00\x00\x00\x00\x00\x00\x00\x00\x00\x00\x00\x00\x00\x00\x00\x00\x00\x00\x00\x00\x00\x00\x00\x00\x00\x00\x00\x00\x00\x00\x00\x00\x00\x00\x00\x00\x00\x00\x00\x00\x00\x00\x00\x00\x00\x00\x00\x00\x00\x00\x00\x00\x00\x00\x00\x00\x00\x00\x00\x00\x00\x00\x00\x00\x00\x00\x00\x00\x00\x00\x00\x00\x00\x00\x00\x00\x00\x00\x00\x00\x00\x00\x00\x00\x00\x00\x00\x00\x00\x00\x00\x00\x00\x00\x00\x00\x00\x00\x00\x00\x00\x00\x00\x00\x00\x00\x00\x00\x00\x00\x00\x00\x00\x00\x00\x00\x00\x00\x005\x00\x00\x008\x00\x00\x006\x00\x00\x009\x00\x00\x00d\x00\x00\x00f\x00\x00\x003\x00\x00\x007\x00\x00\x00-\x00\x00\x00e\x00\x00\x000\x00\x00\x00e\x00\x00\x002\x00\x00\x00-\x00\x00\x004\x00\x00\x00c\x00\x00\x003\x00\x00\x006\x00\x00\x00-\x00\x00\x009\x00\x00\x00f\x00\x00\x005\x00\x00\x00b\x00\x00\x00-\x00\x00\x007\x00\x00\x00d\x00\x00\x006\x00\x00\x00b\x00\x00\x005\x00\x00\x008\x00\x00\x00d\x00\x00\x005\x00\x00\x003\x00\x00\x003\x00\x00\x00d\x00\x00\x00a\x00\x00\x00'
tba(lp7
S'rng'
p8
aS'clgr'
p9
aaccopy_reg
_reconstructor
p10
(c__main__
match_breakdown
p11
c__builtin__
object
p12
NtRp13
(dp14
S'details'
p15
(dp16
VIsCompleteSetOfEvents
p17
I01
sVLinks
p18
(dp19
VUgcFilmManifest
p20
(dp21
VAuthenticationLifetimeExtensionSupported
p22
I00
sVQueryString
p23
V?view=film-manifest
p24
sVRetryPolicyId
p25
Vexponentialretry
p26
sVPath
p27
V/h5/films/5869df37-e0e2-4c36-9f5b-7d6b58d533da
p28
sVAcknowledgementTypeId
p29
I0
sVAuthorityId
p30
Vugc
p31
sVTopicName
p32
V
ssVStatsMatchDetails
p33
(dp34
g22
I00
sg23
Nsg25
Vexponentialretry
p35
sg27
Vh5/custom/matches/5869df37-e0e2-4c36-9f5b-7d6b58d533da
p36
sg29
I0
sg30
Vspartanstats
p37
sg32
V
sssVGameEvents
p38
(lp39
(dp40
VEventName
p41
VRoundStart
p42
sVRoundIndex
p43
I0
sVTimeSinceStart
p44
VPT0.0280005S
p45
sa(dp46
VWeaponStockId
p47
I313138863
sVPlayer
p48
(dp49
VGamertag
p50
VRNG Ninja HCS
p51
sVXuid
p52
NssVWeaponAttachmentIds
p53
(lp54
I1095363701
asg41
VWeaponPickup
p55
sg44
VPT17.6860007S
p56
sa(dp57
g47
I4096745987
sg48
(dp58
g50
VRNG Ninja HCS
p59
sg52
Nssg53
(lp60
I2758383128
asg41
VWeaponPickup
p61
sg44
VPT17.6860007S
p62
sa(dp63
g41
VPlayerSpawn
p64
sg48
(dp65
g50
VRNG Ninja HCS
p66
sg52
Nssg44
VPT17.6860007S
p67
sa(dp68
g47
I313138863
sg48
(dp69
g50
VRNG Penguin HCS
p70
sg52
Nssg53
(lp71
I1095363701
asg41
VWeaponPickup
p72
sg44
VPT17.702001S
p73
sa(dp74
g47
I4096745987
sg48
(dp75
g50
VRNG Penguin HCS
p76
sg52
Nssg53
(lp77
I2758383128
asg41
VWeaponPickup
p78
sg44
VPT17.702001S
p79
sa(dp80
g41
VPlayerSpawn
p81
sg48
(dp82
g50
VRNG Penguin HCS
p83
sg52
Nssg44
VPT17.702001S
p84
sa(dp85
g47
I313138863
sg48
(dp86
g50
VRammyy
p87
sg52
Nssg53
(lp88
I1095363701
asg41
VWeaponPickup
p89
sg44
VPT17.719001S
p90
sa(dp91
g47
I4096745987
sg48
(dp92
g50
VRammyy
p93
sg52
Nssg53
(lp94
I2758383128
asg41
VWeaponPickup
p95
sg44
VPT17.719001S
p96
sa(dp97
g41
VPlayerSpawn
p98
sg48
(dp99
g50
VRammyy
p100
sg52
Nssg44
VPT17.719001S
p101
sa(dp102
g47
I313138863
sg48
(dp103
g50
VCLG Frosty HCS
p104
sg52
Nssg53
(lp105
I1095363701
asg41
VWeaponPickup
p106
sg44
VPT17.7349999S
p107
sa(dp108
g47
I4096745987
sg48
(dp109
g50
VCLG Frosty HCS
p110
sg52
Nssg53
(lp111
I2758383128
asg41
VWeaponPickup
p112
sg44
VPT17.736001S
p113
sa(dp114
g41
VPlayerSpawn
p115
sg48
(dp116
g50
VCLG Frosty HCS
p117
sg52
Nssg44
VPT17.736001S
p118
sa(dp119
g47
I313138863
sg48
(dp120
g50
VRNG Commonly
p121
sg52
Nssg53
(lp122
I1095363701
asg41
VWeaponPickup
p123
sg44
VPT17.7520004S
p124
sa(dp125
g47
I4096745987
sg48
(dp126
g50
VRNG Commonly
p127
sg52
Nssg53
(lp128
I2758383128
asg41
VWeaponPickup
p129
sg44
VPT17.7520004S
p130
sa(dp131
g41
VPlayerSpawn
p132
sg48
(dp133
g50
VRNG Commonly
p134
sg52
Nssg44
VPT17.7520004S
p135
sa(dp136
g47
I313138863
sg48
(dp137
g50
VRNG Victory X
p138
sg52
Nssg53
(lp139
I1095363701
asg41
VWeaponPickup
p140
sg44
VPT17.7690008S
p141
sa(dp142
g47
I4096745987
sg48
(dp143
g50
VRNG Victory X
p144
sg52
Nssg53
(lp145
I2758383128
asg41
VWeaponPickup
p146
sg44
VPT17.7690008S
p147
sa(dp148
g41
VPlayerSpawn
p149
sg48
(dp150
g50
VRNG Victory X
p151
sg52
Nssg44
VPT17.7690008S
p152
sa(dp153
g47
I313138863
sg48
(dp154
g50
VCLG Snake Bite
p155
sg52
Nssg53
(lp156
I1095363701
asg41
VWeaponPickup
p157
sg44
VPT17.7850005S
p158
sa(dp159
g47
I4096745987
sg48
(dp160
g50
VCLG Snake Bite
p161
sg52
Nssg53
(lp162
I2758383128
asg41
VWeaponPickup
p163
sg44
VPT17.7860009S
p164
sa(dp165
g41
VPlayerSpawn
p166
sg48
(dp167
g50
VCLG Snake Bite
p168
sg52
Nssg44
VPT17.7860009S
p169
sa(dp170
g47
I313138863
sg48
(dp171
g50
VCLG LethuL HCS
p172
sg52
Nssg53
(lp173
I1095363701
asg41
VWeaponPickup
p174
sg44
VPT17.8020008S
p175
sa(dp176
g47
I4096745987
sg48
(dp177
g50
VCLG LethuL HCS
p178
sg52
Nssg53
(lp179
I2758383128
asg41
VWeaponPickup
p180
sg44
VPT17.8020008S
p181
sa(dp182
g41
VPlayerSpawn
p183
sg48
(dp184
g50
VCLG LethuL HCS
p185
sg52
Nssg44
VPT17.8020008S
p186
sa(dp187
g47
I4096745987
sg41
VWeaponDrop
p188
sVShotsFired
p189
I0
sg53
(lp190
I2758383128
asg44
VPT18.8169991S
p191
sVShotsLanded
p192
I0
sVTimeWeaponActiveAsPrimary
p193
VP0DT0H0M0.3333S
p194
sg48
(dp195
g50
VRNG Victory X
p196
sg52
Nssa(dp197
g47
I4108759423
sg48
(dp198
g50
VRNG Victory X
p199
sg52
Nssg53
(lp200
I2758383128
asg41
VWeaponPickup
p201
sg44
VPT18.8169991S
p202
sa(dp203
VKillerWeaponStockId
p204
I3168248199
sVIsAssassination
p205
I00
sVIsMelee
p206
I00
sVKiller
p207
(dp208
g50
VRNG Penguin HCS
p209
sg52
NssVKillerWeaponAttachmentIds
p210
(lp211
sVIsGroundPound
p212
I00
sVIsWeapon
p213
I00
sVDeathDisposition
p214
I2
sVVictimStockId
p215
I0
sVVictimAgent
p216
I0
sVKillerWorldLocation
p217
(dp218
Vy
F14.5908394
sVx
F-5.0731134400000002
sVz
F-2.6168515700000001
ssVVictimWorldLocation
p219
(dp220
Vy
F15.644762999999999
sVx
F-5.7096020000000003
sVz
F-3.120072
ssVIsShoulderBash
p221
I00
sVVictim
p222
(dp223
S'Gamertag'
p224
S'None'
p225
ssVVictimAttachmentIds
p226
(lp227
sVAssistants
p228
(lp229
sVIsHeadshot
p230
I00
sg44
VPT22.5200006S
p231
sg41
VDeath
p232
sVKillerAgent
p233
I1
sa(dp234
g204
I3168248199
sg205
I00
sg206
I00
sg207
(dp235
g50
VRNG Penguin HCS
p236
sg52
Nssg210
(lp237
sg212
I00
sg213
I00
sg214
I2
sg215
I0
sg216
I0
sg217
(dp238
Vy
F14.5908394
sVx
F-5.0731134400000002
sVz
F-2.6168515700000001
ssg219
(dp239
Vy
F15.906265299999999
sVx
F-5.3621299999999996
sVz
F-3.1720762300000001
ssg221
I00
sg222
(dp240
g224
g225
ssg226
(lp241
sg228
(lp242
sg230
I00
sg44
VPT22.5260005S
p243
sg41
VDeath
p244
sg233
I1
sa(dp245
g204
I3168248199
sg205
I00
sg206
I00
sg207
(dp246
g50
VRNG Penguin HCS
p247
sg52
Nssg210
(lp248
sg212
I00
sg213
I00
sg214
I2
sg215
I0
sg216
I0
sg217
(dp249
Vy
F14.5908394
sVx
F-5.0731134400000002
sVz
F-2.6168515700000001
ssg219
(dp250
Vy
F15.9062681
sVx
F-6.0570750000000002
sVz
F-3.1720771800000001
ssg221
I00
sg222
(dp251
g224
g225
ssg226
(lp252
sg228
(lp253
sg230
I00
sg44
VPT22.5270008S
p254
sg41
VDeath
p255
sg233
I1
sa(dp256
g47
I2492868984
sg48
(dp257
g50
VRNG Penguin HCS
p258
sg52
Nssg53
(lp259
I2758383128
asg41
VWeaponPickup
p260
sg44
VPT24.1010002S
p261
sa(dp262
g47
I313138863
sg41
VWeaponDrop
p263
sg189
I0
sg53
(lp264
I1095363701
asg44
VPT25.0499994S
p265
sg192
I0
sg193
VP0DT0H0M5.0833S
p266
sg48
(dp267
g50
VCLG Frosty HCS
p268
sg52
Nssa(dp269
g47
I669296699
sg48
(dp270
g50
VCLG Frosty HCS
p271
sg52
Nssg53
(lp272
I2758383128
asg41
VWeaponPickupPad
p273
sg44
VPT25.0499994S
p274
sa(dp275
g47
I669296699
sg48
(dp276
g50
VCLG Frosty HCS
p277
sg52
Nssg53
(lp278
I2758383128
asg41
VWeaponPickup
p279
sg44
VPT25.0520003S
p280
sa(dp281
g47
I313138863
sg41
VWeaponDrop
p282
sg189
I0
sg53
(lp283
I1095363701
asg44
VPT25.0829992S
p284
sg192
I0
sg193
VP0DT0H0M1.1500S
p285
sg48
(dp286
g50
VRNG Ninja HCS
p287
sg52
Nssa(dp288
g47
I3808094875
sg48
(dp289
g50
VRNG Ninja HCS
p290
sg52
Nssg53
(lp291
I2758383128
asg41
VWeaponPickup
p292
sg44
VPT25.0840009S
p293
sa(dp294
g47
I2492868984
sg41
VWeaponDrop
p295
sg189
I0
sg53
(lp296
I2758383128
asg44
VPT25.2350231S
p297
sg192
I0
sg193
VP0DT0H0M0.9833S
p298
sg48
(dp299
g50
VRNG Penguin HCS
p300
sg52
Nssa(dp301
g47
I313138863
sg41
VWeaponDrop
p302
sg189
I0
sg53
(lp303
I1095363701
asg44
VPT27.0499989S
p304
sg192
I0
sg193
VP0DT0H0M6.6000S
p305
sg48
(dp306
g50
VRNG Commonly
p307
sg52
Nssa(dp308
g47
I723388907
sg48
(dp309
g50
VRNG Commonly
p310
sg52
Nssg53
(lp311
I89283061
asg41
VWeaponPickup
p312
sg44
VPT27.0499989S
p313
sa(dp314
g204
I4096745987
sg205
I00
sg206
I00
sg207
(dp315
g50
VCLG Snake Bite
p316
sg52
Nssg210
(lp317
I2758383128
asg212
I00
sg213
I01
sg214
I1
sg215
I0
sg216
I1
sg217
(dp318
Vy
F7.9139514000000002
sVx
F-5.9954980000000004
sVz
F0.17759898299999999
ssg219
(dp319
Vy
F15.110568000000001
sVx
F-3.8703784899999998
sVz
F-5.1202120000000004
ssg221
I00
sg222
(dp320
g50
VRNG Penguin HCS
p321
sg52
Nssg226
(lp322
sg228
(lp323
sg230
I00
sg44
VPT27.468001S
p324
sg41
VDeath
p325
sg233
I1
sa(dp326
g41
VMedal
p327
sg48
(dp328
g50
VCLG Snake Bite
p329
sg52
NssVMedalId
p330
I3001183151
sg44
VPT27.4700006S
p331
sa(dp332
g47
I313138863
sg41
VWeaponDrop
p333
sg189
I0
sg53
(lp334
I1095363701
asg44
VPT27.4890003S
p335
sg192
I0
sg193
VP0DT0H0M0.9500S
p336
sg48
(dp337
g50
VRNG Penguin HCS
p338
sg52
Nssa(dp339
g47
I4096745987
sg41
VWeaponDrop
p340
sg189
I0
sg53
(lp341
I2758383128
asg44
VPT27.4890003S
p342
sg192
I0
sg193
VP0DT0H0M7.8167S
p343
sg48
(dp344
g50
VRNG Penguin HCS
p345
sg52
Nssa(dp346
g204
I723388907
sg205
I00
sg206
I00
sg207
(dp347
g50
VRNG Commonly
p348
sg52
Nssg210
(lp349
I89283061
asg212
I00
sg213
I01
sg214
I1
sg215
I0
sg216
I1
sg217
(dp350
Vy
F12.0315733
sVx
F-14.6401758
sVz
F2.5977821400000001
ssg219
(dp351
Vy
F7.5250060000000003
sVx
F-16.527118699999999
sVz
F1.509091
ssg221
I00
sg222
(dp352
g50
VRammyy
p353
sg52
Nssg226
(lp354
sg228
(lp355
(dp356
g50
VRNG Ninja HCS
p357
sg52
Nsasg230
I00
sg44
VPT30.4520008S
p358
sg41
VDeath
p359
sg233
I1
sa(dp360
g47
I4096745987
sg41
VWeaponDrop
p361
sg189
I10
sg53
(lp362
I2758383128
asg44
VPT30.453S
p363
sg192
I4
sg193
VP0DT0H0M11.8333S
p364
sg48
(dp365
g50
VRammyy
p366
sg52
Nssa(dp367
g47
I313138863
sg41
VWeaponDrop
p368
sg189
I0
sg53
(lp369
I1095363701
asg44
VPT30.4540008S
p370
sg192
I0
sg193
VP0DT0H0M0.9000S
p371
sg48
(dp372
g50
VRammyy
p373
sg52
Nssa(dp374
g204
I4096745987
sg205
I00
sg206
I00
sg207
(dp375
g50
VCLG LethuL HCS
p376
sg52
Nssg210
(lp377
I2758383128
asg212
I00
sg213
I00
sg214
I2
sg215
I0
sg216
I0
sg217
(dp378
Vy
F1.4954085399999999
sVx
F-1.0121907000000001
sVz
F0.30554962200000002
ssg219
(dp379
Vy
F0.099263770000000001
sVx
F8.0122160000000004
sVz
F0.71333765999999998
ssg221
I00
sg222
(dp380
g224
g225
ssg226
(lp381
sg228
(lp382
sg230
I00
sg44
VPT31.5350009S
p383
sg41
VDeath
p384
sg233
I1
sa(dp385
g204
I47178948
sg205
I00
sg206
I00
sg207
(dp386
g50
VCLG LethuL HCS
p387
sg52
Nssg210
(lp388
sg212
I00
sg213
I00
sg214
I2
sg215
I0
sg216
I0
sg217
(dp389
Vy
F1.4954085399999999
sVx
F-1.0121907000000001
sVz
F0.30554962200000002
ssg219
(dp390
Vy
F0.10924162
sVx
F8.0052920000000007
sVz
F0.30533176699999998
ssg221
I00
sg222
(dp391
g224
g225
ssg226
(lp392
sg228
(lp393
sg230
I00
sg44
VPT31.5350009S
p394
sg41
VDeath
p395
sg233
I1
sa(dp396
g47
I313138863
sg48
(dp397
g50
VRNG Penguin HCS
p398
sg52
Nssg53
(lp399
I1095363701
asg41
VWeaponPickup
p400
sg44
VPT35.4850007S
p401
sa(dp402
g47
I4096745987
sg48
(dp403
g50
VRNG Penguin HCS
p404
sg52
Nssg53
(lp405
I2758383128
asg41
VWeaponPickup
p406
sg44
VPT35.4850007S
p407
sa(dp408
g41
VPlayerSpawn
p409
sg48
(dp410
g50
VRNG Penguin HCS
p411
sg52
Nssg44
VPT35.4850007S
p412
sa(dp413
g47
I313138863
sg48
(dp414
g50
VRammyy
p415
sg52
Nssg53
(lp416
I1095363701
asg41
VWeaponPickup
p417
sg44
VPT38.4680012S
p418
sa(dp419
g47
I4096745987
sg48
(dp420
g50
VRammyy
p421
sg52
Nssg53
(lp422
I2758383128
asg41
VWeaponPickup
p423
sg44
VPT38.4680012S
p424
sa(dp425
g41
VPlayerSpawn
p426
sg48
(dp427
g50
VRammyy
p428
sg52
Nssg44
VPT38.4680012S
p429
sa(dp430
g47
I313138863
sg41
VWeaponDrop
p431
sg189
I0
sg53
(lp432
I1095363701
asg44
VPT40.3989986S
p433
sg192
I0
sg193
VP0DT0H0M1.7333S
p434
sg48
(dp435
g50
VRNG Penguin HCS
p436
sg52
Nssa(dp437
g47
I4054937266
sg48
(dp438
g50
VRNG Penguin HCS
p439
sg52
Nssg53
(lp440
I2758383128
asg41
VWeaponPickupPad
p441
sg44
VPT40.3989986S
p442
sa(dp443
g47
I4054937266
sg48
(dp444
g50
VRNG Penguin HCS
p445
sg52
Nssg53
(lp446
I2758383128
asg41
VWeaponPickup
p447
sg44
VPT40.4000007S
p448
sa(dp449
g204
I723388907
sg205
I00
sg206
I00
sg207
(dp450
g50
VRNG Commonly
p451
sg52
Nssg210
(lp452
I89283061
asg212
I00
sg213
I01
sg214
I1
sg215
I0
sg216
I1
sg217
(dp453
Vy
F3.9529714600000001
sVx
F-2.2271754700000002
sVz
F3.1842248400000002
ssg219
(dp454
Vy
F0.75416934499999999
sVx
F-4.81032276
sVz
F3.76232481
ssg221
I00
sg222
(dp455
g50
VCLG LethuL HCS
p456
sg52
Nssg226
(lp457
sg228
(lp458
(dp459
g50
VRNG Ninja HCS
p460
sg52
Nsasg230
I00
sg44
VPT42.5340014S
p461
sg41
VDeath
p462
sg233
I1
sa(dp463
g47
I313138863
sg41
VWeaponDrop
p464
sg189
I0
sg53
(lp465
I1095363701
asg44
VPT42.5360004S
p466
sg192
I0
sg193
VP0DT0H0M3.3667S
p467
sg48
(dp468
g50
VCLG LethuL HCS
p469
sg52
Nssa(dp470
g47
I4096745987
sg41
VWeaponDrop
p471
sg189
I10
sg53
(lp472
I2758383128
asg44
VPT42.5360004S
p473
sg192
I1
sg193
VP0DT0H0M21.3667S
p474
sg48
(dp475
g50
VCLG LethuL HCS
p476
sg52
Nssa(dp477
g204
I723388907
sg205
I00
sg206
I00
sg207
(dp478
g50
VRNG Commonly
p479
sg52
Nssg210
(lp480
I89283061
asg212
I00
sg213
I01
sg214
I1
sg215
I0
sg216
I1
sg217
(dp481
Vy
F-0.75149333500000004
sVx
F0.051833547700000003
sVz
F1.28162336
ssg219
(dp482
Vy
F1.00774634
sVx
F-5.1912250000000002
sVz
F1.15583134
ssg221
I00
sg222
(dp483
g50
VCLG Snake Bite
p484
sg52
Nssg226
(lp485
sg228
(lp486
(dp487
g50
VRNG Ninja HCS
p488
sg52
Nsasg230
I00
sg44
VPT47.3510004S
p489
sg41
VDeath
p490
sg233
I1
sa(dp491
g41
VImpulse
p492
sg48
(dp493
g50
VRNG Commonly
p494
sg52
NssVImpulseId
p495
I2556889090
sg44
VPT47.3510004S
p496
sa(dp497
g41
VMedal
p498
sg48
(dp499
g50
VRNG Commonly
p500
sg52
Nssg330
I2838259753
sg44
VPT47.3510004S
p501
sa(dp502
g41
VMedal
p503
sg48
(dp504
g50
VRNG Commonly
p505
sg52
Nssg330
I2078758684
sg44
VPT47.3540006S
p506
sa(dp507
g47
I313138863
sg41
VWeaponDrop
p508
sg189
I19
sg53
(lp509
I1095363701
asg44
VPT47.3540006S
p510
sg192
I9
sg193
VP0DT0H0M11.1000S
p511
sg48
(dp512
g50
VCLG Snake Bite
p513
sg52
Nssa(dp514
g47
I4096745987
sg41
VWeaponDrop
p515
sg189
I14
sg53
(lp516
I2758383128
asg44
VPT47.3540006S
p517
sg192
I5
sg193
VP0DT0H0M18.4667S
p518
sg48
(dp519
g50
VCLG Snake Bite
p520
sg52
Nssa(dp521
g47
I313138863
sg48
(dp522
g50
VCLG LethuL HCS
p523
sg52
Nssg53
(lp524
I1095363701
asg41
VWeaponPickup
p525
sg44
VPT50.551001S
p526
sa(dp527
g47
I4096745987
sg48
(dp528
g50
VCLG LethuL HCS
p529
sg52
Nssg53
(lp530
I2758383128
asg41
VWeaponPickup
p531
sg44
VPT50.551001S
p532
sa(dp533
g41
VPlayerSpawn
p534
sg48
(dp535
g50
VCLG LethuL HCS
p536
sg52
Nssg44
VPT50.551001S
p537
sa(dp538
g204
I4054937266
sg205
I00
sg206
I00
sg207
(dp539
g50
VRNG Penguin HCS
p540
sg52
Nssg210
(lp541
I2758383128
asg212
I00
sg213
I01
sg214
I1
sg215
I0
sg216
I1
sg217
(dp542
Vy
F7.0402464900000004
sVx
F-11.621993099999999
sVz
F1.50913393
ssg219
(dp543
Vy
F0.88288100000000003
sVx
F-18.254621499999999
sVz
F1.5045990899999999
ssg221
I00
sg222
(dp544
g50
VRammyy
p545
sg52
Nssg226
(lp546
sg228
(lp547
sg230
I00
sg44
VPT51.2830002S
p548
sg41
VDeath
p549
sg233
I1
sa(dp550
g41
VMedal
p551
sg48
(dp552
g50
VRNG Commonly
p553
sg52
Nssg330
I824733727
sg44
VPT51.2840003S
p554
sa(dp555
g47
I313138863
sg41
VWeaponDrop
p556
sg189
I0
sg53
(lp557
I1095363701
asg44
VPT51.2850004S
p558
sg192
I0
sg193
VP0DT0H0M0.7000S
p559
sg48
(dp560
g50
VRammyy
p561
sg52
Nssa(dp562
g47
I4096745987
sg41
VWeaponDrop
p563
sg189
I7
sg53
(lp564
I2758383128
asg44
VPT51.2850004S
p565
sg192
I3
sg193
VP0DT0H0M12.1167S
p566
sg48
(dp567
g50
VRammyy
p568
sg52
Nssa(dp569
g47
I313138863
sg41
VWeaponDrop
p570
sg189
I0
sg53
(lp571
I1095363701
asg44
VPT55.0149995S
p572
sg192
I0
sg193
VP0DT0H0M5.1500S
p573
sg48
(dp574
g50
VRNG Victory X
p575
sg52
Nssa(dp576
g47
I723388907
sg48
(dp577
g50
VRNG Victory X
p578
sg52
Nssg53
(lp579
I89283061
asg41
VWeaponPickup
p580
sg44
VPT55.0160008S
p581
sa(dp582
g47
I313138863
sg48
(dp583
g50
VCLG Snake Bite
p584
sg52
Nssg53
(lp585
I1095363701
asg41
VWeaponPickup
p586
sg44
VPT55.367001S
p587
sa(dp588
g47
I4096745987
sg48
(dp589
g50
VCLG Snake Bite
p590
sg52
Nssg53
(lp591
I2758383128
asg41
VWeaponPickup
p592
sg44
VPT55.367001S
p593
sa(dp594
g41
VPlayerSpawn
p595
sg48
(dp596
g50
VCLG Snake Bite
p597
sg52
Nssg44
VPT55.367001S
p598
sa(dp599
g47
I313138863
sg48
(dp600
g50
VRammyy
p601
sg52
Nssg53
(lp602
I1095363701
asg41
VWeaponPickup
p603
sg44
VPT59.3010003S
p604
sa(dp605
g47
I4096745987
sg48
(dp606
g50
VRammyy
p607
sg52
Nssg53
(lp608
I2758383128
asg41
VWeaponPickup
p609
sg44
VPT59.3010003S
p610
sa(dp611
g41
VPlayerSpawn
p612
sg48
(dp613
g50
VRammyy
p614
sg52
Nssg44
VPT59.3010003S
p615
sa(dp616
g204
I4108759423
sg205
I00
sg206
I00
sg207
(dp617
g50
VRNG Victory X
p618
sg52
Nssg210
(lp619
I2758383128
asg212
I00
sg213
I01
sg214
I1
sg215
I0
sg216
I1
sg217
(dp620
Vy
F16.806652100000001
sVx
F-10.078624700000001
sVz
F1.50039744
ssg219
(dp621
Vy
F22.382217399999998
sVx
F-3.8107570000000002
sVz
F2.6030218600000001
ssg221
I00
sg222
(dp622
g50
VCLG LethuL HCS
p623
sg52
Nssg226
(lp624
sg228
(lp625
(dp626
g50
VRNG Ninja HCS
p627
sg52
Nsasg230
I01
sg44
VPT1M1.4500005S
p628
sg41
VDeath
p629
sg233
I1
sa(dp630
g41
VImpulse
p631
sg48
(dp632
g50
VRNG Victory X
p633
sg52
Nssg495
I2556889090
sg44
VPT1M1.4510006S
p634
sa(dp635
g41
VMedal
p636
sg48
(dp637
g50
VRNG Victory X
p638
sg52
Nssg330
I2838259753
sg44
VPT1M1.4510006S
p639
sa(dp640
g41
VMedal
p641
sg48
(dp642
g50
VRNG Commonly
p643
sg52
Nssg330
I824733727
sg44
VPT1M1.4520006S
p644
sa(dp645
g41
VMedal
p646
sg48
(dp647
g50
VRNG Victory X
p648
sg52
Nssg330
I3261908037
sg44
VPT1M1.4520006S
p649
sa(dp650
g47
I313138863
sg41
VWeaponDrop
p651
sg189
I0
sg53
(lp652
I1095363701
asg44
VPT1M1.4530001S
p653
sg192
I0
sg193
VP0DT0H0M0.8333S
p654
sg48
(dp655
g50
VCLG LethuL HCS
p656
sg52
Nssa(dp657
g47
I4096745987
sg41
VWeaponDrop
p658
sg189
I10
sg53
(lp659
I2758383128
asg44
VPT1M1.4530001S
p660
sg192
I7
sg193
VP0DT0H0M10.0667S
p661
sg48
(dp662
g50
VCLG LethuL HCS
p663
sg52
Nssa(dp664
g204
I4096745987
sg205
I00
sg206
I00
sg207
(dp665
g50
VCLG Snake Bite
p666
sg52
Nssg210
(lp667
I2758383128
asg212
I00
sg213
I01
sg214
I1
sg215
I0
sg216
I1
sg217
(dp668
Vy
F10.069251100000001
sVx
F2.417564
sVz
F1.4982089999999999
ssg219
(dp669
Vy
F7.1900300000000001
sVx
F-3.3685522099999998
sVz
F1.4976973499999999
ssg221
I00
sg222
(dp670
g50
VRNG Ninja HCS
p671
sg52
Nssg226
(lp672
sg228
(lp673
(dp674
g50
VCLG LethuL HCS
p675
sg52
Nsasg230
I01
sg44
VPT1M2.6000005S
p676
sg41
VDeath
p677
sg233
I1
sa(dp678
g41
VMedal
p679
sg48
(dp680
g50
VCLG Snake Bite
p681
sg52
Nssg330
I3261908037
sg44
VPT1M2.6010006S
p682
sa(dp683
g47
I3808094875
sg41
VWeaponDrop
p684
sg189
I16
sg53
(lp685
I2758383128
asg44
VPT1M2.6020002S
p686
sg192
I11
sg193
VP0DT0H0M13.7500S
p687
sg48
(dp688
g50
VRNG Ninja HCS
p689
sg52
Nssa(dp690
g47
I4096745987
sg41
VWeaponDrop
p691
sg189
I22
sg53
(lp692
I2758383128
asg44
VPT1M2.6020002S
p693
sg192
I9
sg193
VP0DT0H0M30.0167S
p694
sg48
(dp695
g50
VRNG Ninja HCS
p696
sg52
Nssa(dp697
g204
I4096745987
sg205
I00
sg206
I00
sg207
(dp698
g50
VRNG Penguin HCS
p699
sg52
Nssg210
(lp700
I2758383128
asg212
I00
sg213
I01
sg214
I1
sg215
I0
sg216
I1
sg217
(dp701
Vy
F-0.0150403753
sVx
F-17.355501199999999
sVz
F2.2541769999999999
ssg219
(dp702
Vy
F-1.5644035300000001
sVx
F-13.464002600000001
sVz
F2.90027452
ssg221
I00
sg222
(dp703
g50
VCLG Frosty HCS
p704
sg52
Nssg226
(lp705
sg228
(lp706
sg230
I01
sg44
VPT1M4.8000064S
p707
sg41
VDeath
p708
sg233
I1
sa(dp709
g41
VMedal
p710
sg48
(dp711
g50
VRNG Penguin HCS
p712
sg52
Nssg330
I3261908037
sg44
VPT1M4.8010003S
p713
sa(dp714
g47
I669296699
sg41
VWeaponDrop
p715
sg189
I2
sg53
(lp716
I2758383128
asg44
VPT1M4.8020007S
p717
sg192
I0
sg193
VP0DT0H0M33.7833S
p718
sg48
(dp719
g50
VCLG Frosty HCS
p720
sg52
Nssa(dp721
g47
I4096745987
sg41
VWeaponDrop
p722
sg189
I1
sg53
(lp723
I2758383128
asg44
VPT1M4.8020007S
p724
sg192
I1
sg193
VP0DT0H0M8.2000S
p725
sg48
(dp726
g50
VCLG Frosty HCS
p727
sg52
Nssa(dp728
g47
I4096745987
sg41
VWeaponDrop
p729
sg189
I12
sg53
(lp730
I2758383128
asg44
VPT1M7.5479994S
p731
sg192
I8
sg193
VP0DT0H0M16.5000S
p732
sg48
(dp733
g50
VRNG Penguin HCS
p734
sg52
Nssa(dp735
g47
I669296699
sg48
(dp736
g50
VRNG Penguin HCS
p737
sg52
Nssg53
(lp738
I2758383128
asg41
VWeaponPickup
p739
sg44
VPT1M7.5490006S
p740
sa(dp741
g47
I313138863
sg48
(dp742
g50
VCLG LethuL HCS
p743
sg52
Nssg53
(lp744
I1095363701
asg41
VWeaponPickup
p745
sg44
VPT1M9.4670009S
p746
sa(dp747
g47
I4096745987
sg48
(dp748
g50
VCLG LethuL HCS
p749
sg52
Nssg53
(lp750
I2758383128
asg41
VWeaponPickup
p751
sg44
VPT1M9.4670009S
p752
sa(dp753
g41
VPlayerSpawn
p754
sg48
(dp755
g50
VCLG LethuL HCS
p756
sg52
Nssg44
VPT1M9.4670009S
p757
sa(dp758
g47
I313138863
sg48
(dp759
g50
VRNG Ninja HCS
p760
sg52
Nssg53
(lp761
I1095363701
asg41
VWeaponPickup
p762
sg44
VPT1M10.6160009S
p763
sa(dp764
g47
I4096745987
sg48
(dp765
g50
VRNG Ninja HCS
p766
sg52
Nssg53
(lp767
I2758383128
asg41
VWeaponPickup
p768
sg44
VPT1M10.6170012S
p769
sa(dp770
g41
VPlayerSpawn
p771
sg48
(dp772
g50
VRNG Ninja HCS
p773
sg52
Nssg44
VPT1M10.6170012S
p774
sa(dp775
g47
I313138863
sg48
(dp776
g50
VCLG Frosty HCS
p777
sg52
Nssg53
(lp778
I1095363701
asg41
VWeaponPickup
p779
sg44
VPT1M12.8160012S
p780
sa(dp781
g47
I4096745987
sg48
(dp782
g50
VCLG Frosty HCS
p783
sg52
Nssg53
(lp784
I2758383128
asg41
VWeaponPickup
p785
sg44
VPT1M12.8170013S
p786
sa(dp787
g41
VPlayerSpawn
p788
sg48
(dp789
g50
VCLG Frosty HCS
p790
sg52
Nssg44
VPT1M12.8170013S
p791
sa(dp792
g204
I4096745987
sg205
I00
sg206
I00
sg207
(dp793
g50
VRNG Commonly
p794
sg52
Nssg210
(lp795
I2758383128
asg212
I00
sg213
I01
sg214
I1
sg215
I0
sg216
I1
sg217
(dp796
Vy
F14.171760000000001
sVx
F-4.1289600000000002
sVz
F1.4995212600000001
ssg219
(dp797
Vy
F23.803161599999999
sVx
F-2.6652429999999998
sVz
F2.54194546
ssg221
I00
sg222
(dp798
g50
VCLG LethuL HCS
p799
sg52
Nssg226
(lp800
sg228
(lp801
sg230
I01
sg44
VPT1M19.0660005S
p802
sg41
VDeath
p803
sg233
I1
sa(dp804
g41
VMedal
p805
sg48
(dp806
g50
VRNG Ninja HCS
p807
sg52
Nssg330
I824733727
sg44
VPT1M19.0679998S
p808
sa(dp809
g41
VMedal
p810
sg48
(dp811
g50
VRNG Commonly
p812
sg52
Nssg330
I3261908037
sg44
VPT1M19.069S
p813
sa(dp814
g47
I313138863
sg41
VWeaponDrop
p815
sg189
I6
sg53
(lp816
I1095363701
asg44
VPT1M19.069S
p817
sg192
I2
sg193
VP0DT0H0M2.2667S
p818
sg48
(dp819
g50
VCLG LethuL HCS
p820
sg52
Nssa(dp821
g47
I4096745987
sg41
VWeaponDrop
p822
sg189
I1
sg53
(lp823
I2758383128
asg44
VPT1M19.069S
p824
sg192
I1
sg193
VP0DT0H0M7.3333S
p825
sg48
(dp826
g50
VCLG LethuL HCS
p827
sg52
Nssa(dp828
g204
I4054937266
sg205
I00
sg206
I00
sg207
(dp829
g50
VRNG Penguin HCS
p830
sg52
Nssg210
(lp831
I2758383128
asg212
I00
sg213
I01
sg214
I1
sg215
I0
sg216
I1
sg217
(dp832
Vy
F12.5897121
sVx
F-12.488728500000001
sVz
F1.5086544799999999
ssg219
(dp833
Vy
F13.6773539
sVx
F-5.9805149999999996
sVz
F1.4995212600000001
ssg221
I00
sg222
(dp834
g50
VCLG Frosty HCS
p835
sg52
Nssg226
(lp836
sg228
(lp837
sg230
I00
sg44
VPT1M20.9820005S
p838
sg41
VDeath
p839
sg233
I1
sa(dp840
g41
VImpulse
p841
sg48
(dp842
g50
VRNG Penguin HCS
p843
sg52
Nssg495
I2556889090
sg44
VPT1M20.9820005S
p844
sa(dp845
g41
VMedal
p846
sg48
(dp847
g50
VRNG Penguin HCS
p848
sg52
Nssg330
I2838259753
sg44
VPT1M20.9820005S
p849
sa(dp850
g41
VMedal
p851
sg48
(dp852
g50
VRNG Commonly
p853
sg52
Nssg330
I824733727
sg44
VPT1M20.9830009S
p854
sa(dp855
g47
I313138863
sg41
VWeaponDrop
p856
sg189
I13
sg53
(lp857
I1095363701
asg44
VPT1M20.9840046S
p858
sg192
I7
sg193
VP0DT0H0M4.0500S
p859
sg48
(dp860
g50
VCLG Frosty HCS
p861
sg52
Nssa(dp862
g47
I4096745987
sg41
VWeaponDrop
p863
sg189
I2
sg53
(lp864
I2758383128
asg44
VPT1M20.9840046S
p865
sg192
I1
sg193
VP0DT0H0M4.1167S
p866
sg48
(dp867
g50
VCLG Frosty HCS
p868
sg52
Nssa(dp869
g204
I313138863
sg205
I00
sg206
I00
sg207
(dp870
g50
VRNG Ninja HCS
p871
sg52
Nssg210
(lp872
I1095363701
asg212
I00
sg213
I01
sg214
I1
sg215
I0
sg216
I1
sg217
(dp873
Vy
F9.3296989999999997
sVx
F-0.14839330000000001
sVz
F1.4982089999999999
ssg219
(dp874
Vy
F7.7057533300000003
sVx
F-1.13877213
sVz
F1.4980066999999999
ssg221
I00
sg222
(dp875
g50
VRammyy
p876
sg52
Nssg226
(lp877
sg228
(lp878
sg230
I00
sg44
VPT1M23.0820007S
p879
sg41
VDeath
p880
sg233
I1
sa(dp881
g47
I313138863
sg41
VWeaponDrop
p882
sg189
I12
sg53
(lp883
I1095363701
asg44
VPT1M23.0840014S
p884
sg192
I0
sg193
VP0DT0H0M6.2333S
p885
sg48
(dp886
g50
VRammyy
p887
sg52
Nssa(dp888
g47
I4096745987
sg41
VWeaponDrop
p889
sg189
I7
sg53
(lp890
I2758383128
asg44
VPT1M23.0840014S
p891
sg192
I4
sg193
VP0DT0H0M17.5500S
p892
sg48
(dp893
g50
VRammyy
p894
sg52
Nssa(dp895
g41
VMedal
p896
sg48
(dp897
g50
VRNG Commonly
p898
sg52
Nssg330
I3400287617
sg44
VPT1M23.6150005S
p899
sa(dp900
g47
I313138863
sg48
(dp901
g50
VCLG LethuL HCS
p902
sg52
Nssg53
(lp903
I1095363701
asg41
VWeaponPickup
p904
sg44
VPT1M27.0820012S
p905
sa(dp906
g47
I4096745987
sg48
(dp907
g50
VCLG LethuL HCS
p908
sg52
Nssg53
(lp909
I2758383128
asg41
VWeaponPickup
p910
sg44
VPT1M27.0830011S
p911
sa(dp912
g41
VPlayerSpawn
p913
sg48
(dp914
g50
VCLG LethuL HCS
p915
sg52
Nssg44
VPT1M27.0830011S
p916
sa(dp917
g204
I4096745987
sg205
I00
sg206
I00
sg207
(dp918
g50
VRNG Ninja HCS
p919
sg52
Nssg210
(lp920
I2758383128
asg212
I00
sg213
I01
sg214
I1
sg215
I0
sg216
I1
sg217
(dp921
Vy
F11.3598976
sVx
F-1.5729343899999999
sVz
F-0.86868749999999995
ssg219
(dp922
Vy
F17.977370000000001
sVx
F5.7486069999999998
sVz
F-0.49406325800000001
ssg221
I00
sg222
(dp923
g50
VCLG Snake Bite
p924
sg52
Nssg226
(lp925
sg228
(lp926
(dp927
g50
VRNG Commonly
p928
sg52
Nsasg230
I01
sg44
VPT1M28.0650024S
p929
sg41
VDeath
p930
sg233
I1
sa(dp931
g41
VMedal
p932
sg48
(dp933
g50
VRNG Ninja HCS
p934
sg52
Nssg330
I3261908037
sg44
VPT1M28.0670005S
p935
sa(dp936
g41
VMedal
p937
sg48
(dp938
g50
VRNG Ninja HCS
p939
sg52
Nssg330
I2078758684
sg44
VPT1M28.0670005S
p940
sa(dp941
g47
I4096745987
sg41
VWeaponDrop
p942
sg189
I7
sg53
(lp943
I2758383128
asg44
VPT1M28.0680006S
p944
sg192
I3
sg193
VP0DT0H0M19.3000S
p945
sg48
(dp946
g50
VCLG Snake Bite
p947
sg52
Nssa(dp948
g47
I313138863
sg41
VWeaponDrop
p949
sg189
I24
sg53
(lp950
I1095363701
asg44
VPT1M28.0689999S
p951
sg192
I2
sg193
VP0DT0H0M13.4000S
p952
sg48
(dp953
g50
VCLG Snake Bite
p954
sg52
Nssa(dp955
g47
I313138863
sg48
(dp956
g50
VCLG Frosty HCS
p957
sg52
Nssg53
(lp958
I1095363701
asg41
VWeaponPickup
p959
sg44
VPT1M28.9990008S
p960
sa(dp961
g47
I4096745987
sg48
(dp962
g50
VCLG Frosty HCS
p963
sg52
Nssg53
(lp964
I2758383128
asg41
VWeaponPickup
p965
sg44
VPT1M28.9990008S
p966
sa(dp967
g41
VPlayerSpawn
p968
sg48
(dp969
g50
VCLG Frosty HCS
p970
sg52
Nssg44
VPT1M28.9990008S
p971
sa(dp972
g204
I4096745987
sg205
I00
sg206
I00
sg207
(dp973
g50
VCLG LethuL HCS
p974
sg52
Nssg210
(lp975
I2758383128
asg212
I00
sg213
I01
sg214
I1
sg215
I0
sg216
I1
sg217
(dp976
Vy
F-0.52065530000000004
sVx
F-16.255565600000001
sVz
F1.49932277
ssg219
(dp977
Vy
F12.0800743
sVx
F-2.5712320000000002
sVz
F-0.85605895499999995
ssg221
I00
sg222
(dp978
g50
VRNG Ninja HCS
p979
sg52
Nssg226
(lp980
sg228
(lp981
(dp982
g50
VCLG Snake Bite
p983
sg52
Nsasg230
I01
sg44
VPT1M29.0820005S
p984
sg41
VDeath
p985
sg233
I1
sa(dp986
g41
VMedal
p987
sg48
(dp988
g50
VCLG LethuL HCS
p989
sg52
Nssg330
I3261908037
sg44
VPT1M29.0840405S
p990
sa(dp991
g47
I313138863
sg41
VWeaponDrop
p992
sg189
I13
sg53
(lp993
I1095363701
asg44
VPT1M29.0850005S
p994
sg192
I5
sg193
VP0DT0H0M5.7500S
p995
sg48
(dp996
g50
VRNG Ninja HCS
p997
sg52
Nssa(dp998
g47
I313138863
sg41
VWeaponDrop
p999
sg189
I0
sg53
(lp1000
I1095363701
asg44
VPT1M29.0850005S
p1001
sg192
I0
sg193
VP0DT0S
p1002
sg48
(dp1003
g50
VRNG Ninja HCS
p1004
sg52
Nssa(dp1005
g47
I4096745987
sg41
VWeaponDrop
p1006
sg189
I12
sg53
(lp1007
I2758383128
asg44
VPT1M29.0850005S
p1008
sg192
I3
sg193
VP0DT0H0M12.7167S
p1009
sg48
(dp1010
g50
VRNG Ninja HCS
p1011
sg52
Nssa(dp1012
g204
I2457457776
sg205
I00
sg206
I00
sg207
(dp1013
g50
VRNG Commonly
p1014
sg52
Nssg210
(lp1015
sg212
I00
sg213
I00
sg214
I0
sg215
I0
sg216
I1
sg217
(dp1016
Vy
F16.466270000000002
sVx
F-6.7448344200000001
sVz
F-5.0771369999999996
ssg219
(dp1017
Vy
F16.466270000000002
sVx
F-6.7448344200000001
sVz
F-5.0771369999999996
ssg221
I00
sg222
(dp1018
g50
VRNG Commonly
p1019
sg52
Nssg226
(lp1020
sg228
(lp1021
sg230
I00
sg44
VPT1M29.9650007S
p1022
sg41
VDeath
p1023
sg233
I1
sa(dp1024
g41
VImpulse
p1025
sg48
(dp1026
g50
VRNG Commonly
p1027
sg52
Nssg495
I1408036107
sg44
VPT1M29.9650007S
p1028
sa(dp1029
g47
I723388907
sg41
VWeaponDrop
p1030
sg189
I96
sg53
(lp1031
I89283061
asg44
VPT1M29.9660001S
p1032
sg192
I34
sg193
VP0DT0H0M37.1167S
p1033
sg48
(dp1034
g50
VRNG Commonly
p1035
sg52
Nssa(dp1036
g47
I4096745987
sg41
VWeaponDrop
p1037
sg189
I11
sg53
(lp1038
I2758383128
asg44
VPT1M29.9660001S
p1039
sg192
I8
sg193
VP0DT0H0M28.5000S
p1040
sg48
(dp1041
g50
VRNG Commonly
p1042
sg52
Nssa(dp1043
g47
I313138863
sg48
(dp1044
g50
VRammyy
p1045
sg52
Nssg53
(lp1046
I1095363701
asg41
VWeaponPickup
p1047
sg44
VPT1M31.0990229S
p1048
sa(dp1049
g47
I4096745987
sg48
(dp1050
g50
VRammyy
p1051
sg52
Nssg53
(lp1052
I2758383128
asg41
VWeaponPickup
p1053
sg44
VPT1M31.0990229S
p1054
sa(dp1055
g41
VPlayerSpawn
p1056
sg48
(dp1057
g50
VRammyy
p1058
sg52
Nssg44
VPT1M31.0990229S
p1059
sa(dp1060
g204
I723388907
sg205
I00
sg206
I01
sg207
(dp1061
g50
VRNG Victory X
p1062
sg52
Nssg210
(lp1063
I89283061
asg212
I00
sg213
I00
sg214
I1
sg215
I0
sg216
I1
sg217
(dp1064
Vy
F1.8566486799999999
sVx
F-18.88447
sVz
F1.5583717800000001
ssg219
(dp1065
Vy
F1.953646
sVx
F-18.547709999999999
sVz
F1.6399617200000001
ssg221
I00
sg222
(dp1066
g50
VCLG LethuL HCS
p1067
sg52
Nssg226
(lp1068
sg228
(lp1069
sg230
I00
sg44
VPT1M34.4820006S
p1070
sg41
VDeath
p1071
sg233
I1
sa(dp1072
g41
VMedal
p1073
sg48
(dp1074
g50
VRNG Victory X
p1075
sg52
Nssg330
I2287626681
sg44
VPT1M34.4830008S
p1076
sa(dp1077
g47
I4096745987
sg41
VWeaponDrop
p1078
sg189
I2
sg53
(lp1079
I2758383128
asg44
VPT1M34.484001S
p1080
sg192
I1
sg193
VP0DT0H0M6.5833S
p1081
sg48
(dp1082
g50
VCLG LethuL HCS
p1083
sg52
Nssa(dp1084
g47
I313138863
sg41
VWeaponDrop
p1085
sg189
I0
sg53
(lp1086
I1095363701
asg44
VPT1M34.484001S
p1087
sg192
I0
sg193
VP0DT0H0M0.8167S
p1088
sg48
(dp1089
g50
VCLG LethuL HCS
p1090
sg52
Nssa(dp1091
g47
I313138863
sg48
(dp1092
g50
VCLG Snake Bite
p1093
sg52
Nssg53
(lp1094
I1095363701
asg41
VWeaponPickup
p1095
sg44
VPT1M36.0830011S
p1096
sa(dp1097
g47
I4096745987
sg48
(dp1098
g50
VCLG Snake Bite
p1099
sg52
Nssg53
(lp1100
I2758383128
asg41
VWeaponPickup
p1101
sg44
VPT1M36.0830011S
p1102
sa(dp1103
g41
VPlayerSpawn
p1104
sg48
(dp1105
g50
VCLG Snake Bite
p1106
sg52
Nssg44
VPT1M36.0830011S
p1107
sa(dp1108
g47
I313138863
sg48
(dp1109
g50
VRNG Ninja HCS
p1110
sg52
Nssg53
(lp1111
I1095363701
asg41
VWeaponPickup
p1112
sg44
VPT1M37.099006S
p1113
sa(dp1114
g47
I4096745987
sg48
(dp1115
g50
VRNG Ninja HCS
p1116
sg52
Nssg53
(lp1117
I2758383128
asg41
VWeaponPickup
p1118
sg44
VPT1M37.099006S
p1119
sa(dp1120
g41
VPlayerSpawn
p1121
sg48
(dp1122
g50
VRNG Ninja HCS
p1123
sg52
Nssg44
VPT1M37.099006S
p1124
sa(dp1125
g47
I313138863
sg48
(dp1126
g50
VRNG Commonly
p1127
sg52
Nssg53
(lp1128
I1095363701
asg41
VWeaponPickup
p1129
sg44
VPT1M37.9820012S
p1130
sa(dp1131
g47
I4096745987
sg48
(dp1132
g50
VRNG Commonly
p1133
sg52
Nssg53
(lp1134
I2758383128
asg41
VWeaponPickup
p1135
sg44
VPT1M37.9820012S
p1136
sa(dp1137
g41
VPlayerSpawn
p1138
sg48
(dp1139
g50
VRNG Commonly
p1140
sg52
Nssg44
VPT1M37.9830007S
p1141
sa(dp1142
g204
I4096745987
sg205
I00
sg206
I00
sg207
(dp1143
g50
VCLG Frosty HCS
p1144
sg52
Nssg210
(lp1145
I2758383128
asg212
I00
sg213
I01
sg214
I1
sg215
I0
sg216
I1
sg217
(dp1146
Vy
F11.092438700000001
sVx
F-9.9088940000000001
sVz
F3.2293641599999998
ssg219
(dp1147
Vy
F2.67359686
sVx
F-7.4352936700000001
sVz
F2.6801986699999998
ssg221
I00
sg222
(dp1148
g50
VRNG Penguin HCS
p1149
sg52
Nssg226
(lp1150
sg228
(lp1151
(dp1152
g50
VRammyy
p1153
sg52
Nsasg230
I01
sg44
VPT1M40.2480013S
p1154
sg41
VDeath
p1155
sg233
I1
sa(dp1156
g41
VMedal
p1157
sg48
(dp1158
g50
VCLG Frosty HCS
p1159
sg52
Nssg330
I3261908037
sg44
VPT1M40.2500002S
p1160
sa(dp1161
g47
I4054937266
sg41
VWeaponDrop
p1162
sg189
I10
sg53
(lp1163
I2758383128
asg44
VPT1M40.2510006S
p1164
sg192
I7
sg193
VP0DT0H0M29.0500S
p1165
sg48
(dp1166
g50
VRNG Penguin HCS
p1167
sg52
Nssa(dp1168
g47
I669296699
sg41
VWeaponDrop
p1169
sg189
I2
sg53
(lp1170
I2758383128
asg44
VPT1M40.2510006S
p1171
sg192
I0
sg193
VP0DT0H0M17.4833S
p1172
sg48
(dp1173
g50
VRNG Penguin HCS
p1174
sg52
Nssa(dp1175
g47
I313138863
sg48
(dp1176
g50
VCLG LethuL HCS
p1177
sg52
Nssg53
(lp1178
I1095363701
asg41
VWeaponPickup
p1179
sg44
VPT1M42.499S
p1180
sa(dp1181
g47
I4096745987
sg48
(dp1182
g50
VCLG LethuL HCS
p1183
sg52
Nssg53
(lp1184
I2758383128
asg41
VWeaponPickup
p1185
sg44
VPT1M42.499S
p1186
sa(dp1187
g41
VPlayerSpawn
p1188
sg48
(dp1189
g50
VCLG LethuL HCS
p1190
sg52
Nssg44
VPT1M42.499S
p1191
sa(dp1192
g204
I4108759423
sg205
I00
sg206
I00
sg207
(dp1193
g50
VRNG Victory X
p1194
sg52
Nssg210
(lp1195
I2758383128
asg212
I00
sg213
I01
sg214
I1
sg215
I0
sg216
I1
sg217
(dp1196
Vy
F-1.2241466000000001
sVx
F-11.3562517
sVz
F1.78939
ssg219
(dp1197
Vy
F9.9137319999999995
sVx
F-10.586160700000001
sVz
F1.15731227
ssg221
I00
sg222
(dp1198
g50
VCLG Frosty HCS
p1199
sg52
Nssg226
(lp1200
sg228
(lp1201
(dp1202
g50
VRNG Ninja HCS
p1203
sg52
Nsa(dp1204
g50
VRNG Commonly
p1205
sg52
Nsasg230
I01
sg44
VPT1M46.8810004S
p1206
sg41
VDeath
p1207
sg233
I1
sa(dp1208
g41
VMedal
p1209
sg48
(dp1210
g50
VRNG Victory X
p1211
sg52
Nssg330
I3261908037
sg44
VPT1M46.8830001S
p1212
sa(dp1213
g47
I313138863
sg41
VWeaponDrop
p1214
sg189
I0
sg53
(lp1215
I1095363701
asg44
VPT1M46.8839999S
p1216
sg192
I0
sg193
VP0DT0H0M0.9167S
p1217
sg48
(dp1218
g50
VCLG Frosty HCS
p1219
sg52
Nssa(dp1220
g47
I4096745987
sg41
VWeaponDrop
p1221
sg189
I10
sg53
(lp1222
I2758383128
asg44
VPT1M46.8839999S
p1223
sg192
I5
sg193
VP0DT0H0M16.9667S
p1224
sg48
(dp1225
g50
VCLG Frosty HCS
p1226
sg52
Nssa(dp1227
g47
I313138863
sg48
(dp1228
g50
VRNG Penguin HCS
p1229
sg52
Nssg53
(lp1230
I1095363701
asg41
VWeaponPickup
p1231
sg44
VPT1M48.265001S
p1232
sa(dp1233
g47
I4096745987
sg48
(dp1234
g50
VRNG Penguin HCS
p1235
sg52
Nssg53
(lp1236
I2758383128
asg41
VWeaponPickup
p1237
sg44
VPT1M48.265001S
p1238
sa(dp1239
g41
VPlayerSpawn
p1240
sg48
(dp1241
g50
VRNG Penguin HCS
p1242
sg52
Nssg44
VPT1M48.265001S
p1243
sa(dp1244
g47
I723388907
sg41
VWeaponDrop
p1245
sg189
I20
sg53
(lp1246
I89283061
asg44
VPT1M52.5470004S
p1247
sg192
I5
sg193
VP0DT0H0M8.2000S
p1248
sg48
(dp1249
g50
VRNG Victory X
p1250
sg52
Nssa(dp1251
g47
I723388907
sg41
VWeaponDrop
p1252
sg189
I0
sg53
(lp1253
I89283061
asg44
VPT1M52.5470004S
p1254
sg192
I0
sg193
VP0DT0S
p1255
sg48
(dp1256
g50
VRNG Victory X
p1257
sg52
Nssa(dp1258
g47
I4054937266
sg48
(dp1259
g50
VRNG Victory X
p1260
sg52
Nssg53
(lp1261
I2758383128
asg41
VWeaponPickup
p1262
sg44
VPT1M52.5470004S
p1263
sa(dp1264
g204
I4096745987
sg205
I00
sg206
I00
sg207
(dp1265
g50
VCLG LethuL HCS
p1266
sg52
Nssg210
(lp1267
I2758383128
asg212
I00
sg213
I01
sg214
I1
sg215
I0
sg216
I1
sg217
(dp1268
Vy
F10.8083019
sVx
F-9.4555600000000002
sVz
F3.2293605799999998
ssg219
(dp1269
Vy
F2.4168374500000001
sVx
F-9.5065299999999997
sVz
F2.5852427499999999
ssg221
I00
sg222
(dp1270
g50
VRNG Penguin HCS
p1271
sg52
Nssg226
(lp1272
sg228
(lp1273
sg230
I01
sg44
VPT1M52.7310002S
p1274
sg41
VDeath
p1275
sg233
I1
sa(dp1276
g41
VMedal
p1277
sg48
(dp1278
g50
VCLG LethuL HCS
p1279
sg52
Nssg330
I3261908037
sg44
VPT1M52.7329997S
p1280
sa(dp1281
g47
I313138863
sg41
VWeaponDrop
p1282
sg189
I0
sg53
(lp1283
I1095363701
asg44
VPT1M52.7329997S
p1284
sg192
I0
sg193
VP0DT0H0M1.1000S
p1285
sg48
(dp1286
g50
VRNG Penguin HCS
p1287
sg52
Nssa(dp1288
g47
I4096745987
sg41
VWeaponDrop
p1289
sg189
I0
sg53
(lp1290
I2758383128
asg44
VPT1M52.7329997S
p1291
sg192
I0
sg193
VP0DT0H0M3.3667S
p1292
sg48
(dp1293
g50
VRNG Penguin HCS
p1294
sg52
Nssa(dp1295
g204
I3190813201
sg205
I00
sg206
I00
sg207
(dp1296
g50
VCLG Snake Bite
p1297
sg52
Nssg210
(lp1298
sg212
I00
sg213
I01
sg214
I1
sg215
I0
sg216
I1
sg217
(dp1299
Vy
F0.388662428
sVx
F-4.3823059999999998
sVz
F0.30554962200000002
ssg219
(dp1300
Vy
F1.7070304199999999
sVx
F-7.09925461
sVz
F2.6818900000000001
ssg221
I00
sg222
(dp1301
g50
VRNG Victory X
p1302
sg52
Nssg226
(lp1303
sg228
(lp1304
sg230
I00
sg44
VPT1M53.5640005S
p1305
sg41
VDeath
p1306
sg233
I1
sa(dp1307
g47
I4054937266
sg41
VWeaponDrop
p1308
sg189
I0
sg53
(lp1309
I2758383128
asg44
VPT1M53.5660002S
p1310
sg192
I0
sg193
VP0DT0H0M0.4667S
p1311
sg48
(dp1312
g50
VRNG Victory X
p1313
sg52
Nssa(dp1314
g47
I4108759423
sg41
VWeaponDrop
p1315
sg189
I20
sg53
(lp1316
I2758383128
asg44
VPT1M53.5660002S
p1317
sg192
I8
sg193
VP0DT0H1M21.6500S
p1318
sg48
(dp1319
g50
VRNG Victory X
p1320
sg52
Nssa(dp1321
g47
I313138863
sg48
(dp1322
g50
VCLG Frosty HCS
p1323
sg52
Nssg53
(lp1324
I1095363701
asg41
VWeaponPickup
p1325
sg44
VPT1M54.8990009S
p1326
sa(dp1327
g47
I4096745987
sg48
(dp1328
g50
VCLG Frosty HCS
p1329
sg52
Nssg53
(lp1330
I2758383128
asg41
VWeaponPickup
p1331
sg44
VPT1M54.8990009S
p1332
sa(dp1333
g41
VPlayerSpawn
p1334
sg48
(dp1335
g50
VCLG Frosty HCS
p1336
sg52
Nssg44
VPT1M54.8990009S
p1337
sa(dp1338
g204
I313138863
sg205
I00
sg206
I00
sg207
(dp1339
g50
VRammyy
p1340
sg52
Nssg210
(lp1341
I1095363701
asg212
I00
sg213
I01
sg214
I1
sg215
I0
sg216
I1
sg217
(dp1342
Vy
F14.6876669
sVx
F-14.885372200000001
sVz
F-0.017080292100000002
ssg219
(dp1343
Vy
F12.563361199999999
sVx
F-17.519094500000001
sVz
F0.16859787700000001
ssg221
I00
sg222
(dp1344
g50
VRNG Commonly
p1345
sg52
Nssg226
(lp1346
sg228
(lp1347
(dp1348
g50
VCLG Snake Bite
p1349
sg52
Nsa(dp1350
g50
VCLG LethuL HCS
p1351
sg52
Nsasg230
I00
sg44
VPT1M57.5479997S
p1352
sg41
VDeath
p1353
sg233
I1
sa(dp1354
g47
I313138863
sg41
VWeaponDrop
p1355
sg189
I0
sg53
(lp1356
I1095363701
asg44
VPT1M57.5500001S
p1357
sg192
I0
sg193
VP0DT0H0M0.9667S
p1358
sg48
(dp1359
g50
VRNG Commonly
p1360
sg52
Nssa(dp1361
g47
I4096745987
sg41
VWeaponDrop
p1362
sg189
I11
sg53
(lp1363
I2758383128
asg44
VPT1M57.5500001S
p1364
sg192
I3
sg193
VP0DT0H0M18.6000S
p1365
sg48
(dp1366
g50
VRNG Commonly
p1367
sg52
Nssa(dp1368
g204
I4096745987
sg205
I00
sg206
I00
sg207
(dp1369
g50
VCLG Snake Bite
p1370
sg52
Nssg210
(lp1371
I2758383128
asg212
I00
sg213
I01
sg214
I1
sg215
I0
sg216
I1
sg217
(dp1372
Vy
F6.7044472700000002
sVx
F-18.408149999999999
sVz
F-0.89672739999999995
ssg219
(dp1373
Vy
F13.2800274
sVx
F-17.265582999999999
sVz
F-0.89670145499999998
ssg221
I00
sg222
(dp1374
g50
VRNG Ninja HCS
p1375
sg52
Nssg226
(lp1376
sg228
(lp1377
(dp1378
g50
VCLG LethuL HCS
p1379
sg52
Nsasg230
I00
sg44
VPT1M59.1140009S
p1380
sg41
VDeath
p1381
sg233
I1
sa(dp1382
g41
VImpulse
p1383
sg48
(dp1384
g50
VCLG Snake Bite
p1385
sg52
Nssg495
I2556889090
sg44
VPT1M59.1150007S
p1386
sa(dp1387
g41
VMedal
p1388
sg48
(dp1389
g50
VCLG Snake Bite
p1390
sg52
Nssg330
I2838259753
sg44
VPT1M59.1150007S
p1391
sa(dp1392
g47
I313138863
sg41
VWeaponDrop
p1393
sg189
I23
sg53
(lp1394
I1095363701
asg44
VPT1M59.1160002S
p1395
sg192
I7
sg193
VP0DT0H0M4.3167S
p1396
sg48
(dp1397
g50
VRNG Ninja HCS
p1398
sg52
Nssa(dp1399
g47
I4096745987
sg41
VWeaponDrop
p1400
sg189
I9
sg53
(lp1401
I2758383128
asg44
VPT1M59.1160002S
p1402
sg192
I4
sg193
VP0DT0H0M17.7000S
p1403
sg48
(dp1404
g50
VRNG Ninja HCS
p1405
sg52
Nssa(dp1406
g47
I313138863
sg41
VWeaponDrop
p1407
sg189
I15
sg53
(lp1408
I1095363701
asg44
VPT2M0.2959994S
p1409
sg192
I9
sg193
VP0DT0H0M6.6333S
p1410
sg48
(dp1411
g50
VRammyy
p1412
sg52
Nssa(dp1413
g47
I723388907
sg48
(dp1414
g50
VRammyy
p1415
sg52
Nssg53
(lp1416
I89283061
asg41
VWeaponPickup
p1417
sg44
VPT2M0.2959994S
p1418
sa(dp1419
g47
I313138863
sg48
(dp1420
g50
VRNG Penguin HCS
p1421
sg52
Nssg53
(lp1422
I1095363701
asg41
VWeaponPickup
p1423
sg44
VPT2M0.7480008S
p1424
sa(dp1425
g47
I4096745987
sg48
(dp1426
g50
VRNG Penguin HCS
p1427
sg52
Nssg53
(lp1428
I2758383128
asg41
VWeaponPickup
p1429
sg44
VPT2M0.7480008S
p1430
sa(dp1431
g41
VPlayerSpawn
p1432
sg48
(dp1433
g50
VRNG Penguin HCS
p1434
sg52
Nssg44
VPT2M0.7480008S
p1435
sa(dp1436
g47
I313138863
sg48
(dp1437
g50
VRNG Victory X
p1438
sg52
Nssg53
(lp1439
I1095363701
asg41
VWeaponPickup
p1440
sg44
VPT2M1.5810012S
p1441
sa(dp1442
g47
I4096745987
sg48
(dp1443
g50
VRNG Victory X
p1444
sg52
Nssg53
(lp1445
I2758383128
asg41
VWeaponPickup
p1446
sg44
VPT2M1.5810012S
p1447
sa(dp1448
g41
VPlayerSpawn
p1449
sg48
(dp1450
g50
VRNG Victory X
p1451
sg52
Nssg44
VPT2M1.5810012S
p1452
sa(dp1453
g47
I313138863
sg48
(dp1454
g50
VRNG Commonly
p1455
sg52
Nssg53
(lp1456
I1095363701
asg41
VWeaponPickup
p1457
sg44
VPT2M5.5640004S
p1458
sa(dp1459
g47
I4096745987
sg48
(dp1460
g50
VRNG Commonly
p1461
sg52
Nssg53
(lp1462
I2758383128
asg41
VWeaponPickup
p1463
sg44
VPT2M5.5650009S
p1464
sa(dp1465
g41
VPlayerSpawn
p1466
sg48
(dp1467
g50
VRNG Commonly
p1468
sg52
Nssg44
VPT2M5.5650009S
p1469
sa(dp1470
g47
I313138863
sg41
VWeaponDrop
p1471
sg189
I0
sg53
(lp1472
I1095363701
asg44
VPT2M6.1130008S
p1473
sg192
I0
sg193
VP0DT0H0M2.2500S
p1474
sg48
(dp1475
g50
VRNG Victory X
p1476
sg52
Nssa(dp1477
g47
I3808094875
sg48
(dp1478
g50
VRNG Victory X
p1479
sg52
Nssg53
(lp1480
I2758383128
asg41
VWeaponPickup
p1481
sg44
VPT2M6.1130008S
p1482
sa(dp1483
g47
I313138863
sg48
(dp1484
g50
VRNG Ninja HCS
p1485
sg52
Nssg53
(lp1486
I1095363701
asg41
VWeaponPickup
p1487
sg44
VPT2M7.1310005S
p1488
sa(dp1489
g47
I4096745987
sg48
(dp1490
g50
VRNG Ninja HCS
p1491
sg52
Nssg53
(lp1492
I2758383128
asg41
VWeaponPickup
p1493
sg44
VPT2M7.1310005S
p1494
sa(dp1495
g41
VPlayerSpawn
p1496
sg48
(dp1497
g50
VRNG Ninja HCS
p1498
sg52
Nssg44
VPT2M7.1310005S
p1499
sa(dp1500
g47
I313138863
sg41
VWeaponDrop
p1501
sg189
I25
sg53
(lp1502
I1095363701
asg44
VPT2M11.2119992S
p1503
sg192
I9
sg193
VP0DT0H0M8.4833S
p1504
sg48
(dp1505
g50
VCLG Snake Bite
p1506
sg52
Nssa(dp1507
g47
I4054937266
sg48
(dp1508
g50
VCLG Snake Bite
p1509
sg52
Nssg53
(lp1510
I2758383128
asg41
VWeaponPickup
p1511
sg44
VPT2M11.213001S
p1512
sa(dp1513
g47
I4054937266
sg41
VWeaponDrop
p1514
sg189
I0
sg53
(lp1515
I2758383128
asg44
VPT2M12.0960003S
p1516
sg192
I0
sg193
VP0DT0H0M0.8833S
p1517
sg48
(dp1518
g50
VCLG Snake Bite
p1519
sg52
Nssa(dp1520
g47
I313138863
sg48
(dp1521
g50
VCLG Snake Bite
p1522
sg52
Nssg53
(lp1523
I1095363701
asg41
VWeaponPickup
p1524
sg44
VPT2M12.0960003S
p1525
sa(dp1526
g204
I3808094875
sg205
I00
sg206
I00
sg207
(dp1527
g50
VRNG Victory X
p1528
sg52
Nssg210
(lp1529
I2758383128
asg212
I00
sg213
I01
sg214
I1
sg215
I0
sg216
I1
sg217
(dp1530
Vy
F10.590159999999999
sVx
F-0.96413760000000004
sVz
F1.4982091200000001
ssg219
(dp1531
Vy
F10.9535389
sVx
F-1.46032882
sVz
F1.4982091200000001
ssg221
I00
sg222
(dp1532
g50
VRammyy
p1533
sg52
Nssg226
(lp1534
sg228
(lp1535
sg230
I00
sg44
VPT2M13.2480008S
p1536
sg41
VDeath
p1537
sg233
I1
sa(dp1538
g47
I723388907
sg41
VWeaponDrop
p1539
sg189
I5
sg53
(lp1540
I89283061
asg44
VPT2M13.2490004S
p1541
sg192
I0
sg193
VP0DT0H0M2.8500S
p1542
sg48
(dp1543
g50
VRammyy
p1544
sg52
Nssa(dp1545
g47
I4096745987
sg41
VWeaponDrop
p1546
sg189
I17
sg53
(lp1547
I2758383128
asg44
VPT2M13.2490004S
p1548
sg192
I7
sg193
VP0DT0H0M32.6667S
p1549
sg48
(dp1550
g50
VRammyy
p1551
sg52
Nssa(dp1552
g47
I313138863
sg41
VWeaponDrop
p1553
sg189
I0
sg53
(lp1554
I1095363701
asg44
VPT2M13.5960008S
p1555
sg192
I0
sg193
VP0DT0H0M1.5000S
p1556
sg48
(dp1557
g50
VCLG Snake Bite
p1558
sg52
Nssa(dp1559
g47
I669296699
sg48
(dp1560
g50
VCLG Snake Bite
p1561
sg52
Nssg53
(lp1562
I2758383128
asg41
VWeaponPickup
p1563
sg44
VPT2M13.5960008S
p1564
sa(dp1565
g204
I313138863
sg205
I00
sg206
I00
sg207
(dp1566
g50
VRNG Commonly
p1567
sg52
Nssg210
(lp1568
I1095363701
asg212
I00
sg213
I01
sg214
I1
sg215
I0
sg216
I1
sg217
(dp1569
Vy
F4.5804452900000001
sVx
F-7.3051495600000003
sVz
F-0.89676789999999995
ssg219
(dp1570
Vy
F5.8161120000000004
sVx
F-8.8305100000000003
sVz
F-0.3649636
ssg221
I00
sg222
(dp1571
g50
VCLG Frosty HCS
p1572
sg52
Nssg226
(lp1573
sg228
(lp1574
(dp1575
g50
VRNG Victory X
p1576
sg52
Nsasg230
I00
sg44
VPT2M19.7480007S
p1577
sg41
VDeath
p1578
sg233
I1
sa(dp1579
g47
I313138863
sg41
VWeaponDrop
p1580
sg189
I19
sg53
(lp1581
I1095363701
asg44
VPT2M19.7500001S
p1582
sg192
I2
sg193
VP0DT0H0M7.9333S
p1583
sg48
(dp1584
g50
VCLG Frosty HCS
p1585
sg52
Nssa(dp1586
g47
I4096745987
sg41
VWeaponDrop
p1587
sg189
I3
sg53
(lp1588
I2758383128
asg44
VPT2M19.7500001S
p1589
sg192
I2
sg193
VP0DT0H0M16.9167S
p1590
sg48
(dp1591
g50
VCLG Frosty HCS
p1592
sg52
Nssa(dp1593
g47
I313138863
sg48
(dp1594
g50
VRammyy
p1595
sg52
Nssg53
(lp1596
I1095363701
asg41
VWeaponPickup
p1597
sg44
VPT2M21.2640013S
p1598
sa(dp1599
g47
I4096745987
sg48
(dp1600
g50
VRammyy
p1601
sg52
Nssg53
(lp1602
I2758383128
asg41
VWeaponPickup
p1603
sg44
VPT2M21.2640013S
p1604
sa(dp1605
g41
VPlayerSpawn
p1606
sg48
(dp1607
g50
VRammyy
p1608
sg52
Nssg44
VPT2M21.2640013S
p1609
sa(dp1610
g47
I2492868984
sg48
(dp1611
g50
VRNG Ninja HCS
p1612
sg52
Nssg53
(lp1613
I2758383128
asg41
VWeaponPickup
p1614
sg44
VPT2M25.8630005S
p1615
sa(dp1616
g204
I313138863
sg205
I00
sg206
I00
sg207
(dp1617
g50
VRNG Penguin HCS
p1618
sg52
Nssg210
(lp1619
I1095363701
asg212
I00
sg213
I01
sg214
I1
sg215
I0
sg216
I1
sg217
(dp1620
Vy
F-4.0655250000000001
sVx
F-5.3318057100000003
sVz
F4.7678084399999996
ssg219
(dp1621
Vy
F-2.05230713
sVx
F-2.5482168199999999
sVz
F1.2470079999999999
ssg221
I00
sg222
(dp1622
g50
VCLG Snake Bite
p1623
sg52
Nssg226
(lp1624
sg228
(lp1625
(dp1626
g50
VRNG Commonly
p1627
sg52
Nsasg230
I00
sg44
VPT2M25.8630005S
p1628
sg41
VDeath
p1629
sg233
I1
sa(dp1630
g47
I669296699
sg41
VWeaponDrop
p1631
sg189
I1
sg53
(lp1632
I2758383128
asg44
VPT2M25.8650001S
p1633
sg192
I0
sg193
VP0DT0H0M11.5667S
p1634
sg48
(dp1635
g50
VCLG Snake Bite
p1636
sg52
Nssa(dp1637
g47
I4096745987
sg41
VWeaponDrop
p1638
sg189
I5
sg53
(lp1639
I2758383128
asg44
VPT2M25.8650001S
p1640
sg192
I3
sg193
VP0DT0H0M27.3500S
p1641
sg48
(dp1642
g50
VCLG Snake Bite
p1643
sg52
Nssa(dp1644
g204
I313138863
sg205
I00
sg206
I00
sg207
(dp1645
g50
VCLG LethuL HCS
p1646
sg52
Nssg210
(lp1647
I1095363701
asg212
I00
sg213
I01
sg214
I1
sg215
I0
sg216
I1
sg217
(dp1648
Vy
F3.2334117899999999
sVx
F-14.941179999999999
sVz
F-0.89674010000000004
ssg219
(dp1649
Vy
F5.5837435700000002
sVx
F-11.9194593
sVz
F-0.49433612799999999
ssg221
I00
sg222
(dp1650
g50
VRNG Commonly
p1651
sg52
Nssg226
(lp1652
sg228
(lp1653
sg230
I00
sg44
VPT2M26.8310002S
p1654
sg41
VDeath
p1655
sg233
I1
sa(dp1656
g47
I313138863
sg41
VWeaponDrop
p1657
sg189
I41
sg53
(lp1658
I1095363701
asg44
VPT2M26.8330007S
p1659
sg192
I14
sg193
VP0DT0H0M12.2500S
p1660
sg48
(dp1661
g50
VRNG Commonly
p1662
sg52
Nssa(dp1663
g47
I4096745987
sg41
VWeaponDrop
p1664
sg189
I0
sg53
(lp1665
I2758383128
asg44
VPT2M26.8330007S
p1666
sg192
I0
sg193
VP0DT0H0M9.0167S
p1667
sg48
(dp1668
g50
VRNG Commonly
p1669
sg52
Nssa(dp1670
g47
I313138863
sg41
VWeaponDrop
p1671
sg189
I0
sg53
(lp1672
I1095363701
asg44
VPT2M26.9949986S
p1673
sg192
I0
sg193
VP0DT0H0M3.1833S
p1674
sg48
(dp1675
g50
VRammyy
p1676
sg52
Nssa(dp1677
g47
I4054937266
sg48
(dp1678
g50
VRammyy
p1679
sg52
Nssg53
(lp1680
I2758383128
asg41
VWeaponPickupPad
p1681
sg44
VPT2M26.9949986S
p1682
sa(dp1683
g47
I4054937266
sg48
(dp1684
g50
VRammyy
p1685
sg52
Nssg53
(lp1686
I2758383128
asg41
VWeaponPickup
p1687
sg44
VPT2M26.9949986S
p1688
sa(dp1689
g47
I2492868984
sg41
VWeaponDrop
p1690
sg189
I0
sg53
(lp1691
I2758383128
asg44
VPT2M26.9980009S
p1692
sg192
I0
sg193
VP0DT0H0M0.9833S
p1693
sg48
(dp1694
g50
VRNG Ninja HCS
p1695
sg52
Nssa(dp1696
g47
I313138863
sg48
(dp1697
g50
VCLG Frosty HCS
p1698
sg52
Nssg53
(lp1699
I1095363701
asg41
VWeaponPickup
p1700
sg44
VPT2M27.764001S
p1701
sa(dp1702
g47
I4096745987
sg48
(dp1703
g50
VCLG Frosty HCS
p1704
sg52
Nssg53
(lp1705
I2758383128
asg41
VWeaponPickup
p1706
sg44
VPT2M27.764001S
p1707
sa(dp1708
g41
VPlayerSpawn
p1709
sg48
(dp1710
g50
VCLG Frosty HCS
p1711
sg52
Nssg44
VPT2M27.764001S
p1712
sa(dp1713
g47
I4096745987
sg41
VWeaponDrop
p1714
sg189
I17
sg53
(lp1715
I2758383128
asg44
VPT2M27.8119994S
p1716
sg192
I9
sg193
VP0DT0H0M36.9833S
p1717
sg48
(dp1718
g50
VCLG LethuL HCS
p1719
sg52
Nssa(dp1720
g47
I424645655
sg48
(dp1721
g50
VCLG LethuL HCS
p1722
sg52
Nssg53
(lp1723
I1327094800
asg41
VWeaponPickup
p1724
sg44
VPT2M27.8119994S
p1725
sa(dp1726
g204
I424645655
sg205
I00
sg206
I00
sg207
(dp1727
g50
VCLG LethuL HCS
p1728
sg52
Nssg210
(lp1729
I1327094800
asg212
I00
sg213
I01
sg214
I1
sg215
I0
sg216
I1
sg217
(dp1730
Vy
F2.87544632
sVx
F-11.5245771
sVz
F-0.89676016599999997
ssg219
(dp1731
Vy
F0.89640653100000001
sVx
F-4.9086150000000002
sVz
F0.30116844199999998
ssg221
I00
sg222
(dp1732
g50
VRNG Penguin HCS
p1733
sg52
Nssg226
(lp1734
sg228
(lp1735
sg230
I01
sg44
VPT2M28.9960005S
p1736
sg41
VDeath
p1737
sg233
I1
sa(dp1738
g41
VMedal
p1739
sg48
(dp1740
g50
VCLG LethuL HCS
p1741
sg52
Nssg330
I3261908037
sg44
VPT2M28.9980005S
p1742
sa(dp1743
g41
VMedal
p1744
sg48
(dp1745
g50
VCLG LethuL HCS
p1746
sg52
Nssg330
I2078758684
sg44
VPT2M28.9980005S
p1747
sa(dp1748
g47
I313138863
sg41
VWeaponDrop
p1749
sg189
I6
sg53
(lp1750
I1095363701
asg44
VPT2M28.9990008S
p1751
sg192
I1
sg193
VP0DT0H0M12.3167S
p1752
sg48
(dp1753
g50
VRNG Penguin HCS
p1754
sg52
Nssa(dp1755
g47
I4096745987
sg41
VWeaponDrop
p1756
sg189
I4
sg53
(lp1757
I2758383128
asg44
VPT2M28.9990008S
p1758
sg192
I2
sg193
VP0DT0H0M15.9333S
p1759
sg48
(dp1760
g50
VRNG Penguin HCS
p1761
sg52
Nssa(dp1762
g47
I313138863
sg41
VWeaponDrop
p1763
sg189
I0
sg53
(lp1764
I1095363701
asg44
VPT2M33.1609988S
p1765
sg192
I0
sg193
VP0DT0H0M0.9500S
p1766
sg48
(dp1767
g50
VRNG Ninja HCS
p1768
sg52
Nssa(dp1769
g47
I2133511419
sg48
(dp1770
g50
VRNG Ninja HCS
p1771
sg52
Nssg53
(lp1772
I2758383128
asg41
VWeaponPickup
p1773
sg44
VPT2M33.162007S
p1774
sa(dp1775
g47
I313138863
sg48
(dp1776
g50
VCLG Snake Bite
p1777
sg52
Nssg53
(lp1778
I1095363701
asg41
VWeaponPickup
p1779
sg44
VPT2M33.8800012S
p1780
sa(dp1781
g47
I4096745987
sg48
(dp1782
g50
VCLG Snake Bite
p1783
sg52
Nssg53
(lp1784
I2758383128
asg41
VWeaponPickup
p1785
sg44
VPT2M33.8800012S
p1786
sa(dp1787
g41
VPlayerSpawn
p1788
sg48
(dp1789
g50
VCLG Snake Bite
p1790
sg52
Nssg44
VPT2M33.8800012S
p1791
sa(dp1792
g204
I424645655
sg205
I00
sg206
I00
sg207
(dp1793
g50
VCLG LethuL HCS
p1794
sg52
Nssg210
(lp1795
I1327094800
asg212
I00
sg213
I01
sg214
I1
sg215
I0
sg216
I1
sg217
(dp1796
Vy
F7.9138545999999996
sVx
F-8.0999879999999997
sVz
F-0.84670089999999998
ssg219
(dp1797
Vy
F17.026451099999999
sVx
F-7.8779287299999998
sVz
F-2.8966171699999999
ssg221
I00
sg222
(dp1798
g50
VRNG Ninja HCS
p1799
sg52
Nssg226
(lp1800
sg228
(lp1801
(dp1802
g50
VRammyy
p1803
sg52
Nsasg230
I01
sg44
VPT2M34.3630007S
p1804
sg41
VDeath
p1805
sg233
I1
sa(dp1806
g41
VMedal
p1807
sg48
(dp1808
g50
VCLG LethuL HCS
p1809
sg52
Nssg330
I3261908037
sg44
VPT2M34.3650005S
p1810
sa(dp1811
g47
I2133511419
sg41
VWeaponDrop
p1812
sg189
I0
sg53
(lp1813
I2758383128
asg44
VPT2M34.3660003S
p1814
sg192
I0
sg193
VP0DT0H0M1.2000S
p1815
sg48
(dp1816
g50
VRNG Ninja HCS
p1817
sg52
Nssa(dp1818
g47
I4096745987
sg41
VWeaponDrop
p1819
sg189
I16
sg53
(lp1820
I2758383128
asg44
VPT2M34.3660003S
p1821
sg192
I7
sg193
VP0DT0H0M24.0833S
p1822
sg48
(dp1823
g50
VRNG Ninja HCS
p1824
sg52
Nssa(dp1825
g47
I313138863
sg48
(dp1826
g50
VRNG Commonly
p1827
sg52
Nssg53
(lp1828
I1095363701
asg41
VWeaponPickup
p1829
sg44
VPT2M34.8460009S
p1830
sa(dp1831
g47
I4096745987
sg48
(dp1832
g50
VRNG Commonly
p1833
sg52
Nssg53
(lp1834
I2758383128
asg41
VWeaponPickup
p1835
sg44
VPT2M34.8470009S
p1836
sa(dp1837
g41
VPlayerSpawn
p1838
sg48
(dp1839
g50
VRNG Commonly
p1840
sg52
Nssg44
VPT2M34.8470009S
p1841
sa(dp1842
g47
I313138863
sg48
(dp1843
g50
VRNG Penguin HCS
p1844
sg52
Nssg53
(lp1845
I1095363701
asg41
VWeaponPickup
p1846
sg44
VPT2M37.0130003S
p1847
sa(dp1848
g47
I4096745987
sg48
(dp1849
g50
VRNG Penguin HCS
p1850
sg52
Nssg53
(lp1851
I2758383128
asg41
VWeaponPickup
p1852
sg44
VPT2M37.0130003S
p1853
sa(dp1854
g41
VPlayerSpawn
p1855
sg48
(dp1856
g50
VRNG Penguin HCS
p1857
sg52
Nssg44
VPT2M37.0130003S
p1858
sa(dp1859
g204
I424645655
sg205
I00
sg206
I00
sg207
(dp1860
g50
VCLG LethuL HCS
p1861
sg52
Nssg210
(lp1862
I1327094800
asg212
I00
sg213
I00
sg214
I2
sg215
I0
sg216
I0
sg217
(dp1863
Vy
F-0.039356450000000001
sVx
F-4.8469540000000002
sVz
F0.30554962200000002
ssg219
(dp1864
Vy
F0.099496589999999996
sVx
F8.0067090000000007
sVz
F0.71337079999999997
ssg221
I00
sg222
(dp1865
g224
g225
ssg226
(lp1866
sg228
(lp1867
sg230
I00
sg44
VPT2M40.5460002S
p1868
sg41
VDeath
p1869
sg233
I1
sa(dp1870
g204
I47178948
sg205
I00
sg206
I00
sg207
(dp1871
g50
VCLG LethuL HCS
p1872
sg52
Nssg210
(lp1873
sg212
I00
sg213
I00
sg214
I2
sg215
I0
sg216
I0
sg217
(dp1874
Vy
F-0.039356450000000001
sVx
F-4.8469540000000002
sVz
F0.30554962200000002
ssg219
(dp1875
Vy
F0.10923155399999999
sVx
F8.0052839999999996
sVz
F0.305445731
ssg221
I00
sg222
(dp1876
g224
g225
ssg226
(lp1877
sg228
(lp1878
sg230
I00
sg44
VPT2M40.5460002S
p1879
sg41
VDeath
p1880
sg233
I1
sa(dp1881
g47
I313138863
sg48
(dp1882
g50
VRNG Ninja HCS
p1883
sg52
Nssg53
(lp1884
I1095363701
asg41
VWeaponPickup
p1885
sg44
VPT2M42.3790008S
p1886
sa(dp1887
g47
I4096745987
sg48
(dp1888
g50
VRNG Ninja HCS
p1889
sg52
Nssg53
(lp1890
I2758383128
asg41
VWeaponPickup
p1891
sg44
VPT2M42.3800009S
p1892
sa(dp1893
g41
VPlayerSpawn
p1894
sg48
(dp1895
g50
VRNG Ninja HCS
p1896
sg52
Nssg44
VPT2M42.3800009S
p1897
sa(dp1898
g204
I3808094875
sg205
I00
sg206
I00
sg207
(dp1899
g50
VRNG Victory X
p1900
sg52
Nssg210
(lp1901
I2758383128
asg212
I00
sg213
I01
sg214
I1
sg215
I0
sg216
I1
sg217
(dp1902
Vy
F0.202366292
sVx
F-1.34608471
sVz
F2.2578332400000001
ssg219
(dp1903
Vy
F-0.30071377799999999
sVx
F0.54466859999999995
sVz
F1.3494749100000001
ssg221
I00
sg222
(dp1904
g50
VCLG LethuL HCS
p1905
sg52
Nssg226
(lp1906
sg228
(lp1907
sg230
I00
sg44
VPT2M43.1130009S
p1908
sg41
VDeath
p1909
sg233
I1
sa(dp1910
g41
VMedal
p1911
sg48
(dp1912
g50
VRNG Victory X
p1913
sg52
Nssg330
I3698887726
sg44
VPT2M43.1130009S
p1914
sa(dp1915
g47
I424645655
sg41
VWeaponDrop
p1916
sg189
I30
sg53
(lp1917
I1327094800
asg44
VPT2M43.1140003S
p1918
sg192
I11
sg193
VP0DT0H0M15.3000S
p1919
sg48
(dp1920
g50
VCLG LethuL HCS
p1921
sg52
Nssa(dp1922
g47
I313138863
sg41
VWeaponDrop
p1923
sg189
I25
sg53
(lp1924
I1095363701
asg44
VPT2M43.1150012S
p1925
sg192
I10
sg193
VP0DT0H0M8.3333S
p1926
sg48
(dp1927
g50
VCLG LethuL HCS
p1928
sg52
Nssa(dp1929
g204
I4096745987
sg205
I00
sg206
I00
sg207
(dp1930
g50
VRNG Commonly
p1931
sg52
Nssg210
(lp1932
I2758383128
asg212
I00
sg213
I01
sg214
I1
sg215
I0
sg216
I1
sg217
(dp1933
Vy
F0.10887445499999999
sVx
F-4.9552060000000004
sVz
F0.30555927799999999
ssg219
(dp1934
Vy
F-0.53818619999999995
sVx
F1.7793933200000001
sVz
F1.6833168300000001
ssg221
I00
sg222
(dp1935
g50
VCLG Snake Bite
p1936
sg52
Nssg226
(lp1937
sg228
(lp1938
(dp1939
g50
VRNG Victory X
p1940
sg52
Nsasg230
I00
sg44
VPT2M44.2790003S
p1941
sg41
VDeath
p1942
sg233
I1
sa(dp1943
g41
VImpulse
p1944
sg48
(dp1945
g50
VRNG Commonly
p1946
sg52
Nssg495
I2556889090
sg44
VPT2M44.280001S
p1947
sa(dp1948
g41
VMedal
p1949
sg48
(dp1950
g50
VRNG Commonly
p1951
sg52
Nssg330
I2838259753
sg44
VPT2M44.280001S
p1952
sa(dp1953
g47
I313138863
sg41
VWeaponDrop
p1954
sg189
I0
sg53
(lp1955
I1095363701
asg44
VPT2M44.2809998S
p1956
sg192
I0
sg193
VP0DT0H0M0.7167S
p1957
sg48
(dp1958
g50
VCLG Snake Bite
p1959
sg52
Nssa(dp1960
g47
I4096745987
sg41
VWeaponDrop
p1961
sg189
I6
sg53
(lp1962
I2758383128
asg44
VPT2M44.2809998S
p1963
sg192
I4
sg193
VP0DT0H0M9.6833S
p1964
sg48
(dp1965
g50
VCLG Snake Bite
p1966
sg52
Nssa(dp1967
g204
I4096745987
sg205
I00
sg206
I00
sg207
(dp1968
g50
VCLG Frosty HCS
p1969
sg52
Nssg210
(lp1970
I2758383128
asg212
I00
sg213
I01
sg214
I1
sg215
I0
sg216
I1
sg217
(dp1971
Vy
F7.4384822799999997
sVx
F-2.0969276400000001
sVz
F3.0453709999999998
ssg219
(dp1972
Vy
F-0.71133506300000005
sVx
F0.51816099999999998
sVz
F1.35102415
ssg221
I00
sg222
(dp1973
g50
VRNG Victory X
p1974
sg52
Nssg226
(lp1975
sg228
(lp1976
(dp1977
g50
VCLG Snake Bite
p1978
sg52
Nsasg230
I00
sg44
VPT2M44.4290146S
p1979
sg41
VDeath
p1980
sg233
I1
sa(dp1981
g47
I3808094875
sg41
VWeaponDrop
p1982
sg189
I32
sg53
(lp1983
I2758383128
asg44
VPT2M44.4309999S
p1984
sg192
I26
sg193
VP0DT0H0M29.2167S
p1985
sg48
(dp1986
g50
VRNG Victory X
p1987
sg52
Nssa(dp1988
g47
I4096745987
sg41
VWeaponDrop
p1989
sg189
I3
sg53
(lp1990
I2758383128
asg44
VPT2M44.4309999S
p1991
sg192
I0
sg193
VP0DT0H0M11.3833S
p1992
sg48
(dp1993
g50
VRNG Victory X
p1994
sg52
Nssa(dp1995
g47
I313138863
sg48
(dp1996
g50
VCLG LethuL HCS
p1997
sg52
Nssg53
(lp1998
I1095363701
asg41
VWeaponPickup
p1999
sg44
VPT2M51.1290008S
p2000
sa(dp2001
g47
I4096745987
sg48
(dp2002
g50
VCLG LethuL HCS
p2003
sg52
Nssg53
(lp2004
I2758383128
asg41
VWeaponPickup
p2005
sg44
VPT2M51.1290008S
p2006
sa(dp2007
g41
VPlayerSpawn
p2008
sg48
(dp2009
g50
VCLG LethuL HCS
p2010
sg52
Nssg44
VPT2M51.1290008S
p2011
sa(dp2012
g47
I313138863
sg48
(dp2013
g50
VCLG Snake Bite
p2014
sg52
Nssg53
(lp2015
I1095363701
asg41
VWeaponPickup
p2016
sg44
VPT2M52.2960009S
p2017
sa(dp2018
g47
I4096745987
sg48
(dp2019
g50
VCLG Snake Bite
p2020
sg52
Nssg53
(lp2021
I2758383128
asg41
VWeaponPickup
p2022
sg44
VPT2M52.2970001S
p2023
sa(dp2024
g41
VPlayerSpawn
p2025
sg48
(dp2026
g50
VCLG Snake Bite
p2027
sg52
Nssg44
VPT2M52.2970001S
p2028
sa(dp2029
g47
I313138863
sg48
(dp2030
g50
VRNG Victory X
p2031
sg52
Nssg53
(lp2032
I1095363701
asg41
VWeaponPickup
p2033
sg44
VPT2M52.4460005S
p2034
sa(dp2035
g47
I4096745987
sg48
(dp2036
g50
VRNG Victory X
p2037
sg52
Nssg53
(lp2038
I2758383128
asg41
VWeaponPickup
p2039
sg44
VPT2M52.4460005S
p2040
sa(dp2041
g41
VPlayerSpawn
p2042
sg48
(dp2043
g50
VRNG Victory X
p2044
sg52
Nssg44
VPT2M52.4460005S
p2045
sa(dp2046
g204
I313138863
sg205
I00
sg206
I00
sg207
(dp2047
g50
VRNG Commonly
p2048
sg52
Nssg210
(lp2049
I1095363701
asg212
I00
sg213
I01
sg214
I1
sg215
I0
sg216
I1
sg217
(dp2050
Vy
F1.31681585
sVx
F1.9970650700000001
sVz
F0.87063599999999997
ssg219
(dp2051
Vy
F2.67653322
sVx
F-0.83208543099999999
sVz
F0.0239233077
ssg221
I00
sg222
(dp2052
g50
VCLG Frosty HCS
p2053
sg52
Nssg226
(lp2054
sg228
(lp2055
(dp2056
g50
VRNG Ninja HCS
p2057
sg52
Nsa(dp2058
g50
VRNG Penguin HCS
p2059
sg52
Nsasg230
I00
sg44
VPT2M53.0290012S
p2060
sg41
VDeath
p2061
sg233
I1
sa(dp2062
g47
I313138863
sg41
VWeaponDrop
p2063
sg189
I5
sg53
(lp2064
I1095363701
asg44
VPT2M53.0310001S
p2065
sg192
I1
sg193
VP0DT0H0M10.0333S
p2066
sg48
(dp2067
g50
VCLG Frosty HCS
p2068
sg52
Nssa(dp2069
g47
I4096745987
sg41
VWeaponDrop
p2070
sg189
I2
sg53
(lp2071
I2758383128
asg44
VPT2M53.0320007S
p2072
sg192
I1
sg193
VP0DT0H0M15.2333S
p2073
sg48
(dp2074
g50
VCLG Frosty HCS
p2075
sg52
Nssa(dp2076
g47
I4096745987
sg41
VWeaponDrop
p2077
sg189
I0
sg53
(lp2078
I2758383128
asg44
VPT2M53.4939992S
p2079
sg192
I0
sg193
VP0DT0H0M0.4500S
p2080
sg48
(dp2081
g50
VCLG Snake Bite
p2082
sg52
Nssa(dp2083
g47
I4108759423
sg48
(dp2084
g50
VCLG Snake Bite
p2085
sg52
Nssg53
(lp2086
I2758383128
asg41
VWeaponPickup
p2087
sg44
VPT2M53.4939992S
p2088
sa(dp2089
g204
I2460880172
sg205
I00
sg206
I00
sg207
(dp2090
g50
VCLG Frosty HCS
p2091
sg52
Nssg210
(lp2092
sg212
I00
sg213
I01
sg214
I1
sg215
I0
sg216
I1
sg217
(dp2093
Vy
F4.0294449999999999
sVx
F-0.67651689999999998
sVz
F-0.18845255699999999
ssg219
(dp2094
Vy
F-0.49429070000000003
sVx
F-0.42311853199999999
sVz
F0.30554962200000002
ssg221
I00
sg222
(dp2095
g50
VRNG Ninja HCS
p2096
sg52
Nssg226
(lp2097
sg228
(lp2098
sg230
I00
sg44
VPT2M53.6780005S
p2099
sg41
VDeath
p2100
sg233
I1
sa(dp2101
g41
VMedal
p2102
sg48
(dp2103
g50
VCLG Frosty HCS
p2104
sg52
Nssg330
I285057226
sg44
VPT2M53.6800005S
p2105
sa(dp2106
g47
I313138863
sg41
VWeaponDrop
p2107
sg189
I19
sg53
(lp2108
I1095363701
asg44
VPT2M53.6810005S
p2109
sg192
I2
sg193
VP0DT0H0M5.1000S
p2110
sg48
(dp2111
g50
VRNG Ninja HCS
p2112
sg52
Nssa(dp2113
g47
I4096745987
sg41
VWeaponDrop
p2114
sg189
I2
sg53
(lp2115
I2758383128
asg44
VPT2M53.6810005S
p2116
sg192
I0
sg193
VP0DT0H0M6.2000S
p2117
sg48
(dp2118
g50
VRNG Ninja HCS
p2119
sg52
Nssa(dp2120
g204
I4096745987
sg205
I00
sg206
I00
sg207
(dp2121
g50
VRNG Victory X
p2122
sg52
Nssg210
(lp2123
I2758383128
asg212
I00
sg213
I01
sg214
I1
sg215
I0
sg216
I1
sg217
(dp2124
Vy
F4.7756360000000004
sVx
F-17.441377599999999
sVz
F1.5012302399999999
ssg219
(dp2125
Vy
F11.5865793
sVx
F-14.066171600000001
sVz
F2.5524606699999999
ssg221
I00
sg222
(dp2126
g50
VRammyy
p2127
sg52
Nssg226
(lp2128
sg228
(lp2129
(dp2130
g50
VRNG Penguin HCS
p2131
sg52
Nsasg230
I00
sg44
VPT2M56.3280002S
p2132
sg41
VDeath
p2133
sg233
I1
sa(dp2134
g41
VImpulse
p2135
sg48
(dp2136
g50
VRNG Victory X
p2137
sg52
Nssg495
I2556889090
sg44
VPT2M56.3290009S
p2138
sa(dp2139
g41
VMedal
p2140
sg48
(dp2141
g50
VRNG Victory X
p2142
sg52
Nssg330
I2838259753
sg44
VPT2M56.3290009S
p2143
sa(dp2144
g47
I4054937266
sg41
VWeaponDrop
p2145
sg189
I8
sg53
(lp2146
I2758383128
asg44
VPT2M56.3300004S
p2147
sg192
I7
sg193
VP0DT0H0M24.6000S
p2148
sg48
(dp2149
g50
VRammyy
p2150
sg52
Nssa(dp2151
g47
I4096745987
sg41
VWeaponDrop
p2152
sg189
I5
sg53
(lp2153
I2758383128
asg44
VPT2M56.3300004S
p2154
sg192
I4
sg193
VP0DT0H0M7.2833S
p2155
sg48
(dp2156
g50
VRammyy
p2157
sg52
Nssa(dp2158
g47
I4096745987
sg41
VWeaponDrop
p2159
sg189
I14
sg53
(lp2160
I2758383128
asg44
VPT2M57.4099985S
p2161
sg192
I8
sg193
VP0DT0H0M16.8333S
p2162
sg48
(dp2163
g50
VRNG Penguin HCS
p2164
sg52
Nssa(dp2165
g47
I424645655
sg48
(dp2166
g50
VRNG Penguin HCS
p2167
sg52
Nssg53
(lp2168
I1327094800
asg41
VWeaponPickup
p2169
sg44
VPT2M57.4110007S
p2170
sa(dp2171
g47
I313138863
sg41
VWeaponDrop
p2172
sg189
I0
sg53
(lp2173
I1095363701
asg44
VPT3M0.1600024S
p2174
sg192
I0
sg193
VP0DT0H0M0.9833S
p2175
sg48
(dp2176
g50
VRNG Victory X
p2177
sg52
Nssa(dp2178
g47
I4054937266
sg48
(dp2179
g50
VRNG Victory X
p2180
sg52
Nssg53
(lp2181
I2758383128
asg41
VWeaponPickup
p2182
sg44
VPT3M0.1610114S
p2183
sa(dp2184
g47
I313138863
sg48
(dp2185
g50
VCLG Frosty HCS
p2186
sg52
Nssg53
(lp2187
I1095363701
asg41
VWeaponPickup
p2188
sg44
VPT3M1.0460179S
p2189
sa(dp2190
g47
I4096745987
sg48
(dp2191
g50
VCLG Frosty HCS
p2192
sg52
Nssg53
(lp2193
I2758383128
asg41
VWeaponPickup
p2194
sg44
VPT3M1.0460179S
p2195
sa(dp2196
g41
VPlayerSpawn
p2197
sg48
(dp2198
g50
VCLG Frosty HCS
p2199
sg52
Nssg44
VPT3M1.0460179S
p2200
sa(dp2201
g47
I313138863
sg48
(dp2202
g50
VRNG Ninja HCS
p2203
sg52
Nssg53
(lp2204
I1095363701
asg41
VWeaponPickup
p2205
sg44
VPT3M1.6950009S
p2206
sa(dp2207
g47
I4096745987
sg48
(dp2208
g50
VRNG Ninja HCS
p2209
sg52
Nssg53
(lp2210
I2758383128
asg41
VWeaponPickup
p2211
sg44
VPT3M1.6960011S
p2212
sa(dp2213
g41
VPlayerSpawn
p2214
sg48
(dp2215
g50
VRNG Ninja HCS
p2216
sg52
Nssg44
VPT3M1.6960011S
p2217
sa(dp2218
g204
I4106030681
sg205
I00
sg206
I00
sg207
(dp2219
g50
VCLG LethuL HCS
p2220
sg52
Nssg210
(lp2221
sg212
I00
sg213
I01
sg214
I1
sg215
I0
sg216
I1
sg217
(dp2222
Vy
F22.574007000000002
sVx
F3.2361812599999999
sVz
F-0.8966385
ssg219
(dp2223
Vy
F12.3837051
sVx
F-2.8874692899999999
sVz
F1.1432599999999999
ssg221
I00
sg222
(dp2224
g50
VRNG Commonly
p2225
sg52
Nssg226
(lp2226
sg228
(lp2227
(dp2228
g50
VCLG Snake Bite
p2229
sg52
Nsasg230
I00
sg44
VPT3M2.0620008S
p2230
sg41
VDeath
p2231
sg233
I1
sa(dp2232
g47
I313138863
sg41
VWeaponDrop
p2233
sg189
I12
sg53
(lp2234
I1095363701
asg44
VPT3M2.0630002S
p2235
sg192
I1
sg193
VP0DT0H0M15.5167S
p2236
sg48
(dp2237
g50
VRNG Commonly
p2238
sg52
Nssa(dp2239
g47
I4096745987
sg41
VWeaponDrop
p2240
sg189
I2
sg53
(lp2241
I2758383128
asg44
VPT3M2.0630002S
p2242
sg192
I1
sg193
VP0DT0H0M11.7000S
p2243
sg48
(dp2244
g50
VRNG Commonly
p2245
sg52
Nssa(dp2246
g47
I313138863
sg41
VWeaponDrop
p2247
sg189
I0
sg53
(lp2248
I1095363701
asg44
VPT3M2.9099988S
p2249
sg192
I0
sg193
VP0DT0H0M0.9000S
p2250
sg48
(dp2251
g50
VRNG Ninja HCS
p2252
sg52
Nssa(dp2253
g47
I723388907
sg48
(dp2254
g50
VRNG Ninja HCS
p2255
sg52
Nssg53
(lp2256
I89283061
asg41
VWeaponPickup
p2257
sg44
VPT3M2.9099988S
p2258
sa(dp2259
g47
I313138863
sg48
(dp2260
g50
VRammyy
p2261
sg52
Nssg53
(lp2262
I1095363701
asg41
VWeaponPickup
p2263
sg44
VPT3M4.3450005S
p2264
sa(dp2265
g47
I4096745987
sg48
(dp2266
g50
VRammyy
p2267
sg52
Nssg53
(lp2268
I2758383128
asg41
VWeaponPickup
p2269
sg44
VPT3M4.3460006S
p2270
sa(dp2271
g41
VPlayerSpawn
p2272
sg48
(dp2273
g50
VRammyy
p2274
sg52
Nssg44
VPT3M4.3460006S
p2275
sa(dp2276
g204
I424645655
sg205
I00
sg206
I00
sg207
(dp2277
g50
VRNG Penguin HCS
p2278
sg52
Nssg210
(lp2279
I1327094800
asg212
I00
sg213
I01
sg214
I1
sg215
I0
sg216
I1
sg217
(dp2280
Vy
F2.2496912500000001
sVx
F2.5750176900000001
sVz
F1.6517388799999999
ssg219
(dp2281
Vy
F-2.2367224700000001
sVx
F5.9293899999999997
sVz
F1.9378150000000001
ssg221
I00
sg222
(dp2282
g50
VCLG Snake Bite
p2283
sg52
Nssg226
(lp2284
sg228
(lp2285
sg230
I01
sg44
VPT3M5.461S
p2286
sg41
VDeath
p2287
sg233
I1
sa(dp2288
g41
VMedal
p2289
sg48
(dp2290
g50
VRNG Penguin HCS
p2291
sg52
Nssg330
I3261908037
sg44
VPT3M5.4640002S
p2292
sa(dp2293
g47
I313138863
sg41
VWeaponDrop
p2294
sg189
I2
sg53
(lp2295
I1095363701
asg44
VPT3M5.4640002S
p2296
sg192
I0
sg193
VP0DT0H0M3.1333S
p2297
sg48
(dp2298
g50
VCLG Snake Bite
p2299
sg52
Nssa(dp2300
g47
I4108759423
sg41
VWeaponDrop
p2301
sg189
I7
sg53
(lp2302
I2758383128
asg44
VPT3M5.4640002S
p2303
sg192
I3
sg193
VP0DT0H0M9.5833S
p2304
sg48
(dp2305
g50
VCLG Snake Bite
p2306
sg52
Nssa(dp2307
g47
I313138863
sg48
(dp2308
g50
VRNG Commonly
p2309
sg52
Nssg53
(lp2310
I1095363701
asg41
VWeaponPickup
p2311
sg44
VPT3M10.0780006S
p2312
sa(dp2313
g47
I4096745987
sg48
(dp2314
g50
VRNG Commonly
p2315
sg52
Nssg53
(lp2316
I2758383128
asg41
VWeaponPickup
p2317
sg44
VPT3M10.0790009S
p2318
sa(dp2319
g41
VPlayerSpawn
p2320
sg48
(dp2321
g50
VRNG Commonly
p2322
sg52
Nssg44
VPT3M10.0790009S
p2323
sa(dp2324
g204
I4096745987
sg205
I00
sg206
I00
sg207
(dp2325
g50
VRNG Victory X
p2326
sg52
Nssg210
(lp2327
I2758383128
asg212
I00
sg213
I01
sg214
I1
sg215
I0
sg216
I1
sg217
(dp2328
Vy
F10.5093231
sVx
F-9.6332120000000003
sVz
F2.83422017
ssg219
(dp2329
Vy
F26.473541300000001
sVx
F-9.0053300000000007
sVz
F1.503374
ssg221
I00
sg222
(dp2330
g50
VCLG LethuL HCS
p2331
sg52
Nssg226
(lp2332
sg228
(lp2333
sg230
I01
sg44
VPT3M11.2949999S
p2334
sg41
VDeath
p2335
sg233
I1
sa(dp2336
g41
VImpulse
p2337
sg48
(dp2338
g50
VRNG Victory X
p2339
sg52
Nssg495
I3174430457
sg44
VPT3M11.2960004S
p2340
sa(dp2341
g41
VMedal
p2342
sg48
(dp2343
g50
VRNG Victory X
p2344
sg52
Nssg330
I3653057799
sg44
VPT3M11.2969999S
p2345
sa(dp2346
g47
I313138863
sg41
VWeaponDrop
p2347
sg189
I0
sg53
(lp2348
I1095363701
asg44
VPT3M11.298S
p2349
sg192
I0
sg193
VP0DT0H0M0.7333S
p2350
sg48
(dp2351
g50
VCLG LethuL HCS
p2352
sg52
Nssa(dp2353
g47
I4096745987
sg41
VWeaponDrop
p2354
sg189
I9
sg53
(lp2355
I2758383128
asg44
VPT3M11.298S
p2356
sg192
I5
sg193
VP0DT0H0M19.4333S
p2357
sg48
(dp2358
g50
VCLG LethuL HCS
p2359
sg52
Nssa(dp2360
g47
I313138863
sg48
(dp2361
g50
VCLG Snake Bite
p2362
sg52
Nssg53
(lp2363
I1095363701
asg41
VWeaponPickup
p2364
sg44
VPT3M13.4780013S
p2365
sa(dp2366
g47
I4096745987
sg48
(dp2367
g50
VCLG Snake Bite
p2368
sg52
Nssg53
(lp2369
I2758383128
asg41
VWeaponPickup
p2370
sg44
VPT3M13.4780013S
p2371
sa(dp2372
g41
VPlayerSpawn
p2373
sg48
(dp2374
g50
VCLG Snake Bite
p2375
sg52
Nssg44
VPT3M13.479001S
p2376
sa(dp2377
g204
I4106030681
sg205
I00
sg206
I00
sg207
(dp2378
g50
VRNG Victory X
p2379
sg52
Nssg210
(lp2380
sg212
I00
sg213
I00
sg214
I2
sg215
I0
sg216
I0
sg217
(dp2381
Vy
F10.3686924
sVx
F-9.206664
sVz
F2.8343095800000002
ssg219
(dp2382
Vy
F27.5284519
sVx
F-11.616913800000001
sVz
F1.50311935
ssg221
I00
sg222
(dp2383
g224
g225
ssg226
(lp2384
sg228
(lp2385
sg230
I00
sg44
VPT3M14.4440002S
p2386
sg41
VDeath
p2387
sg233
I1
sa(dp2388
g204
I4096745987
sg205
I00
sg206
I00
sg207
(dp2389
g50
VCLG Frosty HCS
p2390
sg52
Nssg210
(lp2391
I2758383128
asg212
I00
sg213
I01
sg214
I1
sg215
I0
sg216
I1
sg217
(dp2392
Vy
F8.9073840000000004
sVx
F1.3060309999999999
sVz
F2.4842858300000001
ssg219
(dp2393
Vy
F5.4855539999999996
sVx
F-10.75135
sVz
F1.52820516
ssg221
I00
sg222
(dp2394
g50
VRNG Victory X
p2395
sg52
Nssg226
(lp2396
sg228
(lp2397
sg230
I01
sg44
VPT3M17.4780007S
p2398
sg41
VDeath
p2399
sg233
I1
sa(dp2400
g41
VMedal
p2401
sg48
(dp2402
g50
VCLG Frosty HCS
p2403
sg52
Nssg330
I3261908037
sg44
VPT3M17.4800001S
p2404
sa(dp2405
g47
I4054937266
sg41
VWeaponDrop
p2406
sg189
I0
sg53
(lp2407
I2758383128
asg44
VPT3M17.4800001S
p2408
sg192
I0
sg193
VP0DT0H0M3.6833S
p2409
sg48
(dp2410
g50
VRNG Victory X
p2411
sg52
Nssa(dp2412
g47
I4096745987
sg41
VWeaponDrop
p2413
sg189
I13
sg53
(lp2414
I2758383128
asg44
VPT3M17.4800001S
p2415
sg192
I10
sg193
VP0DT0H0M20.3667S
p2416
sg48
(dp2417
g50
VRNG Victory X
p2418
sg52
Nssa(dp2419
g204
I424645655
sg205
I00
sg206
I00
sg207
(dp2420
g50
VRNG Penguin HCS
p2421
sg52
Nssg210
(lp2422
I1327094800
asg212
I00
sg213
I01
sg214
I1
sg215
I0
sg216
I1
sg217
(dp2423
Vy
F7.4102499999999996
sVx
F-2.2283406299999999
sVz
F1.49790621
ssg219
(dp2424
Vy
F10.948474900000001
sVx
F3.6904807100000001
sVz
F1.4982309300000001
ssg221
I00
sg222
(dp2425
g50
VCLG Frosty HCS
p2426
sg52
Nssg226
(lp2427
sg228
(lp2428
(dp2429
g50
VRNG Ninja HCS
p2430
sg52
Nsasg230
I01
sg44
VPT3M19.0610004S
p2431
sg41
VDeath
p2432
sg233
I1
sa(dp2433
g41
VMedal
p2434
sg48
(dp2435
g50
VRNG Penguin HCS
p2436
sg52
Nssg330
I3261908037
sg44
VPT3M19.063S
p2437
sa(dp2438
g47
I313138863
sg41
VWeaponDrop
p2439
sg189
I0
sg53
(lp2440
I1095363701
asg44
VPT3M19.063S
p2441
sg192
I0
sg193
VP0DT0H0M1.2667S
p2442
sg48
(dp2443
g50
VCLG Frosty HCS
p2444
sg52
Nssa(dp2445
g47
I4096745987
sg41
VWeaponDrop
p2446
sg189
I11
sg53
(lp2447
I2758383128
asg44
VPT3M19.063S
p2448
sg192
I9
sg193
VP0DT0H0M16.7500S
p2449
sg48
(dp2450
g50
VCLG Frosty HCS
p2451
sg52
Nssa(dp2452
g47
I313138863
sg48
(dp2453
g50
VCLG LethuL HCS
p2454
sg52
Nssg53
(lp2455
I1095363701
asg41
VWeaponPickup
p2456
sg44
VPT3M19.3110004S
p2457
sa(dp2458
g47
I4096745987
sg48
(dp2459
g50
VCLG LethuL HCS
p2460
sg52
Nssg53
(lp2461
I2758383128
asg41
VWeaponPickup
p2462
sg44
VPT3M19.3120008S
p2463
sa(dp2464
g41
VPlayerSpawn
p2465
sg48
(dp2466
g50
VCLG LethuL HCS
p2467
sg52
Nssg44
VPT3M19.3120008S
p2468
sa(dp2469
g47
I313138863
sg41
VWeaponDrop
p2470
sg189
I9
sg53
(lp2471
I1095363701
asg44
VPT3M19.6100005S
p2472
sg192
I1
sg193
VP0DT0H0M3.7167S
p2473
sg48
(dp2474
g50
VRNG Penguin HCS
p2475
sg52
Nssa(dp2476
g47
I669296699
sg48
(dp2477
g50
VRNG Penguin HCS
p2478
sg52
Nssg53
(lp2479
I2758383128
asg41
VWeaponPickupPad
p2480
sg44
VPT3M19.6100005S
p2481
sa(dp2482
g47
I669296699
sg48
(dp2483
g50
VRNG Penguin HCS
p2484
sg52
Nssg53
(lp2485
I2758383128
asg41
VWeaponPickup
p2486
sg44
VPT3M19.6100005S
p2487
sa(dp2488
g204
I4096745987
sg205
I00
sg206
I00
sg207
(dp2489
g50
VRammyy
p2490
sg52
Nssg210
(lp2491
I2758383128
asg212
I00
sg213
I01
sg214
I1
sg215
I0
sg216
I1
sg217
(dp2492
Vy
F12.76586
sVx
F4.2793364499999997
sVz
F1.7978909000000001
ssg219
(dp2493
Vy
F10.706827199999999
sVx
F2.9959895599999999
sVz
F1.498219
ssg221
I00
sg222
(dp2494
g50
VRNG Ninja HCS
p2495
sg52
Nssg226
(lp2496
sg228
(lp2497
(dp2498
g50
VCLG Snake Bite
p2499
sg52
Nsasg230
I01
sg44
VPT3M20.9770008S
p2500
sg41
VDeath
p2501
sg233
I1
sa(dp2502
g41
VMedal
p2503
sg48
(dp2504
g50
VRammyy
p2505
sg52
Nssg330
I3261908037
sg44
VPT3M20.9790004S
p2506
sa(dp2507
g47
I723388907
sg41
VWeaponDrop
p2508
sg189
I30
sg53
(lp2509
I89283061
asg44
VPT3M20.9800008S
p2510
sg192
I16
sg193
VP0DT0H0M11.6667S
p2511
sg48
(dp2512
g50
VRNG Ninja HCS
p2513
sg52
Nssa(dp2514
g47
I4096745987
sg41
VWeaponDrop
p2515
sg189
I0
sg53
(lp2516
I2758383128
asg44
VPT3M20.9800008S
p2517
sg192
I0
sg193
VP0DT0H0M6.7167S
p2518
sg48
(dp2519
g50
VRNG Ninja HCS
p2520
sg52
Nssa(dp2521
g204
I4096745987
sg205
I00
sg206
I00
sg207
(dp2522
g50
VRNG Commonly
p2523
sg52
Nssg210
(lp2524
I2758383128
asg212
I00
sg213
I01
sg214
I1
sg215
I0
sg216
I1
sg217
(dp2525
Vy
F-1.1189041099999999
sVx
F1.5732896300000001
sVz
F1.3165093699999999
ssg219
(dp2526
Vy
F12.9633436
sVx
F4.1367789999999998
sVz
F1.8148403200000001
ssg221
I00
sg222
(dp2527
g50
VRammyy
p2528
sg52
Nssg226
(lp2529
sg228
(lp2530
(dp2531
g50
VRNG Ninja HCS
p2532
sg52
Nsasg230
I00
sg44
VPT3M21.0940004S
p2533
sg41
VDeath
p2534
sg233
I1
sa(dp2535
g47
I313138863
sg41
VWeaponDrop
p2536
sg189
I0
sg53
(lp2537
I1095363701
asg44
VPT3M21.0959999S
p2538
sg192
I0
sg193
VP0DT0H0M1.4333S
p2539
sg48
(dp2540
g50
VRammyy
p2541
sg52
Nssa(dp2542
g47
I4096745987
sg41
VWeaponDrop
p2543
sg189
I4
sg53
(lp2544
I2758383128
asg44
VPT3M21.0959999S
p2545
sg192
I3
sg193
VP0DT0H0M15.3167S
p2546
sg48
(dp2547
g50
VRammyy
p2548
sg52
Nssa(dp2549
g47
I313138863
sg48
(dp2550
g50
VRNG Victory X
p2551
sg52
Nssg53
(lp2552
I1095363701
asg41
VWeaponPickup
p2553
sg44
VPT3M25.4950054S
p2554
sa(dp2555
g47
I4096745987
sg48
(dp2556
g50
VRNG Victory X
p2557
sg52
Nssg53
(lp2558
I2758383128
asg41
VWeaponPickup
p2559
sg44
VPT3M25.4950054S
p2560
sa(dp2561
g41
VPlayerSpawn
p2562
sg48
(dp2563
g50
VRNG Victory X
p2564
sg52
Nssg44
VPT3M25.4950054S
p2565
sa(dp2566
g47
I313138863
sg48
(dp2567
g50
VCLG Frosty HCS
p2568
sg52
Nssg53
(lp2569
I1095363701
asg41
VWeaponPickup
p2570
sg44
VPT3M27.0770009S
p2571
sa(dp2572
g47
I4096745987
sg48
(dp2573
g50
VCLG Frosty HCS
p2574
sg52
Nssg53
(lp2575
I2758383128
asg41
VWeaponPickup
p2576
sg44
VPT3M27.0780055S
p2577
sa(dp2578
g41
VPlayerSpawn
p2579
sg48
(dp2580
g50
VCLG Frosty HCS
p2581
sg52
Nssg44
VPT3M27.0780055S
p2582
sa(dp2583
g47
I313138863
sg48
(dp2584
g50
VRNG Ninja HCS
p2585
sg52
Nssg53
(lp2586
I1095363701
asg41
VWeaponPickup
p2587
sg44
VPT3M28.9940005S
p2588
sa(dp2589
g47
I4096745987
sg48
(dp2590
g50
VRNG Ninja HCS
p2591
sg52
Nssg53
(lp2592
I2758383128
asg41
VWeaponPickup
p2593
sg44
VPT3M28.9940005S
p2594
sa(dp2595
g41
VPlayerSpawn
p2596
sg48
(dp2597
g50
VRNG Ninja HCS
p2598
sg52
Nssg44
VPT3M28.9940005S
p2599
sa(dp2600
g47
I313138863
sg48
(dp2601
g50
VRammyy
p2602
sg52
Nssg53
(lp2603
I1095363701
asg41
VWeaponPickup
p2604
sg44
VPT3M29.1110013S
p2605
sa(dp2606
g47
I4096745987
sg48
(dp2607
g50
VRammyy
p2608
sg52
Nssg53
(lp2609
I2758383128
asg41
VWeaponPickup
p2610
sg44
VPT3M29.1110013S
p2611
sa(dp2612
g41
VPlayerSpawn
p2613
sg48
(dp2614
g50
VRammyy
p2615
sg52
Nssg44
VPT3M29.1110013S
p2616
sa(dp2617
g204
I4106030681
sg205
I00
sg206
I00
sg207
(dp2618
g50
VCLG LethuL HCS
p2619
sg52
Nssg210
(lp2620
sg212
I00
sg213
I01
sg214
I1
sg215
I0
sg216
I1
sg217
(dp2621
Vy
F-0.87677510000000003
sVx
F1.9135673
sVz
F1.3165093699999999
ssg219
(dp2622
Vy
F6.4294370000000001
sVx
F3.49795532
sVz
F1.69470191
ssg221
I00
sg222
(dp2623
g50
VRNG Penguin HCS
p2624
sg52
Nssg226
(lp2625
sg228
(lp2626
(dp2627
g50
VCLG Snake Bite
p2628
sg52
Nsasg230
I00
sg44
VPT3M29.1600002S
p2629
sg41
VDeath
p2630
sg233
I1
sa(dp2631
g47
I669296699
sg41
VWeaponDrop
p2632
sg189
I0
sg53
(lp2633
I2758383128
asg44
VPT3M29.162S
p2634
sg192
I0
sg193
VP0DT0H0M1.2333S
p2635
sg48
(dp2636
g50
VRNG Penguin HCS
p2637
sg52
Nssa(dp2638
g47
I424645655
sg41
VWeaponDrop
p2639
sg189
I48
sg53
(lp2640
I1327094800
asg44
VPT3M29.162S
p2641
sg192
I26
sg193
VP0DT0H0M30.3667S
p2642
sg48
(dp2643
g50
VRNG Penguin HCS
p2644
sg52
Nssa(dp2645
g204
I4096745987
sg205
I00
sg206
I00
sg207
(dp2646
g50
VCLG LethuL HCS
p2647
sg52
Nssg210
(lp2648
I2758383128
asg212
I00
sg213
I01
sg214
I1
sg215
I0
sg216
I1
sg217
(dp2649
Vy
F0.21384377800000001
sVx
F2.1540575
sVz
F1.4789920999999999
ssg219
(dp2650
Vy
F9.6859470000000005
sVx
F3.1231217400000002
sVz
F1.4982211599999999
ssg221
I00
sg222
(dp2651
g50
VRNG Commonly
p2652
sg52
Nssg226
(lp2653
sg228
(lp2654
sg230
I00
sg44
VPT3M30.1940005S
p2655
sg41
VDeath
p2656
sg233
I1
sa(dp2657
g41
VImpulse
p2658
sg48
(dp2659
g50
VCLG LethuL HCS
p2660
sg52
Nssg495
I2556889090
sg44
VPT3M30.1940005S
p2661
sa(dp2662
g41
VMedal
p2663
sg48
(dp2664
g50
VCLG LethuL HCS
p2665
sg52
Nssg330
I2838259753
sg44
VPT3M30.1940005S
p2666
sa(dp2667
g41
VMedal
p2668
sg48
(dp2669
g50
VCLG Snake Bite
p2670
sg52
Nssg330
I824733727
sg44
VPT3M30.1949999S
p2671
sa(dp2672
g41
VMedal
p2673
sg48
(dp2674
g50
VCLG LethuL HCS
p2675
sg52
Nssg330
I2078758684
sg44
VPT3M30.1949999S
p2676
sa(dp2677
g47
I313138863
sg41
VWeaponDrop
p2678
sg189
I0
sg53
(lp2679
I1095363701
asg44
VPT3M30.1960002S
p2680
sg192
I0
sg193
VP0DT0H0M8.0833S
p2681
sg48
(dp2682
g50
VRNG Commonly
p2683
sg52
Nssa(dp2684
g47
I4096745987
sg41
VWeaponDrop
p2685
sg189
I11
sg53
(lp2686
I2758383128
asg44
VPT3M30.1960002S
p2687
sg192
I8
sg193
VP0DT0H0M12.0333S
p2688
sg48
(dp2689
g50
VRNG Commonly
p2690
sg52
Nssa(dp2691
g204
I4106030681
sg205
I00
sg206
I00
sg207
(dp2692
g50
VRNG Commonly
p2693
sg52
Nssg210
(lp2694
sg212
I00
sg213
I01
sg214
I1
sg215
I0
sg216
I1
sg217
(dp2695
Vy
F9.6445900000000009
sVx
F2.8455312300000002
sVz
F1.4399757399999999
ssg219
(dp2696
Vy
F13.4741278
sVx
F4.0238046599999997
sVz
F2.4338176300000001
ssg221
I00
sg222
(dp2697
g50
VCLG Snake Bite
p2698
sg52
Nssg226
(lp2699
sg228
(lp2700
(dp2701
g50
VRNG Penguin HCS
p2702
sg52
Nsasg230
I00
sg44
VPT3M30.293S
p2703
sg41
VDeath
p2704
sg233
I1
sa(dp2705
g47
I313138863
sg41
VWeaponDrop
p2706
sg189
I0
sg53
(lp2707
I1095363701
asg44
VPT3M30.2950005S
p2708
sg192
I0
sg193
VP0DT0H0M0.9333S
p2709
sg48
(dp2710
g50
VCLG Snake Bite
p2711
sg52
Nssa(dp2712
g47
I4096745987
sg41
VWeaponDrop
p2713
sg189
I12
sg53
(lp2714
I2758383128
asg44
VPT3M30.2950005S
p2715
sg192
I6
sg193
VP0DT0H0M15.8833S
p2716
sg48
(dp2717
g50
VCLG Snake Bite
p2718
sg52
Nssa(dp2719
g47
I313138863
sg41
VWeaponDrop
p2720
sg189
I0
sg53
(lp2721
I1095363701
asg44
VPT3M31.5420089S
p2722
sg192
I0
sg193
VP0DT0H0M1.5667S
p2723
sg48
(dp2724
g50
VCLG Frosty HCS
p2725
sg52
Nssa(dp2726
g47
I3808094875
sg48
(dp2727
g50
VCLG Frosty HCS
p2728
sg52
Nssg53
(lp2729
I2758383128
asg41
VWeaponPickup
p2730
sg44
VPT3M31.5420089S
p2731
sa(dp2732
g47
I4096745987
sg41
VWeaponDrop
p2733
sg189
I0
sg53
(lp2734
I2758383128
asg44
VPT3M31.9259994S
p2735
sg192
I0
sg193
VP0DT0H0M2.1333S
p2736
sg48
(dp2737
g50
VRNG Ninja HCS
p2738
sg52
Nssa(dp2739
g47
I424645655
sg48
(dp2740
g50
VRNG Ninja HCS
p2741
sg52
Nssg53
(lp2742
I1327094800
asg41
VWeaponPickup
p2743
sg44
VPT3M31.9259994S
p2744
sa(dp2745
g47
I313138863
sg41
VWeaponDrop
p2746
sg189
I0
sg53
(lp2747
I1095363701
asg44
VPT3M32.8760001S
p2748
sg192
I0
sg193
VP0DT0H0M1.8333S
p2749
sg48
(dp2750
g50
VCLG LethuL HCS
p2751
sg52
Nssa(dp2752
g47
I669296699
sg48
(dp2753
g50
VCLG LethuL HCS
p2754
sg52
Nssg53
(lp2755
I2758383128
asg41
VWeaponPickup
p2756
sg44
VPT3M32.8760001S
p2757
sa(dp2758
g47
I313138863
sg48
(dp2759
g50
VRNG Penguin HCS
p2760
sg52
Nssg53
(lp2761
I1095363701
asg41
VWeaponPickup
p2762
sg44
VPT3M37.1770009S
p2763
sa(dp2764
g47
I4096745987
sg48
(dp2765
g50
VRNG Penguin HCS
p2766
sg52
Nssg53
(lp2767
I2758383128
asg41
VWeaponPickup
p2768
sg44
VPT3M37.1770009S
p2769
sa(dp2770
g41
VPlayerSpawn
p2771
sg48
(dp2772
g50
VRNG Penguin HCS
p2773
sg52
Nssg44
VPT3M37.1770009S
p2774
sa(dp2775
g47
I313138863
sg48
(dp2776
g50
VRNG Commonly
p2777
sg52
Nssg53
(lp2778
I1095363701
asg41
VWeaponPickup
p2779
sg44
VPT3M38.2100009S
p2780
sa(dp2781
g47
I4096745987
sg48
(dp2782
g50
VRNG Commonly
p2783
sg52
Nssg53
(lp2784
I2758383128
asg41
VWeaponPickup
p2785
sg44
VPT3M38.2110003S
p2786
sa(dp2787
g41
VPlayerSpawn
p2788
sg48
(dp2789
g50
VRNG Commonly
p2790
sg52
Nssg44
VPT3M38.2110003S
p2791
sa(dp2792
g47
I313138863
sg48
(dp2793
g50
VCLG Snake Bite
p2794
sg52
Nssg53
(lp2795
I1095363701
asg41
VWeaponPickup
p2796
sg44
VPT3M38.310001S
p2797
sa(dp2798
g47
I4096745987
sg48
(dp2799
g50
VCLG Snake Bite
p2800
sg52
Nssg53
(lp2801
I2758383128
asg41
VWeaponPickup
p2802
sg44
VPT3M38.310001S
p2803
sa(dp2804
g41
VPlayerSpawn
p2805
sg48
(dp2806
g50
VCLG Snake Bite
p2807
sg52
Nssg44
VPT3M38.310001S
p2808
sa(dp2809
g47
I313138863
sg41
VWeaponDrop
p2810
sg189
I0
sg53
(lp2811
I1095363701
asg44
VPT3M41.4250005S
p2812
sg192
I0
sg193
VP0DT0H0M1.7833S
p2813
sg48
(dp2814
g50
VRNG Penguin HCS
p2815
sg52
Nssa(dp2816
g47
I4054937266
sg48
(dp2817
g50
VRNG Penguin HCS
p2818
sg52
Nssg53
(lp2819
I2758383128
asg41
VWeaponPickup
p2820
sg44
VPT3M41.4260013S
p2821
sa(dp2822
g47
I313138863
sg41
VWeaponDrop
p2823
sg189
I0
sg53
(lp2824
I1095363701
asg44
VPT3M43.6419988S
p2825
sg192
I0
sg193
VP0DT0H0M1.0667S
p2826
sg48
(dp2827
g50
VRNG Commonly
p2828
sg52
Nssa(dp2829
g47
I723388907
sg48
(dp2830
g50
VRNG Commonly
p2831
sg52
Nssg53
(lp2832
I89283061
asg41
VWeaponPickup
p2833
sg44
VPT3M43.6419988S
p2834
sa(dp2835
g204
I4054937266
sg205
I00
sg206
I00
sg207
(dp2836
g50
VRNG Penguin HCS
p2837
sg52
Nssg210
(lp2838
I2758383128
asg212
I00
sg213
I01
sg214
I1
sg215
I0
sg216
I1
sg217
(dp2839
Vy
F4.3431699999999998
sVx
F-2.7805573899999998
sVz
F3.46086574
ssg219
(dp2840
Vy
F1.6639272000000001
sVx
F-2.952013
sVz
F2.6818909999999998
ssg221
I00
sg222
(dp2841
g50
VCLG Frosty HCS
p2842
sg52
Nssg226
(lp2843
sg228
(lp2844
(dp2845
g50
VRNG Ninja HCS
p2846
sg52
Nsasg230
I00
sg44
VPT3M50.0760005S
p2847
sg41
VDeath
p2848
sg233
I1
sa(dp2849
g41
VImpulse
p2850
sg48
(dp2851
g50
VRNG Penguin HCS
p2852
sg52
Nssg495
I2556889090
sg44
VPT3M50.0770009S
p2853
sa(dp2854
g41
VMedal
p2855
sg48
(dp2856
g50
VRNG Penguin HCS
p2857
sg52
Nssg330
I2838259753
sg44
VPT3M50.0770009S
p2858
sa(dp2859
g47
I3808094875
sg41
VWeaponDrop
p2860
sg189
I8
sg53
(lp2861
I2758383128
asg44
VPT3M50.0780004S
p2862
sg192
I6
sg193
VP0DT0H0M8.1833S
p2863
sg48
(dp2864
g50
VCLG Frosty HCS
p2865
sg52
Nssa(dp2866
g47
I4096745987
sg41
VWeaponDrop
p2867
sg189
I3
sg53
(lp2868
I2758383128
asg44
VPT3M50.0800006S
p2869
sg192
I2
sg193
VP0DT0H0M13.2500S
p2870
sg48
(dp2871
g50
VCLG Frosty HCS
p2872
sg52
Nssa(dp2873
g204
I4054937266
sg205
I00
sg206
I00
sg207
(dp2874
g50
VRNG Penguin HCS
p2875
sg52
Nssg210
(lp2876
I2758383128
asg212
I00
sg213
I01
sg214
I1
sg215
I0
sg216
I1
sg217
(dp2877
Vy
F8.872852
sVx
F-0.37076930000000002
sVz
F2.0043799999999998
ssg219
(dp2878
Vy
F10.258240000000001
sVx
F3.6772418
sVz
F1.4982306999999999
ssg221
I00
sg222
(dp2879
g50
VCLG LethuL HCS
p2880
sg52
Nssg226
(lp2881
sg228
(lp2882
(dp2883
g50
VRNG Victory X
p2884
sg52
Nsasg230
I00
sg44
VPT3M54.9760006S
p2885
sg41
VDeath
p2886
sg233
I1
sa(dp2887
g41
VMedal
p2888
sg48
(dp2889
g50
VRNG Penguin HCS
p2890
sg52
Nssg330
I2078758684
sg44
VPT3M54.9780003S
p2891
sa(dp2892
g47
I669296699
sg41
VWeaponDrop
p2893
sg189
I2
sg53
(lp2894
I2758383128
asg44
VPT3M54.9790013S
p2895
sg192
I0
sg193
VP0DT0H0M20.8000S
p2896
sg48
(dp2897
g50
VCLG LethuL HCS
p2898
sg52
Nssa(dp2899
g47
I4096745987
sg41
VWeaponDrop
p2900
sg189
I9
sg53
(lp2901
I2758383128
asg44
VPT3M54.9790013S
p2902
sg192
I3
sg193
VP0DT0H0M13.0333S
p2903
sg48
(dp2904
g50
VCLG LethuL HCS
p2905
sg52
Nssa(dp2906
g47
I313138863
sg48
(dp2907
g50
VCLG Frosty HCS
p2908
sg52
Nssg53
(lp2909
I1095363701
asg41
VWeaponPickup
p2910
sg44
VPT3M58.0930007S
p2911
sa(dp2912
g47
I4096745987
sg48
(dp2913
g50
VCLG Frosty HCS
p2914
sg52
Nssg53
(lp2915
I2758383128
asg41
VWeaponPickup
p2916
sg44
VPT3M58.0930007S
p2917
sa(dp2918
g41
VPlayerSpawn
p2919
sg48
(dp2920
g50
VCLG Frosty HCS
p2921
sg52
Nssg44
VPT3M58.0930007S
p2922
sa(dp2923
g204
I424645655
sg205
I00
sg206
I00
sg207
(dp2924
g50
VRNG Ninja HCS
p2925
sg52
Nssg210
(lp2926
I1327094800
asg212
I00
sg213
I01
sg214
I1
sg215
I0
sg216
I1
sg217
(dp2927
Vy
F2.9019341500000002
sVx
F0.197792947
sVz
F0.43120217300000002
ssg219
(dp2928
Vy
F1.37580955
sVx
F5.1223125500000002
sVz
F2.3573081500000002
ssg221
I00
sg222
(dp2929
g50
VRammyy
p2930
sg52
Nssg226
(lp2931
sg228
(lp2932
(dp2933
g50
VRNG Penguin HCS
p2934
sg52
Nsasg230
I01
sg44
VPT3M58.5760007S
p2935
sg41
VDeath
p2936
sg233
I1
sa(dp2937
g41
VImpulse
p2938
sg48
(dp2939
g50
VRNG Ninja HCS
p2940
sg52
Nssg495
I2556889090
sg44
VPT3M58.5760007S
p2941
sa(dp2942
g41
VMedal
p2943
sg48
(dp2944
g50
VRNG Ninja HCS
p2945
sg52
Nssg330
I2838259753
sg44
VPT3M58.5760007S
p2946
sa(dp2947
g41
VMedal
p2948
sg48
(dp2949
g50
VRNG Commonly
p2950
sg52
Nssg330
I824733727
sg44
VPT3M58.5770009S
p2951
sa(dp2952
g41
VMedal
p2953
sg48
(dp2954
g50
VRNG Ninja HCS
p2955
sg52
Nssg330
I3261908037
sg44
VPT3M58.578S
p2956
sa(dp2957
g47
I313138863
sg41
VWeaponDrop
p2958
sg189
I4
sg53
(lp2959
I1095363701
asg44
VPT3M58.5790006S
p2960
sg192
I2
sg193
VP0DT0H0M3.1333S
p2961
sg48
(dp2962
g50
VRammyy
p2963
sg52
Nssa(dp2964
g47
I4096745987
sg41
VWeaponDrop
p2965
sg189
I5
sg53
(lp2966
I2758383128
asg44
VPT3M58.5790006S
p2967
sg192
I2
sg193
VP0DT0H0M26.3333S
p2968
sg48
(dp2969
g50
VRammyy
p2970
sg52
Nssa(dp2971
g47
I4096745987
sg41
VWeaponDrop
p2972
sg189
I7
sg53
(lp2973
I2758383128
asg44
VPT3M59.3749997S
p2974
sg192
I4
sg193
VP0DT0H0M7.3167S
p2975
sg48
(dp2976
g50
VRNG Penguin HCS
p2977
sg52
Nssa(dp2978
g47
I669296699
sg48
(dp2979
g50
VRNG Penguin HCS
p2980
sg52
Nssg53
(lp2981
I2758383128
asg41
VWeaponPickup
p2982
sg44
VPT3M59.3749997S
p2983
sa(dp2984
g204
I3190813201
sg205
I00
sg206
I00
sg207
(dp2985
g50
VCLG Snake Bite
p2986
sg52
Nssg210
(lp2987
sg212
I00
sg213
I01
sg214
I1
sg215
I0
sg216
I1
sg217
(dp2988
Vy
F21.482904399999999
sVx
F-10.632013300000001
sVz
F-0.89641190000000004
ssg219
(dp2989
Vy
F15.461504
sVx
F-7.8353440000000001
sVz
F1.4995212600000001
ssg221
I00
sg222
(dp2990
g50
VRNG Commonly
p2991
sg52
Nssg226
(lp2992
sg228
(lp2993
sg230
I00
sg44
VPT4M0.9590006S
p2994
sg41
VDeath
p2995
sg233
I1
sa(dp2996
g47
I723388907
sg41
VWeaponDrop
p2997
sg189
I25
sg53
(lp2998
I89283061
asg44
VPT4M0.9610007S
p2999
sg192
I8
sg193
VP0DT0H0M9.5167S
p3000
sg48
(dp3001
g50
VRNG Commonly
p3002
sg52
Nssa(dp3003
g47
I4096745987
sg41
VWeaponDrop
p3004
sg189
I6
sg53
(lp3005
I2758383128
asg44
VPT4M0.9619998S
p3006
sg192
I2
sg193
VP0DT0H0M12.1667S
p3007
sg48
(dp3008
g50
VRNG Commonly
p3009
sg52
Nssa(dp3010
g47
I313138863
sg41
VWeaponDrop
p3011
sg189
I2
sg53
(lp3012
I1095363701
asg44
VPT4M1.8579987S
p3013
sg192
I0
sg193
VP0DT0H0M2.8000S
p3014
sg48
(dp3015
g50
VRNG Victory X
p3016
sg52
Nssa(dp3017
g47
I2133511419
sg48
(dp3018
g50
VRNG Victory X
p3019
sg52
Nssg53
(lp3020
I2758383128
asg41
VWeaponPickup
p3021
sg44
VPT4M1.8579987S
p3022
sa(dp3023
g47
I313138863
sg48
(dp3024
g50
VCLG LethuL HCS
p3025
sg52
Nssg53
(lp3026
I1095363701
asg41
VWeaponPickup
p3027
sg44
VPT4M2.993001S
p3028
sa(dp3029
g47
I4096745987
sg48
(dp3030
g50
VCLG LethuL HCS
p3031
sg52
Nssg53
(lp3032
I2758383128
asg41
VWeaponPickup
p3033
sg44
VPT4M2.993001S
p3034
sa(dp3035
g41
VPlayerSpawn
p3036
sg48
(dp3037
g50
VCLG LethuL HCS
p3038
sg52
Nssg44
VPT4M2.993001S
p3039
sa(dp3040
g47
I313138863
sg48
(dp3041
g50
VRammyy
p3042
sg52
Nssg53
(lp3043
I1095363701
asg41
VWeaponPickup
p3044
sg44
VPT4M6.5930011S
p3045
sa(dp3046
g47
I4096745987
sg48
(dp3047
g50
VRammyy
p3048
sg52
Nssg53
(lp3049
I2758383128
asg41
VWeaponPickup
p3050
sg44
VPT4M6.5930011S
p3051
sa(dp3052
g41
VPlayerSpawn
p3053
sg48
(dp3054
g50
VRammyy
p3055
sg52
Nssg44
VPT4M6.5930011S
p3056
sa(dp3057
g204
I4096745987
sg205
I00
sg206
I00
sg207
(dp3058
g50
VCLG Snake Bite
p3059
sg52
Nssg210
(lp3060
I2758383128
asg212
I00
sg213
I01
sg214
I1
sg215
I0
sg216
I1
sg217
(dp3061
Vy
F23.178173099999999
sVx
F-9.0229579999999991
sVz
F1.5033741
ssg219
(dp3062
Vy
F17.725811
sVx
F1.9833616000000001
sVz
F-0.89672479999999999
ssg221
I00
sg222
(dp3063
g50
VRNG Penguin HCS
p3064
sg52
Nssg226
(lp3065
sg228
(lp3066
sg230
I01
sg44
VPT4M7.7090002S
p3067
sg41
VDeath
p3068
sg233
I1
sa(dp3069
g41
VMedal
p3070
sg48
(dp3071
g50
VCLG Snake Bite
p3072
sg52
Nssg330
I3261908037
sg44
VPT4M7.7120004S
p3073
sa(dp3074
g47
I4054937266
sg41
VWeaponDrop
p3075
sg189
I5
sg53
(lp3076
I2758383128
asg44
VPT4M7.7120004S
p3077
sg192
I5
sg193
VP0DT0H0M13.9000S
p3078
sg48
(dp3079
g50
VRNG Penguin HCS
p3080
sg52
Nssa(dp3081
g47
I4054937266
sg41
VWeaponDrop
p3082
sg189
I0
sg53
(lp3083
I2758383128
asg44
VPT4M7.7120004S
p3084
sg192
I0
sg193
VP0DT0S
p3085
sg48
(dp3086
g50
VRNG Penguin HCS
p3087
sg52
Nssa(dp3088
g47
I669296699
sg41
VWeaponDrop
p3089
sg189
I1
sg53
(lp3090
I2758383128
asg44
VPT4M7.7120004S
p3091
sg192
I0
sg193
VP0DT0H0M7.5333S
p3092
sg48
(dp3093
g50
VRNG Penguin HCS
p3094
sg52
Nssa(dp3095
g47
I313138863
sg41
VWeaponDrop
p3096
sg189
I0
sg53
(lp3097
I1095363701
asg44
VPT4M8.0409999S
p3098
sg192
I0
sg193
VP0DT0H0M1.8500S
p3099
sg48
(dp3100
g50
VCLG Frosty HCS
p3101
sg52
Nssa(dp3102
g47
I3808094875
sg48
(dp3103
g50
VCLG Frosty HCS
p3104
sg52
Nssg53
(lp3105
I2758383128
asg41
VWeaponPickup
p3106
sg44
VPT4M8.0409999S
p3107
sa(dp3108
g47
I313138863
sg48
(dp3109
g50
VRNG Commonly
p3110
sg52
Nssg53
(lp3111
I1095363701
asg41
VWeaponPickup
p3112
sg44
VPT4M8.9760005S
p3113
sa(dp3114
g47
I4096745987
sg48
(dp3115
g50
VRNG Commonly
p3116
sg52
Nssg53
(lp3117
I2758383128
asg41
VWeaponPickup
p3118
sg44
VPT4M8.977001S
p3119
sa(dp3120
g41
VPlayerSpawn
p3121
sg48
(dp3122
g50
VRNG Commonly
p3123
sg52
Nssg44
VPT4M8.977001S
p3124
sa(dp3125
g204
I3808094875
sg205
I00
sg206
I00
sg207
(dp3126
g50
VCLG Frosty HCS
p3127
sg52
Nssg210
(lp3128
I2758383128
asg212
I00
sg213
I01
sg214
I1
sg215
I0
sg216
I1
sg217
(dp3129
Vy
F13.7926731
sVx
F5.81466627
sVz
F1.4982566799999999
ssg219
(dp3130
Vy
F14.2618771
sVx
F8.7855480000000004
sVz
F1.49825656
ssg221
I00
sg222
(dp3131
g50
VRNG Commonly
p3132
sg52
Nssg226
(lp3133
sg228
(lp3134
(dp3135
g50
VCLG Snake Bite
p3136
sg52
Nsasg230
I00
sg44
VPT4M14.2590007S
p3137
sg41
VDeath
p3138
sg233
I1
sa(dp3139
g47
I313138863
sg41
VWeaponDrop
p3140
sg189
I0
sg53
(lp3141
I1095363701
asg44
VPT4M14.2610008S
p3142
sg192
I0
sg193
VP0DT0H0M0.8167S
p3143
sg48
(dp3144
g50
VRNG Commonly
p3145
sg52
Nssa(dp3146
g47
I4096745987
sg41
VWeaponDrop
p3147
sg189
I2
sg53
(lp3148
I2758383128
asg44
VPT4M14.2610008S
p3149
sg192
I0
sg193
VP0DT0H0M4.4667S
p3150
sg48
(dp3151
g50
VRNG Commonly
p3152
sg52
Nssa(dp3153
g47
I313138863
sg48
(dp3154
g50
VRNG Penguin HCS
p3155
sg52
Nssg53
(lp3156
I1095363701
asg41
VWeaponPickup
p3157
sg44
VPT4M15.7260012S
p3158
sa(dp3159
g47
I4096745987
sg48
(dp3160
g50
VRNG Penguin HCS
p3161
sg52
Nssg53
(lp3162
I2758383128
asg41
VWeaponPickup
p3163
sg44
VPT4M15.7260012S
p3164
sa(dp3165
g41
VPlayerSpawn
p3166
sg48
(dp3167
g50
VRNG Penguin HCS
p3168
sg52
Nssg44
VPT4M15.7260012S
p3169
sa(dp3170
g47
I313138863
sg41
VWeaponDrop
p3171
sg189
I0
sg53
(lp3172
I1095363701
asg44
VPT4M17.6739996S
p3173
sg192
I0
sg193
VP0DT0H0M1.2167S
p3174
sg48
(dp3175
g50
VCLG Snake Bite
p3176
sg52
Nssa(dp3177
g47
I4054937266
sg48
(dp3178
g50
VCLG Snake Bite
p3179
sg52
Nssg53
(lp3180
I2758383128
asg41
VWeaponPickup
p3181
sg44
VPT4M17.6739996S
p3182
sa(dp3183
g47
I4054937266
sg41
VWeaponDrop
p3184
sg189
I0
sg53
(lp3185
I2758383128
asg44
VPT4M18.3410007S
p3186
sg192
I0
sg193
VP0DT0H0M0.6667S
p3187
sg48
(dp3188
g50
VCLG Snake Bite
p3189
sg52
Nssa(dp3190
g47
I669296699
sg48
(dp3191
g50
VCLG Snake Bite
p3192
sg52
Nssg53
(lp3193
I2758383128
asg41
VWeaponPickup
p3194
sg44
VPT4M18.3410007S
p3195
sa(dp3196
g204
I424645655
sg205
I00
sg206
I00
sg207
(dp3197
g50
VRNG Ninja HCS
p3198
sg52
Nssg210
(lp3199
I1327094800
asg212
I00
sg213
I01
sg214
I1
sg215
I0
sg216
I1
sg217
(dp3200
Vy
F3.1735851799999999
sVx
F7.4728364899999997
sVz
F0.55178870000000002
ssg219
(dp3201
Vy
F-5.0972759999999999
sVx
F2.9654880000000001
sVz
F-9.3804289999999995
ssg221
I00
sg222
(dp3202
g50
VCLG LethuL HCS
p3203
sg52
Nssg226
(lp3204
sg228
(lp3205
sg230
I00
sg44
VPT4M18.6750001S
p3206
sg41
VDeath
p3207
sg233
I1
sa(dp3208
g47
I313138863
sg41
VWeaponDrop
p3209
sg189
I0
sg53
(lp3210
I1095363701
asg44
VPT4M18.6820004S
p3211
sg192
I0
sg193
VP0DT0H0M0.7667S
p3212
sg48
(dp3213
g50
VCLG LethuL HCS
p3214
sg52
Nssa(dp3215
g47
I4096745987
sg41
VWeaponDrop
p3216
sg189
I0
sg53
(lp3217
I2758383128
asg44
VPT4M18.6820004S
p3218
sg192
I0
sg193
VP0DT0H0M14.9167S
p3219
sg48
(dp3220
g50
VCLG LethuL HCS
p3221
sg52
Nssa(dp3222
g47
I313138863
sg41
VWeaponDrop
p3223
sg189
I0
sg53
(lp3224
I1095363701
asg44
VPT4M18.8569997S
p3225
sg192
I0
sg193
VP0DT0H0M1.6667S
p3226
sg48
(dp3227
g50
VRammyy
p3228
sg52
Nssa(dp3229
g47
I4054937266
sg48
(dp3230
g50
VRammyy
p3231
sg52
Nssg53
(lp3232
I2758383128
asg41
VWeaponPickupPad
p3233
sg44
VPT4M18.8580249S
p3234
sa(dp3235
g47
I4054937266
sg48
(dp3236
g50
VRammyy
p3237
sg52
Nssg53
(lp3238
I2758383128
asg41
VWeaponPickup
p3239
sg44
VPT4M18.8580249S
p3240
sa(dp3241
g204
I4096745987
sg205
I00
sg206
I00
sg207
(dp3242
g50
VCLG Frosty HCS
p3243
sg52
Nssg210
(lp3244
I2758383128
asg212
I00
sg213
I01
sg214
I1
sg215
I0
sg216
I1
sg217
(dp3245
Vy
F8.6216950000000008
sVx
F9.2741480000000003
sVz
F3.2751848699999999
ssg219
(dp3246
Vy
F2.4357385599999999
sVx
F8.4037489999999995
sVz
F0.82540570000000002
ssg221
I00
sg222
(dp3247
g50
VRNG Ninja HCS
p3248
sg52
Nssg226
(lp3249
sg228
(lp3250
sg230
I01
sg44
VPT4M19.9420009S
p3251
sg41
VDeath
p3252
sg233
I1
sa(dp3253
g41
VImpulse
p3254
sg48
(dp3255
g50
VCLG Frosty HCS
p3256
sg52
Nssg495
I3174430457
sg44
VPT4M19.9430004S
p3257
sa(dp3258
g41
VMedal
p3259
sg48
(dp3260
g50
VCLG Frosty HCS
p3261
sg52
Nssg330
I3653057799
sg44
VPT4M19.9440003S
p3262
sa(dp3263
g47
I313138863
sg41
VWeaponDrop
p3264
sg189
I0
sg53
(lp3265
I1095363701
asg44
VPT4M19.9449999S
p3266
sg192
I0
sg193
VP0DT0H0M0.8000S
p3267
sg48
(dp3268
g50
VRNG Ninja HCS
p3269
sg52
Nssa(dp3270
g47
I424645655
sg41
VWeaponDrop
p3271
sg189
I48
sg53
(lp3272
I1327094800
asg44
VPT4M19.9449999S
p3273
sg192
I30
sg193
VP0DT0H0M48.0167S
p3274
sg48
(dp3275
g50
VRNG Ninja HCS
p3276
sg52
Nssa(dp3277
g47
I313138863
sg48
(dp3278
g50
VRNG Commonly
p3279
sg52
Nssg53
(lp3280
I1095363701
asg41
VWeaponPickup
p3281
sg44
VPT4M22.2750011S
p3282
sa(dp3283
g47
I4096745987
sg48
(dp3284
g50
VRNG Commonly
p3285
sg52
Nssg53
(lp3286
I2758383128
asg41
VWeaponPickup
p3287
sg44
VPT4M22.2760012S
p3288
sa(dp3289
g41
VPlayerSpawn
p3290
sg48
(dp3291
g50
VRNG Commonly
p3292
sg52
Nssg44
VPT4M22.2760012S
p3293
sa(dp3294
g204
I669296699
sg205
I00
sg206
I00
sg207
(dp3295
g50
VCLG Snake Bite
p3296
sg52
Nssg210
(lp3297
I2758383128
asg212
I00
sg213
I01
sg214
I1
sg215
I0
sg216
I1
sg217
(dp3298
Vy
F13.0954332
sVx
F3.3596413100000002
sVz
F-0.88806160000000001
ssg219
(dp3299
Vy
F8.1336259999999996
sVx
F-11.969934500000001
sVz
F1.509209
ssg221
I00
sg222
(dp3300
g50
VRNG Victory X
p3301
sg52
Nssg226
(lp3302
sg228
(lp3303
(dp3304
g50
VRammyy
p3305
sg52
Nsasg230
I01
sg44
VPT4M23.9419999S
p3306
sg41
VDeath
p3307
sg233
I1
sa(dp3308
g41
VMedal
p3309
sg48
(dp3310
g50
VCLG Snake Bite
p3311
sg52
Nssg330
I848240062
sg44
VPT4M23.9430006S
p3312
sa(dp3313
g47
I2133511419
sg41
VWeaponDrop
p3314
sg189
I0
sg53
(lp3315
I2758383128
asg44
VPT4M23.9440011S
p3316
sg192
I0
sg193
VP0DT0H0M8.6000S
p3317
sg48
(dp3318
g50
VRNG Victory X
p3319
sg52
Nssa(dp3320
g47
I4096745987
sg41
VWeaponDrop
p3321
sg189
I3
sg53
(lp3322
I2758383128
asg44
VPT4M23.9440011S
p3323
sg192
I1
sg193
VP0DT0H0M47.0500S
p3324
sg48
(dp3325
g50
VRNG Victory X
p3326
sg52
Nssa(dp3327
g47
I313138863
sg48
(dp3328
g50
VCLG LethuL HCS
p3329
sg52
Nssg53
(lp3330
I1095363701
asg41
VWeaponPickup
p3331
sg44
VPT4M26.6920012S
p3332
sa(dp3333
g47
I4096745987
sg48
(dp3334
g50
VCLG LethuL HCS
p3335
sg52
Nssg53
(lp3336
I2758383128
asg41
VWeaponPickup
p3337
sg44
VPT4M26.6920012S
p3338
sa(dp3339
g41
VPlayerSpawn
p3340
sg48
(dp3341
g50
VCLG LethuL HCS
p3342
sg52
Nssg44
VPT4M26.6920012S
p3343
sa(dp3344
g47
I313138863
sg48
(dp3345
g50
VRNG Ninja HCS
p3346
sg52
Nssg53
(lp3347
I1095363701
asg41
VWeaponPickup
p3348
sg44
VPT4M27.9590011S
p3349
sa(dp3350
g47
I4096745987
sg48
(dp3351
g50
VRNG Ninja HCS
p3352
sg52
Nssg53
(lp3353
I2758383128
asg41
VWeaponPickup
p3354
sg44
VPT4M27.9590011S
p3355
sa(dp3356
g41
VPlayerSpawn
p3357
sg48
(dp3358
g50
VRNG Ninja HCS
p3359
sg52
Nssg44
VPT4M27.9590011S
p3360
sa(dp3361
g47
I313138863
sg48
(dp3362
g50
VRNG Victory X
p3363
sg52
Nssg53
(lp3364
I1095363701
asg41
VWeaponPickup
p3365
sg44
VPT4M31.958001S
p3366
sa(dp3367
g47
I4096745987
sg48
(dp3368
g50
VRNG Victory X
p3369
sg52
Nssg53
(lp3370
I2758383128
asg41
VWeaponPickup
p3371
sg44
VPT4M31.959001S
p3372
sa(dp3373
g41
VPlayerSpawn
p3374
sg48
(dp3375
g50
VRNG Victory X
p3376
sg52
Nssg44
VPT4M31.959001S
p3377
sa(dp3378
g47
I2492868984
sg48
(dp3379
g50
VCLG Snake Bite
p3380
sg52
Nssg53
(lp3381
I2758383128
asg41
VWeaponPickup
p3382
sg44
VPT4M32.7740003S
p3383
sa(dp3384
g47
I2492868984
sg41
VWeaponDrop
p3385
sg189
I0
sg53
(lp3386
I2758383128
asg44
VPT4M33.925S
p3387
sg192
I0
sg193
VP0DT0H0M1.0000S
p3388
sg48
(dp3389
g50
VCLG Snake Bite
p3390
sg52
Nssa(dp3391
g204
I3808094875
sg205
I00
sg206
I00
sg207
(dp3392
g50
VCLG Frosty HCS
p3393
sg52
Nssg210
(lp3394
I2758383128
asg212
I00
sg213
I01
sg214
I1
sg215
I0
sg216
I1
sg217
(dp3395
Vy
F9.1531549999999999
sVx
F1.58216131
sVz
F1.4982089999999999
ssg219
(dp3396
Vy
F11.0856295
sVx
F3.4882016199999999
sVz
F1.9181630599999999
ssg221
I00
sg222
(dp3397
g50
VRNG Commonly
p3398
sg52
Nssg226
(lp3399
sg228
(lp3400
sg230
I00
sg44
VPT4M39.9910006S
p3401
sg41
VDeath
p3402
sg233
I1
sa(dp3403
g47
I313138863
sg41
VWeaponDrop
p3404
sg189
I16
sg53
(lp3405
I1095363701
asg44
VPT4M39.9920006S
p3406
sg192
I10
sg193
VP0DT0H0M3.4333S
p3407
sg48
(dp3408
g50
VRNG Commonly
p3409
sg52
Nssa(dp3410
g47
I4096745987
sg41
VWeaponDrop
p3411
sg189
I5
sg53
(lp3412
I2758383128
asg44
VPT4M39.9920006S
p3413
sg192
I1
sg193
VP0DT0H0M14.2833S
p3414
sg48
(dp3415
g50
VRNG Commonly
p3416
sg52
Nssa(dp3417
g204
I4096745987
sg205
I00
sg206
I00
sg207
(dp3418
g50
VCLG LethuL HCS
p3419
sg52
Nssg210
(lp3420
I2758383128
asg212
I00
sg213
I01
sg214
I1
sg215
I0
sg216
I1
sg217
(dp3421
Vy
F13.1647778
sVx
F-1.6474927699999999
sVz
F1.4995212600000001
ssg219
(dp3422
Vy
F15.0939569
sVx
F-7.6814830000000001
sVz
F2.0080151599999998
ssg221
I00
sg222
(dp3423
g50
VRNG Victory X
p3424
sg52
Nssg226
(lp3425
sg228
(lp3426
(dp3427
g50
VRammyy
p3428
sg52
Nsasg230
I00
sg44
VPT4M42.2910001S
p3429
sg41
VDeath
p3430
sg233
I1
sa(dp3431
g41
VImpulse
p3432
sg48
(dp3433
g50
VCLG LethuL HCS
p3434
sg52
Nssg495
I2556889090
sg44
VPT4M42.2920005S
p3435
sa(dp3436
g41
VMedal
p3437
sg48
(dp3438
g50
VCLG LethuL HCS
p3439
sg52
Nssg330
I2838259753
sg44
VPT4M42.2920005S
p3440
sa(dp3441
g41
VMedal
p3442
sg48
(dp3443
g50
VCLG Snake Bite
p3444
sg52
Nssg330
I824733727
sg44
VPT4M42.2929999S
p3445
sa(dp3446
g47
I313138863
sg41
VWeaponDrop
p3447
sg189
I0
sg53
(lp3448
I1095363701
asg44
VPT4M42.2939998S
p3449
sg192
I0
sg193
VP0DT0H0M0.4000S
p3450
sg48
(dp3451
g50
VRNG Victory X
p3452
sg52
Nssa(dp3453
g47
I4096745987
sg41
VWeaponDrop
p3454
sg189
I5
sg53
(lp3455
I2758383128
asg44
VPT4M42.2939998S
p3456
sg192
I2
sg193
VP0DT0H0M9.9333S
p3457
sg48
(dp3458
g50
VRNG Victory X
p3459
sg52
Nssa(dp3460
g204
I4096745987
sg205
I00
sg206
I00
sg207
(dp3461
g50
VRNG Penguin HCS
p3462
sg52
Nssg210
(lp3463
I2758383128
asg212
I00
sg213
I01
sg214
I1
sg215
I0
sg216
I1
sg217
(dp3464
Vy
F0.51796066799999996
sVx
F5.51613665
sVz
F0.56043220000000005
ssg219
(dp3465
Vy
F5.4079322799999998
sVx
F6.6681632999999998
sVz
F-0.76096940000000002
ssg221
I00
sg222
(dp3466
g50
VCLG Frosty HCS
p3467
sg52
Nssg226
(lp3468
sg228
(lp3469
(dp3470
g50
VRNG Commonly
p3471
sg52
Nsasg230
I01
sg44
VPT4M42.7240006S
p3472
sg41
VDeath
p3473
sg233
I1
sa(dp3474
g41
VMedal
p3475
sg48
(dp3476
g50
VRNG Penguin HCS
p3477
sg52
Nssg330
I3261908037
sg44
VPT4M42.7260002S
p3478
sa(dp3479
g47
I3808094875
sg41
VWeaponDrop
p3480
sg189
I32
sg53
(lp3481
I2758383128
asg44
VPT4M42.7260002S
p3482
sg192
I18
sg193
VP0DT0H0M15.7833S
p3483
sg48
(dp3484
g50
VCLG Frosty HCS
p3485
sg52
Nssa(dp3486
g47
I4096745987
sg41
VWeaponDrop
p3487
sg189
I12
sg53
(lp3488
I2758383128
asg44
VPT4M42.7270012S
p3489
sg192
I7
sg193
VP0DT0H0M27.0000S
p3490
sg48
(dp3491
g50
VCLG Frosty HCS
p3492
sg52
Nssa(dp3493
g47
I313138863
sg41
VWeaponDrop
p3494
sg189
I24
sg53
(lp3495
I1095363701
asg44
VPT4M46.1559986S
p3496
sg192
I9
sg193
VP0DT0H0M8.7333S
p3497
sg48
(dp3498
g50
VRNG Penguin HCS
p3499
sg52
Nssa(dp3500
g47
I3808094875
sg48
(dp3501
g50
VRNG Penguin HCS
p3502
sg52
Nssg53
(lp3503
I2758383128
asg41
VWeaponPickup
p3504
sg44
VPT4M46.1559986S
p3505
sa(dp3506
g47
I313138863
sg48
(dp3507
g50
VRNG Commonly
p3508
sg52
Nssg53
(lp3509
I1095363701
asg41
VWeaponPickup
p3510
sg44
VPT4M48.0080008S
p3511
sa(dp3512
g47
I4096745987
sg48
(dp3513
g50
VRNG Commonly
p3514
sg52
Nssg53
(lp3515
I2758383128
asg41
VWeaponPickup
p3516
sg44
VPT4M48.0080008S
p3517
sa(dp3518
g41
VPlayerSpawn
p3519
sg48
(dp3520
g50
VRNG Commonly
p3521
sg52
Nssg44
VPT4M48.0080008S
p3522
sa(dp3523
g204
I4096745987
sg205
I00
sg206
I00
sg207
(dp3524
g50
VRNG Ninja HCS
p3525
sg52
Nssg210
(lp3526
I2758383128
asg212
I00
sg213
I01
sg214
I1
sg215
I0
sg216
I1
sg217
(dp3527
Vy
F11.2878857
sVx
F-12.7700119
sVz
F2.5515219999999998
ssg219
(dp3528
Vy
F15.4023
sVx
F-9.6341269999999994
sVz
F2.2339954400000002
ssg221
I00
sg222
(dp3529
g50
VCLG LethuL HCS
p3530
sg52
Nssg226
(lp3531
sg228
(lp3532
sg230
I01
sg44
VPT4M49.9910003S
p3533
sg41
VDeath
p3534
sg233
I1
sa(dp3535
g41
VMedal
p3536
sg48
(dp3537
g50
VRNG Ninja HCS
p3538
sg52
Nssg330
I3261908037
sg44
VPT4M49.9940001S
p3539
sa(dp3540
g47
I313138863
sg41
VWeaponDrop
p3541
sg189
I2
sg53
(lp3542
I1095363701
asg44
VPT4M49.9940001S
p3543
sg192
I0
sg193
VP0DT0H0M1.7500S
p3544
sg48
(dp3545
g50
VCLG LethuL HCS
p3546
sg52
Nssa(dp3547
g47
I4096745987
sg41
VWeaponDrop
p3548
sg189
I20
sg53
(lp3549
I2758383128
asg44
VPT4M49.9940001S
p3550
sg192
I10
sg193
VP0DT0H0M21.5500S
p3551
sg48
(dp3552
g50
VCLG LethuL HCS
p3553
sg52
Nssa(dp3554
g204
I4096745987
sg205
I00
sg206
I00
sg207
(dp3555
g50
VCLG LethuL HCS
p3556
sg52
Nssg210
(lp3557
I2758383128
asg212
I00
sg213
I01
sg214
I1
sg215
I0
sg216
I1
sg217
(dp3558
Vy
F15.407877900000001
sVx
F-9.7497509999999998
sVz
F1.9841648300000001
ssg219
(dp3559
Vy
F11.293615300000001
sVx
F-13.038448300000001
sVz
F2.4942753299999998
ssg221
I00
sg222
(dp3560
g50
VRNG Ninja HCS
p3561
sg52
Nssg226
(lp3562
sg228
(lp3563
sg230
I00
sg44
VPT4M50.1070001S
p3564
sg41
VDeath
p3565
sg233
I1
sa(dp3566
g41
VMedal
p3567
sg48
(dp3568
g50
VCLG LethuL HCS
p3569
sg52
Nssg330
I466059351
sg44
VPT4M50.1080005S
p3570
sa(dp3571
g47
I313138863
sg41
VWeaponDrop
p3572
sg189
I18
sg53
(lp3573
I1095363701
asg44
VPT4M50.1090006S
p3574
sg192
I7
sg193
VP0DT0H0M5.1833S
p3575
sg48
(dp3576
g50
VRNG Ninja HCS
p3577
sg52
Nssa(dp3578
g47
I4096745987
sg41
VWeaponDrop
p3579
sg189
I11
sg53
(lp3580
I2758383128
asg44
VPT4M50.1090006S
p3581
sg192
I7
sg193
VP0DT0H0M16.9667S
p3582
sg48
(dp3583
g50
VRNG Ninja HCS
p3584
sg52
Nssa(dp3585
g47
I313138863
sg48
(dp3586
g50
VRNG Victory X
p3587
sg52
Nssg53
(lp3588
I1095363701
asg41
VWeaponPickup
p3589
sg44
VPT4M50.3080012S
p3590
sa(dp3591
g47
I4096745987
sg48
(dp3592
g50
VRNG Victory X
p3593
sg52
Nssg53
(lp3594
I2758383128
asg41
VWeaponPickup
p3595
sg44
VPT4M50.3080012S
p3596
sa(dp3597
g41
VPlayerSpawn
p3598
sg48
(dp3599
g50
VRNG Victory X
p3600
sg52
Nssg44
VPT4M50.3080012S
p3601
sa(dp3602
g47
I313138863
sg48
(dp3603
g50
VCLG Frosty HCS
p3604
sg52
Nssg53
(lp3605
I1095363701
asg41
VWeaponPickup
p3606
sg44
VPT4M50.7410007S
p3607
sa(dp3608
g47
I4096745987
sg48
(dp3609
g50
VCLG Frosty HCS
p3610
sg52
Nssg53
(lp3611
I2758383128
asg41
VWeaponPickup
p3612
sg44
VPT4M50.7410007S
p3613
sa(dp3614
g41
VPlayerSpawn
p3615
sg48
(dp3616
g50
VCLG Frosty HCS
p3617
sg52
Nssg44
VPT4M50.7410007S
p3618
sa(dp3619
g204
I4096745987
sg205
I00
sg206
I00
sg207
(dp3620
g50
VRNG Commonly
p3621
sg52
Nssg210
(lp3622
I2758383128
asg212
I00
sg213
I01
sg214
I1
sg215
I0
sg216
I1
sg217
(dp3623
Vy
F-0.96260400000000002
sVx
F-6.7100863500000001
sVz
F4.6049976299999997
ssg219
(dp3624
Vy
F-1.0537939999999999
sVx
F-16.4105873
sVz
F2.3005450000000001
ssg221
I00
sg222
(dp3625
g50
VCLG Frosty HCS
p3626
sg52
Nssg226
(lp3627
sg228
(lp3628
sg230
I01
sg44
VPT4M57.0740007S
p3629
sg41
VDeath
p3630
sg233
I1
sa(dp3631
g41
VMedal
p3632
sg48
(dp3633
g50
VRNG Commonly
p3634
sg52
Nssg330
I3261908037
sg44
VPT4M57.0750004S
p3635
sa(dp3636
g47
I313138863
sg41
VWeaponDrop
p3637
sg189
I0
sg53
(lp3638
I1095363701
asg44
VPT4M57.0760001S
p3639
sg192
I0
sg193
VP0DT0H0M1.8167S
p3640
sg48
(dp3641
g50
VCLG Frosty HCS
p3642
sg52
Nssa(dp3643
g47
I4096745987
sg41
VWeaponDrop
p3644
sg189
I3
sg53
(lp3645
I2758383128
asg44
VPT4M57.0760001S
p3646
sg192
I3
sg193
VP0DT0H0M4.5167S
p3647
sg48
(dp3648
g50
VCLG Frosty HCS
p3649
sg52
Nssa(dp3650
g47
I313138863
sg48
(dp3651
g50
VCLG LethuL HCS
p3652
sg52
Nssg53
(lp3653
I1095363701
asg41
VWeaponPickup
p3654
sg44
VPT4M58.0070006S
p3655
sa(dp3656
g47
I4096745987
sg48
(dp3657
g50
VCLG LethuL HCS
p3658
sg52
Nssg53
(lp3659
I2758383128
asg41
VWeaponPickup
p3660
sg44
VPT4M58.008001S
p3661
sa(dp3662
g41
VPlayerSpawn
p3663
sg48
(dp3664
g50
VCLG LethuL HCS
p3665
sg52
Nssg44
VPT4M58.008001S
p3666
sa(dp3667
g47
I313138863
sg48
(dp3668
g50
VRNG Ninja HCS
p3669
sg52
Nssg53
(lp3670
I1095363701
asg41
VWeaponPickup
p3671
sg44
VPT4M58.1250005S
p3672
sa(dp3673
g47
I4096745987
sg48
(dp3674
g50
VRNG Ninja HCS
p3675
sg52
Nssg53
(lp3676
I2758383128
asg41
VWeaponPickup
p3677
sg44
VPT4M58.1250005S
p3678
sa(dp3679
g41
VPlayerSpawn
p3680
sg48
(dp3681
g50
VRNG Ninja HCS
p3682
sg52
Nssg44
VPT4M58.1250005S
p3683
sa(dp3684
g204
I669296699
sg205
I00
sg206
I00
sg207
(dp3685
g50
VCLG Snake Bite
p3686
sg52
Nssg210
(lp3687
I2758383128
asg212
I00
sg213
I01
sg214
I1
sg215
I0
sg216
I1
sg217
(dp3688
Vy
F5.5652794800000001
sVx
F-18.941694300000002
sVz
F1.5012302399999999
ssg219
(dp3689
Vy
F-2.9432766400000001
sVx
F-6.0390586900000001
sVz
F5.6490070000000001
ssg221
I00
sg222
(dp3690
g50
VRNG Commonly
p3691
sg52
Nssg226
(lp3692
sg228
(lp3693
(dp3694
g50
VCLG Frosty HCS
p3695
sg52
Nsasg230
I00
sg44
VPT4M59.4070001S
p3696
sg41
VDeath
p3697
sg233
I1
sa(dp3698
g47
I313138863
sg41
VWeaponDrop
p3699
sg189
I0
sg53
(lp3700
I1095363701
asg44
VPT4M59.4090005S
p3701
sg192
I0
sg193
VP0DT0H0M0.8333S
p3702
sg48
(dp3703
g50
VRNG Commonly
p3704
sg52
Nssa(dp3705
g47
I4096745987
sg41
VWeaponDrop
p3706
sg189
I4
sg53
(lp3707
I2758383128
asg44
VPT4M59.4090005S
p3708
sg192
I3
sg193
VP0DT0H0M10.5667S
p3709
sg48
(dp3710
g50
VRNG Commonly
p3711
sg52
Nssa(dp3712
g47
I313138863
sg41
VWeaponDrop
p3713
sg189
I0
sg53
(lp3714
I1095363701
asg44
VPT5M2.7219991S
p3715
sg192
I0
sg193
VP0DT0H0M1.4167S
p3716
sg48
(dp3717
g50
VCLG LethuL HCS
p3718
sg52
Nssa(dp3719
g47
I723388907
sg48
(dp3720
g50
VCLG LethuL HCS
p3721
sg52
Nssg53
(lp3722
I89283061
asg41
VWeaponPickup
p3723
sg44
VPT5M2.7219991S
p3724
sa(dp3725
g47
I313138863
sg48
(dp3726
g50
VCLG Frosty HCS
p3727
sg52
Nssg53
(lp3728
I1095363701
asg41
VWeaponPickup
p3729
sg44
VPT5M5.0900011S
p3730
sa(dp3731
g47
I4096745987
sg48
(dp3732
g50
VCLG Frosty HCS
p3733
sg52
Nssg53
(lp3734
I2758383128
asg41
VWeaponPickup
p3735
sg44
VPT5M5.091001S
p3736
sa(dp3737
g41
VPlayerSpawn
p3738
sg48
(dp3739
g50
VCLG Frosty HCS
p3740
sg52
Nssg44
VPT5M5.091001S
p3741
sa(dp3742
g47
I4096745987
sg41
VWeaponDrop
p3743
sg189
I0
sg53
(lp3744
I2758383128
asg44
VPT5M6.4549985S
p3745
sg192
I0
sg193
VP0DT0H0M7.8833S
p3746
sg48
(dp3747
g50
VRNG Ninja HCS
p3748
sg52
Nssa(dp3749
g47
I4108759423
sg48
(dp3750
g50
VRNG Ninja HCS
p3751
sg52
Nssg53
(lp3752
I2758383128
asg41
VWeaponPickup
p3753
sg44
VPT5M6.4560012S
p3754
sa(dp3755
g47
I313138863
sg48
(dp3756
g50
VRNG Commonly
p3757
sg52
Nssg53
(lp3758
I1095363701
asg41
VWeaponPickup
p3759
sg44
VPT5M7.4240002S
p3760
sa(dp3761
g47
I4096745987
sg48
(dp3762
g50
VRNG Commonly
p3763
sg52
Nssg53
(lp3764
I2758383128
asg41
VWeaponPickup
p3765
sg44
VPT5M7.4240002S
p3766
sa(dp3767
g41
VPlayerSpawn
p3768
sg48
(dp3769
g50
VRNG Commonly
p3770
sg52
Nssg44
VPT5M7.4240002S
p3771
sa(dp3772
g204
I4108759423
sg205
I00
sg206
I00
sg207
(dp3773
g50
VRNG Ninja HCS
p3774
sg52
Nssg210
(lp3775
I2758383128
asg212
I00
sg213
I00
sg214
I2
sg215
I0
sg216
I0
sg217
(dp3776
Vy
F6.37216425
sVx
F8.8044609999999999
sVz
F1.4993802300000001
ssg219
(dp3777
Vy
F0.098377645
sVx
F8.0066159999999993
sVz
F0.71336529999999998
ssg221
I00
sg222
(dp3778
g224
g225
ssg226
(lp3779
sg228
(lp3780
sg230
I00
sg44
VPT5M19.6559999S
p3781
sg41
VDeath
p3782
sg233
I1
sa(dp3783
g204
I47178948
sg205
I00
sg206
I00
sg207
(dp3784
g50
VRNG Ninja HCS
p3785
sg52
Nssg210
(lp3786
sg212
I00
sg213
I00
sg214
I2
sg215
I0
sg216
I0
sg217
(dp3787
Vy
F6.37216425
sVx
F8.8044609999999999
sVz
F1.4993802300000001
ssg219
(dp3788
Vy
F0.10923303700000001
sVx
F8.0052859999999999
sVz
F0.30538895700000002
ssg221
I00
sg222
(dp3789
g224
g225
ssg226
(lp3790
sg228
(lp3791
sg230
I00
sg44
VPT5M19.6559999S
p3792
sg41
VDeath
p3793
sg233
I1
sa(dp3794
g204
I3808094875
sg205
I00
sg206
I00
sg207
(dp3795
g50
VRNG Penguin HCS
p3796
sg52
Nssg210
(lp3797
I2758383128
asg212
I00
sg213
I01
sg214
I1
sg215
I0
sg216
I1
sg217
(dp3798
Vy
F-0.68403780000000003
sVx
F-0.81090503899999999
sVz
F1.04272616
ssg219
(dp3799
Vy
F3.31422639
sVx
F-1.3361481399999999
sVz
F-0.247838691
ssg221
I00
sg222
(dp3800
g50
VCLG Snake Bite
p3801
sg52
Nssg226
(lp3802
sg228
(lp3803
sg230
I00
sg44
VPT5M23.8730009S
p3804
sg41
VDeath
p3805
sg233
I1
sa(dp3806
g47
I669296699
sg41
VWeaponDrop
p3807
sg189
I4
sg53
(lp3808
I2758383128
asg44
VPT5M23.8740009S
p3809
sg192
I2
sg193
VP0DT0H0M46.4500S
p3810
sg48
(dp3811
g50
VCLG Snake Bite
p3812
sg52
Nssa(dp3813
g47
I4096745987
sg41
VWeaponDrop
p3814
sg189
I24
sg53
(lp3815
I2758383128
asg44
VPT5M23.8740009S
p3816
sg192
I13
sg193
VP0DT0H0M56.2167S
p3817
sg48
(dp3818
g50
VCLG Snake Bite
p3819
sg52
Nssa(dp3820
g204
I4054937266
sg205
I00
sg206
I00
sg207
(dp3821
g50
VRammyy
p3822
sg52
Nssg210
(lp3823
I2758383128
asg212
I00
sg213
I01
sg214
I1
sg215
I0
sg216
I1
sg217
(dp3824
Vy
F9.5194580000000002
sVx
F1.2661677600000001
sVz
F1.4982089999999999
ssg219
(dp3825
Vy
F13.8046846
sVx
F5.6787376399999996
sVz
F1.4982566799999999
ssg221
I00
sg222
(dp3826
g50
VRNG Victory X
p3827
sg52
Nssg226
(lp3828
sg228
(lp3829
(dp3830
g50
VCLG Frosty HCS
p3831
sg52
Nsasg230
I00
sg44
VPT5M23.9220003S
p3832
sg41
VDeath
p3833
sg233
I1
sa(dp3834
g47
I313138863
sg41
VWeaponDrop
p3835
sg189
I0
sg53
(lp3836
I1095363701
asg44
VPT5M23.9240005S
p3837
sg192
I0
sg193
VP0DT0H0M2.0500S
p3838
sg48
(dp3839
g50
VRNG Victory X
p3840
sg52
Nssa(dp3841
g47
I4096745987
sg41
VWeaponDrop
p3842
sg189
I0
sg53
(lp3843
I2758383128
asg44
VPT5M23.9240005S
p3844
sg192
I0
sg193
VP0DT0H0M31.5667S
p3845
sg48
(dp3846
g50
VRNG Victory X
p3847
sg52
Nssa(dp3848
g204
I4054937266
sg205
I00
sg206
I00
sg207
(dp3849
g50
VRammyy
p3850
sg52
Nssg210
(lp3851
I2758383128
asg212
I00
sg213
I01
sg214
I1
sg215
I0
sg216
I1
sg217
(dp3852
Vy
F9.9145909999999997
sVx
F0.82710539999999999
sVz
F1.4982089999999999
ssg219
(dp3853
Vy
F14.476706500000001
sVx
F5.9019784900000003
sVz
F1.66228259
ssg221
I00
sg222
(dp3854
g50
VRNG Ninja HCS
p3855
sg52
Nssg226
(lp3856
sg228
(lp3857
sg230
I00
sg44
VPT5M24.1720002S
p3858
sg41
VDeath
p3859
sg233
I1
sa(dp3860
g41
VMedal
p3861
sg48
(dp3862
g50
VRammyy
p3863
sg52
Nssg330
I2078758684
sg44
VPT5M24.1740007S
p3864
sa(dp3865
g47
I313138863
sg41
VWeaponDrop
p3866
sg189
I0
sg53
(lp3867
I1095363701
asg44
VPT5M24.1740007S
p3868
sg192
I0
sg193
VP0DT0H0M0.4500S
p3869
sg48
(dp3870
g50
VRNG Ninja HCS
p3871
sg52
Nssa(dp3872
g47
I4108759423
sg41
VWeaponDrop
p3873
sg189
I4
sg53
(lp3874
I2758383128
asg44
VPT5M24.1740007S
p3875
sg192
I1
sg193
VP0DT0H0M17.7167S
p3876
sg48
(dp3877
g50
VRNG Ninja HCS
p3878
sg52
Nssa(dp3879
g204
I313138863
sg205
I00
sg206
I00
sg207
(dp3880
g50
VRNG Commonly
p3881
sg52
Nssg210
(lp3882
I1095363701
asg212
I00
sg213
I01
sg214
I1
sg215
I0
sg216
I1
sg217
(dp3883
Vy
F8.8998840000000001
sVx
F4.2779755599999998
sVz
F2.4176310000000001
ssg219
(dp3884
Vy
F10.288287199999999
sVx
F1.87104011
sVz
F2.1691024300000001
ssg221
I00
sg222
(dp3885
g50
VRammyy
p3886
sg52
Nssg226
(lp3887
sg228
(lp3888
sg230
I00
sg44
VPT5M29.2730007S
p3889
sg41
VDeath
p3890
sg233
I1
sa(dp3891
g47
I4054937266
sg41
VWeaponDrop
p3892
sg189
I9
sg53
(lp3893
I2758383128
asg44
VPT5M29.2750007S
p3894
sg192
I8
sg193
VP0DT0H0M52.7667S
p3895
sg48
(dp3896
g50
VRammyy
p3897
sg52
Nssa(dp3898
g47
I4096745987
sg41
VWeaponDrop
p3899
sg189
I5
sg53
(lp3900
I2758383128
asg44
VPT5M29.2750007S
p3901
sg192
I1
sg193
VP0DT0H0M28.2500S
p3902
sg48
(dp3903
g50
VRammyy
p3904
sg52
Nssa(dp3905
g47
I4096745987
sg41
VWeaponDrop
p3906
sg189
I0
sg53
(lp3907
I2758383128
asg44
VPT5M29.2750007S
p3908
sg192
I0
sg193
VP0DT0S
p3909
sg48
(dp3910
g50
VRammyy
p3911
sg52
Nssa(dp3912
g204
I4054937266
sg205
I00
sg206
I00
sg207
(dp3913
g50
VRammyy
p3914
sg52
Nssg210
(lp3915
I2758383128
asg212
I00
sg213
I01
sg214
I1
sg215
I0
sg216
I1
sg217
(dp3916
Vy
F10.273558599999999
sVx
F1.83232141
sVz
F2.2568476199999998
ssg219
(dp3917
Vy
F8.8233920000000001
sVx
F4.2806470000000001
sVz
F2.4235107899999999
ssg221
I00
sg222
(dp3918
g50
VRNG Commonly
p3919
sg52
Nssg226
(lp3920
sg228
(lp3921
sg230
I00
sg44
VPT5M29.3220007S
p3922
sg41
VDeath
p3923
sg233
I1
sa(dp3924
g47
I313138863
sg41
VWeaponDrop
p3925
sg189
I28
sg53
(lp3926
I1095363701
asg44
VPT5M29.3240006S
p3927
sg192
I15
sg193
VP0DT0H0M5.1833S
p3928
sg48
(dp3929
g50
VRNG Commonly
p3930
sg52
Nssa(dp3931
g47
I4096745987
sg41
VWeaponDrop
p3932
sg189
I2
sg53
(lp3933
I2758383128
asg44
VPT5M29.3240006S
p3934
sg192
I0
sg193
VP0DT0H0M16.7167S
p3935
sg48
(dp3936
g50
VRNG Commonly
p3937
sg52
Nssa(dp3938
g204
I4096745987
sg205
I00
sg206
I00
sg207
(dp3939
g50
VRNG Penguin HCS
p3940
sg52
Nssg210
(lp3941
I2758383128
asg212
I00
sg213
I01
sg214
I1
sg215
I0
sg216
I1
sg217
(dp3942
Vy
F-0.79203800000000002
sVx
F1.4485278100000001
sVz
F1.41849732
ssg219
(dp3943
Vy
F6.7298179999999999
sVx
F5.2618393899999996
sVz
F1.47933972
ssg221
I00
sg222
(dp3944
g50
VCLG Frosty HCS
p3945
sg52
Nssg226
(lp3946
sg228
(lp3947
sg230
I01
sg44
VPT5M31.6390003S
p3948
sg41
VDeath
p3949
sg233
I1
sa(dp3950
g41
VMedal
p3951
sg48
(dp3952
g50
VRNG Penguin HCS
p3953
sg52
Nssg330
I3261908037
sg44
VPT5M31.6400006S
p3954
sa(dp3955
g47
I313138863
sg41
VWeaponDrop
p3956
sg189
I8
sg53
(lp3957
I1095363701
asg44
VPT5M31.6410007S
p3958
sg192
I4
sg193
VP0DT0H0M3.9833S
p3959
sg48
(dp3960
g50
VCLG Frosty HCS
p3961
sg52
Nssa(dp3962
g47
I4096745987
sg41
VWeaponDrop
p3963
sg189
I8
sg53
(lp3964
I2758383128
asg44
VPT5M31.6410007S
p3965
sg192
I5
sg193
VP0DT0H0M22.5667S
p3966
sg48
(dp3967
g50
VCLG Frosty HCS
p3968
sg52
Nssa(dp3969
g47
I313138863
sg48
(dp3970
g50
VCLG Snake Bite
p3971
sg52
Nssg53
(lp3972
I1095363701
asg41
VWeaponPickup
p3973
sg44
VPT5M31.8890008S
p3974
sa(dp3975
g47
I4096745987
sg48
(dp3976
g50
VCLG Snake Bite
p3977
sg52
Nssg53
(lp3978
I2758383128
asg41
VWeaponPickup
p3979
sg44
VPT5M31.8890008S
p3980
sa(dp3981
g41
VPlayerSpawn
p3982
sg48
(dp3983
g50
VCLG Snake Bite
p3984
sg52
Nssg44
VPT5M31.8890008S
p3985
sa(dp3986
g47
I313138863
sg48
(dp3987
g50
VRNG Victory X
p3988
sg52
Nssg53
(lp3989
I1095363701
asg41
VWeaponPickup
p3990
sg44
VPT5M31.9390005S
p3991
sa(dp3992
g47
I4096745987
sg48
(dp3993
g50
VRNG Victory X
p3994
sg52
Nssg53
(lp3995
I2758383128
asg41
VWeaponPickup
p3996
sg44
VPT5M31.9400007S
p3997
sa(dp3998
g41
VPlayerSpawn
p3999
sg48
(dp4000
g50
VRNG Victory X
p4001
sg52
Nssg44
VPT5M31.9400007S
p4002
sa(dp4003
g47
I313138863
sg48
(dp4004
g50
VRNG Ninja HCS
p4005
sg52
Nssg53
(lp4006
I1095363701
asg41
VWeaponPickup
p4007
sg44
VPT5M32.1890005S
p4008
sa(dp4009
g47
I4096745987
sg48
(dp4010
g50
VRNG Ninja HCS
p4011
sg52
Nssg53
(lp4012
I2758383128
asg41
VWeaponPickup
p4013
sg44
VPT5M32.1900009S
p4014
sa(dp4015
g41
VPlayerSpawn
p4016
sg48
(dp4017
g50
VRNG Ninja HCS
p4018
sg52
Nssg44
VPT5M32.1900009S
p4019
sa(dp4020
g47
I313138863
sg41
VWeaponDrop
p4021
sg189
I0
sg53
(lp4022
I1095363701
asg44
VPT5M36.6709993S
p4023
sg192
I0
sg193
VP0DT0H0M0.8000S
p4024
sg48
(dp4025
g50
VRNG Victory X
p4026
sg52
Nssa(dp4027
g47
I4054937266
sg48
(dp4028
g50
VRNG Victory X
p4029
sg52
Nssg53
(lp4030
I2758383128
asg41
VWeaponPickup
p4031
sg44
VPT5M36.6709993S
p4032
sa(dp4033
g47
I313138863
sg48
(dp4034
g50
VRammyy
p4035
sg52
Nssg53
(lp4036
I1095363701
asg41
VWeaponPickup
p4037
sg44
VPT5M37.2890008S
p4038
sa(dp4039
g47
I4096745987
sg48
(dp4040
g50
VRammyy
p4041
sg52
Nssg53
(lp4042
I2758383128
asg41
VWeaponPickup
p4043
sg44
VPT5M37.2900012S
p4044
sa(dp4045
g41
VPlayerSpawn
p4046
sg48
(dp4047
g50
VRammyy
p4048
sg52
Nssg44
VPT5M37.2900012S
p4049
sa(dp4050
g47
I313138863
sg48
(dp4051
g50
VRNG Commonly
p4052
sg52
Nssg53
(lp4053
I1095363701
asg41
VWeaponPickup
p4054
sg44
VPT5M37.339001S
p4055
sa(dp4056
g47
I4096745987
sg48
(dp4057
g50
VRNG Commonly
p4058
sg52
Nssg53
(lp4059
I2758383128
asg41
VWeaponPickup
p4060
sg44
VPT5M37.339001S
p4061
sa(dp4062
g41
VPlayerSpawn
p4063
sg48
(dp4064
g50
VRNG Commonly
p4065
sg52
Nssg44
VPT5M37.339001S
p4066
sa(dp4067
g47
I4096745987
sg41
VWeaponDrop
p4068
sg189
I0
sg53
(lp4069
I2758383128
asg44
VPT5M39.253999S
p4070
sg192
I0
sg193
VP0DT0H0M4.1500S
p4071
sg48
(dp4072
g50
VRNG Victory X
p4073
sg52
Nssa(dp4074
g47
I4108759423
sg48
(dp4075
g50
VRNG Victory X
p4076
sg52
Nssg53
(lp4077
I2758383128
asg41
VWeaponPickup
p4078
sg44
VPT5M39.253999S
p4079
sa(dp4080
g47
I4096745987
sg41
VWeaponDrop
p4081
sg189
I0
sg53
(lp4082
I2758383128
asg44
VPT5M39.4869992S
p4083
sg192
I0
sg193
VP0DT0H0M0.7167S
p4084
sg48
(dp4085
g50
VRammyy
p4086
sg52
Nssa(dp4087
g47
I424645655
sg48
(dp4088
g50
VRammyy
p4089
sg52
Nssg53
(lp4090
I1327094800
asg41
VWeaponPickup
p4091
sg44
VPT5M39.4880009S
p4092
sa(dp4093
g47
I313138863
sg48
(dp4094
g50
VCLG Frosty HCS
p4095
sg52
Nssg53
(lp4096
I1095363701
asg41
VWeaponPickup
p4097
sg44
VPT5M39.6560011S
p4098
sa(dp4099
g47
I4096745987
sg48
(dp4100
g50
VCLG Frosty HCS
p4101
sg52
Nssg53
(lp4102
I2758383128
asg41
VWeaponPickup
p4103
sg44
VPT5M39.6560011S
p4104
sa(dp4105
g41
VPlayerSpawn
p4106
sg48
(dp4107
g50
VCLG Frosty HCS
p4108
sg52
Nssg44
VPT5M39.6560011S
p4109
sa(dp4110
g204
I4096745987
sg205
I00
sg206
I00
sg207
(dp4111
g50
VCLG Snake Bite
p4112
sg52
Nssg210
(lp4113
I2758383128
asg212
I00
sg213
I01
sg214
I1
sg215
I0
sg216
I1
sg217
(dp4114
Vy
F7.9577546100000003
sVx
F-2.796843
sVz
F2.3535501999999999
ssg219
(dp4115
Vy
F10.3722353
sVx
F3.9185183000000001
sVz
F2.10751271
ssg221
I00
sg222
(dp4116
g50
VRNG Ninja HCS
p4117
sg52
Nssg226
(lp4118
sg228
(lp4119
(dp4120
g50
VRammyy
p4121
sg52
Nsa(dp4122
g50
VCLG LethuL HCS
p4123
sg52
Nsasg230
I00
sg44
VPT5M46.4380005S
p4124
sg41
VDeath
p4125
sg233
I1
sa(dp4126
g47
I313138863
sg41
VWeaponDrop
p4127
sg189
I0
sg53
(lp4128
I1095363701
asg44
VPT5M46.4409998S
p4129
sg192
I0
sg193
VP0DT0H0M2.1833S
p4130
sg48
(dp4131
g50
VRNG Ninja HCS
p4132
sg52
Nssa(dp4133
g47
I4096745987
sg41
VWeaponDrop
p4134
sg189
I7
sg53
(lp4135
I2758383128
asg44
VPT5M46.4409998S
p4136
sg192
I1
sg193
VP0DT0H0M12.0667S
p4137
sg48
(dp4138
g50
VRNG Ninja HCS
p4139
sg52
Nssa(dp4140
g204
I4096745987
sg205
I00
sg206
I00
sg207
(dp4141
g50
VRNG Penguin HCS
p4142
sg52
Nssg210
(lp4143
I2758383128
asg212
I00
sg213
I01
sg214
I1
sg215
I0
sg216
I1
sg217
(dp4144
Vy
F-0.69304529999999998
sVx
F2.998424
sVz
F3.0178291800000001
ssg219
(dp4145
Vy
F13.201829999999999
sVx
F-9.9390289999999997
sVz
F1.4995212600000001
ssg221
I00
sg222
(dp4146
g50
VCLG LethuL HCS
p4147
sg52
Nssg226
(lp4148
sg228
(lp4149
sg230
I01
sg44
VPT5M48.9550005S
p4150
sg41
VDeath
p4151
sg233
I1
sa(dp4152
g41
VMedal
p4153
sg48
(dp4154
g50
VRNG Commonly
p4155
sg52
Nssg330
I824733727
sg44
VPT5M48.9570002S
p4156
sa(dp4157
g41
VMedal
p4158
sg48
(dp4159
g50
VRNG Penguin HCS
p4160
sg52
Nssg330
I3261908037
sg44
VPT5M48.9570002S
p4161
sa(dp4162
g47
I723388907
sg41
VWeaponDrop
p4163
sg189
I0
sg53
(lp4164
I89283061
asg44
VPT5M48.9579999S
p4165
sg192
I0
sg193
VP0DT0H0M0.4833S
p4166
sg48
(dp4167
g50
VCLG LethuL HCS
p4168
sg52
Nssa(dp4169
g47
I4096745987
sg41
VWeaponDrop
p4170
sg189
I14
sg53
(lp4171
I2758383128
asg44
VPT5M48.9579999S
p4172
sg192
I6
sg193
VP0DT0H0M49.0500S
p4173
sg48
(dp4174
g50
VCLG LethuL HCS
p4175
sg52
Nssa(dp4176
g204
I4096745987
sg205
I00
sg206
I00
sg207
(dp4177
g50
VCLG Snake Bite
p4178
sg52
Nssg210
(lp4179
I2758383128
asg212
I00
sg213
I01
sg214
I1
sg215
I0
sg216
I1
sg217
(dp4180
Vy
F16.038791700000001
sVx
F-3.16936851
sVz
F1.4997649200000001
ssg219
(dp4181
Vy
F22.023070000000001
sVx
F-10.7509508
sVz
F1.5033741
ssg221
I00
sg222
(dp4182
g50
VRNG Commonly
p4183
sg52
Nssg226
(lp4184
sg228
(lp4185
(dp4186
g50
VCLG LethuL HCS
p4187
sg52
Nsasg230
I01
sg44
VPT5M49.671S
p4188
sg41
VDeath
p4189
sg233
I1
sa(dp4190
g41
VMedal
p4191
sg48
(dp4192
g50
VCLG Snake Bite
p4193
sg52
Nssg330
I3261908037
sg44
VPT5M49.6730003S
p4194
sa(dp4195
g41
VMedal
p4196
sg48
(dp4197
g50
VCLG Snake Bite
p4198
sg52
Nssg330
I2078758684
sg44
VPT5M49.6730003S
p4199
sa(dp4200
g47
I313138863
sg41
VWeaponDrop
p4201
sg189
I0
sg53
(lp4202
I1095363701
asg44
VPT5M49.6740001S
p4203
sg192
I0
sg193
VP0DT0H0M1.3167S
p4204
sg48
(dp4205
g50
VRNG Commonly
p4206
sg52
Nssa(dp4207
g47
I4096745987
sg41
VWeaponDrop
p4208
sg189
I3
sg53
(lp4209
I2758383128
asg44
VPT5M49.6740001S
p4210
sg192
I0
sg193
VP0DT0H0M11.0167S
p4211
sg48
(dp4212
g50
VRNG Commonly
p4213
sg52
Nssa(dp4214
g47
I313138863
sg41
VWeaponDrop
p4215
sg189
I0
sg53
(lp4216
I1095363701
asg44
VPT5M53.0369992S
p4217
sg192
I0
sg193
VP0DT0H0M1.6500S
p4218
sg48
(dp4219
g50
VRammyy
p4220
sg52
Nssa(dp4221
g47
I723388907
sg48
(dp4222
g50
VRammyy
p4223
sg52
Nssg53
(lp4224
I89283061
asg41
VWeaponPickup
p4225
sg44
VPT5M53.0369992S
p4226
sa(dp4227
g204
I4096745987
sg205
I00
sg206
I00
sg207
(dp4228
g50
VRNG Penguin HCS
p4229
sg52
Nssg210
(lp4230
I2758383128
asg212
I00
sg213
I01
sg214
I1
sg215
I0
sg216
I1
sg217
(dp4231
Vy
F-1.0147116199999999
sVx
F2.8862037699999998
sVz
F3.4035563500000001
ssg219
(dp4232
Vy
F1.9572186499999999
sVx
F2.5088699999999999
sVz
F1.1217814699999999
ssg221
I00
sg222
(dp4233
g50
VCLG Frosty HCS
p4234
sg52
Nssg226
(lp4235
sg228
(lp4236
(dp4237
g50
VRNG Victory X
p4238
sg52
Nsasg230
I01
sg44
VPT5M53.5550009S
p4239
sg41
VDeath
p4240
sg233
I1
sa(dp4241
g41
VMedal
p4242
sg48
(dp4243
g50
VRNG Penguin HCS
p4244
sg52
Nssg330
I3261908037
sg44
VPT5M53.5560008S
p4245
sa(dp4246
g41
VMedal
p4247
sg48
(dp4248
g50
VRNG Penguin HCS
p4249
sg52
Nssg330
I2430242797
sg44
VPT5M53.5560008S
p4250
sa(dp4251
g41
VMedal
p4252
sg48
(dp4253
g50
VRNG Penguin HCS
p4254
sg52
Nssg330
I2078758684
sg44
VPT5M53.557S
p4255
sa(dp4256
g47
I313138863
sg41
VWeaponDrop
p4257
sg189
I21
sg53
(lp4258
I1095363701
asg44
VPT5M53.557S
p4259
sg192
I13
sg193
VP0DT0H0M4.4000S
p4260
sg48
(dp4261
g50
VCLG Frosty HCS
p4262
sg52
Nssa(dp4263
g47
I4096745987
sg41
VWeaponDrop
p4264
sg189
I0
sg53
(lp4265
I2758383128
asg44
VPT5M53.557S
p4266
sg192
I0
sg193
VP0DT0H0M9.5000S
p4267
sg48
(dp4268
g50
VCLG Frosty HCS
p4269
sg52
Nssa(dp4270
g47
I313138863
sg48
(dp4271
g50
VRNG Ninja HCS
p4272
sg52
Nssg53
(lp4273
I1095363701
asg41
VWeaponPickup
p4274
sg44
VPT5M54.4550009S
p4275
sa(dp4276
g47
I4096745987
sg48
(dp4277
g50
VRNG Ninja HCS
p4278
sg52
Nssg53
(lp4279
I2758383128
asg41
VWeaponPickup
p4280
sg44
VPT5M54.4550009S
p4281
sa(dp4282
g41
VPlayerSpawn
p4283
sg48
(dp4284
g50
VRNG Ninja HCS
p4285
sg52
Nssg44
VPT5M54.4550009S
p4286
sa(dp4287
g204
I424645655
sg205
I00
sg206
I00
sg207
(dp4288
g50
VRammyy
p4289
sg52
Nssg210
(lp4290
I1327094800
asg212
I00
sg213
I01
sg214
I1
sg215
I0
sg216
I1
sg217
(dp4291
Vy
F13.1616125
sVx
F-9.4933739999999993
sVz
F1.4995212600000001
ssg219
(dp4292
Vy
F-0.71314805699999995
sVx
F3.7618601300000001
sVz
F3.4214172399999998
ssg221
I00
sg222
(dp4293
g50
VRNG Penguin HCS
p4294
sg52
Nssg226
(lp4295
sg228
(lp4296
(dp4297
g50
VCLG Frosty HCS
p4298
sg52
Nsasg230
I00
sg44
VPT5M55.2039995S
p4299
sg41
VDeath
p4300
sg233
I1
sa(dp4301
g41
VMedal
p4302
sg48
(dp4303
g50
VCLG Snake Bite
p4304
sg52
Nssg330
I824733727
sg44
VPT5M55.205001S
p4305
sa(dp4306
g47
I3808094875
sg41
VWeaponDrop
p4307
sg189
I16
sg53
(lp4308
I2758383128
asg44
VPT5M55.2060001S
p4309
sg192
I4
sg193
VP0DT0H0M32.8500S
p4310
sg48
(dp4311
g50
VRNG Penguin HCS
p4312
sg52
Nssa(dp4313
g47
I4096745987
sg41
VWeaponDrop
p4314
sg189
I33
sg53
(lp4315
I2758383128
asg44
VPT5M55.2060001S
p4316
sg192
I21
sg193
VP0DT0H0M57.9000S
p4317
sg48
(dp4318
g50
VRNG Penguin HCS
p4319
sg52
Nssa(dp4320
g204
I4096745987
sg205
I00
sg206
I00
sg207
(dp4321
g50
VCLG Snake Bite
p4322
sg52
Nssg210
(lp4323
I2758383128
asg212
I00
sg213
I01
sg214
I1
sg215
I0
sg216
I1
sg217
(dp4324
Vy
F10.244574500000001
sVx
F2.0649060000000001
sVz
F1.64826608
ssg219
(dp4325
Vy
F3.1322476899999998
sVx
F4.0425672500000003
sVz
F2.2800259999999999
ssg221
I00
sg222
(dp4326
g50
VRNG Victory X
p4327
sg52
Nssg226
(lp4328
sg228
(lp4329
sg230
I01
sg44
VPT5M55.3880005S
p4330
sg41
VDeath
p4331
sg233
I1
sa(dp4332
g41
VImpulse
p4333
sg48
(dp4334
g50
VCLG Snake Bite
p4335
sg52
Nssg495
I3174430457
sg44
VPT5M55.3900002S
p4336
sa(dp4337
g41
VMedal
p4338
sg48
(dp4339
g50
VCLG Snake Bite
p4340
sg52
Nssg330
I3653057799
sg44
VPT5M55.391S
p4341
sa(dp4342
g47
I4054937266
sg41
VWeaponDrop
p4343
sg189
I5
sg53
(lp4344
I2758383128
asg44
VPT5M55.3920007S
p4345
sg192
I2
sg193
VP0DT0H0M8.2000S
p4346
sg48
(dp4347
g50
VRNG Victory X
p4348
sg52
Nssa(dp4349
g47
I4108759423
sg41
VWeaponDrop
p4350
sg189
I11
sg53
(lp4351
I2758383128
asg44
VPT5M55.3920007S
p4352
sg192
I3
sg193
VP0DT0H0M10.3000S
p4353
sg48
(dp4354
g50
VRNG Victory X
p4355
sg52
Nssa(dp4356
g47
I313138863
sg48
(dp4357
g50
VCLG LethuL HCS
p4358
sg52
Nssg53
(lp4359
I1095363701
asg41
VWeaponPickup
p4360
sg44
VPT5M56.972001S
p4361
sa(dp4362
g47
I4096745987
sg48
(dp4363
g50
VCLG LethuL HCS
p4364
sg52
Nssg53
(lp4365
I2758383128
asg41
VWeaponPickup
p4366
sg44
VPT5M56.972001S
p4367
sa(dp4368
g41
VPlayerSpawn
p4369
sg48
(dp4370
g50
VCLG LethuL HCS
p4371
sg52
Nssg44
VPT5M56.972001S
p4372
sa(dp4373
g47
I313138863
sg48
(dp4374
g50
VRNG Commonly
p4375
sg52
Nssg53
(lp4376
I1095363701
asg41
VWeaponPickup
p4377
sg44
VPT5M57.6880006S
p4378
sa(dp4379
g47
I4096745987
sg48
(dp4380
g50
VRNG Commonly
p4381
sg52
Nssg53
(lp4382
I2758383128
asg41
VWeaponPickup
p4383
sg44
VPT5M57.689001S
p4384
sa(dp4385
g41
VPlayerSpawn
p4386
sg48
(dp4387
g50
VRNG Commonly
p4388
sg52
Nssg44
VPT5M57.689001S
p4389
sa(dp4390
g47
I313138863
sg48
(dp4391
g50
VCLG Frosty HCS
p4392
sg52
Nssg53
(lp4393
I1095363701
asg41
VWeaponPickup
p4394
sg44
VPT6M1.571001S
p4395
sa(dp4396
g47
I4096745987
sg48
(dp4397
g50
VCLG Frosty HCS
p4398
sg52
Nssg53
(lp4399
I2758383128
asg41
VWeaponPickup
p4400
sg44
VPT6M1.572001S
p4401
sa(dp4402
g41
VPlayerSpawn
p4403
sg48
(dp4404
g50
VCLG Frosty HCS
p4405
sg52
Nssg44
VPT6M1.572001S
p4406
sa(dp4407
g47
I313138863
sg48
(dp4408
g50
VRNG Penguin HCS
p4409
sg52
Nssg53
(lp4410
I1095363701
asg41
VWeaponPickup
p4411
sg44
VPT6M3.2210012S
p4412
sa(dp4413
g47
I4096745987
sg48
(dp4414
g50
VRNG Penguin HCS
p4415
sg52
Nssg53
(lp4416
I2758383128
asg41
VWeaponPickup
p4417
sg44
VPT6M3.2220007S
p4418
sa(dp4419
g41
VPlayerSpawn
p4420
sg48
(dp4421
g50
VRNG Penguin HCS
p4422
sg52
Nssg44
VPT6M3.2220007S
p4423
sa(dp4424
g47
I313138863
sg48
(dp4425
g50
VRNG Victory X
p4426
sg52
Nssg53
(lp4427
I1095363701
asg41
VWeaponPickup
p4428
sg44
VPT6M3.4050004S
p4429
sa(dp4430
g47
I4096745987
sg48
(dp4431
g50
VRNG Victory X
p4432
sg52
Nssg53
(lp4433
I2758383128
asg41
VWeaponPickup
p4434
sg44
VPT6M3.4050004S
p4435
sa(dp4436
g41
VPlayerSpawn
p4437
sg48
(dp4438
g50
VRNG Victory X
p4439
sg52
Nssg44
VPT6M3.4050004S
p4440
sa(dp4441
g41
VMedal
p4442
sg48
(dp4443
g50
VCLG Snake Bite
p4444
sg52
Nssg330
I3400287617
sg44
VPT6M4.8040008S
p4445
sa(dp4446
g204
I4106030681
sg205
I00
sg206
I00
sg207
(dp4447
g50
VRNG Victory X
p4448
sg52
Nssg210
(lp4449
sg212
I00
sg213
I01
sg214
I1
sg215
I0
sg216
I1
sg217
(dp4450
Vy
F3.857999
sVx
F-15.84064
sVz
F1.1691525
ssg219
(dp4451
Vy
F8.8439239999999995
sVx
F1.07880306
sVz
F2.41016626
ssg221
I00
sg222
(dp4452
g50
VCLG Frosty HCS
p4453
sg52
Nssg226
(lp4454
sg228
(lp4455
(dp4456
g50
VRNG Ninja HCS
p4457
sg52
Nsasg230
I00
sg44
VPT6M8.7040003S
p4458
sg41
VDeath
p4459
sg233
I1
sa(dp4460
g41
VMedal
p4461
sg48
(dp4462
g50
VRNG Commonly
p4463
sg52
Nssg330
I824733727
sg44
VPT6M8.7060002S
p4464
sa(dp4465
g41
VMedal
p4466
sg48
(dp4467
g50
VRNG Victory X
p4468
sg52
Nssg330
I3491849182
sg44
VPT6M8.7060002S
p4469
sa(dp4470
g47
I313138863
sg41
VWeaponDrop
p4471
sg189
I0
sg53
(lp4472
I1095363701
asg44
VPT6M8.7070005S
p4473
sg192
I0
sg193
VP0DT0H0M0.5833S
p4474
sg48
(dp4475
g50
VCLG Frosty HCS
p4476
sg52
Nssa(dp4477
g47
I4096745987
sg41
VWeaponDrop
p4478
sg189
I4
sg53
(lp4479
I2758383128
asg44
VPT6M8.7070005S
p4480
sg192
I2
sg193
VP0DT0H0M6.5500S
p4481
sg48
(dp4482
g50
VCLG Frosty HCS
p4483
sg52
Nssa(dp4484
g47
I4096745987
sg41
VWeaponDrop
p4485
sg189
I0
sg53
(lp4486
I2758383128
asg44
VPT6M9.7359985S
p4487
sg192
I0
sg193
VP0DT0H0M6.0500S
p4488
sg48
(dp4489
g50
VRNG Victory X
p4490
sg52
Nssa(dp4491
g47
I424645655
sg48
(dp4492
g50
VRNG Victory X
p4493
sg52
Nssg53
(lp4494
I1327094800
asg41
VWeaponPickup
p4495
sg44
VPT6M9.7359985S
p4496
sa(dp4497
g47
I313138863
sg41
VWeaponDrop
p4498
sg189
I0
sg53
(lp4499
I1095363701
asg44
VPT6M10.3359994S
p4500
sg192
I0
sg193
VP0DT0H0M2.5167S
p4501
sg48
(dp4502
g50
VRNG Penguin HCS
p4503
sg52
Nssa(dp4504
g47
I723388907
sg48
(dp4505
g50
VRNG Penguin HCS
p4506
sg52
Nssg53
(lp4507
I89283061
asg41
VWeaponPickup
p4508
sg44
VPT6M10.3359994S
p4509
sa(dp4510
g47
I313138863
sg48
(dp4511
g50
VCLG Frosty HCS
p4512
sg52
Nssg53
(lp4513
I1095363701
asg41
VWeaponPickup
p4514
sg44
VPT6M16.721001S
p4515
sa(dp4516
g47
I4096745987
sg48
(dp4517
g50
VCLG Frosty HCS
p4518
sg52
Nssg53
(lp4519
I2758383128
asg41
VWeaponPickup
p4520
sg44
VPT6M16.721001S
p4521
sa(dp4522
g41
VPlayerSpawn
p4523
sg48
(dp4524
g50
VCLG Frosty HCS
p4525
sg52
Nssg44
VPT6M16.721001S
p4526
sa(dp4527
g204
I723388907
sg205
I00
sg206
I00
sg207
(dp4528
g50
VRNG Penguin HCS
p4529
sg52
Nssg210
(lp4530
I89283061
asg212
I00
sg213
I01
sg214
I1
sg215
I0
sg216
I1
sg217
(dp4531
Vy
F15.7220469
sVx
F-16.202652
sVz
F-0.322655529
ssg219
(dp4532
Vy
F12.1375856
sVx
F-10.1657677
sVz
F-0.89672719999999995
ssg221
I00
sg222
(dp4533
g50
VRammyy
p4534
sg52
Nssg226
(lp4535
sg228
(lp4536
sg230
I00
sg44
VPT6M18.1210007S
p4537
sg41
VDeath
p4538
sg233
I1
sa(dp4539
g41
VMedal
p4540
sg48
(dp4541
g50
VRNG Penguin HCS
p4542
sg52
Nssg330
I2782465081
sg44
VPT6M18.1220007S
p4543
sa(dp4544
g47
I723388907
sg41
VWeaponDrop
p4545
sg189
I24
sg53
(lp4546
I89283061
asg44
VPT6M18.1229999S
p4547
sg192
I14
sg193
VP0DT0H0M4.0667S
p4548
sg48
(dp4549
g50
VRammyy
p4550
sg52
Nssa(dp4551
g47
I424645655
sg41
VWeaponDrop
p4552
sg189
I24
sg53
(lp4553
I1327094800
asg44
VPT6M18.1229999S
p4554
sg192
I5
sg193
VP0DT0H0M34.4000S
p4555
sg48
(dp4556
g50
VRammyy
p4557
sg52
Nssa(dp4558
g204
I4096745987
sg205
I00
sg206
I00
sg207
(dp4559
g50
VRNG Commonly
p4560
sg52
Nssg210
(lp4561
I2758383128
asg212
I00
sg213
I01
sg214
I1
sg215
I0
sg216
I1
sg217
(dp4562
Vy
F16.829368599999999
sVx
F-0.53172759999999997
sVz
F-1.8332729999999999
ssg219
(dp4563
Vy
F23.280965800000001
sVx
F-5.3040247000000003
sVz
F-0.89672189999999996
ssg221
I00
sg222
(dp4564
g50
VCLG LethuL HCS
p4565
sg52
Nssg226
(lp4566
sg228
(lp4567
(dp4568
g50
VRNG Penguin HCS
p4569
sg52
Nsasg230
I01
sg44
VPT6M18.8870003S
p4570
sg41
VDeath
p4571
sg233
I1
sa(dp4572
g41
VMedal
p4573
sg48
(dp4574
g50
VRNG Commonly
p4575
sg52
Nssg330
I3261908037
sg44
VPT6M18.8890002S
p4576
sa(dp4577
g47
I313138863
sg41
VWeaponDrop
p4578
sg189
I0
sg53
(lp4579
I1095363701
asg44
VPT6M18.8890002S
p4580
sg192
I0
sg193
VP0DT0H0M0.7667S
p4581
sg48
(dp4582
g50
VCLG LethuL HCS
p4583
sg52
Nssa(dp4584
g47
I4096745987
sg41
VWeaponDrop
p4585
sg189
I1
sg53
(lp4586
I2758383128
asg44
VPT6M18.8890002S
p4587
sg192
I0
sg193
VP0DT0H0M21.1500S
p4588
sg48
(dp4589
g50
VCLG LethuL HCS
p4590
sg52
Nssa(dp4591
g41
VMedal
p4592
sg48
(dp4593
g50
VRNG Penguin HCS
p4594
sg52
Nssg330
I3400287617
sg44
VPT6M22.036S
p4595
sa(dp4596
g47
I313138863
sg41
VWeaponDrop
p4597
sg189
I0
sg53
(lp4598
I1095363701
asg44
VPT6M24.9349989S
p4599
sg192
I0
sg193
VP0DT0H0M5.6333S
p4600
sg48
(dp4601
g50
VRNG Victory X
p4602
sg52
Nssa(dp4603
g47
I669296699
sg48
(dp4604
g50
VRNG Victory X
p4605
sg52
Nssg53
(lp4606
I2758383128
asg41
VWeaponPickupPad
p4607
sg44
VPT6M24.9360004S
p4608
sa(dp4609
g47
I669296699
sg48
(dp4610
g50
VRNG Victory X
p4611
sg52
Nssg53
(lp4612
I2758383128
asg41
VWeaponPickup
p4613
sg44
VPT6M24.9360004S
p4614
sa(dp4615
g47
I313138863
sg48
(dp4616
g50
VRammyy
p4617
sg52
Nssg53
(lp4618
I1095363701
asg41
VWeaponPickup
p4619
sg44
VPT6M26.1370008S
p4620
sa(dp4621
g47
I4096745987
sg48
(dp4622
g50
VRammyy
p4623
sg52
Nssg53
(lp4624
I2758383128
asg41
VWeaponPickup
p4625
sg44
VPT6M26.138001S
p4626
sa(dp4627
g41
VPlayerSpawn
p4628
sg48
(dp4629
g50
VRammyy
p4630
sg52
Nssg44
VPT6M26.138001S
p4631
sa(dp4632
g47
I313138863
sg41
VWeaponDrop
p4633
sg189
I0
sg53
(lp4634
I1095363701
asg44
VPT6M26.5849989S
p4635
sg192
I0
sg193
VP0DT0H0M1.4667S
p4636
sg48
(dp4637
g50
VRNG Commonly
p4638
sg52
Nssa(dp4639
g47
I2133511419
sg48
(dp4640
g50
VRNG Commonly
p4641
sg52
Nssg53
(lp4642
I2758383128
asg41
VWeaponPickup
p4643
sg44
VPT6M26.5860012S
p4644
sa(dp4645
g47
I313138863
sg48
(dp4646
g50
VCLG LethuL HCS
p4647
sg52
Nssg53
(lp4648
I1095363701
asg41
VWeaponPickup
p4649
sg44
VPT6M26.9040012S
p4650
sa(dp4651
g47
I4096745987
sg48
(dp4652
g50
VCLG LethuL HCS
p4653
sg52
Nssg53
(lp4654
I2758383128
asg41
VWeaponPickup
p4655
sg44
VPT6M26.9040012S
p4656
sa(dp4657
g41
VPlayerSpawn
p4658
sg48
(dp4659
g50
VCLG LethuL HCS
p4660
sg52
Nssg44
VPT6M26.9040012S
p4661
sa(dp4662
g204
I4106030681
sg205
I00
sg206
I00
sg207
(dp4663
g50
VCLG Frosty HCS
p4664
sg52
Nssg210
(lp4665
sg212
I00
sg213
I01
sg214
I1
sg215
I0
sg216
I1
sg217
(dp4666
Vy
F22.392564799999999
sVx
F2.8484685399999998
sVz
F2.38579345
ssg219
(dp4667
Vy
F26.742122699999999
sVx
F-10.716499300000001
sVz
F1.503374
ssg221
I00
sg222
(dp4668
g50
VRNG Ninja HCS
p4669
sg52
Nssg226
(lp4670
sg228
(lp4671
sg230
I00
sg44
VPT6M26.9050006S
p4672
sg41
VDeath
p4673
sg233
I1
sa(dp4674
g47
I313138863
sg41
VWeaponDrop
p4675
sg189
I13
sg53
(lp4676
I1095363701
asg44
VPT6M26.9070003S
p4677
sg192
I6
sg193
VP0DT0H0M6.5833S
p4678
sg48
(dp4679
g50
VRNG Ninja HCS
p4680
sg52
Nssa(dp4681
g47
I4096745987
sg41
VWeaponDrop
p4682
sg189
I14
sg53
(lp4683
I2758383128
asg44
VPT6M26.9070003S
p4684
sg192
I6
sg193
VP0DT0H0M25.8667S
p4685
sg48
(dp4686
g50
VRNG Ninja HCS
p4687
sg52
Nssa(dp4688
g47
I4096745987
sg41
VWeaponDrop
p4689
sg189
I0
sg53
(lp4690
I2758383128
asg44
VPT6M29.1520008S
p4691
sg192
I0
sg193
VP0DT0H0M1.1667S
p4692
sg48
(dp4693
g50
VCLG LethuL HCS
p4694
sg52
Nssa(dp4695
g47
I4108759423
sg48
(dp4696
g50
VCLG LethuL HCS
p4697
sg52
Nssg53
(lp4698
I2758383128
asg41
VWeaponPickup
p4699
sg44
VPT6M29.1520008S
p4700
sa(dp4701
g204
I424645655
sg205
I00
sg206
I00
sg207
(dp4702
g50
VRNG Victory X
p4703
sg52
Nssg210
(lp4704
I1327094800
asg212
I00
sg213
I01
sg214
I1
sg215
I0
sg216
I1
sg217
(dp4705
Vy
F3.0453946599999999
sVx
F-3.4600119999999999
sVz
F2.6819510000000002
ssg219
(dp4706
Vy
F-1.3795937300000001
sVx
F-2.9067926399999999
sVz
F3.0297312700000001
ssg221
I00
sg222
(dp4707
g50
VCLG Snake Bite
p4708
sg52
Nssg226
(lp4709
sg228
(lp4710
sg230
I01
sg44
VPT6M29.2040006S
p4711
sg41
VDeath
p4712
sg233
I1
sa(dp4713
g41
VMedal
p4714
sg48
(dp4715
g50
VRNG Victory X
p4716
sg52
Nssg330
I3261908037
sg44
VPT6M29.206S
p4717
sa(dp4718
g47
I313138863
sg41
VWeaponDrop
p4719
sg189
I0
sg53
(lp4720
I1095363701
asg44
VPT6M29.206S
p4721
sg192
I0
sg193
VP0DT0H0M3.6167S
p4722
sg48
(dp4723
g50
VCLG Snake Bite
p4724
sg52
Nssa(dp4725
g47
I4096745987
sg41
VWeaponDrop
p4726
sg189
I18
sg53
(lp4727
I2758383128
asg44
VPT6M29.206S
p4728
sg192
I12
sg193
VP0DT0H0M53.7000S
p4729
sg48
(dp4730
g50
VCLG Snake Bite
p4731
sg52
Nssa(dp4732
g47
I313138863
sg48
(dp4733
g50
VRNG Ninja HCS
p4734
sg52
Nssg53
(lp4735
I1095363701
asg41
VWeaponPickup
p4736
sg44
VPT6M34.9200009S
p4737
sa(dp4738
g47
I4096745987
sg48
(dp4739
g50
VRNG Ninja HCS
p4740
sg52
Nssg53
(lp4741
I2758383128
asg41
VWeaponPickup
p4742
sg44
VPT6M34.9200009S
p4743
sa(dp4744
g41
VPlayerSpawn
p4745
sg48
(dp4746
g50
VRNG Ninja HCS
p4747
sg52
Nssg44
VPT6M34.9200009S
p4748
sa(dp4749
g47
I2492868984
sg48
(dp4750
g50
VRNG Commonly
p4751
sg52
Nssg53
(lp4752
I2758383128
asg41
VWeaponPickup
p4753
sg44
VPT6M36.0190005S
p4754
sa(dp4755
g47
I4096745987
sg41
VWeaponDrop
p4756
sg189
I0
sg53
(lp4757
I2758383128
asg44
VPT6M36.284999S
p4758
sg192
I0
sg193
VP0DT0H0M0.5667S
p4759
sg48
(dp4760
g50
VRNG Ninja HCS
p4761
sg52
Nssa(dp4762
g47
I424645655
sg48
(dp4763
g50
VRNG Ninja HCS
p4764
sg52
Nssg53
(lp4765
I1327094800
asg41
VWeaponPickup
p4766
sg44
VPT6M36.284999S
p4767
sa(dp4768
g47
I2492868984
sg41
VWeaponDrop
p4769
sg189
I0
sg53
(lp4770
I2758383128
asg44
VPT6M37.1700007S
p4771
sg192
I0
sg193
VP0DT0H0M0.9833S
p4772
sg48
(dp4773
g50
VRNG Commonly
p4774
sg52
Nssa(dp4775
g47
I313138863
sg41
VWeaponDrop
p4776
sg189
I0
sg53
(lp4777
I1095363701
asg44
VPT6M37.2179987S
p4778
sg192
I0
sg193
VP0DT0H0M4.0167S
p4779
sg48
(dp4780
g50
VRammyy
p4781
sg52
Nssa(dp4782
g47
I4054937266
sg48
(dp4783
g50
VRammyy
p4784
sg52
Nssg53
(lp4785
I2758383128
asg41
VWeaponPickupPad
p4786
sg44
VPT6M37.2190314S
p4787
sa(dp4788
g41
VMedal
p4789
sg48
(dp4790
g50
VRammyy
p4791
sg52
Nssg330
I2564994165
sg44
VPT6M37.2190314S
p4792
sa(dp4793
g47
I4054937266
sg48
(dp4794
g50
VRammyy
p4795
sg52
Nssg53
(lp4796
I2758383128
asg41
VWeaponPickup
p4797
sg44
VPT6M37.2190314S
p4798
sa(dp4799
g47
I313138863
sg48
(dp4800
g50
VCLG Snake Bite
p4801
sg52
Nssg53
(lp4802
I1095363701
asg41
VWeaponPickup
p4803
sg44
VPT6M37.2210008S
p4804
sa(dp4805
g47
I4096745987
sg48
(dp4806
g50
VCLG Snake Bite
p4807
sg52
Nssg53
(lp4808
I2758383128
asg41
VWeaponPickup
p4809
sg44
VPT6M37.2210008S
p4810
sa(dp4811
g41
VPlayerSpawn
p4812
sg48
(dp4813
g50
VCLG Snake Bite
p4814
sg52
Nssg44
VPT6M37.2210008S
p4815
sa(dp4816
g47
I313138863
sg41
VWeaponDrop
p4817
sg189
I0
sg53
(lp4818
I1095363701
asg44
VPT6M38.7520002S
p4819
sg192
I0
sg193
VP0DT0H0M0.9167S
p4820
sg48
(dp4821
g50
VCLG Frosty HCS
p4822
sg52
Nssa(dp4823
g47
I3808094875
sg48
(dp4824
g50
VCLG Frosty HCS
p4825
sg52
Nssg53
(lp4826
I2758383128
asg41
VWeaponPickup
p4827
sg44
VPT6M38.7520002S
p4828
sa(dp4829
g204
I2133511419
sg205
I00
sg206
I01
sg207
(dp4830
g50
VRNG Commonly
p4831
sg52
Nssg210
(lp4832
I2758383128
asg212
I00
sg213
I00
sg214
I1
sg215
I0
sg216
I1
sg217
(dp4833
Vy
F14.1798105
sVx
F-7.9891962999999997
sVz
F-2.7320215700000001
ssg219
(dp4834
Vy
F14.79627
sVx
F-8.1792610000000003
sVz
F-2.94999981
ssg221
I00
sg222
(dp4835
g50
VCLG Snake Bite
p4836
sg52
Nssg226
(lp4837
sg228
(lp4838
sg230
I00
sg44
VPT6M46.6860001S
p4839
sg41
VDeath
p4840
sg233
I1
sa(dp4841
g41
VMedal
p4842
sg48
(dp4843
g50
VRNG Commonly
p4844
sg52
Nssg330
I2287626681
sg44
VPT6M46.6870009S
p4845
sa(dp4846
g47
I4096745987
sg41
VWeaponDrop
p4847
sg189
I0
sg53
(lp4848
I2758383128
asg44
VPT6M46.688S
p4849
sg192
I0
sg193
VP0DT0H0M8.7667S
p4850
sg48
(dp4851
g50
VCLG Snake Bite
p4852
sg52
Nssa(dp4853
g47
I313138863
sg41
VWeaponDrop
p4854
sg189
I0
sg53
(lp4855
I1095363701
asg44
VPT6M46.6890012S
p4856
sg192
I0
sg193
VP0DT0H0M0.7000S
p4857
sg48
(dp4858
g50
VCLG Snake Bite
p4859
sg52
Nssa(dp4860
g204
I4096745987
sg205
I00
sg206
I00
sg207
(dp4861
g50
VCLG Frosty HCS
p4862
sg52
Nssg210
(lp4863
I2758383128
asg212
I00
sg213
I01
sg214
I1
sg215
I0
sg216
I1
sg217
(dp4864
Vy
F12.772386600000001
sVx
F-0.90351223899999999
sVz
F-0.018197000000000001
ssg219
(dp4865
Vy
F11.111093500000001
sVx
F-9.4681680000000004
sVz
F-0.89672845599999995
ssg221
I00
sg222
(dp4866
g50
VRNG Penguin HCS
p4867
sg52
Nssg226
(lp4868
sg228
(lp4869
(dp4870
g50
VRammyy
p4871
sg52
Nsasg230
I01
sg44
VPT6M46.9690007S
p4872
sg41
VDeath
p4873
sg233
I1
sa(dp4874
g41
VMedal
p4875
sg48
(dp4876
g50
VCLG Frosty HCS
p4877
sg52
Nssg330
I3261908037
sg44
VPT6M46.9710001S
p4878
sa(dp4879
g47
I723388907
sg41
VWeaponDrop
p4880
sg189
I44
sg53
(lp4881
I89283061
asg44
VPT6M46.9720009S
p4882
sg192
I15
sg193
VP0DT0H0M16.9167S
p4883
sg48
(dp4884
g50
VRNG Penguin HCS
p4885
sg52
Nssa(dp4886
g47
I4096745987
sg41
VWeaponDrop
p4887
sg189
I16
sg53
(lp4888
I2758383128
asg44
VPT6M46.9720009S
p4889
sg192
I9
sg193
VP0DT0H0M24.3167S
p4890
sg48
(dp4891
g50
VRNG Penguin HCS
p4892
sg52
Nssa(dp4893
g204
I4054937266
sg205
I00
sg206
I00
sg207
(dp4894
g50
VRammyy
p4895
sg52
Nssg210
(lp4896
I2758383128
asg212
I00
sg213
I01
sg214
I1
sg215
I0
sg216
I1
sg217
(dp4897
Vy
F20.169574699999998
sVx
F-7.8051500000000003
sVz
F-0.89672183999999999
ssg219
(dp4898
Vy
F13.1058626
sVx
F-7.139297
sVz
F-4.6287016899999998
ssg221
I00
sg222
(dp4899
g50
VRNG Commonly
p4900
sg52
Nssg226
(lp4901
sg228
(lp4902
sg230
I00
sg44
VPT6M54.3520004S
p4903
sg41
VDeath
p4904
sg233
I1
sa(dp4905
g47
I2133511419
sg41
VWeaponDrop
p4906
sg189
I7
sg53
(lp4907
I2758383128
asg44
VPT6M54.3530005S
p4908
sg192
I7
sg193
VP0DT0H0M21.7667S
p4909
sg48
(dp4910
g50
VRNG Commonly
p4911
sg52
Nssa(dp4912
g47
I2133511419
sg41
VWeaponDrop
p4913
sg189
I0
sg53
(lp4914
I2758383128
asg44
VPT6M54.3530005S
p4915
sg192
I0
sg193
VP0DT0S
p4916
sg48
(dp4917
g50
VRNG Commonly
p4918
sg52
Nssa(dp4919
g47
I4096745987
sg41
VWeaponDrop
p4920
sg189
I12
sg53
(lp4921
I2758383128
asg44
VPT6M54.3540005S
p4922
sg192
I5
sg193
VP0DT0H0M32.4333S
p4923
sg48
(dp4924
g50
VRNG Commonly
p4925
sg52
Nssa(dp4926
g47
I313138863
sg48
(dp4927
g50
VCLG Snake Bite
p4928
sg52
Nssg53
(lp4929
I1095363701
asg41
VWeaponPickup
p4930
sg44
VPT6M54.7030012S
p4931
sa(dp4932
g47
I4096745987
sg48
(dp4933
g50
VCLG Snake Bite
p4934
sg52
Nssg53
(lp4935
I2758383128
asg41
VWeaponPickup
p4936
sg44
VPT6M54.7030012S
p4937
sa(dp4938
g41
VPlayerSpawn
p4939
sg48
(dp4940
g50
VCLG Snake Bite
p4941
sg52
Nssg44
VPT6M54.7030012S
p4942
sa(dp4943
g47
I313138863
sg48
(dp4944
g50
VRNG Penguin HCS
p4945
sg52
Nssg53
(lp4946
I1095363701
asg41
VWeaponPickup
p4947
sg44
VPT6M54.986001S
p4948
sa(dp4949
g47
I4096745987
sg48
(dp4950
g50
VRNG Penguin HCS
p4951
sg52
Nssg53
(lp4952
I2758383128
asg41
VWeaponPickup
p4953
sg44
VPT6M54.986001S
p4954
sa(dp4955
g41
VPlayerSpawn
p4956
sg48
(dp4957
g50
VRNG Penguin HCS
p4958
sg52
Nssg44
VPT6M54.986001S
p4959
sa(dp4960
g47
I313138863
sg48
(dp4961
g50
VRNG Commonly
p4962
sg52
Nssg53
(lp4963
I1095363701
asg41
VWeaponPickup
p4964
sg44
VPT7M2.3850005S
p4965
sa(dp4966
g47
I4096745987
sg48
(dp4967
g50
VRNG Commonly
p4968
sg52
Nssg53
(lp4969
I2758383128
asg41
VWeaponPickup
p4970
sg44
VPT7M2.3860012S
p4971
sa(dp4972
g41
VPlayerSpawn
p4973
sg48
(dp4974
g50
VRNG Commonly
p4975
sg52
Nssg44
VPT7M2.3860012S
p4976
sa(dp4977
g204
I4096745987
sg205
I00
sg206
I01
sg207
(dp4978
g50
VRNG Penguin HCS
p4979
sg52
Nssg210
(lp4980
I2758383128
asg212
I00
sg213
I00
sg214
I1
sg215
I0
sg216
I1
sg217
(dp4981
Vy
F14.58689
sVx
F-9.7778779999999994
sVz
F2.3738049999999999
ssg219
(dp4982
Vy
F14.8135262
sVx
F-9.5083885200000005
sVz
F2.3968713300000002
ssg221
I00
sg222
(dp4983
g50
VRammyy
p4984
sg52
Nssg226
(lp4985
sg228
(lp4986
(dp4987
g50
VRNG Ninja HCS
p4988
sg52
Nsasg230
I00
sg44
VPT7M13.9510006S
p4989
sg41
VDeath
p4990
sg233
I1
sa(dp4991
g41
VMedal
p4992
sg48
(dp4993
g50
VRNG Penguin HCS
p4994
sg52
Nssg330
I2287626681
sg44
VPT7M13.9520008S
p4995
sa(dp4996
g47
I4054937266
sg41
VWeaponDrop
p4997
sg189
I15
sg53
(lp4998
I2758383128
asg44
VPT7M13.953S
p4999
sg192
I10
sg193
VP0DT0H0M19.6500S
p5000
sg48
(dp5001
g50
VRammyy
p5002
sg52
Nssa(dp5003
g47
I4096745987
sg41
VWeaponDrop
p5004
sg189
I14
sg53
(lp5005
I2758383128
asg44
VPT7M13.953S
p5006
sg192
I6
sg193
VP0DT0H0M24.1333S
p5007
sg48
(dp5008
g50
VRammyy
p5009
sg52
Nssa(dp5010
g204
I4096745987
sg205
I00
sg206
I00
sg207
(dp5011
g50
VCLG Frosty HCS
p5012
sg52
Nssg210
(lp5013
I2758383128
asg212
I00
sg213
I01
sg214
I1
sg215
I0
sg216
I1
sg217
(dp5014
Vy
F17.396358500000002
sVx
F-4.2961206399999998
sVz
F1.4995265
ssg219
(dp5015
Vy
F16.090473200000002
sVx
F-8.2296040000000001
sVz
F-2.9499993299999998
ssg221
I00
sg222
(dp5016
g50
VRNG Ninja HCS
p5017
sg52
Nssg226
(lp5018
sg228
(lp5019
(dp5020
g50
VCLG LethuL HCS
p5021
sg52
Nsasg230
I01
sg44
VPT7M19.1510003S
p5022
sg41
VDeath
p5023
sg233
I1
sa(dp5024
g41
VMedal
p5025
sg48
(dp5026
g50
VCLG Frosty HCS
p5027
sg52
Nssg330
I3261908037
sg44
VPT7M19.1520006S
p5028
sa(dp5029
g47
I313138863
sg41
VWeaponDrop
p5030
sg189
I0
sg53
(lp5031
I1095363701
asg44
VPT7M19.1530005S
p5032
sg192
I0
sg193
VP0DT0H0M0.8000S
p5033
sg48
(dp5034
g50
VRNG Ninja HCS
p5035
sg52
Nssa(dp5036
g47
I424645655
sg41
VWeaponDrop
p5037
sg189
I63
sg53
(lp5038
I1327094800
asg44
VPT7M19.1530005S
p5039
sg192
I31
sg193
VP0DT0H0M42.8500S
p5040
sg48
(dp5041
g50
VRNG Ninja HCS
p5042
sg52
Nssa(dp5043
g204
I4096745987
sg205
I00
sg206
I00
sg207
(dp5044
g50
VRNG Penguin HCS
p5045
sg52
Nssg210
(lp5046
I2758383128
asg212
I00
sg213
I01
sg214
I1
sg215
I0
sg216
I1
sg217
(dp5047
Vy
F17.704799999999999
sVx
F-10.296728099999999
sVz
F1.5012465699999999
ssg219
(dp5048
Vy
F18.864414199999999
sVx
F-5.219036
sVz
F2.4724097299999999
ssg221
I00
sg222
(dp5049
g50
VCLG Frosty HCS
p5050
sg52
Nssg226
(lp5051
sg228
(lp5052
(dp5053
g50
VRNG Ninja HCS
p5054
sg52
Nsasg230
I01
sg44
VPT7M19.9669994S
p5055
sg41
VDeath
p5056
sg233
I1
sa(dp5057
g41
VMedal
p5058
sg48
(dp5059
g50
VRNG Penguin HCS
p5060
sg52
Nssg330
I3261908037
sg44
VPT7M19.9690002S
p5061
sa(dp5062
g47
I3808094875
sg41
VWeaponDrop
p5063
sg189
I32
sg53
(lp5064
I2758383128
asg44
VPT7M19.9700006S
p5065
sg192
I6
sg193
VP0DT0H0M11.5667S
p5066
sg48
(dp5067
g50
VCLG Frosty HCS
p5068
sg52
Nssa(dp5069
g47
I4096745987
sg41
VWeaponDrop
p5070
sg189
I28
sg53
(lp5071
I2758383128
asg44
VPT7M19.9700006S
p5072
sg192
I12
sg193
VP0DT0H0M50.7500S
p5073
sg48
(dp5074
g50
VCLG Frosty HCS
p5075
sg52
Nssa(dp5076
g47
I313138863
sg48
(dp5077
g50
VRammyy
p5078
sg52
Nssg53
(lp5079
I1095363701
asg41
VWeaponPickup
p5080
sg44
VPT7M21.9680007S
p5081
sa(dp5082
g47
I4096745987
sg48
(dp5083
g50
VRammyy
p5084
sg52
Nssg53
(lp5085
I2758383128
asg41
VWeaponPickup
p5086
sg44
VPT7M21.9680007S
p5087
sa(dp5088
g41
VPlayerSpawn
p5089
sg48
(dp5090
g50
VRammyy
p5091
sg52
Nssg44
VPT7M21.9680007S
p5092
sa(dp5093
g47
I313138863
sg41
VWeaponDrop
p5094
sg189
I0
sg53
(lp5095
I1095363701
asg44
VPT7M24.3659985S
p5096
sg192
I0
sg193
VP0DT0H0M1.3167S
p5097
sg48
(dp5098
g50
VRammyy
p5099
sg52
Nssa(dp5100
g47
I4108759423
sg48
(dp5101
g50
VRammyy
p5102
sg52
Nssg53
(lp5103
I2758383128
asg41
VWeaponPickup
p5104
sg44
VPT7M24.3670006S
p5105
sa(dp5106
g47
I313138863
sg48
(dp5107
g50
VRNG Ninja HCS
p5108
sg52
Nssg53
(lp5109
I1095363701
asg41
VWeaponPickup
p5110
sg44
VPT7M27.1680012S
p5111
sa(dp5112
g47
I4096745987
sg48
(dp5113
g50
VRNG Ninja HCS
p5114
sg52
Nssg53
(lp5115
I2758383128
asg41
VWeaponPickup
p5116
sg44
VPT7M27.1680012S
p5117
sa(dp5118
g41
VPlayerSpawn
p5119
sg48
(dp5120
g50
VRNG Ninja HCS
p5121
sg52
Nssg44
VPT7M27.1680012S
p5122
sa(dp5123
g47
I313138863
sg48
(dp5124
g50
VCLG Frosty HCS
p5125
sg52
Nssg53
(lp5126
I1095363701
asg41
VWeaponPickup
p5127
sg44
VPT7M27.9840003S
p5128
sa(dp5129
g47
I4096745987
sg48
(dp5130
g50
VCLG Frosty HCS
p5131
sg52
Nssg53
(lp5132
I2758383128
asg41
VWeaponPickup
p5133
sg44
VPT7M27.985001S
p5134
sa(dp5135
g41
VPlayerSpawn
p5136
sg48
(dp5137
g50
VCLG Frosty HCS
p5138
sg52
Nssg44
VPT7M27.985001S
p5139
sa(dp5140
g204
I4096745987
sg205
I00
sg206
I00
sg207
(dp5141
g50
VCLG Snake Bite
p5142
sg52
Nssg210
(lp5143
I2758383128
asg212
I00
sg213
I00
sg214
I2
sg215
I0
sg216
I0
sg217
(dp5144
Vy
F7.5262646699999998
sVx
F9.2345749999999995
sVz
F1.4997987699999999
ssg219
(dp5145
Vy
F0.098516019999999996
sVx
F8.0060179999999992
sVz
F0.7132444
ssg221
I00
sg222
(dp5146
g224
g225
ssg226
(lp5147
sg228
(lp5148
sg230
I00
sg44
VPT7M28.1010002S
p5149
sg41
VDeath
p5150
sg233
I1
sa(dp5151
g204
I47178948
sg205
I00
sg206
I00
sg207
(dp5152
g50
VCLG Snake Bite
p5153
sg52
Nssg210
(lp5154
sg212
I00
sg213
I00
sg214
I2
sg215
I0
sg216
I0
sg217
(dp5155
Vy
F7.5262646699999998
sVx
F9.2345749999999995
sVz
F1.4997987699999999
ssg219
(dp5156
Vy
F0.109249257
sVx
F8.0052880000000002
sVz
F0.30531784899999997
ssg221
I00
sg222
(dp5157
g224
g225
ssg226
(lp5158
sg228
(lp5159
sg230
I00
sg44
VPT7M28.1010002S
p5160
sg41
VDeath
p5161
sg233
I1
sa(dp5162
g47
I313138863
sg41
VWeaponDrop
p5163
sg189
I0
sg53
(lp5164
I1095363701
asg44
VPT7M29.4989986S
p5165
sg192
I0
sg193
VP0DT0H0M0.5000S
p5166
sg48
(dp5167
g50
VRNG Ninja HCS
p5168
sg52
Nssa(dp5169
g47
I723388907
sg48
(dp5170
g50
VRNG Ninja HCS
p5171
sg52
Nssg53
(lp5172
I89283061
asg41
VWeaponPickup
p5173
sg44
VPT7M29.5000114S
p5174
sa(dp5175
g47
I4096745987
sg41
VWeaponDrop
p5176
sg189
I17
sg53
(lp5177
I2758383128
asg44
VPT7M32.8659991S
p5178
sg192
I10
sg193
VP0DT0H0M32.1167S
p5179
sg48
(dp5180
g50
VRNG Penguin HCS
p5181
sg52
Nssa(dp5182
g47
I4096745987
sg41
VWeaponDrop
p5183
sg189
I0
sg53
(lp5184
I2758383128
asg44
VPT7M32.8659991S
p5185
sg192
I0
sg193
VP0DT0S
p5186
sg48
(dp5187
g50
VRNG Penguin HCS
p5188
sg52
Nssa(dp5189
g47
I424645655
sg48
(dp5190
g50
VRNG Penguin HCS
p5191
sg52
Nssg53
(lp5192
I1327094800
asg41
VWeaponPickup
p5193
sg44
VPT7M32.8659991S
p5194
sa(dp5195
g204
I4106030681
sg205
I00
sg206
I00
sg207
(dp5196
g50
VRNG Commonly
p5197
sg52
Nssg210
(lp5198
sg212
I00
sg213
I01
sg214
I1
sg215
I0
sg216
I1
sg217
(dp5199
Vy
F-0.127972275
sVx
F-2.7990643999999998
sVz
F2.6818911999999999
ssg219
(dp5200
Vy
F-0.79650290000000001
sVx
F3.9640555399999999
sVz
F1.83561993
ssg221
I00
sg222
(dp5201
g50
VCLG Snake Bite
p5202
sg52
Nssg226
(lp5203
sg228
(lp5204
(dp5205
g50
VRNG Penguin HCS
p5206
sg52
Nsasg230
I00
sg44
VPT7M41.5330003S
p5207
sg41
VDeath
p5208
sg233
I1
sa(dp5209
g41
VMedal
p5210
sg48
(dp5211
g50
VRNG Commonly
p5212
sg52
Nssg330
I3698887726
sg44
VPT7M41.5340008S
p5213
sa(dp5214
g47
I313138863
sg41
VWeaponDrop
p5215
sg189
I8
sg53
(lp5216
I1095363701
asg44
VPT7M41.5350002S
p5217
sg192
I6
sg193
VP0DT0H0M3.1333S
p5218
sg48
(dp5219
g50
VCLG Snake Bite
p5220
sg52
Nssa(dp5221
g47
I4096745987
sg41
VWeaponDrop
p5222
sg189
I8
sg53
(lp5223
I2758383128
asg44
VPT7M41.5350002S
p5224
sg192
I1
sg193
VP0DT0H0M43.6833S
p5225
sg48
(dp5226
g50
VCLG Snake Bite
p5227
sg52
Nssa(dp5228
g204
I313138863
sg205
I00
sg206
I00
sg207
(dp5229
g50
VCLG Frosty HCS
p5230
sg52
Nssg210
(lp5231
I1095363701
asg212
I00
sg213
I01
sg214
I1
sg215
I0
sg216
I1
sg217
(dp5232
Vy
F14.5496988
sVx
F-2.9093005700000001
sVz
F-2.2331771900000001
ssg219
(dp5233
Vy
F8.7520659999999992
sVx
F-3.68246436
sVz
F-1.6481437699999999
ssg221
I00
sg222
(dp5234
g50
VRNG Ninja HCS
p5235
sg52
Nssg226
(lp5236
sg228
(lp5237
(dp5238
g50
VRammyy
p5239
sg52
Nsasg230
I00
sg44
VPT7M46.3499999S
p5240
sg41
VDeath
p5241
sg233
I1
sa(dp5242
g47
I723388907
sg41
VWeaponDrop
p5243
sg189
I11
sg53
(lp5244
I89283061
asg44
VPT7M46.3520008S
p5245
sg192
I0
sg193
VP0DT0H0M5.1333S
p5246
sg48
(dp5247
g50
VRNG Ninja HCS
p5248
sg52
Nssa(dp5249
g47
I4096745987
sg41
VWeaponDrop
p5250
sg189
I1
sg53
(lp5251
I2758383128
asg44
VPT7M46.3520008S
p5252
sg192
I0
sg193
VP0DT0H0M13.5500S
p5253
sg48
(dp5254
g50
VRNG Ninja HCS
p5255
sg52
Nssa(dp5256
g47
I313138863
sg48
(dp5257
g50
VCLG Snake Bite
p5258
sg52
Nssg53
(lp5259
I1095363701
asg41
VWeaponPickup
p5260
sg44
VPT7M49.5500007S
p5261
sa(dp5262
g47
I4096745987
sg48
(dp5263
g50
VCLG Snake Bite
p5264
sg52
Nssg53
(lp5265
I2758383128
asg41
VWeaponPickup
p5266
sg44
VPT7M49.5510007S
p5267
sa(dp5268
g41
VPlayerSpawn
p5269
sg48
(dp5270
g50
VCLG Snake Bite
p5271
sg52
Nssg44
VPT7M49.5510007S
p5272
sa(dp5273
g204
I4096745987
sg205
I00
sg206
I00
sg207
(dp5274
g50
VRNG Commonly
p5275
sg52
Nssg210
(lp5276
I2758383128
asg212
I00
sg213
I01
sg214
I1
sg215
I0
sg216
I1
sg217
(dp5277
Vy
F-0.124410465
sVx
F7.1308759999999998
sVz
F3.1679084300000002
ssg219
(dp5278
Vy
F5.7276534999999997
sVx
F6.1656103099999999
sVz
F-0.02842629
ssg221
I00
sg222
(dp5279
g50
VRammyy
p5280
sg52
Nssg226
(lp5281
sg228
(lp5282
sg230
I01
sg44
VPT7M50.0330002S
p5283
sg41
VDeath
p5284
sg233
I1
sa(dp5285
g41
VMedal
p5286
sg48
(dp5287
g50
VRNG Penguin HCS
p5288
sg52
Nssg330
I824733727
sg44
VPT7M50.0350091S
p5289
sa(dp5290
g41
VMedal
p5291
sg48
(dp5292
g50
VRNG Commonly
p5293
sg52
Nssg330
I3261908037
sg44
VPT7M50.0350091S
p5294
sa(dp5295
g47
I4108759423
sg41
VWeaponDrop
p5296
sg189
I19
sg53
(lp5297
I2758383128
asg44
VPT7M50.0359997S
p5298
sg192
I10
sg193
VP0DT0H0M24.5667S
p5299
sg48
(dp5300
g50
VRammyy
p5301
sg52
Nssa(dp5302
g47
I4096745987
sg41
VWeaponDrop
p5303
sg189
I0
sg53
(lp5304
I2758383128
asg44
VPT7M50.0359997S
p5305
sg192
I0
sg193
VP0DT0H0M2.1833S
p5306
sg48
(dp5307
g50
VRammyy
p5308
sg52
Nssa(dp5309
g47
I4096745987
sg41
VWeaponDrop
p5310
sg189
I0
sg53
(lp5311
I2758383128
asg44
VPT7M53.0650067S
p5312
sg192
I0
sg193
VP0DT0H0M2.8000S
p5313
sg48
(dp5314
g50
VCLG Snake Bite
p5315
sg52
Nssa(dp5316
g47
I4108759423
sg48
(dp5317
g50
VCLG Snake Bite
p5318
sg52
Nssg53
(lp5319
I2758383128
asg41
VWeaponPickup
p5320
sg44
VPT7M53.0650067S
p5321
sa(dp5322
g47
I313138863
sg48
(dp5323
g50
VRNG Ninja HCS
p5324
sg52
Nssg53
(lp5325
I1095363701
asg41
VWeaponPickup
p5326
sg44
VPT7M54.3670009S
p5327
sa(dp5328
g47
I4096745987
sg48
(dp5329
g50
VRNG Ninja HCS
p5330
sg52
Nssg53
(lp5331
I2758383128
asg41
VWeaponPickup
p5332
sg44
VPT7M54.3670009S
p5333
sa(dp5334
g41
VPlayerSpawn
p5335
sg48
(dp5336
g50
VRNG Ninja HCS
p5337
sg52
Nssg44
VPT7M54.3670009S
p5338
sa(dp5339
g204
I4108759423
sg205
I00
sg206
I00
sg207
(dp5340
g50
VCLG LethuL HCS
p5341
sg52
Nssg210
(lp5342
I2758383128
asg212
I00
sg213
I01
sg214
I1
sg215
I0
sg216
I1
sg217
(dp5343
Vy
F13.1542406
sVx
F4.3456970000000004
sVz
F2.3153715099999999
ssg219
(dp5344
Vy
F5.2786590000000002
sVx
F4.0821566599999999
sVz
F1.9693734599999999
ssg221
I00
sg222
(dp5345
g50
VRNG Commonly
p5346
sg52
Nssg226
(lp5347
sg228
(lp5348
(dp5349
g50
VCLG Frosty HCS
p5350
sg52
Nsasg230
I01
sg44
VPT7M56.1830004S
p5351
sg41
VDeath
p5352
sg233
I1
sa(dp5353
g41
VMedal
p5354
sg48
(dp5355
g50
VCLG LethuL HCS
p5356
sg52
Nssg330
I3261908037
sg44
VPT7M56.1840004S
p5357
sa(dp5358
g47
I313138863
sg41
VWeaponDrop
p5359
sg189
I0
sg53
(lp5360
I1095363701
asg44
VPT7M56.1850002S
p5361
sg192
I0
sg193
VP0DT0H0M6.7167S
p5362
sg48
(dp5363
g50
VRNG Commonly
p5364
sg52
Nssa(dp5365
g47
I4096745987
sg41
VWeaponDrop
p5366
sg189
I28
sg53
(lp5367
I2758383128
asg44
VPT7M56.1850002S
p5368
sg192
I12
sg193
VP0DT0H0M47.0833S
p5369
sg48
(dp5370
g50
VRNG Commonly
p5371
sg52
Nssa(dp5372
g47
I313138863
sg41
VWeaponDrop
p5373
sg189
I0
sg53
(lp5374
I1095363701
asg44
VPT7M56.864999S
p5375
sg192
I0
sg193
VP0DT0H0M1.2167S
p5376
sg48
(dp5377
g50
VRNG Ninja HCS
p5378
sg52
Nssa(dp5379
g47
I723388907
sg48
(dp5380
g50
VRNG Ninja HCS
p5381
sg52
Nssg53
(lp5382
I89283061
asg41
VWeaponPickup
p5383
sg44
VPT7M56.864999S
p5384
sa(dp5385
g47
I313138863
sg48
(dp5386
g50
VRammyy
p5387
sg52
Nssg53
(lp5388
I1095363701
asg41
VWeaponPickup
p5389
sg44
VPT7M58.0500016S
p5390
sa(dp5391
g47
I4096745987
sg48
(dp5392
g50
VRammyy
p5393
sg52
Nssg53
(lp5394
I2758383128
asg41
VWeaponPickup
p5395
sg44
VPT7M58.0500016S
p5396
sa(dp5397
g41
VPlayerSpawn
p5398
sg48
(dp5399
g50
VRammyy
p5400
sg52
Nssg44
VPT7M58.0500016S
p5401
sa(dp5402
g204
I424645655
sg205
I00
sg206
I00
sg207
(dp5403
g50
VRNG Penguin HCS
p5404
sg52
Nssg210
(lp5405
I1327094800
asg212
I00
sg213
I01
sg214
I1
sg215
I0
sg216
I1
sg217
(dp5406
Vy
F13.4812326
sVx
F6.6516349999999997
sVz
F1.4982566799999999
ssg219
(dp5407
Vy
F13.7175665
sVx
F3.3968241199999998
sVz
F1.8574230700000001
ssg221
I00
sg222
(dp5408
g50
VCLG LethuL HCS
p5409
sg52
Nssg226
(lp5410
sg228
(lp5411
(dp5412
g50
VRNG Commonly
p5413
sg52
Nsasg230
I00
sg44
VPT7M58.7989996S
p5414
sg41
VDeath
p5415
sg233
I1
sa(dp5416
g47
I313138863
sg41
VWeaponDrop
p5417
sg189
I0
sg53
(lp5418
I1095363701
asg44
VPT7M58.8010037S
p5419
sg192
I0
sg193
VP0DT0H0M1.2333S
p5420
sg48
(dp5421
g50
VCLG LethuL HCS
p5422
sg52
Nssa(dp5423
g47
I4108759423
sg41
VWeaponDrop
p5424
sg189
I59
sg53
(lp5425
I2758383128
asg44
VPT7M58.8010037S
p5426
sg192
I17
sg193
VP0DT0H1M29.4833S
p5427
sg48
(dp5428
g50
VCLG LethuL HCS
p5429
sg52
Nssa(dp5430
g204
I4096745987
sg205
I00
sg206
I00
sg207
(dp5431
g50
VRNG Ninja HCS
p5432
sg52
Nssg210
(lp5433
I2758383128
asg212
I00
sg213
I01
sg214
I1
sg215
I0
sg216
I1
sg217
(dp5434
Vy
F23.076574300000001
sVx
F-9.3846969999999992
sVz
F1.5033741
ssg219
(dp5435
Vy
F16.569221500000001
sVx
F6.4323997500000001
sVz
F1.8344836200000001
ssg221
I00
sg222
(dp5436
g50
VCLG Frosty HCS
p5437
sg52
Nssg226
(lp5438
sg228
(lp5439
(dp5440
g50
VRNG Penguin HCS
p5441
sg52
Nsasg230
I01
sg44
VPT8M2.6819997S
p5442
sg41
VDeath
p5443
sg233
I1
sa(dp5444
g41
VImpulse
p5445
sg48
(dp5446
g50
VRNG Ninja HCS
p5447
sg52
Nssg495
I2556889090
sg44
VPT8M2.6830002S
p5448
sa(dp5449
g41
VMedal
p5450
sg48
(dp5451
g50
VRNG Ninja HCS
p5452
sg52
Nssg330
I352859864
sg44
VPT8M2.6830002S
p5453
sa(dp5454
g41
VMedal
p5455
sg48
(dp5456
g50
VRNG Ninja HCS
p5457
sg52
Nssg330
I3261908037
sg44
VPT8M2.6840002S
p5458
sa(dp5459
g47
I313138863
sg41
VWeaponDrop
p5460
sg189
I19
sg53
(lp5461
I1095363701
asg44
VPT8M2.6850004S
p5462
sg192
I8
sg193
VP0DT0H0M9.9000S
p5463
sg48
(dp5464
g50
VCLG Frosty HCS
p5465
sg52
Nssa(dp5466
g47
I4096745987
sg41
VWeaponDrop
p5467
sg189
I11
sg53
(lp5468
I2758383128
asg44
VPT8M2.6850004S
p5469
sg192
I3
sg193
VP0DT0H0M24.8000S
p5470
sg48
(dp5471
g50
VCLG Frosty HCS
p5472
sg52
Nssa(dp5473
g204
I4108759423
sg205
I00
sg206
I00
sg207
(dp5474
g50
VCLG Snake Bite
p5475
sg52
Nssg210
(lp5476
I2758383128
asg212
I00
sg213
I01
sg214
I1
sg215
I0
sg216
I1
sg217
(dp5477
Vy
F2.27365065
sVx
F7.0736737300000003
sVz
F1.874722
ssg219
(dp5478
Vy
F13.156744
sVx
F6.2067055699999996
sVz
F-0.27489745599999998
ssg221
I00
sg222
(dp5479
g50
VRNG Penguin HCS
p5480
sg52
Nssg226
(lp5481
sg228
(lp5482
(dp5483
g50
VCLG LethuL HCS
p5484
sg52
Nsa(dp5485
g50
VCLG Frosty HCS
p5486
sg52
Nsasg230
I01
sg44
VPT8M2.9830129S
p5487
sg41
VDeath
p5488
sg233
I1
sa(dp5489
g41
VMedal
p5490
sg48
(dp5491
g50
VCLG Snake Bite
p5492
sg52
Nssg330
I3261908037
sg44
VPT8M2.9839997S
p5493
sa(dp5494
g47
I313138863
sg41
VWeaponDrop
p5495
sg189
I0
sg53
(lp5496
I1095363701
asg44
VPT8M2.9839997S
p5497
sg192
I0
sg193
VP0DT0H0M5.7500S
p5498
sg48
(dp5499
g50
VRNG Penguin HCS
p5500
sg52
Nssa(dp5501
g47
I424645655
sg41
VWeaponDrop
p5502
sg189
I36
sg53
(lp5503
I1327094800
asg44
VPT8M2.9839997S
p5504
sg192
I16
sg193
VP0DT0H0M30.1167S
p5505
sg48
(dp5506
g50
VRNG Penguin HCS
p5507
sg52
Nssa(dp5508
g47
I313138863
sg48
(dp5509
g50
VRNG Commonly
p5510
sg52
Nssg53
(lp5511
I1095363701
asg41
VWeaponPickup
p5512
sg44
VPT8M4.2000004S
p5513
sa(dp5514
g47
I4096745987
sg48
(dp5515
g50
VRNG Commonly
p5516
sg52
Nssg53
(lp5517
I2758383128
asg41
VWeaponPickup
p5518
sg44
VPT8M4.2000004S
p5519
sa(dp5520
g41
VPlayerSpawn
p5521
sg48
(dp5522
g50
VRNG Commonly
p5523
sg52
Nssg44
VPT8M4.2000004S
p5524
sa(dp5525
g47
I313138863
sg41
VWeaponDrop
p5526
sg189
I0
sg53
(lp5527
I1095363701
asg44
VPT8M4.2309984S
p5528
sg192
I0
sg193
VP0DT0H0M1.5500S
p5529
sg48
(dp5530
g50
VRammyy
p5531
sg52
Nssa(dp5532
g47
I4108759423
sg48
(dp5533
g50
VRammyy
p5534
sg52
Nssg53
(lp5535
I2758383128
asg41
VWeaponPickup
p5536
sg44
VPT8M4.2320008S
p5537
sa(dp5538
g47
I313138863
sg41
VWeaponDrop
p5539
sg189
I0
sg53
(lp5540
I1095363701
asg44
VPT8M5.8650027S
p5541
sg192
I0
sg193
VP0DT0H0M1.0333S
p5542
sg48
(dp5543
g50
VRNG Commonly
p5544
sg52
Nssa(dp5545
g47
I424645655
sg48
(dp5546
g50
VRNG Commonly
p5547
sg52
Nssg53
(lp5548
I1327094800
asg41
VWeaponPickup
p5549
sg44
VPT8M5.8650027S
p5550
sa(dp5551
g47
I313138863
sg48
(dp5552
g50
VCLG LethuL HCS
p5553
sg52
Nssg53
(lp5554
I1095363701
asg41
VWeaponPickup
p5555
sg44
VPT8M6.8170009S
p5556
sa(dp5557
g47
I4096745987
sg48
(dp5558
g50
VCLG LethuL HCS
p5559
sg52
Nssg53
(lp5560
I2758383128
asg41
VWeaponPickup
p5561
sg44
VPT8M6.8170009S
p5562
sa(dp5563
g41
VPlayerSpawn
p5564
sg48
(dp5565
g50
VCLG LethuL HCS
p5566
sg52
Nssg44
VPT8M6.8170009S
p5567
sa(dp5568
g204
I669296699
sg205
I00
sg206
I00
sg207
(dp5569
g50
VRNG Victory X
p5570
sg52
Nssg210
(lp5571
I2758383128
asg212
I00
sg213
I01
sg214
I1
sg215
I0
sg216
I1
sg217
(dp5572
Vy
F11.95622
sVx
F-12.8826733
sVz
F2.4423618299999998
ssg219
(dp5573
Vy
F9.8744335200000002
sVx
F2.7207732199999999
sVz
F1.49821424
ssg221
I00
sg222
(dp5574
g50
VRammyy
p5575
sg52
Nssg226
(lp5576
sg228
(lp5577
sg230
I01
sg44
VPT8M6.8180009S
p5578
sg41
VDeath
p5579
sg233
I1
sa(dp5580
g41
VMedal
p5581
sg48
(dp5582
g50
VRNG Victory X
p5583
sg52
Nssg330
I848240062
sg44
VPT8M6.8190006S
p5584
sa(dp5585
g47
I4108759423
sg41
VWeaponDrop
p5586
sg189
I0
sg53
(lp5587
I2758383128
asg44
VPT8M6.8200241S
p5588
sg192
I0
sg193
VP0DT0H0M2.5833S
p5589
sg48
(dp5590
g50
VRammyy
p5591
sg52
Nssa(dp5592
g47
I4096745987
sg41
VWeaponDrop
p5593
sg189
I0
sg53
(lp5594
I2758383128
asg44
VPT8M6.8200241S
p5595
sg192
I0
sg193
VP0DT0H0M4.6333S
p5596
sg48
(dp5597
g50
VRammyy
p5598
sg52
Nssa(dp5599
g47
I313138863
sg48
(dp5600
g50
VCLG Frosty HCS
p5601
sg52
Nssg53
(lp5602
I1095363701
asg41
VWeaponPickup
p5603
sg44
VPT8M10.6990007S
p5604
sa(dp5605
g47
I4096745987
sg48
(dp5606
g50
VCLG Frosty HCS
p5607
sg52
Nssg53
(lp5608
I2758383128
asg41
VWeaponPickup
p5609
sg44
VPT8M10.7000007S
p5610
sa(dp5611
g41
VPlayerSpawn
p5612
sg48
(dp5613
g50
VCLG Frosty HCS
p5614
sg52
Nssg44
VPT8M10.7000007S
p5615
sa(dp5616
g47
I313138863
sg48
(dp5617
g50
VRNG Penguin HCS
p5618
sg52
Nssg53
(lp5619
I1095363701
asg41
VWeaponPickup
p5620
sg44
VPT8M10.9990009S
p5621
sa(dp5622
g47
I4096745987
sg48
(dp5623
g50
VRNG Penguin HCS
p5624
sg52
Nssg53
(lp5625
I2758383128
asg41
VWeaponPickup
p5626
sg44
VPT8M11.0000011S
p5627
sa(dp5628
g41
VPlayerSpawn
p5629
sg48
(dp5630
g50
VRNG Penguin HCS
p5631
sg52
Nssg44
VPT8M11.0000011S
p5632
sa(dp5633
g47
I313138863
sg41
VWeaponDrop
p5634
sg189
I0
sg53
(lp5635
I1095363701
asg44
VPT8M11.4309985S
p5636
sg192
I0
sg193
VP0DT0H0M3.8000S
p5637
sg48
(dp5638
g50
VCLG LethuL HCS
p5639
sg52
Nssa(dp5640
g47
I3808094875
sg48
(dp5641
g50
VCLG LethuL HCS
p5642
sg52
Nssg53
(lp5643
I2758383128
asg41
VWeaponPickup
p5644
sg44
VPT8M11.4309985S
p5645
sa(dp5646
g47
I313138863
sg48
(dp5647
g50
VRammyy
p5648
sg52
Nssg53
(lp5649
I1095363701
asg41
VWeaponPickup
p5650
sg44
VPT8M14.8330011S
p5651
sa(dp5652
g47
I4096745987
sg48
(dp5653
g50
VRammyy
p5654
sg52
Nssg53
(lp5655
I2758383128
asg41
VWeaponPickup
p5656
sg44
VPT8M14.8330011S
p5657
sa(dp5658
g41
VPlayerSpawn
p5659
sg48
(dp5660
g50
VRammyy
p5661
sg52
Nssg44
VPT8M14.8330011S
p5662
sa(dp5663
g47
I313138863
sg41
VWeaponDrop
p5664
sg189
I0
sg53
(lp5665
I1095363701
asg44
VPT8M18.0809987S
p5666
sg192
I0
sg193
VP0DT0H0M2.2333S
p5667
sg48
(dp5668
g50
VRammyy
p5669
sg52
Nssa(dp5670
g47
I4108759423
sg48
(dp5671
g50
VRammyy
p5672
sg52
Nssg53
(lp5673
I2758383128
asg41
VWeaponPickup
p5674
sg44
VPT8M18.0809987S
p5675
sa(dp5676
g47
I313138863
sg41
VWeaponDrop
p5677
sg189
I0
sg53
(lp5678
I1095363701
asg44
VPT8M21.4309986S
p5679
sg192
I0
sg193
VP0DT0H0M1.8667S
p5680
sg48
(dp5681
g50
VRNG Penguin HCS
p5682
sg52
Nssa(dp5683
g47
I4054937266
sg48
(dp5684
g50
VRNG Penguin HCS
p5685
sg52
Nssg53
(lp5686
I2758383128
asg41
VWeaponPickupPad
p5687
sg44
VPT8M21.4309986S
p5688
sa(dp5689
g41
VMedal
p5690
sg48
(dp5691
g50
VRNG Penguin HCS
p5692
sg52
Nssg330
I2564994165
sg44
VPT8M21.4309986S
p5693
sa(dp5694
g47
I4054937266
sg48
(dp5695
g50
VRNG Penguin HCS
p5696
sg52
Nssg53
(lp5697
I2758383128
asg41
VWeaponPickup
p5698
sg44
VPT8M21.4309986S
p5699
sa(dp5700
g204
I669296699
sg205
I00
sg206
I00
sg207
(dp5701
g50
VRNG Victory X
p5702
sg52
Nssg210
(lp5703
I2758383128
asg212
I00
sg213
I01
sg214
I1
sg215
I0
sg216
I1
sg217
(dp5704
Vy
F17.951763199999998
sVx
F-10.3254757
sVz
F2.41345644
ssg219
(dp5705
Vy
F16.104776399999999
sVx
F4.6146206899999997
sVz
F1.5000036999999999
ssg221
I00
sg222
(dp5706
g50
VCLG Frosty HCS
p5707
sg52
Nssg226
(lp5708
sg228
(lp5709
(dp5710
g50
VRNG Ninja HCS
p5711
sg52
Nsasg230
I01
sg44
VPT8M22.6820003S
p5712
sg41
VDeath
p5713
sg233
I1
sa(dp5714
g41
VMedal
p5715
sg48
(dp5716
g50
VRNG Victory X
p5717
sg52
Nssg330
I848240062
sg44
VPT8M22.6840002S
p5718
sa(dp5719
g47
I313138863
sg41
VWeaponDrop
p5720
sg189
I0
sg53
(lp5721
I1095363701
asg44
VPT8M22.6840002S
p5722
sg192
I0
sg193
VP0DT0H0M2.9167S
p5723
sg48
(dp5724
g50
VCLG Frosty HCS
p5725
sg52
Nssa(dp5726
g47
I4096745987
sg41
VWeaponDrop
p5727
sg189
I1
sg53
(lp5728
I2758383128
asg44
VPT8M22.6840002S
p5729
sg192
I0
sg193
VP0DT0H0M9.0667S
p5730
sg48
(dp5731
g50
VCLG Frosty HCS
p5732
sg52
Nssa(dp5733
g204
I4096745987
sg205
I00
sg206
I00
sg207
(dp5734
g50
VRNG Ninja HCS
p5735
sg52
Nssg210
(lp5736
I2758383128
asg212
I00
sg213
I01
sg214
I1
sg215
I0
sg216
I1
sg217
(dp5737
Vy
F22.168683999999999
sVx
F-3.1203067299999998
sVz
F2.1515846299999999
ssg219
(dp5738
Vy
F22.435337100000002
sVx
F7.8395295100000002
sVz
F0.82910674799999995
ssg221
I00
sg222
(dp5739
g50
VRammyy
p5740
sg52
Nssg226
(lp5741
sg228
(lp5742
sg230
I01
sg44
VPT8M24.7149999S
p5743
sg41
VDeath
p5744
sg233
I1
sa(dp5745
g41
VImpulse
p5746
sg48
(dp5747
g50
VRNG Ninja HCS
p5748
sg52
Nssg495
I3174430457
sg44
VPT8M24.7169997S
p5749
sa(dp5750
g41
VMedal
p5751
sg48
(dp5752
g50
VRNG Ninja HCS
p5753
sg52
Nssg330
I3653057799
sg44
VPT8M24.7179995S
p5754
sa(dp5755
g47
I4108759423
sg41
VWeaponDrop
p5756
sg189
I14
sg53
(lp5757
I2758383128
asg44
VPT8M24.7290002S
p5758
sg192
I9
sg193
VP0DT0H0M6.6333S
p5759
sg48
(dp5760
g50
VRammyy
p5761
sg52
Nssa(dp5762
g47
I4096745987
sg41
VWeaponDrop
p5763
sg189
I0
sg53
(lp5764
I2758383128
asg44
VPT8M24.7290002S
p5765
sg192
I0
sg193
VP0DT0H0M1.0167S
p5766
sg48
(dp5767
g50
VRammyy
p5768
sg52
Nssa(dp5769
g204
I4096745987
sg205
I00
sg206
I00
sg207
(dp5770
g50
VCLG LethuL HCS
p5771
sg52
Nssg210
(lp5772
I2758383128
asg212
I00
sg213
I01
sg214
I1
sg215
I0
sg216
I1
sg217
(dp5773
Vy
F8.4643135100000002
sVx
F5.7872250000000003
sVz
F-0.89673084000000003
ssg219
(dp5774
Vy
F22.168683999999999
sVx
F-3.1203067299999998
sVz
F2.1515846299999999
ssg221
I00
sg222
(dp5775
g50
VRNG Ninja HCS
p5776
sg52
Nssg226
(lp5777
sg228
(lp5778
(dp5779
g50
VRammyy
p5780
sg52
Nsa(dp5781
g50
VCLG Snake Bite
p5782
sg52
Nsasg230
I01
sg44
VPT8M24.7300008S
p5783
sg41
VDeath
p5784
sg233
I1
sa(dp5785
g41
VMedal
p5786
sg48
(dp5787
g50
VCLG LethuL HCS
p5788
sg52
Nssg330
I3261908037
sg44
VPT8M24.7310007S
p5789
sa(dp5790
g47
I723388907
sg41
VWeaponDrop
p5791
sg189
I0
sg53
(lp5792
I89283061
asg44
VPT8M24.7319998S
p5793
sg192
I0
sg193
VP0DT0H0M6.9667S
p5794
sg48
(dp5795
g50
VRNG Ninja HCS
p5796
sg52
Nssa(dp5797
g47
I4096745987
sg41
VWeaponDrop
p5798
sg189
I13
sg53
(lp5799
I2758383128
asg44
VPT8M24.7319998S
p5800
sg192
I11
sg193
VP0DT0H0M22.1667S
p5801
sg48
(dp5802
g50
VRNG Ninja HCS
p5803
sg52
Nssa(dp5804
g47
I313138863
sg48
(dp5805
g50
VCLG Frosty HCS
p5806
sg52
Nssg53
(lp5807
I1095363701
asg41
VWeaponPickup
p5808
sg44
VPT8M30.699001S
p5809
sa(dp5810
g47
I4096745987
sg48
(dp5811
g50
VCLG Frosty HCS
p5812
sg52
Nssg53
(lp5813
I2758383128
asg41
VWeaponPickup
p5814
sg44
VPT8M30.699001S
p5815
sa(dp5816
g41
VPlayerSpawn
p5817
sg48
(dp5818
g50
VCLG Frosty HCS
p5819
sg52
Nssg44
VPT8M30.699001S
p5820
sa(dp5821
g47
I313138863
sg48
(dp5822
g50
VRammyy
p5823
sg52
Nssg53
(lp5824
I1095363701
asg41
VWeaponPickup
p5825
sg44
VPT8M32.7320022S
p5826
sa(dp5827
g47
I4096745987
sg48
(dp5828
g50
VRammyy
p5829
sg52
Nssg53
(lp5830
I2758383128
asg41
VWeaponPickup
p5831
sg44
VPT8M32.7320022S
p5832
sa(dp5833
g41
VPlayerSpawn
p5834
sg48
(dp5835
g50
VRammyy
p5836
sg52
Nssg44
VPT8M32.7320022S
p5837
sa(dp5838
g47
I313138863
sg48
(dp5839
g50
VRNG Ninja HCS
p5840
sg52
Nssg53
(lp5841
I1095363701
asg41
VWeaponPickup
p5842
sg44
VPT8M32.7650005S
p5843
sa(dp5844
g47
I4096745987
sg48
(dp5845
g50
VRNG Ninja HCS
p5846
sg52
Nssg53
(lp5847
I2758383128
asg41
VWeaponPickup
p5848
sg44
VPT8M32.7650005S
p5849
sa(dp5850
g41
VPlayerSpawn
p5851
sg48
(dp5852
g50
VRNG Ninja HCS
p5853
sg52
Nssg44
VPT8M32.7650005S
p5854
sa(dp5855
g47
I313138863
sg41
VWeaponDrop
p5856
sg189
I0
sg53
(lp5857
I1095363701
asg44
VPT8M35.4140004S
p5858
sg192
I0
sg193
VP0DT0H0M1.6667S
p5859
sg48
(dp5860
g50
VRammyy
p5861
sg52
Nssa(dp5862
g47
I4108759423
sg48
(dp5863
g50
VRammyy
p5864
sg52
Nssg53
(lp5865
I2758383128
asg41
VWeaponPickup
p5866
sg44
VPT8M35.4140004S
p5867
sa(dp5868
g47
I2492868984
sg48
(dp5869
g50
VRNG Ninja HCS
p5870
sg52
Nssg53
(lp5871
I2758383128
asg41
VWeaponPickup
p5872
sg44
VPT8M37.9310003S
p5873
sa(dp5874
g47
I2492868984
sg41
VWeaponDrop
p5875
sg189
I0
sg53
(lp5876
I2758383128
asg44
VPT8M39.0650067S
p5877
sg192
I0
sg193
VP0DT0H0M0.9833S
p5878
sg48
(dp5879
g50
VRNG Ninja HCS
p5880
sg52
Nssa(dp5881
g204
I4054937266
sg205
I00
sg206
I00
sg207
(dp5882
g50
VRNG Penguin HCS
p5883
sg52
Nssg210
(lp5884
I2758383128
asg212
I00
sg213
I01
sg214
I1
sg215
I0
sg216
I1
sg217
(dp5885
Vy
F11.0456257
sVx
F-0.045569510000000001
sVz
F-0.65096575000000001
ssg219
(dp5886
Vy
F10.8368454
sVx
F0.22113592900000001
sVz
F-0.89672969999999996
ssg221
I00
sg222
(dp5887
g50
VCLG LethuL HCS
p5888
sg52
Nssg226
(lp5889
sg228
(lp5890
sg230
I00
sg44
VPT8M45.1640003S
p5891
sg41
VDeath
p5892
sg233
I1
sa(dp5893
g47
I3808094875
sg41
VWeaponDrop
p5894
sg189
I8
sg53
(lp5895
I2758383128
asg44
VPT8M45.1660037S
p5896
sg192
I0
sg193
VP0DT0H0M6.9667S
p5897
sg48
(dp5898
g50
VCLG LethuL HCS
p5899
sg52
Nssa(dp5900
g47
I4096745987
sg41
VWeaponDrop
p5901
sg189
I5
sg53
(lp5902
I2758383128
asg44
VPT8M45.1660037S
p5903
sg192
I2
sg193
VP0DT0H0M27.5833S
p5904
sg48
(dp5905
g50
VCLG LethuL HCS
p5906
sg52
Nssa(dp5907
g41
VRoundEnd
p5908
sg43
I0
sg44
VPT8M45.1810003S
p5909
sassba.