ccopy_reg
_reconstructor
p1
(c__main__
match_breakdown
p2
c__builtin__
object
p3
NtRp4
(dp5
S'details'
p6
(dp7
VIsCompleteSetOfEvents
p8
I01
sVLinks
p9
(dp10
VUgcFilmManifest
p11
(dp12
VAuthenticationLifetimeExtensionSupported
p13
I00
sVQueryString
p14
V?view=film-manifest
p15
sVRetryPolicyId
p16
Vexponentialretry
p17
sVPath
p18
V/h5/films/dac6eb92-6ea2-4ea8-8e5e-d55b833c652e
p19
sVAcknowledgementTypeId
p20
I0
sVAuthorityId
p21
Vugc
p22
sVTopicName
p23
V
ssVStatsMatchDetails
p24
(dp25
g13
I00
sg14
Nsg16
Vexponentialretry
p26
sg18
Vh5/custom/matches/dac6eb92-6ea2-4ea8-8e5e-d55b833c652e
p27
sg20
I0
sg21
Vspartanstats
p28
sg23
V
sssVGameEvents
p29
(lp30
(dp31
VEventName
p32
VRoundStart
p33
sVRoundIndex
p34
I0
sVTimeSinceStart
p35
VPT0.3150037S
p36
sa(dp37
VWeaponStockId
p38
I313138863
sVPlayer
p39
(dp40
VGamertag
p41
VTL Assault HCS
p42
sVXuid
p43
NssVWeaponAttachmentIds
p44
(lp45
I1095363701
asg32
VWeaponPickup
p46
sg35
VPT17.4781129S
p47
sa(dp48
g38
I4096745987
sg39
(dp49
g41
VTL Assault HCS
p50
sg43
Nssg44
(lp51
I2758383128
asg32
VWeaponPickup
p52
sg35
VPT17.479113S
p53
sa(dp54
g32
VPlayerSpawn
p55
sg39
(dp56
g41
VTL Assault HCS
p57
sg43
Nssg35
VPT17.479113S
p58
sa(dp59
g38
I313138863
sg39
(dp60
g41
VEG Roy HCS
p61
sg43
Nssg44
(lp62
I1095363701
asg32
VWeaponPickup
p63
sg35
VPT17.498113S
p64
sa(dp65
g38
I4096745987
sg39
(dp66
g41
VEG Roy HCS
p67
sg43
Nssg44
(lp68
I2758383128
asg32
VWeaponPickup
p69
sg35
VPT17.498113S
p70
sa(dp71
g32
VPlayerSpawn
p72
sg39
(dp73
g41
VEG Roy HCS
p74
sg43
Nssg35
VPT17.498113S
p75
sa(dp76
g38
I313138863
sg39
(dp77
g41
VTL Spartan HCS
p78
sg43
Nssg44
(lp79
I1095363701
asg32
VWeaponPickup
p80
sg35
VPT17.5091129S
p81
sa(dp82
g38
I4096745987
sg39
(dp83
g41
VTL Spartan HCS
p84
sg43
Nssg44
(lp85
I2758383128
asg32
VWeaponPickup
p86
sg35
VPT17.5162325S
p87
sa(dp88
g32
VPlayerSpawn
p89
sg39
(dp90
g41
VTL Spartan HCS
p91
sg43
Nssg35
VPT17.5162999S
p92
sa(dp93
g38
I313138863
sg39
(dp94
g41
VTL StelluR
p95
sg43
Nssg44
(lp96
I1095363701
asg32
VWeaponPickup
p97
sg35
VPT17.5271121S
p98
sa(dp99
g38
I4096745987
sg39
(dp100
g41
VTL StelluR
p101
sg43
Nssg44
(lp102
I2758383128
asg32
VWeaponPickup
p103
sg35
VPT17.5281136S
p104
sa(dp105
g32
VPlayerSpawn
p106
sg39
(dp107
g41
VTL StelluR
p108
sg43
Nssg35
VPT17.5281136S
p109
sa(dp110
g38
I313138863
sg39
(dp111
g41
VEG Lunchbox HCS
p112
sg43
Nssg44
(lp113
I1095363701
asg32
VWeaponPickup
p114
sg35
VPT17.5471129S
p115
sa(dp116
g38
I4096745987
sg39
(dp117
g41
VEG Lunchbox HCS
p118
sg43
Nssg44
(lp119
I2758383128
asg32
VWeaponPickup
p120
sg35
VPT17.5481134S
p121
sa(dp122
g32
VPlayerSpawn
p123
sg39
(dp124
g41
VEG Lunchbox HCS
p125
sg43
Nssg35
VPT17.5481134S
p126
sa(dp127
g38
I313138863
sg39
(dp128
g41
VTL Eco HCS
p129
sg43
Nssg44
(lp130
I1095363701
asg32
VWeaponPickup
p131
sg35
VPT17.5601137S
p132
sa(dp133
g38
I4096745987
sg39
(dp134
g41
VTL Eco HCS
p135
sg43
Nssg44
(lp136
I2758383128
asg32
VWeaponPickup
p137
sg35
VPT17.5671169S
p138
sa(dp139
g32
VPlayerSpawn
p140
sg39
(dp141
g41
VTL Eco HCS
p142
sg43
Nssg35
VPT17.5671821S
p143
sa(dp144
g38
I313138863
sg39
(dp145
g41
VEG Snip3downHCS
p146
sg43
Nssg44
(lp147
I1095363701
asg32
VWeaponPickup
p148
sg35
VPT17.5781136S
p149
sa(dp150
g38
I4096745987
sg39
(dp151
g41
VEG Snip3downHCS
p152
sg43
Nssg44
(lp153
I2758383128
asg32
VWeaponPickup
p154
sg35
VPT17.5781136S
p155
sa(dp156
g32
VPlayerSpawn
p157
sg39
(dp158
g41
VEG Snip3downHCS
p159
sg43
Nssg35
VPT17.5791136S
p160
sa(dp161
g38
I313138863
sg39
(dp162
g41
VEG SuspectorHCS
p163
sg43
Nssg44
(lp164
I1095363701
asg32
VWeaponPickup
p165
sg35
VPT17.5981137S
p166
sa(dp167
g38
I4096745987
sg39
(dp168
g41
VEG SuspectorHCS
p169
sg43
Nssg44
(lp170
I2758383128
asg32
VWeaponPickup
p171
sg35
VPT17.5981137S
p172
sa(dp173
g32
VPlayerSpawn
p174
sg39
(dp175
g41
VEG SuspectorHCS
p176
sg43
Nssg35
VPT17.5981137S
p177
sa(dp178
g38
I4096745987
sg32
VWeaponDrop
p179
sVShotsFired
p180
I0
sg44
(lp181
I2758383128
asg35
VPT19.2131453S
p182
sVShotsLanded
p183
I0
sVTimeWeaponActiveAsPrimary
p184
VP0DT0H0M0.7667S
p185
sg39
(dp186
g41
VEG Lunchbox HCS
p187
sg43
Nssa(dp188
g38
I2511447508
sg39
(dp189
g41
VEG Lunchbox HCS
p190
sg43
Nssg44
(lp191
I2758383128
asg32
VWeaponPickup
p192
sg35
VPT19.2132787S
p193
sa(dp194
g38
I4096745987
sg32
VWeaponDrop
p195
sg180
I0
sg44
(lp196
I2758383128
asg35
VPT21.0272073S
p197
sg183
I0
sg184
VP0DT0H0M2.7000S
p198
sg39
(dp199
g41
VTL Assault HCS
p200
sg43
Nssa(dp201
g38
I424645655
sg39
(dp202
g41
VTL Assault HCS
p203
sg43
Nssg44
(lp204
I1327094800
asg32
VWeaponPickup
p205
sg35
VPT21.0272073S
p206
sa(dp207
g38
I4096745987
sg32
VWeaponDrop
p208
sg180
I0
sg44
(lp209
I2758383128
asg35
VPT21.1581339S
p210
sg183
I0
sg184
VP0DT0H0M2.2167S
p211
sg39
(dp212
g41
VEG SuspectorHCS
p213
sg43
Nssa(dp214
g38
I424645655
sg39
(dp215
g41
VEG SuspectorHCS
p216
sg43
Nssg44
(lp217
I1327094800
asg32
VWeaponPickup
p218
sg35
VPT21.1581339S
p219
sa(dp220
g38
I313138863
sg32
VWeaponDrop
p221
sg180
I0
sg44
(lp222
I1095363701
asg35
VPT21.308135S
p223
sg183
I0
sg184
VP0DT0H0M3.7500S
p224
sg39
(dp225
g41
VTL Eco HCS
p226
sg43
Nssa(dp227
g38
I2511447508
sg39
(dp228
g41
VTL Eco HCS
p229
sg43
Nssg44
(lp230
I2758383128
asg32
VWeaponPickup
p231
sg35
VPT21.308135S
p232
sa(dp233
VKillerWeaponStockId
p234
I4096745987
sVIsAssassination
p235
I00
sVIsMelee
p236
I00
sVKiller
p237
(dp238
g41
VTL StelluR
p239
sg43
NssVKillerWeaponAttachmentIds
p240
(lp241
I2758383128
asVIsGroundPound
p242
I00
sVIsWeapon
p243
I01
sVDeathDisposition
p244
I1
sVVictimStockId
p245
I0
sVVictimAgent
p246
I1
sVKillerWorldLocation
p247
(dp248
Vy
F-2.8147929999999999
sVx
F6.2044189999999997
sVz
F-0.104468226
ssVVictimWorldLocation
p249
(dp250
Vy
F-11.1453772
sVx
F4.356732
sVz
F1.0044212299999999
ssVIsShoulderBash
p251
I00
sVVictim
p252
(dp253
g41
VEG Lunchbox HCS
p254
sg43
NssVVictimAttachmentIds
p255
(lp256
sVAssistants
p257
(lp258
sVIsHeadshot
p259
I01
sg35
VPT27.0172496S
p260
sg32
VDeath
p261
sVKillerAgent
p262
I1
sa(dp263
g32
VMedal
p264
sg39
(dp265
g41
VTL StelluR
p266
sg43
NssVMedalId
p267
I2838259753
sg35
VPT27.0269068S
p268
sa(dp269
g32
VImpulse
p270
sg39
(dp271
g41
VTL StelluR
p272
sg43
NssVImpulseId
p273
I2556889090
sg35
VPT27.0269734S
p274
sa(dp275
g32
VMedal
p276
sg39
(dp277
g41
VTL Assault HCS
p278
sg43
Nssg267
I824733727
sg35
VPT27.0271713S
p279
sa(dp280
g32
VMedal
p281
sg39
(dp282
g41
VTL StelluR
p283
sg43
Nssg267
I3261908037
sg35
VPT27.0381735S
p284
sa(dp285
g32
VMedal
p286
sg39
(dp287
g41
VTL StelluR
p288
sg43
Nssg267
I3001183151
sg35
VPT27.0391739S
p289
sa(dp290
g38
I313138863
sg32
VWeaponDrop
p291
sg180
I0
sg44
(lp292
I1095363701
asg35
VPT27.0491736S
p293
sg183
I0
sg184
VP0DT0H0M0.9000S
p294
sg39
(dp295
g41
VEG Lunchbox HCS
p296
sg43
Nssa(dp297
g38
I2511447508
sg32
VWeaponDrop
p298
sg180
I0
sg44
(lp299
I2758383128
asg35
VPT27.0491736S
p300
sg183
I0
sg184
VP0DT0H0M7.8000S
p301
sg39
(dp302
g41
VEG Lunchbox HCS
p303
sg43
Nssa(dp304
g38
I2492868984
sg39
(dp305
g41
VTL Spartan HCS
p306
sg43
Nssg44
(lp307
I2758383128
asg32
VWeaponPickup
p308
sg35
VPT27.443174S
p309
sa(dp310
g38
I2492868984
sg32
VWeaponDrop
p311
sg180
I0
sg44
(lp312
I2758383128
asg35
VPT28.5961841S
p313
sg183
I0
sg184
VP0DT0H0M0.9833S
p314
sg39
(dp315
g41
VTL Spartan HCS
p316
sg43
Nssa(dp317
g38
I313138863
sg32
VWeaponDrop
p318
sg180
I0
sg44
(lp319
I1095363701
asg35
VPT29.0640157S
p320
sg183
I0
sg184
VP0DT0H0M4.4833S
p321
sg39
(dp322
g41
VEG Roy HCS
p323
sg43
Nssa(dp324
g38
I3682788176
sg39
(dp325
g41
VEG Roy HCS
p326
sg43
Nssg44
(lp327
I2758383128
asg32
VWeaponPickupPad
p328
sg35
VPT29.0641864S
p329
sa(dp330
g38
I3682788176
sg39
(dp331
g41
VEG Roy HCS
p332
sg43
Nssg44
(lp333
I2758383128
asg32
VWeaponPickup
p334
sg35
VPT29.0651877S
p335
sa(dp336
g234
I4096745987
sg235
I00
sg236
I00
sg237
(dp337
g41
VTL StelluR
p338
sg43
Nssg240
(lp339
I2758383128
asg242
I00
sg243
I01
sg244
I1
sg245
I0
sg246
I1
sg247
(dp340
Vy
F-8.5623299999999993
sVx
F0.98951769999999994
sVz
F0.19656109999999999
ssg249
(dp341
Vy
F-1.00568974
sVx
F0.65749305499999999
sVz
F0.94865080000000002
ssg251
I00
sg252
(dp342
g41
VEG Roy HCS
p343
sg43
Nssg255
(lp344
sg257
(lp345
sg259
I01
sg35
VPT34.097219S
p346
sg32
VDeath
p347
sg262
I1
sa(dp348
g32
VMedal
p349
sg39
(dp350
g41
VTL StelluR
p351
sg43
Nssg267
I3261908037
sg35
VPT34.0992186S
p352
sa(dp353
g38
I3682788176
sg32
VWeaponDrop
p354
sg180
I1
sg44
(lp355
I2758383128
asg35
VPT34.1057333S
p356
sg183
I0
sg184
VP0DT0H0M5.0333S
p357
sg39
(dp358
g41
VEG Roy HCS
p359
sg43
Nssa(dp360
g38
I4096745987
sg32
VWeaponDrop
p361
sg180
I0
sg44
(lp362
I2758383128
asg35
VPT34.1057333S
p363
sg183
I0
sg184
VP0DT0H0M7.0833S
p364
sg39
(dp365
g41
VEG Roy HCS
p366
sg43
Nssa(dp367
g234
I3682788176
sg235
I00
sg236
I00
sg237
(dp368
g41
VEG Roy HCS
p369
sg43
Nssg240
(lp370
I2758383128
asg242
I00
sg243
I01
sg244
I1
sg245
I0
sg246
I1
sg247
(dp371
Vy
F-1.00568974
sVx
F0.65749305499999999
sVz
F0.94865080000000002
ssg249
(dp372
Vy
F-8.5623299999999993
sVx
F0.98951769999999994
sVz
F0.19656109999999999
ssg251
I00
sg252
(dp373
g41
VTL StelluR
p374
sg43
Nssg255
(lp375
sg257
(lp376
sg259
I00
sg35
VPT34.106229S
p377
sg32
VDeath
p378
sg262
I1
sa(dp379
g38
I313138863
sg32
VWeaponDrop
p380
sg180
I0
sg44
(lp381
I1095363701
asg35
VPT34.1072195S
p382
sg183
I0
sg184
VP0DT0H0M1.9833S
p383
sg39
(dp384
g41
VTL StelluR
p385
sg43
Nssa(dp386
g38
I4096745987
sg32
VWeaponDrop
p387
sg180
I11
sg44
(lp388
I2758383128
asg35
VPT34.1072195S
p389
sg183
I9
sg184
VP0DT0H0M14.5833S
p390
sg39
(dp391
g41
VTL StelluR
p392
sg43
Nssa(dp393
g234
I424645655
sg235
I00
sg236
I00
sg237
(dp394
g41
VEG SuspectorHCS
p395
sg43
Nssg240
(lp396
I1327094800
asg242
I00
sg243
I01
sg244
I1
sg245
I0
sg246
I1
sg247
(dp397
Vy
F2.3478846500000001
sVx
F0.140549481
sVz
F3.2792003200000002
ssg249
(dp398
Vy
F14.691265100000001
sVx
F-0.78319050000000001
sVz
F1.48472428
ssg251
I00
sg252
(dp399
g41
VTL Eco HCS
p400
sg43
Nssg255
(lp401
sg257
(lp402
sg259
I01
sg35
VPT34.661222S
p403
sg32
VDeath
p404
sg262
I1
sa(dp405
g32
VMedal
p406
sg39
(dp407
g41
VEG SuspectorHCS
p408
sg43
Nssg267
I3261908037
sg35
VPT34.6632223S
p409
sa(dp410
g38
I2511447508
sg32
VWeaponDrop
p411
sg180
I6
sg44
(lp412
I2758383128
asg35
VPT34.6642224S
p413
sg183
I4
sg184
VP0DT0H0M13.3500S
p414
sg39
(dp415
g41
VTL Eco HCS
p416
sg43
Nssa(dp417
g38
I313138863
sg39
(dp418
g41
VEG Lunchbox HCS
p419
sg43
Nssg44
(lp420
I1095363701
asg32
VWeaponPickup
p421
sg35
VPT35.0322262S
p422
sa(dp423
g38
I4096745987
sg39
(dp424
g41
VEG Lunchbox HCS
p425
sg43
Nssg44
(lp426
I2758383128
asg32
VWeaponPickup
p427
sg35
VPT35.0322262S
p428
sa(dp429
g32
VPlayerSpawn
p430
sg39
(dp431
g41
VEG Lunchbox HCS
p432
sg43
Nssg35
VPT35.0322262S
p433
sa(dp434
g38
I313138863
sg32
VWeaponDrop
p435
sg180
I6
sg44
(lp436
I1095363701
asg35
VPT35.2412268S
p437
sg183
I0
sg184
VP0DT0H0M8.3000S
p438
sg39
(dp439
g41
VTL Spartan HCS
p440
sg43
Nssa(dp441
g38
I3682788176
sg39
(dp442
g41
VTL Spartan HCS
p443
sg43
Nssg44
(lp444
I2758383128
asg32
VWeaponPickup
p445
sg35
VPT35.2412268S
p446
sa(dp447
g32
VMedal
p448
sg39
(dp449
g41
VEG SuspectorHCS
p450
sg43
Nssg267
I3400287617
sg35
VPT40.1113607S
p451
sa(dp452
g234
I4096745987
sg235
I00
sg236
I00
sg237
(dp453
g41
VEG Lunchbox HCS
p454
sg43
Nssg240
(lp455
I2758383128
asg242
I00
sg243
I01
sg244
I1
sg245
I0
sg246
I1
sg247
(dp456
Vy
F-12.502853399999999
sVx
F-11.9140339
sVz
F0.60005444299999999
ssg249
(dp457
Vy
F-16.673906299999999
sVx
F2.16726851
sVz
F0.59996300000000002
ssg251
I00
sg252
(dp458
g41
VTL Assault HCS
p459
sg43
Nssg255
(lp460
sg257
(lp461
(dp462
g41
VEG Snip3downHCS
p463
sg43
Nsasg259
I00
sg35
VPT41.3752655S
p464
sg32
VDeath
p465
sg262
I1
sa(dp466
g32
VMedal
p467
sg39
(dp468
g41
VEG SuspectorHCS
p469
sg43
Nssg267
I824733727
sg35
VPT41.3752655S
p470
sa(dp471
g38
I313138863
sg32
VWeaponDrop
p472
sg180
I0
sg44
(lp473
I1095363701
asg35
VPT41.3836942S
p474
sg183
I0
sg184
VP0DT0H0M0.8500S
p475
sg39
(dp476
g41
VTL Assault HCS
p477
sg43
Nssa(dp478
g38
I424645655
sg32
VWeaponDrop
p479
sg180
I24
sg44
(lp480
I1327094800
asg35
VPT41.3836942S
p481
sg183
I10
sg184
VP0DT0H0M20.3500S
p482
sg39
(dp483
g41
VTL Assault HCS
p484
sg43
Nssa(dp485
g38
I313138863
sg39
(dp486
g41
VEG Roy HCS
p487
sg43
Nssg44
(lp488
I1095363701
asg32
VWeaponPickup
p489
sg35
VPT42.1122716S
p490
sa(dp491
g38
I4096745987
sg39
(dp492
g41
VEG Roy HCS
p493
sg43
Nssg44
(lp494
I2758383128
asg32
VWeaponPickup
p495
sg35
VPT42.1132717S
p496
sa(dp497
g32
VPlayerSpawn
p498
sg39
(dp499
g41
VEG Roy HCS
p500
sg43
Nssg35
VPT42.1132717S
p501
sa(dp502
g38
I313138863
sg39
(dp503
g41
VTL StelluR
p504
sg43
Nssg44
(lp505
I1095363701
asg32
VWeaponPickup
p506
sg35
VPT42.1422718S
p507
sa(dp508
g38
I4096745987
sg39
(dp509
g41
VTL StelluR
p510
sg43
Nssg44
(lp511
I2758383128
asg32
VWeaponPickup
p512
sg35
VPT42.1432714S
p513
sa(dp514
g32
VPlayerSpawn
p515
sg39
(dp516
g41
VTL StelluR
p517
sg43
Nssg35
VPT42.1432714S
p518
sa(dp519
g38
I313138863
sg39
(dp520
g41
VTL Eco HCS
p521
sg43
Nssg44
(lp522
I1095363701
asg32
VWeaponPickup
p523
sg35
VPT42.6802748S
p524
sa(dp525
g38
I4096745987
sg39
(dp526
g41
VTL Eco HCS
p527
sg43
Nssg44
(lp528
I2758383128
asg32
VWeaponPickup
p529
sg35
VPT42.6812748S
p530
sa(dp531
g32
VPlayerSpawn
p532
sg39
(dp533
g41
VTL Eco HCS
p534
sg43
Nssg35
VPT42.6812748S
p535
sa(dp536
g38
I313138863
sg32
VWeaponDrop
p537
sg180
I0
sg44
(lp538
I1095363701
asg35
VPT45.0402867S
p539
sg183
I0
sg184
VP0DT0H0M1.2833S
p540
sg39
(dp541
g41
VTL Eco HCS
p542
sg43
Nssa(dp543
g38
I2511447508
sg39
(dp544
g41
VTL Eco HCS
p545
sg43
Nssg44
(lp546
I2758383128
asg32
VWeaponPickup
p547
sg35
VPT45.0402867S
p548
sa(dp549
g38
I4096745987
sg32
VWeaponDrop
p550
sg180
I5
sg44
(lp551
I2758383128
asg35
VPT45.9232927S
p552
sg183
I3
sg184
VP0DT0H0M9.9500S
p553
sg39
(dp554
g41
VEG Lunchbox HCS
p555
sg43
Nssa(dp556
g38
I2511447508
sg39
(dp557
g41
VEG Lunchbox HCS
p558
sg43
Nssg44
(lp559
I2758383128
asg32
VWeaponPickup
p560
sg35
VPT45.9242965S
p561
sa(dp562
g38
I313138863
sg39
(dp563
g41
VTL Assault HCS
p564
sg43
Nssg44
(lp565
I1095363701
asg32
VWeaponPickup
p566
sg35
VPT49.5293186S
p567
sa(dp568
g38
I4096745987
sg39
(dp569
g41
VTL Assault HCS
p570
sg43
Nssg44
(lp571
I2758383128
asg32
VWeaponPickup
p572
sg35
VPT49.5293186S
p573
sa(dp574
g32
VPlayerSpawn
p575
sg39
(dp576
g41
VTL Assault HCS
p577
sg43
Nssg35
VPT49.5293186S
p578
sa(dp579
g234
I3682788176
sg235
I00
sg236
I00
sg237
(dp580
g41
VTL Spartan HCS
p581
sg43
Nssg240
(lp582
I2758383128
asg242
I00
sg243
I01
sg244
I1
sg245
I0
sg246
I1
sg247
(dp583
Vy
F-4.5937395099999998
sVx
F-0.87738096700000001
sVz
F0.84281665100000003
ssg249
(dp584
Vy
F-10.8512621
sVx
F-3.317183
sVz
F0.79293150000000001
ssg251
I00
sg252
(dp585
g41
VEG Roy HCS
p586
sg43
Nssg255
(lp587
sg257
(lp588
(dp589
g41
VTL Eco HCS
p590
sg43
Nsasg259
I00
sg35
VPT56.2943611S
p591
sg32
VDeath
p592
sg262
I1
sa(dp593
g38
I313138863
sg32
VWeaponDrop
p594
sg180
I0
sg44
(lp595
I1095363701
asg35
VPT56.2953608S
p596
sg183
I0
sg184
VP0DT0H0M0.8833S
p597
sg39
(dp598
g41
VEG Roy HCS
p599
sg43
Nssa(dp600
g38
I4096745987
sg32
VWeaponDrop
p601
sg180
I1
sg44
(lp602
I2758383128
asg35
VPT56.2953608S
p603
sg183
I1
sg184
VP0DT0H0M13.1667S
p604
sg39
(dp605
g41
VEG Roy HCS
p606
sg43
Nssa(dp607
g234
I313138863
sg235
I00
sg236
I00
sg237
(dp608
g41
VTL StelluR
p609
sg43
Nssg240
(lp610
I1095363701
asg242
I00
sg243
I01
sg244
I1
sg245
I0
sg246
I1
sg247
(dp611
Vy
F-0.34302753200000002
sVx
F18.365423199999999
sVz
F2.1687846199999998
ssg249
(dp612
Vy
F-0.85201629999999995
sVx
F13.973855
sVz
F1.3998062600000001
ssg251
I00
sg252
(dp613
g41
VEG SuspectorHCS
p614
sg43
Nssg255
(lp615
sg257
(lp616
(dp617
g41
VTL Assault HCS
p618
sg43
Nsasg259
I00
sg35
VPT58.3463741S
p619
sg32
VDeath
p620
sg262
I1
sa(dp621
g38
I313138863
sg32
VWeaponDrop
p622
sg180
I0
sg44
(lp623
I1095363701
asg35
VPT58.3549488S
p624
sg183
I0
sg184
VP0DT0H0M2.8667S
p625
sg39
(dp626
g41
VEG SuspectorHCS
p627
sg43
Nssa(dp628
g38
I424645655
sg32
VWeaponDrop
p629
sg180
I33
sg44
(lp630
I1327094800
asg35
VPT58.355375S
p631
sg183
I18
sg184
VP0DT0H0M35.5333S
p632
sg39
(dp633
g41
VEG SuspectorHCS
p634
sg43
Nssa(dp635
g38
I4096745987
sg32
VWeaponDrop
p636
sg180
I4
sg44
(lp637
I2758383128
asg35
VPT1M0.8571277S
p638
sg183
I1
sg184
VP0DT0H0M14.6333S
p639
sg39
(dp640
g41
VTL StelluR
p641
sg43
Nssa(dp642
g38
I424645655
sg39
(dp643
g41
VTL StelluR
p644
sg43
Nssg44
(lp645
I1327094800
asg32
VWeaponPickup
p646
sg35
VPT1M0.857391S
p647
sa(dp648
g38
I2244200496
sg39
(dp649
g41
VTL Spartan HCS
p650
sg43
Nssg44
(lp651
I2758383128
asg32
VWeaponPickup
p652
sg35
VPT1M2.9294019S
p653
sa(dp654
g32
VImpulse
p655
sg39
(dp656
g41
VTL Spartan HCS
p657
sg43
Nssg273
I4191318012
sg35
VPT1M2.9894035S
p658
sa(dp659
g32
VImpulse
p660
sg39
(dp661
g41
VTL Spartan HCS
p662
sg43
Nssg273
I1039658009
sg35
VPT1M2.9904041S
p663
sa(dp664
g38
I313138863
sg39
(dp665
g41
VEG Roy HCS
p666
sg43
Nssg44
(lp667
I1095363701
asg32
VWeaponPickup
p668
sg35
VPT1M4.3764138S
p669
sa(dp670
g38
I4096745987
sg39
(dp671
g41
VEG Roy HCS
p672
sg43
Nssg44
(lp673
I2758383128
asg32
VWeaponPickup
p674
sg35
VPT1M4.3774133S
p675
sa(dp676
g32
VPlayerSpawn
p677
sg39
(dp678
g41
VEG Roy HCS
p679
sg43
Nssg35
VPT1M4.3774133S
p680
sa(dp681
g38
I2244200496
sg32
VWeaponDrop
p682
sg180
I0
sg44
(lp683
I2758383128
asg35
VPT1M4.9754973S
p684
sg183
I0
sg184
VP0DT0H0M1.8167S
p685
sg39
(dp686
g41
VTL Spartan HCS
p687
sg43
Nssa(dp688
g32
VImpulse
p689
sg39
(dp690
g41
VTL Spartan HCS
p691
sg43
Nssg273
I3435524855
sg35
VPT1M5.008418S
p692
sa(dp693
g38
I313138863
sg39
(dp694
g41
VEG SuspectorHCS
p695
sg43
Nssg44
(lp696
I1095363701
asg32
VWeaponPickup
p697
sg35
VPT1M6.4634257S
p698
sa(dp699
g38
I4096745987
sg39
(dp700
g41
VEG SuspectorHCS
p701
sg43
Nssg44
(lp702
I2758383128
asg32
VWeaponPickup
p703
sg35
VPT1M6.464426S
p704
sa(dp705
g32
VPlayerSpawn
p706
sg39
(dp707
g41
VEG SuspectorHCS
p708
sg43
Nssg35
VPT1M6.464426S
p709
sa(dp710
g234
I3682788176
sg235
I00
sg236
I00
sg237
(dp711
g41
VTL Spartan HCS
p712
sg43
Nssg240
(lp713
I2758383128
asg242
I00
sg243
I01
sg244
I1
sg245
I0
sg246
I1
sg247
(dp714
Vy
F-10.670438799999999
sVx
F-7.1174840000000001
sVz
F0.60350490000000001
ssg249
(dp715
Vy
F-14.3098192
sVx
F-3.9252927299999998
sVz
F0.59902480000000002
ssg251
I00
sg252
(dp716
g41
VEG Roy HCS
p717
sg43
Nssg255
(lp718
sg257
(lp719
sg259
I01
sg35
VPT1M7.1794311S
p720
sg32
VDeath
p721
sg262
I1
sa(dp722
g38
I313138863
sg32
VWeaponDrop
p723
sg180
I0
sg44
(lp724
I1095363701
asg35
VPT1M7.1804305S
p725
sg183
I0
sg184
VP0DT0H0M0.7833S
p726
sg39
(dp727
g41
VEG Roy HCS
p728
sg43
Nssa(dp729
g38
I4096745987
sg32
VWeaponDrop
p730
sg180
I1
sg44
(lp731
I2758383128
asg35
VPT1M7.1804305S
p732
sg183
I0
sg184
VP0DT0H0M1.9833S
p733
sg39
(dp734
g41
VEG Roy HCS
p735
sg43
Nssa(dp736
g234
I313138863
sg235
I00
sg236
I00
sg237
(dp737
g41
VTL Assault HCS
p738
sg43
Nssg240
(lp739
I1095363701
asg242
I00
sg243
I01
sg244
I1
sg245
I0
sg246
I1
sg247
(dp740
Vy
F6.3458059999999996
sVx
F-6.9489145299999997
sVz
F0.13714393999999999
ssg249
(dp741
Vy
F3.9308946100000002
sVx
F-4.6847219999999998
sVz
F0.047189533700000001
ssg251
I00
sg252
(dp742
g41
VEG Snip3downHCS
p743
sg43
Nssg255
(lp744
sg257
(lp745
sg259
I00
sg35
VPT1M10.8954543S
p746
sg32
VDeath
p747
sg262
I1
sa(dp748
g38
I313138863
sg32
VWeaponDrop
p749
sg180
I2
sg44
(lp750
I1095363701
asg35
VPT1M10.9054542S
p751
sg183
I2
sg184
VP0DT0H0M2.0333S
p752
sg39
(dp753
g41
VEG Snip3downHCS
p754
sg43
Nssa(dp755
g38
I4096745987
sg32
VWeaponDrop
p756
sg180
I25
sg44
(lp757
I2758383128
asg35
VPT1M10.9054542S
p758
sg183
I10
sg184
VP0DT0H0M51.0500S
p759
sg39
(dp760
g41
VEG Snip3downHCS
p761
sg43
Nssa(dp762
g234
I424645655
sg235
I00
sg236
I00
sg237
(dp763
g41
VTL StelluR
p764
sg43
Nssg240
(lp765
I1327094800
asg242
I00
sg243
I01
sg244
I1
sg245
I0
sg246
I1
sg247
(dp766
Vy
F5.0094003699999998
sVx
F-2.8400500000000002
sVz
F4.0560174
ssg249
(dp767
Vy
F-1.04663062
sVx
F-5.9135059999999999
sVz
F-0.59999950000000002
ssg251
I00
sg252
(dp768
g41
VEG Lunchbox HCS
p769
sg43
Nssg255
(lp770
sg257
(lp771
(dp772
g41
VTL Spartan HCS
p773
sg43
Nsasg259
I01
sg35
VPT1M11.147492S
p774
sg32
VDeath
p775
sg262
I1
sa(dp776
g32
VMedal
p777
sg39
(dp778
g41
VTL StelluR
p779
sg43
Nssg267
I2838259753
sg35
VPT1M11.1476242S
p780
sa(dp781
g32
VImpulse
p782
sg39
(dp783
g41
VTL StelluR
p784
sg43
Nssg273
I2556889090
sg35
VPT1M11.1476242S
p785
sa(dp786
g32
VMedal
p787
sg39
(dp788
g41
VTL StelluR
p789
sg43
Nssg267
I3261908037
sg35
VPT1M11.1484553S
p790
sa(dp791
g38
I313138863
sg32
VWeaponDrop
p792
sg180
I0
sg44
(lp793
I1095363701
asg35
VPT1M11.1494555S
p794
sg183
I0
sg184
VP0DT0H0M0.8167S
p795
sg39
(dp796
g41
VEG Lunchbox HCS
p797
sg43
Nssa(dp798
g38
I2511447508
sg32
VWeaponDrop
p799
sg180
I5
sg44
(lp800
I2758383128
asg35
VPT1M11.1494555S
p801
sg183
I3
sg184
VP0DT0H0M25.1167S
p802
sg39
(dp803
g41
VEG Lunchbox HCS
p804
sg43
Nssa(dp805
g38
I4096745987
sg32
VWeaponDrop
p806
sg180
I5
sg44
(lp807
I2758383128
asg35
VPT1M11.1894542S
p808
sg183
I2
sg184
VP0DT0H0M4.0667S
p809
sg39
(dp810
g41
VEG SuspectorHCS
p811
sg43
Nssa(dp812
g38
I424645655
sg39
(dp813
g41
VEG SuspectorHCS
p814
sg43
Nssg44
(lp815
I1327094800
asg32
VWeaponPickup
p816
sg35
VPT1M11.1894542S
p817
sa(dp818
g234
I4106030681
sg235
I00
sg236
I00
sg237
(dp819
g41
VEG SuspectorHCS
p820
sg43
Nssg240
(lp821
sg242
I00
sg243
I01
sg244
I1
sg245
I0
sg246
I1
sg247
(dp822
Vy
F-7.88668966
sVx
F-12.5637159
sVz
F1.8775463100000001e-06
ssg249
(dp823
Vy
F-5.39790964
sVx
F-3.6307434999999999
sVz
F0.78271246000000005
ssg251
I00
sg252
(dp824
g41
VTL Spartan HCS
p825
sg43
Nssg255
(lp826
sg257
(lp827
(dp828
g41
VEG Lunchbox HCS
p829
sg43
Nsasg259
I00
sg35
VPT1M14.1084759S
p830
sg32
VDeath
p831
sg262
I1
sa(dp832
g38
I3682788176
sg32
VWeaponDrop
p833
sg180
I4
sg44
(lp834
I2758383128
asg35
VPT1M14.1104763S
p835
sg183
I3
sg184
VP0DT0H0M31.1333S
p836
sg39
(dp837
g41
VTL Spartan HCS
p838
sg43
Nssa(dp839
g38
I3682788176
sg32
VWeaponDrop
p840
sg180
I0
sg44
(lp841
I2758383128
asg35
VPT1M14.1104763S
p842
sg183
I0
sg184
VP0DT0S
p843
sg39
(dp844
g41
VTL Spartan HCS
p845
sg43
Nssa(dp846
g38
I4096745987
sg32
VWeaponDrop
p847
sg180
I4
sg44
(lp848
I2758383128
asg35
VPT1M14.1104763S
p849
sg183
I2
sg184
VP0DT0H0M14.1167S
p850
sg39
(dp851
g41
VTL Spartan HCS
p852
sg43
Nssa(dp853
g38
I2244200496
sg39
(dp854
g41
VTL Assault HCS
p855
sg43
Nssg44
(lp856
I2758383128
asg32
VWeaponPickup
p857
sg35
VPT1M14.8730529S
p858
sa(dp859
g32
VImpulse
p860
sg39
(dp861
g41
VTL Assault HCS
p862
sg43
Nssg273
I4191318012
sg35
VPT1M14.8734797S
p863
sa(dp864
g38
I313138863
sg39
(dp865
g41
VEG Roy HCS
p866
sg43
Nssg44
(lp867
I1095363701
asg32
VWeaponPickup
p868
sg35
VPT1M15.1904815S
p869
sa(dp870
g38
I4096745987
sg39
(dp871
g41
VEG Roy HCS
p872
sg43
Nssg44
(lp873
I2758383128
asg32
VWeaponPickup
p874
sg35
VPT1M15.1914823S
p875
sa(dp876
g32
VPlayerSpawn
p877
sg39
(dp878
g41
VEG Roy HCS
p879
sg43
Nssg35
VPT1M15.1914823S
p880
sa(dp881
g234
I2511447508
sg235
I00
sg236
I00
sg237
(dp882
g41
VTL Eco HCS
p883
sg43
Nssg240
(lp884
I2758383128
asg242
I00
sg243
I01
sg244
I1
sg245
I0
sg246
I1
sg247
(dp885
Vy
F-7.2816286100000003
sVx
F-9.3421710000000004
sVz
F-0.00018003583000000001
ssg249
(dp886
Vy
F-7.5025844599999996
sVx
F-12.7271643
sVz
F0.0073210597000000002
ssg251
I00
sg252
(dp887
g41
VEG SuspectorHCS
p888
sg43
Nssg255
(lp889
sg257
(lp890
(dp891
g41
VTL Spartan HCS
p892
sg43
Nsasg259
I01
sg35
VPT1M15.8954864S
p893
sg32
VDeath
p894
sg262
I1
sa(dp895
g32
VMedal
p896
sg39
(dp897
g41
VTL Eco HCS
p898
sg43
Nssg267
I3261908037
sg35
VPT1M15.8974861S
p899
sa(dp900
g38
I313138863
sg32
VWeaponDrop
p901
sg180
I0
sg44
(lp902
I1095363701
asg35
VPT1M15.8974861S
p903
sg183
I0
sg184
VP0DT0H0M0.6667S
p904
sg39
(dp905
g41
VEG SuspectorHCS
p906
sg43
Nssa(dp907
g38
I424645655
sg32
VWeaponDrop
p908
sg180
I17
sg44
(lp909
I1327094800
asg35
VPT1M15.8974861S
p910
sg183
I7
sg184
VP0DT0H0M4.7000S
p911
sg39
(dp912
g41
VEG SuspectorHCS
p913
sg43
Nssa(dp914
g38
I2244200496
sg32
VWeaponDrop
p915
sg180
I0
sg44
(lp916
I2758383128
asg35
VPT1M16.6894892S
p917
sg183
I0
sg184
VP0DT0H0M1.6667S
p918
sg39
(dp919
g41
VTL Assault HCS
p920
sg43
Nssa(dp921
g32
VImpulse
p922
sg39
(dp923
g41
VTL Assault HCS
p924
sg43
Nssg273
I3435524855
sg35
VPT1M16.6964916S
p925
sa(dp926
g38
I2244200496
sg39
(dp927
g41
VTL Assault HCS
p928
sg43
Nssg44
(lp929
I2758383128
asg32
VWeaponPickup
p930
sg35
VPT1M18.0225026S
p931
sa(dp932
g32
VImpulse
p933
sg39
(dp934
g41
VTL Assault HCS
p935
sg43
Nssg273
I4191318012
sg35
VPT1M18.0416346S
p936
sa(dp937
g38
I2244200496
sg32
VWeaponDrop
p938
sg180
I0
sg44
(lp939
I2758383128
asg35
VPT1M18.3726396S
p940
sg183
I0
sg184
VP0DT0H0M0.1833S
p941
sg39
(dp942
g41
VTL Assault HCS
p943
sg43
Nssa(dp944
g32
VImpulse
p945
sg39
(dp946
g41
VTL Assault HCS
p947
sg43
Nssg273
I3435524855
sg35
VPT1M18.373503S
p948
sa(dp949
g38
I313138863
sg39
(dp950
g41
VEG Snip3downHCS
p951
sg43
Nssg44
(lp952
I1095363701
asg32
VWeaponPickup
p953
sg35
VPT1M18.9115054S
p954
sa(dp955
g38
I4096745987
sg39
(dp956
g41
VEG Snip3downHCS
p957
sg43
Nssg44
(lp958
I2758383128
asg32
VWeaponPickup
p959
sg35
VPT1M18.9125063S
p960
sa(dp961
g32
VPlayerSpawn
p962
sg39
(dp963
g41
VEG Snip3downHCS
p964
sg43
Nssg35
VPT1M18.9125063S
p965
sa(dp966
g38
I313138863
sg39
(dp967
g41
VEG Lunchbox HCS
p968
sg43
Nssg44
(lp969
I1095363701
asg32
VWeaponPickup
p970
sg35
VPT1M19.1585076S
p971
sa(dp972
g38
I4096745987
sg39
(dp973
g41
VEG Lunchbox HCS
p974
sg43
Nssg44
(lp975
I2758383128
asg32
VWeaponPickup
p976
sg35
VPT1M19.1585076S
p977
sa(dp978
g32
VPlayerSpawn
p979
sg39
(dp980
g41
VEG Lunchbox HCS
p981
sg43
Nssg35
VPT1M19.1585076S
p982
sa(dp983
g38
I2244200496
sg39
(dp984
g41
VTL Assault HCS
p985
sg43
Nssg44
(lp986
I2758383128
asg32
VWeaponPickup
p987
sg35
VPT1M19.943077S
p988
sa(dp989
g32
VImpulse
p990
sg39
(dp991
g41
VTL Assault HCS
p992
sg43
Nssg273
I4191318012
sg35
VPT1M19.9435118S
p993
sa(dp994
g38
I2244200496
sg32
VWeaponDrop
p995
sg180
I0
sg44
(lp996
I2758383128
asg35
VPT1M21.9921057S
p997
sg183
I0
sg184
VP0DT0H0M1.9000S
p998
sg39
(dp999
g41
VTL Assault HCS
p1000
sg43
Nssa(dp1001
g32
VImpulse
p1002
sg39
(dp1003
g41
VTL Assault HCS
p1004
sg43
Nssg273
I3435524855
sg35
VPT1M21.9925255S
p1005
sa(dp1006
g38
I313138863
sg39
(dp1007
g41
VTL Spartan HCS
p1008
sg43
Nssg44
(lp1009
I1095363701
asg32
VWeaponPickup
p1010
sg35
VPT1M22.1155263S
p1011
sa(dp1012
g38
I4096745987
sg39
(dp1013
g41
VTL Spartan HCS
p1014
sg43
Nssg44
(lp1015
I2758383128
asg32
VWeaponPickup
p1016
sg35
VPT1M22.121711S
p1017
sa(dp1018
g32
VPlayerSpawn
p1019
sg39
(dp1020
g41
VTL Spartan HCS
p1021
sg43
Nssg35
VPT1M22.121711S
p1022
sa(dp1023
g38
I2244200496
sg39
(dp1024
g41
VTL Assault HCS
p1025
sg43
Nssg44
(lp1026
I2758383128
asg32
VWeaponPickup
p1027
sg35
VPT1M22.7786575S
p1028
sa(dp1029
g32
VImpulse
p1030
sg39
(dp1031
g41
VTL Assault HCS
p1032
sg43
Nssg273
I4191318012
sg35
VPT1M22.7795309S
p1033
sa(dp1034
g38
I2244200496
sg32
VWeaponDrop
p1035
sg180
I0
sg44
(lp1036
I2758383128
asg35
VPT1M23.3617443S
p1037
sg183
I0
sg184
VP0DT0H0M0.4333S
p1038
sg39
(dp1039
g41
VTL Assault HCS
p1040
sg43
Nssa(dp1041
g32
VImpulse
p1042
sg39
(dp1043
g41
VTL Assault HCS
p1044
sg43
Nssg273
I3435524855
sg35
VPT1M23.3625345S
p1045
sa(dp1046
g38
I313138863
sg39
(dp1047
g41
VEG SuspectorHCS
p1048
sg43
Nssg44
(lp1049
I1095363701
asg32
VWeaponPickup
p1050
sg35
VPT1M23.9105387S
p1051
sa(dp1052
g38
I4096745987
sg39
(dp1053
g41
VEG SuspectorHCS
p1054
sg43
Nssg44
(lp1055
I2758383128
asg32
VWeaponPickup
p1056
sg35
VPT1M23.9105387S
p1057
sa(dp1058
g32
VPlayerSpawn
p1059
sg39
(dp1060
g41
VEG SuspectorHCS
p1061
sg43
Nssg35
VPT1M23.9105387S
p1062
sa(dp1063
g32
VMedal
p1064
sg39
(dp1065
g41
VTL Assault HCS
p1066
sg43
Nssg267
I3400287617
sg35
VPT1M26.7125552S
p1067
sa(dp1068
g38
I2244200496
sg39
(dp1069
g41
VTL Spartan HCS
p1070
sg43
Nssg44
(lp1071
I2758383128
asg32
VWeaponPickup
p1072
sg35
VPT1M28.0428215S
p1073
sa(dp1074
g32
VImpulse
p1075
sg39
(dp1076
g41
VTL Spartan HCS
p1077
sg43
Nssg273
I4191318012
sg35
VPT1M28.0428215S
p1078
sa(dp1079
g32
VMedal
p1080
sg39
(dp1081
g41
VTL Spartan HCS
p1082
sg43
Nssg267
I3886151616
sg35
VPT1M28.9655689S
p1083
sa(dp1084
g32
VMedal
p1085
sg39
(dp1086
g41
VTL Assault HCS
p1087
sg43
Nssg267
I1494478183
sg35
VPT1M28.9665699S
p1088
sa(dp1089
g32
VImpulse
p1090
sg39
(dp1091
g41
VTL Spartan HCS
p1092
sg43
Nssg273
I2944278681
sg35
VPT1M28.9665699S
p1093
sa(dp1094
g38
I2244200496
sg32
VWeaponDrop
p1095
sg180
I0
sg44
(lp1096
I2758383128
asg35
VPT1M28.99557S
p1097
sg183
I0
sg184
VP0DT0H0M0.7167S
p1098
sg39
(dp1099
g41
VTL Spartan HCS
p1100
sg43
Nssa(dp1101
g234
I424645655
sg235
I00
sg236
I00
sg237
(dp1102
g41
VTL StelluR
p1103
sg43
Nssg240
(lp1104
I1327094800
asg242
I00
sg243
I01
sg244
I1
sg245
I0
sg246
I1
sg247
(dp1105
Vy
F10.0304146
sVx
F8.3963640000000002
sVz
F0.41814732599999999
ssg249
(dp1106
Vy
F0.36856973199999998
sVx
F9.0858840000000001
sVz
F-0.59999950000000002
ssg251
I00
sg252
(dp1107
g41
VEG Snip3downHCS
p1108
sg43
Nssg255
(lp1109
sg257
(lp1110
sg259
I01
sg35
VPT1M29.075571S
p1111
sg32
VDeath
p1112
sg262
I1
sa(dp1113
g32
VImpulse
p1114
sg39
(dp1115
g41
VTL StelluR
p1116
sg43
Nssg273
I3174430457
sg35
VPT1M29.0775701S
p1117
sa(dp1118
g32
VMedal
p1119
sg39
(dp1120
g41
VTL StelluR
p1121
sg43
Nssg267
I1080468863
sg35
VPT1M29.0775701S
p1122
sa(dp1123
g38
I313138863
sg32
VWeaponDrop
p1124
sg180
I0
sg44
(lp1125
I1095363701
asg35
VPT1M29.0845875S
p1126
sg183
I0
sg184
VP0DT0H0M0.3833S
p1127
sg39
(dp1128
g41
VEG Snip3downHCS
p1129
sg43
Nssa(dp1130
g38
I4096745987
sg32
VWeaponDrop
p1131
sg180
I4
sg44
(lp1132
I2758383128
asg35
VPT1M29.0845875S
p1133
sg183
I3
sg184
VP0DT0H0M9.7833S
p1134
sg39
(dp1135
g41
VEG Snip3downHCS
p1136
sg43
Nssa(dp1137
g38
I313138863
sg32
VWeaponDrop
p1138
sg180
I0
sg44
(lp1139
I1095363701
asg35
VPT1M32.2942589S
p1140
sg183
I0
sg184
VP0DT0H0M3.8833S
p1141
sg39
(dp1142
g41
VTL Spartan HCS
p1143
sg43
Nssa(dp1144
g38
I2511447508
sg39
(dp1145
g41
VTL Spartan HCS
p1146
sg43
Nssg44
(lp1147
I2758383128
asg32
VWeaponPickup
p1148
sg35
VPT1M32.2943259S
p1149
sa(dp1150
g38
I313138863
sg39
(dp1151
g41
VEG Snip3downHCS
p1152
sg43
Nssg44
(lp1153
I1095363701
asg32
VWeaponPickup
p1154
sg35
VPT1M37.0966239S
p1155
sa(dp1156
g38
I4096745987
sg39
(dp1157
g41
VEG Snip3downHCS
p1158
sg43
Nssg44
(lp1159
I2758383128
asg32
VWeaponPickup
p1160
sg35
VPT1M37.0966239S
p1161
sa(dp1162
g32
VPlayerSpawn
p1163
sg39
(dp1164
g41
VEG Snip3downHCS
p1165
sg43
Nssg35
VPT1M37.0966239S
p1166
sa(dp1167
g38
I4096745987
sg32
VWeaponDrop
p1168
sg180
I0
sg44
(lp1169
I2758383128
asg35
VPT1M38.309343S
p1170
sg183
I0
sg184
VP0DT0H0M10.1000S
p1171
sg39
(dp1172
g41
VEG SuspectorHCS
p1173
sg43
Nssa(dp1174
g38
I2511447508
sg39
(dp1175
g41
VEG SuspectorHCS
p1176
sg43
Nssg44
(lp1177
I2758383128
asg32
VWeaponPickup
p1178
sg35
VPT1M38.3096301S
p1179
sa(dp1180
g38
I4096745987
sg32
VWeaponDrop
p1181
sg180
I0
sg44
(lp1182
I2758383128
asg35
VPT1M40.4556429S
p1183
sg183
I0
sg184
VP0DT0H0M3.0000S
p1184
sg39
(dp1185
g41
VEG Snip3downHCS
p1186
sg43
Nssa(dp1187
g38
I2511447508
sg39
(dp1188
g41
VEG Snip3downHCS
p1189
sg43
Nssg44
(lp1190
I2758383128
asg32
VWeaponPickup
p1191
sg35
VPT1M40.4556429S
p1192
sa(dp1193
g234
I4096745987
sg235
I00
sg236
I00
sg237
(dp1194
g41
VEG Lunchbox HCS
p1195
sg43
Nssg240
(lp1196
I2758383128
asg242
I00
sg243
I01
sg244
I1
sg245
I0
sg246
I1
sg247
(dp1197
Vy
F0.55023509999999998
sVx
F-9.4408379999999994
sVz
F3.6940119999999999
ssg249
(dp1198
Vy
F3.9726972599999999
sVx
F-0.71754260000000003
sVz
F2.53928924
ssg251
I00
sg252
(dp1199
g41
VTL Eco HCS
p1200
sg43
Nssg255
(lp1201
sg257
(lp1202
sg259
I01
sg35
VPT1M40.7126449S
p1203
sg32
VDeath
p1204
sg262
I1
sa(dp1205
g32
VMedal
p1206
sg39
(dp1207
g41
VEG Lunchbox HCS
p1208
sg43
Nssg267
I2838259753
sg35
VPT1M40.7126449S
p1209
sa(dp1210
g32
VImpulse
p1211
sg39
(dp1212
g41
VEG Lunchbox HCS
p1213
sg43
Nssg273
I2556889090
sg35
VPT1M40.7126449S
p1214
sa(dp1215
g32
VMedal
p1216
sg39
(dp1217
g41
VEG SuspectorHCS
p1218
sg43
Nssg267
I824733727
sg35
VPT1M40.713645S
p1219
sa(dp1220
g32
VImpulse
p1221
sg39
(dp1222
g41
VEG Lunchbox HCS
p1223
sg43
Nssg273
I3174430457
sg35
VPT1M40.7146551S
p1224
sa(dp1225
g32
VMedal
p1226
sg39
(dp1227
g41
VEG Lunchbox HCS
p1228
sg43
Nssg267
I3653057799
sg35
VPT1M40.7216431S
p1229
sa(dp1230
g38
I2511447508
sg32
VWeaponDrop
p1231
sg180
I19
sg44
(lp1232
I2758383128
asg35
VPT1M40.7216431S
p1233
sg183
I12
sg184
VP0DT0H0M55.5667S
p1234
sg39
(dp1235
g41
VTL Eco HCS
p1236
sg43
Nssa(dp1237
g38
I4096745987
sg32
VWeaponDrop
p1238
sg180
I0
sg44
(lp1239
I2758383128
asg35
VPT1M40.7216431S
p1240
sg183
I0
sg184
VP0DT0H0M0.9500S
p1241
sg39
(dp1242
g41
VTL Eco HCS
p1243
sg43
Nssa(dp1244
g234
I313138863
sg235
I00
sg236
I01
sg237
(dp1245
g41
VTL StelluR
p1246
sg43
Nssg240
(lp1247
I1095363701
asg242
I00
sg243
I00
sg244
I1
sg245
I0
sg246
I1
sg247
(dp1248
Vy
F-0.31141029999999997
sVx
F18.715986300000001
sVz
F1.39055777
ssg249
(dp1249
Vy
F-0.70477789999999996
sVx
F18.937645
sVz
F1.3999495500000001
ssg251
I00
sg252
(dp1250
g41
VEG Roy HCS
p1251
sg43
Nssg255
(lp1252
sg257
(lp1253
sg259
I00
sg35
VPT1M40.8236461S
p1254
sg32
VDeath
p1255
sg262
I1
sa(dp1256
g32
VMedal
p1257
sg39
(dp1258
g41
VTL StelluR
p1259
sg43
Nssg267
I2287626681
sg35
VPT1M40.8306453S
p1260
sa(dp1261
g38
I4096745987
sg32
VWeaponDrop
p1262
sg180
I9
sg44
(lp1263
I2758383128
asg35
VPT1M40.8306453S
p1264
sg183
I2
sg184
VP0DT0H0M24.7667S
p1265
sg39
(dp1266
g41
VEG Roy HCS
p1267
sg43
Nssa(dp1268
g38
I313138863
sg32
VWeaponDrop
p1269
sg180
I0
sg44
(lp1270
I1095363701
asg35
VPT1M40.8316462S
p1271
sg183
I0
sg184
VP0DT0H0M0.8667S
p1272
sg39
(dp1273
g41
VEG Roy HCS
p1274
sg43
Nssa(dp1275
g234
I2460880172
sg235
I00
sg236
I00
sg237
(dp1276
g41
VEG Roy HCS
p1277
sg43
Nssg240
(lp1278
sg242
I00
sg243
I01
sg244
I1
sg245
I0
sg246
I1
sg247
(dp1279
Vy
F-0.97567539999999997
sVx
F19.302942300000002
sVz
F1.54814911
ssg249
(dp1280
Vy
F-0.53607959999999999
sVx
F20.561201100000002
sVz
F1.4183017
ssg251
I00
sg252
(dp1281
g41
VTL StelluR
p1282
sg43
Nssg255
(lp1283
sg257
(lp1284
sg259
I00
sg35
VPT1M42.0623444S
p1285
sg32
VDeath
p1286
sg262
I1
sa(dp1287
g32
VMedal
p1288
sg39
(dp1289
g41
VEG Roy HCS
p1290
sg43
Nssg267
I2251767925
sg35
VPT1M42.0636542S
p1291
sa(dp1292
g32
VMedal
p1293
sg39
(dp1294
g41
VEG Roy HCS
p1295
sg43
Nssg267
I285057226
sg35
VPT1M42.0636542S
p1296
sa(dp1297
g38
I313138863
sg32
VWeaponDrop
p1298
sg180
I31
sg44
(lp1299
I1095363701
asg35
VPT1M42.0646557S
p1300
sg183
I16
sg184
VP0DT0H0M8.0667S
p1301
sg39
(dp1302
g41
VTL StelluR
p1303
sg43
Nssa(dp1304
g38
I313138863
sg32
VWeaponDrop
p1305
sg180
I0
sg44
(lp1306
I1095363701
asg35
VPT1M42.0646557S
p1307
sg183
I0
sg184
VP0DT0S
p1308
sg39
(dp1309
g41
VTL StelluR
p1310
sg43
Nssa(dp1311
g38
I424645655
sg32
VWeaponDrop
p1312
sg180
I54
sg44
(lp1313
I1327094800
asg35
VPT1M42.0646557S
p1314
sg183
I24
sg184
VP0DT0H0M36.9833S
p1315
sg39
(dp1316
g41
VTL StelluR
p1317
sg43
Nssa(dp1318
g38
I4096745987
sg32
VWeaponDrop
p1319
sg180
I6
sg44
(lp1320
I2758383128
asg35
VPT1M44.6886697S
p1321
sg183
I5
sg184
VP0DT0H0M20.8500S
p1322
sg39
(dp1323
g41
VEG Lunchbox HCS
p1324
sg43
Nssa(dp1325
g38
I2511447508
sg39
(dp1326
g41
VEG Lunchbox HCS
p1327
sg43
Nssg44
(lp1328
I2758383128
asg32
VWeaponPickup
p1329
sg35
VPT1M44.6886697S
p1330
sa(dp1331
g38
I2244200496
sg39
(dp1332
g41
VEG Lunchbox HCS
p1333
sg43
Nssg44
(lp1334
I2758383128
asg32
VWeaponPickup
p1335
sg35
VPT1M48.7217878S
p1336
sa(dp1337
g38
I313138863
sg39
(dp1338
g41
VTL Eco HCS
p1339
sg43
Nssg44
(lp1340
I1095363701
asg32
VWeaponPickup
p1341
sg35
VPT1M48.7236967S
p1342
sa(dp1343
g38
I4096745987
sg39
(dp1344
g41
VTL Eco HCS
p1345
sg43
Nssg44
(lp1346
I2758383128
asg32
VWeaponPickup
p1347
sg35
VPT1M48.7246979S
p1348
sa(dp1349
g32
VPlayerSpawn
p1350
sg39
(dp1351
g41
VTL Eco HCS
p1352
sg43
Nssg35
VPT1M48.7246979S
p1353
sa(dp1354
g32
VImpulse
p1355
sg39
(dp1356
g41
VEG Lunchbox HCS
p1357
sg43
Nssg273
I4191318012
sg35
VPT1M48.7246979S
p1358
sa(dp1359
g32
VImpulse
p1360
sg39
(dp1361
g41
VEG Lunchbox HCS
p1362
sg43
Nssg273
I1039658009
sg35
VPT1M48.7246979S
p1363
sa(dp1364
g38
I313138863
sg39
(dp1365
g41
VEG Roy HCS
p1366
sg43
Nssg44
(lp1367
I1095363701
asg32
VWeaponPickup
p1368
sg35
VPT1M48.8426978S
p1369
sa(dp1370
g38
I4096745987
sg39
(dp1371
g41
VEG Roy HCS
p1372
sg43
Nssg44
(lp1373
I2758383128
asg32
VWeaponPickup
p1374
sg35
VPT1M48.8436981S
p1375
sa(dp1376
g32
VPlayerSpawn
p1377
sg39
(dp1378
g41
VEG Roy HCS
p1379
sg43
Nssg35
VPT1M48.8436981S
p1380
sa(dp1381
g38
I2244200496
sg32
VWeaponDrop
p1382
sg180
I0
sg44
(lp1383
I2758383128
asg35
VPT1M49.3387523S
p1384
sg183
I0
sg184
VP0DT0H0M0.4500S
p1385
sg39
(dp1386
g41
VEG Lunchbox HCS
p1387
sg43
Nssa(dp1388
g32
VImpulse
p1389
sg39
(dp1390
g41
VEG Lunchbox HCS
p1391
sg43
Nssg273
I3435524855
sg35
VPT1M49.3397009S
p1392
sa(dp1393
g38
I313138863
sg39
(dp1394
g41
VTL StelluR
p1395
sg43
Nssg44
(lp1396
I1095363701
asg32
VWeaponPickup
p1397
sg35
VPT1M50.0757061S
p1398
sa(dp1399
g38
I4096745987
sg39
(dp1400
g41
VTL StelluR
p1401
sg43
Nssg44
(lp1402
I2758383128
asg32
VWeaponPickup
p1403
sg35
VPT1M50.0767064S
p1404
sa(dp1405
g32
VPlayerSpawn
p1406
sg39
(dp1407
g41
VTL StelluR
p1408
sg43
Nssg35
VPT1M50.0767064S
p1409
sa(dp1410
g234
I2511447508
sg235
I00
sg236
I00
sg237
(dp1411
g41
VTL Spartan HCS
p1412
sg43
Nssg240
(lp1413
I2758383128
asg242
I00
sg243
I01
sg244
I1
sg245
I0
sg246
I1
sg247
(dp1414
Vy
F11.453500699999999
sVx
F2.9090053999999999
sVz
F0.31140400000000001
ssg249
(dp1415
Vy
F11.3472109
sVx
F9.7079079999999998
sVz
F1.07804334
ssg251
I00
sg252
(dp1416
g41
VEG Lunchbox HCS
p1417
sg43
Nssg255
(lp1418
sg257
(lp1419
(dp1420
g41
VTL Assault HCS
p1421
sg43
Nsasg259
I00
sg35
VPT1M52.8121869S
p1422
sg32
VDeath
p1423
sg262
I1
sa(dp1424
g38
I313138863
sg32
VWeaponDrop
p1425
sg180
I0
sg44
(lp1426
I1095363701
asg35
VPT1M52.8137227S
p1427
sg183
I0
sg184
VP0DT0H0M4.6833S
p1428
sg39
(dp1429
g41
VEG Lunchbox HCS
p1430
sg43
Nssa(dp1431
g38
I2511447508
sg32
VWeaponDrop
p1432
sg180
I0
sg44
(lp1433
I2758383128
asg35
VPT1M52.8137227S
p1434
sg183
I0
sg184
VP0DT0H0M7.6667S
p1435
sg39
(dp1436
g41
VEG Lunchbox HCS
p1437
sg43
Nssa(dp1438
g38
I313138863
sg32
VWeaponDrop
p1439
sg180
I0
sg44
(lp1440
I1095363701
asg35
VPT1M56.5270241S
p1441
sg183
I0
sg184
VP0DT0H0M0.7667S
p1442
sg39
(dp1443
g41
VTL StelluR
p1444
sg43
Nssa(dp1445
g38
I2511447508
sg39
(dp1446
g41
VTL StelluR
p1447
sg43
Nssg44
(lp1448
I2758383128
asg32
VWeaponPickup
p1449
sg35
VPT1M56.527091S
p1450
sa(dp1451
g38
I313138863
sg39
(dp1452
g41
VEG Lunchbox HCS
p1453
sg43
Nssg44
(lp1454
I1095363701
asg32
VWeaponPickup
p1455
sg35
VPT2M0.9607752S
p1456
sa(dp1457
g38
I4096745987
sg39
(dp1458
g41
VEG Lunchbox HCS
p1459
sg43
Nssg44
(lp1460
I2758383128
asg32
VWeaponPickup
p1461
sg35
VPT2M0.9607752S
p1462
sa(dp1463
g32
VPlayerSpawn
p1464
sg39
(dp1465
g41
VEG Lunchbox HCS
p1466
sg43
Nssg35
VPT2M0.9607752S
p1467
sa(dp1468
g32
VMedal
p1469
sg39
(dp1470
g41
VTL StelluR
p1471
sg43
Nssg267
I2380717523
sg35
VPT2M3.3567912S
p1472
sa(dp1473
g32
VImpulse
p1474
sg39
(dp1475
g41
VTL StelluR
p1476
sg43
Nssg273
I1063951891
sg35
VPT2M3.3567912S
p1477
sa(dp1478
g234
I4096745987
sg235
I00
sg236
I00
sg237
(dp1479
g41
VEG Roy HCS
p1480
sg43
Nssg240
(lp1481
I2758383128
asg242
I00
sg243
I01
sg244
I1
sg245
I0
sg246
I1
sg247
(dp1482
Vy
F2.07672882
sVx
F-0.75261634600000005
sVz
F3.9711897399999998
ssg249
(dp1483
Vy
F8.9566780000000001
sVx
F-8.3281270000000003
sVz
F0.011450558899999999
ssg251
I00
sg252
(dp1484
g41
VTL Spartan HCS
p1485
sg43
Nssg255
(lp1486
sg257
(lp1487
(dp1488
g41
VEG Snip3downHCS
p1489
sg43
Nsa(dp1490
g41
VEG Lunchbox HCS
p1491
sg43
Nsasg259
I01
sg35
VPT2M11.8088447S
p1492
sg32
VDeath
p1493
sg262
I1
sa(dp1494
g32
VMedal
p1495
sg39
(dp1496
g41
VEG Roy HCS
p1497
sg43
Nssg267
I3261908037
sg35
VPT2M11.8098441S
p1498
sa(dp1499
g38
I2511447508
sg32
VWeaponDrop
p1500
sg180
I9
sg44
(lp1501
I2758383128
asg35
VPT2M11.8108445S
p1502
sg183
I5
sg184
VP0DT0H0M35.3667S
p1503
sg39
(dp1504
g41
VTL Spartan HCS
p1505
sg43
Nssa(dp1506
g38
I4096745987
sg32
VWeaponDrop
p1507
sg180
I0
sg44
(lp1508
I2758383128
asg35
VPT2M11.8108445S
p1509
sg183
I0
sg184
VP0DT0H0M9.5833S
p1510
sg39
(dp1511
g41
VTL Spartan HCS
p1512
sg43
Nssa(dp1513
g234
I313138863
sg235
I00
sg236
I01
sg237
(dp1514
g41
VEG SuspectorHCS
p1515
sg43
Nssg240
(lp1516
I1095363701
asg242
I00
sg243
I00
sg244
I1
sg245
I0
sg246
I1
sg247
(dp1517
Vy
F3.89058232
sVx
F17.042059999999999
sVz
F1.31253445
ssg249
(dp1518
Vy
F4.3394327199999996
sVx
F16.984464599999999
sVz
F1.2233295399999999
ssg251
I00
sg252
(dp1519
g41
VTL StelluR
p1520
sg43
Nssg255
(lp1521
sg257
(lp1522
sg259
I00
sg35
VPT2M12.0388456S
p1523
sg32
VDeath
p1524
sg262
I1
sa(dp1525
g32
VMedal
p1526
sg39
(dp1527
g41
VEG SuspectorHCS
p1528
sg43
Nssg267
I2287626681
sg35
VPT2M12.0398459S
p1529
sa(dp1530
g38
I2511447508
sg32
VWeaponDrop
p1531
sg180
I3
sg44
(lp1532
I2758383128
asg35
VPT2M12.040846S
p1533
sg183
I1
sg184
VP0DT0H0M15.2667S
p1534
sg39
(dp1535
g41
VTL StelluR
p1536
sg43
Nssa(dp1537
g38
I4096745987
sg32
VWeaponDrop
p1538
sg180
I2
sg44
(lp1539
I2758383128
asg35
VPT2M12.0471209S
p1540
sg183
I0
sg184
VP0DT0H0M5.8000S
p1541
sg39
(dp1542
g41
VTL StelluR
p1543
sg43
Nssa(dp1544
g38
I313138863
sg32
VWeaponDrop
p1545
sg180
I0
sg44
(lp1546
I1095363701
asg35
VPT2M18.6714681S
p1547
sg183
I0
sg184
VP0DT0H0M0.8167S
p1548
sg39
(dp1549
g41
VTL Eco HCS
p1550
sg43
Nssa(dp1551
g38
I3682788176
sg39
(dp1552
g41
VTL Eco HCS
p1553
sg43
Nssg44
(lp1554
I2758383128
asg32
VWeaponPickupPad
p1555
sg35
VPT2M18.6714681S
p1556
sa(dp1557
g38
I3682788176
sg39
(dp1558
g41
VTL Eco HCS
p1559
sg43
Nssg44
(lp1560
I2758383128
asg32
VWeaponPickup
p1561
sg35
VPT2M18.6718889S
p1562
sa(dp1563
g234
I313138863
sg235
I00
sg236
I01
sg237
(dp1564
g41
VEG Roy HCS
p1565
sg43
Nssg240
(lp1566
I1095363701
asg242
I00
sg243
I00
sg244
I1
sg245
I0
sg246
I1
sg247
(dp1567
Vy
F0.88557994399999995
sVx
F3.26818681
sVz
F2.8350145800000002
ssg249
(dp1568
Vy
F0.84687393899999996
sVx
F3.5795404899999999
sVz
F2.8089923899999998
ssg251
I00
sg252
(dp1569
g41
VTL Assault HCS
p1570
sg43
Nssg255
(lp1571
sg257
(lp1572
sg259
I00
sg35
VPT2M19.558894S
p1573
sg32
VDeath
p1574
sg262
I1
sa(dp1575
g32
VMedal
p1576
sg39
(dp1577
g41
VEG Roy HCS
p1578
sg43
Nssg267
I2782465081
sg35
VPT2M19.558894S
p1579
sa(dp1580
g32
VMedal
p1581
sg39
(dp1582
g41
VEG Roy HCS
p1583
sg43
Nssg267
I250435527
sg35
VPT2M19.5598938S
p1584
sa(dp1585
g38
I313138863
sg32
VWeaponDrop
p1586
sg180
I35
sg44
(lp1587
I1095363701
asg35
VPT2M19.5598938S
p1588
sg183
I20
sg184
VP0DT0H0M36.6667S
p1589
sg39
(dp1590
g41
VTL Assault HCS
p1591
sg43
Nssa(dp1592
g38
I313138863
sg32
VWeaponDrop
p1593
sg180
I0
sg44
(lp1594
I1095363701
asg35
VPT2M19.5598938S
p1595
sg183
I0
sg184
VP0DT0S
p1596
sg39
(dp1597
g41
VTL Assault HCS
p1598
sg43
Nssa(dp1599
g38
I4096745987
sg32
VWeaponDrop
p1600
sg180
I17
sg44
(lp1601
I2758383128
asg35
VPT2M19.5608942S
p1602
sg183
I6
sg184
VP0DT0H0M48.9500S
p1603
sg39
(dp1604
g41
VTL Assault HCS
p1605
sg43
Nssa(dp1606
g234
I313138863
sg235
I00
sg236
I01
sg237
(dp1607
g41
VTL Assault HCS
p1608
sg43
Nssg240
(lp1609
I1095363701
asg242
I00
sg243
I00
sg244
I1
sg245
I0
sg246
I1
sg247
(dp1610
Vy
F0.84687393899999996
sVx
F3.5795404899999999
sVz
F3.03399229
ssg249
(dp1611
Vy
F0.88557994399999995
sVx
F3.26818681
sVz
F2.8350145800000002
ssg251
I00
sg252
(dp1612
g41
VEG Roy HCS
p1613
sg43
Nssg255
(lp1614
sg257
(lp1615
sg259
I00
sg35
VPT2M19.5608942S
p1616
sg32
VDeath
p1617
sg262
I1
sa(dp1618
g32
VMedal
p1619
sg39
(dp1620
g41
VTL Assault HCS
p1621
sg43
Nssg267
I250435527
sg35
VPT2M19.5608942S
p1622
sa(dp1623
g38
I313138863
sg32
VWeaponDrop
p1624
sg180
I8
sg44
(lp1625
I1095363701
asg35
VPT2M19.5675208S
p1626
sg183
I8
sg184
VP0DT0H0M2.2167S
p1627
sg39
(dp1628
g41
VEG Roy HCS
p1629
sg43
Nssa(dp1630
g38
I313138863
sg32
VWeaponDrop
p1631
sg180
I0
sg44
(lp1632
I1095363701
asg35
VPT2M19.5675208S
p1633
sg183
I0
sg184
VP0DT0S
p1634
sg39
(dp1635
g41
VEG Roy HCS
p1636
sg43
Nssa(dp1637
g38
I4096745987
sg32
VWeaponDrop
p1638
sg180
I3
sg44
(lp1639
I2758383128
asg35
VPT2M19.567894S
p1640
sg183
I2
sg184
VP0DT0H0M28.3667S
p1641
sg39
(dp1642
g41
VEG Roy HCS
p1643
sg43
Nssa(dp1644
g38
I313138863
sg39
(dp1645
g41
VTL Spartan HCS
p1646
sg43
Nssg44
(lp1647
I1095363701
asg32
VWeaponPickup
p1648
sg35
VPT2M19.8238959S
p1649
sa(dp1650
g38
I4096745987
sg39
(dp1651
g41
VTL Spartan HCS
p1652
sg43
Nssg44
(lp1653
I2758383128
asg32
VWeaponPickup
p1654
sg35
VPT2M19.8238959S
p1655
sa(dp1656
g32
VPlayerSpawn
p1657
sg39
(dp1658
g41
VTL Spartan HCS
p1659
sg43
Nssg35
VPT2M19.8238959S
p1660
sa(dp1661
g38
I313138863
sg39
(dp1662
g41
VTL StelluR
p1663
sg43
Nssg44
(lp1664
I1095363701
asg32
VWeaponPickup
p1665
sg35
VPT2M20.0608961S
p1666
sa(dp1667
g38
I4096745987
sg39
(dp1668
g41
VTL StelluR
p1669
sg43
Nssg44
(lp1670
I2758383128
asg32
VWeaponPickup
p1671
sg35
VPT2M20.0608961S
p1672
sa(dp1673
g32
VPlayerSpawn
p1674
sg39
(dp1675
g41
VTL StelluR
p1676
sg43
Nssg35
VPT2M20.0618973S
p1677
sa(dp1678
g38
I2244200496
sg39
(dp1679
g41
VEG SuspectorHCS
p1680
sg43
Nssg44
(lp1681
I2758383128
asg32
VWeaponPickup
p1682
sg35
VPT2M20.4068985S
p1683
sa(dp1684
g32
VImpulse
p1685
sg39
(dp1686
g41
VEG SuspectorHCS
p1687
sg43
Nssg273
I4191318012
sg35
VPT2M20.4068985S
p1688
sa(dp1689
g32
VImpulse
p1690
sg39
(dp1691
g41
VEG SuspectorHCS
p1692
sg43
Nssg273
I1039658009
sg35
VPT2M20.4078998S
p1693
sa(dp1694
g234
I3682788176
sg235
I00
sg236
I00
sg237
(dp1695
g41
VTL Eco HCS
p1696
sg43
Nssg240
(lp1697
I2758383128
asg242
I00
sg243
I01
sg244
I1
sg245
I0
sg246
I1
sg247
(dp1698
Vy
F-2.0592459999999999
sVx
F1.09153473
sVz
F0.78824675099999997
ssg249
(dp1699
Vy
F1.1021138399999999
sVx
F0.019502218799999999
sVz
F0.077969910000000003
ssg251
I00
sg252
(dp1700
g41
VEG Lunchbox HCS
p1701
sg43
Nssg255
(lp1702
sg257
(lp1703
sg259
I00
sg35
VPT2M20.4889002S
p1704
sg32
VDeath
p1705
sg262
I1
sa(dp1706
g38
I313138863
sg32
VWeaponDrop
p1707
sg180
I12
sg44
(lp1708
I1095363701
asg35
VPT2M20.4968991S
p1709
sg183
I0
sg184
VP0DT0H0M5.8167S
p1710
sg39
(dp1711
g41
VEG Lunchbox HCS
p1712
sg43
Nssa(dp1713
g38
I4096745987
sg32
VWeaponDrop
p1714
sg180
I4
sg44
(lp1715
I2758383128
asg35
VPT2M20.4968991S
p1716
sg183
I0
sg184
VP0DT0H0M13.7167S
p1717
sg39
(dp1718
g41
VEG Lunchbox HCS
p1719
sg43
Nssa(dp1720
g38
I2244200496
sg32
VWeaponDrop
p1721
sg180
I0
sg44
(lp1722
I2758383128
asg35
VPT2M23.6885429S
p1723
sg183
I0
sg184
VP0DT0H0M3.1167S
p1724
sg39
(dp1725
g41
VEG SuspectorHCS
p1726
sg43
Nssa(dp1727
g32
VImpulse
p1728
sg39
(dp1729
g41
VEG SuspectorHCS
p1730
sg43
Nssg273
I3435524855
sg35
VPT2M23.6889273S
p1731
sa(dp1732
g32
VMedal
p1733
sg39
(dp1734
g41
VTL Eco HCS
p1735
sg43
Nssg267
I3400287617
sg35
VPT2M24.573997S
p1736
sa(dp1737
g38
I2244200496
sg39
(dp1738
g41
VEG SuspectorHCS
p1739
sg43
Nssg44
(lp1740
I2758383128
asg32
VWeaponPickup
p1741
sg35
VPT2M24.7709271S
p1742
sa(dp1743
g32
VImpulse
p1744
sg39
(dp1745
g41
VEG SuspectorHCS
p1746
sg43
Nssg273
I4191318012
sg35
VPT2M24.7709271S
p1747
sa(dp1748
g38
I2244200496
sg32
VWeaponDrop
p1749
sg180
I0
sg44
(lp1750
I2758383128
asg35
VPT2M26.4539364S
p1751
sg183
I0
sg184
VP0DT0H0M1.5167S
p1752
sg39
(dp1753
g41
VEG SuspectorHCS
p1754
sg43
Nssa(dp1755
g32
VImpulse
p1756
sg39
(dp1757
g41
VEG SuspectorHCS
p1758
sg43
Nssg273
I3435524855
sg35
VPT2M26.4549391S
p1759
sa(dp1760
g234
I313138863
sg235
I00
sg236
I00
sg237
(dp1761
g41
VTL StelluR
p1762
sg43
Nssg240
(lp1763
I1095363701
asg242
I00
sg243
I01
sg244
I1
sg245
I0
sg246
I1
sg247
(dp1764
Vy
F14.09559
sVx
F0.71080976699999998
sVz
F0.59986633099999997
ssg249
(dp1765
Vy
F16.862653699999999
sVx
F1.6092127599999999
sVz
F0.84524476500000001
ssg251
I00
sg252
(dp1766
g41
VEG Snip3downHCS
p1767
sg43
Nssg255
(lp1768
sg257
(lp1769
sg259
I00
sg35
VPT2M26.5409379S
p1770
sg32
VDeath
p1771
sg262
I1
sa(dp1772
g38
I313138863
sg32
VWeaponDrop
p1773
sg180
I0
sg44
(lp1774
I1095363701
asg35
VPT2M26.5429382S
p1775
sg183
I0
sg184
VP0DT0H0M5.2500S
p1776
sg39
(dp1777
g41
VEG Snip3downHCS
p1778
sg43
Nssa(dp1779
g38
I2511447508
sg32
VWeaponDrop
p1780
sg180
I14
sg44
(lp1781
I2758383128
asg35
VPT2M26.5429382S
p1782
sg183
I7
sg184
VP0DT0H0M41.0667S
p1783
sg39
(dp1784
g41
VEG Snip3downHCS
p1785
sg43
Nssa(dp1786
g38
I2244200496
sg39
(dp1787
g41
VEG SuspectorHCS
p1788
sg43
Nssg44
(lp1789
I2758383128
asg32
VWeaponPickup
p1790
sg35
VPT2M27.3869421S
p1791
sa(dp1792
g32
VImpulse
p1793
sg39
(dp1794
g41
VEG SuspectorHCS
p1795
sg43
Nssg273
I4191318012
sg35
VPT2M27.3879448S
p1796
sa(dp1797
g38
I313138863
sg39
(dp1798
g41
VTL Assault HCS
p1799
sg43
Nssg44
(lp1800
I1095363701
asg32
VWeaponPickup
p1801
sg35
VPT2M27.5759466S
p1802
sa(dp1803
g38
I4096745987
sg39
(dp1804
g41
VTL Assault HCS
p1805
sg43
Nssg44
(lp1806
I2758383128
asg32
VWeaponPickup
p1807
sg35
VPT2M27.5759466S
p1808
sa(dp1809
g32
VPlayerSpawn
p1810
sg39
(dp1811
g41
VTL Assault HCS
p1812
sg43
Nssg35
VPT2M27.5759466S
p1813
sa(dp1814
g38
I313138863
sg39
(dp1815
g41
VEG Roy HCS
p1816
sg43
Nssg44
(lp1817
I1095363701
asg32
VWeaponPickup
p1818
sg35
VPT2M27.6059467S
p1819
sa(dp1820
g38
I4096745987
sg39
(dp1821
g41
VEG Roy HCS
p1822
sg43
Nssg44
(lp1823
I2758383128
asg32
VWeaponPickup
p1824
sg35
VPT2M27.6059467S
p1825
sa(dp1826
g32
VPlayerSpawn
p1827
sg39
(dp1828
g41
VEG Roy HCS
p1829
sg43
Nssg35
VPT2M27.6059467S
p1830
sa(dp1831
g38
I313138863
sg39
(dp1832
g41
VEG Lunchbox HCS
p1833
sg43
Nssg44
(lp1834
I1095363701
asg32
VWeaponPickup
p1835
sg35
VPT2M28.5125455S
p1836
sa(dp1837
g38
I4096745987
sg39
(dp1838
g41
VEG Lunchbox HCS
p1839
sg43
Nssg44
(lp1840
I2758383128
asg32
VWeaponPickup
p1841
sg35
VPT2M28.5129525S
p1842
sa(dp1843
g32
VPlayerSpawn
p1844
sg39
(dp1845
g41
VEG Lunchbox HCS
p1846
sg43
Nssg35
VPT2M28.5129525S
p1847
sa(dp1848
g38
I2244200496
sg32
VWeaponDrop
p1849
sg180
I0
sg44
(lp1850
I2758383128
asg35
VPT2M28.8539532S
p1851
sg183
I0
sg184
VP0DT0H0M1.2833S
p1852
sg39
(dp1853
g41
VEG SuspectorHCS
p1854
sg43
Nssa(dp1855
g32
VImpulse
p1856
sg39
(dp1857
g41
VEG SuspectorHCS
p1858
sg43
Nssg273
I3435524855
sg35
VPT2M28.860133S
p1859
sa(dp1860
g234
I3682788176
sg235
I00
sg236
I00
sg237
(dp1861
g41
VTL Eco HCS
p1862
sg43
Nssg240
(lp1863
I2758383128
asg242
I00
sg243
I01
sg244
I1
sg245
I0
sg246
I1
sg247
(dp1864
Vy
F-11.305643999999999
sVx
F0.5415835
sVz
F0.81405400000000006
ssg249
(dp1865
Vy
F-11.188575699999999
sVx
F5.9842543600000004
sVz
F0.85800220000000005
ssg251
I00
sg252
(dp1866
g41
VEG Roy HCS
p1867
sg43
Nssg255
(lp1868
sg257
(lp1869
sg259
I00
sg35
VPT2M30.3609629S
p1870
sg32
VDeath
p1871
sg262
I1
sa(dp1872
g38
I313138863
sg32
VWeaponDrop
p1873
sg180
I0
sg44
(lp1874
I1095363701
asg35
VPT2M30.3619627S
p1875
sg183
I0
sg184
VP0DT0H0M0.6000S
p1876
sg39
(dp1877
g41
VEG Roy HCS
p1878
sg43
Nssa(dp1879
g38
I4096745987
sg32
VWeaponDrop
p1880
sg180
I1
sg44
(lp1881
I2758383128
asg35
VPT2M30.3619627S
p1882
sg183
I1
sg184
VP0DT0H0M2.1500S
p1883
sg39
(dp1884
g41
VEG Roy HCS
p1885
sg43
Nssa(dp1886
g38
I2492868984
sg39
(dp1887
g41
VTL Spartan HCS
p1888
sg43
Nssg44
(lp1889
I2758383128
asg32
VWeaponPickup
p1890
sg35
VPT2M32.2269749S
p1891
sa(dp1892
g38
I2492868984
sg32
VWeaponDrop
p1893
sg180
I0
sg44
(lp1894
I2758383128
asg35
VPT2M33.3729833S
p1895
sg183
I0
sg184
VP0DT0H0M1.0000S
p1896
sg39
(dp1897
g41
VTL Spartan HCS
p1898
sg43
Nssa(dp1899
g38
I313138863
sg39
(dp1900
g41
VEG Snip3downHCS
p1901
sg43
Nssg44
(lp1902
I1095363701
asg32
VWeaponPickup
p1903
sg35
VPT2M34.5579911S
p1904
sa(dp1905
g38
I4096745987
sg39
(dp1906
g41
VEG Snip3downHCS
p1907
sg43
Nssg44
(lp1908
I2758383128
asg32
VWeaponPickup
p1909
sg35
VPT2M34.5579911S
p1910
sa(dp1911
g32
VPlayerSpawn
p1912
sg39
(dp1913
g41
VEG Snip3downHCS
p1914
sg43
Nssg35
VPT2M34.5579911S
p1915
sa(dp1916
g38
I313138863
sg39
(dp1917
g41
VEG Roy HCS
p1918
sg43
Nssg44
(lp1919
I1095363701
asg32
VWeaponPickup
p1920
sg35
VPT2M38.3780166S
p1921
sa(dp1922
g38
I4096745987
sg39
(dp1923
g41
VEG Roy HCS
p1924
sg43
Nssg44
(lp1925
I2758383128
asg32
VWeaponPickup
p1926
sg35
VPT2M38.3790554S
p1927
sa(dp1928
g32
VPlayerSpawn
p1929
sg39
(dp1930
g41
VEG Roy HCS
p1931
sg43
Nssg35
VPT2M38.3790554S
p1932
sa(dp1933
g234
I3682788176
sg235
I00
sg236
I00
sg237
(dp1934
g41
VTL Eco HCS
p1935
sg43
Nssg240
(lp1936
I2758383128
asg242
I00
sg243
I01
sg244
I1
sg245
I0
sg246
I1
sg247
(dp1937
Vy
F-14.446661900000001
sVx
F0.71188580000000001
sVz
F1.6285067799999999
ssg249
(dp1938
Vy
F-10.6989641
sVx
F-16.547906900000001
sVz
F2.6792287800000002e-05
ssg251
I00
sg252
(dp1939
g41
VEG Roy HCS
p1940
sg43
Nssg255
(lp1941
sg257
(lp1942
sg259
I00
sg35
VPT2M39.2230207S
p1943
sg32
VDeath
p1944
sg262
I1
sa(dp1945
g38
I313138863
sg32
VWeaponDrop
p1946
sg180
I0
sg44
(lp1947
I1095363701
asg35
VPT2M39.2250211S
p1948
sg183
I0
sg184
VP0DT0H0M0.8000S
p1949
sg39
(dp1950
g41
VEG Roy HCS
p1951
sg43
Nssa(dp1952
g38
I4096745987
sg32
VWeaponDrop
p1953
sg180
I0
sg44
(lp1954
I2758383128
asg35
VPT2M39.2250211S
p1955
sg183
I0
sg184
VP0DT0H0M0.0500S
p1956
sg39
(dp1957
g41
VEG Roy HCS
p1958
sg43
Nssa(dp1959
g234
I2511447508
sg235
I00
sg236
I00
sg237
(dp1960
g41
VEG SuspectorHCS
p1961
sg43
Nssg240
(lp1962
I2758383128
asg242
I00
sg243
I01
sg244
I1
sg245
I0
sg246
I1
sg247
(dp1963
Vy
F-2.8966343399999999
sVx
F11.628545799999999
sVz
F1.4366202400000001
ssg249
(dp1964
Vy
F-0.025473900000000001
sVx
F10.656359999999999
sVz
F1.07861567
ssg251
I00
sg252
(dp1965
g41
VTL StelluR
p1966
sg43
Nssg255
(lp1967
sg257
(lp1968
sg259
I01
sg35
VPT2M39.2880253S
p1969
sg32
VDeath
p1970
sg262
I1
sa(dp1971
g32
VMedal
p1972
sg39
(dp1973
g41
VEG SuspectorHCS
p1974
sg43
Nssg267
I3261908037
sg35
VPT2M39.2963562S
p1975
sa(dp1976
g38
I313138863
sg32
VWeaponDrop
p1977
sg180
I25
sg44
(lp1978
I1095363701
asg35
VPT2M39.2970198S
p1979
sg183
I14
sg184
VP0DT0H0M5.2500S
p1980
sg39
(dp1981
g41
VTL StelluR
p1982
sg43
Nssa(dp1983
g38
I4096745987
sg32
VWeaponDrop
p1984
sg180
I7
sg44
(lp1985
I2758383128
asg35
VPT2M39.2970198S
p1986
sg183
I2
sg184
VP0DT0H0M13.9833S
p1987
sg39
(dp1988
g41
VTL StelluR
p1989
sg43
Nssa(dp1990
g234
I313138863
sg235
I00
sg236
I00
sg237
(dp1991
g41
VEG Lunchbox HCS
p1992
sg43
Nssg240
(lp1993
I1095363701
asg242
I00
sg243
I01
sg244
I1
sg245
I0
sg246
I1
sg247
(dp1994
Vy
F-7.1812509999999996
sVx
F13.7213888
sVz
F5.12599945e-06
ssg249
(dp1995
Vy
F-8.2706379999999999
sVx
F12.0231428
sVz
F1.0552572
ssg251
I00
sg252
(dp1996
g41
VTL Assault HCS
p1997
sg43
Nssg255
(lp1998
sg257
(lp1999
(dp2000
g41
VEG SuspectorHCS
p2001
sg43
Nsasg259
I00
sg35
VPT2M42.8400423S
p2002
sg32
VDeath
p2003
sg262
I1
sa(dp2004
g38
I313138863
sg32
VWeaponDrop
p2005
sg180
I0
sg44
(lp2006
I1095363701
asg35
VPT2M42.8420431S
p2007
sg183
I0
sg184
VP0DT0H0M3.7167S
p2008
sg39
(dp2009
g41
VTL Assault HCS
p2010
sg43
Nssa(dp2011
g38
I4096745987
sg32
VWeaponDrop
p2012
sg180
I1
sg44
(lp2013
I2758383128
asg35
VPT2M42.8420431S
p2014
sg183
I0
sg184
VP0DT0H0M11.5500S
p2015
sg39
(dp2016
g41
VTL Assault HCS
p2017
sg43
Nssa(dp2018
g38
I2244200496
sg39
(dp2019
g41
VEG Lunchbox HCS
p2020
sg43
Nssg44
(lp2021
I2758383128
asg32
VWeaponPickup
p2022
sg35
VPT2M43.6870511S
p2023
sa(dp2024
g32
VImpulse
p2025
sg39
(dp2026
g41
VEG Lunchbox HCS
p2027
sg43
Nssg273
I4191318012
sg35
VPT2M43.69418S
p2028
sa(dp2029
g38
I2244200496
sg39
(dp2030
g41
VTL Eco HCS
p2031
sg43
Nssg44
(lp2032
I2758383128
asg32
VWeaponPickup
p2033
sg35
VPT2M45.086055S
p2034
sa(dp2035
g32
VImpulse
p2036
sg39
(dp2037
g41
VTL Eco HCS
p2038
sg43
Nssg273
I4191318012
sg35
VPT2M45.0870568S
p2039
sa(dp2040
g32
VImpulse
p2041
sg39
(dp2042
g41
VTL Eco HCS
p2043
sg43
Nssg273
I1039658009
sg35
VPT2M45.0870568S
p2044
sa(dp2045
g38
I2244200496
sg32
VWeaponDrop
p2046
sg180
I0
sg44
(lp2047
I2758383128
asg35
VPT2M45.1050565S
p2048
sg183
I0
sg184
VP0DT0H0M1.2500S
p2049
sg39
(dp2050
g41
VEG Lunchbox HCS
p2051
sg43
Nssa(dp2052
g32
VImpulse
p2053
sg39
(dp2054
g41
VEG Lunchbox HCS
p2055
sg43
Nssg273
I3435524855
sg35
VPT2M45.1050565S
p2056
sa(dp2057
g38
I2244200496
sg32
VWeaponDrop
p2058
sg180
I0
sg44
(lp2059
I2758383128
asg35
VPT2M45.770061S
p2060
sg183
I0
sg184
VP0DT0H0M0.5167S
p2061
sg39
(dp2062
g41
VTL Eco HCS
p2063
sg43
Nssa(dp2064
g32
VImpulse
p2065
sg39
(dp2066
g41
VTL Eco HCS
p2067
sg43
Nssg273
I3435524855
sg35
VPT2M45.770061S
p2068
sa(dp2069
g234
I4096745987
sg235
I00
sg236
I00
sg237
(dp2070
g41
VEG Snip3downHCS
p2071
sg43
Nssg240
(lp2072
I2758383128
asg242
I00
sg243
I01
sg244
I1
sg245
I0
sg246
I1
sg247
(dp2073
Vy
F-5.2696139999999998
sVx
F-6.0943026500000004
sVz
F9.9241730000000001e-06
ssg249
(dp2074
Vy
F-11.225327500000001
sVx
F-11.3367939
sVz
F0.61711749999999999
ssg251
I00
sg252
(dp2075
g41
VTL Eco HCS
p2076
sg43
Nssg255
(lp2077
sg257
(lp2078
(dp2079
g41
VEG SuspectorHCS
p2080
sg43
Nsasg259
I01
sg35
VPT2M46.0710633S
p2081
sg32
VDeath
p2082
sg262
I1
sa(dp2083
g32
VMedal
p2084
sg39
(dp2085
g41
VEG Snip3downHCS
p2086
sg43
Nssg267
I164204247
sg35
VPT2M46.0780626S
p2087
sa(dp2088
g32
VMedal
p2089
sg39
(dp2090
g41
VEG Snip3downHCS
p2091
sg43
Nssg267
I3261908037
sg35
VPT2M46.0780626S
p2092
sa(dp2093
g38
I3682788176
sg32
VWeaponDrop
p2094
sg180
I3
sg44
(lp2095
I2758383128
asg35
VPT2M46.0790635S
p2096
sg183
I3
sg184
VP0DT0H0M26.8833S
p2097
sg39
(dp2098
g41
VTL Eco HCS
p2099
sg43
Nssa(dp2100
g38
I3682788176
sg32
VWeaponDrop
p2101
sg180
I0
sg44
(lp2102
I2758383128
asg35
VPT2M46.0790635S
p2103
sg183
I0
sg184
VP0DT0S
p2104
sg39
(dp2105
g41
VTL Eco HCS
p2106
sg43
Nssa(dp2107
g38
I4096745987
sg32
VWeaponDrop
p2108
sg180
I2
sg44
(lp2109
I2758383128
asg35
VPT2M46.0790635S
p2110
sg183
I0
sg184
VP0DT0H0M29.0000S
p2111
sg39
(dp2112
g41
VTL Eco HCS
p2113
sg43
Nssa(dp2114
g38
I313138863
sg39
(dp2115
g41
VEG Roy HCS
p2116
sg43
Nssg44
(lp2117
I1095363701
asg32
VWeaponPickup
p2118
sg35
VPT2M47.2380714S
p2119
sa(dp2120
g38
I4096745987
sg39
(dp2121
g41
VEG Roy HCS
p2122
sg43
Nssg44
(lp2123
I2758383128
asg32
VWeaponPickup
p2124
sg35
VPT2M47.2380714S
p2125
sa(dp2126
g32
VPlayerSpawn
p2127
sg39
(dp2128
g41
VEG Roy HCS
p2129
sg43
Nssg35
VPT2M47.2380714S
p2130
sa(dp2131
g38
I313138863
sg39
(dp2132
g41
VTL StelluR
p2133
sg43
Nssg44
(lp2134
I1095363701
asg32
VWeaponPickup
p2135
sg35
VPT2M47.3050711S
p2136
sa(dp2137
g38
I4096745987
sg39
(dp2138
g41
VTL StelluR
p2139
sg43
Nssg44
(lp2140
I2758383128
asg32
VWeaponPickup
p2141
sg35
VPT2M47.3050711S
p2142
sa(dp2143
g32
VPlayerSpawn
p2144
sg39
(dp2145
g41
VTL StelluR
p2146
sg43
Nssg35
VPT2M47.3050711S
p2147
sa(dp2148
g38
I2244200496
sg39
(dp2149
g41
VEG Lunchbox HCS
p2150
sg43
Nssg44
(lp2151
I2758383128
asg32
VWeaponPickup
p2152
sg35
VPT2M47.3860702S
p2153
sa(dp2154
g32
VImpulse
p2155
sg39
(dp2156
g41
VEG Lunchbox HCS
p2157
sg43
Nssg273
I4191318012
sg35
VPT2M47.3870716S
p2158
sa(dp2159
g38
I4096745987
sg32
VWeaponDrop
p2160
sg180
I6
sg44
(lp2161
I2758383128
asg35
VPT2M48.4914071S
p2162
sg183
I2
sg184
VP0DT0H0M13.5833S
p2163
sg39
(dp2164
g41
VEG Snip3downHCS
p2165
sg43
Nssa(dp2166
g38
I424645655
sg39
(dp2167
g41
VEG Snip3downHCS
p2168
sg43
Nssg44
(lp2169
I1327094800
asg32
VWeaponPickup
p2170
sg35
VPT2M48.4914738S
p2171
sa(dp2172
g38
I2244200496
sg32
VWeaponDrop
p2173
sg180
I0
sg44
(lp2174
I2758383128
asg35
VPT2M50.9421702S
p2175
sg183
I0
sg184
VP0DT0H0M3.2833S
p2176
sg39
(dp2177
g41
VEG Lunchbox HCS
p2178
sg43
Nssa(dp2179
g32
VImpulse
p2180
sg39
(dp2181
g41
VEG Lunchbox HCS
p2182
sg43
Nssg273
I3435524855
sg35
VPT2M50.9430952S
p2183
sa(dp2184
g38
I313138863
sg39
(dp2185
g41
VTL Assault HCS
p2186
sg43
Nssg44
(lp2187
I1095363701
asg32
VWeaponPickup
p2188
sg35
VPT2M50.9730948S
p2189
sa(dp2190
g38
I4096745987
sg39
(dp2191
g41
VTL Assault HCS
p2192
sg43
Nssg44
(lp2193
I2758383128
asg32
VWeaponPickup
p2194
sg35
VPT2M50.9740952S
p2195
sa(dp2196
g32
VPlayerSpawn
p2197
sg39
(dp2198
g41
VTL Assault HCS
p2199
sg43
Nssg35
VPT2M50.9740952S
p2200
sa(dp2201
g234
I424645655
sg235
I00
sg236
I00
sg237
(dp2202
g41
VEG Snip3downHCS
p2203
sg43
Nssg240
(lp2204
I1327094800
asg242
I00
sg243
I01
sg244
I1
sg245
I0
sg246
I1
sg247
(dp2205
Vy
F-9.4129609999999992
sVx
F-11.8666725
sVz
F0.63931879999999996
ssg249
(dp2206
Vy
F-2.56623745
sVx
F-12.2001715
sVz
F0.99745740000000005
ssg251
I00
sg252
(dp2207
g41
VTL Spartan HCS
p2208
sg43
Nssg255
(lp2209
sg257
(lp2210
(dp2211
g41
VEG Roy HCS
p2212
sg43
Nsasg259
I01
sg35
VPT2M51.3410975S
p2213
sg32
VDeath
p2214
sg262
I1
sa(dp2215
g32
VMedal
p2216
sg39
(dp2217
g41
VEG Snip3downHCS
p2218
sg43
Nssg267
I3261908037
sg35
VPT2M51.3420973S
p2219
sa(dp2220
g38
I313138863
sg32
VWeaponDrop
p2221
sg180
I19
sg44
(lp2222
I1095363701
asg35
VPT2M51.3420973S
p2223
sg183
I13
sg184
VP0DT0H0M15.2833S
p2224
sg39
(dp2225
g41
VTL Spartan HCS
p2226
sg43
Nssa(dp2227
g38
I4096745987
sg32
VWeaponDrop
p2228
sg180
I2
sg44
(lp2229
I2758383128
asg35
VPT2M51.3420973S
p2230
sg183
I1
sg184
VP0DT0H0M15.1000S
p2231
sg39
(dp2232
g41
VTL Spartan HCS
p2233
sg43
Nssa(dp2234
g38
I2244200496
sg39
(dp2235
g41
VEG Lunchbox HCS
p2236
sg43
Nssg44
(lp2237
I2758383128
asg32
VWeaponPickup
p2238
sg35
VPT2M52.1748772S
p2239
sa(dp2240
g32
VImpulse
p2241
sg39
(dp2242
g41
VEG Lunchbox HCS
p2243
sg43
Nssg273
I4191318012
sg35
VPT2M52.1751026S
p2244
sa(dp2245
g38
I2244200496
sg32
VWeaponDrop
p2246
sg180
I0
sg44
(lp2247
I2758383128
asg35
VPT2M52.5586299S
p2248
sg183
I0
sg184
VP0DT0H0M0.2333S
p2249
sg39
(dp2250
g41
VEG Lunchbox HCS
p2251
sg43
Nssa(dp2252
g32
VImpulse
p2253
sg39
(dp2254
g41
VEG Lunchbox HCS
p2255
sg43
Nssg273
I3435524855
sg35
VPT2M52.5591063S
p2256
sa(dp2257
g38
I2244200496
sg39
(dp2258
g41
VEG Lunchbox HCS
p2259
sg43
Nssg44
(lp2260
I2758383128
asg32
VWeaponPickup
p2261
sg35
VPT2M53.5061107S
p2262
sa(dp2263
g32
VImpulse
p2264
sg39
(dp2265
g41
VEG Lunchbox HCS
p2266
sg43
Nssg273
I4191318012
sg35
VPT2M53.5061107S
p2267
sa(dp2268
g38
I313138863
sg39
(dp2269
g41
VTL Eco HCS
p2270
sg43
Nssg44
(lp2271
I1095363701
asg32
VWeaponPickup
p2272
sg35
VPT2M54.2041158S
p2273
sa(dp2274
g38
I4096745987
sg39
(dp2275
g41
VTL Eco HCS
p2276
sg43
Nssg44
(lp2277
I2758383128
asg32
VWeaponPickup
p2278
sg35
VPT2M54.2106527S
p2279
sa(dp2280
g32
VPlayerSpawn
p2281
sg39
(dp2282
g41
VTL Eco HCS
p2283
sg43
Nssg35
VPT2M54.2107192S
p2284
sa(dp2285
g38
I313138863
sg32
VWeaponDrop
p2286
sg180
I0
sg44
(lp2287
I1095363701
asg35
VPT2M54.4063242S
p2288
sg183
I0
sg184
VP0DT0H0M2.0833S
p2289
sg39
(dp2290
g41
VTL Assault HCS
p2291
sg43
Nssa(dp2292
g38
I2511447508
sg39
(dp2293
g41
VTL Assault HCS
p2294
sg43
Nssg44
(lp2295
I2758383128
asg32
VWeaponPickup
p2296
sg35
VPT2M54.4063242S
p2297
sa(dp2298
g32
VMedal
p2299
sg39
(dp2300
g41
VEG Snip3downHCS
p2301
sg43
Nssg267
I3400287617
sg35
VPT2M55.2701224S
p2302
sa(dp2303
g32
VMedal
p2304
sg39
(dp2305
g41
VEG Snip3downHCS
p2306
sg43
Nssg267
I2380717523
sg35
VPT2M56.4031288S
p2307
sa(dp2308
g32
VImpulse
p2309
sg39
(dp2310
g41
VEG Snip3downHCS
p2311
sg43
Nssg273
I1063951891
sg35
VPT2M56.4031288S
p2312
sa(dp2313
g32
VMedal
p2314
sg39
(dp2315
g41
VEG Lunchbox HCS
p2316
sg43
Nssg267
I3886151616
sg35
VPT2M56.4031288S
p2317
sa(dp2318
g32
VMedal
p2319
sg39
(dp2320
g41
VEG SuspectorHCS
p2321
sg43
Nssg267
I1494478183
sg35
VPT2M56.4031288S
p2322
sa(dp2323
g32
VImpulse
p2324
sg39
(dp2325
g41
VEG Lunchbox HCS
p2326
sg43
Nssg273
I2944278681
sg35
VPT2M56.4031288S
p2327
sa(dp2328
g38
I2244200496
sg32
VWeaponDrop
p2329
sg180
I0
sg44
(lp2330
I2758383128
asg35
VPT2M56.4041293S
p2331
sg183
I0
sg184
VP0DT0H0M2.7500S
p2332
sg39
(dp2333
g41
VEG Lunchbox HCS
p2334
sg43
Nssa(dp2335
g38
I4096745987
sg32
VWeaponDrop
p2336
sg180
I0
sg44
(lp2337
I2758383128
asg35
VPT2M57.2556235S
p2338
sg183
I0
sg184
VP0DT0H0M9.9167S
p2339
sg39
(dp2340
g41
VEG Lunchbox HCS
p2341
sg43
Nssa(dp2342
g38
I2511447508
sg39
(dp2343
g41
VEG Lunchbox HCS
p2344
sg43
Nssg44
(lp2345
I2758383128
asg32
VWeaponPickup
p2346
sg35
VPT2M57.2556905S
p2347
sa(dp2348
g38
I313138863
sg39
(dp2349
g41
VTL Spartan HCS
p2350
sg43
Nssg44
(lp2351
I1095363701
asg32
VWeaponPickup
p2352
sg35
VPT2M59.355149S
p2353
sa(dp2354
g38
I4096745987
sg39
(dp2355
g41
VTL Spartan HCS
p2356
sg43
Nssg44
(lp2357
I2758383128
asg32
VWeaponPickup
p2358
sg35
VPT2M59.355149S
p2359
sa(dp2360
g32
VPlayerSpawn
p2361
sg39
(dp2362
g41
VTL Spartan HCS
p2363
sg43
Nssg35
VPT2M59.355149S
p2364
sa(dp2365
g234
I4096745987
sg235
I00
sg236
I00
sg237
(dp2366
g41
VEG Roy HCS
p2367
sg43
Nssg240
(lp2368
I2758383128
asg242
I00
sg243
I01
sg244
I1
sg245
I0
sg246
I1
sg247
(dp2369
Vy
F-0.69278293800000001
sVx
F12.0879259
sVz
F0.740580142
ssg249
(dp2370
Vy
F4.2962480000000003
sVx
F12.189962400000001
sVz
F0.039772479999999999
ssg251
I00
sg252
(dp2371
g41
VTL Eco HCS
p2372
sg43
Nssg255
(lp2373
sg257
(lp2374
sg259
I01
sg35
VPT3M1.8901648S
p2375
sg32
VDeath
p2376
sg262
I1
sa(dp2377
g32
VImpulse
p2378
sg39
(dp2379
g41
VEG Roy HCS
p2380
sg43
Nssg273
I3174430457
sg35
VPT3M1.8921644S
p2381
sa(dp2382
g32
VMedal
p2383
sg39
(dp2384
g41
VEG Roy HCS
p2385
sg43
Nssg267
I3653057799
sg35
VPT3M1.8991627S
p2386
sa(dp2387
g38
I313138863
sg32
VWeaponDrop
p2388
sg180
I0
sg44
(lp2389
I1095363701
asg35
VPT3M1.8991627S
p2390
sg183
I0
sg184
VP0DT0H0M0.6667S
p2391
sg39
(dp2392
g41
VTL Eco HCS
p2393
sg43
Nssa(dp2394
g38
I4096745987
sg32
VWeaponDrop
p2395
sg180
I4
sg44
(lp2396
I2758383128
asg35
VPT3M1.8991627S
p2397
sg183
I4
sg184
VP0DT0H0M7.0167S
p2398
sg39
(dp2399
g41
VTL Eco HCS
p2400
sg43
Nssa(dp2401
g234
I2511447508
sg235
I00
sg236
I00
sg237
(dp2402
g41
VTL Assault HCS
p2403
sg43
Nssg240
(lp2404
I2758383128
asg242
I00
sg243
I01
sg244
I1
sg245
I0
sg246
I1
sg247
(dp2405
Vy
F-0.53464883600000002
sVx
F18.76069
sVz
F1.39993083
ssg249
(dp2406
Vy
F0.42337873599999998
sVx
F13.582063700000001
sVz
F1.44186306
ssg251
I00
sg252
(dp2407
g41
VEG SuspectorHCS
p2408
sg43
Nssg255
(lp2409
sg257
(lp2410
sg259
I01
sg35
VPT3M3.7761764S
p2411
sg32
VDeath
p2412
sg262
I1
sa(dp2413
g32
VMedal
p2414
sg39
(dp2415
g41
VTL Assault HCS
p2416
sg43
Nssg267
I3261908037
sg35
VPT3M3.7781764S
p2417
sa(dp2418
g38
I2511447508
sg32
VWeaponDrop
p2419
sg180
I23
sg44
(lp2420
I2758383128
asg35
VPT3M3.7791768S
p2421
sg183
I17
sg184
VP0DT0H1M15.6667S
p2422
sg39
(dp2423
g41
VEG SuspectorHCS
p2424
sg43
Nssa(dp2425
g38
I313138863
sg32
VWeaponDrop
p2426
sg180
I8
sg44
(lp2427
I1095363701
asg35
VPT3M3.7856621S
p2428
sg183
I7
sg184
VP0DT0H0M7.9333S
p2429
sg39
(dp2430
g41
VEG SuspectorHCS
p2431
sg43
Nssa(dp2432
g38
I313138863
sg32
VWeaponDrop
p2433
sg180
I0
sg44
(lp2434
I1095363701
asg35
VPT3M3.7856621S
p2435
sg183
I0
sg184
VP0DT0S
p2436
sg39
(dp2437
g41
VEG SuspectorHCS
p2438
sg43
Nssa(dp2439
g234
I4096745987
sg235
I00
sg236
I01
sg237
(dp2440
g41
VTL StelluR
p2441
sg43
Nssg240
(lp2442
I2758383128
asg242
I00
sg243
I00
sg244
I1
sg245
I0
sg246
I1
sg247
(dp2443
Vy
F4.0230045299999997
sVx
F-4.7699265500000001
sVz
F1.10606611
ssg249
(dp2444
Vy
F4.0652294199999996
sVx
F-5.1221766500000001
sVz
F0.92980963000000005
ssg251
I00
sg252
(dp2445
g41
VEG Lunchbox HCS
p2446
sg43
Nssg255
(lp2447
sg257
(lp2448
sg259
I00
sg35
VPT3M6.5401949S
p2449
sg32
VDeath
p2450
sg262
I1
sa(dp2451
g32
VMedal
p2452
sg39
(dp2453
g41
VTL StelluR
p2454
sg43
Nssg267
I2287626681
sg35
VPT3M6.541195S
p2455
sa(dp2456
g38
I2511447508
sg32
VWeaponDrop
p2457
sg180
I1
sg44
(lp2458
I2758383128
asg35
VPT3M6.541195S
p2459
sg183
I0
sg184
VP0DT0H0M9.2833S
p2460
sg39
(dp2461
g41
VEG Lunchbox HCS
p2462
sg43
Nssa(dp2463
g38
I313138863
sg32
VWeaponDrop
p2464
sg180
I20
sg44
(lp2465
I1095363701
asg35
VPT3M6.5421952S
p2466
sg183
I12
sg184
VP0DT0H0M11.2000S
p2467
sg39
(dp2468
g41
VEG Lunchbox HCS
p2469
sg43
Nssa(dp2470
g234
I424645655
sg235
I00
sg236
I00
sg237
(dp2471
g41
VEG Snip3downHCS
p2472
sg43
Nssg240
(lp2473
I1327094800
asg242
I00
sg243
I01
sg244
I1
sg245
I0
sg246
I1
sg247
(dp2474
Vy
F10.727253899999999
sVx
F-12.2702627
sVz
F0.93925700000000001
ssg249
(dp2475
Vy
F10.9769831
sVx
F12.1864271
sVz
F0.60020673300000005
ssg251
I00
sg252
(dp2476
g41
VTL Spartan HCS
p2477
sg43
Nssg255
(lp2478
sg257
(lp2479
sg259
I01
sg35
VPT3M7.2081997S
p2480
sg32
VDeath
p2481
sg262
I1
sa(dp2482
g32
VImpulse
p2483
sg39
(dp2484
g41
VEG Snip3downHCS
p2485
sg43
Nssg273
I3174430457
sg35
VPT3M7.2101995S
p2486
sa(dp2487
g32
VMedal
p2488
sg39
(dp2489
g41
VEG Snip3downHCS
p2490
sg43
Nssg267
I1080468863
sg35
VPT3M7.2175154S
p2491
sa(dp2492
g38
I4096745987
sg32
VWeaponDrop
p2493
sg180
I1
sg44
(lp2494
I2758383128
asg35
VPT3M7.2181993S
p2495
sg183
I0
sg184
VP0DT0H0M6.1167S
p2496
sg39
(dp2497
g41
VTL Spartan HCS
p2498
sg43
Nssa(dp2499
g38
I313138863
sg32
VWeaponDrop
p2500
sg180
I0
sg44
(lp2501
I1095363701
asg35
VPT3M7.2191996S
p2502
sg183
I0
sg184
VP0DT0H0M1.7333S
p2503
sg39
(dp2504
g41
VTL Spartan HCS
p2505
sg43
Nssa(dp2506
g38
I313138863
sg39
(dp2507
g41
VTL Eco HCS
p2508
sg43
Nssg44
(lp2509
I1095363701
asg32
VWeaponPickup
p2510
sg35
VPT3M9.9032155S
p2511
sa(dp2512
g38
I4096745987
sg39
(dp2513
g41
VTL Eco HCS
p2514
sg43
Nssg44
(lp2515
I2758383128
asg32
VWeaponPickup
p2516
sg35
VPT3M9.9042163S
p2517
sa(dp2518
g32
VPlayerSpawn
p2519
sg39
(dp2520
g41
VTL Eco HCS
p2521
sg43
Nssg35
VPT3M9.9042163S
p2522
sa(dp2523
g38
I313138863
sg39
(dp2524
g41
VEG SuspectorHCS
p2525
sg43
Nssg44
(lp2526
I1095363701
asg32
VWeaponPickup
p2527
sg35
VPT3M11.7936979S
p2528
sa(dp2529
g38
I4096745987
sg39
(dp2530
g41
VEG SuspectorHCS
p2531
sg43
Nssg44
(lp2532
I2758383128
asg32
VWeaponPickup
p2533
sg35
VPT3M11.7942291S
p2534
sa(dp2535
g32
VPlayerSpawn
p2536
sg39
(dp2537
g41
VEG SuspectorHCS
p2538
sg43
Nssg35
VPT3M11.7942291S
p2539
sa(dp2540
g38
I313138863
sg39
(dp2541
g41
VEG Lunchbox HCS
p2542
sg43
Nssg44
(lp2543
I1095363701
asg32
VWeaponPickup
p2544
sg35
VPT3M14.559247S
p2545
sa(dp2546
g38
I4096745987
sg39
(dp2547
g41
VEG Lunchbox HCS
p2548
sg43
Nssg44
(lp2549
I2758383128
asg32
VWeaponPickup
p2550
sg35
VPT3M14.5602462S
p2551
sa(dp2552
g32
VPlayerSpawn
p2553
sg39
(dp2554
g41
VEG Lunchbox HCS
p2555
sg43
Nssg35
VPT3M14.5602462S
p2556
sa(dp2557
g234
I4096745987
sg235
I00
sg236
I00
sg237
(dp2558
g41
VTL Eco HCS
p2559
sg43
Nssg240
(lp2560
I2758383128
asg242
I00
sg243
I01
sg244
I1
sg245
I0
sg246
I1
sg247
(dp2561
Vy
F9.1644799999999993
sVx
F6.5813959999999998
sVz
F4.7385692599999997e-06
ssg249
(dp2562
Vy
F7.9272832900000001
sVx
F-2.9316947500000001
sVz
F-3.5703182200000001e-05
ssg251
I00
sg252
(dp2563
g41
VEG Snip3downHCS
p2564
sg43
Nssg255
(lp2565
sg257
(lp2566
(dp2567
g41
VTL Assault HCS
p2568
sg43
Nsasg259
I01
sg35
VPT3M14.7032468S
p2569
sg32
VDeath
p2570
sg262
I1
sa(dp2571
g32
VMedal
p2572
sg39
(dp2573
g41
VTL Eco HCS
p2574
sg43
Nssg267
I3261908037
sg35
VPT3M14.7052471S
p2575
sa(dp2576
g38
I313138863
sg32
VWeaponDrop
p2577
sg180
I0
sg44
(lp2578
I1095363701
asg35
VPT3M14.711995S
p2579
sg183
I0
sg184
VP0DT0H0M0.3500S
p2580
sg39
(dp2581
g41
VEG Snip3downHCS
p2582
sg43
Nssa(dp2583
g38
I424645655
sg32
VWeaponDrop
p2584
sg180
I45
sg44
(lp2585
I1327094800
asg35
VPT3M14.711995S
p2586
sg183
I24
sg184
VP0DT0H0M26.1000S
p2587
sg39
(dp2588
g41
VEG Snip3downHCS
p2589
sg43
Nssa(dp2590
g38
I313138863
sg39
(dp2591
g41
VTL Spartan HCS
p2592
sg43
Nssg44
(lp2593
I1095363701
asg32
VWeaponPickup
p2594
sg35
VPT3M15.2202503S
p2595
sa(dp2596
g38
I4096745987
sg39
(dp2597
g41
VTL Spartan HCS
p2598
sg43
Nssg44
(lp2599
I2758383128
asg32
VWeaponPickup
p2600
sg35
VPT3M15.2212506S
p2601
sa(dp2602
g32
VPlayerSpawn
p2603
sg39
(dp2604
g41
VTL Spartan HCS
p2605
sg43
Nssg35
VPT3M15.2212506S
p2606
sa(dp2607
g38
I4096745987
sg32
VWeaponDrop
p2608
sg180
I0
sg44
(lp2609
I2758383128
asg35
VPT3M19.9912832S
p2610
sg183
I0
sg184
VP0DT0H0M1.8500S
p2611
sg39
(dp2612
g41
VTL Assault HCS
p2613
sg43
Nssa(dp2614
g38
I313138863
sg39
(dp2615
g41
VTL Assault HCS
p2616
sg43
Nssg44
(lp2617
I1095363701
asg32
VWeaponPickup
p2618
sg35
VPT3M19.9912832S
p2619
sa(dp2620
g38
I4096745987
sg32
VWeaponDrop
p2621
sg180
I0
sg44
(lp2622
I2758383128
asg35
VPT3M20.4022834S
p2623
sg183
I0
sg184
VP0DT0H0M2.9833S
p2624
sg39
(dp2625
g41
VEG Lunchbox HCS
p2626
sg43
Nssa(dp2627
g38
I2511447508
sg39
(dp2628
g41
VEG Lunchbox HCS
p2629
sg43
Nssg44
(lp2630
I2758383128
asg32
VWeaponPickup
p2631
sg35
VPT3M20.4022834S
p2632
sa(dp2633
g38
I313138863
sg39
(dp2634
g41
VEG Snip3downHCS
p2635
sg43
Nssg44
(lp2636
I1095363701
asg32
VWeaponPickup
p2637
sg35
VPT3M22.7262243S
p2638
sa(dp2639
g38
I4096745987
sg39
(dp2640
g41
VEG Snip3downHCS
p2641
sg43
Nssg44
(lp2642
I2758383128
asg32
VWeaponPickup
p2643
sg35
VPT3M22.7263613S
p2644
sa(dp2645
g32
VPlayerSpawn
p2646
sg39
(dp2647
g41
VEG Snip3downHCS
p2648
sg43
Nssg35
VPT3M22.7263613S
p2649
sa(dp2650
g234
I4096745987
sg235
I00
sg236
I00
sg237
(dp2651
g41
VTL StelluR
p2652
sg43
Nssg240
(lp2653
I2758383128
asg242
I00
sg243
I01
sg244
I1
sg245
I0
sg246
I1
sg247
(dp2654
Vy
F-6.2964079999999996
sVx
F-12.426492700000001
sVz
F3.3676624299999998e-06
ssg249
(dp2655
Vy
F-7.7644963300000001
sVx
F-6.2802753400000002
sVz
F4.7385692599999997e-06
ssg251
I00
sg252
(dp2656
g41
VEG Roy HCS
p2657
sg43
Nssg255
(lp2658
sg257
(lp2659
(dp2660
g41
VTL Eco HCS
p2661
sg43
Nsasg259
I01
sg35
VPT3M27.7373313S
p2662
sg32
VDeath
p2663
sg262
I1
sa(dp2664
g32
VMedal
p2665
sg39
(dp2666
g41
VTL StelluR
p2667
sg43
Nssg267
I3261908037
sg35
VPT3M27.7393307S
p2668
sa(dp2669
g38
I313138863
sg32
VWeaponDrop
p2670
sg180
I0
sg44
(lp2671
I1095363701
asg35
VPT3M27.7463294S
p2672
sg183
I0
sg184
VP0DT0H0M3.1333S
p2673
sg39
(dp2674
g41
VEG Roy HCS
p2675
sg43
Nssa(dp2676
g38
I4096745987
sg32
VWeaponDrop
p2677
sg180
I12
sg44
(lp2678
I2758383128
asg35
VPT3M27.7463294S
p2679
sg183
I8
sg184
VP0DT0H0M37.2500S
p2680
sg39
(dp2681
g41
VEG Roy HCS
p2682
sg43
Nssa(dp2683
g234
I4106030681
sg235
I00
sg236
I00
sg237
(dp2684
g41
VEG Snip3downHCS
p2685
sg43
Nssg240
(lp2686
sg242
I00
sg243
I01
sg244
I1
sg245
I0
sg246
I1
sg247
(dp2687
Vy
F-12.091161700000001
sVx
F-13.7018843
sVz
F0.6148979
ssg249
(dp2688
Vy
F-3.5364105700000001
sVx
F-18.013906500000001
sVz
F1.3997803900000001
ssg251
I00
sg252
(dp2689
g41
VTL Spartan HCS
p2690
sg43
Nssg255
(lp2691
sg257
(lp2692
(dp2693
g41
VEG Lunchbox HCS
p2694
sg43
Nsasg259
I00
sg35
VPT3M28.3533345S
p2695
sg32
VDeath
p2696
sg262
I1
sa(dp2697
g38
I313138863
sg32
VWeaponDrop
p2698
sg180
I0
sg44
(lp2699
I1095363701
asg35
VPT3M28.3553347S
p2700
sg183
I0
sg184
VP0DT0H0M7.9667S
p2701
sg39
(dp2702
g41
VTL Spartan HCS
p2703
sg43
Nssa(dp2704
g38
I4096745987
sg32
VWeaponDrop
p2705
sg180
I1
sg44
(lp2706
I2758383128
asg35
VPT3M28.3553347S
p2707
sg183
I0
sg184
VP0DT0H0M5.1667S
p2708
sg39
(dp2709
g41
VTL Spartan HCS
p2710
sg43
Nssa(dp2711
g38
I313138863
sg32
VWeaponDrop
p2712
sg180
I0
sg44
(lp2713
I1095363701
asg35
VPT3M28.7514309S
p2714
sg183
I0
sg184
VP0DT0H0M1.8833S
p2715
sg39
(dp2716
g41
VTL StelluR
p2717
sg43
Nssa(dp2718
g38
I424645655
sg39
(dp2719
g41
VTL StelluR
p2720
sg43
Nssg44
(lp2721
I1327094800
asg32
VWeaponPickup
p2722
sg35
VPT3M28.7514309S
p2723
sa(dp2724
g234
I2511447508
sg235
I00
sg236
I00
sg237
(dp2725
g41
VTL Assault HCS
p2726
sg43
Nssg240
(lp2727
I2758383128
asg242
I00
sg243
I01
sg244
I1
sg245
I0
sg246
I1
sg247
(dp2728
Vy
F-0.58143120000000004
sVx
F9.7478990000000003
sVz
F2.8092336699999998
ssg249
(dp2729
Vy
F-10.1249208
sVx
F-10.8932734
sVz
F1.1920929000000001e-07
ssg251
I00
sg252
(dp2730
g41
VEG Snip3downHCS
p2731
sg43
Nssg255
(lp2732
sg257
(lp2733
(dp2734
g41
VTL StelluR
p2735
sg43
Nsasg259
I01
sg35
VPT3M30.8523511S
p2736
sg32
VDeath
p2737
sg262
I1
sa(dp2738
g32
VMedal
p2739
sg39
(dp2740
g41
VTL Assault HCS
p2741
sg43
Nssg267
I352859864
sg35
VPT3M30.8533504S
p2742
sa(dp2743
g32
VImpulse
p2744
sg39
(dp2745
g41
VTL Assault HCS
p2746
sg43
Nssg273
I2556889090
sg35
VPT3M30.8533504S
p2747
sa(dp2748
g32
VMedal
p2749
sg39
(dp2750
g41
VTL Assault HCS
p2751
sg43
Nssg267
I3261908037
sg35
VPT3M30.8543507S
p2752
sa(dp2753
g38
I313138863
sg32
VWeaponDrop
p2754
sg180
I0
sg44
(lp2755
I1095363701
asg35
VPT3M30.8607335S
p2756
sg183
I0
sg184
VP0DT0H0M0.3000S
p2757
sg39
(dp2758
g41
VEG Snip3downHCS
p2759
sg43
Nssa(dp2760
g38
I4096745987
sg32
VWeaponDrop
p2761
sg180
I0
sg44
(lp2762
I2758383128
asg35
VPT3M30.8607335S
p2763
sg183
I0
sg184
VP0DT0H0M7.8333S
p2764
sg39
(dp2765
g41
VEG Snip3downHCS
p2766
sg43
Nssa(dp2767
g38
I2244200496
sg39
(dp2768
g41
VTL StelluR
p2769
sg43
Nssg44
(lp2770
I2758383128
asg32
VWeaponPickup
p2771
sg35
VPT3M32.9353638S
p2772
sa(dp2773
g32
VImpulse
p2774
sg39
(dp2775
g41
VTL StelluR
p2776
sg43
Nssg273
I4191318012
sg35
VPT3M32.9353638S
p2777
sa(dp2778
g32
VImpulse
p2779
sg39
(dp2780
g41
VTL StelluR
p2781
sg43
Nssg273
I1039658009
sg35
VPT3M32.9353638S
p2782
sa(dp2783
g234
I4096745987
sg235
I00
sg236
I00
sg237
(dp2784
g41
VEG SuspectorHCS
p2785
sg43
Nssg240
(lp2786
I2758383128
asg242
I00
sg243
I01
sg244
I1
sg245
I0
sg246
I1
sg247
(dp2787
Vy
F-12.7089949
sVx
F-2.7944204799999999
sVz
F0.59502625499999995
ssg249
(dp2788
Vy
F-10.971861799999999
sVx
F-10.1252174
sVz
F0.60017293699999996
ssg251
I00
sg252
(dp2789
g41
VTL StelluR
p2790
sg43
Nssg255
(lp2791
sg257
(lp2792
(dp2793
g41
VEG Snip3downHCS
p2794
sg43
Nsasg259
I01
sg35
VPT3M35.5573804S
p2795
sg32
VDeath
p2796
sg262
I1
sa(dp2797
g32
VMedal
p2798
sg39
(dp2799
g41
VEG SuspectorHCS
p2800
sg43
Nssg267
I2028249938
sg35
VPT3M35.5583801S
p2801
sa(dp2802
g32
VImpulse
p2803
sg39
(dp2804
g41
VEG SuspectorHCS
p2805
sg43
Nssg273
I2299858338
sg35
VPT3M35.5583801S
p2806
sa(dp2807
g32
VMedal
p2808
sg39
(dp2809
g41
VEG SuspectorHCS
p2810
sg43
Nssg267
I3261908037
sg35
VPT3M35.5583801S
p2811
sa(dp2812
g38
I2244200496
sg32
VWeaponDrop
p2813
sg180
I3
sg44
(lp2814
I2758383128
asg35
VPT3M35.5662535S
p2815
sg183
I0
sg184
VP0DT0H0M2.4500S
p2816
sg39
(dp2817
g41
VTL StelluR
p2818
sg43
Nssa(dp2819
g38
I424645655
sg32
VWeaponDrop
p2820
sg180
I9
sg44
(lp2821
I1327094800
asg35
VPT3M35.5683802S
p2822
sg183
I1
sg184
VP0DT0H0M4.3500S
p2823
sg39
(dp2824
g41
VTL StelluR
p2825
sg43
Nssa(dp2826
g38
I424645655
sg32
VWeaponDrop
p2827
sg180
I0
sg44
(lp2828
I1327094800
asg35
VPT3M35.5683802S
p2829
sg183
I0
sg184
VP0DT0S
p2830
sg39
(dp2831
g41
VTL StelluR
p2832
sg43
Nssa(dp2833
g38
I4096745987
sg32
VWeaponDrop
p2834
sg180
I16
sg44
(lp2835
I2758383128
asg35
VPT3M35.5683802S
p2836
sg183
I5
sg184
VP0DT0H0M39.4500S
p2837
sg39
(dp2838
g41
VTL StelluR
p2839
sg43
Nssa(dp2840
g38
I4096745987
sg32
VWeaponDrop
p2841
sg180
I0
sg44
(lp2842
I2758383128
asg35
VPT3M35.5683802S
p2843
sg183
I0
sg184
VP0DT0S
p2844
sg39
(dp2845
g41
VTL StelluR
p2846
sg43
Nssa(dp2847
g32
VImpulse
p2848
sg39
(dp2849
g41
VTL StelluR
p2850
sg43
Nssg273
I3435524855
sg35
VPT3M35.5773796S
p2851
sa(dp2852
g38
I313138863
sg39
(dp2853
g41
VEG Roy HCS
p2854
sg43
Nssg44
(lp2855
I1095363701
asg32
VWeaponPickup
p2856
sg35
VPT3M35.7553812S
p2857
sa(dp2858
g38
I4096745987
sg39
(dp2859
g41
VEG Roy HCS
p2860
sg43
Nssg44
(lp2861
I2758383128
asg32
VWeaponPickup
p2862
sg35
VPT3M35.7553812S
p2863
sa(dp2864
g32
VPlayerSpawn
p2865
sg39
(dp2866
g41
VEG Roy HCS
p2867
sg43
Nssg35
VPT3M35.7563819S
p2868
sa(dp2869
g32
VMedal
p2870
sg39
(dp2871
g41
VTL Eco HCS
p2872
sg43
Nssg267
I3400287617
sg35
VPT3M36.1353833S
p2873
sa(dp2874
g38
I313138863
sg39
(dp2875
g41
VTL Spartan HCS
p2876
sg43
Nssg44
(lp2877
I1095363701
asg32
VWeaponPickup
p2878
sg35
VPT3M36.3733855S
p2879
sa(dp2880
g38
I4096745987
sg39
(dp2881
g41
VTL Spartan HCS
p2882
sg43
Nssg44
(lp2883
I2758383128
asg32
VWeaponPickup
p2884
sg35
VPT3M36.3733855S
p2885
sa(dp2886
g32
VPlayerSpawn
p2887
sg39
(dp2888
g41
VTL Spartan HCS
p2889
sg43
Nssg35
VPT3M36.3733855S
p2890
sa(dp2891
g38
I313138863
sg39
(dp2892
g41
VEG Snip3downHCS
p2893
sg43
Nssg44
(lp2894
I1095363701
asg32
VWeaponPickup
p2895
sg35
VPT3M38.8744018S
p2896
sa(dp2897
g38
I4096745987
sg39
(dp2898
g41
VEG Snip3downHCS
p2899
sg43
Nssg44
(lp2900
I2758383128
asg32
VWeaponPickup
p2901
sg35
VPT3M38.8744018S
p2902
sa(dp2903
g32
VPlayerSpawn
p2904
sg39
(dp2905
g41
VEG Snip3downHCS
p2906
sg43
Nssg35
VPT3M38.8744018S
p2907
sa(dp2908
g32
VMedal
p2909
sg39
(dp2910
g41
VTL Eco HCS
p2911
sg43
Nssg267
I3400287617
sg35
VPT3M40.8524148S
p2912
sa(dp2913
g38
I313138863
sg39
(dp2914
g41
VTL StelluR
p2915
sg43
Nssg44
(lp2916
I1095363701
asg32
VWeaponPickup
p2917
sg35
VPT3M43.5734319S
p2918
sa(dp2919
g38
I4096745987
sg39
(dp2920
g41
VTL StelluR
p2921
sg43
Nssg44
(lp2922
I2758383128
asg32
VWeaponPickup
p2923
sg35
VPT3M43.5734319S
p2924
sa(dp2925
g32
VPlayerSpawn
p2926
sg39
(dp2927
g41
VTL StelluR
p2928
sg43
Nssg35
VPT3M43.5734319S
p2929
sa(dp2930
g234
I4096745987
sg235
I00
sg236
I00
sg237
(dp2931
g41
VEG SuspectorHCS
p2932
sg43
Nssg240
(lp2933
I2758383128
asg242
I00
sg243
I01
sg244
I1
sg245
I0
sg246
I1
sg247
(dp2934
Vy
F-13.5670576
sVx
F-4.3314056399999998
sVz
F1.3191084900000001
ssg249
(dp2935
Vy
F-3.5636375
sVx
F0.56685620000000003
sVz
F0.042679460000000002
ssg251
I00
sg252
(dp2936
g41
VTL Eco HCS
p2937
sg43
Nssg255
(lp2938
sg257
(lp2939
(dp2940
g41
VEG Snip3downHCS
p2941
sg43
Nsa(dp2942
g41
VEG Lunchbox HCS
p2943
sg43
Nsasg259
I01
sg35
VPT3M44.1084408S
p2944
sg32
VDeath
p2945
sg262
I1
sa(dp2946
g32
VMedal
p2947
sg39
(dp2948
g41
VEG SuspectorHCS
p2949
sg43
Nssg267
I3261908037
sg35
VPT3M44.1104349S
p2950
sa(dp2951
g38
I313138863
sg32
VWeaponDrop
p2952
sg180
I0
sg44
(lp2953
I1095363701
asg35
VPT3M44.117082S
p2954
sg183
I0
sg184
VP0DT0H0M0.4167S
p2955
sg39
(dp2956
g41
VTL Eco HCS
p2957
sg43
Nssa(dp2958
g38
I4096745987
sg32
VWeaponDrop
p2959
sg180
I18
sg44
(lp2960
I2758383128
asg35
VPT3M44.117082S
p2961
sg183
I7
sg184
VP0DT0H0M33.7833S
p2962
sg39
(dp2963
g41
VTL Eco HCS
p2964
sg43
Nssa(dp2965
g38
I4096745987
sg32
VWeaponDrop
p2966
sg180
I0
sg44
(lp2967
I2758383128
asg35
VPT3M45.6344427S
p2968
sg183
I0
sg184
VP0DT0H0M1.4000S
p2969
sg39
(dp2970
g41
VTL StelluR
p2971
sg43
Nssa(dp2972
g38
I424645655
sg39
(dp2973
g41
VTL StelluR
p2974
sg43
Nssg44
(lp2975
I1327094800
asg32
VWeaponPickup
p2976
sg35
VPT3M45.6344427S
p2977
sa(dp2978
g38
I4096745987
sg32
VWeaponDrop
p2979
sg180
I14
sg44
(lp2980
I2758383128
asg35
VPT3M47.1344527S
p2981
sg183
I6
sg184
VP0DT0H0M34.0333S
p2982
sg39
(dp2983
g41
VEG SuspectorHCS
p2984
sg43
Nssa(dp2985
g38
I2511447508
sg39
(dp2986
g41
VEG SuspectorHCS
p2987
sg43
Nssg44
(lp2988
I2758383128
asg32
VWeaponPickup
p2989
sg35
VPT3M47.1344527S
p2990
sa(dp2991
g234
I4096745987
sg235
I00
sg236
I00
sg237
(dp2992
g41
VEG Snip3downHCS
p2993
sg43
Nssg240
(lp2994
I2758383128
asg242
I00
sg243
I01
sg244
I1
sg245
I0
sg246
I1
sg247
(dp2995
Vy
F0.28308993599999999
sVx
F-10.9011364
sVz
F2.8096036899999999
ssg249
(dp2996
Vy
F0.026104997800000002
sVx
F-2.0127205799999999
sVz
F3.2791356999999999
ssg251
I00
sg252
(dp2997
g41
VTL Assault HCS
p2998
sg43
Nssg255
(lp2999
sg257
(lp3000
(dp3001
g41
VEG SuspectorHCS
p3002
sg43
Nsasg259
I01
sg35
VPT3M49.2584796S
p3003
sg32
VDeath
p3004
sg262
I1
sa(dp3005
g32
VMedal
p3006
sg39
(dp3007
g41
VEG Snip3downHCS
p3008
sg43
Nssg267
I3261908037
sg35
VPT3M49.2604686S
p3009
sa(dp3010
g38
I2511447508
sg32
VWeaponDrop
p3011
sg180
I23
sg44
(lp3012
I2758383128
asg35
VPT3M49.2669609S
p3013
sg183
I13
sg184
VP0DT0H0M48.6667S
p3014
sg39
(dp3015
g41
VTL Assault HCS
p3016
sg43
Nssa(dp3017
g38
I313138863
sg32
VWeaponDrop
p3018
sg180
I0
sg44
(lp3019
I1095363701
asg35
VPT3M49.2669609S
p3020
sg183
I0
sg184
VP0DT0H0M5.6833S
p3021
sg39
(dp3022
g41
VTL Assault HCS
p3023
sg43
Nssa(dp3024
g38
I313138863
sg39
(dp3025
g41
VTL Eco HCS
p3026
sg43
Nssg44
(lp3027
I1095363701
asg32
VWeaponPickup
p3028
sg35
VPT3M52.1254869S
p3029
sa(dp3030
g38
I4096745987
sg39
(dp3031
g41
VTL Eco HCS
p3032
sg43
Nssg44
(lp3033
I2758383128
asg32
VWeaponPickup
p3034
sg35
VPT3M52.1254869S
p3035
sa(dp3036
g32
VPlayerSpawn
p3037
sg39
(dp3038
g41
VTL Eco HCS
p3039
sg43
Nssg35
VPT3M52.1254869S
p3040
sa(dp3041
g234
I4096745987
sg235
I00
sg236
I00
sg237
(dp3042
g41
VTL Spartan HCS
p3043
sg43
Nssg240
(lp3044
I2758383128
asg242
I00
sg243
I01
sg244
I1
sg245
I0
sg246
I1
sg247
(dp3045
Vy
F-4.58925056
sVx
F14.6729813
sVz
F0.91902379999999995
ssg249
(dp3046
Vy
F-4.8350057599999996
sVx
F2.0447479999999998
sVz
F0.94264495400000003
ssg251
I00
sg252
(dp3047
g41
VEG Lunchbox HCS
p3048
sg43
Nssg255
(lp3049
sg257
(lp3050
sg259
I01
sg35
VPT3M54.3695008S
p3051
sg32
VDeath
p3052
sg262
I1
sa(dp3053
g32
VMedal
p3054
sg39
(dp3055
g41
VTL Spartan HCS
p3056
sg43
Nssg267
I3261908037
sg35
VPT3M54.3782153S
p3057
sa(dp3058
g38
I313138863
sg32
VWeaponDrop
p3059
sg180
I22
sg44
(lp3060
I1095363701
asg35
VPT3M54.3784994S
p3061
sg183
I2
sg184
VP0DT0H0M8.8667S
p3062
sg39
(dp3063
g41
VEG Lunchbox HCS
p3064
sg43
Nssa(dp3065
g38
I2511447508
sg32
VWeaponDrop
p3066
sg180
I15
sg44
(lp3067
I2758383128
asg35
VPT3M54.3784994S
p3068
sg183
I8
sg184
VP0DT0H0M27.9667S
p3069
sg39
(dp3070
g41
VEG Lunchbox HCS
p3071
sg43
Nssa(dp3072
g234
I2511447508
sg235
I00
sg236
I00
sg237
(dp3073
g41
VEG SuspectorHCS
p3074
sg43
Nssg240
(lp3075
I2758383128
asg242
I00
sg243
I01
sg244
I1
sg245
I0
sg246
I1
sg247
(dp3076
Vy
F-11.6855183
sVx
F10.6520452
sVz
F4.7385692599999997e-06
ssg249
(dp3077
Vy
F-2.7706780000000002
sVx
F13.0414019
sVz
F4.7087670000000003e-06
ssg251
I00
sg252
(dp3078
g41
VTL Spartan HCS
p3079
sg43
Nssg255
(lp3080
sg257
(lp3081
(dp3082
g41
VEG Lunchbox HCS
p3083
sg43
Nsasg259
I01
sg35
VPT3M55.3895068S
p3084
sg32
VDeath
p3085
sg262
I1
sa(dp3086
g32
VMedal
p3087
sg39
(dp3088
g41
VEG SuspectorHCS
p3089
sg43
Nssg267
I3261908037
sg35
VPT3M55.3905068S
p3090
sa(dp3091
g38
I313138863
sg32
VWeaponDrop
p3092
sg180
I0
sg44
(lp3093
I1095363701
asg35
VPT3M55.3915064S
p3094
sg183
I0
sg184
VP0DT0H0M5.0667S
p3095
sg39
(dp3096
g41
VTL Spartan HCS
p3097
sg43
Nssa(dp3098
g38
I4096745987
sg32
VWeaponDrop
p3099
sg180
I12
sg44
(lp3100
I2758383128
asg35
VPT3M55.3915064S
p3101
sg183
I6
sg184
VP0DT0H0M13.9500S
p3102
sg39
(dp3103
g41
VTL Spartan HCS
p3104
sg43
Nssa(dp3105
g38
I313138863
sg39
(dp3106
g41
VTL Assault HCS
p3107
sg43
Nssg44
(lp3108
I1095363701
asg32
VWeaponPickup
p3109
sg35
VPT3M57.2745179S
p3110
sa(dp3111
g38
I4096745987
sg39
(dp3112
g41
VTL Assault HCS
p3113
sg43
Nssg44
(lp3114
I2758383128
asg32
VWeaponPickup
p3115
sg35
VPT3M57.2745179S
p3116
sa(dp3117
g32
VPlayerSpawn
p3118
sg39
(dp3119
g41
VTL Assault HCS
p3120
sg43
Nssg35
VPT3M57.2745179S
p3121
sa(dp3122
g38
I313138863
sg39
(dp3123
g41
VEG Lunchbox HCS
p3124
sg43
Nssg44
(lp3125
I1095363701
asg32
VWeaponPickup
p3126
sg35
VPT4M2.5035532S
p3127
sa(dp3128
g38
I4096745987
sg39
(dp3129
g41
VEG Lunchbox HCS
p3130
sg43
Nssg44
(lp3131
I2758383128
asg32
VWeaponPickup
p3132
sg35
VPT4M2.5035532S
p3133
sa(dp3134
g32
VPlayerSpawn
p3135
sg39
(dp3136
g41
VEG Lunchbox HCS
p3137
sg43
Nssg35
VPT4M2.5035532S
p3138
sa(dp3139
g38
I313138863
sg32
VWeaponDrop
p3140
sg180
I0
sg44
(lp3141
I1095363701
asg35
VPT4M2.8335526S
p3142
sg183
I0
sg184
VP0DT0H0M0.8167S
p3143
sg39
(dp3144
g41
VTL Assault HCS
p3145
sg43
Nssa(dp3146
g38
I2511447508
sg39
(dp3147
g41
VTL Assault HCS
p3148
sg43
Nssg44
(lp3149
I2758383128
asg32
VWeaponPickup
p3150
sg35
VPT4M2.840328S
p3151
sa(dp3152
g38
I313138863
sg39
(dp3153
g41
VTL Spartan HCS
p3154
sg43
Nssg44
(lp3155
I1095363701
asg32
VWeaponPickup
p3156
sg35
VPT4M3.5225604S
p3157
sa(dp3158
g38
I4096745987
sg39
(dp3159
g41
VTL Spartan HCS
p3160
sg43
Nssg44
(lp3161
I2758383128
asg32
VWeaponPickup
p3162
sg35
VPT4M3.5235603S
p3163
sa(dp3164
g32
VPlayerSpawn
p3165
sg39
(dp3166
g41
VTL Spartan HCS
p3167
sg43
Nssg35
VPT4M3.5235603S
p3168
sa(dp3169
g32
VMedal
p3170
sg39
(dp3171
g41
VEG Roy HCS
p3172
sg43
Nssg267
I2380717523
sg35
VPT4M3.5835584S
p3173
sa(dp3174
g32
VImpulse
p3175
sg39
(dp3176
g41
VEG Roy HCS
p3177
sg43
Nssg273
I1063951891
sg35
VPT4M3.5835584S
p3178
sa(dp3179
g234
I313138863
sg235
I00
sg236
I00
sg237
(dp3180
g41
VEG Snip3downHCS
p3181
sg43
Nssg240
(lp3182
I1095363701
asg242
I00
sg243
I01
sg244
I1
sg245
I0
sg246
I1
sg247
(dp3183
Vy
F-0.42165541600000001
sVx
F14.2367954
sVz
F1.3997802699999999
ssg249
(dp3184
Vy
F-0.68116533800000001
sVx
F10.8641176
sVz
F3.36229157
ssg251
I00
sg252
(dp3185
g41
VTL Eco HCS
p3186
sg43
Nssg255
(lp3187
sg257
(lp3188
sg259
I00
sg35
VPT4M7.7745866S
p3189
sg32
VDeath
p3190
sg262
I1
sa(dp3191
g38
I313138863
sg32
VWeaponDrop
p3192
sg180
I0
sg44
(lp3193
I1095363701
asg35
VPT4M7.776587S
p3194
sg183
I0
sg184
VP0DT0H0M0.5500S
p3195
sg39
(dp3196
g41
VTL Eco HCS
p3197
sg43
Nssa(dp3198
g38
I4096745987
sg32
VWeaponDrop
p3199
sg180
I6
sg44
(lp3200
I2758383128
asg35
VPT4M7.776587S
p3201
sg183
I5
sg184
VP0DT0H0M14.9833S
p3202
sg39
(dp3203
g41
VTL Eco HCS
p3204
sg43
Nssa(dp3205
g38
I4096745987
sg32
VWeaponDrop
p3206
sg180
I0
sg44
(lp3207
I2758383128
asg35
VPT4M7.776587S
p3208
sg183
I0
sg184
VP0DT0S
p3209
sg39
(dp3210
g41
VTL Eco HCS
p3211
sg43
Nssa(dp3212
g234
I4096745987
sg235
I00
sg236
I00
sg237
(dp3213
g41
VTL Eco HCS
p3214
sg43
Nssg240
(lp3215
I2758383128
asg242
I00
sg243
I01
sg244
I1
sg245
I0
sg246
I1
sg247
(dp3216
Vy
F-0.69086329999999996
sVx
F10.6251669
sVz
F3.405227
ssg249
(dp3217
Vy
F-0.32884514300000001
sVx
F14.292475700000001
sVz
F1.5501118899999999
ssg251
I00
sg252
(dp3218
g41
VEG Snip3downHCS
p3219
sg43
Nssg255
(lp3220
sg257
(lp3221
sg259
I01
sg35
VPT4M7.8245871S
p3222
sg32
VDeath
p3223
sg262
I1
sa(dp3224
g32
VMedal
p3225
sg39
(dp3226
g41
VTL Eco HCS
p3227
sg43
Nssg267
I3261908037
sg35
VPT4M7.8255879S
p3228
sa(dp3229
g38
I313138863
sg32
VWeaponDrop
p3230
sg180
I8
sg44
(lp3231
I1095363701
asg35
VPT4M7.826587S
p3232
sg183
I6
sg184
VP0DT0H0M5.5833S
p3233
sg39
(dp3234
g41
VEG Snip3downHCS
p3235
sg43
Nssa(dp3236
g38
I313138863
sg32
VWeaponDrop
p3237
sg180
I0
sg44
(lp3238
I1095363701
asg35
VPT4M7.826587S
p3239
sg183
I0
sg184
VP0DT0S
p3240
sg39
(dp3241
g41
VEG Snip3downHCS
p3242
sg43
Nssa(dp3243
g38
I4096745987
sg32
VWeaponDrop
p3244
sg180
I19
sg44
(lp3245
I2758383128
asg35
VPT4M7.826587S
p3246
sg183
I12
sg184
VP0DT0H0M23.2500S
p3247
sg39
(dp3248
g41
VEG Snip3downHCS
p3249
sg43
Nssa(dp3250
g38
I4096745987
sg32
VWeaponDrop
p3251
sg180
I0
sg44
(lp3252
I2758383128
asg35
VPT4M12.6046155S
p3253
sg183
I0
sg184
VP0DT0H0M9.3667S
p3254
sg39
(dp3255
g41
VEG Lunchbox HCS
p3256
sg43
Nssa(dp3257
g38
I2511447508
sg39
(dp3258
g41
VEG Lunchbox HCS
p3259
sg43
Nssg44
(lp3260
I2758383128
asg32
VWeaponPickup
p3261
sg35
VPT4M12.6046821S
p3262
sa(dp3263
g234
I2511447508
sg235
I00
sg236
I00
sg237
(dp3264
g41
VEG SuspectorHCS
p3265
sg43
Nssg240
(lp3266
I2758383128
asg242
I00
sg243
I01
sg244
I1
sg245
I0
sg246
I1
sg247
(dp3267
Vy
F0.5211673
sVx
F13.470617300000001
sVz
F1.4993240800000001
ssg249
(dp3268
Vy
F-0.35664758099999999
sVx
F20.561201100000002
sVz
F1.4251704199999999
ssg251
I00
sg252
(dp3269
g41
VTL Assault HCS
p3270
sg43
Nssg255
(lp3271
sg257
(lp3272
sg259
I01
sg35
VPT4M14.5066303S
p3273
sg32
VDeath
p3274
sg262
I1
sa(dp3275
g32
VMedal
p3276
sg39
(dp3277
g41
VEG SuspectorHCS
p3278
sg43
Nssg267
I3261908037
sg35
VPT4M14.5086301S
p3279
sa(dp3280
g38
I2511447508
sg32
VWeaponDrop
p3281
sg180
I2
sg44
(lp3282
I2758383128
asg35
VPT4M14.5156295S
p3283
sg183
I1
sg184
VP0DT0H0M11.6667S
p3284
sg39
(dp3285
g41
VTL Assault HCS
p3286
sg43
Nssa(dp3287
g38
I4096745987
sg32
VWeaponDrop
p3288
sg180
I0
sg44
(lp3289
I2758383128
asg35
VPT4M14.5156295S
p3290
sg183
I0
sg184
VP0DT0H0M4.6333S
p3291
sg39
(dp3292
g41
VTL Assault HCS
p3293
sg43
Nssa(dp3294
g38
I313138863
sg39
(dp3295
g41
VTL Eco HCS
p3296
sg43
Nssg44
(lp3297
I1095363701
asg32
VWeaponPickup
p3298
sg35
VPT4M15.7876379S
p3299
sa(dp3300
g38
I4096745987
sg39
(dp3301
g41
VTL Eco HCS
p3302
sg43
Nssg44
(lp3303
I2758383128
asg32
VWeaponPickup
p3304
sg35
VPT4M15.788638S
p3305
sa(dp3306
g32
VPlayerSpawn
p3307
sg39
(dp3308
g41
VTL Eco HCS
p3309
sg43
Nssg35
VPT4M15.788638S
p3310
sa(dp3311
g38
I313138863
sg39
(dp3312
g41
VEG Snip3downHCS
p3313
sg43
Nssg44
(lp3314
I1095363701
asg32
VWeaponPickup
p3315
sg35
VPT4M15.8376381S
p3316
sa(dp3317
g38
I4096745987
sg39
(dp3318
g41
VEG Snip3downHCS
p3319
sg43
Nssg44
(lp3320
I2758383128
asg32
VWeaponPickup
p3321
sg35
VPT4M15.8376381S
p3322
sa(dp3323
g32
VPlayerSpawn
p3324
sg39
(dp3325
g41
VEG Snip3downHCS
p3326
sg43
Nssg35
VPT4M15.8376381S
p3327
sa(dp3328
g38
I313138863
sg32
VWeaponDrop
p3329
sg180
I0
sg44
(lp3330
I1095363701
asg35
VPT4M18.4672524S
p3331
sg183
I0
sg184
VP0DT0H0M1.0333S
p3332
sg39
(dp3333
g41
VEG Lunchbox HCS
p3334
sg43
Nssa(dp3335
g38
I3682788176
sg39
(dp3336
g41
VEG Lunchbox HCS
p3337
sg43
Nssg44
(lp3338
I2758383128
asg32
VWeaponPickupPad
p3339
sg35
VPT4M18.4672524S
p3340
sa(dp3341
g38
I3682788176
sg39
(dp3342
g41
VEG Lunchbox HCS
p3343
sg43
Nssg44
(lp3344
I2758383128
asg32
VWeaponPickup
p3345
sg35
VPT4M18.4676566S
p3346
sa(dp3347
g234
I4096745987
sg235
I00
sg236
I00
sg237
(dp3348
g41
VTL Spartan HCS
p3349
sg43
Nssg240
(lp3350
I2758383128
asg242
I00
sg243
I01
sg244
I1
sg245
I0
sg246
I1
sg247
(dp3351
Vy
F0.822433949
sVx
F-0.109129846
sVz
F3.8298969999999999
ssg249
(dp3352
Vy
F1.0405877800000001
sVx
F11.7197409
sVz
F3.4789607500000002
ssg251
I00
sg252
(dp3353
g41
VEG SuspectorHCS
p3354
sg43
Nssg255
(lp3355
sg257
(lp3356
(dp3357
g41
VTL Assault HCS
p3358
sg43
Nsasg259
I01
sg35
VPT4M18.8741792S
p3359
sg32
VDeath
p3360
sg262
I1
sa(dp3361
g32
VMedal
p3362
sg39
(dp3363
g41
VTL Spartan HCS
p3364
sg43
Nssg267
I3261908037
sg35
VPT4M18.8756568S
p3365
sa(dp3366
g38
I313138863
sg32
VWeaponDrop
p3367
sg180
I0
sg44
(lp3368
I1095363701
asg35
VPT4M18.8756568S
p3369
sg183
I0
sg184
VP0DT0H0M1.3167S
p3370
sg39
(dp3371
g41
VEG SuspectorHCS
p3372
sg43
Nssa(dp3373
g38
I2511447508
sg32
VWeaponDrop
p3374
sg180
I16
sg44
(lp3375
I2758383128
asg35
VPT4M18.8756568S
p3376
sg183
I7
sg184
VP0DT0H0M31.6167S
p3377
sg39
(dp3378
g41
VEG SuspectorHCS
p3379
sg43
Nssa(dp3380
g38
I313138863
sg39
(dp3381
g41
VTL Assault HCS
p3382
sg43
Nssg44
(lp3383
I1095363701
asg32
VWeaponPickup
p3384
sg35
VPT4M22.5206819S
p3385
sa(dp3386
g38
I4096745987
sg39
(dp3387
g41
VTL Assault HCS
p3388
sg43
Nssg44
(lp3389
I2758383128
asg32
VWeaponPickup
p3390
sg35
VPT4M22.5206819S
p3391
sa(dp3392
g32
VPlayerSpawn
p3393
sg39
(dp3394
g41
VTL Assault HCS
p3395
sg43
Nssg35
VPT4M22.5206819S
p3396
sa(dp3397
g234
I4096745987
sg235
I00
sg236
I00
sg237
(dp3398
g41
VEG Roy HCS
p3399
sg43
Nssg240
(lp3400
I2758383128
asg242
I00
sg243
I01
sg244
I1
sg245
I0
sg246
I1
sg247
(dp3401
Vy
F11.5660448
sVx
F-7.9309186900000004
sVz
F0.84244996299999997
ssg249
(dp3402
Vy
F5.5925684000000002
sVx
F0.56724584099999997
sVz
F-2.83718109e-05
ssg251
I00
sg252
(dp3403
g41
VTL Eco HCS
p3404
sg43
Nssg255
(lp3405
sg257
(lp3406
sg259
I01
sg35
VPT4M24.8866953S
p3407
sg32
VDeath
p3408
sg262
I1
sa(dp3409
g32
VMedal
p3410
sg39
(dp3411
g41
VEG Roy HCS
p3412
sg43
Nssg267
I3261908037
sg35
VPT4M24.8896958S
p3413
sa(dp3414
g38
I313138863
sg32
VWeaponDrop
p3415
sg180
I0
sg44
(lp3416
I1095363701
asg35
VPT4M24.896393S
p3417
sg183
I0
sg184
VP0DT0H0M0.5500S
p3418
sg39
(dp3419
g41
VTL Eco HCS
p3420
sg43
Nssa(dp3421
g38
I4096745987
sg32
VWeaponDrop
p3422
sg180
I2
sg44
(lp3423
I2758383128
asg35
VPT4M24.896393S
p3424
sg183
I1
sg184
VP0DT0H0M8.5500S
p3425
sg39
(dp3426
g41
VTL Eco HCS
p3427
sg43
Nssa(dp3428
g38
I4096745987
sg32
VWeaponDrop
p3429
sg180
I0
sg44
(lp3430
I2758383128
asg35
VPT4M24.9166948S
p3431
sg183
I0
sg184
VP0DT0H0M1.7833S
p3432
sg39
(dp3433
g41
VTL Assault HCS
p3434
sg43
Nssa(dp3435
g38
I424645655
sg39
(dp3436
g41
VTL Assault HCS
p3437
sg43
Nssg44
(lp3438
I1327094800
asg32
VWeaponPickup
p3439
sg35
VPT4M24.9166948S
p3440
sa(dp3441
g234
I424645655
sg235
I00
sg236
I00
sg237
(dp3442
g41
VTL StelluR
p3443
sg43
Nssg240
(lp3444
I1327094800
asg242
I00
sg243
I01
sg244
I1
sg245
I0
sg246
I1
sg247
(dp3445
Vy
F-0.25434526800000001
sVx
F2.9295208499999998
sVz
F2.98829126
ssg249
(dp3446
Vy
F-10.980522199999999
sVx
F9.3422040000000006
sVz
F1.07203972
ssg251
I00
sg252
(dp3447
g41
VEG Snip3downHCS
p3448
sg43
Nssg255
(lp3449
sg257
(lp3450
sg259
I01
sg35
VPT4M26.5007061S
p3451
sg32
VDeath
p3452
sg262
I1
sa(dp3453
g32
VMedal
p3454
sg39
(dp3455
g41
VTL StelluR
p3456
sg43
Nssg267
I2838259753
sg35
VPT4M26.5007061S
p3457
sa(dp3458
g32
VImpulse
p3459
sg39
(dp3460
g41
VTL StelluR
p3461
sg43
Nssg273
I2556889090
sg35
VPT4M26.5007061S
p3462
sa(dp3463
g32
VMedal
p3464
sg39
(dp3465
g41
VTL StelluR
p3466
sg43
Nssg267
I3261908037
sg35
VPT4M26.5107059S
p3467
sa(dp3468
g38
I313138863
sg32
VWeaponDrop
p3469
sg180
I0
sg44
(lp3470
I1095363701
asg35
VPT4M26.5107059S
p3471
sg183
I0
sg184
VP0DT0H0M0.7000S
p3472
sg39
(dp3473
g41
VEG Snip3downHCS
p3474
sg43
Nssa(dp3475
g38
I4096745987
sg32
VWeaponDrop
p3476
sg180
I8
sg44
(lp3477
I2758383128
asg35
VPT4M26.5107059S
p3478
sg183
I6
sg184
VP0DT0H0M9.9667S
p3479
sg39
(dp3480
g41
VEG Snip3downHCS
p3481
sg43
Nssa(dp3482
g38
I313138863
sg39
(dp3483
g41
VEG SuspectorHCS
p3484
sg43
Nssg44
(lp3485
I1095363701
asg32
VWeaponPickup
p3486
sg35
VPT4M26.8877099S
p3487
sa(dp3488
g38
I4096745987
sg39
(dp3489
g41
VEG SuspectorHCS
p3490
sg43
Nssg44
(lp3491
I2758383128
asg32
VWeaponPickup
p3492
sg35
VPT4M26.8877099S
p3493
sa(dp3494
g32
VPlayerSpawn
p3495
sg39
(dp3496
g41
VEG SuspectorHCS
p3497
sg43
Nssg35
VPT4M26.8877099S
p3498
sa(dp3499
g234
I2511447508
sg235
I00
sg236
I00
sg237
(dp3500
g41
VEG Lunchbox HCS
p3501
sg43
Nssg240
(lp3502
I2758383128
asg242
I00
sg243
I01
sg244
I1
sg245
I0
sg246
I1
sg247
(dp3503
Vy
F-5.1670319999999998
sVx
F1.0228567099999999
sVz
F1.125378
ssg249
(dp3504
Vy
F-0.56218564500000001
sVx
F9.8379729999999999
sVz
F0.034038840000000001
ssg251
I00
sg252
(dp3505
g41
VTL Spartan HCS
p3506
sg43
Nssg255
(lp3507
sg257
(lp3508
(dp3509
g41
VEG Snip3downHCS
p3510
sg43
Nsasg259
I00
sg35
VPT4M27.9677158S
p3511
sg32
VDeath
p3512
sg262
I1
sa(dp3513
g38
I313138863
sg32
VWeaponDrop
p3514
sg180
I0
sg44
(lp3515
I1095363701
asg35
VPT4M27.9697153S
p3516
sg183
I0
sg184
VP0DT0H0M15.6667S
p3517
sg39
(dp3518
g41
VTL Spartan HCS
p3519
sg43
Nssa(dp3520
g38
I4096745987
sg32
VWeaponDrop
p3521
sg180
I5
sg44
(lp3522
I2758383128
asg35
VPT4M27.9767137S
p3523
sg183
I4
sg184
VP0DT0H0M8.7833S
p3524
sg39
(dp3525
g41
VTL Spartan HCS
p3526
sg43
Nssa(dp3527
g38
I4096745987
sg32
VWeaponDrop
p3528
sg180
I0
sg44
(lp3529
I2758383128
asg35
VPT4M28.4167189S
p3530
sg183
I0
sg184
VP0DT0H0M0.7667S
p3531
sg39
(dp3532
g41
VEG SuspectorHCS
p3533
sg43
Nssa(dp3534
g38
I2511447508
sg39
(dp3535
g41
VEG SuspectorHCS
p3536
sg43
Nssg44
(lp3537
I2758383128
asg32
VWeaponPickup
p3538
sg35
VPT4M28.4167189S
p3539
sa(dp3540
g234
I424645655
sg235
I00
sg236
I00
sg237
(dp3541
g41
VTL StelluR
p3542
sg43
Nssg240
(lp3543
I1327094800
asg242
I00
sg243
I01
sg244
I1
sg245
I0
sg246
I1
sg247
(dp3544
Vy
F4.8361489999999998
sVx
F5.4540972700000001
sVz
F0.84173476700000005
ssg249
(dp3545
Vy
F12.951345399999999
sVx
F-0.884499967
sVz
F0.95565384600000003
ssg251
I00
sg252
(dp3546
g41
VEG Roy HCS
p3547
sg43
Nssg255
(lp3548
sg257
(lp3549
(dp3550
g41
VTL Eco HCS
p3551
sg43
Nsa(dp3552
g41
VTL Assault HCS
p3553
sg43
Nsasg259
I01
sg35
VPT4M30.5566271S
p3554
sg32
VDeath
p3555
sg262
I1
sa(dp3556
g32
VMedal
p3557
sg39
(dp3558
g41
VTL StelluR
p3559
sg43
Nssg267
I3261908037
sg35
VPT4M30.5577316S
p3560
sa(dp3561
g32
VMedal
p3562
sg39
(dp3563
g41
VTL StelluR
p3564
sg43
Nssg267
I2078758684
sg35
VPT4M30.5577316S
p3565
sa(dp3566
g38
I313138863
sg32
VWeaponDrop
p3567
sg180
I0
sg44
(lp3568
I1095363701
asg35
VPT4M30.5577316S
p3569
sg183
I0
sg184
VP0DT0H0M6.9000S
p3570
sg39
(dp3571
g41
VEG Roy HCS
p3572
sg43
Nssa(dp3573
g38
I4096745987
sg32
VWeaponDrop
p3574
sg180
I8
sg44
(lp3575
I2758383128
asg35
VPT4M30.5577316S
p3576
sg183
I5
sg184
VP0DT0H0M47.7833S
p3577
sg39
(dp3578
g41
VEG Roy HCS
p3579
sg43
Nssa(dp3580
g38
I313138863
sg32
VWeaponDrop
p3581
sg180
I0
sg44
(lp3582
I1095363701
asg35
VPT4M32.1678914S
p3583
sg183
I0
sg184
VP0DT0H0M0.8167S
p3584
sg39
(dp3585
g41
VTL Assault HCS
p3586
sg43
Nssa(dp3587
g38
I2511447508
sg39
(dp3588
g41
VTL Assault HCS
p3589
sg43
Nssg44
(lp3590
I2758383128
asg32
VWeaponPickup
p3591
sg35
VPT4M32.1678914S
p3592
sa(dp3593
g38
I2511447508
sg32
VWeaponDrop
p3594
sg180
I0
sg44
(lp3595
I2758383128
asg35
VPT4M32.2997425S
p3596
sg183
I0
sg184
VP0DT0H0M3.8833S
p3597
sg39
(dp3598
g41
VEG SuspectorHCS
p3599
sg43
Nssa(dp3600
g38
I424645655
sg39
(dp3601
g41
VEG SuspectorHCS
p3602
sg43
Nssg44
(lp3603
I1327094800
asg32
VWeaponPickup
p3604
sg35
VPT4M32.2997425S
p3605
sa(dp3606
g38
I313138863
sg39
(dp3607
g41
VTL Eco HCS
p3608
sg43
Nssg44
(lp3609
I1095363701
asg32
VWeaponPickup
p3610
sg35
VPT4M32.9047476S
p3611
sa(dp3612
g38
I4096745987
sg39
(dp3613
g41
VTL Eco HCS
p3614
sg43
Nssg44
(lp3615
I2758383128
asg32
VWeaponPickup
p3616
sg35
VPT4M32.9047476S
p3617
sa(dp3618
g32
VPlayerSpawn
p3619
sg39
(dp3620
g41
VTL Eco HCS
p3621
sg43
Nssg35
VPT4M32.9047476S
p3622
sa(dp3623
g38
I313138863
sg39
(dp3624
g41
VEG Snip3downHCS
p3625
sg43
Nssg44
(lp3626
I1095363701
asg32
VWeaponPickup
p3627
sg35
VPT4M34.5217581S
p3628
sa(dp3629
g38
I4096745987
sg39
(dp3630
g41
VEG Snip3downHCS
p3631
sg43
Nssg44
(lp3632
I2758383128
asg32
VWeaponPickup
p3633
sg35
VPT4M34.5285431S
p3634
sa(dp3635
g32
VPlayerSpawn
p3636
sg39
(dp3637
g41
VEG Snip3downHCS
p3638
sg43
Nssg35
VPT4M34.5286105S
p3639
sa(dp3640
g38
I313138863
sg39
(dp3641
g41
VTL Spartan HCS
p3642
sg43
Nssg44
(lp3643
I1095363701
asg32
VWeaponPickup
p3644
sg35
VPT4M36.0017673S
p3645
sa(dp3646
g38
I4096745987
sg39
(dp3647
g41
VTL Spartan HCS
p3648
sg43
Nssg44
(lp3649
I2758383128
asg32
VWeaponPickup
p3650
sg35
VPT4M36.0027674S
p3651
sa(dp3652
g32
VPlayerSpawn
p3653
sg39
(dp3654
g41
VTL Spartan HCS
p3655
sg43
Nssg35
VPT4M36.0027674S
p3656
sa(dp3657
g234
I424645655
sg235
I00
sg236
I00
sg237
(dp3658
g41
VTL StelluR
p3659
sg43
Nssg240
(lp3660
I1327094800
asg242
I00
sg243
I01
sg244
I1
sg245
I0
sg246
I1
sg247
(dp3661
Vy
F6.3407197000000002
sVx
F0.00061831159999999996
sVz
F0.72053074800000005
ssg249
(dp3662
Vy
F-3.65712547
sVx
F-0.011709205800000001
sVz
F0.89040553600000005
ssg251
I00
sg252
(dp3663
g41
VEG Lunchbox HCS
p3664
sg43
Nssg255
(lp3665
sg257
(lp3666
sg259
I00
sg35
VPT4M37.9388011S
p3667
sg32
VDeath
p3668
sg262
I1
sa(dp3669
g38
I3682788176
sg32
VWeaponDrop
p3670
sg180
I3
sg44
(lp3671
I2758383128
asg35
VPT4M37.9407794S
p3672
sg183
I2
sg184
VP0DT0H0M13.9000S
p3673
sg39
(dp3674
g41
VEG Lunchbox HCS
p3675
sg43
Nssa(dp3676
g38
I2511447508
sg32
VWeaponDrop
p3677
sg180
I7
sg44
(lp3678
I2758383128
asg35
VPT4M37.9407794S
p3679
sg183
I4
sg184
VP0DT0H0M11.1333S
p3680
sg39
(dp3681
g41
VEG Lunchbox HCS
p3682
sg43
Nssa(dp3683
g38
I313138863
sg39
(dp3684
g41
VEG Roy HCS
p3685
sg43
Nssg44
(lp3686
I1095363701
asg32
VWeaponPickup
p3687
sg35
VPT4M38.5837837S
p3688
sa(dp3689
g38
I4096745987
sg39
(dp3690
g41
VEG Roy HCS
p3691
sg43
Nssg44
(lp3692
I2758383128
asg32
VWeaponPickup
p3693
sg35
VPT4M38.5895709S
p3694
sa(dp3695
g32
VPlayerSpawn
p3696
sg39
(dp3697
g41
VEG Roy HCS
p3698
sg43
Nssg35
VPT4M38.5895709S
p3699
sa(dp3700
g38
I2492868984
sg39
(dp3701
g41
VEG SuspectorHCS
p3702
sg43
Nssg44
(lp3703
I2758383128
asg32
VWeaponPickup
p3704
sg35
VPT4M40.499796S
p3705
sa(dp3706
g38
I2492868984
sg32
VWeaponDrop
p3707
sg180
I0
sg44
(lp3708
I2758383128
asg35
VPT4M41.6538031S
p3709
sg183
I0
sg184
VP0DT0H0M0.9833S
p3710
sg39
(dp3711
g41
VEG SuspectorHCS
p3712
sg43
Nssa(dp3713
g234
I4096745987
sg235
I00
sg236
I00
sg237
(dp3714
g41
VTL Eco HCS
p3715
sg43
Nssg240
(lp3716
I2758383128
asg242
I00
sg243
I01
sg244
I1
sg245
I0
sg246
I1
sg247
(dp3717
Vy
F-0.353713781
sVx
F5.8238706599999999
sVz
F2.809221
ssg249
(dp3718
Vy
F-2.65290976
sVx
F-0.29400116199999998
sVz
F4.2752379999999999
ssg251
I00
sg252
(dp3719
g41
VEG SuspectorHCS
p3720
sg43
Nssg255
(lp3721
sg257
(lp3722
(dp3723
g41
VTL Assault HCS
p3724
sg43
Nsa(dp3725
g41
VTL Spartan HCS
p3726
sg43
Nsasg259
I00
sg35
VPT4M41.8728048S
p3727
sg32
VDeath
p3728
sg262
I1
sa(dp3729
g38
I313138863
sg32
VWeaponDrop
p3730
sg180
I0
sg44
(lp3731
I1095363701
asg35
VPT4M41.873804S
p3732
sg183
I0
sg184
VP0DT0H0M0.7667S
p3733
sg39
(dp3734
g41
VEG SuspectorHCS
p3735
sg43
Nssa(dp3736
g38
I424645655
sg32
VWeaponDrop
p3737
sg180
I6
sg44
(lp3738
I1327094800
asg35
VPT4M41.873804S
p3739
sg183
I0
sg184
VP0DT0H0M8.5667S
p3740
sg39
(dp3741
g41
VEG SuspectorHCS
p3742
sg43
Nssa(dp3743
g38
I313138863
sg32
VWeaponDrop
p3744
sg180
I0
sg44
(lp3745
I1095363701
asg35
VPT4M43.4708489S
p3746
sg183
I0
sg184
VP0DT0H0M4.6833S
p3747
sg39
(dp3748
g41
VEG Snip3downHCS
p3749
sg43
Nssa(dp3750
g38
I3682788176
sg39
(dp3751
g41
VEG Snip3downHCS
p3752
sg43
Nssg44
(lp3753
I2758383128
asg32
VWeaponPickup
p3754
sg35
VPT4M43.4709163S
p3755
sa(dp3756
g38
I3682788176
sg32
VWeaponDrop
p3757
sg180
I0
sg44
(lp3758
I2758383128
asg35
VPT4M43.9875362S
p3759
sg183
I0
sg184
VP0DT0H0M0.5167S
p3760
sg39
(dp3761
g41
VEG Snip3downHCS
p3762
sg43
Nssa(dp3763
g38
I2511447508
sg39
(dp3764
g41
VEG Snip3downHCS
p3765
sg43
Nssg44
(lp3766
I2758383128
asg32
VWeaponPickup
p3767
sg35
VPT4M43.9878184S
p3768
sa(dp3769
g38
I2511447508
sg32
VWeaponDrop
p3770
sg180
I0
sg44
(lp3771
I2758383128
asg35
VPT4M44.8532744S
p3772
sg183
I0
sg184
VP0DT0H0M0.8667S
p3773
sg39
(dp3774
g41
VEG Snip3downHCS
p3775
sg43
Nssa(dp3776
g38
I313138863
sg39
(dp3777
g41
VEG Snip3downHCS
p3778
sg43
Nssg44
(lp3779
I1095363701
asg32
VWeaponPickup
p3780
sg35
VPT4M44.8533411S
p3781
sa(dp3782
g38
I313138863
sg32
VWeaponDrop
p3783
sg180
I0
sg44
(lp3784
I1095363701
asg35
VPT4M45.2819805S
p3785
sg183
I0
sg184
VP0DT0H0M0.4333S
p3786
sg39
(dp3787
g41
VEG Snip3downHCS
p3788
sg43
Nssa(dp3789
g38
I2511447508
sg39
(dp3790
g41
VEG Snip3downHCS
p3791
sg43
Nssg44
(lp3792
I2758383128
asg32
VWeaponPickup
p3793
sg35
VPT4M45.2828262S
p3794
sa(dp3795
g38
I313138863
sg39
(dp3796
g41
VEG Lunchbox HCS
p3797
sg43
Nssg44
(lp3798
I1095363701
asg32
VWeaponPickup
p3799
sg35
VPT4M45.968831S
p3800
sa(dp3801
g38
I4096745987
sg39
(dp3802
g41
VEG Lunchbox HCS
p3803
sg43
Nssg44
(lp3804
I2758383128
asg32
VWeaponPickup
p3805
sg35
VPT4M45.968831S
p3806
sa(dp3807
g32
VPlayerSpawn
p3808
sg39
(dp3809
g41
VEG Lunchbox HCS
p3810
sg43
Nssg35
VPT4M45.968831S
p3811
sa(dp3812
g234
I424645655
sg235
I00
sg236
I00
sg237
(dp3813
g41
VTL StelluR
p3814
sg43
Nssg240
(lp3815
I1327094800
asg242
I00
sg243
I01
sg244
I1
sg245
I0
sg246
I1
sg247
(dp3816
Vy
F-8.8039229999999993
sVx
F0.94188470000000002
sVz
F4.7385692599999997e-06
ssg249
(dp3817
Vy
F-5.0831270000000002
sVx
F-0.69530409999999998
sVz
F0.071855396000000002
ssg251
I00
sg252
(dp3818
g41
VEG Snip3downHCS
p3819
sg43
Nssg255
(lp3820
sg257
(lp3821
sg259
I01
sg35
VPT4M47.3838396S
p3822
sg32
VDeath
p3823
sg262
I1
sa(dp3824
g32
VMedal
p3825
sg39
(dp3826
g41
VTL StelluR
p3827
sg43
Nssg267
I3261908037
sg35
VPT4M47.3918395S
p3828
sa(dp3829
g38
I2511447508
sg32
VWeaponDrop
p3830
sg180
I2
sg44
(lp3831
I2758383128
asg35
VPT4M47.3928402S
p3832
sg183
I2
sg184
VP0DT0H0M2.0833S
p3833
sg39
(dp3834
g41
VEG Snip3downHCS
p3835
sg43
Nssa(dp3836
g38
I4096745987
sg32
VWeaponDrop
p3837
sg180
I0
sg44
(lp3838
I2758383128
asg35
VPT4M47.3928402S
p3839
sg183
I0
sg184
VP0DT0H0M4.2667S
p3840
sg39
(dp3841
g41
VEG Snip3downHCS
p3842
sg43
Nssa(dp3843
g38
I313138863
sg32
VWeaponDrop
p3844
sg180
I0
sg44
(lp3845
I1095363701
asg35
VPT4M49.4870659S
p3846
sg183
I0
sg184
VP0DT0H0M1.7833S
p3847
sg39
(dp3848
g41
VTL StelluR
p3849
sg43
Nssa(dp3850
g38
I3682788176
sg39
(dp3851
g41
VTL StelluR
p3852
sg43
Nssg44
(lp3853
I2758383128
asg32
VWeaponPickup
p3854
sg35
VPT4M49.4870659S
p3855
sa(dp3856
g38
I313138863
sg39
(dp3857
g41
VEG SuspectorHCS
p3858
sg43
Nssg44
(lp3859
I1095363701
asg32
VWeaponPickup
p3860
sg35
VPT4M49.8868567S
p3861
sa(dp3862
g38
I4096745987
sg39
(dp3863
g41
VEG SuspectorHCS
p3864
sg43
Nssg44
(lp3865
I2758383128
asg32
VWeaponPickup
p3866
sg35
VPT4M49.8939276S
p3867
sa(dp3868
g32
VPlayerSpawn
p3869
sg39
(dp3870
g41
VEG SuspectorHCS
p3871
sg43
Nssg35
VPT4M49.8939276S
p3872
sa(dp3873
g234
I4106030681
sg235
I00
sg236
I00
sg237
(dp3874
g41
VTL Assault HCS
p3875
sg43
Nssg240
(lp3876
sg242
I00
sg243
I01
sg244
I1
sg245
I0
sg246
I1
sg247
(dp3877
Vy
F-15.70059
sVx
F2.0413749999999999
sVz
F1.3161639999999999
ssg249
(dp3878
Vy
F-11.536020000000001
sVx
F-10.8077383
sVz
F0.60005830000000004
ssg251
I00
sg252
(dp3879
g41
VEG Lunchbox HCS
p3880
sg43
Nssg255
(lp3881
sg257
(lp3882
(dp3883
g41
VTL Spartan HCS
p3884
sg43
Nsasg259
I00
sg35
VPT4M51.8848699S
p3885
sg32
VDeath
p3886
sg262
I1
sa(dp3887
g38
I313138863
sg32
VWeaponDrop
p3888
sg180
I0
sg44
(lp3889
I1095363701
asg35
VPT4M51.8932057S
p3890
sg183
I0
sg184
VP0DT0H0M0.8333S
p3891
sg39
(dp3892
g41
VEG Lunchbox HCS
p3893
sg43
Nssa(dp3894
g38
I4096745987
sg32
VWeaponDrop
p3895
sg180
I7
sg44
(lp3896
I2758383128
asg35
VPT4M51.8932057S
p3897
sg183
I4
sg184
VP0DT0H0M5.0833S
p3898
sg39
(dp3899
g41
VEG Lunchbox HCS
p3900
sg43
Nssa(dp3901
g38
I313138863
sg39
(dp3902
g41
VEG Snip3downHCS
p3903
sg43
Nssg44
(lp3904
I1095363701
asg32
VWeaponPickup
p3905
sg35
VPT4M55.4028907S
p3906
sa(dp3907
g38
I4096745987
sg39
(dp3908
g41
VEG Snip3downHCS
p3909
sg43
Nssg44
(lp3910
I2758383128
asg32
VWeaponPickup
p3911
sg35
VPT4M55.4038912S
p3912
sa(dp3913
g32
VPlayerSpawn
p3914
sg39
(dp3915
g41
VEG Snip3downHCS
p3916
sg43
Nssg35
VPT4M55.4038912S
p3917
sa(dp3918
g234
I4096745987
sg235
I00
sg236
I00
sg237
(dp3919
g41
VTL Spartan HCS
p3920
sg43
Nssg240
(lp3921
I2758383128
asg242
I00
sg243
I01
sg244
I1
sg245
I0
sg246
I1
sg247
(dp3922
Vy
F-13.164659500000001
sVx
F-11.500317600000001
sVz
F1.3149163699999999
ssg249
(dp3923
Vy
F-11.22419
sVx
F-11.040976499999999
sVz
F0.88802415099999998
ssg251
I00
sg252
(dp3924
g41
VEG SuspectorHCS
p3925
sg43
Nssg255
(lp3926
sg257
(lp3927
(dp3928
g41
VTL Eco HCS
p3929
sg43
Nsasg259
I00
sg35
VPT4M56.5339914S
p3930
sg32
VDeath
p3931
sg262
I1
sa(dp3932
g32
VMedal
p3933
sg39
(dp3934
g41
VTL Spartan HCS
p3935
sg43
Nssg267
I2494364276
sg35
VPT4M56.5348984S
p3936
sa(dp3937
g38
I313138863
sg32
VWeaponDrop
p3938
sg180
I2
sg44
(lp3939
I1095363701
asg35
VPT4M56.5358979S
p3940
sg183
I0
sg184
VP0DT0H0M2.6500S
p3941
sg39
(dp3942
g41
VEG SuspectorHCS
p3943
sg43
Nssa(dp3944
g38
I4096745987
sg32
VWeaponDrop
p3945
sg180
I4
sg44
(lp3946
I2758383128
asg35
VPT4M56.5358979S
p3947
sg183
I2
sg184
VP0DT0H0M3.9833S
p3948
sg39
(dp3949
g41
VEG SuspectorHCS
p3950
sg43
Nssa(dp3951
g38
I2244200496
sg39
(dp3952
g41
VTL Spartan HCS
p3953
sg43
Nssg44
(lp3954
I2758383128
asg32
VWeaponPickup
p3955
sg35
VPT4M59.2819142S
p3956
sa(dp3957
g32
VImpulse
p3958
sg39
(dp3959
g41
VTL Spartan HCS
p3960
sg43
Nssg273
I4191318012
sg35
VPT4M59.3001055S
p3961
sa(dp3962
g32
VImpulse
p3963
sg39
(dp3964
g41
VTL Spartan HCS
p3965
sg43
Nssg273
I1039658009
sg35
VPT4M59.3001055S
p3966
sa(dp3967
g234
I4096745987
sg235
I00
sg236
I00
sg237
(dp3968
g41
VEG Snip3downHCS
p3969
sg43
Nssg240
(lp3970
I2758383128
asg242
I00
sg243
I01
sg244
I1
sg245
I0
sg246
I1
sg247
(dp3971
Vy
F-4.3420877500000001
sVx
F2.8484892799999999
sVz
F0.81163689999999999
ssg249
(dp3972
Vy
F-11.9176073
sVx
F-9.8690040000000003
sVz
F0.60021619999999998
ssg251
I00
sg252
(dp3973
g41
VTL Spartan HCS
p3974
sg43
Nssg255
(lp3975
sg257
(lp3976
(dp3977
g41
VEG SuspectorHCS
p3978
sg43
Nsasg259
I01
sg35
VPT4M59.5746998S
p3979
sg32
VDeath
p3980
sg262
I1
sa(dp3981
g32
VMedal
p3982
sg39
(dp3983
g41
VEG Snip3downHCS
p3984
sg43
Nssg267
I2028249938
sg35
VPT4M59.5759172S
p3985
sa(dp3986
g32
VImpulse
p3987
sg39
(dp3988
g41
VEG Snip3downHCS
p3989
sg43
Nssg273
I2299858338
sg35
VPT4M59.5759172S
p3990
sa(dp3991
g32
VMedal
p3992
sg39
(dp3993
g41
VEG Snip3downHCS
p3994
sg43
Nssg267
I3261908037
sg35
VPT4M59.5759172S
p3995
sa(dp3996
g38
I313138863
sg32
VWeaponDrop
p3997
sg180
I8
sg44
(lp3998
I1095363701
asg35
VPT4M59.5769485S
p3999
sg183
I1
sg184
VP0DT0H0M4.0333S
p4000
sg39
(dp4001
g41
VTL Spartan HCS
p4002
sg43
Nssa(dp4003
g38
I4096745987
sg32
VWeaponDrop
p4004
sg180
I12
sg44
(lp4005
I2758383128
asg35
VPT4M59.5769485S
p4006
sg183
I8
sg184
VP0DT0H0M19.4333S
p4007
sg39
(dp4008
g41
VTL Spartan HCS
p4009
sg43
Nssa(dp4010
g38
I2244200496
sg32
VWeaponDrop
p4011
sg180
I0
sg44
(lp4012
I2758383128
asg35
VPT4M59.5769485S
p4013
sg183
I0
sg184
VP0DT0H0M0.1167S
p4014
sg39
(dp4015
g41
VTL Spartan HCS
p4016
sg43
Nssa(dp4017
g32
VImpulse
p4018
sg39
(dp4019
g41
VTL Spartan HCS
p4020
sg43
Nssg273
I3435524855
sg35
VPT4M59.585917S
p4021
sa(dp4022
g38
I313138863
sg39
(dp4023
g41
VEG Lunchbox HCS
p4024
sg43
Nssg44
(lp4025
I1095363701
asg32
VWeaponPickup
p4026
sg35
VPT4M59.9049213S
p4027
sa(dp4028
g38
I4096745987
sg39
(dp4029
g41
VEG Lunchbox HCS
p4030
sg43
Nssg44
(lp4031
I2758383128
asg32
VWeaponPickup
p4032
sg35
VPT4M59.9049213S
p4033
sa(dp4034
g32
VPlayerSpawn
p4035
sg39
(dp4036
g41
VEG Lunchbox HCS
p4037
sg43
Nssg35
VPT4M59.9049213S
p4038
sa(dp4039
g234
I4096745987
sg235
I00
sg236
I00
sg237
(dp4040
g41
VEG Snip3downHCS
p4041
sg43
Nssg240
(lp4042
I2758383128
asg242
I00
sg243
I01
sg244
I1
sg245
I0
sg246
I1
sg247
(dp4043
Vy
F-4.6632559999999996
sVx
F-0.29475750000000001
sVz
F1.53453112
ssg249
(dp4044
Vy
F-7.147996
sVx
F-4.9305996900000002
sVz
F0.69344484799999995
ssg251
I00
sg252
(dp4045
g41
VTL Assault HCS
p4046
sg43
Nssg255
(lp4047
sg257
(lp4048
(dp4049
g41
VEG Roy HCS
p4050
sg43
Nsasg259
I01
sg35
VPT5M1.1689292S
p4051
sg32
VDeath
p4052
sg262
I1
sa(dp4053
g32
VMedal
p4054
sg39
(dp4055
g41
VEG Snip3downHCS
p4056
sg43
Nssg267
I3261908037
sg35
VPT5M1.170928S
p4057
sa(dp4058
g32
VMedal
p4059
sg39
(dp4060
g41
VEG Snip3downHCS
p4061
sg43
Nssg267
I2078758684
sg35
VPT5M1.170928S
p4062
sa(dp4063
g38
I2511447508
sg32
VWeaponDrop
p4064
sg180
I0
sg44
(lp4065
I2758383128
asg35
VPT5M1.1776388S
p4066
sg183
I0
sg184
VP0DT0H0M0.3833S
p4067
sg39
(dp4068
g41
VTL Assault HCS
p4069
sg43
Nssa(dp4070
g38
I424645655
sg32
VWeaponDrop
p4071
sg180
I29
sg44
(lp4072
I1327094800
asg35
VPT5M1.1776388S
p4073
sg183
I11
sg184
VP0DT0H0M35.6500S
p4074
sg39
(dp4075
g41
VTL Assault HCS
p4076
sg43
Nssa(dp4077
g38
I424645655
sg32
VWeaponDrop
p4078
sg180
I0
sg44
(lp4079
I1327094800
asg35
VPT5M1.1776388S
p4080
sg183
I0
sg184
VP0DT0S
p4081
sg39
(dp4082
g41
VTL Assault HCS
p4083
sg43
Nssa(dp4084
g38
I4096745987
sg32
VWeaponDrop
p4085
sg180
I7
sg44
(lp4086
I2758383128
asg35
VPT5M2.3649343S
p4087
sg183
I4
sg184
VP0DT0H0M19.1500S
p4088
sg39
(dp4089
g41
VEG Roy HCS
p4090
sg43
Nssa(dp4091
g38
I424645655
sg39
(dp4092
g41
VEG Roy HCS
p4093
sg43
Nssg44
(lp4094
I1327094800
asg32
VWeaponPickup
p4095
sg35
VPT5M2.3649343S
p4096
sa(dp4097
g234
I4096745987
sg235
I00
sg236
I00
sg237
(dp4098
g41
VTL Eco HCS
p4099
sg43
Nssg240
(lp4100
I2758383128
asg242
I00
sg243
I01
sg244
I1
sg245
I0
sg246
I1
sg247
(dp4101
Vy
F-5.2029360000000002
sVx
F-13.8598576
sVz
F2.5444023599999999
ssg249
(dp4102
Vy
F-6.5287269999999999
sVx
F-8.9968620000000001
sVz
F0.297444284
ssg251
I00
sg252
(dp4103
g41
VEG Roy HCS
p4104
sg43
Nssg255
(lp4105
sg257
(lp4106
sg259
I01
sg35
VPT5M3.5349432S
p4107
sg32
VDeath
p4108
sg262
I1
sa(dp4109
g32
VMedal
p4110
sg39
(dp4111
g41
VTL Eco HCS
p4112
sg43
Nssg267
I3261908037
sg35
VPT5M3.5359427S
p4113
sa(dp4114
g38
I313138863
sg32
VWeaponDrop
p4115
sg180
I2
sg44
(lp4116
I1095363701
asg35
VPT5M3.5369425S
p4117
sg183
I0
sg184
VP0DT0H0M4.6500S
p4118
sg39
(dp4119
g41
VEG Roy HCS
p4120
sg43
Nssa(dp4121
g38
I424645655
sg32
VWeaponDrop
p4122
sg180
I0
sg44
(lp4123
I1327094800
asg35
VPT5M3.5369425S
p4124
sg183
I0
sg184
VP0DT0H0M1.1500S
p4125
sg39
(dp4126
g41
VEG Roy HCS
p4127
sg43
Nssa(dp4128
g38
I313138863
sg39
(dp4129
g41
VEG SuspectorHCS
p4130
sg43
Nssg44
(lp4131
I1095363701
asg32
VWeaponPickup
p4132
sg35
VPT5M4.5499491S
p4133
sa(dp4134
g38
I4096745987
sg39
(dp4135
g41
VEG SuspectorHCS
p4136
sg43
Nssg44
(lp4137
I2758383128
asg32
VWeaponPickup
p4138
sg35
VPT5M4.5509496S
p4139
sa(dp4140
g32
VPlayerSpawn
p4141
sg39
(dp4142
g41
VEG SuspectorHCS
p4143
sg43
Nssg35
VPT5M4.5509496S
p4144
sa(dp4145
g234
I3682788176
sg235
I00
sg236
I00
sg237
(dp4146
g41
VTL StelluR
p4147
sg43
Nssg240
(lp4148
I2758383128
asg242
I00
sg243
I01
sg244
I1
sg245
I0
sg246
I1
sg247
(dp4149
Vy
F-11.920487400000001
sVx
F-11.1481438
sVz
F1.32895231
ssg249
(dp4150
Vy
F-13.2869034
sVx
F-5.5643014900000001
sVz
F0.62607259999999998
ssg251
I00
sg252
(dp4151
g41
VEG Snip3downHCS
p4152
sg43
Nssg255
(lp4153
sg257
(lp4154
(dp4155
g41
VTL Assault HCS
p4156
sg43
Nsa(dp4157
g41
VTL Eco HCS
p4158
sg43
Nsasg259
I00
sg35
VPT5M6.0379595S
p4159
sg32
VDeath
p4160
sg262
I1
sa(dp4161
g32
VMedal
p4162
sg39
(dp4163
g41
VTL StelluR
p4164
sg43
Nssg267
I2430242797
sg35
VPT5M6.0389594S
p4165
sa(dp4166
g38
I313138863
sg32
VWeaponDrop
p4167
sg180
I0
sg44
(lp4168
I1095363701
asg35
VPT5M6.0389594S
p4169
sg183
I0
sg184
VP0DT0H0M0.3167S
p4170
sg39
(dp4171
g41
VEG Snip3downHCS
p4172
sg43
Nssa(dp4173
g38
I4096745987
sg32
VWeaponDrop
p4174
sg180
I11
sg44
(lp4175
I2758383128
asg35
VPT5M6.0389594S
p4176
sg183
I6
sg184
VP0DT0H0M10.3167S
p4177
sg39
(dp4178
g41
VEG Snip3downHCS
p4179
sg43
Nssa(dp4180
g234
I4096745987
sg235
I00
sg236
I00
sg237
(dp4181
g41
VEG Lunchbox HCS
p4182
sg43
Nssg240
(lp4183
I2758383128
asg242
I00
sg243
I01
sg244
I1
sg245
I0
sg246
I1
sg247
(dp4184
Vy
F-10.7258587
sVx
F2.0848047699999999
sVz
F0.81273925300000005
ssg249
(dp4185
Vy
F-10.992977099999999
sVx
F-12.0659542
sVz
F0.59997420000000001
ssg251
I00
sg252
(dp4186
g41
VTL StelluR
p4187
sg43
Nssg255
(lp4188
sg257
(lp4189
(dp4190
g41
VEG Snip3downHCS
p4191
sg43
Nsasg259
I01
sg35
VPT5M6.836964S
p4192
sg32
VDeath
p4193
sg262
I1
sa(dp4194
g32
VMedal
p4195
sg39
(dp4196
g41
VEG Lunchbox HCS
p4197
sg43
Nssg267
I164204247
sg35
VPT5M6.8379646S
p4198
sa(dp4199
g32
VMedal
p4200
sg39
(dp4201
g41
VEG Lunchbox HCS
p4202
sg43
Nssg267
I3261908037
sg35
VPT5M6.8379646S
p4203
sa(dp4204
g38
I424645655
sg32
VWeaponDrop
p4205
sg180
I100
sg44
(lp4206
I1327094800
asg35
VPT5M6.8389644S
p4207
sg183
I51
sg184
VP0DT0H1M8.1667S
p4208
sg39
(dp4209
g41
VTL StelluR
p4210
sg43
Nssa(dp4211
g38
I3682788176
sg32
VWeaponDrop
p4212
sg180
I2
sg44
(lp4213
I2758383128
asg35
VPT5M6.8461332S
p4214
sg183
I1
sg184
VP0DT0H0M11.7833S
p4215
sg39
(dp4216
g41
VTL StelluR
p4217
sg43
Nssa(dp4218
g38
I3682788176
sg32
VWeaponDrop
p4219
sg180
I0
sg44
(lp4220
I2758383128
asg35
VPT5M6.8461332S
p4221
sg183
I0
sg184
VP0DT0S
p4222
sg39
(dp4223
g41
VTL StelluR
p4224
sg43
Nssa(dp4225
g38
I313138863
sg39
(dp4226
g41
VTL Spartan HCS
p4227
sg43
Nssg44
(lp4228
I1095363701
asg32
VWeaponPickup
p4229
sg35
VPT5M7.6039706S
p4230
sa(dp4231
g38
I4096745987
sg39
(dp4232
g41
VTL Spartan HCS
p4233
sg43
Nssg44
(lp4234
I2758383128
asg32
VWeaponPickup
p4235
sg35
VPT5M7.6039706S
p4236
sa(dp4237
g32
VPlayerSpawn
p4238
sg39
(dp4239
g41
VTL Spartan HCS
p4240
sg43
Nssg35
VPT5M7.6039706S
p4241
sa(dp4242
g38
I313138863
sg39
(dp4243
g41
VTL Assault HCS
p4244
sg43
Nssg44
(lp4245
I1095363701
asg32
VWeaponPickup
p4246
sg35
VPT5M9.1879809S
p4247
sa(dp4248
g38
I4096745987
sg39
(dp4249
g41
VTL Assault HCS
p4250
sg43
Nssg44
(lp4251
I2758383128
asg32
VWeaponPickup
p4252
sg35
VPT5M9.1879809S
p4253
sa(dp4254
g32
VPlayerSpawn
p4255
sg39
(dp4256
g41
VTL Assault HCS
p4257
sg43
Nssg35
VPT5M9.1879809S
p4258
sa(dp4259
g38
I313138863
sg39
(dp4260
g41
VEG Roy HCS
p4261
sg43
Nssg44
(lp4262
I1095363701
asg32
VWeaponPickup
p4263
sg35
VPT5M11.5379947S
p4264
sa(dp4265
g38
I4096745987
sg39
(dp4266
g41
VEG Roy HCS
p4267
sg43
Nssg44
(lp4268
I2758383128
asg32
VWeaponPickup
p4269
sg35
VPT5M11.5379947S
p4270
sa(dp4271
g32
VPlayerSpawn
p4272
sg39
(dp4273
g41
VEG Roy HCS
p4274
sg43
Nssg35
VPT5M11.5379947S
p4275
sa(dp4276
g38
I313138863
sg39
(dp4277
g41
VEG Snip3downHCS
p4278
sg43
Nssg44
(lp4279
I1095363701
asg32
VWeaponPickup
p4280
sg35
VPT5M14.0520112S
p4281
sa(dp4282
g38
I4096745987
sg39
(dp4283
g41
VEG Snip3downHCS
p4284
sg43
Nssg44
(lp4285
I2758383128
asg32
VWeaponPickup
p4286
sg35
VPT5M14.0520112S
p4287
sa(dp4288
g32
VPlayerSpawn
p4289
sg39
(dp4290
g41
VEG Snip3downHCS
p4291
sg43
Nssg35
VPT5M14.0520112S
p4292
sa(dp4293
g38
I313138863
sg39
(dp4294
g41
VTL StelluR
p4295
sg43
Nssg44
(lp4296
I1095363701
asg32
VWeaponPickup
p4297
sg35
VPT5M14.8500166S
p4298
sa(dp4299
g38
I4096745987
sg39
(dp4300
g41
VTL StelluR
p4301
sg43
Nssg44
(lp4302
I2758383128
asg32
VWeaponPickup
p4303
sg35
VPT5M14.8500166S
p4304
sa(dp4305
g32
VPlayerSpawn
p4306
sg39
(dp4307
g41
VTL StelluR
p4308
sg43
Nssg35
VPT5M14.8500166S
p4309
sa(dp4310
g234
I4096745987
sg235
I00
sg236
I00
sg237
(dp4311
g41
VTL Assault HCS
p4312
sg43
Nssg240
(lp4313
I2758383128
asg242
I00
sg243
I01
sg244
I1
sg245
I0
sg246
I1
sg247
(dp4314
Vy
F2.9706091899999998
sVx
F-11.145514500000001
sVz
F4.7385692599999997e-06
ssg249
(dp4315
Vy
F-6.5441985100000002
sVx
F-13.6555538
sVz
F0.053602963699999999
ssg251
I00
sg252
(dp4316
g41
VEG SuspectorHCS
p4317
sg43
Nssg255
(lp4318
sg257
(lp4319
(dp4320
g41
VTL Eco HCS
p4321
sg43
Nsasg259
I01
sg35
VPT5M14.8570156S
p4322
sg32
VDeath
p4323
sg262
I1
sa(dp4324
g32
VMedal
p4325
sg39
(dp4326
g41
VTL Assault HCS
p4327
sg43
Nssg267
I3261908037
sg35
VPT5M14.858016S
p4328
sa(dp4329
g38
I313138863
sg32
VWeaponDrop
p4330
sg180
I11
sg44
(lp4331
I1095363701
asg35
VPT5M14.8590149S
p4332
sg183
I2
sg184
VP0DT0H0M3.0167S
p4333
sg39
(dp4334
g41
VEG SuspectorHCS
p4335
sg43
Nssa(dp4336
g38
I4096745987
sg32
VWeaponDrop
p4337
sg180
I6
sg44
(lp4338
I2758383128
asg35
VPT5M14.8590149S
p4339
sg183
I2
sg184
VP0DT0H0M7.2833S
p4340
sg39
(dp4341
g41
VEG SuspectorHCS
p4342
sg43
Nssa(dp4343
g38
I313138863
sg32
VWeaponDrop
p4344
sg180
I0
sg44
(lp4345
I1095363701
asg35
VPT5M18.3706728S
p4346
sg183
I0
sg184
VP0DT0H0M1.8333S
p4347
sg39
(dp4348
g41
VEG Lunchbox HCS
p4349
sg43
Nssa(dp4350
g38
I2511447508
sg39
(dp4351
g41
VEG Lunchbox HCS
p4352
sg43
Nssg44
(lp4353
I2758383128
asg32
VWeaponPickup
p4354
sg35
VPT5M18.3710385S
p4355
sa(dp4356
g32
VMedal
p4357
sg39
(dp4358
g41
VEG Lunchbox HCS
p4359
sg43
Nssg267
I2380717523
sg35
VPT5M19.6020451S
p4360
sa(dp4361
g32
VImpulse
p4362
sg39
(dp4363
g41
VEG Lunchbox HCS
p4364
sg43
Nssg273
I1063951891
sg35
VPT5M19.6020451S
p4365
sa(dp4366
g38
I4096745987
sg32
VWeaponDrop
p4367
sg180
I0
sg44
(lp4368
I2758383128
asg35
VPT5M21.198055S
p4369
sg183
I0
sg184
VP0DT0H0M3.4667S
p4370
sg39
(dp4371
g41
VTL StelluR
p4372
sg43
Nssa(dp4373
g38
I424645655
sg39
(dp4374
g41
VTL StelluR
p4375
sg43
Nssg44
(lp4376
I1327094800
asg32
VWeaponPickup
p4377
sg35
VPT5M21.198055S
p4378
sa(dp4379
g234
I4096745987
sg235
I00
sg236
I00
sg237
(dp4380
g41
VTL Spartan HCS
p4381
sg43
Nssg240
(lp4382
I2758383128
asg242
I00
sg243
I01
sg244
I1
sg245
I0
sg246
I1
sg247
(dp4383
Vy
F-0.66176825800000005
sVx
F9.2368860000000002
sVz
F2.8092117299999999
ssg249
(dp4384
Vy
F0.026854667799999999
sVx
F19.587291700000002
sVz
F2.5166082400000001
ssg251
I00
sg252
(dp4385
g41
VEG Snip3downHCS
p4386
sg43
Nssg255
(lp4387
sg257
(lp4388
sg259
I01
sg35
VPT5M21.534059S
p4389
sg32
VDeath
p4390
sg262
I1
sa(dp4391
g32
VMedal
p4392
sg39
(dp4393
g41
VTL Spartan HCS
p4394
sg43
Nssg267
I2782465081
sg35
VPT5M21.534059S
p4395
sa(dp4396
g32
VMedal
p4397
sg39
(dp4398
g41
VTL Spartan HCS
p4399
sg43
Nssg267
I3261908037
sg35
VPT5M21.5360585S
p4400
sa(dp4401
g38
I313138863
sg32
VWeaponDrop
p4402
sg180
I0
sg44
(lp4403
I1095363701
asg35
VPT5M21.5360585S
p4404
sg183
I0
sg184
VP0DT0H0M0.3167S
p4405
sg39
(dp4406
g41
VEG Snip3downHCS
p4407
sg43
Nssa(dp4408
g38
I4096745987
sg32
VWeaponDrop
p4409
sg180
I6
sg44
(lp4410
I2758383128
asg35
VPT5M21.5360585S
p4411
sg183
I5
sg184
VP0DT0H0M7.1667S
p4412
sg39
(dp4413
g41
VEG Snip3downHCS
p4414
sg43
Nssa(dp4415
g38
I313138863
sg39
(dp4416
g41
VEG SuspectorHCS
p4417
sg43
Nssg44
(lp4418
I1095363701
asg32
VWeaponPickup
p4419
sg35
VPT5M22.8680671S
p4420
sa(dp4421
g38
I4096745987
sg39
(dp4422
g41
VEG SuspectorHCS
p4423
sg43
Nssg44
(lp4424
I2758383128
asg32
VWeaponPickup
p4425
sg35
VPT5M22.8680671S
p4426
sa(dp4427
g32
VPlayerSpawn
p4428
sg39
(dp4429
g41
VEG SuspectorHCS
p4430
sg43
Nssg35
VPT5M22.8680671S
p4431
sa(dp4432
g234
I4096745987
sg235
I00
sg236
I00
sg237
(dp4433
g41
VEG Snip3downHCS
p4434
sg43
Nssg240
(lp4435
I2758383128
asg242
I00
sg243
I01
sg244
I1
sg245
I0
sg246
I1
sg247
(dp4436
Vy
F0.82472239999999997
sVx
F20.496103300000001
sVz
F1.45447528
ssg249
(dp4437
Vy
F6.5079402899999996
sVx
F11.8267717
sVz
F0.40712678400000002
ssg251
I00
sg252
(dp4438
g41
VTL Spartan HCS
p4439
sg43
Nssg255
(lp4440
sg257
(lp4441
sg259
I00
sg35
VPT5M26.0289878S
p4442
sg32
VDeath
p4443
sg262
I1
sa(dp4444
g32
VMedal
p4445
sg39
(dp4446
g41
VEG Snip3downHCS
p4447
sg43
Nssg267
I285057226
sg35
VPT5M26.0300867S
p4448
sa(dp4449
g38
I313138863
sg32
VWeaponDrop
p4450
sg180
I2
sg44
(lp4451
I1095363701
asg35
VPT5M26.0300867S
p4452
sg183
I0
sg184
VP0DT0H0M5.5167S
p4453
sg39
(dp4454
g41
VTL Spartan HCS
p4455
sg43
Nssa(dp4456
g38
I4096745987
sg32
VWeaponDrop
p4457
sg180
I10
sg44
(lp4458
I2758383128
asg35
VPT5M26.0300867S
p4459
sg183
I6
sg184
VP0DT0H0M12.9167S
p4460
sg39
(dp4461
g41
VTL Spartan HCS
p4462
sg43
Nssa(dp4463
g234
I313138863
sg235
I00
sg236
I01
sg237
(dp4464
g41
VTL Spartan HCS
p4465
sg43
Nssg240
(lp4466
I1095363701
asg242
I00
sg243
I00
sg244
I1
sg245
I0
sg246
I1
sg247
(dp4467
Vy
F7.10251856
sVx
F12.321456899999999
sVz
F1.11171687
ssg249
(dp4468
Vy
F7.0856789999999998
sVx
F12.4354706
sVz
F1.0033657600000001
ssg251
I00
sg252
(dp4469
g41
VEG Roy HCS
p4470
sg43
Nssg255
(lp4471
sg257
(lp4472
(dp4473
g41
VTL StelluR
p4474
sg43
Nsasg259
I00
sg35
VPT5M26.1200878S
p4475
sg32
VDeath
p4476
sg262
I1
sa(dp4477
g32
VMedal
p4478
sg39
(dp4479
g41
VTL Spartan HCS
p4480
sg43
Nssg267
I2838259753
sg35
VPT5M26.1200878S
p4481
sa(dp4482
g32
VImpulse
p4483
sg39
(dp4484
g41
VTL Spartan HCS
p4485
sg43
Nssg273
I2556889090
sg35
VPT5M26.1200878S
p4486
sa(dp4487
g32
VMedal
p4488
sg39
(dp4489
g41
VTL Spartan HCS
p4490
sg43
Nssg267
I2287626681
sg35
VPT5M26.1200878S
p4491
sa(dp4492
g38
I4096745987
sg32
VWeaponDrop
p4493
sg180
I6
sg44
(lp4494
I2758383128
asg35
VPT5M26.1210878S
p4495
sg183
I5
sg184
VP0DT0H0M13.7500S
p4496
sg39
(dp4497
g41
VEG Roy HCS
p4498
sg43
Nssa(dp4499
g38
I313138863
sg32
VWeaponDrop
p4500
sg180
I0
sg44
(lp4501
I1095363701
asg35
VPT5M26.1210878S
p4502
sg183
I0
sg184
VP0DT0H0M0.8167S
p4503
sg39
(dp4504
g41
VEG Roy HCS
p4505
sg43
Nssa(dp4506
g234
I313138863
sg235
I00
sg236
I00
sg237
(dp4507
g41
VTL Assault HCS
p4508
sg43
Nssg240
(lp4509
I1095363701
asg242
I00
sg243
I01
sg244
I1
sg245
I0
sg246
I1
sg247
(dp4510
Vy
F-12.522779999999999
sVx
F-11.989761400000001
sVz
F0.60005710000000001
ssg249
(dp4511
Vy
F-9.3781929999999996
sVx
F-10.5337563
sVz
F0.58395636100000003
ssg251
I00
sg252
(dp4512
g41
VEG Lunchbox HCS
p4513
sg43
Nssg255
(lp4514
sg257
(lp4515
sg259
I00
sg35
VPT5M28.0510999S
p4516
sg32
VDeath
p4517
sg262
I1
sa(dp4518
g32
VMedal
p4519
sg39
(dp4520
g41
VTL Eco HCS
p4521
sg43
Nssg267
I824733727
sg35
VPT5M28.0521006S
p4522
sa(dp4523
g38
I2511447508
sg32
VWeaponDrop
p4524
sg180
I2
sg44
(lp4525
I2758383128
asg35
VPT5M28.0583689S
p4526
sg183
I1
sg184
VP0DT0H0M9.6667S
p4527
sg39
(dp4528
g41
VEG Lunchbox HCS
p4529
sg43
Nssa(dp4530
g38
I4096745987
sg32
VWeaponDrop
p4531
sg180
I13
sg44
(lp4532
I2758383128
asg35
VPT5M28.0583689S
p4533
sg183
I5
sg184
VP0DT0H0M16.6500S
p4534
sg39
(dp4535
g41
VEG Lunchbox HCS
p4536
sg43
Nssa(dp4537
g38
I313138863
sg39
(dp4538
g41
VEG Snip3downHCS
p4539
sg43
Nssg44
(lp4540
I1095363701
asg32
VWeaponPickup
p4541
sg35
VPT5M29.5491107S
p4542
sa(dp4543
g38
I4096745987
sg39
(dp4544
g41
VEG Snip3downHCS
p4545
sg43
Nssg44
(lp4546
I2758383128
asg32
VWeaponPickup
p4547
sg35
VPT5M29.5501109S
p4548
sa(dp4549
g32
VPlayerSpawn
p4550
sg39
(dp4551
g41
VEG Snip3downHCS
p4552
sg43
Nssg35
VPT5M29.5501109S
p4553
sa(dp4554
g234
I4096745987
sg235
I00
sg236
I00
sg237
(dp4555
g41
VEG SuspectorHCS
p4556
sg43
Nssg240
(lp4557
I2758383128
asg242
I00
sg243
I01
sg244
I1
sg245
I0
sg246
I1
sg247
(dp4558
Vy
F-17.7088985
sVx
F0.18723273300000001
sVz
F0.65300333499999996
ssg249
(dp4559
Vy
F-15.604711500000001
sVx
F-2.7364528199999998
sVz
F0.75301224
ssg251
I00
sg252
(dp4560
g41
VTL Eco HCS
p4561
sg43
Nssg255
(lp4562
sg257
(lp4563
(dp4564
g41
VEG Lunchbox HCS
p4565
sg43
Nsasg259
I01
sg35
VPT5M30.5371167S
p4566
sg32
VDeath
p4567
sg262
I1
sa(dp4568
g32
VMedal
p4569
sg39
(dp4570
g41
VEG SuspectorHCS
p4571
sg43
Nssg267
I3261908037
sg35
VPT5M30.5381168S
p4572
sa(dp4573
g38
I313138863
sg32
VWeaponDrop
p4574
sg180
I0
sg44
(lp4575
I1095363701
asg35
VPT5M30.5391163S
p4576
sg183
I0
sg184
VP0DT0H0M0.7500S
p4577
sg39
(dp4578
g41
VTL Eco HCS
p4579
sg43
Nssa(dp4580
g38
I4096745987
sg32
VWeaponDrop
p4581
sg180
I47
sg44
(lp4582
I2758383128
asg35
VPT5M30.5391163S
p4583
sg183
I23
sg184
VP0DT0H0M56.8667S
p4584
sg39
(dp4585
g41
VTL Eco HCS
p4586
sg43
Nssa(dp4587
g38
I2244200496
sg39
(dp4588
g41
VTL Assault HCS
p4589
sg43
Nssg44
(lp4590
I2758383128
asg32
VWeaponPickup
p4591
sg35
VPT5M30.8322779S
p4592
sa(dp4593
g32
VImpulse
p4594
sg39
(dp4595
g41
VTL Assault HCS
p4596
sg43
Nssg273
I4191318012
sg35
VPT5M30.8331183S
p4597
sa(dp4598
g32
VImpulse
p4599
sg39
(dp4600
g41
VTL Assault HCS
p4601
sg43
Nssg273
I1039658009
sg35
VPT5M30.8331183S
p4602
sa(dp4603
g38
I2244200496
sg32
VWeaponDrop
p4604
sg180
I0
sg44
(lp4605
I2758383128
asg35
VPT5M31.8641228S
p4606
sg183
I0
sg184
VP0DT0H0M0.9000S
p4607
sg39
(dp4608
g41
VTL Assault HCS
p4609
sg43
Nssa(dp4610
g32
VImpulse
p4611
sg39
(dp4612
g41
VTL Assault HCS
p4613
sg43
Nssg273
I3435524855
sg35
VPT5M31.8824327S
p4614
sa(dp4615
g38
I313138863
sg39
(dp4616
g41
VTL Spartan HCS
p4617
sg43
Nssg44
(lp4618
I1095363701
asg32
VWeaponPickup
p4619
sg35
VPT5M34.21714S
p4620
sa(dp4621
g38
I4096745987
sg39
(dp4622
g41
VTL Spartan HCS
p4623
sg43
Nssg44
(lp4624
I2758383128
asg32
VWeaponPickup
p4625
sg35
VPT5M34.2235045S
p4626
sa(dp4627
g32
VPlayerSpawn
p4628
sg39
(dp4629
g41
VTL Spartan HCS
p4630
sg43
Nssg35
VPT5M34.2235045S
p4631
sa(dp4632
g38
I313138863
sg39
(dp4633
g41
VEG Roy HCS
p4634
sg43
Nssg44
(lp4635
I1095363701
asg32
VWeaponPickup
p4636
sg35
VPT5M34.2541399S
p4637
sa(dp4638
g38
I4096745987
sg39
(dp4639
g41
VEG Roy HCS
p4640
sg43
Nssg44
(lp4641
I2758383128
asg32
VWeaponPickup
p4642
sg35
VPT5M34.2541399S
p4643
sa(dp4644
g32
VPlayerSpawn
p4645
sg39
(dp4646
g41
VEG Roy HCS
p4647
sg43
Nssg35
VPT5M34.2541399S
p4648
sa(dp4649
g38
I313138863
sg39
(dp4650
g41
VEG Lunchbox HCS
p4651
sg43
Nssg44
(lp4652
I1095363701
asg32
VWeaponPickup
p4653
sg35
VPT5M36.1841531S
p4654
sa(dp4655
g38
I4096745987
sg39
(dp4656
g41
VEG Lunchbox HCS
p4657
sg43
Nssg44
(lp4658
I2758383128
asg32
VWeaponPickup
p4659
sg35
VPT5M36.1851523S
p4660
sa(dp4661
g32
VPlayerSpawn
p4662
sg39
(dp4663
g41
VEG Lunchbox HCS
p4664
sg43
Nssg35
VPT5M36.1851523S
p4665
sa(dp4666
g234
I4096745987
sg235
I00
sg236
I00
sg237
(dp4667
g41
VEG SuspectorHCS
p4668
sg43
Nssg240
(lp4669
I2758383128
asg242
I00
sg243
I01
sg244
I1
sg245
I0
sg246
I1
sg247
(dp4670
Vy
F-17.648893399999999
sVx
F-1.7037837499999999
sVz
F0.6292951
ssg249
(dp4671
Vy
F-13.4743137
sVx
F-3.73476052
sVz
F0.70969780000000005
ssg251
I00
sg252
(dp4672
g41
VTL Assault HCS
p4673
sg43
Nssg255
(lp4674
sg257
(lp4675
(dp4676
g41
VEG Snip3downHCS
p4677
sg43
Nsasg259
I00
sg35
VPT5M36.315153S
p4678
sg32
VDeath
p4679
sg262
I1
sa(dp4680
g38
I313138863
sg32
VWeaponDrop
p4681
sg180
I36
sg44
(lp4682
I1095363701
asg35
VPT5M36.322483S
p4683
sg183
I16
sg184
VP0DT0H0M9.2500S
p4684
sg39
(dp4685
g41
VTL Assault HCS
p4686
sg43
Nssa(dp4687
g38
I4096745987
sg32
VWeaponDrop
p4688
sg180
I5
sg44
(lp4689
I2758383128
asg35
VPT5M36.322483S
p4690
sg183
I4
sg184
VP0DT0H0M16.8667S
p4691
sg39
(dp4692
g41
VTL Assault HCS
p4693
sg43
Nssa(dp4694
g234
I4096745987
sg235
I00
sg236
I00
sg237
(dp4695
g41
VTL Spartan HCS
p4696
sg43
Nssg240
(lp4697
I2758383128
asg242
I00
sg243
I01
sg244
I1
sg245
I0
sg246
I1
sg247
(dp4698
Vy
F0.057131774699999999
sVx
F-8.6233369999999994
sVz
F0.27272099999999999
ssg249
(dp4699
Vy
F-15.951003099999999
sVx
F-2.3033852600000002
sVz
F1.68004537
ssg251
I00
sg252
(dp4700
g41
VEG SuspectorHCS
p4701
sg43
Nssg255
(lp4702
sg257
(lp4703
(dp4704
g41
VTL Assault HCS
p4705
sg43
Nsasg259
I01
sg35
VPT5M37.6481614S
p4706
sg32
VDeath
p4707
sg262
I1
sa(dp4708
g32
VMedal
p4709
sg39
(dp4710
g41
VTL Spartan HCS
p4711
sg43
Nssg267
I3261908037
sg35
VPT5M37.6561592S
p4712
sa(dp4713
g38
I313138863
sg32
VWeaponDrop
p4714
sg180
I0
sg44
(lp4715
I1095363701
asg35
VPT5M37.6561592S
p4716
sg183
I0
sg184
VP0DT0H0M1.1833S
p4717
sg39
(dp4718
g41
VEG SuspectorHCS
p4719
sg43
Nssa(dp4720
g38
I4096745987
sg32
VWeaponDrop
p4721
sg180
I17
sg44
(lp4722
I2758383128
asg35
VPT5M37.6561592S
p4723
sg183
I10
sg184
VP0DT0H0M13.4833S
p4724
sg39
(dp4725
g41
VEG SuspectorHCS
p4726
sg43
Nssa(dp4727
g38
I2244200496
sg39
(dp4728
g41
VTL StelluR
p4729
sg43
Nssg44
(lp4730
I2758383128
asg32
VWeaponPickup
p4731
sg35
VPT5M37.8141607S
p4732
sa(dp4733
g32
VImpulse
p4734
sg39
(dp4735
g41
VTL StelluR
p4736
sg43
Nssg273
I4191318012
sg35
VPT5M37.8141607S
p4737
sa(dp4738
g38
I313138863
sg39
(dp4739
g41
VTL Eco HCS
p4740
sg43
Nssg44
(lp4741
I1095363701
asg32
VWeaponPickup
p4742
sg35
VPT5M38.6691688S
p4743
sa(dp4744
g38
I4096745987
sg39
(dp4745
g41
VTL Eco HCS
p4746
sg43
Nssg44
(lp4747
I2758383128
asg32
VWeaponPickup
p4748
sg35
VPT5M38.6691688S
p4749
sa(dp4750
g32
VPlayerSpawn
p4751
sg39
(dp4752
g41
VTL Eco HCS
p4753
sg43
Nssg35
VPT5M38.6691688S
p4754
sa(dp4755
g234
I4096745987
sg235
I00
sg236
I00
sg237
(dp4756
g41
VEG Snip3downHCS
p4757
sg43
Nssg240
(lp4758
I2758383128
asg242
I00
sg243
I01
sg244
I1
sg245
I0
sg246
I1
sg247
(dp4759
Vy
F-10.17428
sVx
F-1.74727952
sVz
F1.2464644899999999
ssg249
(dp4760
Vy
F-2.2775735899999998
sVx
F-7.3310055700000003
sVz
F0.98737067000000001
ssg251
I00
sg252
(dp4761
g41
VTL StelluR
p4762
sg43
Nssg255
(lp4763
sg257
(lp4764
(dp4765
g41
VEG SuspectorHCS
p4766
sg43
Nsa(dp4767
g41
VEG Roy HCS
p4768
sg43
Nsasg259
I01
sg35
VPT5M39.2871723S
p4769
sg32
VDeath
p4770
sg262
I1
sa(dp4771
g32
VMedal
p4772
sg39
(dp4773
g41
VEG Snip3downHCS
p4774
sg43
Nssg267
I2028249938
sg35
VPT5M39.2891718S
p4775
sa(dp4776
g32
VImpulse
p4777
sg39
(dp4778
g41
VEG Snip3downHCS
p4779
sg43
Nssg273
I2299858338
sg35
VPT5M39.2891718S
p4780
sa(dp4781
g32
VMedal
p4782
sg39
(dp4783
g41
VEG Snip3downHCS
p4784
sg43
Nssg267
I3261908037
sg35
VPT5M39.2891718S
p4785
sa(dp4786
g38
I313138863
sg32
VWeaponDrop
p4787
sg180
I0
sg44
(lp4788
I1095363701
asg35
VPT5M39.2901722S
p4789
sg183
I0
sg184
VP0DT0H0M2.9000S
p4790
sg39
(dp4791
g41
VTL StelluR
p4792
sg43
Nssa(dp4793
g38
I424645655
sg32
VWeaponDrop
p4794
sg180
I9
sg44
(lp4795
I1327094800
asg35
VPT5M39.2901722S
p4796
sg183
I1
sg184
VP0DT0H0M16.6500S
p4797
sg39
(dp4798
g41
VTL StelluR
p4799
sg43
Nssa(dp4800
g38
I2244200496
sg32
VWeaponDrop
p4801
sg180
I3
sg44
(lp4802
I2758383128
asg35
VPT5M39.2901722S
p4803
sg183
I2
sg184
VP0DT0H0M1.3000S
p4804
sg39
(dp4805
g41
VTL StelluR
p4806
sg43
Nssa(dp4807
g32
VImpulse
p4808
sg39
(dp4809
g41
VTL StelluR
p4810
sg43
Nssg273
I3435524855
sg35
VPT5M39.2991722S
p4811
sa(dp4812
g38
I313138863
sg39
(dp4813
g41
VTL Assault HCS
p4814
sg43
Nssg44
(lp4815
I1095363701
asg32
VWeaponPickup
p4816
sg35
VPT5M44.3372049S
p4817
sa(dp4818
g38
I4096745987
sg39
(dp4819
g41
VTL Assault HCS
p4820
sg43
Nssg44
(lp4821
I2758383128
asg32
VWeaponPickup
p4822
sg35
VPT5M44.338205S
p4823
sa(dp4824
g32
VPlayerSpawn
p4825
sg39
(dp4826
g41
VTL Assault HCS
p4827
sg43
Nssg35
VPT5M44.338205S
p4828
sa(dp4829
g38
I313138863
sg39
(dp4830
g41
VEG SuspectorHCS
p4831
sg43
Nssg44
(lp4832
I1095363701
asg32
VWeaponPickup
p4833
sg35
VPT5M45.6712131S
p4834
sa(dp4835
g38
I4096745987
sg39
(dp4836
g41
VEG SuspectorHCS
p4837
sg43
Nssg44
(lp4838
I2758383128
asg32
VWeaponPickup
p4839
sg35
VPT5M45.6712131S
p4840
sa(dp4841
g32
VPlayerSpawn
p4842
sg39
(dp4843
g41
VEG SuspectorHCS
p4844
sg43
Nssg35
VPT5M45.6712131S
p4845
sa(dp4846
g32
VMedal
p4847
sg39
(dp4848
g41
VTL Spartan HCS
p4849
sg43
Nssg267
I3400287617
sg35
VPT5M46.8342951S
p4850
sa(dp4851
g38
I313138863
sg32
VWeaponDrop
p4852
sg180
I0
sg44
(lp4853
I1095363701
asg35
VPT5M46.9638998S
p4854
sg183
I0
sg184
VP0DT0H0M1.1500S
p4855
sg39
(dp4856
g41
VTL Spartan HCS
p4857
sg43
Nssa(dp4858
g38
I2133511419
sg39
(dp4859
g41
VTL Spartan HCS
p4860
sg43
Nssg44
(lp4861
I2758383128
asg32
VWeaponPickup
p4862
sg35
VPT5M46.9642222S
p4863
sa(dp4864
g38
I313138863
sg39
(dp4865
g41
VTL StelluR
p4866
sg43
Nssg44
(lp4867
I1095363701
asg32
VWeaponPickup
p4868
sg35
VPT5M47.3042247S
p4869
sa(dp4870
g38
I4096745987
sg39
(dp4871
g41
VTL StelluR
p4872
sg43
Nssg44
(lp4873
I2758383128
asg32
VWeaponPickup
p4874
sg35
VPT5M47.3042247S
p4875
sa(dp4876
g32
VPlayerSpawn
p4877
sg39
(dp4878
g41
VTL StelluR
p4879
sg43
Nssg35
VPT5M47.3042247S
p4880
sa(dp4881
g234
I4096745987
sg235
I00
sg236
I00
sg237
(dp4882
g41
VEG Lunchbox HCS
p4883
sg43
Nssg240
(lp4884
I2758383128
asg242
I00
sg243
I01
sg244
I1
sg245
I0
sg246
I1
sg247
(dp4885
Vy
F15.102417000000001
sVx
F1.2310408399999999
sVz
F0.59984959999999998
ssg249
(dp4886
Vy
F12.3375463
sVx
F-0.58387730000000004
sVz
F0.789742053
ssg251
I00
sg252
(dp4887
g41
VTL Eco HCS
p4888
sg43
Nssg255
(lp4889
sg257
(lp4890
sg259
I00
sg35
VPT5M47.6312261S
p4891
sg32
VDeath
p4892
sg262
I1
sa(dp4893
g38
I313138863
sg32
VWeaponDrop
p4894
sg180
I0
sg44
(lp4895
I1095363701
asg35
VPT5M47.6392936S
p4896
sg183
I0
sg184
VP0DT0H0M0.6833S
p4897
sg39
(dp4898
g41
VTL Eco HCS
p4899
sg43
Nssa(dp4900
g38
I4096745987
sg32
VWeaponDrop
p4901
sg180
I0
sg44
(lp4902
I2758383128
asg35
VPT5M47.6392936S
p4903
sg183
I0
sg184
VP0DT0H0M8.2833S
p4904
sg39
(dp4905
g41
VTL Eco HCS
p4906
sg43
Nssa(dp4907
g234
I2133511419
sg235
I00
sg236
I01
sg237
(dp4908
g41
VTL Spartan HCS
p4909
sg43
Nssg240
(lp4910
I2758383128
asg242
I00
sg243
I00
sg244
I1
sg245
I0
sg246
I1
sg247
(dp4911
Vy
F-1.9522387999999999
sVx
F-7.8847750000000003
sVz
F-0.45349836300000002
ssg249
(dp4912
Vy
F-2.1006424400000001
sVx
F-8.0919659999999993
sVz
F-0.71918629999999995
ssg251
I00
sg252
(dp4913
g41
VEG Snip3downHCS
p4914
sg43
Nssg255
(lp4915
sg257
(lp4916
sg259
I00
sg35
VPT5M48.983235S
p4917
sg32
VDeath
p4918
sg262
I1
sa(dp4919
g32
VMedal
p4920
sg39
(dp4921
g41
VTL Spartan HCS
p4922
sg43
Nssg267
I250435527
sg35
VPT5M48.9855886S
p4923
sa(dp4924
g38
I313138863
sg32
VWeaponDrop
p4925
sg180
I7
sg44
(lp4926
I1095363701
asg35
VPT5M48.9916376S
p4927
sg183
I4
sg184
VP0DT0H0M2.9667S
p4928
sg39
(dp4929
g41
VEG Snip3downHCS
p4930
sg43
Nssa(dp4931
g38
I313138863
sg32
VWeaponDrop
p4932
sg180
I0
sg44
(lp4933
I1095363701
asg35
VPT5M48.9916376S
p4934
sg183
I0
sg184
VP0DT0S
p4935
sg39
(dp4936
g41
VEG Snip3downHCS
p4937
sg43
Nssa(dp4938
g38
I4096745987
sg32
VWeaponDrop
p4939
sg180
I15
sg44
(lp4940
I2758383128
asg35
VPT5M48.9932349S
p4941
sg183
I7
sg184
VP0DT0H0M16.3500S
p4942
sg39
(dp4943
g41
VEG Snip3downHCS
p4944
sg43
Nssa(dp4945
g234
I313138863
sg235
I00
sg236
I01
sg237
(dp4946
g41
VEG Snip3downHCS
p4947
sg43
Nssg240
(lp4948
I1095363701
asg242
I00
sg243
I00
sg244
I1
sg245
I0
sg246
I1
sg247
(dp4949
Vy
F-2.1006424400000001
sVx
F-8.0919659999999993
sVz
F-0.71918629999999995
ssg249
(dp4950
Vy
F-1.9522387999999999
sVx
F-7.8847750000000003
sVz
F-0.45349836300000002
ssg251
I00
sg252
(dp4951
g41
VTL Spartan HCS
p4952
sg43
Nssg255
(lp4953
sg257
(lp4954
sg259
I00
sg35
VPT5M48.9932349S
p4955
sg32
VDeath
p4956
sg262
I1
sa(dp4957
g32
VMedal
p4958
sg39
(dp4959
g41
VEG Snip3downHCS
p4960
sg43
Nssg267
I164204247
sg35
VPT5M48.9942474S
p4961
sa(dp4962
g32
VMedal
p4963
sg39
(dp4964
g41
VEG Snip3downHCS
p4965
sg43
Nssg267
I2287626681
sg35
VPT5M48.9952341S
p4966
sa(dp4967
g38
I2133511419
sg32
VWeaponDrop
p4968
sg180
I5
sg44
(lp4969
I2758383128
asg35
VPT5M48.9952341S
p4970
sg183
I5
sg184
VP0DT0H0M2.0167S
p4971
sg39
(dp4972
g41
VTL Spartan HCS
p4973
sg43
Nssa(dp4974
g38
I2133511419
sg32
VWeaponDrop
p4975
sg180
I0
sg44
(lp4976
I2758383128
asg35
VPT5M48.9952341S
p4977
sg183
I0
sg184
VP0DT0S
p4978
sg39
(dp4979
g41
VTL Spartan HCS
p4980
sg43
Nssa(dp4981
g38
I4096745987
sg32
VWeaponDrop
p4982
sg180
I7
sg44
(lp4983
I2758383128
asg35
VPT5M49.0018059S
p4984
sg183
I6
sg184
VP0DT0H0M11.6500S
p4985
sg39
(dp4986
g41
VTL Spartan HCS
p4987
sg43
Nssa(dp4988
g234
I4096745987
sg235
I00
sg236
I00
sg237
(dp4989
g41
VEG Lunchbox HCS
p4990
sg43
Nssg240
(lp4991
I2758383128
asg242
I00
sg243
I01
sg244
I1
sg245
I0
sg246
I1
sg247
(dp4992
Vy
F14.926614799999999
sVx
F4.5309359999999996
sVz
F1.4326391199999999
ssg249
(dp4993
Vy
F15.3966818
sVx
F12.423663100000001
sVz
F0.65234499999999995
ssg251
I00
sg252
(dp4994
g41
VTL StelluR
p4995
sg43
Nssg255
(lp4996
sg257
(lp4997
sg259
I01
sg35
VPT5M51.3042497S
p4998
sg32
VDeath
p4999
sg262
I1
sa(dp5000
g32
VMedal
p5001
sg39
(dp5002
g41
VEG Lunchbox HCS
p5003
sg43
Nssg267
I3261908037
sg35
VPT5M51.3062493S
p5004
sa(dp5005
g32
VMedal
p5006
sg39
(dp5007
g41
VEG Lunchbox HCS
p5008
sg43
Nssg267
I2078758684
sg35
VPT5M51.312842S
p5009
sa(dp5010
g38
I313138863
sg32
VWeaponDrop
p5011
sg180
I0
sg44
(lp5012
I1095363701
asg35
VPT5M51.3132491S
p5013
sg183
I0
sg184
VP0DT0H0M0.6333S
p5014
sg39
(dp5015
g41
VTL StelluR
p5016
sg43
Nssa(dp5017
g38
I4096745987
sg32
VWeaponDrop
p5018
sg180
I5
sg44
(lp5019
I2758383128
asg35
VPT5M51.3132491S
p5020
sg183
I5
sg184
VP0DT0H0M3.3667S
p5021
sg39
(dp5022
g41
VTL StelluR
p5023
sg43
Nssa(dp5024
g234
I4096745987
sg235
I00
sg236
I00
sg237
(dp5025
g41
VEG Roy HCS
p5026
sg43
Nssg240
(lp5027
I2758383128
asg242
I00
sg243
I01
sg244
I1
sg245
I0
sg246
I1
sg247
(dp5028
Vy
F10.902567899999999
sVx
F1.7759104999999999
sVz
F0.82777279999999998
ssg249
(dp5029
Vy
F10.551637599999999
sVx
F-3.0050272900000001
sVz
F0.39350265299999998
ssg251
I00
sg252
(dp5030
g41
VTL Assault HCS
p5031
sg43
Nssg255
(lp5032
sg257
(lp5033
sg259
I01
sg35
VPT5M51.6710188S
p5034
sg32
VDeath
p5035
sg262
I1
sa(dp5036
g32
VMedal
p5037
sg39
(dp5038
g41
VEG Roy HCS
p5039
sg43
Nssg267
I3261908037
sg35
VPT5M51.6722509S
p5040
sa(dp5041
g38
I4096745987
sg32
VWeaponDrop
p5042
sg180
I3
sg44
(lp5043
I2758383128
asg35
VPT5M51.6722509S
p5044
sg183
I2
sg184
VP0DT0H0M6.8000S
p5045
sg39
(dp5046
g41
VTL Assault HCS
p5047
sg43
Nssa(dp5048
g38
I313138863
sg32
VWeaponDrop
p5049
sg180
I0
sg44
(lp5050
I1095363701
asg35
VPT5M51.6732519S
p5051
sg183
I0
sg184
VP0DT0H0M0.5333S
p5052
sg39
(dp5053
g41
VTL Assault HCS
p5054
sg43
Nssa(dp5055
g38
I2244200496
sg39
(dp5056
g41
VEG Lunchbox HCS
p5057
sg43
Nssg44
(lp5058
I2758383128
asg32
VWeaponPickup
p5059
sg35
VPT5M54.7012711S
p5060
sa(dp5061
g32
VImpulse
p5062
sg39
(dp5063
g41
VEG Lunchbox HCS
p5064
sg43
Nssg273
I4191318012
sg35
VPT5M54.7012711S
p5065
sa(dp5066
g32
VImpulse
p5067
sg39
(dp5068
g41
VEG Lunchbox HCS
p5069
sg43
Nssg273
I1039658009
sg35
VPT5M54.7012711S
p5070
sa(dp5071
g38
I313138863
sg39
(dp5072
g41
VTL Eco HCS
p5073
sg43
Nssg44
(lp5074
I1095363701
asg32
VWeaponPickup
p5075
sg35
VPT5M55.7822778S
p5076
sa(dp5077
g38
I4096745987
sg39
(dp5078
g41
VTL Eco HCS
p5079
sg43
Nssg44
(lp5080
I2758383128
asg32
VWeaponPickup
p5081
sg35
VPT5M55.7822778S
p5082
sa(dp5083
g32
VPlayerSpawn
p5084
sg39
(dp5085
g41
VTL Eco HCS
p5086
sg43
Nssg35
VPT5M55.7822778S
p5087
sa(dp5088
g38
I2244200496
sg32
VWeaponDrop
p5089
sg180
I0
sg44
(lp5090
I2758383128
asg35
VPT5M55.8840277S
p5091
sg183
I0
sg184
VP0DT0H0M1.0333S
p5092
sg39
(dp5093
g41
VEG Lunchbox HCS
p5094
sg43
Nssa(dp5095
g32
VImpulse
p5096
sg39
(dp5097
g41
VEG Lunchbox HCS
p5098
sg43
Nssg273
I3435524855
sg35
VPT5M55.8842782S
p5099
sa(dp5100
g38
I2244200496
sg39
(dp5101
g41
VEG Lunchbox HCS
p5102
sg43
Nssg44
(lp5103
I2758383128
asg32
VWeaponPickup
p5104
sg35
VPT5M57.0963553S
p5105
sa(dp5106
g32
VImpulse
p5107
sg39
(dp5108
g41
VEG Lunchbox HCS
p5109
sg43
Nssg273
I4191318012
sg35
VPT5M57.0972867S
p5110
sa(dp5111
g38
I313138863
sg39
(dp5112
g41
VEG Snip3downHCS
p5113
sg43
Nssg44
(lp5114
I1095363701
asg32
VWeaponPickup
p5115
sg35
VPT5M57.1372876S
p5116
sa(dp5117
g38
I4096745987
sg39
(dp5118
g41
VEG Snip3downHCS
p5119
sg43
Nssg44
(lp5120
I2758383128
asg32
VWeaponPickup
p5121
sg35
VPT5M57.1372876S
p5122
sa(dp5123
g32
VPlayerSpawn
p5124
sg39
(dp5125
g41
VEG Snip3downHCS
p5126
sg43
Nssg35
VPT5M57.1382874S
p5127
sa(dp5128
g38
I313138863
sg39
(dp5129
g41
VTL Spartan HCS
p5130
sg43
Nssg44
(lp5131
I1095363701
asg32
VWeaponPickup
p5132
sg35
VPT5M57.1662877S
p5133
sa(dp5134
g38
I4096745987
sg39
(dp5135
g41
VTL Spartan HCS
p5136
sg43
Nssg44
(lp5137
I2758383128
asg32
VWeaponPickup
p5138
sg35
VPT5M57.1672875S
p5139
sa(dp5140
g32
VPlayerSpawn
p5141
sg39
(dp5142
g41
VTL Spartan HCS
p5143
sg43
Nssg35
VPT5M57.1672875S
p5144
sa(dp5145
g38
I2244200496
sg32
VWeaponDrop
p5146
sg180
I0
sg44
(lp5147
I2758383128
asg35
VPT5M57.4632864S
p5148
sg183
I0
sg184
VP0DT0H0M0.2167S
p5149
sg39
(dp5150
g41
VEG Lunchbox HCS
p5151
sg43
Nssa(dp5152
g32
VImpulse
p5153
sg39
(dp5154
g41
VEG Lunchbox HCS
p5155
sg43
Nssg273
I3435524855
sg35
VPT5M57.4704494S
p5156
sa(dp5157
g32
VMedal
p5158
sg39
(dp5159
g41
VEG SuspectorHCS
p5160
sg43
Nssg267
I2380717523
sg35
VPT5M58.3302936S
p5161
sa(dp5162
g32
VImpulse
p5163
sg39
(dp5164
g41
VEG SuspectorHCS
p5165
sg43
Nssg273
I1063951891
sg35
VPT5M58.3302936S
p5166
sa(dp5167
g38
I2244200496
sg39
(dp5168
g41
VEG Lunchbox HCS
p5169
sg43
Nssg44
(lp5170
I2758383128
asg32
VWeaponPickup
p5171
sg35
VPT5M58.567295S
p5172
sa(dp5173
g32
VImpulse
p5174
sg39
(dp5175
g41
VEG Lunchbox HCS
p5176
sg43
Nssg273
I4191318012
sg35
VPT5M58.5682954S
p5177
sa(dp5178
g38
I313138863
sg39
(dp5179
g41
VTL StelluR
p5180
sg43
Nssg44
(lp5181
I1095363701
asg32
VWeaponPickup
p5182
sg35
VPT5M59.4483017S
p5183
sa(dp5184
g38
I4096745987
sg39
(dp5185
g41
VTL StelluR
p5186
sg43
Nssg44
(lp5187
I2758383128
asg32
VWeaponPickup
p5188
sg35
VPT5M59.4483017S
p5189
sa(dp5190
g32
VPlayerSpawn
p5191
sg39
(dp5192
g41
VTL StelluR
p5193
sg43
Nssg35
VPT5M59.4483017S
p5194
sa(dp5195
g38
I313138863
sg39
(dp5196
g41
VTL Assault HCS
p5197
sg43
Nssg44
(lp5198
I1095363701
asg32
VWeaponPickup
p5199
sg35
VPT5M59.8213042S
p5200
sa(dp5201
g38
I4096745987
sg39
(dp5202
g41
VTL Assault HCS
p5203
sg43
Nssg44
(lp5204
I2758383128
asg32
VWeaponPickup
p5205
sg35
VPT5M59.8213042S
p5206
sa(dp5207
g32
VPlayerSpawn
p5208
sg39
(dp5209
g41
VTL Assault HCS
p5210
sg43
Nssg35
VPT5M59.8213042S
p5211
sa(dp5212
g38
I2244200496
sg32
VWeaponDrop
p5213
sg180
I0
sg44
(lp5214
I2758383128
asg35
VPT6M0.6163078S
p5215
sg183
I0
sg184
VP0DT0H0M1.9000S
p5216
sg39
(dp5217
g41
VEG Lunchbox HCS
p5218
sg43
Nssa(dp5219
g32
VImpulse
p5220
sg39
(dp5221
g41
VEG Lunchbox HCS
p5222
sg43
Nssg273
I3435524855
sg35
VPT6M0.6173112S
p5223
sa(dp5224
g38
I2244200496
sg39
(dp5225
g41
VEG Lunchbox HCS
p5226
sg43
Nssg44
(lp5227
I2758383128
asg32
VWeaponPickup
p5228
sg35
VPT6M1.8154624S
p5229
sa(dp5230
g32
VImpulse
p5231
sg39
(dp5232
g41
VEG Lunchbox HCS
p5233
sg43
Nssg273
I4191318012
sg35
VPT6M1.8163166S
p5234
sa(dp5235
g38
I2244200496
sg32
VWeaponDrop
p5236
sg180
I0
sg44
(lp5237
I2758383128
asg35
VPT6M2.1463167S
p5238
sg183
I0
sg184
VP0DT0H0M0.1833S
p5239
sg39
(dp5240
g41
VEG Lunchbox HCS
p5241
sg43
Nssa(dp5242
g32
VImpulse
p5243
sg39
(dp5244
g41
VEG Lunchbox HCS
p5245
sg43
Nssg273
I3435524855
sg35
VPT6M2.1533185S
p5246
sa(dp5247
g38
I2244200496
sg39
(dp5248
g41
VEG Lunchbox HCS
p5249
sg43
Nssg44
(lp5250
I2758383128
asg32
VWeaponPickup
p5251
sg35
VPT6M3.5963254S
p5252
sa(dp5253
g32
VImpulse
p5254
sg39
(dp5255
g41
VEG Lunchbox HCS
p5256
sg43
Nssg273
I4191318012
sg35
VPT6M3.603418S
p5257
sa(dp5258
g234
I313138863
sg235
I00
sg236
I01
sg237
(dp5259
g41
VEG SuspectorHCS
p5260
sg43
Nssg240
(lp5261
I1095363701
asg242
I00
sg243
I00
sg244
I1
sg245
I0
sg246
I1
sg247
(dp5262
Vy
F0.82462679999999999
sVx
F-10.475511600000001
sVz
F-0.021248832299999999
ssg249
(dp5263
Vy
F1.1680226300000001
sVx
F-10.6275806
sVz
F-0.0031503588000000001
ssg251
I00
sg252
(dp5264
g41
VTL Spartan HCS
p5265
sg43
Nssg255
(lp5266
sg257
(lp5267
(dp5268
g41
VEG Snip3downHCS
p5269
sg43
Nsasg259
I00
sg35
VPT6M3.7143287S
p5270
sg32
VDeath
p5271
sg262
I1
sa(dp5272
g32
VMedal
p5273
sg39
(dp5274
g41
VEG SuspectorHCS
p5275
sg43
Nssg267
I2287626681
sg35
VPT6M3.7153293S
p5276
sa(dp5277
g38
I313138863
sg32
VWeaponDrop
p5278
sg180
I5
sg44
(lp5279
I1095363701
asg35
VPT6M3.7153293S
p5280
sg183
I5
sg184
VP0DT0H0M3.5833S
p5281
sg39
(dp5282
g41
VTL Spartan HCS
p5283
sg43
Nssa(dp5284
g38
I313138863
sg32
VWeaponDrop
p5285
sg180
I0
sg44
(lp5286
I1095363701
asg35
VPT6M3.7153293S
p5287
sg183
I0
sg184
VP0DT0S
p5288
sg39
(dp5289
g41
VTL Spartan HCS
p5290
sg43
Nssa(dp5291
g38
I4096745987
sg32
VWeaponDrop
p5292
sg180
I0
sg44
(lp5293
I2758383128
asg35
VPT6M3.7226976S
p5294
sg183
I0
sg184
VP0DT0H0M2.9667S
p5295
sg39
(dp5296
g41
VTL Spartan HCS
p5297
sg43
Nssa(dp5298
g38
I2244200496
sg32
VWeaponDrop
p5299
sg180
I0
sg44
(lp5300
I2758383128
asg35
VPT6M5.4293377S
p5301
sg183
I0
sg184
VP0DT0H0M1.6833S
p5302
sg39
(dp5303
g41
VEG Lunchbox HCS
p5304
sg43
Nssa(dp5305
g32
VImpulse
p5306
sg39
(dp5307
g41
VEG Lunchbox HCS
p5308
sg43
Nssg273
I3435524855
sg35
VPT6M5.4303399S
p5309
sa(dp5310
g38
I4096745987
sg32
VWeaponDrop
p5311
sg180
I0
sg44
(lp5312
I2758383128
asg35
VPT6M6.6293458S
p5313
sg183
I0
sg184
VP0DT0H0M4.8000S
p5314
sg39
(dp5315
g41
VEG Snip3downHCS
p5316
sg43
Nssa(dp5317
g38
I424645655
sg39
(dp5318
g41
VEG Snip3downHCS
p5319
sg43
Nssg44
(lp5320
I1327094800
asg32
VWeaponPickup
p5321
sg35
VPT6M6.6303488S
p5322
sa(dp5323
g32
VMedal
p5324
sg39
(dp5325
g41
VEG SuspectorHCS
p5326
sg43
Nssg267
I3400287617
sg35
VPT6M7.7133547S
p5327
sa(dp5328
g38
I2244200496
sg39
(dp5329
g41
VEG Lunchbox HCS
p5330
sg43
Nssg44
(lp5331
I2758383128
asg32
VWeaponPickup
p5332
sg35
VPT6M7.8133552S
p5333
sa(dp5334
g32
VImpulse
p5335
sg39
(dp5336
g41
VEG Lunchbox HCS
p5337
sg43
Nssg273
I4191318012
sg35
VPT6M7.8133552S
p5338
sa(dp5339
g234
I4096745987
sg235
I01
sg236
I00
sg237
(dp5340
g41
VTL Eco HCS
p5341
sg43
Nssg240
(lp5342
I2758383128
asg242
I00
sg243
I00
sg244
I1
sg245
I0
sg246
I1
sg247
(dp5343
Vy
F-0.53849049999999998
sVx
F11.435211199999999
sVz
F0.48040396000000002
ssg249
(dp5344
Vy
F-0.573725343
sVx
F11.8460941
sVz
F0.59524685099999997
ssg251
I00
sg252
(dp5345
g41
VEG Roy HCS
p5346
sg43
Nssg255
(lp5347
sg257
(lp5348
(dp5349
g41
VTL StelluR
p5350
sg43
Nsasg259
I00
sg35
VPT6M8.3163574S
p5351
sg32
VDeath
p5352
sg262
I1
sa(dp5353
g32
VMedal
p5354
sg39
(dp5355
g41
VTL Eco HCS
p5356
sg43
Nssg267
I3270120991
sg35
VPT6M8.3173582S
p5357
sa(dp5358
g38
I4096745987
sg32
VWeaponDrop
p5359
sg180
I18
sg44
(lp5360
I2758383128
asg35
VPT6M8.3183578S
p5361
sg183
I12
sg184
VP0DT0H0M33.2167S
p5362
sg39
(dp5363
g41
VEG Roy HCS
p5364
sg43
Nssa(dp5365
g38
I313138863
sg32
VWeaponDrop
p5366
sg180
I0
sg44
(lp5367
I1095363701
asg35
VPT6M8.3183578S
p5368
sg183
I0
sg184
VP0DT0H0M0.7167S
p5369
sg39
(dp5370
g41
VEG Roy HCS
p5371
sg43
Nssa(dp5372
g32
VMedal
p5373
sg39
(dp5374
g41
VEG Lunchbox HCS
p5375
sg43
Nssg267
I3894006667
sg35
VPT6M10.0743697S
p5376
sa(dp5377
g32
VMedal
p5378
sg39
(dp5379
g41
VEG Lunchbox HCS
p5380
sg43
Nssg267
I2137994204
sg35
VPT6M10.0753692S
p5381
sa(dp5382
g32
VImpulse
p5383
sg39
(dp5384
g41
VEG Lunchbox HCS
p5385
sg43
Nssg273
I2944278681
sg35
VPT6M10.0753692S
p5386
sa(dp5387
g38
I2244200496
sg32
VWeaponDrop
p5388
sg180
I0
sg44
(lp5389
I2758383128
asg35
VPT6M10.0763699S
p5390
sg183
I0
sg184
VP0DT0H0M1.9333S
p5391
sg39
(dp5392
g41
VEG Lunchbox HCS
p5393
sg43
Nssa(dp5394
g38
I4096745987
sg32
VWeaponDrop
p5395
sg180
I11
sg44
(lp5396
I2758383128
asg35
VPT6M10.7623717S
p5397
sg183
I7
sg184
VP0DT0H0M26.5667S
p5398
sg39
(dp5399
g41
VEG Lunchbox HCS
p5400
sg43
Nssa(dp5401
g38
I2511447508
sg39
(dp5402
g41
VEG Lunchbox HCS
p5403
sg43
Nssg44
(lp5404
I2758383128
asg32
VWeaponPickup
p5405
sg35
VPT6M10.7692895S
p5406
sa(dp5407
g38
I313138863
sg39
(dp5408
g41
VTL Spartan HCS
p5409
sg43
Nssg44
(lp5410
I1095363701
asg32
VWeaponPickup
p5411
sg35
VPT6M11.8513819S
p5412
sa(dp5413
g38
I4096745987
sg39
(dp5414
g41
VTL Spartan HCS
p5415
sg43
Nssg44
(lp5416
I2758383128
asg32
VWeaponPickup
p5417
sg35
VPT6M11.8513819S
p5418
sa(dp5419
g32
VPlayerSpawn
p5420
sg39
(dp5421
g41
VTL Spartan HCS
p5422
sg43
Nssg35
VPT6M11.8513819S
p5423
sa(dp5424
g38
I313138863
sg39
(dp5425
g41
VEG Roy HCS
p5426
sg43
Nssg44
(lp5427
I1095363701
asg32
VWeaponPickup
p5428
sg35
VPT6M16.4484102S
p5429
sa(dp5430
g38
I4096745987
sg39
(dp5431
g41
VEG Roy HCS
p5432
sg43
Nssg44
(lp5433
I2758383128
asg32
VWeaponPickup
p5434
sg35
VPT6M16.4484102S
p5435
sa(dp5436
g32
VPlayerSpawn
p5437
sg39
(dp5438
g41
VEG Roy HCS
p5439
sg43
Nssg35
VPT6M16.4484102S
p5440
sa(dp5441
g234
I4096745987
sg235
I00
sg236
I00
sg237
(dp5442
g41
VEG SuspectorHCS
p5443
sg43
Nssg240
(lp5444
I2758383128
asg242
I00
sg243
I01
sg244
I1
sg245
I0
sg246
I1
sg247
(dp5445
Vy
F-2.2364554399999999
sVx
F-0.089336239999999997
sVz
F3.2791356999999999
ssg249
(dp5446
Vy
F-1.5251743799999999
sVx
F8.6805869999999992
sVz
F3.6918723600000001
ssg251
I00
sg252
(dp5447
g41
VTL Assault HCS
p5448
sg43
Nssg255
(lp5449
sg257
(lp5450
(dp5451
g41
VEG Snip3downHCS
p5452
sg43
Nsasg259
I01
sg35
VPT6M17.7494183S
p5453
sg32
VDeath
p5454
sg262
I1
sa(dp5455
g32
VMedal
p5456
sg39
(dp5457
g41
VEG SuspectorHCS
p5458
sg43
Nssg267
I3261908037
sg35
VPT6M17.7504188S
p5459
sa(dp5460
g38
I313138863
sg32
VWeaponDrop
p5461
sg180
I0
sg44
(lp5462
I1095363701
asg35
VPT6M17.751418S
p5463
sg183
I0
sg184
VP0DT0H0M2.6000S
p5464
sg39
(dp5465
g41
VTL Assault HCS
p5466
sg43
Nssa(dp5467
g38
I4096745987
sg32
VWeaponDrop
p5468
sg180
I5
sg44
(lp5469
I2758383128
asg35
VPT6M17.751418S
p5470
sg183
I4
sg184
VP0DT0H0M15.2167S
p5471
sg39
(dp5472
g41
VTL Assault HCS
p5473
sg43
Nssa(dp5474
g234
I4096745987
sg235
I00
sg236
I00
sg237
(dp5475
g41
VTL StelluR
p5476
sg43
Nssg240
(lp5477
I2758383128
asg242
I00
sg243
I01
sg244
I1
sg245
I0
sg246
I1
sg247
(dp5478
Vy
F-11.6979685
sVx
F0.51812670000000005
sVz
F1.31853771
ssg249
(dp5479
Vy
F-4.1191043900000004
sVx
F-6.7417063700000002
sVz
F1.01191235
ssg251
I00
sg252
(dp5480
g41
VEG Snip3downHCS
p5481
sg43
Nssg255
(lp5482
sg257
(lp5483
(dp5484
g41
VTL Eco HCS
p5485
sg43
Nsasg259
I01
sg35
VPT6M19.8984337S
p5486
sg32
VDeath
p5487
sg262
I1
sa(dp5488
g32
VMedal
p5489
sg39
(dp5490
g41
VTL StelluR
p5491
sg43
Nssg267
I3261908037
sg35
VPT6M19.905432S
p5492
sa(dp5493
g38
I313138863
sg32
VWeaponDrop
p5494
sg180
I10
sg44
(lp5495
I1095363701
asg35
VPT6M19.905432S
p5496
sg183
I5
sg184
VP0DT0H0M6.2000S
p5497
sg39
(dp5498
g41
VEG Snip3downHCS
p5499
sg43
Nssa(dp5500
g38
I424645655
sg32
VWeaponDrop
p5501
sg180
I21
sg44
(lp5502
I1327094800
asg35
VPT6M19.905432S
p5503
sg183
I6
sg184
VP0DT0H0M11.6500S
p5504
sg39
(dp5505
g41
VEG Snip3downHCS
p5506
sg43
Nssa(dp5507
g234
I4096745987
sg235
I00
sg236
I00
sg237
(dp5508
g41
VEG SuspectorHCS
p5509
sg43
Nssg240
(lp5510
I2758383128
asg242
I00
sg243
I01
sg244
I1
sg245
I0
sg246
I1
sg247
(dp5511
Vy
F-0.10947216999999999
sVx
F4.9980799999999999
sVz
F2.8090641500000002
ssg249
(dp5512
Vy
F-10.0033827
sVx
F4.1866502800000003
sVz
F-1.6361475000000001e-05
ssg251
I00
sg252
(dp5513
g41
VTL StelluR
p5514
sg43
Nssg255
(lp5515
sg257
(lp5516
(dp5517
g41
VEG Lunchbox HCS
p5518
sg43
Nsasg259
I01
sg35
VPT6M22.966452S
p5519
sg32
VDeath
p5520
sg262
I1
sa(dp5521
g32
VMedal
p5522
sg39
(dp5523
g41
VEG SuspectorHCS
p5524
sg43
Nssg267
I3261908037
sg35
VPT6M22.968452S
p5525
sa(dp5526
g38
I313138863
sg32
VWeaponDrop
p5527
sg180
I0
sg44
(lp5528
I1095363701
asg35
VPT6M22.975549S
p5529
sg183
I0
sg184
VP0DT0H0M0.6667S
p5530
sg39
(dp5531
g41
VTL StelluR
p5532
sg43
Nssa(dp5533
g38
I4096745987
sg32
VWeaponDrop
p5534
sg180
I11
sg44
(lp5535
I2758383128
asg35
VPT6M22.975549S
p5536
sg183
I5
sg184
VP0DT0H0M22.7333S
p5537
sg39
(dp5538
g41
VTL StelluR
p5539
sg43
Nssa(dp5540
g38
I313138863
sg32
VWeaponDrop
p5541
sg180
I0
sg44
(lp5542
I1095363701
asg35
VPT6M24.6495512S
p5543
sg183
I0
sg184
VP0DT0H0M0.6500S
p5544
sg39
(dp5545
g41
VTL Eco HCS
p5546
sg43
Nssa(dp5547
g38
I3682788176
sg39
(dp5548
g41
VTL Eco HCS
p5549
sg43
Nssg44
(lp5550
I2758383128
asg32
VWeaponPickupPad
p5551
sg35
VPT6M24.6495512S
p5552
sa(dp5553
g38
I3682788176
sg39
(dp5554
g41
VTL Eco HCS
p5555
sg43
Nssg44
(lp5556
I2758383128
asg32
VWeaponPickup
p5557
sg35
VPT6M24.6495512S
p5558
sa(dp5559
g38
I313138863
sg39
(dp5560
g41
VTL Assault HCS
p5561
sg43
Nssg44
(lp5562
I1095363701
asg32
VWeaponPickup
p5563
sg35
VPT6M25.7674699S
p5564
sa(dp5565
g38
I4096745987
sg39
(dp5566
g41
VTL Assault HCS
p5567
sg43
Nssg44
(lp5568
I2758383128
asg32
VWeaponPickup
p5569
sg35
VPT6M25.7674699S
p5570
sa(dp5571
g32
VPlayerSpawn
p5572
sg39
(dp5573
g41
VTL Assault HCS
p5574
sg43
Nssg35
VPT6M25.7674699S
p5575
sa(dp5576
g234
I2511447508
sg235
I00
sg236
I00
sg237
(dp5577
g41
VEG Lunchbox HCS
p5578
sg43
Nssg240
(lp5579
I2758383128
asg242
I00
sg243
I01
sg244
I1
sg245
I0
sg246
I1
sg247
(dp5580
Vy
F-13.489551499999999
sVx
F0.36932685999999998
sVz
F1.1645937
ssg249
(dp5581
Vy
F3.8496615900000002
sVx
F-0.079327315100000004
sVz
F0.0038572847799999998
ssg251
I00
sg252
(dp5582
g41
VTL Eco HCS
p5583
sg43
Nssg255
(lp5584
sg257
(lp5585
(dp5586
g41
VEG SuspectorHCS
p5587
sg43
Nsasg259
I01
sg35
VPT6M26.0504717S
p5588
sg32
VDeath
p5589
sg262
I1
sa(dp5590
g32
VMedal
p5591
sg39
(dp5592
g41
VEG Lunchbox HCS
p5593
sg43
Nssg267
I3261908037
sg35
VPT6M26.0514711S
p5594
sa(dp5595
g38
I3682788176
sg32
VWeaponDrop
p5596
sg180
I0
sg44
(lp5597
I2758383128
asg35
VPT6M26.0584826S
p5598
sg183
I0
sg184
VP0DT0H0M1.4000S
p5599
sg39
(dp5600
g41
VTL Eco HCS
p5601
sg43
Nssa(dp5602
g38
I4096745987
sg32
VWeaponDrop
p5603
sg180
I21
sg44
(lp5604
I2758383128
asg35
VPT6M26.0584826S
p5605
sg183
I8
sg184
VP0DT0H0M28.1000S
p5606
sg39
(dp5607
g41
VTL Eco HCS
p5608
sg43
Nssa(dp5609
g38
I4096745987
sg32
VWeaponDrop
p5610
sg180
I0
sg44
(lp5611
I2758383128
asg35
VPT6M26.0584826S
p5612
sg183
I0
sg184
VP0DT0S
p5613
sg39
(dp5614
g41
VTL Eco HCS
p5615
sg43
Nssa(dp5616
g38
I313138863
sg32
VWeaponDrop
p5617
sg180
I0
sg44
(lp5618
I1095363701
asg35
VPT6M26.6954737S
p5619
sg183
I0
sg184
VP0DT0H0M6.0833S
p5620
sg39
(dp5621
g41
VTL Spartan HCS
p5622
sg43
Nssa(dp5623
g38
I3682788176
sg39
(dp5624
g41
VTL Spartan HCS
p5625
sg43
Nssg44
(lp5626
I2758383128
asg32
VWeaponPickup
p5627
sg35
VPT6M26.7021778S
p5628
sa(dp5629
g38
I313138863
sg39
(dp5630
g41
VEG Snip3downHCS
p5631
sg43
Nssg44
(lp5632
I1095363701
asg32
VWeaponPickup
p5633
sg35
VPT6M27.9154836S
p5634
sa(dp5635
g38
I4096745987
sg39
(dp5636
g41
VEG Snip3downHCS
p5637
sg43
Nssg44
(lp5638
I2758383128
asg32
VWeaponPickup
p5639
sg35
VPT6M27.9164835S
p5640
sa(dp5641
g32
VPlayerSpawn
p5642
sg39
(dp5643
g41
VEG Snip3downHCS
p5644
sg43
Nssg35
VPT6M27.9164835S
p5645
sa(dp5646
g38
I4096745987
sg32
VWeaponDrop
p5647
sg180
I0
sg44
(lp5648
I2758383128
asg35
VPT6M30.029267S
p5649
sg183
I0
sg184
VP0DT0H0M3.5667S
p5650
sg39
(dp5651
g41
VTL Assault HCS
p5652
sg43
Nssa(dp5653
g38
I424645655
sg39
(dp5654
g41
VTL Assault HCS
p5655
sg43
Nssg44
(lp5656
I1327094800
asg32
VWeaponPickup
p5657
sg35
VPT6M30.0294967S
p5658
sa(dp5659
g38
I313138863
sg39
(dp5660
g41
VTL StelluR
p5661
sg43
Nssg44
(lp5662
I1095363701
asg32
VWeaponPickup
p5663
sg35
VPT6M30.9825035S
p5664
sa(dp5665
g38
I4096745987
sg39
(dp5666
g41
VTL StelluR
p5667
sg43
Nssg44
(lp5668
I2758383128
asg32
VWeaponPickup
p5669
sg35
VPT6M30.9825035S
p5670
sa(dp5671
g32
VPlayerSpawn
p5672
sg39
(dp5673
g41
VTL StelluR
p5674
sg43
Nssg35
VPT6M30.9825035S
p5675
sa(dp5676
g38
I4096745987
sg32
VWeaponDrop
p5677
sg180
I0
sg44
(lp5678
I2758383128
asg35
VPT6M32.045518S
p5679
sg183
I0
sg184
VP0DT0H0M3.7833S
p5680
sg39
(dp5681
g41
VEG Snip3downHCS
p5682
sg43
Nssa(dp5683
g38
I424645655
sg39
(dp5684
g41
VEG Snip3downHCS
p5685
sg43
Nssg44
(lp5686
I1327094800
asg32
VWeaponPickup
p5687
sg35
VPT6M32.045518S
p5688
sa(dp5689
g38
I313138863
sg39
(dp5690
g41
VTL Eco HCS
p5691
sg43
Nssg44
(lp5692
I1095363701
asg32
VWeaponPickup
p5693
sg35
VPT6M34.0695255S
p5694
sa(dp5695
g38
I4096745987
sg39
(dp5696
g41
VTL Eco HCS
p5697
sg43
Nssg44
(lp5698
I2758383128
asg32
VWeaponPickup
p5699
sg35
VPT6M34.0705251S
p5700
sa(dp5701
g32
VPlayerSpawn
p5702
sg39
(dp5703
g41
VTL Eco HCS
p5704
sg43
Nssg35
VPT6M34.0705251S
p5705
sa(dp5706
g38
I4096745987
sg32
VWeaponDrop
p5707
sg180
I5
sg44
(lp5708
I2758383128
asg35
VPT6M38.4160588S
p5709
sg183
I0
sg184
VP0DT0H0M21.6667S
p5710
sg39
(dp5711
g41
VEG Roy HCS
p5712
sg43
Nssa(dp5713
g38
I4153405209
sg39
(dp5714
g41
VEG Roy HCS
p5715
sg43
Nssg44
(lp5716
I2758383128
asg32
VWeaponPickup
p5717
sg35
VPT6M38.4160588S
p5718
sa(dp5719
g38
I313138863
sg32
VWeaponDrop
p5720
sg180
I0
sg44
(lp5721
I1095363701
asg35
VPT6M41.8677592S
p5722
sg183
I0
sg184
VP0DT0H0M2.3833S
p5723
sg39
(dp5724
g41
VEG Roy HCS
p5725
sg43
Nssa(dp5726
g38
I4096745987
sg39
(dp5727
g41
VEG Roy HCS
p5728
sg43
Nssg44
(lp5729
I2758383128
asg32
VWeaponPickup
p5730
sg35
VPT6M41.8677592S
p5731
sa(dp5732
g38
I2492868984
sg39
(dp5733
g41
VEG SuspectorHCS
p5734
sg43
Nssg44
(lp5735
I2758383128
asg32
VWeaponPickup
p5736
sg35
VPT6M44.2135881S
p5737
sa(dp5738
g38
I2492868984
sg32
VWeaponDrop
p5739
sg180
I0
sg44
(lp5740
I2758383128
asg35
VPT6M45.3401055S
p5741
sg183
I0
sg184
VP0DT0H0M0.9833S
p5742
sg39
(dp5743
g41
VEG SuspectorHCS
p5744
sg43
Nssa(dp5745
g234
I4153405209
sg235
I00
sg236
I00
sg237
(dp5746
g41
VEG Roy HCS
p5747
sg43
Nssg240
(lp5748
I2758383128
asg242
I00
sg243
I01
sg244
I1
sg245
I0
sg246
I1
sg247
(dp5749
Vy
F-3.1077101200000001
sVx
F17.753848999999999
sVz
F1.3997803900000001
ssg249
(dp5750
Vy
F0.53832780000000002
sVx
F17.482728999999999
sVz
F2.0348801600000002
ssg251
I00
sg252
(dp5751
g41
VTL Assault HCS
p5752
sg43
Nssg255
(lp5753
sg257
(lp5754
sg259
I00
sg35
VPT6M46.9956045S
p5755
sg32
VDeath
p5756
sg262
I1
sa(dp5757
g38
I313138863
sg32
VWeaponDrop
p5758
sg180
I0
sg44
(lp5759
I1095363701
asg35
VPT6M46.9976053S
p5760
sg183
I0
sg184
VP0DT0H0M2.8000S
p5761
sg39
(dp5762
g41
VTL Assault HCS
p5763
sg43
Nssa(dp5764
g38
I424645655
sg32
VWeaponDrop
p5765
sg180
I9
sg44
(lp5766
I1327094800
asg35
VPT6M46.9976053S
p5767
sg183
I9
sg184
VP0DT0H0M14.7167S
p5768
sg39
(dp5769
g41
VTL Assault HCS
p5770
sg43
Nssa(dp5771
g234
I424645655
sg235
I00
sg236
I01
sg237
(dp5772
g41
VEG Snip3downHCS
p5773
sg43
Nssg240
(lp5774
I1327094800
asg242
I00
sg243
I00
sg244
I1
sg245
I0
sg246
I1
sg247
(dp5775
Vy
F3.7078259999999998
sVx
F-1.0415155899999999
sVz
F0.8738842
ssg249
(dp5776
Vy
F4.0977272999999999
sVx
F-1.49804556
sVz
F0.88106609999999996
ssg251
I00
sg252
(dp5777
g41
VTL Spartan HCS
p5778
sg43
Nssg255
(lp5779
sg257
(lp5780
(dp5781
g41
VEG Lunchbox HCS
p5782
sg43
Nsasg259
I00
sg35
VPT6M48.2296163S
p5783
sg32
VDeath
p5784
sg262
I1
sa(dp5785
g32
VMedal
p5786
sg39
(dp5787
g41
VEG Snip3downHCS
p5788
sg43
Nssg267
I2287626681
sg35
VPT6M48.2376154S
p5789
sa(dp5790
g38
I3682788176
sg32
VWeaponDrop
p5791
sg180
I1
sg44
(lp5792
I2758383128
asg35
VPT6M48.2386152S
p5793
sg183
I0
sg184
VP0DT0H0M21.2167S
p5794
sg39
(dp5795
g41
VTL Spartan HCS
p5796
sg43
Nssa(dp5797
g38
I4096745987
sg32
VWeaponDrop
p5798
sg180
I2
sg44
(lp5799
I2758383128
asg35
VPT6M48.24575S
p5800
sg183
I0
sg184
VP0DT0H0M8.9333S
p5801
sg39
(dp5802
g41
VTL Spartan HCS
p5803
sg43
Nssa(dp5804
g234
I4096745987
sg235
I00
sg236
I00
sg237
(dp5805
g41
VEG SuspectorHCS
p5806
sg43
Nssg240
(lp5807
I2758383128
asg242
I00
sg243
I01
sg244
I1
sg245
I0
sg246
I1
sg247
(dp5808
Vy
F1.5542521499999999
sVx
F-0.48167710000000002
sVz
F4.7872085599999998
ssg249
(dp5809
Vy
F3.5985901400000002
sVx
F-7.2437100000000001
sVz
F1.5208913100000001
ssg251
I00
sg252
(dp5810
g41
VTL StelluR
p5811
sg43
Nssg255
(lp5812
sg257
(lp5813
sg259
I01
sg35
VPT6M54.7956562S
p5814
sg32
VDeath
p5815
sg262
I1
sa(dp5816
g32
VMedal
p5817
sg39
(dp5818
g41
VEG SuspectorHCS
p5819
sg43
Nssg267
I3261908037
sg35
VPT6M54.8046556S
p5820
sa(dp5821
g38
I313138863
sg32
VWeaponDrop
p5822
sg180
I0
sg44
(lp5823
I1095363701
asg35
VPT6M54.8046556S
p5824
sg183
I0
sg184
VP0DT0H0M1.1833S
p5825
sg39
(dp5826
g41
VTL StelluR
p5827
sg43
Nssa(dp5828
g38
I4096745987
sg32
VWeaponDrop
p5829
sg180
I9
sg44
(lp5830
I2758383128
asg35
VPT6M54.8046556S
p5831
sg183
I4
sg184
VP0DT0H0M22.3667S
p5832
sg39
(dp5833
g41
VTL StelluR
p5834
sg43
Nssa(dp5835
g38
I313138863
sg39
(dp5836
g41
VTL Assault HCS
p5837
sg43
Nssg44
(lp5838
I1095363701
asg32
VWeaponPickup
p5839
sg35
VPT6M55.1326585S
p5840
sa(dp5841
g38
I4096745987
sg39
(dp5842
g41
VTL Assault HCS
p5843
sg43
Nssg44
(lp5844
I2758383128
asg32
VWeaponPickup
p5845
sg35
VPT6M55.1326585S
p5846
sa(dp5847
g32
VPlayerSpawn
p5848
sg39
(dp5849
g41
VTL Assault HCS
p5850
sg43
Nssg35
VPT6M55.1326585S
p5851
sa(dp5852
g38
I313138863
sg39
(dp5853
g41
VTL Spartan HCS
p5854
sg43
Nssg44
(lp5855
I1095363701
asg32
VWeaponPickup
p5856
sg35
VPT6M56.3656653S
p5857
sa(dp5858
g38
I4096745987
sg39
(dp5859
g41
VTL Spartan HCS
p5860
sg43
Nssg44
(lp5861
I2758383128
asg32
VWeaponPickup
p5862
sg35
VPT6M56.3656653S
p5863
sa(dp5864
g32
VPlayerSpawn
p5865
sg39
(dp5866
g41
VTL Spartan HCS
p5867
sg43
Nssg35
VPT6M56.3656653S
p5868
sa(dp5869
g234
I2511447508
sg235
I00
sg236
I00
sg237
(dp5870
g41
VEG Lunchbox HCS
p5871
sg43
Nssg240
(lp5872
I2758383128
asg242
I00
sg243
I01
sg244
I1
sg245
I0
sg246
I1
sg247
(dp5873
Vy
F12.283844
sVx
F14.166368500000001
sVz
F0.73376286000000002
ssg249
(dp5874
Vy
F10.951086
sVx
F10.3949394
sVz
F0.64150949999999995
ssg251
I00
sg252
(dp5875
g41
VTL Eco HCS
p5876
sg43
Nssg255
(lp5877
sg257
(lp5878
(dp5879
g41
VEG Snip3downHCS
p5880
sg43
Nsasg259
I01
sg35
VPT6M56.6956669S
p5881
sg32
VDeath
p5882
sg262
I1
sa(dp5883
g32
VMedal
p5884
sg39
(dp5885
g41
VEG Lunchbox HCS
p5886
sg43
Nssg267
I3261908037
sg35
VPT6M56.7036668S
p5887
sa(dp5888
g38
I313138863
sg32
VWeaponDrop
p5889
sg180
I0
sg44
(lp5890
I1095363701
asg35
VPT6M56.7036668S
p5891
sg183
I0
sg184
VP0DT0H0M0.4000S
p5892
sg39
(dp5893
g41
VTL Eco HCS
p5894
sg43
Nssa(dp5895
g38
I4096745987
sg32
VWeaponDrop
p5896
sg180
I10
sg44
(lp5897
I2758383128
asg35
VPT6M56.7036668S
p5898
sg183
I2
sg184
VP0DT0H0M21.9667S
p5899
sg39
(dp5900
g41
VTL Eco HCS
p5901
sg43
Nssa(dp5902
g38
I2244200496
sg39
(dp5903
g41
VEG Lunchbox HCS
p5904
sg43
Nssg44
(lp5905
I2758383128
asg32
VWeaponPickup
p5906
sg35
VPT6M59.5776845S
p5907
sa(dp5908
g32
VImpulse
p5909
sg39
(dp5910
g41
VEG Lunchbox HCS
p5911
sg43
Nssg273
I4191318012
sg35
VPT6M59.5786868S
p5912
sa(dp5913
g32
VImpulse
p5914
sg39
(dp5915
g41
VEG Lunchbox HCS
p5916
sg43
Nssg273
I1039658009
sg35
VPT6M59.5786868S
p5917
sa(dp5918
g38
I2244200496
sg32
VWeaponDrop
p5919
sg180
I0
sg44
(lp5920
I2758383128
asg35
VPT7M0.945984S
p5921
sg183
I0
sg184
VP0DT0H0M1.2000S
p5922
sg39
(dp5923
g41
VEG Lunchbox HCS
p5924
sg43
Nssa(dp5925
g32
VImpulse
p5926
sg39
(dp5927
g41
VEG Lunchbox HCS
p5928
sg43
Nssg273
I3435524855
sg35
VPT7M0.9466955S
p5929
sa(dp5930
g234
I4096745987
sg235
I00
sg236
I00
sg237
(dp5931
g41
VTL Spartan HCS
p5932
sg43
Nssg240
(lp5933
I2758383128
asg242
I00
sg243
I01
sg244
I1
sg245
I0
sg246
I1
sg247
(dp5934
Vy
F11.442667999999999
sVx
F-0.87907950000000001
sVz
F0.83622479999999999
ssg249
(dp5935
Vy
F8.9129590000000007
sVx
F7.2442570000000002
sVz
F0.073233634199999995
ssg251
I00
sg252
(dp5936
g41
VEG Lunchbox HCS
p5937
sg43
Nssg255
(lp5938
sg257
(lp5939
(dp5940
g41
VTL Assault HCS
p5941
sg43
Nsasg259
I00
sg35
VPT7M1.1646962S
p5942
sg32
VDeath
p5943
sg262
I1
sa(dp5944
g32
VMedal
p5945
sg39
(dp5946
g41
VTL Spartan HCS
p5947
sg43
Nssg267
I2838259753
sg35
VPT7M1.1646962S
p5948
sa(dp5949
g32
VImpulse
p5950
sg39
(dp5951
g41
VTL Spartan HCS
p5952
sg43
Nssg273
I2556889090
sg35
VPT7M1.1646962S
p5953
sa(dp5954
g32
VMedal
p5955
sg39
(dp5956
g41
VTL Spartan HCS
p5957
sg43
Nssg267
I164204247
sg35
VPT7M1.1656964S
p5958
sa(dp5959
g38
I313138863
sg32
VWeaponDrop
p5960
sg180
I0
sg44
(lp5961
I1095363701
asg35
VPT7M1.166696S
p5962
sg183
I0
sg184
VP0DT0H0M0.8167S
p5963
sg39
(dp5964
g41
VEG Lunchbox HCS
p5965
sg43
Nssa(dp5966
g38
I2511447508
sg32
VWeaponDrop
p5967
sg180
I20
sg44
(lp5968
I2758383128
asg35
VPT7M1.166696S
p5969
sg183
I17
sg184
VP0DT0H0M48.9333S
p5970
sg39
(dp5971
g41
VEG Lunchbox HCS
p5972
sg43
Nssa(dp5973
g234
I4096745987
sg235
I00
sg236
I00
sg237
(dp5974
g41
VEG Roy HCS
p5975
sg43
Nssg240
(lp5976
I2758383128
asg242
I00
sg243
I01
sg244
I1
sg245
I0
sg246
I1
sg247
(dp5977
Vy
F12.8477783
sVx
F3.3383028499999998
sVz
F0.60082495199999997
ssg249
(dp5978
Vy
F17.692724200000001
sVx
F1.7371267100000001
sVz
F1.6946403999999999
ssg251
I00
sg252
(dp5979
g41
VTL Assault HCS
p5980
sg43
Nssg255
(lp5981
sg257
(lp5982
(dp5983
g41
VEG Lunchbox HCS
p5984
sg43
Nsasg259
I00
sg35
VPT7M2.5007075S
p5985
sg32
VDeath
p5986
sg262
I1
sa(dp5987
g38
I313138863
sg32
VWeaponDrop
p5988
sg180
I0
sg44
(lp5989
I1095363701
asg35
VPT7M2.5087069S
p5990
sg183
I0
sg184
VP0DT0H0M0.4667S
p5991
sg39
(dp5992
g41
VTL Assault HCS
p5993
sg43
Nssa(dp5994
g38
I4096745987
sg32
VWeaponDrop
p5995
sg180
I2
sg44
(lp5996
I2758383128
asg35
VPT7M2.5087069S
p5997
sg183
I1
sg184
VP0DT0H0M6.9000S
p5998
sg39
(dp5999
g41
VTL Assault HCS
p6000
sg43
Nssa(dp6001
g38
I313138863
sg39
(dp6002
g41
VTL StelluR
p6003
sg43
Nssg44
(lp6004
I1095363701
asg32
VWeaponPickup
p6005
sg35
VPT7M2.8127078S
p6006
sa(dp6007
g38
I4096745987
sg39
(dp6008
g41
VTL StelluR
p6009
sg43
Nssg44
(lp6010
I2758383128
asg32
VWeaponPickup
p6011
sg35
VPT7M2.8193882S
p6012
sa(dp6013
g32
VPlayerSpawn
p6014
sg39
(dp6015
g41
VTL StelluR
p6016
sg43
Nssg35
VPT7M2.8194547S
p6017
sa(dp6018
g38
I313138863
sg39
(dp6019
g41
VTL Eco HCS
p6020
sg43
Nssg44
(lp6021
I1095363701
asg32
VWeaponPickup
p6022
sg35
VPT7M4.7357194S
p6023
sa(dp6024
g38
I4096745987
sg39
(dp6025
g41
VTL Eco HCS
p6026
sg43
Nssg44
(lp6027
I2758383128
asg32
VWeaponPickup
p6028
sg35
VPT7M4.7357194S
p6029
sa(dp6030
g32
VPlayerSpawn
p6031
sg39
(dp6032
g41
VTL Eco HCS
p6033
sg43
Nssg35
VPT7M4.7357194S
p6034
sa(dp6035
g234
I424645655
sg235
I00
sg236
I00
sg237
(dp6036
g41
VEG Snip3downHCS
p6037
sg43
Nssg240
(lp6038
I1327094800
asg242
I00
sg243
I01
sg244
I1
sg245
I0
sg246
I1
sg247
(dp6039
Vy
F2.5608844799999999
sVx
F-0.28755205900000003
sVz
F1.1708134400000001
ssg249
(dp6040
Vy
F13.105483100000001
sVx
F-0.15938569999999999
sVz
F0.64608370000000004
ssg251
I00
sg252
(dp6041
g41
VTL Spartan HCS
p6042
sg43
Nssg255
(lp6043
sg257
(lp6044
(dp6045
g41
VEG SuspectorHCS
p6046
sg43
Nsasg259
I01
sg35
VPT7M5.8497265S
p6047
sg32
VDeath
p6048
sg262
I1
sa(dp6049
g32
VMedal
p6050
sg39
(dp6051
g41
VEG Snip3downHCS
p6052
sg43
Nssg267
I3261908037
sg35
VPT7M5.8517264S
p6053
sa(dp6054
g38
I313138863
sg32
VWeaponDrop
p6055
sg180
I0
sg44
(lp6056
I1095363701
asg35
VPT7M5.8585644S
p6057
sg183
I0
sg184
VP0DT0H0M1.7000S
p6058
sg39
(dp6059
g41
VTL Spartan HCS
p6060
sg43
Nssa(dp6061
g38
I4096745987
sg32
VWeaponDrop
p6062
sg180
I4
sg44
(lp6063
I2758383128
asg35
VPT7M5.8585644S
p6064
sg183
I3
sg184
VP0DT0H0M7.6333S
p6065
sg39
(dp6066
g41
VTL Spartan HCS
p6067
sg43
Nssa(dp6068
g32
VMedal
p6069
sg39
(dp6070
g41
VTL StelluR
p6071
sg43
Nssg267
I2380717523
sg35
VPT7M8.3480886S
p6072
sa(dp6073
g32
VImpulse
p6074
sg39
(dp6075
g41
VTL StelluR
p6076
sg43
Nssg273
I1063951891
sg35
VPT7M8.3480886S
p6077
sa(dp6078
g38
I313138863
sg39
(dp6079
g41
VEG Lunchbox HCS
p6080
sg43
Nssg44
(lp6081
I1095363701
asg32
VWeaponPickup
p6082
sg35
VPT7M9.3327494S
p6083
sa(dp6084
g38
I4096745987
sg39
(dp6085
g41
VEG Lunchbox HCS
p6086
sg43
Nssg44
(lp6087
I2758383128
asg32
VWeaponPickup
p6088
sg35
VPT7M9.3327494S
p6089
sa(dp6090
g32
VPlayerSpawn
p6091
sg39
(dp6092
g41
VEG Lunchbox HCS
p6093
sg43
Nssg35
VPT7M9.3327494S
p6094
sa(dp6095
g38
I313138863
sg39
(dp6096
g41
VTL Assault HCS
p6097
sg43
Nssg44
(lp6098
I1095363701
asg32
VWeaponPickup
p6099
sg35
VPT7M10.6627582S
p6100
sa(dp6101
g38
I4096745987
sg39
(dp6102
g41
VTL Assault HCS
p6103
sg43
Nssg44
(lp6104
I2758383128
asg32
VWeaponPickup
p6105
sg35
VPT7M10.6637583S
p6106
sa(dp6107
g32
VPlayerSpawn
p6108
sg39
(dp6109
g41
VTL Assault HCS
p6110
sg43
Nssg35
VPT7M10.6637583S
p6111
sa(dp6112
g38
I4096745987
sg32
VWeaponDrop
p6113
sg180
I0
sg44
(lp6114
I2758383128
asg35
VPT7M12.2977667S
p6115
sg183
I0
sg184
VP0DT0H0M2.1333S
p6116
sg39
(dp6117
g41
VEG Lunchbox HCS
p6118
sg43
Nssa(dp6119
g38
I2511447508
sg39
(dp6120
g41
VEG Lunchbox HCS
p6121
sg43
Nssg44
(lp6122
I2758383128
asg32
VWeaponPickup
p6123
sg35
VPT7M12.2977667S
p6124
sa(dp6125
g234
I4096745987
sg235
I00
sg236
I00
sg237
(dp6126
g41
VTL Eco HCS
p6127
sg43
Nssg240
(lp6128
I2758383128
asg242
I00
sg243
I01
sg244
I1
sg245
I0
sg246
I1
sg247
(dp6129
Vy
F1.9598381499999999
sVx
F-0.69168335199999997
sVz
F1.06715965
ssg249
(dp6130
Vy
F0.1781914
sVx
F1.173905
sVz
F0.96111310000000005
ssg251
I00
sg252
(dp6131
g41
VEG Snip3downHCS
p6132
sg43
Nssg255
(lp6133
sg257
(lp6134
sg259
I00
sg35
VPT7M12.9957725S
p6135
sg32
VDeath
p6136
sg262
I1
sa(dp6137
g38
I313138863
sg32
VWeaponDrop
p6138
sg180
I0
sg44
(lp6139
I1095363701
asg35
VPT7M13.0037723S
p6140
sg183
I0
sg184
VP0DT0H0M0.9333S
p6141
sg39
(dp6142
g41
VEG Snip3downHCS
p6143
sg43
Nssa(dp6144
g38
I424645655
sg32
VWeaponDrop
p6145
sg180
I45
sg44
(lp6146
I1327094800
asg35
VPT7M13.0037723S
p6147
sg183
I21
sg184
VP0DT0H0M39.9500S
p6148
sg39
(dp6149
g41
VEG Snip3downHCS
p6150
sg43
Nssa(dp6151
g38
I424645655
sg32
VWeaponDrop
p6152
sg180
I0
sg44
(lp6153
I1327094800
asg35
VPT7M13.0037723S
p6154
sg183
I0
sg184
VP0DT0S
p6155
sg39
(dp6156
g41
VEG Snip3downHCS
p6157
sg43
Nssa(dp6158
g38
I3190813201
sg32
VWeaponDrop
p6159
sg180
I1
sg44
(lp6160
sg35
VPT7M13.0948957S
p6161
sg183
I0
sg184
VPT0S
p6162
sg39
(dp6163
g41
VEG Snip3downHCS
p6164
sg43
Nssa(dp6165
g38
I424645655
sg32
VWeaponDrop
p6166
sg180
I1
sg44
(lp6167
I1327094800
asg35
VPT7M13.2317736S
p6168
sg183
I1
sg184
VPT0S
p6169
sg39
(dp6170
g41
VEG Snip3downHCS
p6171
sg43
Nssa(dp6172
g38
I313138863
sg39
(dp6173
g41
VTL Spartan HCS
p6174
sg43
Nssg44
(lp6175
I1095363701
asg32
VWeaponPickup
p6176
sg35
VPT7M13.8679313S
p6177
sa(dp6178
g38
I4096745987
sg39
(dp6179
g41
VTL Spartan HCS
p6180
sg43
Nssg44
(lp6181
I2758383128
asg32
VWeaponPickup
p6182
sg35
VPT7M13.8687777S
p6183
sa(dp6184
g32
VPlayerSpawn
p6185
sg39
(dp6186
g41
VTL Spartan HCS
p6187
sg43
Nssg35
VPT7M13.8687777S
p6188
sa(dp6189
g38
I4096745987
sg32
VWeaponDrop
p6190
sg180
I10
sg44
(lp6191
I2758383128
asg35
VPT7M14.0663344S
p6192
sg183
I3
sg184
VP0DT0H0M8.5333S
p6193
sg39
(dp6194
g41
VTL Eco HCS
p6195
sg43
Nssa(dp6196
g38
I424645655
sg39
(dp6197
g41
VTL Eco HCS
p6198
sg43
Nssg44
(lp6199
I1327094800
asg32
VWeaponPickup
p6200
sg35
VPT7M14.0663344S
p6201
sa(dp6202
g234
I2511447508
sg235
I00
sg236
I00
sg237
(dp6203
g41
VEG Lunchbox HCS
p6204
sg43
Nssg240
(lp6205
I2758383128
asg242
I00
sg243
I01
sg244
I1
sg245
I0
sg246
I1
sg247
(dp6206
Vy
F-4.7011339999999997
sVx
F0.75985259999999999
sVz
F-2.670288e-05
ssg249
(dp6207
Vy
F-0.0558602661
sVx
F0.8760521
sVz
F0.078013840000000001
ssg251
I00
sg252
(dp6208
g41
VTL Eco HCS
p6209
sg43
Nssg255
(lp6210
sg257
(lp6211
(dp6212
g41
VEG Roy HCS
p6213
sg43
Nsa(dp6214
g41
VEG Snip3downHCS
p6215
sg43
Nsasg259
I01
sg35
VPT7M14.3807816S
p6216
sg32
VDeath
p6217
sg262
I1
sa(dp6218
g32
VMedal
p6219
sg39
(dp6220
g41
VEG Lunchbox HCS
p6221
sg43
Nssg267
I3261908037
sg35
VPT7M14.381781S
p6222
sa(dp6223
g38
I313138863
sg32
VWeaponDrop
p6224
sg180
I0
sg44
(lp6225
I1095363701
asg35
VPT7M14.3889469S
p6226
sg183
I0
sg184
VP0DT0H0M0.6667S
p6227
sg39
(dp6228
g41
VTL Eco HCS
p6229
sg43
Nssa(dp6230
g38
I424645655
sg32
VWeaponDrop
p6231
sg180
I0
sg44
(lp6232
I1327094800
asg35
VPT7M14.3889469S
p6233
sg183
I0
sg184
VP0DT0H0M0.3167S
p6234
sg39
(dp6235
g41
VTL Eco HCS
p6236
sg43
Nssa(dp6237
g38
I313138863
sg32
VWeaponDrop
p6238
sg180
I0
sg44
(lp6239
I1095363701
asg35
VPT7M16.7669155S
p6240
sg183
I0
sg184
VP0DT0H0M0.8667S
p6241
sg39
(dp6242
g41
VTL StelluR
p6243
sg43
Nssa(dp6244
g38
I424645655
sg39
(dp6245
g41
VTL StelluR
p6246
sg43
Nssg44
(lp6247
I1327094800
asg32
VWeaponPickup
p6248
sg35
VPT7M16.7669824S
p6249
sa(dp6250
g38
I4153405209
sg32
VWeaponDrop
p6251
sg180
I18
sg44
(lp6252
I2758383128
asg35
VPT7M18.0983988S
p6253
sg183
I10
sg184
VP0DT0H0M9.5833S
p6254
sg39
(dp6255
g41
VEG Roy HCS
p6256
sg43
Nssa(dp6257
g38
I313138863
sg39
(dp6258
g41
VEG Roy HCS
p6259
sg43
Nssg44
(lp6260
I1095363701
asg32
VWeaponPickup
p6261
sg35
VPT7M18.0983988S
p6262
sa(dp6263
g38
I4096745987
sg32
VWeaponDrop
p6264
sg180
I0
sg44
(lp6265
I2758383128
asg35
VPT7M19.5631339S
p6266
sg183
I0
sg184
VP0DT0H0M8.3500S
p6267
sg39
(dp6268
g41
VTL Assault HCS
p6269
sg43
Nssa(dp6270
g38
I424645655
sg39
(dp6271
g41
VTL Assault HCS
p6272
sg43
Nssg44
(lp6273
I1327094800
asg32
VWeaponPickup
p6274
sg35
VPT7M19.5631339S
p6275
sa(dp6276
g38
I313138863
sg39
(dp6277
g41
VEG Snip3downHCS
p6278
sg43
Nssg44
(lp6279
I1095363701
asg32
VWeaponPickup
p6280
sg35
VPT7M21.013823S
p6281
sa(dp6282
g38
I4096745987
sg39
(dp6283
g41
VEG Snip3downHCS
p6284
sg43
Nssg44
(lp6285
I2758383128
asg32
VWeaponPickup
p6286
sg35
VPT7M21.013823S
p6287
sa(dp6288
g32
VPlayerSpawn
p6289
sg39
(dp6290
g41
VEG Snip3downHCS
p6291
sg43
Nssg35
VPT7M21.013823S
p6292
sa(dp6293
g234
I313138863
sg235
I00
sg236
I00
sg237
(dp6294
g41
VEG SuspectorHCS
p6295
sg43
Nssg240
(lp6296
I1095363701
asg242
I00
sg243
I01
sg244
I1
sg245
I0
sg246
I1
sg247
(dp6297
Vy
F-0.84566600000000003
sVx
F13.834898000000001
sVz
F1.3997978
ssg249
(dp6298
Vy
F-0.39358732099999999
sVx
F11.980654700000001
sVz
F2.7376575500000002
ssg251
I00
sg252
(dp6299
g41
VTL StelluR
p6300
sg43
Nssg255
(lp6301
sg257
(lp6302
sg259
I00
sg35
VPT7M21.5008257S
p6303
sg32
VDeath
p6304
sg262
I1
sa(dp6305
g32
VMedal
p6306
sg39
(dp6307
g41
VEG SuspectorHCS
p6308
sg43
Nssg267
I2430242797
sg35
VPT7M21.5018258S
p6309
sa(dp6310
g38
I424645655
sg32
VWeaponDrop
p6311
sg180
I6
sg44
(lp6312
I1327094800
asg35
VPT7M21.5018258S
p6313
sg183
I6
sg184
VP0DT0H0M4.7333S
p6314
sg39
(dp6315
g41
VTL StelluR
p6316
sg43
Nssa(dp6317
g38
I4096745987
sg32
VWeaponDrop
p6318
sg180
I6
sg44
(lp6319
I2758383128
asg35
VPT7M21.5018258S
p6320
sg183
I1
sg184
VP0DT0H0M12.9333S
p6321
sg39
(dp6322
g41
VTL StelluR
p6323
sg43
Nssa(dp6324
g234
I4096745987
sg235
I00
sg236
I00
sg237
(dp6325
g41
VEG Roy HCS
p6326
sg43
Nssg240
(lp6327
I2758383128
asg242
I00
sg243
I01
sg244
I1
sg245
I0
sg246
I1
sg247
(dp6328
Vy
F13.4706812
sVx
F5.5721426000000003
sVz
F0.75063999999999997
ssg249
(dp6329
Vy
F13.352880499999999
sVx
F0.93341289999999999
sVz
F1.25277734
ssg251
I00
sg252
(dp6330
g41
VTL Spartan HCS
p6331
sg43
Nssg255
(lp6332
sg257
(lp6333
(dp6334
g41
VEG Lunchbox HCS
p6335
sg43
Nsasg259
I00
sg35
VPT7M21.9458293S
p6336
sg32
VDeath
p6337
sg262
I1
sa(dp6338
g38
I313138863
sg32
VWeaponDrop
p6339
sg180
I13
sg44
(lp6340
I1095363701
asg35
VPT7M21.9478303S
p6341
sg183
I9
sg184
VP0DT0H0M6.0000S
p6342
sg39
(dp6343
g41
VTL Spartan HCS
p6344
sg43
Nssa(dp6345
g38
I4096745987
sg32
VWeaponDrop
p6346
sg180
I0
sg44
(lp6347
I2758383128
asg35
VPT7M21.9478303S
p6348
sg183
I0
sg184
VP0DT0H0M2.0833S
p6349
sg39
(dp6350
g41
VTL Spartan HCS
p6351
sg43
Nssa(dp6352
g38
I313138863
sg39
(dp6353
g41
VTL Eco HCS
p6354
sg43
Nssg44
(lp6355
I1095363701
asg32
VWeaponPickup
p6356
sg35
VPT7M22.3948324S
p6357
sa(dp6358
g38
I4096745987
sg39
(dp6359
g41
VTL Eco HCS
p6360
sg43
Nssg44
(lp6361
I2758383128
asg32
VWeaponPickup
p6362
sg35
VPT7M22.4018455S
p6363
sa(dp6364
g32
VPlayerSpawn
p6365
sg39
(dp6366
g41
VTL Eco HCS
p6367
sg43
Nssg35
VPT7M22.4019788S
p6368
sa(dp6369
g38
I4096745987
sg32
VWeaponDrop
p6370
sg180
I31
sg44
(lp6371
I2758383128
asg35
VPT7M23.2575275S
p6372
sg183
I16
sg184
VP0DT0H1M26.8167S
p6373
sg39
(dp6374
g41
VEG SuspectorHCS
p6375
sg43
Nssa(dp6376
g38
I424645655
sg39
(dp6377
g41
VEG SuspectorHCS
p6378
sg43
Nssg44
(lp6379
I1327094800
asg32
VWeaponPickup
p6380
sg35
VPT7M23.2578399S
p6381
sa(dp6382
g234
I2511447508
sg235
I00
sg236
I00
sg237
(dp6383
g41
VEG Lunchbox HCS
p6384
sg43
Nssg240
(lp6385
I2758383128
asg242
I00
sg243
I01
sg244
I1
sg245
I0
sg246
I1
sg247
(dp6386
Vy
F7.6520169999999998
sVx
F2.0504493699999999
sVz
F0.85472154600000005
ssg249
(dp6387
Vy
F13.609027899999999
sVx
F-1.6204966300000001
sVz
F0.66234059999999995
ssg251
I00
sg252
(dp6388
g41
VTL Eco HCS
p6389
sg43
Nssg255
(lp6390
sg257
(lp6391
(dp6392
g41
VEG Roy HCS
p6393
sg43
Nsasg259
I01
sg35
VPT7M27.6168663S
p6394
sg32
VDeath
p6395
sg262
I1
sa(dp6396
g32
VMedal
p6397
sg39
(dp6398
g41
VEG Lunchbox HCS
p6399
sg43
Nssg267
I2838259753
sg35
VPT7M27.6178671S
p6400
sa(dp6401
g32
VImpulse
p6402
sg39
(dp6403
g41
VEG Lunchbox HCS
p6404
sg43
Nssg273
I2556889090
sg35
VPT7M27.6178671S
p6405
sa(dp6406
g32
VMedal
p6407
sg39
(dp6408
g41
VEG Lunchbox HCS
p6409
sg43
Nssg267
I3261908037
sg35
VPT7M27.6188659S
p6410
sa(dp6411
g38
I313138863
sg32
VWeaponDrop
p6412
sg180
I0
sg44
(lp6413
I1095363701
asg35
VPT7M27.6258649S
p6414
sg183
I0
sg184
VP0DT0H0M0.8333S
p6415
sg39
(dp6416
g41
VTL Eco HCS
p6417
sg43
Nssa(dp6418
g38
I4096745987
sg32
VWeaponDrop
p6419
sg180
I2
sg44
(lp6420
I2758383128
asg35
VPT7M27.6258649S
p6421
sg183
I2
sg184
VP0DT0H0M4.3833S
p6422
sg39
(dp6423
g41
VTL Eco HCS
p6424
sg43
Nssa(dp6425
g234
I4096745987
sg235
I00
sg236
I00
sg237
(dp6426
g41
VEG Snip3downHCS
p6427
sg43
Nssg240
(lp6428
I2758383128
asg242
I00
sg243
I01
sg244
I1
sg245
I0
sg246
I1
sg247
(dp6429
Vy
F-13.461426700000001
sVx
F3.4795832600000001
sVz
F0.60008969999999995
ssg249
(dp6430
Vy
F-14.4130669
sVx
F-8.6016589999999997
sVz
F0.60020519999999999
ssg251
I00
sg252
(dp6431
g41
VTL Assault HCS
p6432
sg43
Nssg255
(lp6433
sg257
(lp6434
sg259
I01
sg35
VPT7M28.6318728S
p6435
sg32
VDeath
p6436
sg262
I1
sa(dp6437
g32
VMedal
p6438
sg39
(dp6439
g41
VEG Snip3downHCS
p6440
sg43
Nssg267
I164204247
sg35
VPT7M28.6338719S
p6441
sa(dp6442
g32
VMedal
p6443
sg39
(dp6444
g41
VEG Snip3downHCS
p6445
sg43
Nssg267
I3261908037
sg35
VPT7M28.6406387S
p6446
sa(dp6447
g38
I313138863
sg32
VWeaponDrop
p6448
sg180
I0
sg44
(lp6449
I1095363701
asg35
VPT7M28.6408703S
p6450
sg183
I0
sg184
VP0DT0H0M0.5500S
p6451
sg39
(dp6452
g41
VTL Assault HCS
p6453
sg43
Nssa(dp6454
g38
I424645655
sg32
VWeaponDrop
p6455
sg180
I18
sg44
(lp6456
I1327094800
asg35
VPT7M28.6408703S
p6457
sg183
I10
sg184
VP0DT0H0M9.0667S
p6458
sg39
(dp6459
g41
VTL Assault HCS
p6460
sg43
Nssa(dp6461
g38
I313138863
sg39
(dp6462
g41
VTL StelluR
p6463
sg43
Nssg44
(lp6464
I1095363701
asg32
VWeaponPickup
p6465
sg35
VPT7M29.5118781S
p6466
sa(dp6467
g38
I4096745987
sg39
(dp6468
g41
VTL StelluR
p6469
sg43
Nssg44
(lp6470
I2758383128
asg32
VWeaponPickup
p6471
sg35
VPT7M29.5118781S
p6472
sa(dp6473
g32
VPlayerSpawn
p6474
sg39
(dp6475
g41
VTL StelluR
p6476
sg43
Nssg35
VPT7M29.5118781S
p6477
sa(dp6478
g38
I313138863
sg39
(dp6479
g41
VTL Spartan HCS
p6480
sg43
Nssg44
(lp6481
I1095363701
asg32
VWeaponPickup
p6482
sg35
VPT7M29.964881S
p6483
sa(dp6484
g38
I4096745987
sg39
(dp6485
g41
VTL Spartan HCS
p6486
sg43
Nssg44
(lp6487
I2758383128
asg32
VWeaponPickup
p6488
sg35
VPT7M29.9658806S
p6489
sa(dp6490
g32
VPlayerSpawn
p6491
sg39
(dp6492
g41
VTL Spartan HCS
p6493
sg43
Nssg35
VPT7M29.9658806S
p6494
sa(dp6495
g32
VMedal
p6496
sg39
(dp6497
g41
VEG Roy HCS
p6498
sg43
Nssg267
I3400287617
sg35
VPT7M31.3108889S
p6499
sa(dp6500
g38
I2244200496
sg39
(dp6501
g41
VEG Lunchbox HCS
p6502
sg43
Nssg44
(lp6503
I2758383128
asg32
VWeaponPickup
p6504
sg35
VPT7M31.8599704S
p6505
sa(dp6506
g32
VImpulse
p6507
sg39
(dp6508
g41
VEG Lunchbox HCS
p6509
sg43
Nssg273
I4191318012
sg35
VPT7M31.8608931S
p6510
sa(dp6511
g32
VImpulse
p6512
sg39
(dp6513
g41
VEG Lunchbox HCS
p6514
sg43
Nssg273
I1039658009
sg35
VPT7M31.8608931S
p6515
sa(dp6516
g38
I2244200496
sg32
VWeaponDrop
p6517
sg180
I0
sg44
(lp6518
I2758383128
asg35
VPT7M32.5476949S
p6519
sg183
I0
sg184
VP0DT0H0M0.5167S
p6520
sg39
(dp6521
g41
VEG Lunchbox HCS
p6522
sg43
Nssa(dp6523
g32
VImpulse
p6524
sg39
(dp6525
g41
VEG Lunchbox HCS
p6526
sg43
Nssg273
I3435524855
sg35
VPT7M32.5478965S
p6527
sa(dp6528
g38
I2244200496
sg39
(dp6529
g41
VEG Lunchbox HCS
p6530
sg43
Nssg44
(lp6531
I2758383128
asg32
VWeaponPickup
p6532
sg35
VPT7M33.813905S
p6533
sa(dp6534
g32
VImpulse
p6535
sg39
(dp6536
g41
VEG Lunchbox HCS
p6537
sg43
Nssg273
I4191318012
sg35
VPT7M33.813905S
p6538
sa(dp6539
g38
I2244200496
sg32
VWeaponDrop
p6540
sg180
I0
sg44
(lp6541
I2758383128
asg35
VPT7M34.1620807S
p6542
sg183
I0
sg184
VP0DT0H0M0.1833S
p6543
sg39
(dp6544
g41
VEG Lunchbox HCS
p6545
sg43
Nssa(dp6546
g32
VImpulse
p6547
sg39
(dp6548
g41
VEG Lunchbox HCS
p6549
sg43
Nssg273
I3435524855
sg35
VPT7M34.1621472S
p6550
sa(dp6551
g234
I4096745987
sg235
I00
sg236
I00
sg237
(dp6552
g41
VTL StelluR
p6553
sg43
Nssg240
(lp6554
I2758383128
asg242
I00
sg243
I01
sg244
I1
sg245
I0
sg246
I1
sg247
(dp6555
Vy
F11.3835573
sVx
F-3.4761774499999998
sVz
F1.67505014
ssg249
(dp6556
Vy
F11.3273077
sVx
F3.4624540000000001
sVz
F0.54427360000000002
ssg251
I00
sg252
(dp6557
g41
VEG Roy HCS
p6558
sg43
Nssg255
(lp6559
sg257
(lp6560
sg259
I01
sg35
VPT7M34.448909S
p6561
sg32
VDeath
p6562
sg262
I1
sa(dp6563
g32
VImpulse
p6564
sg39
(dp6565
g41
VTL StelluR
p6566
sg43
Nssg273
I3174430457
sg35
VPT7M34.4509086S
p6567
sa(dp6568
g32
VMedal
p6569
sg39
(dp6570
g41
VTL StelluR
p6571
sg43
Nssg267
I3653057799
sg35
VPT7M34.4519088S
p6572
sa(dp6573
g38
I4096745987
sg32
VWeaponDrop
p6574
sg180
I29
sg44
(lp6575
I2758383128
asg35
VPT7M34.4583197S
p6576
sg183
I17
sg184
VP0DT0H0M37.9000S
p6577
sg39
(dp6578
g41
VEG Roy HCS
p6579
sg43
Nssa(dp6580
g38
I313138863
sg32
VWeaponDrop
p6581
sg180
I13
sg44
(lp6582
I1095363701
asg35
VPT7M34.4583197S
p6583
sg183
I6
sg184
VP0DT0H0M6.0500S
p6584
sg39
(dp6585
g41
VEG Roy HCS
p6586
sg43
Nssa(dp6587
g234
I424645655
sg235
I00
sg236
I00
sg237
(dp6588
g41
VEG SuspectorHCS
p6589
sg43
Nssg240
(lp6590
I1327094800
asg242
I00
sg243
I01
sg244
I1
sg245
I0
sg246
I1
sg247
(dp6591
Vy
F8.8823819999999998
sVx
F8.9238824799999996
sVz
F-2.1398067499999999e-05
ssg249
(dp6592
Vy
F11.63707
sVx
F-4.2549805599999999
sVz
F1.4674116399999999
ssg251
I00
sg252
(dp6593
g41
VTL StelluR
p6594
sg43
Nssg255
(lp6595
sg257
(lp6596
(dp6597
g41
VEG Roy HCS
p6598
sg43
Nsasg259
I01
sg35
VPT7M34.8649118S
p6599
sg32
VDeath
p6600
sg262
I1
sa(dp6601
g32
VMedal
p6602
sg39
(dp6603
g41
VEG SuspectorHCS
p6604
sg43
Nssg267
I3261908037
sg35
VPT7M34.866912S
p6605
sa(dp6606
g38
I313138863
sg32
VWeaponDrop
p6607
sg180
I0
sg44
(lp6608
I1095363701
asg35
VPT7M34.866912S
p6609
sg183
I0
sg184
VP0DT0H0M0.7333S
p6610
sg39
(dp6611
g41
VTL StelluR
p6612
sg43
Nssa(dp6613
g38
I4096745987
sg32
VWeaponDrop
p6614
sg180
I8
sg44
(lp6615
I2758383128
asg35
VPT7M34.866912S
p6616
sg183
I5
sg184
VP0DT0H0M4.6167S
p6617
sg39
(dp6618
g41
VTL StelluR
p6619
sg43
Nssa(dp6620
g38
I2244200496
sg39
(dp6621
g41
VEG Lunchbox HCS
p6622
sg43
Nssg44
(lp6623
I2758383128
asg32
VWeaponPickup
p6624
sg35
VPT7M35.2819215S
p6625
sa(dp6626
g32
VImpulse
p6627
sg39
(dp6628
g41
VEG Lunchbox HCS
p6629
sg43
Nssg273
I4191318012
sg35
VPT7M35.2819215S
p6630
sa(dp6631
g38
I313138863
sg39
(dp6632
g41
VTL Eco HCS
p6633
sg43
Nssg44
(lp6634
I1095363701
asg32
VWeaponPickup
p6635
sg35
VPT7M35.630917S
p6636
sa(dp6637
g38
I4096745987
sg39
(dp6638
g41
VTL Eco HCS
p6639
sg43
Nssg44
(lp6640
I2758383128
asg32
VWeaponPickup
p6641
sg35
VPT7M35.630917S
p6642
sa(dp6643
g32
VPlayerSpawn
p6644
sg39
(dp6645
g41
VTL Eco HCS
p6646
sg43
Nssg35
VPT7M35.630917S
p6647
sa(dp6648
g38
I2244200496
sg32
VWeaponDrop
p6649
sg180
I0
sg44
(lp6650
I2758383128
asg35
VPT7M36.4769217S
p6651
sg183
I0
sg184
VP0DT0H0M1.0333S
p6652
sg39
(dp6653
g41
VEG Lunchbox HCS
p6654
sg43
Nssa(dp6655
g32
VImpulse
p6656
sg39
(dp6657
g41
VEG Lunchbox HCS
p6658
sg43
Nssg273
I3435524855
sg35
VPT7M36.4769217S
p6659
sa(dp6660
g38
I313138863
sg39
(dp6661
g41
VTL Assault HCS
p6662
sg43
Nssg44
(lp6663
I1095363701
asg32
VWeaponPickup
p6664
sg35
VPT7M36.6459232S
p6665
sa(dp6666
g38
I4096745987
sg39
(dp6667
g41
VTL Assault HCS
p6668
sg43
Nssg44
(lp6669
I2758383128
asg32
VWeaponPickup
p6670
sg35
VPT7M36.6469235S
p6671
sa(dp6672
g32
VPlayerSpawn
p6673
sg39
(dp6674
g41
VTL Assault HCS
p6675
sg43
Nssg35
VPT7M36.6469235S
p6676
sa(dp6677
g38
I2244200496
sg39
(dp6678
g41
VEG Lunchbox HCS
p6679
sg43
Nssg44
(lp6680
I2758383128
asg32
VWeaponPickup
p6681
sg35
VPT7M37.7269301S
p6682
sa(dp6683
g32
VImpulse
p6684
sg39
(dp6685
g41
VEG Lunchbox HCS
p6686
sg43
Nssg273
I4191318012
sg35
VPT7M37.7269301S
p6687
sa(dp6688
g38
I2244200496
sg32
VWeaponDrop
p6689
sg180
I0
sg44
(lp6690
I2758383128
asg35
VPT7M39.3467242S
p6691
sg183
I0
sg184
VP0DT0H0M1.4500S
p6692
sg39
(dp6693
g41
VEG Lunchbox HCS
p6694
sg43
Nssa(dp6695
g32
VImpulse
p6696
sg39
(dp6697
g41
VEG Lunchbox HCS
p6698
sg43
Nssg273
I3435524855
sg35
VPT7M39.3469404S
p6699
sa(dp6700
g38
I2244200496
sg39
(dp6701
g41
VEG Lunchbox HCS
p6702
sg43
Nssg44
(lp6703
I2758383128
asg32
VWeaponPickup
p6704
sg35
VPT7M40.7459485S
p6705
sa(dp6706
g32
VImpulse
p6707
sg39
(dp6708
g41
VEG Lunchbox HCS
p6709
sg43
Nssg273
I4191318012
sg35
VPT7M40.7459485S
p6710
sa(dp6711
g38
I2244200496
sg32
VWeaponDrop
p6712
sg180
I0
sg44
(lp6713
I2758383128
asg35
VPT7M41.5441385S
p6714
sg183
I0
sg184
VP0DT0H0M0.6333S
p6715
sg39
(dp6716
g41
VEG Lunchbox HCS
p6717
sg43
Nssa(dp6718
g32
VImpulse
p6719
sg39
(dp6720
g41
VEG Lunchbox HCS
p6721
sg43
Nssg273
I3435524855
sg35
VPT7M41.5442052S
p6722
sa(dp6723
g38
I313138863
sg39
(dp6724
g41
VEG Roy HCS
p6725
sg43
Nssg44
(lp6726
I1095363701
asg32
VWeaponPickup
p6727
sg35
VPT7M42.466958S
p6728
sa(dp6729
g38
I4096745987
sg39
(dp6730
g41
VEG Roy HCS
p6731
sg43
Nssg44
(lp6732
I2758383128
asg32
VWeaponPickup
p6733
sg35
VPT7M42.466958S
p6734
sa(dp6735
g32
VPlayerSpawn
p6736
sg39
(dp6737
g41
VEG Roy HCS
p6738
sg43
Nssg35
VPT7M42.466958S
p6739
sa(dp6740
g38
I313138863
sg39
(dp6741
g41
VTL StelluR
p6742
sg43
Nssg44
(lp6743
I1095363701
asg32
VWeaponPickup
p6744
sg35
VPT7M42.883963S
p6745
sa(dp6746
g38
I4096745987
sg39
(dp6747
g41
VTL StelluR
p6748
sg43
Nssg44
(lp6749
I2758383128
asg32
VWeaponPickup
p6750
sg35
VPT7M42.883963S
p6751
sa(dp6752
g32
VPlayerSpawn
p6753
sg39
(dp6754
g41
VTL StelluR
p6755
sg43
Nssg35
VPT7M42.883963S
p6756
sa(dp6757
g234
I313138863
sg235
I00
sg236
I01
sg237
(dp6758
g41
VEG Snip3downHCS
p6759
sg43
Nssg240
(lp6760
I1095363701
asg242
I00
sg243
I00
sg244
I1
sg245
I0
sg246
I1
sg247
(dp6761
Vy
F-3.1630706800000001
sVx
F-11.68702
sVz
F0.84323170000000003
ssg249
(dp6762
Vy
F-2.78095078
sVx
F-11.7692842
sVz
F0.92923350000000005
ssg251
I00
sg252
(dp6763
g41
VTL Assault HCS
p6764
sg43
Nssg255
(lp6765
sg257
(lp6766
sg259
I00
sg35
VPT7M43.0439636S
p6767
sg32
VDeath
p6768
sg262
I1
sa(dp6769
g32
VMedal
p6770
sg39
(dp6771
g41
VEG Snip3downHCS
p6772
sg43
Nssg267
I2287626681
sg35
VPT7M43.0449732S
p6773
sa(dp6774
g38
I4096745987
sg32
VWeaponDrop
p6775
sg180
I2
sg44
(lp6776
I2758383128
asg35
VPT7M43.0459637S
p6777
sg183
I0
sg184
VP0DT0H0M5.5833S
p6778
sg39
(dp6779
g41
VTL Assault HCS
p6780
sg43
Nssa(dp6781
g38
I313138863
sg32
VWeaponDrop
p6782
sg180
I0
sg44
(lp6783
I1095363701
asg35
VPT7M43.0459637S
p6784
sg183
I0
sg184
VP0DT0H0M0.8167S
p6785
sg39
(dp6786
g41
VTL Assault HCS
p6787
sg43
Nssa(dp6788
g38
I2244200496
sg39
(dp6789
g41
VTL Eco HCS
p6790
sg43
Nssg44
(lp6791
I2758383128
asg32
VWeaponPickup
p6792
sg35
VPT7M44.7965702S
p6793
sa(dp6794
g32
VImpulse
p6795
sg39
(dp6796
g41
VTL Eco HCS
p6797
sg43
Nssg273
I4191318012
sg35
VPT7M44.7969749S
p6798
sa(dp6799
g32
VImpulse
p6800
sg39
(dp6801
g41
VTL Eco HCS
p6802
sg43
Nssg273
I1039658009
sg35
VPT7M44.7969749S
p6803
sa(dp6804
g38
I2244200496
sg32
VWeaponDrop
p6805
sg180
I0
sg44
(lp6806
I2758383128
asg35
VPT7M45.3129236S
p6807
sg183
I0
sg184
VP0DT0H0M0.3667S
p6808
sg39
(dp6809
g41
VTL Eco HCS
p6810
sg43
Nssa(dp6811
g32
VImpulse
p6812
sg39
(dp6813
g41
VTL Eco HCS
p6814
sg43
Nssg273
I3435524855
sg35
VPT7M45.3139789S
p6815
sa(dp6816
g32
VMedal
p6817
sg39
(dp6818
g41
VEG Lunchbox HCS
p6819
sg43
Nssg267
I3400287617
sg35
VPT7M46.4479898S
p6820
sa(dp6821
g38
I4096745987
sg32
VWeaponDrop
p6822
sg180
I8
sg44
(lp6823
I2758383128
asg35
VPT7M46.925987S
p6824
sg183
I6
sg184
VP0DT0H0M18.7667S
p6825
sg39
(dp6826
g41
VEG Snip3downHCS
p6827
sg43
Nssa(dp6828
g38
I424645655
sg39
(dp6829
g41
VEG Snip3downHCS
p6830
sg43
Nssg44
(lp6831
I1327094800
asg32
VWeaponPickup
p6832
sg35
VPT7M46.925987S
p6833
sa(dp6834
g38
I2244200496
sg39
(dp6835
g41
VEG Lunchbox HCS
p6836
sg43
Nssg44
(lp6837
I2758383128
asg32
VWeaponPickup
p6838
sg35
VPT7M48.3599978S
p6839
sa(dp6840
g32
VImpulse
p6841
sg39
(dp6842
g41
VEG Lunchbox HCS
p6843
sg43
Nssg273
I4191318012
sg35
VPT7M48.3599978S
p6844
sa(dp6845
g234
I424645655
sg235
I00
sg236
I00
sg237
(dp6846
g41
VEG SuspectorHCS
p6847
sg43
Nssg240
(lp6848
I1327094800
asg242
I00
sg243
I01
sg244
I1
sg245
I0
sg246
I1
sg247
(dp6849
Vy
F-5.545547
sVx
F9.9247899999999998
sVz
F0.8869167
ssg249
(dp6850
Vy
F0.48938307199999997
sVx
F-0.11618603
sVz
F3.9572400000000001
ssg251
I00
sg252
(dp6851
g41
VTL Spartan HCS
p6852
sg43
Nssg255
(lp6853
sg257
(lp6854
sg259
I01
sg35
VPT7M49.5490061S
p6855
sg32
VDeath
p6856
sg262
I1
sa(dp6857
g32
VImpulse
p6858
sg39
(dp6859
g41
VEG SuspectorHCS
p6860
sg43
Nssg273
I3174430457
sg35
VPT7M49.5510054S
p6861
sa(dp6862
g32
VMedal
p6863
sg39
(dp6864
g41
VEG SuspectorHCS
p6865
sg43
Nssg267
I1080468863
sg35
VPT7M49.5578342S
p6866
sa(dp6867
g38
I4096745987
sg32
VWeaponDrop
p6868
sg180
I5
sg44
(lp6869
I2758383128
asg35
VPT7M49.5580037S
p6870
sg183
I4
sg184
VP0DT0H0M17.5333S
p6871
sg39
(dp6872
g41
VTL Spartan HCS
p6873
sg43
Nssa(dp6874
g38
I313138863
sg32
VWeaponDrop
p6875
sg180
I0
sg44
(lp6876
I1095363701
asg35
VPT7M49.5590066S
p6877
sg183
I0
sg184
VP0DT0H0M2.0500S
p6878
sg39
(dp6879
g41
VTL Spartan HCS
p6880
sg43
Nssa(dp6881
g38
I2244200496
sg32
VWeaponDrop
p6882
sg180
I0
sg44
(lp6883
I2758383128
asg35
VPT7M49.8458151S
p6884
sg183
I0
sg184
VP0DT0H0M1.3167S
p6885
sg39
(dp6886
g41
VEG Lunchbox HCS
p6887
sg43
Nssa(dp6888
g32
VImpulse
p6889
sg39
(dp6890
g41
VEG Lunchbox HCS
p6891
sg43
Nssg273
I3435524855
sg35
VPT7M49.8460071S
p6892
sa(dp6893
g38
I313138863
sg39
(dp6894
g41
VTL Assault HCS
p6895
sg43
Nssg44
(lp6896
I1095363701
asg32
VWeaponPickup
p6897
sg35
VPT7M51.0620158S
p6898
sa(dp6899
g38
I4096745987
sg39
(dp6900
g41
VTL Assault HCS
p6901
sg43
Nssg44
(lp6902
I2758383128
asg32
VWeaponPickup
p6903
sg35
VPT7M51.0620158S
p6904
sa(dp6905
g32
VPlayerSpawn
p6906
sg39
(dp6907
g41
VTL Assault HCS
p6908
sg43
Nssg35
VPT7M51.0620158S
p6909
sa(dp6910
g32
VMedal
p6911
sg39
(dp6912
g41
VEG Snip3downHCS
p6913
sg43
Nssg267
I2380717523
sg35
VPT7M51.5770187S
p6914
sa(dp6915
g32
VImpulse
p6916
sg39
(dp6917
g41
VEG Snip3downHCS
p6918
sg43
Nssg273
I1063951891
sg35
VPT7M51.5770187S
p6919
sa(dp6920
g38
I2244200496
sg39
(dp6921
g41
VEG Lunchbox HCS
p6922
sg43
Nssg44
(lp6923
I2758383128
asg32
VWeaponPickup
p6924
sg35
VPT7M52.1760207S
p6925
sa(dp6926
g32
VImpulse
p6927
sg39
(dp6928
g41
VEG Lunchbox HCS
p6929
sg43
Nssg273
I4191318012
sg35
VPT7M52.1770227S
p6930
sa(dp6931
g234
I313138863
sg235
I00
sg236
I01
sg237
(dp6932
g41
VTL StelluR
p6933
sg43
Nssg240
(lp6934
I1095363701
asg242
I00
sg243
I00
sg244
I1
sg245
I0
sg246
I1
sg247
(dp6935
Vy
F-5.28251457
sVx
F7.8151169999999999
sVz
F-0.0050219119999999999
ssg249
(dp6936
Vy
F-5.6292915299999997
sVx
F7.8334903699999998
sVz
F-0.0013391673599999999
ssg251
I00
sg252
(dp6937
g41
VEG SuspectorHCS
p6938
sg43
Nssg255
(lp6939
sg257
(lp6940
sg259
I00
sg35
VPT7M52.3339405S
p6941
sg32
VDeath
p6942
sg262
I1
sa(dp6943
g32
VMedal
p6944
sg39
(dp6945
g41
VTL StelluR
p6946
sg43
Nssg267
I2287626681
sg35
VPT7M52.3350233S
p6947
sa(dp6948
g38
I424645655
sg32
VWeaponDrop
p6949
sg180
I33
sg44
(lp6950
I1327094800
asg35
VPT7M52.3350233S
p6951
sg183
I18
sg184
VP0DT0H0M29.1167S
p6952
sg39
(dp6953
g41
VEG SuspectorHCS
p6954
sg43
Nssa(dp6955
g38
I313138863
sg32
VWeaponDrop
p6956
sg180
I36
sg44
(lp6957
I1095363701
asg35
VPT7M52.336024S
p6958
sg183
I9
sg184
VP0DT0H0M9.0667S
p6959
sg39
(dp6960
g41
VEG SuspectorHCS
p6961
sg43
Nssa(dp6962
g38
I313138863
sg32
VWeaponDrop
p6963
sg180
I0
sg44
(lp6964
I1095363701
asg35
VPT7M52.336024S
p6965
sg183
I0
sg184
VP0DT0S
p6966
sg39
(dp6967
g41
VEG SuspectorHCS
p6968
sg43
Nssa(dp6969
g38
I2244200496
sg32
VWeaponDrop
p6970
sg180
I0
sg44
(lp6971
I2758383128
asg35
VPT7M52.6430246S
p6972
sg183
I0
sg184
VP0DT0H0M0.2833S
p6973
sg39
(dp6974
g41
VEG Lunchbox HCS
p6975
sg43
Nssa(dp6976
g32
VImpulse
p6977
sg39
(dp6978
g41
VEG Lunchbox HCS
p6979
sg43
Nssg273
I3435524855
sg35
VPT7M52.649894S
p6980
sa(dp6981
g234
I4096745987
sg235
I00
sg236
I00
sg237
(dp6982
g41
VEG Roy HCS
p6983
sg43
Nssg240
(lp6984
I2758383128
asg242
I00
sg243
I01
sg244
I1
sg245
I0
sg246
I1
sg247
(dp6985
Vy
F-14.993215599999999
sVx
F-4.4341106400000001
sVz
F1.44276881
ssg249
(dp6986
Vy
F-12.245649999999999
sVx
F-13.682618099999999
sVz
F0.70212125800000003
ssg251
I00
sg252
(dp6987
g41
VTL Eco HCS
p6988
sg43
Nssg255
(lp6989
sg257
(lp6990
(dp6991
g41
VEG Snip3downHCS
p6992
sg43
Nsasg259
I01
sg35
VPT7M53.1820298S
p6993
sg32
VDeath
p6994
sg262
I1
sa(dp6995
g32
VMedal
p6996
sg39
(dp6997
g41
VEG Roy HCS
p6998
sg43
Nssg267
I3261908037
sg35
VPT7M53.1830302S
p6999
sa(dp7000
g38
I313138863
sg32
VWeaponDrop
p7001
sg180
I1
sg44
(lp7002
I1095363701
asg35
VPT7M53.1840305S
p7003
sg183
I0
sg184
VP0DT0H0M1.6833S
p7004
sg39
(dp7005
g41
VTL Eco HCS
p7006
sg43
Nssa(dp7007
g38
I4096745987
sg32
VWeaponDrop
p7008
sg180
I5
sg44
(lp7009
I2758383128
asg35
VPT7M53.1840305S
p7010
sg183
I2
sg184
VP0DT0H0M15.5000S
p7011
sg39
(dp7012
g41
VTL Eco HCS
p7013
sg43
Nssa(dp7014
g38
I2244200496
sg39
(dp7015
g41
VEG Lunchbox HCS
p7016
sg43
Nssg44
(lp7017
I2758383128
asg32
VWeaponPickup
p7018
sg35
VPT7M54.1640346S
p7019
sa(dp7020
g32
VImpulse
p7021
sg39
(dp7022
g41
VEG Lunchbox HCS
p7023
sg43
Nssg273
I4191318012
sg35
VPT7M54.1640346S
p7024
sa(dp7025
g32
VMedal
p7026
sg39
(dp7027
g41
VEG Lunchbox HCS
p7028
sg43
Nssg267
I3886151616
sg35
VPT7M54.876038S
p7029
sa(dp7030
g32
VMedal
p7031
sg39
(dp7032
g41
VEG Lunchbox HCS
p7033
sg43
Nssg267
I1838382875
sg35
VPT7M54.8770393S
p7034
sa(dp7035
g32
VImpulse
p7036
sg39
(dp7037
g41
VEG Lunchbox HCS
p7038
sg43
Nssg273
I2944278681
sg35
VPT7M54.8770393S
p7039
sa(dp7040
g32
VRoundEnd
p7041
sg34
I0
sg35
VPT7M54.8770393S
p7042
sassb.