ccopy_reg
_reconstructor
p1
(c__main__
match_breakdown
p2
c__builtin__
object
p3
NtRp4
(dp5
S'details'
p6
(dp7
VIsCompleteSetOfEvents
p8
I01
sVLinks
p9
(dp10
VUgcFilmManifest
p11
(dp12
VAuthenticationLifetimeExtensionSupported
p13
I00
sVQueryString
p14
V?view=film-manifest
p15
sVRetryPolicyId
p16
Vexponentialretry
p17
sVPath
p18
V/h5/films/f4225752-afc7-4f60-80ef-4d5aeb2d0f94
p19
sVAcknowledgementTypeId
p20
I0
sVAuthorityId
p21
Vugc
p22
sVTopicName
p23
V
ssVStatsMatchDetails
p24
(dp25
g13
I00
sg14
Nsg16
Vexponentialretry
p26
sg18
Vh5/custom/matches/f4225752-afc7-4f60-80ef-4d5aeb2d0f94
p27
sg20
I0
sg21
Vspartanstats
p28
sg23
V
sssVGameEvents
p29
(lp30
(dp31
VEventName
p32
VRoundStart
p33
sVRoundIndex
p34
I0
sVTimeSinceStart
p35
VPT0.0279928S
p36
sa(dp37
VWeaponStockId
p38
I313138863
sVPlayer
p39
(dp40
VGamertag
p41
VTL Spartan HCS
p42
sVXuid
p43
NssVWeaponAttachmentIds
p44
(lp45
I1095363701
asg32
VWeaponPickup
p46
sg35
VPT17.8945645S
p47
sa(dp48
g38
I4096745987
sg39
(dp49
g41
VTL Spartan HCS
p50
sg43
Nssg44
(lp51
I2758383128
asg32
VWeaponPickup
p52
sg35
VPT17.8955647S
p53
sa(dp54
g32
VPlayerSpawn
p55
sg39
(dp56
g41
VTL Spartan HCS
p57
sg43
Nssg35
VPT17.8955647S
p58
sa(dp59
g38
I313138863
sg39
(dp60
g41
VTL Danoxide
p61
sg43
Nssg44
(lp62
I1095363701
asg32
VWeaponPickup
p63
sg35
VPT17.9115656S
p64
sa(dp65
g38
I4096745987
sg39
(dp66
g41
VTL Danoxide
p67
sg43
Nssg44
(lp68
I2758383128
asg32
VWeaponPickup
p69
sg35
VPT17.9115656S
p70
sa(dp71
g32
VPlayerSpawn
p72
sg39
(dp73
g41
VTL Danoxide
p74
sg43
Nssg35
VPT17.9115656S
p75
sa(dp76
g38
I313138863
sg39
(dp77
g41
VnV RayneHCS
p78
sg43
Nssg44
(lp79
I1095363701
asg32
VWeaponPickup
p80
sg35
VPT17.9275656S
p81
sa(dp82
g38
I4096745987
sg39
(dp83
g41
VnV RayneHCS
p84
sg43
Nssg44
(lp85
I2758383128
asg32
VWeaponPickup
p86
sg35
VPT17.9285656S
p87
sa(dp88
g32
VPlayerSpawn
p89
sg39
(dp90
g41
VnV RayneHCS
p91
sg43
Nssg35
VPT17.9285656S
p92
sa(dp93
g38
I313138863
sg39
(dp94
g41
VnV Pistola HCS
p95
sg43
Nssg44
(lp96
I1095363701
asg32
VWeaponPickup
p97
sg35
VPT17.9445663S
p98
sa(dp99
g38
I4096745987
sg39
(dp100
g41
VnV Pistola HCS
p101
sg43
Nssg44
(lp102
I2758383128
asg32
VWeaponPickup
p103
sg35
VPT17.9445663S
p104
sa(dp105
g32
VPlayerSpawn
p106
sg39
(dp107
g41
VnV Pistola HCS
p108
sg43
Nssg35
VPT17.9445663S
p109
sa(dp110
g38
I313138863
sg39
(dp111
g41
VTL StelluR
p112
sg43
Nssg44
(lp113
I1095363701
asg32
VWeaponPickup
p114
sg35
VPT17.9615665S
p115
sa(dp116
g38
I4096745987
sg39
(dp117
g41
VTL StelluR
p118
sg43
Nssg44
(lp119
I2758383128
asg32
VWeaponPickup
p120
sg35
VPT17.9615665S
p121
sa(dp122
g32
VPlayerSpawn
p123
sg39
(dp124
g41
VTL StelluR
p125
sg43
Nssg35
VPT17.9615665S
p126
sa(dp127
g38
I313138863
sg39
(dp128
g41
VLiquid Eco
p129
sg43
Nssg44
(lp130
I1095363701
asg32
VWeaponPickup
p131
sg35
VPT17.9775669S
p132
sa(dp133
g38
I4096745987
sg39
(dp134
g41
VLiquid Eco
p135
sg43
Nssg44
(lp136
I2758383128
asg32
VWeaponPickup
p137
sg35
VPT17.9775669S
p138
sa(dp139
g32
VPlayerSpawn
p140
sg39
(dp141
g41
VLiquid Eco
p142
sg43
Nssg35
VPT17.9785673S
p143
sa(dp144
g38
I313138863
sg39
(dp145
g41
VnV eL ToWn
p146
sg43
Nssg44
(lp147
I1095363701
asg32
VWeaponPickup
p148
sg35
VPT17.9945679S
p149
sa(dp150
g38
I4096745987
sg39
(dp151
g41
VnV eL ToWn
p152
sg43
Nssg44
(lp153
I2758383128
asg32
VWeaponPickup
p154
sg35
VPT17.9945679S
p155
sa(dp156
g32
VPlayerSpawn
p157
sg39
(dp158
g41
VnV eL ToWn
p159
sg43
Nssg35
VPT17.9945679S
p160
sa(dp161
g38
I313138863
sg39
(dp162
g41
VnV Mikwen HCS
p163
sg43
Nssg44
(lp164
I1095363701
asg32
VWeaponPickup
p165
sg35
VPT18.0115684S
p166
sa(dp167
g38
I4096745987
sg39
(dp168
g41
VnV Mikwen HCS
p169
sg43
Nssg44
(lp170
I2758383128
asg32
VWeaponPickup
p171
sg35
VPT18.0115684S
p172
sa(dp173
g32
VPlayerSpawn
p174
sg39
(dp175
g41
VnV Mikwen HCS
p176
sg43
Nssg35
VPT18.0115684S
p177
sa(dp178
g38
I313138863
sg32
VWeaponDrop
p179
sVShotsFired
p180
I0
sg44
(lp181
I1095363701
asg35
VPT22.2097004S
p182
sVShotsLanded
p183
I0
sVTimeWeaponActiveAsPrimary
p184
VP0DT0H0M3.0833S
p185
sg39
(dp186
g41
VnV Mikwen HCS
p187
sg43
Nssa(dp188
g38
I723388907
sg39
(dp189
g41
VnV Mikwen HCS
p190
sg43
Nssg44
(lp191
I89283061
asg32
VWeaponPickup
p192
sg35
VPT22.2097004S
p193
sa(dp194
g38
I313138863
sg32
VWeaponDrop
p195
sg180
I0
sg44
(lp196
I1095363701
asg35
VPT23.8767661S
p197
sg183
I0
sg184
VP0DT0H0M3.8167S
p198
sg39
(dp199
g41
VTL Danoxide
p200
sg43
Nssa(dp201
g38
I723388907
sg39
(dp202
g41
VTL Danoxide
p203
sg43
Nssg44
(lp204
I89283061
asg32
VWeaponPickup
p205
sg35
VPT23.8767661S
p206
sa(dp207
g38
I4096745987
sg32
VWeaponDrop
p208
sg180
I0
sg44
(lp209
I2758383128
asg35
VPT26.0598244S
p210
sg183
I0
sg184
VP0DT0H0M2.2500S
p211
sg39
(dp212
g41
VnV Pistola HCS
p213
sg43
Nssa(dp214
g38
I2511447508
sg39
(dp215
g41
VnV Pistola HCS
p216
sg43
Nssg44
(lp217
I2758383128
asg32
VWeaponPickup
p218
sg35
VPT26.0598244S
p219
sa(dp220
VKillerWeaponStockId
p221
I723388907
sVIsAssassination
p222
I00
sVIsMelee
p223
I00
sVKiller
p224
(dp225
g41
VTL Danoxide
p226
sg43
NssVKillerWeaponAttachmentIds
p227
(lp228
I89283061
asVIsGroundPound
p229
I00
sVIsWeapon
p230
I01
sVDeathDisposition
p231
I1
sVVictimStockId
p232
I0
sVVictimAgent
p233
I1
sVKillerWorldLocation
p234
(dp235
Vy
F3.0078673399999998
sVx
F17.585426300000002
sVz
F1.6957607299999999
ssVVictimWorldLocation
p236
(dp237
Vy
F2.02535987
sVx
F15.9483452
sVz
F0.800009847
ssVIsShoulderBash
p238
I00
sVVictim
p239
(dp240
g41
VnV Mikwen HCS
p241
sg43
NssVVictimAttachmentIds
p242
(lp243
sVAssistants
p244
(lp245
(dp246
g41
VLiquid Eco
p247
sg43
NsasVIsHeadshot
p248
I00
sg35
VPT27.3138655S
p249
sg32
VDeath
p250
sVKillerAgent
p251
I1
sa(dp252
g32
VMedal
p253
sg39
(dp254
g41
VTL Danoxide
p255
sg43
NssVMedalId
p256
I3001183151
sg35
VPT27.3158661S
p257
sa(dp258
g38
I723388907
sg32
VWeaponDrop
p259
sg180
I7
sg44
(lp260
I89283061
asg35
VPT27.3368668S
p261
sg183
I0
sg184
VP0DT0H0M5.1000S
p262
sg39
(dp263
g41
VnV Mikwen HCS
p264
sg43
Nssa(dp265
g38
I4096745987
sg32
VWeaponDrop
p266
sg180
I0
sg44
(lp267
I2758383128
asg35
VPT27.3368668S
p268
sg183
I0
sg184
VP0DT0H0M1.1167S
p269
sg39
(dp270
g41
VnV Mikwen HCS
p271
sg43
Nssa(dp272
g221
I4096745987
sg222
I00
sg223
I00
sg224
(dp273
g41
VnV RayneHCS
p274
sg43
Nssg227
(lp275
I2758383128
asg229
I00
sg230
I01
sg231
I1
sg232
I0
sg233
I1
sg234
(dp276
Vy
F-5.2767877600000004
sVx
F22.697204599999999
sVz
F1.62428427
ssg236
(dp277
Vy
F2.2856321300000002
sVx
F18.481069999999999
sVz
F0.80000305199999999
ssg238
I00
sg239
(dp278
g41
VTL Danoxide
p279
sg43
Nssg242
(lp280
sg244
(lp281
(dp282
g41
VnV Mikwen HCS
p283
sg43
Nsasg248
I01
sg35
VPT27.9608864S
p284
sg32
VDeath
p285
sg251
I1
sa(dp286
g32
VMedal
p287
sg39
(dp288
g41
VnV RayneHCS
p289
sg43
Nssg256
I3261908037
sg35
VPT27.9618867S
p290
sa(dp291
g38
I723388907
sg32
VWeaponDrop
p292
sg180
I11
sg44
(lp293
I89283061
asg35
VPT27.9628918S
p294
sg183
I3
sg184
VP0DT0H0M4.0833S
p295
sg39
(dp296
g41
VTL Danoxide
p297
sg43
Nssa(dp298
g38
I4096745987
sg32
VWeaponDrop
p299
sg180
I0
sg44
(lp300
I2758383128
asg35
VPT27.9628918S
p301
sg183
I0
sg184
VP0DT0H0M2.1500S
p302
sg39
(dp303
g41
VTL Danoxide
p304
sg43
Nssa(dp305
g221
I313138863
sg222
I00
sg223
I00
sg224
(dp306
g41
VnV eL ToWn
p307
sg43
Nssg227
(lp308
I1095363701
asg229
I00
sg230
I01
sg231
I1
sg232
I0
sg233
I1
sg234
(dp309
Vy
F0.82161229999999996
sVx
F3.523339
sVz
F3.7001571700000002
ssg236
(dp310
Vy
F8.8664389999999997
sVx
F2.3220956300000002
sVz
F4.8148384100000001
ssg238
I00
sg239
(dp311
g41
VTL StelluR
p312
sg43
Nssg242
(lp313
sg244
(lp314
sg248
I00
sg35
VPT29.244928S
p315
sg32
VDeath
p316
sg251
I1
sa(dp317
g38
I313138863
sg32
VWeaponDrop
p318
sg180
I0
sg44
(lp319
I1095363701
asg35
VPT29.2469271S
p320
sg183
I0
sg184
VP0DT0H0M0.9167S
p321
sg39
(dp322
g41
VTL StelluR
p323
sg43
Nssa(dp324
g38
I4096745987
sg32
VWeaponDrop
p325
sg180
I6
sg44
(lp326
I2758383128
asg35
VPT29.2469271S
p327
sg183
I3
sg184
VP0DT0H0M10.3667S
p328
sg39
(dp329
g41
VTL StelluR
p330
sg43
Nssa(dp331
g38
I313138863
sg32
VWeaponDrop
p332
sg180
I0
sg44
(lp333
I1095363701
asg35
VPT34.0600821S
p334
sg183
I0
sg184
VP0DT0H0M2.6333S
p335
sg39
(dp336
g41
VnV RayneHCS
p337
sg43
Nssa(dp338
g38
I723523180
sg39
(dp339
g41
VnV RayneHCS
p340
sg43
Nssg44
(lp341
I2758383128
asg32
VWeaponPickupPad
p342
sg35
VPT34.0600821S
p343
sa(dp344
g38
I723523180
sg39
(dp345
g41
VnV RayneHCS
p346
sg43
Nssg44
(lp347
I2758383128
asg32
VWeaponPickup
p348
sg35
VPT34.0610888S
p349
sa(dp350
g38
I313138863
sg32
VWeaponDrop
p351
sg180
I20
sg44
(lp352
I1095363701
asg35
VPT34.6260997S
p353
sg183
I11
sg184
VP0DT0H0M7.1500S
p354
sg39
(dp355
g41
VnV eL ToWn
p356
sg43
Nssa(dp357
g38
I3484334713
sg39
(dp358
g41
VnV eL ToWn
p359
sg43
Nssg44
(lp360
I2758383128
asg32
VWeaponPickup
p361
sg35
VPT34.6260997S
p362
sa(dp363
g38
I313138863
sg39
(dp364
g41
VnV Mikwen HCS
p365
sg43
Nssg44
(lp366
I1095363701
asg32
VWeaponPickup
p367
sg35
VPT35.3281226S
p368
sa(dp369
g38
I4096745987
sg39
(dp370
g41
VnV Mikwen HCS
p371
sg43
Nssg44
(lp372
I2758383128
asg32
VWeaponPickup
p373
sg35
VPT35.3281226S
p374
sa(dp375
g32
VPlayerSpawn
p376
sg39
(dp377
g41
VnV Mikwen HCS
p378
sg43
Nssg35
VPT35.3281226S
p379
sa(dp380
g38
I4096745987
sg32
VWeaponDrop
p381
sg180
I4
sg44
(lp382
I2758383128
asg35
VPT35.776135S
p383
sg183
I2
sg184
VP0DT0H0M14.3500S
p384
sg39
(dp385
g41
VTL Spartan HCS
p386
sg43
Nssa(dp387
g38
I669296699
sg39
(dp388
g41
VTL Spartan HCS
p389
sg43
Nssg44
(lp390
I2758383128
asg32
VWeaponPickupPad
p391
sg35
VPT35.776135S
p392
sa(dp393
g38
I669296699
sg39
(dp394
g41
VTL Spartan HCS
p395
sg43
Nssg44
(lp396
I2758383128
asg32
VWeaponPickup
p397
sg35
VPT35.7771371S
p398
sa(dp399
g38
I313138863
sg39
(dp400
g41
VTL Danoxide
p401
sg43
Nssg44
(lp402
I1095363701
asg32
VWeaponPickup
p403
sg35
VPT35.9781435S
p404
sa(dp405
g38
I4096745987
sg39
(dp406
g41
VTL Danoxide
p407
sg43
Nssg44
(lp408
I2758383128
asg32
VWeaponPickup
p409
sg35
VPT35.9781435S
p410
sa(dp411
g32
VPlayerSpawn
p412
sg39
(dp413
g41
VTL Danoxide
p414
sg43
Nssg35
VPT35.9781435S
p415
sa(dp416
g38
I313138863
sg39
(dp417
g41
VTL StelluR
p418
sg43
Nssg44
(lp419
I1095363701
asg32
VWeaponPickup
p420
sg35
VPT37.2611843S
p421
sa(dp422
g38
I4096745987
sg39
(dp423
g41
VTL StelluR
p424
sg43
Nssg44
(lp425
I2758383128
asg32
VWeaponPickup
p426
sg35
VPT37.2611843S
p427
sa(dp428
g32
VPlayerSpawn
p429
sg39
(dp430
g41
VTL StelluR
p431
sg43
Nssg35
VPT37.2611843S
p432
sa(dp433
g38
I313138863
sg32
VWeaponDrop
p434
sg180
I0
sg44
(lp435
I1095363701
asg35
VPT41.5933228S
p436
sg183
I0
sg184
VP0DT0H0M0.9167S
p437
sg39
(dp438
g41
VTL StelluR
p439
sg43
Nssa(dp440
g38
I424645655
sg39
(dp441
g41
VTL StelluR
p442
sg43
Nssg44
(lp443
I1327094800
asg32
VWeaponPickup
p444
sg35
VPT41.5933228S
p445
sa(dp446
g221
I4096745987
sg222
I00
sg223
I00
sg224
(dp447
g41
VLiquid Eco
p448
sg43
Nssg227
(lp449
I2758383128
asg229
I00
sg230
I01
sg231
I1
sg232
I0
sg233
I1
sg234
(dp450
Vy
F5.8585240000000001
sVx
F9.0375549999999993
sVz
F0.79518549999999999
ssg236
(dp451
Vy
F0.50756543899999995
sVx
F3.0419235200000001
sVz
F0.0045394003400000002
ssg238
I00
sg239
(dp452
g41
VnV eL ToWn
p453
sg43
Nssg242
(lp454
sg244
(lp455
sg248
I01
sg35
VPT42.4773507S
p456
sg32
VDeath
p457
sg251
I1
sa(dp458
g32
VMedal
p459
sg39
(dp460
g41
VLiquid Eco
p461
sg43
Nssg256
I3261908037
sg35
VPT42.4803501S
p462
sa(dp463
g38
I3484334713
sg32
VWeaponDrop
p464
sg180
I0
sg44
(lp465
I2758383128
asg35
VPT42.4813514S
p466
sg183
I0
sg184
VP0DT0H0M0.5000S
p467
sg39
(dp468
g41
VnV eL ToWn
p469
sg43
Nssa(dp470
g38
I4096745987
sg32
VWeaponDrop
p471
sg180
I8
sg44
(lp472
I2758383128
asg35
VPT42.4813514S
p473
sg183
I4
sg184
VP0DT0H0M16.8333S
p474
sg39
(dp475
g41
VnV eL ToWn
p476
sg43
Nssa(dp477
g38
I313138863
sg32
VWeaponDrop
p478
sg180
I0
sg44
(lp479
I1095363701
asg35
VPT46.1594676S
p480
sg183
I0
sg184
VP0DT0H0M1.6333S
p481
sg39
(dp482
g41
VnV Mikwen HCS
p483
sg43
Nssa(dp484
g38
I723388907
sg39
(dp485
g41
VnV Mikwen HCS
p486
sg43
Nssg44
(lp487
I89283061
asg32
VWeaponPickup
p488
sg35
VPT46.1594676S
p489
sa(dp490
g32
VMedal
p491
sg39
(dp492
g41
VLiquid Eco
p493
sg43
Nssg256
I3400287617
sg35
VPT47.9765265S
p494
sa(dp495
g38
I313138863
sg32
VWeaponDrop
p496
sg180
I0
sg44
(lp497
I1095363701
asg35
VPT48.3095357S
p498
sg183
I0
sg184
VP0DT0H0M5.3167S
p499
sg39
(dp500
g41
VTL Spartan HCS
p501
sg43
Nssa(dp502
g38
I4096745987
sg39
(dp503
g41
VTL Spartan HCS
p504
sg43
Nssg44
(lp505
I2758383128
asg32
VWeaponPickup
p506
sg35
VPT48.3095357S
p507
sa(dp508
g38
I313138863
sg39
(dp509
g41
VnV eL ToWn
p510
sg43
Nssg44
(lp511
I1095363701
asg32
VWeaponPickup
p512
sg35
VPT50.4946072S
p513
sa(dp514
g38
I4096745987
sg39
(dp515
g41
VnV eL ToWn
p516
sg43
Nssg44
(lp517
I2758383128
asg32
VWeaponPickup
p518
sg35
VPT50.4946072S
p519
sa(dp520
g32
VPlayerSpawn
p521
sg39
(dp522
g41
VnV eL ToWn
p523
sg43
Nssg35
VPT50.4946072S
p524
sa(dp525
g38
I313138863
sg32
VWeaponDrop
p526
sg180
I0
sg44
(lp527
I1095363701
asg35
VPT51.8096479S
p528
sg183
I0
sg184
VP0DT0H0M1.1500S
p529
sg39
(dp530
g41
VTL Danoxide
p531
sg43
Nssa(dp532
g38
I723388907
sg39
(dp533
g41
VTL Danoxide
p534
sg43
Nssg44
(lp535
I89283061
asg32
VWeaponPickup
p536
sg35
VPT51.8096479S
p537
sa(dp538
g38
I313138863
sg32
VWeaponDrop
p539
sg180
I9
sg44
(lp540
I1095363701
asg35
VPT57.4758298S
p541
sg183
I3
sg184
VP0DT0H0M8.1833S
p542
sg39
(dp543
g41
VnV Pistola HCS
p544
sg43
Nssa(dp545
g38
I1579758889
sg39
(dp546
g41
VnV Pistola HCS
p547
sg43
Nssg44
(lp548
I2758383128
asg32
VWeaponPickup
p549
sg35
VPT57.4768316S
p550
sa(dp551
g38
I4096745987
sg32
VWeaponDrop
p552
sg180
I0
sg44
(lp553
I2758383128
asg35
VPT59.009879S
p554
sg183
I0
sg184
VP0DT0H0M4.7333S
p555
sg39
(dp556
g41
VTL StelluR
p557
sg43
Nssa(dp558
g38
I3484334713
sg39
(dp559
g41
VTL StelluR
p560
sg43
Nssg44
(lp561
I2758383128
asg32
VWeaponPickup
p562
sg35
VPT59.009879S
p563
sa(dp564
g38
I313138863
sg32
VWeaponDrop
p565
sg180
I0
sg44
(lp566
I1095363701
asg35
VPT1M7.909164S
p567
sg183
I0
sg184
VP0DT0H0M0.8667S
p568
sg39
(dp569
g41
VnV eL ToWn
p570
sg43
Nssa(dp571
g38
I2511447508
sg39
(dp572
g41
VnV eL ToWn
p573
sg43
Nssg44
(lp574
I2758383128
asg32
VWeaponPickup
p575
sg35
VPT1M7.9101656S
p576
sa(dp577
g221
I669296699
sg222
I00
sg223
I00
sg224
(dp578
g41
VTL Spartan HCS
p579
sg43
Nssg227
(lp580
I2758383128
asg229
I00
sg230
I01
sg231
I1
sg232
I0
sg233
I1
sg234
(dp581
Vy
F9.8736820000000005
sVx
F-0.3689248
sVz
F3.7001569999999999
ssg236
(dp582
Vy
F-9.6215840000000004
sVx
F10.300380000000001
sVz
F3.1403884899999999
ssg238
I00
sg239
(dp583
g41
VnV Pistola HCS
p584
sg43
Nssg242
(lp585
sg244
(lp586
sg248
I01
sg35
VPT1M17.0444577S
p587
sg32
VDeath
p588
sg251
I1
sa(dp589
g32
VMedal
p590
sg39
(dp591
g41
VTL Spartan HCS
p592
sg43
Nssg256
I848240062
sg35
VPT1M17.0454577S
p593
sa(dp594
g38
I1579758889
sg32
VWeaponDrop
p595
sg180
I0
sg44
(lp596
I2758383128
asg35
VPT1M17.0517768S
p597
sg183
I0
sg184
VP0DT0H0M7.0167S
p598
sg39
(dp599
g41
VnV Pistola HCS
p600
sg43
Nssa(dp601
g38
I2511447508
sg32
VWeaponDrop
p602
sg180
I3
sg44
(lp603
I2758383128
asg35
VPT1M17.0517768S
p604
sg183
I3
sg184
VP0DT0H0M41.6500S
p605
sg39
(dp606
g41
VnV Pistola HCS
p607
sg43
Nssa(dp608
g221
I4106030681
sg222
I00
sg223
I00
sg224
(dp609
g41
VnV Mikwen HCS
p610
sg43
Nssg227
(lp611
sg229
I00
sg230
I00
sg231
I0
sg232
I0
sg233
I0
sg234
(dp612
Vy
F2.68360281
sVx
F19.034851100000001
sVz
F0.80000305199999999
ssg236
(dp613
Vy
F13.36871
sVx
F10.2135286
sVz
F4.1803793899999997
ssg238
I00
sg239
(dp614
S'Gamertag'
p615
S'None'
p616
ssg242
(lp617
sg244
(lp618
sg248
I00
sg35
VPT1M22.9596465S
p619
sg32
VDeath
p620
sg251
I1
sa(dp621
g221
I4106030681
sg222
I00
sg223
I00
sg224
(dp622
g41
VnV Mikwen HCS
p623
sg43
Nssg227
(lp624
sg229
I00
sg230
I00
sg231
I0
sg232
I0
sg233
I0
sg234
(dp625
Vy
F2.68360281
sVx
F19.034851100000001
sVz
F0.80000305199999999
ssg236
(dp626
Vy
F13.6489744
sVx
F9.7662110000000002
sVz
F4.1804647399999997
ssg238
I00
sg239
(dp627
g615
g616
ssg242
(lp628
sg244
(lp629
sg248
I00
sg35
VPT1M22.960647S
p630
sg32
VDeath
p631
sg251
I1
sa(dp632
g38
I313138863
sg39
(dp633
g41
VnV Pistola HCS
p634
sg43
Nssg44
(lp635
I1095363701
asg32
VWeaponPickup
p636
sg35
VPT1M25.0617144S
p637
sa(dp638
g38
I4096745987
sg39
(dp639
g41
VnV Pistola HCS
p640
sg43
Nssg44
(lp641
I2758383128
asg32
VWeaponPickup
p642
sg35
VPT1M25.0617144S
p643
sa(dp644
g32
VPlayerSpawn
p645
sg39
(dp646
g41
VnV Pistola HCS
p647
sg43
Nssg35
VPT1M25.0617144S
p648
sa(dp649
g38
I4096745987
sg32
VWeaponDrop
p650
sg180
I0
sg44
(lp651
I2758383128
asg35
VPT1M28.142811S
p652
sg183
I0
sg184
VP0DT0H0M3.3167S
p653
sg39
(dp654
g41
VTL Spartan HCS
p655
sg43
Nssa(dp656
g38
I424645655
sg39
(dp657
g41
VTL Spartan HCS
p658
sg43
Nssg44
(lp659
I1327094800
asg32
VWeaponPickup
p660
sg35
VPT1M28.142811S
p661
sa(dp662
g38
I4096745987
sg32
VWeaponDrop
p663
sg180
I0
sg44
(lp664
I2758383128
asg35
VPT1M38.5921455S
p665
sg183
I0
sg184
VP0DT0H0M12.6333S
p666
sg39
(dp667
g41
VnV Pistola HCS
p668
sg43
Nssa(dp669
g38
I2511447508
sg39
(dp670
g41
VnV Pistola HCS
p671
sg43
Nssg44
(lp672
I2758383128
asg32
VWeaponPickup
p673
sg35
VPT1M38.5934769S
p674
sa(dp675
g38
I313138863
sg32
VWeaponDrop
p676
sg180
I0
sg44
(lp677
I1095363701
asg35
VPT1M39.7921836S
p678
sg183
I0
sg184
VP0DT0H0M1.6500S
p679
sg39
(dp680
g41
VnV Pistola HCS
p681
sg43
Nssa(dp682
g38
I1579758889
sg39
(dp683
g41
VnV Pistola HCS
p684
sg43
Nssg44
(lp685
I2758383128
asg32
VWeaponPickup
p686
sg35
VPT1M39.7931858S
p687
sa(dp688
g221
I4096745987
sg222
I00
sg223
I00
sg224
(dp689
g41
VLiquid Eco
p690
sg43
Nssg227
(lp691
I2758383128
asg229
I00
sg230
I01
sg231
I1
sg232
I0
sg233
I1
sg234
(dp692
Vy
F15.666038500000001
sVx
F14.9374056
sVz
F2.7091293300000001
ssg236
(dp693
Vy
F4.17987251
sVx
F20.025245699999999
sVz
F0.96109723999999996
ssg238
I00
sg239
(dp694
g41
VnV Mikwen HCS
p695
sg43
Nssg242
(lp696
sg244
(lp697
sg248
I01
sg35
VPT1M53.3276186S
p698
sg32
VDeath
p699
sg251
I1
sa(dp700
g32
VMedal
p701
sg39
(dp702
g41
VLiquid Eco
p703
sg43
Nssg256
I3261908037
sg35
VPT1M53.3286183S
p704
sa(dp705
g38
I723388907
sg32
VWeaponDrop
p706
sg180
I0
sg44
(lp707
I89283061
asg35
VPT1M53.3296181S
p708
sg183
I0
sg184
VP0DT0H0M30.2833S
p709
sg39
(dp710
g41
VnV Mikwen HCS
p711
sg43
Nssa(dp712
g38
I4096745987
sg32
VWeaponDrop
p713
sg180
I18
sg44
(lp714
I2758383128
asg35
VPT1M53.3306191S
p715
sg183
I10
sg184
VP0DT0H0M46.0833S
p716
sg39
(dp717
g41
VnV Mikwen HCS
p718
sg43
Nssa(dp719
g38
I313138863
sg32
VWeaponDrop
p720
sg180
I0
sg44
(lp721
I1095363701
asg35
VPT1M55.742695S
p722
sg183
I0
sg184
VP0DT0H0M7.4000S
p723
sg39
(dp724
g41
VLiquid Eco
p725
sg43
Nssa(dp726
g38
I723388907
sg39
(dp727
g41
VLiquid Eco
p728
sg43
Nssg44
(lp729
I89283061
asg32
VWeaponPickup
p730
sg35
VPT1M55.742695S
p731
sa(dp732
g38
I313138863
sg39
(dp733
g41
VnV Mikwen HCS
p734
sg43
Nssg44
(lp735
I1095363701
asg32
VWeaponPickup
p736
sg35
VPT2M1.3438757S
p737
sa(dp738
g38
I4096745987
sg39
(dp739
g41
VnV Mikwen HCS
p740
sg43
Nssg44
(lp741
I2758383128
asg32
VWeaponPickup
p742
sg35
VPT2M1.3438757S
p743
sa(dp744
g32
VPlayerSpawn
p745
sg39
(dp746
g41
VnV Mikwen HCS
p747
sg43
Nssg35
VPT2M1.3438757S
p748
sa(dp749
g221
I723388907
sg222
I00
sg223
I01
sg224
(dp750
g41
VTL Danoxide
p751
sg43
Nssg227
(lp752
I89283061
asg229
I00
sg230
I00
sg231
I1
sg232
I0
sg233
I1
sg234
(dp753
Vy
F2.83678126
sVx
F15.538538900000001
sVz
F0.81755909999999998
ssg236
(dp754
Vy
F3.0488071400000001
sVx
F15.7757635
sVz
F0.84984550000000003
ssg238
I00
sg239
(dp755
g41
VnV Mikwen HCS
p756
sg43
Nssg242
(lp757
sg244
(lp758
sg248
I00
sg35
VPT2M13.5432649S
p759
sg32
VDeath
p760
sg251
I1
sa(dp761
g32
VMedal
p762
sg39
(dp763
g41
VTL Danoxide
p764
sg43
Nssg256
I2287626681
sg35
VPT2M13.5442657S
p765
sa(dp766
g38
I313138863
sg32
VWeaponDrop
p767
sg180
I0
sg44
(lp768
I1095363701
asg35
VPT2M13.5452647S
p769
sg183
I0
sg184
VP0DT0H0M4.0833S
p770
sg39
(dp771
g41
VnV Mikwen HCS
p772
sg43
Nssa(dp773
g38
I4096745987
sg32
VWeaponDrop
p774
sg180
I0
sg44
(lp775
I2758383128
asg35
VPT2M13.5462658S
p776
sg183
I0
sg184
VP0DT0H0M8.1167S
p777
sg39
(dp778
g41
VnV Mikwen HCS
p779
sg43
Nssa(dp780
g221
I723523180
sg222
I00
sg223
I00
sg224
(dp781
g41
VnV RayneHCS
p782
sg43
Nssg227
(lp783
I2758383128
asg229
I00
sg230
I01
sg231
I1
sg232
I0
sg233
I1
sg234
(dp784
Vy
F-1.13015687
sVx
F17.288696300000002
sVz
F1.644247
ssg236
(dp785
Vy
F0.8475606
sVx
F14.989191999999999
sVz
F0.80006949999999999
ssg238
I00
sg239
(dp786
g41
VTL Danoxide
p787
sg43
Nssg242
(lp788
sg244
(lp789
sg248
I00
sg35
VPT2M14.5932994S
p790
sg32
VDeath
p791
sg251
I1
sa(dp792
g38
I723388907
sg32
VWeaponDrop
p793
sg180
I16
sg44
(lp794
I89283061
asg35
VPT2M14.5942991S
p795
sg183
I13
sg184
VP0DT0H0M27.8500S
p796
sg39
(dp797
g41
VTL Danoxide
p798
sg43
Nssa(dp799
g38
I723388907
sg32
VWeaponDrop
p800
sg180
I0
sg44
(lp801
I89283061
asg35
VPT2M14.5942991S
p802
sg183
I0
sg184
VP0DT0S
p803
sg39
(dp804
g41
VTL Danoxide
p805
sg43
Nssa(dp806
g38
I4096745987
sg32
VWeaponDrop
p807
sg180
I1
sg44
(lp808
I2758383128
asg35
VPT2M14.5942991S
p809
sg183
I0
sg184
VP0DT0H1M9.6167S
p810
sg39
(dp811
g41
VTL Danoxide
p812
sg43
Nssa(dp813
g221
I723388907
sg222
I00
sg223
I00
sg224
(dp814
g41
VLiquid Eco
p815
sg43
Nssg227
(lp816
I89283061
asg229
I00
sg230
I01
sg231
I1
sg232
I0
sg233
I1
sg234
(dp817
Vy
F-0.061557926200000002
sVx
F15.321723
sVz
F1.9837484400000001
ssg236
(dp818
Vy
F1.2015370000000001
sVx
F18.346430000000002
sVz
F1.52044928
ssg238
I00
sg239
(dp819
g41
VnV RayneHCS
p820
sg43
Nssg242
(lp821
sg244
(lp822
(dp823
g41
VTL Danoxide
p824
sg43
Nsasg248
I00
sg35
VPT2M16.1443485S
p825
sg32
VDeath
p826
sg251
I1
sa(dp827
g38
I723523180
sg32
VWeaponDrop
p828
sg180
I1
sg44
(lp829
I2758383128
asg35
VPT2M16.1463483S
p830
sg183
I1
sg184
VP0DT0H1M16.2500S
p831
sg39
(dp832
g41
VnV RayneHCS
p833
sg43
Nssa(dp834
g38
I4096745987
sg32
VWeaponDrop
p835
sg180
I13
sg44
(lp836
I2758383128
asg35
VPT2M16.1463483S
p837
sg183
I6
sg184
VP0DT0H0M39.3333S
p838
sg39
(dp839
g41
VnV RayneHCS
p840
sg43
Nssa(dp841
g221
I2511447508
sg222
I00
sg223
I00
sg224
(dp842
g41
VnV Pistola HCS
p843
sg43
Nssg227
(lp844
I2758383128
asg229
I00
sg230
I01
sg231
I1
sg232
I0
sg233
I1
sg234
(dp845
Vy
F-6.5633792900000003
sVx
F22.053947399999998
sVz
F1.6198334700000001
ssg236
(dp846
Vy
F-1.24288416
sVx
F21.4580822
sVz
F3.2304513500000001
ssg238
I00
sg239
(dp847
g41
VLiquid Eco
p848
sg43
Nssg242
(lp849
sg244
(lp850
sg248
I01
sg35
VPT2M20.1934777S
p851
sg32
VDeath
p852
sg251
I1
sa(dp853
g32
VMedal
p854
sg39
(dp855
g41
VnV Pistola HCS
p856
sg43
Nssg256
I3261908037
sg35
VPT2M20.1954778S
p857
sa(dp858
g38
I723388907
sg32
VWeaponDrop
p859
sg180
I50
sg44
(lp860
I89283061
asg35
VPT2M20.1964786S
p861
sg183
I19
sg184
VP0DT0H0M24.4500S
p862
sg39
(dp863
g41
VLiquid Eco
p864
sg43
Nssa(dp865
g38
I4096745987
sg32
VWeaponDrop
p866
sg180
I34
sg44
(lp867
I2758383128
asg35
VPT2M20.1964786S
p868
sg183
I21
sg184
VP0DT0H1M30.3667S
p869
sg39
(dp870
g41
VLiquid Eco
p871
sg43
Nssa(dp872
g38
I313138863
sg39
(dp873
g41
VnV Mikwen HCS
p874
sg43
Nssg44
(lp875
I1095363701
asg32
VWeaponPickup
p876
sg35
VPT2M21.5605224S
p877
sa(dp878
g38
I4096745987
sg39
(dp879
g41
VnV Mikwen HCS
p880
sg43
Nssg44
(lp881
I2758383128
asg32
VWeaponPickup
p882
sg35
VPT2M21.5605224S
p883
sa(dp884
g32
VPlayerSpawn
p885
sg39
(dp886
g41
VnV Mikwen HCS
p887
sg43
Nssg35
VPT2M21.5605224S
p888
sa(dp889
g38
I313138863
sg39
(dp890
g41
VTL Danoxide
p891
sg43
Nssg44
(lp892
I1095363701
asg32
VWeaponPickup
p893
sg35
VPT2M22.6105559S
p894
sa(dp895
g38
I4096745987
sg39
(dp896
g41
VTL Danoxide
p897
sg43
Nssg44
(lp898
I2758383128
asg32
VWeaponPickup
p899
sg35
VPT2M22.6105559S
p900
sa(dp901
g32
VPlayerSpawn
p902
sg39
(dp903
g41
VTL Danoxide
p904
sg43
Nssg35
VPT2M22.6105559S
p905
sa(dp906
g221
I424645655
sg222
I00
sg223
I00
sg224
(dp907
g41
VTL StelluR
p908
sg43
Nssg227
(lp909
I1327094800
asg229
I00
sg230
I01
sg231
I1
sg232
I0
sg233
I1
sg234
(dp910
Vy
F5.20803452
sVx
F23.16056
sVz
F1.6120540000000001
ssg236
(dp911
Vy
F-5.5496196700000002
sVx
F20.2295151
sVz
F2.5044569999999999
ssg238
I00
sg239
(dp912
g41
VnV Pistola HCS
p913
sg43
Nssg242
(lp914
sg244
(lp915
(dp916
g41
VLiquid Eco
p917
sg43
Nsasg248
I01
sg35
VPT2M22.9935679S
p918
sg32
VDeath
p919
sg251
I1
sa(dp920
g32
VMedal
p921
sg39
(dp922
g41
VTL StelluR
p923
sg43
Nssg256
I3261908037
sg35
VPT2M22.9945678S
p924
sa(dp925
g38
I1579758889
sg32
VWeaponDrop
p926
sg180
I3
sg44
(lp927
I2758383128
asg35
VPT2M22.9955678S
p928
sg183
I1
sg184
VP0DT0H0M5.2000S
p929
sg39
(dp930
g41
VnV Pistola HCS
p931
sg43
Nssa(dp932
g38
I2511447508
sg32
VWeaponDrop
p933
sg180
I8
sg44
(lp934
I2758383128
asg35
VPT2M22.9955678S
p935
sg183
I7
sg184
VP0DT0H0M38.4500S
p936
sg39
(dp937
g41
VnV Pistola HCS
p938
sg43
Nssa(dp939
g38
I313138863
sg39
(dp940
g41
VnV RayneHCS
p941
sg43
Nssg44
(lp942
I1095363701
asg32
VWeaponPickup
p943
sg35
VPT2M24.1606056S
p944
sa(dp945
g38
I4096745987
sg39
(dp946
g41
VnV RayneHCS
p947
sg43
Nssg44
(lp948
I2758383128
asg32
VWeaponPickup
p949
sg35
VPT2M24.1606056S
p950
sa(dp951
g32
VPlayerSpawn
p952
sg39
(dp953
g41
VnV RayneHCS
p954
sg43
Nssg35
VPT2M24.1606056S
p955
sa(dp956
g32
VMedal
p957
sg39
(dp958
g41
VTL Spartan HCS
p959
sg43
Nssg256
I3400287617
sg35
VPT2M25.1426364S
p960
sa(dp961
g38
I424645655
sg32
VWeaponDrop
p962
sg180
I24
sg44
(lp963
I1327094800
asg35
VPT2M25.5756486S
p964
sg183
I15
sg184
VP0DT0H1M37.8000S
p965
sg39
(dp966
g41
VTL StelluR
p967
sg43
Nssa(dp968
g38
I723523180
sg39
(dp969
g41
VTL StelluR
p970
sg43
Nssg44
(lp971
I2758383128
asg32
VWeaponPickupPad
p972
sg35
VPT2M25.5756486S
p973
sa(dp974
g38
I723523180
sg39
(dp975
g41
VTL StelluR
p976
sg43
Nssg44
(lp977
I2758383128
asg32
VWeaponPickup
p978
sg35
VPT2M25.5756486S
p979
sa(dp980
g38
I313138863
sg32
VWeaponDrop
p981
sg180
I0
sg44
(lp982
I1095363701
asg35
VPT2M26.7756874S
p983
sg183
I0
sg184
VP0DT0H0M0.6333S
p984
sg39
(dp985
g41
VTL Danoxide
p986
sg43
Nssa(dp987
g38
I723388907
sg39
(dp988
g41
VTL Danoxide
p989
sg43
Nssg44
(lp990
I89283061
asg32
VWeaponPickup
p991
sg35
VPT2M26.7756874S
p992
sa(dp993
g38
I313138863
sg39
(dp994
g41
VLiquid Eco
p995
sg43
Nssg44
(lp996
I1095363701
asg32
VWeaponPickup
p997
sg35
VPT2M28.2107352S
p998
sa(dp999
g38
I4096745987
sg39
(dp1000
g41
VLiquid Eco
p1001
sg43
Nssg44
(lp1002
I2758383128
asg32
VWeaponPickup
p1003
sg35
VPT2M28.2107352S
p1004
sa(dp1005
g32
VPlayerSpawn
p1006
sg39
(dp1007
g41
VLiquid Eco
p1008
sg43
Nssg35
VPT2M28.2107352S
p1009
sa(dp1010
g38
I313138863
sg32
VWeaponDrop
p1011
sg180
I0
sg44
(lp1012
I1095363701
asg35
VPT2M29.3587715S
p1013
sg183
I0
sg184
VP0DT0H0M3.0333S
p1014
sg39
(dp1015
g41
VnV Mikwen HCS
p1016
sg43
Nssa(dp1017
g38
I723523180
sg39
(dp1018
g41
VnV Mikwen HCS
p1019
sg43
Nssg44
(lp1020
I2758383128
asg32
VWeaponPickup
p1021
sg35
VPT2M29.3587715S
p1022
sa(dp1023
g221
I424645655
sg222
I00
sg223
I00
sg224
(dp1024
g41
VTL Spartan HCS
p1025
sg43
Nssg227
(lp1026
I1327094800
asg229
I00
sg230
I01
sg231
I1
sg232
I0
sg233
I1
sg234
(dp1027
Vy
F15.5611715
sVx
F7.2331909999999997
sVz
F3.5030357799999998
ssg236
(dp1028
Vy
F4.5438549999999998
sVx
F2.67959762
sVz
F3.7001571700000002
ssg238
I00
sg239
(dp1029
g41
VnV RayneHCS
p1030
sg43
Nssg242
(lp1031
sg244
(lp1032
(dp1033
g41
VLiquid Eco
p1034
sg43
Nsasg248
I01
sg35
VPT2M29.9267902S
p1035
sg32
VDeath
p1036
sg251
I1
sa(dp1037
g32
VMedal
p1038
sg39
(dp1039
g41
VTL Spartan HCS
p1040
sg43
Nssg256
I3261908037
sg35
VPT2M29.9277895S
p1041
sa(dp1042
g38
I313138863
sg32
VWeaponDrop
p1043
sg180
I0
sg44
(lp1044
I1095363701
asg35
VPT2M29.9277895S
p1045
sg183
I0
sg184
VP0DT0H0M0.8333S
p1046
sg39
(dp1047
g41
VnV RayneHCS
p1048
sg43
Nssa(dp1049
g38
I4096745987
sg32
VWeaponDrop
p1050
sg180
I2
sg44
(lp1051
I2758383128
asg35
VPT2M29.9277895S
p1052
sg183
I1
sg184
VP0DT0H0M4.9333S
p1053
sg39
(dp1054
g41
VnV RayneHCS
p1055
sg43
Nssa(dp1056
g38
I313138863
sg39
(dp1057
g41
VnV Pistola HCS
p1058
sg43
Nssg44
(lp1059
I1095363701
asg32
VWeaponPickup
p1060
sg35
VPT2M31.0098243S
p1061
sa(dp1062
g38
I4096745987
sg39
(dp1063
g41
VnV Pistola HCS
p1064
sg43
Nssg44
(lp1065
I2758383128
asg32
VWeaponPickup
p1066
sg35
VPT2M31.0108248S
p1067
sa(dp1068
g32
VPlayerSpawn
p1069
sg39
(dp1070
g41
VnV Pistola HCS
p1071
sg43
Nssg35
VPT2M31.0108248S
p1072
sa(dp1073
g38
I723523180
sg32
VWeaponDrop
p1074
sg180
I1
sg44
(lp1075
I2758383128
asg35
VPT2M32.6088741S
p1076
sg183
I1
sg184
VP0DT0H0M3.2500S
p1077
sg39
(dp1078
g41
VnV Mikwen HCS
p1079
sg43
Nssa(dp1080
g38
I723388907
sg39
(dp1081
g41
VnV Mikwen HCS
p1082
sg43
Nssg44
(lp1083
I89283061
asg32
VWeaponPickup
p1084
sg35
VPT2M32.6088741S
p1085
sa(dp1086
g38
I723388907
sg32
VWeaponDrop
p1087
sg180
I0
sg44
(lp1088
I89283061
asg35
VPT2M33.5759066S
p1089
sg183
I0
sg184
VP0DT0H0M0.9667S
p1090
sg39
(dp1091
g41
VnV Mikwen HCS
p1092
sg43
Nssa(dp1093
g38
I723523180
sg39
(dp1094
g41
VnV Mikwen HCS
p1095
sg43
Nssg44
(lp1096
I2758383128
asg32
VWeaponPickup
p1097
sg35
VPT2M33.5759066S
p1098
sa(dp1099
g38
I3484334713
sg32
VWeaponDrop
p1100
sg180
I0
sg44
(lp1101
I2758383128
asg35
VPT2M36.9920139S
p1102
sg183
I0
sg184
VP0DT0H0M11.4000S
p1103
sg39
(dp1104
g41
VTL StelluR
p1105
sg43
Nssa(dp1106
g38
I424645655
sg39
(dp1107
g41
VTL StelluR
p1108
sg43
Nssg44
(lp1109
I1327094800
asg32
VWeaponPickup
p1110
sg35
VPT2M36.9920139S
p1111
sa(dp1112
g38
I313138863
sg39
(dp1113
g41
VnV RayneHCS
p1114
sg43
Nssg44
(lp1115
I1095363701
asg32
VWeaponPickup
p1116
sg35
VPT2M37.9440459S
p1117
sa(dp1118
g38
I4096745987
sg39
(dp1119
g41
VnV RayneHCS
p1120
sg43
Nssg44
(lp1121
I2758383128
asg32
VWeaponPickup
p1122
sg35
VPT2M37.9440459S
p1123
sa(dp1124
g32
VPlayerSpawn
p1125
sg39
(dp1126
g41
VnV RayneHCS
p1127
sg43
Nssg35
VPT2M37.9440459S
p1128
sa(dp1129
g38
I4096745987
sg32
VWeaponDrop
p1130
sg180
I0
sg44
(lp1131
I2758383128
asg35
VPT2M40.3581219S
p1132
sg183
I0
sg184
VP0DT0H0M1.6667S
p1133
sg39
(dp1134
g41
VnV RayneHCS
p1135
sg43
Nssa(dp1136
g38
I2511447508
sg39
(dp1137
g41
VnV RayneHCS
p1138
sg43
Nssg44
(lp1139
I2758383128
asg32
VWeaponPickup
p1140
sg35
VPT2M40.3591234S
p1141
sa(dp1142
g38
I313138863
sg32
VWeaponDrop
p1143
sg180
I0
sg44
(lp1144
I1095363701
asg35
VPT2M41.4751573S
p1145
sg183
I0
sg184
VP0DT0H0M0.7833S
p1146
sg39
(dp1147
g41
VLiquid Eco
p1148
sg43
Nssa(dp1149
g38
I3484334713
sg39
(dp1150
g41
VLiquid Eco
p1151
sg43
Nssg44
(lp1152
I2758383128
asg32
VWeaponPickup
p1153
sg35
VPT2M41.4751573S
p1154
sa(dp1155
g38
I4096745987
sg32
VWeaponDrop
p1156
sg180
I0
sg44
(lp1157
I2758383128
asg35
VPT2M44.758263S
p1158
sg183
I0
sg184
VP0DT0H0M5.0333S
p1159
sg39
(dp1160
g41
VnV Mikwen HCS
p1161
sg43
Nssa(dp1162
g38
I424645655
sg39
(dp1163
g41
VnV Mikwen HCS
p1164
sg43
Nssg44
(lp1165
I1327094800
asg32
VWeaponPickup
p1166
sg35
VPT2M44.7592643S
p1167
sa(dp1168
g221
I723388907
sg222
I00
sg223
I00
sg224
(dp1169
g41
VTL Danoxide
p1170
sg43
Nssg227
(lp1171
I89283061
asg229
I00
sg230
I01
sg231
I1
sg232
I0
sg233
I1
sg234
(dp1172
Vy
F1.01309311
sVx
F14.7352314
sVz
F0.8000853
ssg236
(dp1173
Vy
F0.29986238500000001
sVx
F14.3725624
sVz
F0.80010783699999999
ssg238
I00
sg239
(dp1174
g41
VnV Mikwen HCS
p1175
sg43
Nssg242
(lp1176
sg244
(lp1177
(dp1178
g41
VTL Spartan HCS
p1179
sg43
Nsasg248
I00
sg35
VPT2M52.8255215S
p1180
sg32
VDeath
p1181
sg251
I1
sa(dp1182
g38
I723523180
sg32
VWeaponDrop
p1183
sg180
I1
sg44
(lp1184
I2758383128
asg35
VPT2M52.8275222S
p1185
sg183
I0
sg184
VP0DT0H0M17.4667S
p1186
sg39
(dp1187
g41
VnV Mikwen HCS
p1188
sg43
Nssa(dp1189
g38
I424645655
sg32
VWeaponDrop
p1190
sg180
I0
sg44
(lp1191
I1327094800
asg35
VPT2M52.8275222S
p1192
sg183
I0
sg184
VP0DT0H0M1.5167S
p1193
sg39
(dp1194
g41
VnV Mikwen HCS
p1195
sg43
Nssa(dp1196
g221
I723523180
sg222
I00
sg223
I00
sg224
(dp1197
g41
VnV Mikwen HCS
p1198
sg43
Nssg227
(lp1199
I2758383128
asg229
I00
sg230
I01
sg231
I1
sg232
I0
sg233
I1
sg234
(dp1200
Vy
F0.29986238500000001
sVx
F14.3725624
sVz
F0.80010783699999999
ssg236
(dp1201
Vy
F1.01309311
sVx
F14.7352314
sVz
F0.8000853
ssg238
I00
sg239
(dp1202
g41
VTL Danoxide
p1203
sg43
Nssg242
(lp1204
sg244
(lp1205
sg248
I00
sg35
VPT2M52.8285228S
p1206
sg32
VDeath
p1207
sg251
I1
sa(dp1208
g38
I723388907
sg32
VWeaponDrop
p1209
sg180
I8
sg44
(lp1210
I89283061
asg35
VPT2M52.8295225S
p1211
sg183
I1
sg184
VP0DT0H0M6.7333S
p1212
sg39
(dp1213
g41
VTL Danoxide
p1214
sg43
Nssa(dp1215
g38
I4096745987
sg32
VWeaponDrop
p1216
sg180
I0
sg44
(lp1217
I2758383128
asg35
VPT2M52.8295225S
p1218
sg183
I0
sg184
VP0DT0H0M22.8500S
p1219
sg39
(dp1220
g41
VTL Danoxide
p1221
sg43
Nssa(dp1222
g221
I2511447508
sg222
I00
sg223
I00
sg224
(dp1223
g41
VnV eL ToWn
p1224
sg43
Nssg227
(lp1225
I2758383128
asg229
I00
sg230
I01
sg231
I1
sg232
I0
sg233
I1
sg234
(dp1226
Vy
F12.9434776
sVx
F4.0700326000000002
sVz
F4.479889
ssg236
(dp1227
Vy
F6.1793889999999996
sVx
F16.629865599999999
sVz
F2.3995192099999998
ssg238
I00
sg239
(dp1228
g41
VTL StelluR
p1229
sg43
Nssg242
(lp1230
sg244
(lp1231
(dp1232
g41
VnV RayneHCS
p1233
sg43
Nsasg248
I01
sg35
VPT2M54.5275769S
p1234
sg32
VDeath
p1235
sg251
I1
sa(dp1236
g32
VMedal
p1237
sg39
(dp1238
g41
VnV eL ToWn
p1239
sg43
Nssg256
I3261908037
sg35
VPT2M54.5285772S
p1240
sa(dp1241
g38
I723523180
sg32
VWeaponDrop
p1242
sg180
I0
sg44
(lp1243
I2758383128
asg35
VPT2M54.5295773S
p1244
sg183
I0
sg184
VP0DT0H0M11.2000S
p1245
sg39
(dp1246
g41
VTL StelluR
p1247
sg43
Nssa(dp1248
g38
I424645655
sg32
VWeaponDrop
p1249
sg180
I0
sg44
(lp1250
I1327094800
asg35
VPT2M54.5315774S
p1251
sg183
I0
sg184
VP0DT0H0M11.2167S
p1252
sg39
(dp1253
g41
VTL StelluR
p1254
sg43
Nssa(dp1255
g221
I3484334713
sg222
I00
sg223
I00
sg224
(dp1256
g41
VLiquid Eco
p1257
sg43
Nssg227
(lp1258
I2758383128
asg229
I00
sg230
I01
sg231
I1
sg232
I0
sg233
I1
sg234
(dp1259
Vy
F14.572483999999999
sVx
F0.60593986499999997
sVz
F1.9169769299999999
ssg236
(dp1260
Vy
F14.4659309
sVx
F-0.27361962200000001
sVz
F1.9169769999999999
ssg238
I00
sg239
(dp1261
g41
VnV Pistola HCS
p1262
sg43
Nssg242
(lp1263
sg244
(lp1264
sg248
I00
sg35
VPT2M56.7276477S
p1265
sg32
VDeath
p1266
sg251
I1
sa(dp1267
g38
I313138863
sg32
VWeaponDrop
p1268
sg180
I0
sg44
(lp1269
I1095363701
asg35
VPT2M56.7296476S
p1270
sg183
I0
sg184
VP0DT0H0M1.1333S
p1271
sg39
(dp1272
g41
VnV Pistola HCS
p1273
sg43
Nssa(dp1274
g38
I4096745987
sg32
VWeaponDrop
p1275
sg180
I3
sg44
(lp1276
I2758383128
asg35
VPT2M56.7296476S
p1277
sg183
I1
sg184
VP0DT0H0M24.5833S
p1278
sg39
(dp1279
g41
VnV Pistola HCS
p1280
sg43
Nssa(dp1281
g38
I313138863
sg32
VWeaponDrop
p1282
sg180
I0
sg44
(lp1283
I1095363701
asg35
VPT2M57.2416619S
p1284
sg183
I0
sg184
VP0DT0H0M2.3333S
p1285
sg39
(dp1286
g41
VnV RayneHCS
p1287
sg43
Nssa(dp1288
g38
I723523180
sg39
(dp1289
g41
VnV RayneHCS
p1290
sg43
Nssg44
(lp1291
I2758383128
asg32
VWeaponPickup
p1292
sg35
VPT2M57.2426646S
p1293
sa(dp1294
g38
I313138863
sg39
(dp1295
g41
VnV Mikwen HCS
p1296
sg43
Nssg44
(lp1297
I1095363701
asg32
VWeaponPickup
p1298
sg35
VPT3M0.8437794S
p1299
sa(dp1300
g38
I4096745987
sg39
(dp1301
g41
VnV Mikwen HCS
p1302
sg43
Nssg44
(lp1303
I2758383128
asg32
VWeaponPickup
p1304
sg35
VPT3M0.8437794S
p1305
sa(dp1306
g32
VPlayerSpawn
p1307
sg39
(dp1308
g41
VnV Mikwen HCS
p1309
sg43
Nssg35
VPT3M0.8437794S
p1310
sa(dp1311
g38
I313138863
sg39
(dp1312
g41
VTL Danoxide
p1313
sg43
Nssg44
(lp1314
I1095363701
asg32
VWeaponPickup
p1315
sg35
VPT3M0.877962S
p1316
sa(dp1317
g38
I4096745987
sg39
(dp1318
g41
VTL Danoxide
p1319
sg43
Nssg44
(lp1320
I2758383128
asg32
VWeaponPickup
p1321
sg35
VPT3M0.877962S
p1322
sa(dp1323
g32
VPlayerSpawn
p1324
sg39
(dp1325
g41
VTL Danoxide
p1326
sg43
Nssg35
VPT3M0.8787804S
p1327
sa(dp1328
g38
I2511447508
sg32
VWeaponDrop
p1329
sg180
I17
sg44
(lp1330
I2758383128
asg35
VPT3M1.6418027S
p1331
sg183
I11
sg184
VP0DT0H1M51.4833S
p1332
sg39
(dp1333
g41
VnV eL ToWn
p1334
sg43
Nssa(dp1335
g38
I723523180
sg39
(dp1336
g41
VnV eL ToWn
p1337
sg43
Nssg44
(lp1338
I2758383128
asg32
VWeaponPickup
p1339
sg35
VPT3M1.6418027S
p1340
sa(dp1341
g38
I313138863
sg39
(dp1342
g41
VTL StelluR
p1343
sg43
Nssg44
(lp1344
I1095363701
asg32
VWeaponPickup
p1345
sg35
VPT3M2.5428334S
p1346
sa(dp1347
g38
I4096745987
sg39
(dp1348
g41
VTL StelluR
p1349
sg43
Nssg44
(lp1350
I2758383128
asg32
VWeaponPickup
p1351
sg35
VPT3M2.5438339S
p1352
sa(dp1353
g32
VPlayerSpawn
p1354
sg39
(dp1355
g41
VTL StelluR
p1356
sg43
Nssg35
VPT3M2.5438339S
p1357
sa(dp1358
g221
I723523180
sg222
I00
sg223
I00
sg224
(dp1359
g41
VnV RayneHCS
p1360
sg43
Nssg227
(lp1361
I2758383128
asg229
I00
sg230
I01
sg231
I1
sg232
I0
sg233
I1
sg234
(dp1362
Vy
F7.8791594500000004
sVx
F1.99888062
sVz
F0.0045405030000000004
ssg236
(dp1363
Vy
F12.590719200000001
sVx
F5.8268704400000004
sVz
F2.7000658500000001
ssg238
I00
sg239
(dp1364
g41
VLiquid Eco
p1365
sg43
Nssg242
(lp1366
sg244
(lp1367
sg248
I00
sg35
VPT3M2.9428462S
p1368
sg32
VDeath
p1369
sg251
I1
sa(dp1370
g38
I4096745987
sg32
VWeaponDrop
p1371
sg180
I9
sg44
(lp1372
I2758383128
asg35
VPT3M2.9448464S
p1373
sg183
I5
sg184
VP0DT0H0M13.9833S
p1374
sg39
(dp1375
g41
VLiquid Eco
p1376
sg43
Nssa(dp1377
g38
I3484334713
sg32
VWeaponDrop
p1378
sg180
I1
sg44
(lp1379
I2758383128
asg35
VPT3M2.9468467S
p1380
sg183
I1
sg184
VP0DT0H0M19.9667S
p1381
sg39
(dp1382
g41
VLiquid Eco
p1383
sg43
Nssa(dp1384
g38
I723523180
sg32
VWeaponDrop
p1385
sg180
I1
sg44
(lp1386
I2758383128
asg35
VPT3M4.7089027S
p1387
sg183
I1
sg184
VP0DT0H0M5.9000S
p1388
sg39
(dp1389
g41
VnV RayneHCS
p1390
sg43
Nssa(dp1391
g38
I424645655
sg39
(dp1392
g41
VnV RayneHCS
p1393
sg43
Nssg44
(lp1394
I1327094800
asg32
VWeaponPickup
p1395
sg35
VPT3M4.7089027S
p1396
sa(dp1397
g38
I313138863
sg39
(dp1398
g41
VnV Pistola HCS
p1399
sg43
Nssg44
(lp1400
I1095363701
asg32
VWeaponPickup
p1401
sg35
VPT3M4.742904S
p1402
sa(dp1403
g38
I4096745987
sg39
(dp1404
g41
VnV Pistola HCS
p1405
sg43
Nssg44
(lp1406
I2758383128
asg32
VWeaponPickup
p1407
sg35
VPT3M4.7439045S
p1408
sa(dp1409
g32
VPlayerSpawn
p1410
sg39
(dp1411
g41
VnV Pistola HCS
p1412
sg43
Nssg35
VPT3M4.7439045S
p1413
sa(dp1414
g38
I313138863
sg32
VWeaponDrop
p1415
sg180
I0
sg44
(lp1416
I1095363701
asg35
VPT3M8.2750147S
p1417
sg183
I0
sg184
VP0DT0H0M0.6167S
p1418
sg39
(dp1419
g41
VTL Danoxide
p1420
sg43
Nssa(dp1421
g38
I2015271382
sg39
(dp1422
g41
VTL Danoxide
p1423
sg43
Nssg44
(lp1424
I2758383128
asg32
VWeaponPickup
p1425
sg35
VPT3M8.2750147S
p1426
sa(dp1427
g38
I313138863
sg39
(dp1428
g41
VLiquid Eco
p1429
sg43
Nssg44
(lp1430
I1095363701
asg32
VWeaponPickup
p1431
sg35
VPT3M10.9601031S
p1432
sa(dp1433
g38
I4096745987
sg39
(dp1434
g41
VLiquid Eco
p1435
sg43
Nssg44
(lp1436
I2758383128
asg32
VWeaponPickup
p1437
sg35
VPT3M10.9601031S
p1438
sa(dp1439
g32
VPlayerSpawn
p1440
sg39
(dp1441
g41
VLiquid Eco
p1442
sg43
Nssg35
VPT3M10.961103S
p1443
sa(dp1444
g221
I313138863
sg222
I00
sg223
I00
sg224
(dp1445
g41
VTL StelluR
p1446
sg43
Nssg227
(lp1447
I1095363701
asg229
I00
sg230
I01
sg231
I1
sg232
I0
sg233
I1
sg234
(dp1448
Vy
F-14.386994400000001
sVx
F21.193736999999999
sVz
F2.4815702399999999
ssg236
(dp1449
Vy
F-5.4577330000000002
sVx
F21.988491100000001
sVz
F1.62490475
ssg238
I00
sg239
(dp1450
g41
VnV eL ToWn
p1451
sg43
Nssg242
(lp1452
sg244
(lp1453
(dp1454
g41
VTL Danoxide
p1455
sg43
Nsasg248
I00
sg35
VPT3M12.2931448S
p1456
sg32
VDeath
p1457
sg251
I1
sa(dp1458
g38
I723523180
sg32
VWeaponDrop
p1459
sg180
I2
sg44
(lp1460
I2758383128
asg35
VPT3M12.2951456S
p1461
sg183
I2
sg184
VP0DT0H0M8.9833S
p1462
sg39
(dp1463
g41
VnV eL ToWn
p1464
sg43
Nssa(dp1465
g38
I4096745987
sg32
VWeaponDrop
p1466
sg180
I6
sg44
(lp1467
I2758383128
asg35
VPT3M12.2951456S
p1468
sg183
I4
sg184
VP0DT0H0M20.4667S
p1469
sg39
(dp1470
g41
VnV eL ToWn
p1471
sg43
Nssa(dp1472
g38
I2511447508
sg32
VWeaponDrop
p1473
sg180
I3
sg44
(lp1474
I2758383128
asg35
VPT3M12.8421628S
p1475
sg183
I2
sg184
VP0DT0H0M17.4667S
p1476
sg39
(dp1477
g41
VnV RayneHCS
p1478
sg43
Nssa(dp1479
g38
I3484334713
sg39
(dp1480
g41
VnV RayneHCS
p1481
sg43
Nssg44
(lp1482
I2758383128
asg32
VWeaponPickup
p1483
sg35
VPT3M12.8421628S
p1484
sa(dp1485
g221
I4096745987
sg222
I00
sg223
I00
sg224
(dp1486
g41
VTL Danoxide
p1487
sg43
Nssg227
(lp1488
I2758383128
asg229
I00
sg230
I01
sg231
I1
sg232
I0
sg233
I1
sg234
(dp1489
Vy
F-0.70533120000000005
sVx
F11.2793846
sVz
F2.39467645
ssg236
(dp1490
Vy
F3.7154657800000002
sVx
F20.8254375
sVz
F1.5612323299999999
ssg238
I00
sg239
(dp1491
g41
VnV Pistola HCS
p1492
sg43
Nssg242
(lp1493
sg244
(lp1494
sg248
I01
sg35
VPT3M13.4601825S
p1495
sg32
VDeath
p1496
sg251
I1
sa(dp1497
g32
VMedal
p1498
sg39
(dp1499
g41
VTL Danoxide
p1500
sg43
Nssg256
I3261908037
sg35
VPT3M13.4621827S
p1501
sa(dp1502
g38
I313138863
sg32
VWeaponDrop
p1503
sg180
I0
sg44
(lp1504
I1095363701
asg35
VPT3M13.4631825S
p1505
sg183
I0
sg184
VP0DT0H0M1.0167S
p1506
sg39
(dp1507
g41
VnV Pistola HCS
p1508
sg43
Nssa(dp1509
g38
I4096745987
sg32
VWeaponDrop
p1510
sg180
I3
sg44
(lp1511
I2758383128
asg35
VPT3M13.4631825S
p1512
sg183
I2
sg184
VP0DT0H0M7.7000S
p1513
sg39
(dp1514
g41
VnV Pistola HCS
p1515
sg43
Nssa(dp1516
g221
I4096745987
sg222
I00
sg223
I00
sg224
(dp1517
g41
VnV Pistola HCS
p1518
sg43
Nssg227
(lp1519
I2758383128
asg229
I00
sg230
I01
sg231
I1
sg232
I0
sg233
I1
sg234
(dp1520
Vy
F3.7725033799999999
sVx
F20.844324100000001
sVz
F1.54266393
ssg236
(dp1521
Vy
F-0.67534536099999998
sVx
F11.301978099999999
sVz
F2.39467645
ssg238
I00
sg239
(dp1522
g41
VTL Danoxide
p1523
sg43
Nssg242
(lp1524
sg244
(lp1525
(dp1526
g41
VnV Mikwen HCS
p1527
sg43
Nsasg248
I01
sg35
VPT3M13.477183S
p1528
sg32
VDeath
p1529
sg251
I1
sa(dp1530
g32
VMedal
p1531
sg39
(dp1532
g41
VnV Pistola HCS
p1533
sg43
Nssg256
I3261908037
sg35
VPT3M13.4781832S
p1534
sa(dp1535
g38
I2015271382
sg32
VWeaponDrop
p1536
sg180
I11
sg44
(lp1537
I2758383128
asg35
VPT3M13.4791834S
p1538
sg183
I4
sg184
VP0DT0H0M2.6500S
p1539
sg39
(dp1540
g41
VTL Danoxide
p1541
sg43
Nssa(dp1542
g38
I4096745987
sg32
VWeaponDrop
p1543
sg180
I6
sg44
(lp1544
I2758383128
asg35
VPT3M13.4791834S
p1545
sg183
I5
sg184
VP0DT0H0M9.3333S
p1546
sg39
(dp1547
g41
VTL Danoxide
p1548
sg43
Nssa(dp1549
g38
I313138863
sg32
VWeaponDrop
p1550
sg180
I17
sg44
(lp1551
I1095363701
asg35
VPT3M17.2083007S
p1552
sg183
I6
sg184
VP0DT0H0M3.9167S
p1553
sg39
(dp1554
g41
VTL StelluR
p1555
sg43
Nssa(dp1556
g38
I723523180
sg39
(dp1557
g41
VTL StelluR
p1558
sg43
Nssg44
(lp1559
I2758383128
asg32
VWeaponPickup
p1560
sg35
VPT3M17.2083007S
p1561
sa(dp1562
g221
I424645655
sg222
I00
sg223
I00
sg224
(dp1563
g41
VnV RayneHCS
p1564
sg43
Nssg227
(lp1565
I1327094800
asg229
I00
sg230
I01
sg231
I1
sg232
I0
sg233
I1
sg234
(dp1566
Vy
F13.2957973
sVx
F10.3110094
sVz
F4.05661
ssg236
(dp1567
Vy
F-0.160025269
sVx
F3.1499686200000001
sVz
F3.7001571700000002
ssg238
I00
sg239
(dp1568
g41
VLiquid Eco
p1569
sg43
Nssg242
(lp1570
sg244
(lp1571
(dp1572
g41
VnV Mikwen HCS
p1573
sg43
Nsasg248
I01
sg35
VPT3M18.2603365S
p1574
sg32
VDeath
p1575
sg251
I1
sa(dp1576
g32
VMedal
p1577
sg39
(dp1578
g41
VnV RayneHCS
p1579
sg43
Nssg256
I3261908037
sg35
VPT3M18.2613367S
p1580
sa(dp1581
g38
I313138863
sg32
VWeaponDrop
p1582
sg180
I0
sg44
(lp1583
I1095363701
asg35
VPT3M18.2623367S
p1584
sg183
I0
sg184
VP0DT0H0M0.7833S
p1585
sg39
(dp1586
g41
VLiquid Eco
p1587
sg43
Nssa(dp1588
g38
I4096745987
sg32
VWeaponDrop
p1589
sg180
I5
sg44
(lp1590
I2758383128
asg35
VPT3M18.2623367S
p1591
sg183
I1
sg184
VP0DT0H0M6.5167S
p1592
sg39
(dp1593
g41
VLiquid Eco
p1594
sg43
Nssa(dp1595
g38
I424645655
sg32
VWeaponDrop
p1596
sg180
I9
sg44
(lp1597
I1327094800
asg35
VPT3M20.025392S
p1598
sg183
I2
sg184
VP0DT0H0M14.1167S
p1599
sg39
(dp1600
g41
VnV RayneHCS
p1601
sg43
Nssa(dp1602
g38
I669296699
sg39
(dp1603
g41
VnV RayneHCS
p1604
sg43
Nssg44
(lp1605
I2758383128
asg32
VWeaponPickupPad
p1606
sg35
VPT3M20.025392S
p1607
sa(dp1608
g38
I669296699
sg39
(dp1609
g41
VnV RayneHCS
p1610
sg43
Nssg44
(lp1611
I2758383128
asg32
VWeaponPickup
p1612
sg35
VPT3M20.025392S
p1613
sa(dp1614
g38
I313138863
sg39
(dp1615
g41
VnV eL ToWn
p1616
sg43
Nssg44
(lp1617
I1095363701
asg32
VWeaponPickup
p1618
sg35
VPT3M20.3104019S
p1619
sa(dp1620
g38
I4096745987
sg39
(dp1621
g41
VnV eL ToWn
p1622
sg43
Nssg44
(lp1623
I2758383128
asg32
VWeaponPickup
p1624
sg35
VPT3M20.3104019S
p1625
sa(dp1626
g32
VPlayerSpawn
p1627
sg39
(dp1628
g41
VnV eL ToWn
p1629
sg43
Nssg35
VPT3M20.3104019S
p1630
sa(dp1631
g38
I313138863
sg39
(dp1632
g41
VnV Pistola HCS
p1633
sg43
Nssg44
(lp1634
I1095363701
asg32
VWeaponPickup
p1635
sg35
VPT3M21.4764393S
p1636
sa(dp1637
g38
I4096745987
sg39
(dp1638
g41
VnV Pistola HCS
p1639
sg43
Nssg44
(lp1640
I2758383128
asg32
VWeaponPickup
p1641
sg35
VPT3M21.4774397S
p1642
sa(dp1643
g32
VPlayerSpawn
p1644
sg39
(dp1645
g41
VnV Pistola HCS
p1646
sg43
Nssg35
VPT3M21.4774397S
p1647
sa(dp1648
g38
I313138863
sg39
(dp1649
g41
VTL Danoxide
p1650
sg43
Nssg44
(lp1651
I1095363701
asg32
VWeaponPickup
p1652
sg35
VPT3M21.4934405S
p1653
sa(dp1654
g38
I4096745987
sg39
(dp1655
g41
VTL Danoxide
p1656
sg43
Nssg44
(lp1657
I2758383128
asg32
VWeaponPickup
p1658
sg35
VPT3M21.4934405S
p1659
sa(dp1660
g32
VPlayerSpawn
p1661
sg39
(dp1662
g41
VTL Danoxide
p1663
sg43
Nssg35
VPT3M21.4934405S
p1664
sa(dp1665
g32
VMedal
p1666
sg39
(dp1667
g41
VnV Mikwen HCS
p1668
sg43
Nssg256
I3400287617
sg35
VPT3M23.5085024S
p1669
sa(dp1670
g38
I313138863
sg39
(dp1671
g41
VLiquid Eco
p1672
sg43
Nssg44
(lp1673
I1095363701
asg32
VWeaponPickup
p1674
sg35
VPT3M26.276593S
p1675
sa(dp1676
g38
I4096745987
sg39
(dp1677
g41
VLiquid Eco
p1678
sg43
Nssg44
(lp1679
I2758383128
asg32
VWeaponPickup
p1680
sg35
VPT3M26.2775934S
p1681
sa(dp1682
g32
VPlayerSpawn
p1683
sg39
(dp1684
g41
VLiquid Eco
p1685
sg43
Nssg35
VPT3M26.2775934S
p1686
sa(dp1687
g38
I669296699
sg32
VWeaponDrop
p1688
sg180
I0
sg44
(lp1689
I2758383128
asg35
VPT3M28.5086639S
p1690
sg183
I0
sg184
VP0DT0H0M8.4833S
p1691
sg39
(dp1692
g41
VnV RayneHCS
p1693
sg43
Nssa(dp1694
g38
I2511447508
sg39
(dp1695
g41
VnV RayneHCS
p1696
sg43
Nssg44
(lp1697
I2758383128
asg32
VWeaponPickup
p1698
sg35
VPT3M28.5086639S
p1699
sa(dp1700
g38
I313138863
sg32
VWeaponDrop
p1701
sg180
I0
sg44
(lp1702
I1095363701
asg35
VPT3M29.0586817S
p1703
sg183
I0
sg184
VP0DT0H0M1.8667S
p1704
sg39
(dp1705
g41
VnV Pistola HCS
p1706
sg43
Nssa(dp1707
g38
I723388907
sg39
(dp1708
g41
VnV Pistola HCS
p1709
sg43
Nssg44
(lp1710
I89283061
asg32
VWeaponPickup
p1711
sg35
VPT3M29.0586817S
p1712
sa(dp1713
g38
I313138863
sg32
VWeaponDrop
p1714
sg180
I0
sg44
(lp1715
I1095363701
asg35
VPT3M29.7417016S
p1716
sg183
I0
sg184
VP0DT0H0M3.3667S
p1717
sg39
(dp1718
g41
VnV Mikwen HCS
p1719
sg43
Nssa(dp1720
g38
I669296699
sg39
(dp1721
g41
VnV Mikwen HCS
p1722
sg43
Nssg44
(lp1723
I2758383128
asg32
VWeaponPickup
p1724
sg35
VPT3M29.7417016S
p1725
sa(dp1726
g38
I313138863
sg32
VWeaponDrop
p1727
sg180
I0
sg44
(lp1728
I1095363701
asg35
VPT3M35.1578752S
p1729
sg183
I0
sg184
VP0DT0H0M0.6167S
p1730
sg39
(dp1731
g41
VTL Danoxide
p1732
sg43
Nssa(dp1733
g38
I2015271382
sg39
(dp1734
g41
VTL Danoxide
p1735
sg43
Nssg44
(lp1736
I2758383128
asg32
VWeaponPickup
p1737
sg35
VPT3M35.1588776S
p1738
sa(dp1739
g38
I313138863
sg32
VWeaponDrop
p1740
sg180
I0
sg44
(lp1741
I1095363701
asg35
VPT3M37.0749363S
p1742
sg183
I0
sg184
VP0DT0H0M2.6833S
p1743
sg39
(dp1744
g41
VLiquid Eco
p1745
sg43
Nssa(dp1746
g38
I1579758889
sg39
(dp1747
g41
VLiquid Eco
p1748
sg43
Nssg44
(lp1749
I2758383128
asg32
VWeaponPickup
p1750
sg35
VPT3M37.0749363S
p1751
sa(dp1752
g38
I4096745987
sg32
VWeaponDrop
p1753
sg180
I0
sg44
(lp1754
I2758383128
asg35
VPT3M51.8914104S
p1755
sg183
I0
sg184
VP0DT0H0M10.2667S
p1756
sg39
(dp1757
g41
VLiquid Eco
p1758
sg43
Nssa(dp1759
g38
I2511447508
sg39
(dp1760
g41
VLiquid Eco
p1761
sg43
Nssg44
(lp1762
I2758383128
asg32
VWeaponPickup
p1763
sg35
VPT3M51.8914104S
p1764
sa(dp1765
g221
I669296699
sg222
I00
sg223
I00
sg224
(dp1766
g41
VTL Spartan HCS
p1767
sg43
Nssg227
(lp1768
I2758383128
asg229
I00
sg230
I01
sg231
I1
sg232
I0
sg233
I1
sg234
(dp1769
Vy
F-6.7854256599999996
sVx
F0.52586929999999998
sVz
F0.00452911854
ssg236
(dp1770
Vy
F3.3000323800000002
sVx
F12.9620886
sVz
F3.7640013699999999
ssg238
I00
sg239
(dp1771
g41
VnV Pistola HCS
p1772
sg43
Nssg242
(lp1773
sg244
(lp1774
sg248
I01
sg35
VPT3M56.7435678S
p1775
sg32
VDeath
p1776
sg251
I1
sa(dp1777
g32
VMedal
p1778
sg39
(dp1779
g41
VTL Spartan HCS
p1780
sg43
Nssg256
I848240062
sg35
VPT3M56.7445679S
p1781
sa(dp1782
g38
I723388907
sg32
VWeaponDrop
p1783
sg180
I0
sg44
(lp1784
I89283061
asg35
VPT3M56.7455681S
p1785
sg183
I0
sg184
VP0DT0H0M10.4333S
p1786
sg39
(dp1787
g41
VnV Pistola HCS
p1788
sg43
Nssa(dp1789
g38
I4096745987
sg32
VWeaponDrop
p1790
sg180
I0
sg44
(lp1791
I2758383128
asg35
VPT3M56.7455681S
p1792
sg183
I0
sg184
VP0DT0H0M22.9667S
p1793
sg39
(dp1794
g41
VnV Pistola HCS
p1795
sg43
Nssa(dp1796
g38
I313138863
sg39
(dp1797
g41
VnV Pistola HCS
p1798
sg43
Nssg44
(lp1799
I1095363701
asg32
VWeaponPickup
p1800
sg35
VPT4M4.7598246S
p1801
sa(dp1802
g38
I4096745987
sg39
(dp1803
g41
VnV Pistola HCS
p1804
sg43
Nssg44
(lp1805
I2758383128
asg32
VWeaponPickup
p1806
sg35
VPT4M4.7598246S
p1807
sa(dp1808
g32
VPlayerSpawn
p1809
sg39
(dp1810
g41
VnV Pistola HCS
p1811
sg43
Nssg35
VPT4M4.7598246S
p1812
sa(dp1813
g221
I723523180
sg222
I00
sg223
I00
sg224
(dp1814
g41
VTL StelluR
p1815
sg43
Nssg227
(lp1816
I2758383128
asg229
I00
sg230
I01
sg231
I1
sg232
I0
sg233
I1
sg234
(dp1817
Vy
F1.27464271
sVx
F12.0793772
sVz
F2.2179484399999998
ssg236
(dp1818
Vy
F0.45925510000000003
sVx
F9.9129579999999997
sVz
F2.39467645
ssg238
I00
sg239
(dp1819
g41
VnV Pistola HCS
p1820
sg43
Nssg242
(lp1821
sg244
(lp1822
(dp1823
g41
VTL Spartan HCS
p1824
sg43
Nsasg248
I00
sg35
VPT4M19.0252812S
p1825
sg32
VDeath
p1826
sg251
I1
sa(dp1827
g38
I313138863
sg32
VWeaponDrop
p1828
sg180
I0
sg44
(lp1829
I1095363701
asg35
VPT4M19.0272809S
p1830
sg183
I0
sg184
VP0DT0H0M0.8167S
p1831
sg39
(dp1832
g41
VnV Pistola HCS
p1833
sg43
Nssa(dp1834
g38
I4096745987
sg32
VWeaponDrop
p1835
sg180
I1
sg44
(lp1836
I2758383128
asg35
VPT4M19.0272809S
p1837
sg183
I0
sg184
VP0DT0H0M13.4500S
p1838
sg39
(dp1839
g41
VnV Pistola HCS
p1840
sg43
Nssa(dp1841
g38
I1579758889
sg32
VWeaponDrop
p1842
sg180
I0
sg44
(lp1843
I2758383128
asg35
VPT4M22.341385S
p1844
sg183
I0
sg184
VP0DT0H0M13.1333S
p1845
sg39
(dp1846
g41
VLiquid Eco
p1847
sg43
Nssa(dp1848
g38
I723523180
sg39
(dp1849
g41
VLiquid Eco
p1850
sg43
Nssg44
(lp1851
I2758383128
asg32
VWeaponPickupPad
p1852
sg35
VPT4M22.341385S
p1853
sa(dp1854
g38
I723523180
sg39
(dp1855
g41
VLiquid Eco
p1856
sg43
Nssg44
(lp1857
I2758383128
asg32
VWeaponPickup
p1858
sg35
VPT4M22.341385S
p1859
sa(dp1860
g221
I4096745987
sg222
I00
sg223
I00
sg224
(dp1861
g41
VTL Danoxide
p1862
sg43
Nssg227
(lp1863
I2758383128
asg229
I00
sg230
I01
sg231
I1
sg232
I0
sg233
I1
sg234
(dp1864
Vy
F14.092394799999999
sVx
F16.885580000000001
sVz
F2.1706435700000002
ssg236
(dp1865
Vy
F15.7448158
sVx
F12.9024725
sVz
F2.6999268500000002
ssg238
I00
sg239
(dp1866
g41
VnV RayneHCS
p1867
sg43
Nssg242
(lp1868
sg244
(lp1869
sg248
I01
sg35
VPT4M22.3433867S
p1870
sg32
VDeath
p1871
sg251
I1
sa(dp1872
g32
VMedal
p1873
sg39
(dp1874
g41
VTL Danoxide
p1875
sg43
Nssg256
I2766284219
sg35
VPT4M22.3453871S
p1876
sa(dp1877
g38
I2511447508
sg32
VWeaponDrop
p1878
sg180
I8
sg44
(lp1879
I2758383128
asg35
VPT4M22.346387S
p1880
sg183
I4
sg184
VP0DT0H0M53.8333S
p1881
sg39
(dp1882
g41
VnV RayneHCS
p1883
sg43
Nssa(dp1884
g38
I3484334713
sg32
VWeaponDrop
p1885
sg180
I0
sg44
(lp1886
I2758383128
asg35
VPT4M22.346387S
p1887
sg183
I0
sg184
VP0DT0H0M0.6000S
p1888
sg39
(dp1889
g41
VnV RayneHCS
p1890
sg43
Nssa(dp1891
g221
I4096745987
sg222
I00
sg223
I00
sg224
(dp1892
g41
VTL StelluR
p1893
sg43
Nssg227
(lp1894
I2758383128
asg229
I00
sg230
I01
sg231
I1
sg232
I0
sg233
I1
sg234
(dp1895
Vy
F-2.7982
sVx
F11.5722351
sVz
F-0.20412856300000001
ssg236
(dp1896
Vy
F-10.700307799999999
sVx
F6.3610379999999997
sVz
F0.0045273005999999999
ssg238
I00
sg239
(dp1897
g41
VnV eL ToWn
p1898
sg43
Nssg242
(lp1899
sg244
(lp1900
(dp1901
g41
VTL Spartan HCS
p1902
sg43
Nsasg248
I01
sg35
VPT4M23.1594132S
p1903
sg32
VDeath
p1904
sg251
I1
sa(dp1905
g32
VMedal
p1906
sg39
(dp1907
g41
VTL StelluR
p1908
sg43
Nssg256
I2838259753
sg35
VPT4M23.1594132S
p1909
sa(dp1910
g32
VImpulse
p1911
sg39
(dp1912
g41
VTL StelluR
p1913
sg43
NssVImpulseId
p1914
I2556889090
sg35
VPT4M23.1594132S
p1915
sa(dp1916
g32
VMedal
p1917
sg39
(dp1918
g41
VTL StelluR
p1919
sg43
Nssg256
I3261908037
sg35
VPT4M23.1614138S
p1920
sa(dp1921
g32
VMedal
p1922
sg39
(dp1923
g41
VTL StelluR
p1924
sg43
Nssg256
I2078758684
sg35
VPT4M23.1614138S
p1925
sa(dp1926
g38
I313138863
sg32
VWeaponDrop
p1927
sg180
I11
sg44
(lp1928
I1095363701
asg35
VPT4M23.1624134S
p1929
sg183
I5
sg184
VP0DT0H0M7.1333S
p1930
sg39
(dp1931
g41
VnV eL ToWn
p1932
sg43
Nssa(dp1933
g38
I313138863
sg32
VWeaponDrop
p1934
sg180
I0
sg44
(lp1935
I1095363701
asg35
VPT4M23.1624134S
p1936
sg183
I0
sg184
VP0DT0S
p1937
sg39
(dp1938
g41
VnV eL ToWn
p1939
sg43
Nssa(dp1940
g38
I4096745987
sg32
VWeaponDrop
p1941
sg180
I0
sg44
(lp1942
I2758383128
asg35
VPT4M23.1624134S
p1943
sg183
I0
sg184
VP0DT0H0M55.7167S
p1944
sg39
(dp1945
g41
VnV eL ToWn
p1946
sg43
Nssa(dp1947
g38
I313138863
sg39
(dp1948
g41
VnV Pistola HCS
p1949
sg43
Nssg44
(lp1950
I1095363701
asg32
VWeaponPickup
p1951
sg35
VPT4M27.0425377S
p1952
sa(dp1953
g38
I4096745987
sg39
(dp1954
g41
VnV Pistola HCS
p1955
sg43
Nssg44
(lp1956
I2758383128
asg32
VWeaponPickup
p1957
sg35
VPT4M27.0425377S
p1958
sa(dp1959
g32
VPlayerSpawn
p1960
sg39
(dp1961
g41
VnV Pistola HCS
p1962
sg43
Nssg35
VPT4M27.0435377S
p1963
sa(dp1964
g38
I723523180
sg32
VWeaponDrop
p1965
sg180
I2
sg44
(lp1966
I2758383128
asg35
VPT4M28.6915897S
p1967
sg183
I2
sg184
VP0DT0H0M50.7000S
p1968
sg39
(dp1969
g41
VTL StelluR
p1970
sg43
Nssa(dp1971
g38
I1579758889
sg39
(dp1972
g41
VTL StelluR
p1973
sg43
Nssg44
(lp1974
I2758383128
asg32
VWeaponPickup
p1975
sg35
VPT4M28.6915897S
p1976
sa(dp1977
g38
I313138863
sg39
(dp1978
g41
VnV RayneHCS
p1979
sg43
Nssg44
(lp1980
I1095363701
asg32
VWeaponPickup
p1981
sg35
VPT4M30.3596442S
p1982
sa(dp1983
g38
I4096745987
sg39
(dp1984
g41
VnV RayneHCS
p1985
sg43
Nssg44
(lp1986
I2758383128
asg32
VWeaponPickup
p1987
sg35
VPT4M30.3596442S
p1988
sa(dp1989
g32
VPlayerSpawn
p1990
sg39
(dp1991
g41
VnV RayneHCS
p1992
sg43
Nssg35
VPT4M30.3596442S
p1993
sa(dp1994
g38
I2015271382
sg32
VWeaponDrop
p1995
sg180
I6
sg44
(lp1996
I2758383128
asg35
VPT4M31.1246667S
p1997
sg183
I6
sg184
VP0DT0H0M3.0167S
p1998
sg39
(dp1999
g41
VTL Danoxide
p2000
sg43
Nssa(dp2001
g38
I3484334713
sg39
(dp2002
g41
VTL Danoxide
p2003
sg43
Nssg44
(lp2004
I2758383128
asg32
VWeaponPickup
p2005
sg35
VPT4M31.1246667S
p2006
sa(dp2007
g38
I313138863
sg39
(dp2008
g41
VnV eL ToWn
p2009
sg43
Nssg44
(lp2010
I1095363701
asg32
VWeaponPickup
p2011
sg35
VPT4M31.1756699S
p2012
sa(dp2013
g38
I4096745987
sg39
(dp2014
g41
VnV eL ToWn
p2015
sg43
Nssg44
(lp2016
I2758383128
asg32
VWeaponPickup
p2017
sg35
VPT4M31.1766703S
p2018
sa(dp2019
g32
VPlayerSpawn
p2020
sg39
(dp2021
g41
VnV eL ToWn
p2022
sg43
Nssg35
VPT4M31.1766703S
p2023
sa(dp2024
g221
I669296699
sg222
I00
sg223
I00
sg224
(dp2025
g41
VnV Mikwen HCS
p2026
sg43
Nssg227
(lp2027
I2758383128
asg229
I00
sg230
I01
sg231
I1
sg232
I0
sg233
I1
sg234
(dp2028
Vy
F14.1644144
sVx
F2.3272848100000001
sVz
F3.7000045799999999
ssg236
(dp2029
Vy
F-0.78788659999999999
sVx
F5.4342319999999997
sVz
F3.7001569999999999
ssg238
I00
sg239
(dp2030
g41
VTL Spartan HCS
p2031
sg43
Nssg242
(lp2032
sg244
(lp2033
sg248
I01
sg35
VPT4M31.9426946S
p2034
sg32
VDeath
p2035
sg251
I1
sa(dp2036
g32
VMedal
p2037
sg39
(dp2038
g41
VnV Mikwen HCS
p2039
sg43
Nssg256
I1986137636
sg35
VPT4M31.9436943S
p2040
sa(dp2041
g38
I424645655
sg32
VWeaponDrop
p2042
sg180
I58
sg44
(lp2043
I1327094800
asg35
VPT4M31.9446932S
p2044
sg183
I17
sg184
VP0DT0H0M44.2000S
p2045
sg39
(dp2046
g41
VTL Spartan HCS
p2047
sg43
Nssa(dp2048
g38
I424645655
sg32
VWeaponDrop
p2049
sg180
I0
sg44
(lp2050
I1327094800
asg35
VPT4M31.9446932S
p2051
sg183
I0
sg184
VP0DT0S
p2052
sg39
(dp2053
g41
VTL Spartan HCS
p2054
sg43
Nssa(dp2055
g38
I669296699
sg32
VWeaponDrop
p2056
sg180
I12
sg44
(lp2057
I2758383128
asg35
VPT4M31.9446932S
p2058
sg183
I9
sg184
VP0DT0H3M6.8667S
p2059
sg39
(dp2060
g41
VTL Spartan HCS
p2061
sg43
Nssa(dp2062
g32
VMedal
p2063
sg39
(dp2064
g41
VnV Mikwen HCS
p2065
sg43
Nssg256
I3400287617
sg35
VPT4M35.9918236S
p2066
sa(dp2067
g221
I313138863
sg222
I01
sg223
I00
sg224
(dp2068
g41
VnV Pistola HCS
p2069
sg43
Nssg227
(lp2070
I1095363701
asg229
I00
sg230
I00
sg231
I1
sg232
I0
sg233
I1
sg234
(dp2071
Vy
F19.1100311
sVx
F0.38663888000000002
sVz
F4.1416320000000004
ssg236
(dp2072
Vy
F18.751439999999999
sVx
F0.40328437099999997
sVz
F4.2884044599999998
ssg238
I00
sg239
(dp2073
g41
VTL StelluR
p2074
sg43
Nssg242
(lp2075
sg244
(lp2076
sg248
I00
sg35
VPT4M39.8599467S
p2077
sg32
VDeath
p2078
sg251
I1
sa(dp2079
g32
VMedal
p2080
sg39
(dp2081
g41
VnV Pistola HCS
p2082
sg43
Nssg256
I3270120991
sg35
VPT4M39.8609478S
p2083
sa(dp2084
g38
I1579758889
sg32
VWeaponDrop
p2085
sg180
I2
sg44
(lp2086
I2758383128
asg35
VPT4M39.8631924S
p2087
sg183
I0
sg184
VP0DT0H0M5.3000S
p2088
sg39
(dp2089
g41
VTL StelluR
p2090
sg43
Nssa(dp2091
g38
I4096745987
sg32
VWeaponDrop
p2092
sg180
I2
sg44
(lp2093
I2758383128
asg35
VPT4M39.8631924S
p2094
sg183
I1
sg184
VP0DT0H0M37.4000S
p2095
sg39
(dp2096
g41
VTL StelluR
p2097
sg43
Nssa(dp2098
g38
I313138863
sg39
(dp2099
g41
VTL Spartan HCS
p2100
sg43
Nssg44
(lp2101
I1095363701
asg32
VWeaponPickup
p2102
sg35
VPT4M39.9589511S
p2103
sa(dp2104
g38
I4096745987
sg39
(dp2105
g41
VTL Spartan HCS
p2106
sg43
Nssg44
(lp2107
I2758383128
asg32
VWeaponPickup
p2108
sg35
VPT4M39.959951S
p2109
sa(dp2110
g32
VPlayerSpawn
p2111
sg39
(dp2112
g41
VTL Spartan HCS
p2113
sg43
Nssg35
VPT4M39.959951S
p2114
sa(dp2115
g221
I723523180
sg222
I00
sg223
I00
sg224
(dp2116
g41
VLiquid Eco
p2117
sg43
Nssg227
(lp2118
I2758383128
asg229
I00
sg230
I01
sg231
I1
sg232
I0
sg233
I1
sg234
(dp2119
Vy
F18.093771
sVx
F2.8310957000000001
sVz
F4.3400564199999998
ssg236
(dp2120
Vy
F19.047070000000001
sVx
F0.16069343699999999
sVz
F4.2169914200000003
ssg238
I00
sg239
(dp2121
g41
VnV Pistola HCS
p2122
sg43
Nssg242
(lp2123
sg244
(lp2124
sg248
I00
sg35
VPT4M39.975951S
p2125
sg32
VDeath
p2126
sg251
I1
sa(dp2127
g38
I313138863
sg32
VWeaponDrop
p2128
sg180
I0
sg44
(lp2129
I1095363701
asg35
VPT4M39.9769513S
p2130
sg183
I0
sg184
VP0DT0H0M9.7500S
p2131
sg39
(dp2132
g41
VnV Pistola HCS
p2133
sg43
Nssa(dp2134
g38
I4096745987
sg32
VWeaponDrop
p2135
sg180
I0
sg44
(lp2136
I2758383128
asg35
VPT4M39.9769513S
p2137
sg183
I0
sg184
VP0DT0H0M3.1833S
p2138
sg39
(dp2139
g41
VnV Pistola HCS
p2140
sg43
Nssa(dp2141
g221
I4106030681
sg222
I00
sg223
I00
sg224
(dp2142
g41
VnV RayneHCS
p2143
sg43
Nssg227
(lp2144
sg229
I00
sg230
I00
sg231
I0
sg232
I0
sg233
I0
sg234
(dp2145
Vy
F9.4379015000000006
sVx
F16.455061000000001
sVz
F1.605896
ssg236
(dp2146
Vy
F13.6809177
sVx
F10.6369743
sVz
F4.0565652800000001
ssg238
I00
sg239
(dp2147
g615
g616
ssg242
(lp2148
sg244
(lp2149
sg248
I00
sg35
VPT4M40.6929744S
p2150
sg32
VDeath
p2151
sg251
I1
sa(dp2152
g221
I4106030681
sg222
I00
sg223
I00
sg224
(dp2153
g41
VnV RayneHCS
p2154
sg43
Nssg227
(lp2155
sg229
I00
sg230
I00
sg231
I0
sg232
I0
sg233
I0
sg234
(dp2156
Vy
F9.4379015000000006
sVx
F16.455061000000001
sVz
F1.605896
ssg236
(dp2157
Vy
F13.6809177
sVx
F10.3329773
sVz
F4.0566089999999999
ssg238
I00
sg239
(dp2158
g615
g616
ssg242
(lp2159
sg244
(lp2160
sg248
I00
sg35
VPT4M40.6929744S
p2161
sg32
VDeath
p2162
sg251
I1
sa(dp2163
g221
I4096745987
sg222
I00
sg223
I00
sg224
(dp2164
g41
VnV Mikwen HCS
p2165
sg43
Nssg227
(lp2166
I2758383128
asg229
I00
sg230
I01
sg231
I1
sg232
I0
sg233
I1
sg234
(dp2167
Vy
F7.0601515800000003
sVx
F0.90053839999999996
sVz
F4.1692369999999999
ssg236
(dp2168
Vy
F10.827589
sVx
F0.70148880000000002
sVz
F4.0822396300000001
ssg238
I00
sg239
(dp2169
g41
VTL Danoxide
p2170
sg43
Nssg242
(lp2171
sg244
(lp2172
(dp2173
g41
VnV eL ToWn
p2174
sg43
Nsa(dp2175
g41
VnV RayneHCS
p2176
sg43
Nsasg248
I01
sg35
VPT4M41.2089907S
p2177
sg32
VDeath
p2178
sg251
I1
sa(dp2179
g32
VMedal
p2180
sg39
(dp2181
g41
VnV Mikwen HCS
p2182
sg43
Nssg256
I3261908037
sg35
VPT4M41.2109906S
p2183
sa(dp2184
g38
I3484334713
sg32
VWeaponDrop
p2185
sg180
I1
sg44
(lp2186
I2758383128
asg35
VPT4M41.2119911S
p2187
sg183
I0
sg184
VP0DT0H0M10.0833S
p2188
sg39
(dp2189
g41
VTL Danoxide
p2190
sg43
Nssa(dp2191
g38
I4096745987
sg32
VWeaponDrop
p2192
sg180
I20
sg44
(lp2193
I2758383128
asg35
VPT4M41.2119911S
p2194
sg183
I9
sg184
VP0DT0H1M6.0000S
p2195
sg39
(dp2196
g41
VTL Danoxide
p2197
sg43
Nssa(dp2198
g38
I313138863
sg32
VWeaponDrop
p2199
sg180
I0
sg44
(lp2200
I1095363701
asg35
VPT4M45.6085437S
p2201
sg183
I0
sg184
VP0DT0H0M0.6833S
p2202
sg39
(dp2203
g41
VnV eL ToWn
p2204
sg43
Nssa(dp2205
g38
I3484334713
sg39
(dp2206
g41
VnV eL ToWn
p2207
sg43
Nssg44
(lp2208
I2758383128
asg32
VWeaponPickup
p2209
sg35
VPT4M45.6085437S
p2210
sa(dp2211
g38
I313138863
sg39
(dp2212
g41
VTL StelluR
p2213
sg43
Nssg44
(lp2214
I1095363701
asg32
VWeaponPickup
p2215
sg35
VPT4M47.8762046S
p2216
sa(dp2217
g38
I4096745987
sg39
(dp2218
g41
VTL StelluR
p2219
sg43
Nssg44
(lp2220
I2758383128
asg32
VWeaponPickup
p2221
sg35
VPT4M47.8762046S
p2222
sa(dp2223
g32
VPlayerSpawn
p2224
sg39
(dp2225
g41
VTL StelluR
p2226
sg43
Nssg35
VPT4M47.8762046S
p2227
sa(dp2228
g38
I313138863
sg39
(dp2229
g41
VnV Pistola HCS
p2230
sg43
Nssg44
(lp2231
I1095363701
asg32
VWeaponPickup
p2232
sg35
VPT4M47.9922081S
p2233
sa(dp2234
g38
I4096745987
sg39
(dp2235
g41
VnV Pistola HCS
p2236
sg43
Nssg44
(lp2237
I2758383128
asg32
VWeaponPickup
p2238
sg35
VPT4M47.9935233S
p2239
sa(dp2240
g32
VPlayerSpawn
p2241
sg39
(dp2242
g41
VnV Pistola HCS
p2243
sg43
Nssg35
VPT4M47.9935233S
p2244
sa(dp2245
g38
I313138863
sg32
VWeaponDrop
p2246
sg180
I0
sg44
(lp2247
I1095363701
asg35
VPT4M48.8412335S
p2248
sg183
I0
sg184
VP0DT0H0M0.9000S
p2249
sg39
(dp2250
g41
VnV RayneHCS
p2251
sg43
Nssa(dp2252
g38
I2015271382
sg39
(dp2253
g41
VnV RayneHCS
p2254
sg43
Nssg44
(lp2255
I2758383128
asg32
VWeaponPickup
p2256
sg35
VPT4M48.8412335S
p2257
sa(dp2258
g38
I313138863
sg39
(dp2259
g41
VTL Danoxide
p2260
sg43
Nssg44
(lp2261
I1095363701
asg32
VWeaponPickup
p2262
sg35
VPT4M49.2262477S
p2263
sa(dp2264
g38
I4096745987
sg39
(dp2265
g41
VTL Danoxide
p2266
sg43
Nssg44
(lp2267
I2758383128
asg32
VWeaponPickup
p2268
sg35
VPT4M49.2262477S
p2269
sa(dp2270
g32
VPlayerSpawn
p2271
sg39
(dp2272
g41
VTL Danoxide
p2273
sg43
Nssg35
VPT4M49.2262477S
p2274
sa(dp2275
g221
I2015271382
sg222
I00
sg223
I01
sg224
(dp2276
g41
VnV RayneHCS
p2277
sg43
Nssg227
(lp2278
I2758383128
asg229
I00
sg230
I00
sg231
I1
sg232
I0
sg233
I1
sg234
(dp2279
Vy
F14.6596327
sVx
F16.682037399999999
sVz
F2.3535323099999998
ssg236
(dp2280
Vy
F14.5143147
sVx
F17.015872999999999
sVz
F2.132269
ssg238
I00
sg239
(dp2281
g41
VTL Spartan HCS
p2282
sg43
Nssg242
(lp2283
sg244
(lp2284
sg248
I00
sg35
VPT4M51.4093167S
p2285
sg32
VDeath
p2286
sg251
I1
sa(dp2287
g32
VMedal
p2288
sg39
(dp2289
g41
VnV RayneHCS
p2290
sg43
Nssg256
I250435527
sg35
VPT4M51.4127066S
p2291
sa(dp2292
g38
I313138863
sg32
VWeaponDrop
p2293
sg180
I11
sg44
(lp2294
I1095363701
asg35
VPT4M51.4133177S
p2295
sg183
I6
sg184
VP0DT0H0M5.2833S
p2296
sg39
(dp2297
g41
VTL Spartan HCS
p2298
sg43
Nssa(dp2299
g38
I313138863
sg32
VWeaponDrop
p2300
sg180
I0
sg44
(lp2301
I1095363701
asg35
VPT4M51.4133177S
p2302
sg183
I0
sg184
VP0DT0S
p2303
sg39
(dp2304
g41
VTL Spartan HCS
p2305
sg43
Nssa(dp2306
g38
I4096745987
sg32
VWeaponDrop
p2307
sg180
I0
sg44
(lp2308
I2758383128
asg35
VPT4M51.4133177S
p2309
sg183
I0
sg184
VP0DT0H0M6.1667S
p2310
sg39
(dp2311
g41
VTL Spartan HCS
p2312
sg43
Nssa(dp2313
g221
I4096745987
sg222
I00
sg223
I00
sg224
(dp2314
g41
VTL Danoxide
p2315
sg43
Nssg227
(lp2316
I2758383128
asg229
I00
sg230
I01
sg231
I1
sg232
I0
sg233
I1
sg234
(dp2317
Vy
F-0.123249047
sVx
F23.304523499999998
sVz
F0.80003213900000003
ssg236
(dp2318
Vy
F14.946776399999999
sVx
F16.135616299999999
sVz
F2.6898307799999999
ssg238
I00
sg239
(dp2319
g41
VnV RayneHCS
p2320
sg43
Nssg242
(lp2321
sg244
(lp2322
(dp2323
g41
VTL Spartan HCS
p2324
sg43
Nsasg248
I00
sg35
VPT4M51.8923318S
p2325
sg32
VDeath
p2326
sg251
I1
sa(dp2327
g38
I2015271382
sg32
VWeaponDrop
p2328
sg180
I5
sg44
(lp2329
I2758383128
asg35
VPT4M51.8943326S
p2330
sg183
I5
sg184
VP0DT0H0M1.9667S
p2331
sg39
(dp2332
g41
VnV RayneHCS
p2333
sg43
Nssa(dp2334
g38
I2015271382
sg32
VWeaponDrop
p2335
sg180
I0
sg44
(lp2336
I2758383128
asg35
VPT4M51.8943326S
p2337
sg183
I0
sg184
VP0DT0S
p2338
sg39
(dp2339
g41
VnV RayneHCS
p2340
sg43
Nssa(dp2341
g38
I4096745987
sg32
VWeaponDrop
p2342
sg180
I2
sg44
(lp2343
I2758383128
asg35
VPT4M51.8943326S
p2344
sg183
I1
sg184
VP0DT0H0M18.6667S
p2345
sg39
(dp2346
g41
VnV RayneHCS
p2347
sg43
Nssa(dp2348
g38
I313138863
sg32
VWeaponDrop
p2349
sg180
I0
sg44
(lp2350
I1095363701
asg35
VPT4M55.9744613S
p2351
sg183
I0
sg184
VP0DT0H0M0.5500S
p2352
sg39
(dp2353
g41
VTL Danoxide
p2354
sg43
Nssa(dp2355
g38
I723388907
sg39
(dp2356
g41
VTL Danoxide
p2357
sg43
Nssg44
(lp2358
I89283061
asg32
VWeaponPickup
p2359
sg35
VPT4M55.9744613S
p2360
sa(dp2361
g38
I313138863
sg39
(dp2362
g41
VTL Spartan HCS
p2363
sg43
Nssg44
(lp2364
I1095363701
asg32
VWeaponPickup
p2365
sg35
VPT4M59.4265742S
p2366
sa(dp2367
g38
I4096745987
sg39
(dp2368
g41
VTL Spartan HCS
p2369
sg43
Nssg44
(lp2370
I2758383128
asg32
VWeaponPickup
p2371
sg35
VPT4M59.4275743S
p2372
sa(dp2373
g32
VPlayerSpawn
p2374
sg39
(dp2375
g41
VTL Spartan HCS
p2376
sg43
Nssg35
VPT4M59.4275743S
p2377
sa(dp2378
g38
I313138863
sg39
(dp2379
g41
VnV RayneHCS
p2380
sg43
Nssg44
(lp2381
I1095363701
asg32
VWeaponPickup
p2382
sg35
VPT4M59.9095895S
p2383
sa(dp2384
g38
I4096745987
sg39
(dp2385
g41
VnV RayneHCS
p2386
sg43
Nssg44
(lp2387
I2758383128
asg32
VWeaponPickup
p2388
sg35
VPT4M59.9095895S
p2389
sa(dp2390
g32
VPlayerSpawn
p2391
sg39
(dp2392
g41
VnV RayneHCS
p2393
sg43
Nssg35
VPT4M59.9095895S
p2394
sa(dp2395
g221
I723523180
sg222
I00
sg223
I00
sg224
(dp2396
g41
VLiquid Eco
p2397
sg43
Nssg227
(lp2398
I2758383128
asg229
I00
sg230
I01
sg231
I1
sg232
I0
sg233
I1
sg234
(dp2399
Vy
F19.21677
sVx
F2.7030293900000002
sVz
F4.7042627299999999
ssg236
(dp2400
Vy
F17.88402
sVx
F1.517342
sVz
F3.7050805100000002
ssg238
I00
sg239
(dp2401
g41
VnV eL ToWn
p2402
sg43
Nssg242
(lp2403
sg244
(lp2404
sg248
I00
sg35
VPT5M2.3096661S
p2405
sg32
VDeath
p2406
sg251
I1
sa(dp2407
g38
I3484334713
sg32
VWeaponDrop
p2408
sg180
I1
sg44
(lp2409
I2758383128
asg35
VPT5M2.3106657S
p2410
sg183
I0
sg184
VP0DT0H0M11.9833S
p2411
sg39
(dp2412
g41
VnV eL ToWn
p2413
sg43
Nssa(dp2414
g38
I4096745987
sg32
VWeaponDrop
p2415
sg180
I4
sg44
(lp2416
I2758383128
asg35
VPT5M2.3106657S
p2417
sg183
I3
sg184
VP0DT0H0M18.4667S
p2418
sg39
(dp2419
g41
VnV eL ToWn
p2420
sg43
Nssa(dp2421
g38
I4096745987
sg32
VWeaponDrop
p2422
sg180
I0
sg44
(lp2423
I2758383128
asg35
VPT5M2.8746835S
p2424
sg183
I0
sg184
VP0DT0H0M2.1167S
p2425
sg39
(dp2426
g41
VnV RayneHCS
p2427
sg43
Nssa(dp2428
g38
I424645655
sg39
(dp2429
g41
VnV RayneHCS
p2430
sg43
Nssg44
(lp2431
I1327094800
asg32
VWeaponPickup
p2432
sg35
VPT5M2.8746835S
p2433
sa(dp2434
g221
I723523180
sg222
I00
sg223
I00
sg224
(dp2435
g41
VLiquid Eco
p2436
sg43
Nssg227
(lp2437
I2758383128
asg229
I00
sg230
I00
sg231
I0
sg232
I0
sg233
I1
sg234
(dp2438
Vy
F19.170917500000002
sVx
F0.7967571
sVz
F4.6112130000000002
ssg236
(dp2439
Vy
F15.141304
sVx
F-0.046209130000000001
sVz
F3.8175778399999998
ssg238
I00
sg239
(dp2440
g41
VTL StelluR
p2441
sg43
Nssg242
(lp2442
sg244
(lp2443
sg248
I00
sg35
VPT5M9.0418814S
p2444
sg32
VDeath
p2445
sg251
I1
sa(dp2446
g38
I313138863
sg32
VWeaponDrop
p2447
sg180
I7
sg44
(lp2448
I1095363701
asg35
VPT5M9.0428817S
p2449
sg183
I5
sg184
VP0DT0H0M9.1667S
p2450
sg39
(dp2451
g41
VTL StelluR
p2452
sg43
Nssa(dp2453
g38
I4096745987
sg32
VWeaponDrop
p2454
sg180
I4
sg44
(lp2455
I2758383128
asg35
VPT5M9.0428817S
p2456
sg183
I3
sg184
VP0DT0H0M12.0000S
p2457
sg39
(dp2458
g41
VTL StelluR
p2459
sg43
Nssa(dp2460
g221
I723523180
sg222
I00
sg223
I00
sg224
(dp2461
g41
VLiquid Eco
p2462
sg43
Nssg227
(lp2463
I2758383128
asg229
I00
sg230
I01
sg231
I1
sg232
I0
sg233
I1
sg234
(dp2464
Vy
F19.170917500000002
sVx
F0.7967571
sVz
F4.6112130000000002
ssg236
(dp2465
Vy
F16.503484700000001
sVx
F-0.37908354399999999
sVz
F4.2089860000000003
ssg238
I00
sg239
(dp2466
g41
VnV Pistola HCS
p2467
sg43
Nssg242
(lp2468
sg244
(lp2469
(dp2470
g41
VTL StelluR
p2471
sg43
Nsasg248
I00
sg35
VPT5M9.043882S
p2472
sg32
VDeath
p2473
sg251
I1
sa(dp2474
g38
I313138863
sg32
VWeaponDrop
p2475
sg180
I1
sg44
(lp2476
I1095363701
asg35
VPT5M9.0448816S
p2477
sg183
I0
sg184
VP0DT0H0M2.4500S
p2478
sg39
(dp2479
g41
VnV Pistola HCS
p2480
sg43
Nssa(dp2481
g38
I4096745987
sg32
VWeaponDrop
p2482
sg180
I1
sg44
(lp2483
I2758383128
asg35
VPT5M9.0448816S
p2484
sg183
I0
sg184
VP0DT0H0M18.6000S
p2485
sg39
(dp2486
g41
VnV Pistola HCS
p2487
sg43
Nssa(dp2488
g38
I313138863
sg39
(dp2489
g41
VnV eL ToWn
p2490
sg43
Nssg44
(lp2491
I1095363701
asg32
VWeaponPickup
p2492
sg35
VPT5M10.325923S
p2493
sa(dp2494
g38
I4096745987
sg39
(dp2495
g41
VnV eL ToWn
p2496
sg43
Nssg44
(lp2497
I2758383128
asg32
VWeaponPickup
p2498
sg35
VPT5M10.325923S
p2499
sa(dp2500
g32
VPlayerSpawn
p2501
sg39
(dp2502
g41
VnV eL ToWn
p2503
sg43
Nssg35
VPT5M10.325923S
p2504
sa(dp2505
g38
I313138863
sg39
(dp2506
g41
VTL StelluR
p2507
sg43
Nssg44
(lp2508
I1095363701
asg32
VWeaponPickup
p2509
sg35
VPT5M17.0591384S
p2510
sa(dp2511
g38
I4096745987
sg39
(dp2512
g41
VTL StelluR
p2513
sg43
Nssg44
(lp2514
I2758383128
asg32
VWeaponPickup
p2515
sg35
VPT5M17.0591384S
p2516
sa(dp2517
g32
VPlayerSpawn
p2518
sg39
(dp2519
g41
VTL StelluR
p2520
sg43
Nssg35
VPT5M17.0591384S
p2521
sa(dp2522
g38
I313138863
sg39
(dp2523
g41
VnV Pistola HCS
p2524
sg43
Nssg44
(lp2525
I1095363701
asg32
VWeaponPickup
p2526
sg35
VPT5M17.0921394S
p2527
sa(dp2528
g38
I4096745987
sg39
(dp2529
g41
VnV Pistola HCS
p2530
sg43
Nssg44
(lp2531
I2758383128
asg32
VWeaponPickup
p2532
sg35
VPT5M17.0921394S
p2533
sa(dp2534
g32
VPlayerSpawn
p2535
sg39
(dp2536
g41
VnV Pistola HCS
p2537
sg43
Nssg35
VPT5M17.0921394S
p2538
sa(dp2539
g38
I723523180
sg32
VWeaponDrop
p2540
sg180
I4
sg44
(lp2541
I2758383128
asg35
VPT5M18.3911806S
p2542
sg183
I4
sg184
VP0DT0H0M51.5500S
p2543
sg39
(dp2544
g41
VLiquid Eco
p2545
sg43
Nssa(dp2546
g38
I3484334713
sg39
(dp2547
g41
VLiquid Eco
p2548
sg43
Nssg44
(lp2549
I2758383128
asg32
VWeaponPickup
p2550
sg35
VPT5M18.3911806S
p2551
sa(dp2552
g221
I669296699
sg222
I00
sg223
I00
sg224
(dp2553
g41
VnV Mikwen HCS
p2554
sg43
Nssg227
(lp2555
I2758383128
asg229
I00
sg230
I01
sg231
I1
sg232
I0
sg233
I1
sg234
(dp2556
Vy
F-11.050030700000001
sVx
F8.7304779999999997
sVz
F2.8844406600000001
ssg236
(dp2557
Vy
F-6.7075449999999996
sVx
F19.5506554
sVz
F2.4951782200000001
ssg238
I00
sg239
(dp2558
g41
VTL StelluR
p2559
sg43
Nssg242
(lp2560
sg244
(lp2561
(dp2562
g41
VnV RayneHCS
p2563
sg43
Nsasg248
I01
sg35
VPT5M24.2253669S
p2564
sg32
VDeath
p2565
sg251
I1
sa(dp2566
g32
VMedal
p2567
sg39
(dp2568
g41
VnV Mikwen HCS
p2569
sg43
Nssg256
I848240062
sg35
VPT5M24.2263676S
p2570
sa(dp2571
g38
I313138863
sg32
VWeaponDrop
p2572
sg180
I0
sg44
(lp2573
I1095363701
asg35
VPT5M24.227367S
p2574
sg183
I0
sg184
VP0DT0H0M0.6167S
p2575
sg39
(dp2576
g41
VTL StelluR
p2577
sg43
Nssa(dp2578
g38
I4096745987
sg32
VWeaponDrop
p2579
sg180
I0
sg44
(lp2580
I2758383128
asg35
VPT5M24.227367S
p2581
sg183
I0
sg184
VP0DT0H0M6.5500S
p2582
sg39
(dp2583
g41
VTL StelluR
p2584
sg43
Nssa(dp2585
g38
I4096745987
sg32
VWeaponDrop
p2586
sg180
I0
sg44
(lp2587
I2758383128
asg35
VPT5M30.4575656S
p2588
sg183
I0
sg184
VP0DT0H0M9.6000S
p2589
sg39
(dp2590
g41
VnV Pistola HCS
p2591
sg43
Nssa(dp2592
g38
I2511447508
sg39
(dp2593
g41
VnV Pistola HCS
p2594
sg43
Nssg44
(lp2595
I2758383128
asg32
VWeaponPickup
p2596
sg35
VPT5M30.4575656S
p2597
sa(dp2598
g221
I723388907
sg222
I00
sg223
I00
sg224
(dp2599
g41
VTL Danoxide
p2600
sg43
Nssg227
(lp2601
I89283061
asg229
I00
sg230
I01
sg231
I1
sg232
I0
sg233
I1
sg234
(dp2602
Vy
F-12.3605623
sVx
F9.9805240000000008
sVz
F2.5284807699999998
ssg236
(dp2603
Vy
F-12.5343266
sVx
F6.3257036199999996
sVz
F2.7374299999999998
ssg238
I00
sg239
(dp2604
g41
VnV Mikwen HCS
p2605
sg43
Nssg242
(lp2606
sg244
(lp2607
sg248
I00
sg35
VPT5M30.6425725S
p2608
sg32
VDeath
p2609
sg251
I1
sa(dp2610
g32
VMedal
p2611
sg39
(dp2612
g41
VTL Danoxide
p2613
sg43
Nssg256
I3698887726
sg35
VPT5M30.6425725S
p2614
sa(dp2615
g38
I669296699
sg32
VWeaponDrop
p2616
sg180
I7
sg44
(lp2617
I2758383128
asg35
VPT5M30.6445723S
p2618
sg183
I3
sg184
VP0DT0H1M53.9000S
p2619
sg39
(dp2620
g41
VnV Mikwen HCS
p2621
sg43
Nssa(dp2622
g38
I4096745987
sg32
VWeaponDrop
p2623
sg180
I15
sg44
(lp2624
I2758383128
asg35
VPT5M30.6455733S
p2625
sg183
I7
sg184
VP0DT0H0M32.5333S
p2626
sg39
(dp2627
g41
VnV Mikwen HCS
p2628
sg43
Nssa(dp2629
g221
I424645655
sg222
I00
sg223
I00
sg224
(dp2630
g41
VnV RayneHCS
p2631
sg43
Nssg227
(lp2632
I1327094800
asg229
I00
sg230
I01
sg231
I1
sg232
I0
sg233
I1
sg234
(dp2633
Vy
F-3.3000310000000002
sVx
F-0.32869628099999998
sVz
F3.0956547300000001
ssg236
(dp2634
Vy
F-13.939966200000001
sVx
F9.8791150000000005
sVz
F2.2062072800000001
ssg238
I00
sg239
(dp2635
g41
VTL Danoxide
p2636
sg43
Nssg242
(lp2637
sg244
(lp2638
(dp2639
g41
VnV Mikwen HCS
p2640
sg43
Nsasg248
I01
sg35
VPT5M31.4755991S
p2641
sg32
VDeath
p2642
sg251
I1
sa(dp2643
g32
VMedal
p2644
sg39
(dp2645
g41
VnV RayneHCS
p2646
sg43
Nssg256
I3261908037
sg35
VPT5M31.4765996S
p2647
sa(dp2648
g38
I723388907
sg32
VWeaponDrop
p2649
sg180
I30
sg44
(lp2650
I89283061
asg35
VPT5M31.4775991S
p2651
sg183
I15
sg184
VP0DT0H0M13.4167S
p2652
sg39
(dp2653
g41
VTL Danoxide
p2654
sg43
Nssa(dp2655
g38
I4096745987
sg32
VWeaponDrop
p2656
sg180
I15
sg44
(lp2657
I2758383128
asg35
VPT5M31.4775991S
p2658
sg183
I3
sg184
VP0DT0H0M28.2833S
p2659
sg39
(dp2660
g41
VTL Danoxide
p2661
sg43
Nssa(dp2662
g38
I313138863
sg39
(dp2663
g41
VTL StelluR
p2664
sg43
Nssg44
(lp2665
I1095363701
asg32
VWeaponPickup
p2666
sg35
VPT5M32.2426246S
p2667
sa(dp2668
g38
I4096745987
sg39
(dp2669
g41
VTL StelluR
p2670
sg43
Nssg44
(lp2671
I2758383128
asg32
VWeaponPickup
p2672
sg35
VPT5M32.2426246S
p2673
sa(dp2674
g32
VPlayerSpawn
p2675
sg39
(dp2676
g41
VTL StelluR
p2677
sg43
Nssg35
VPT5M32.2426246S
p2678
sa(dp2679
g38
I2511447508
sg32
VWeaponDrop
p2680
sg180
I3
sg44
(lp2681
I2758383128
asg35
VPT5M35.5407272S
p2682
sg183
I1
sg184
VP0DT0H0M36.6500S
p2683
sg39
(dp2684
g41
VLiquid Eco
p2685
sg43
Nssa(dp2686
g38
I424645655
sg39
(dp2687
g41
VLiquid Eco
p2688
sg43
Nssg44
(lp2689
I1327094800
asg32
VWeaponPickup
p2690
sg35
VPT5M35.5407272S
p2691
sa(dp2692
g38
I313138863
sg39
(dp2693
g41
VnV Mikwen HCS
p2694
sg43
Nssg44
(lp2695
I1095363701
asg32
VWeaponPickup
p2696
sg35
VPT5M38.6588295S
p2697
sa(dp2698
g38
I4096745987
sg39
(dp2699
g41
VnV Mikwen HCS
p2700
sg43
Nssg44
(lp2701
I2758383128
asg32
VWeaponPickup
p2702
sg35
VPT5M38.6588295S
p2703
sa(dp2704
g32
VPlayerSpawn
p2705
sg39
(dp2706
g41
VnV Mikwen HCS
p2707
sg43
Nssg35
VPT5M38.6598295S
p2708
sa(dp2709
g38
I313138863
sg39
(dp2710
g41
VTL Danoxide
p2711
sg43
Nssg44
(lp2712
I1095363701
asg32
VWeaponPickup
p2713
sg35
VPT5M39.4928564S
p2714
sa(dp2715
g38
I4096745987
sg39
(dp2716
g41
VTL Danoxide
p2717
sg43
Nssg44
(lp2718
I2758383128
asg32
VWeaponPickup
p2719
sg35
VPT5M39.4928564S
p2720
sa(dp2721
g32
VPlayerSpawn
p2722
sg39
(dp2723
g41
VTL Danoxide
p2724
sg43
Nssg35
VPT5M39.4928564S
p2725
sa(dp2726
g38
I313138863
sg32
VWeaponDrop
p2727
sg180
I0
sg44
(lp2728
I1095363701
asg35
VPT5M48.9401559S
p2729
sg183
I0
sg184
VP0DT0H0M1.3500S
p2730
sg39
(dp2731
g41
VTL StelluR
p2732
sg43
Nssa(dp2733
g38
I723388907
sg39
(dp2734
g41
VTL StelluR
p2735
sg43
Nssg44
(lp2736
I89283061
asg32
VWeaponPickup
p2737
sg35
VPT5M48.9411629S
p2738
sa(dp2739
g38
I313138863
sg32
VWeaponDrop
p2740
sg180
I0
sg44
(lp2741
I1095363701
asg35
VPT5M48.9741586S
p2742
sg183
I0
sg184
VP0DT0H0M1.8333S
p2743
sg39
(dp2744
g41
VnV Mikwen HCS
p2745
sg43
Nssa(dp2746
g38
I723388907
sg39
(dp2747
g41
VnV Mikwen HCS
p2748
sg43
Nssg44
(lp2749
I89283061
asg32
VWeaponPickup
p2750
sg35
VPT5M48.9741586S
p2751
sa(dp2752
g38
I723388907
sg32
VWeaponDrop
p2753
sg180
I0
sg44
(lp2754
I89283061
asg35
VPT5M51.25723S
p2755
sg183
I0
sg184
VP0DT0H0M2.2833S
p2756
sg39
(dp2757
g41
VnV Mikwen HCS
p2758
sg43
Nssa(dp2759
g38
I669296699
sg39
(dp2760
g41
VnV Mikwen HCS
p2761
sg43
Nssg44
(lp2762
I2758383128
asg32
VWeaponPickup
p2763
sg35
VPT5M51.25723S
p2764
sa(dp2765
g221
I2511447508
sg222
I00
sg223
I00
sg224
(dp2766
g41
VnV Pistola HCS
p2767
sg43
Nssg227
(lp2768
I2758383128
asg229
I00
sg230
I01
sg231
I1
sg232
I0
sg233
I1
sg234
(dp2769
Vy
F-16.281637199999999
sVx
F17.46669
sVz
F1.6009580000000001
ssg236
(dp2770
Vy
F-5.15072346
sVx
F21.746494299999998
sVz
F2.5534315099999998
ssg238
I00
sg239
(dp2771
g41
VTL Spartan HCS
p2772
sg43
Nssg242
(lp2773
sg244
(lp2774
(dp2775
g41
VnV Mikwen HCS
p2776
sg43
Nsasg248
I00
sg35
VPT5M59.9415099S
p2777
sg32
VDeath
p2778
sg251
I1
sa(dp2779
g32
VMedal
p2780
sg39
(dp2781
g41
VnV Pistola HCS
p2782
sg43
Nssg256
I2838259753
sg35
VPT5M59.9415099S
p2783
sa(dp2784
g32
VImpulse
p2785
sg39
(dp2786
g41
VnV Pistola HCS
p2787
sg43
Nssg1914
I2556889090
sg35
VPT5M59.9415099S
p2788
sa(dp2789
g38
I313138863
sg32
VWeaponDrop
p2790
sg180
I0
sg44
(lp2791
I1095363701
asg35
VPT5M59.9435099S
p2792
sg183
I0
sg184
VP0DT0H0M1.4833S
p2793
sg39
(dp2794
g41
VTL Spartan HCS
p2795
sg43
Nssa(dp2796
g38
I4096745987
sg32
VWeaponDrop
p2797
sg180
I11
sg44
(lp2798
I2758383128
asg35
VPT5M59.9435099S
p2799
sg183
I8
sg184
VP0DT0H0M59.0333S
p2800
sg39
(dp2801
g41
VTL Spartan HCS
p2802
sg43
Nssa(dp2803
g38
I313138863
sg39
(dp2804
g41
VTL Spartan HCS
p2805
sg43
Nssg44
(lp2806
I1095363701
asg32
VWeaponPickup
p2807
sg35
VPT6M7.9587977S
p2808
sa(dp2809
g38
I4096745987
sg39
(dp2810
g41
VTL Spartan HCS
p2811
sg43
Nssg44
(lp2812
I2758383128
asg32
VWeaponPickup
p2813
sg35
VPT6M7.9587977S
p2814
sa(dp2815
g32
VPlayerSpawn
p2816
sg39
(dp2817
g41
VTL Spartan HCS
p2818
sg43
Nssg35
VPT6M7.9587977S
p2819
sa(dp2820
g221
I2511447508
sg222
I00
sg223
I00
sg224
(dp2821
g41
VnV Pistola HCS
p2822
sg43
Nssg227
(lp2823
I2758383128
asg229
I00
sg230
I01
sg231
I1
sg232
I0
sg233
I1
sg234
(dp2824
Vy
F-2.8005483199999999
sVx
F19.950281100000002
sVz
F0.9214772
ssg236
(dp2825
Vy
F0.52032625700000001
sVx
F12.246413199999999
sVz
F2.0181705999999999
ssg238
I00
sg239
(dp2826
g41
VTL Danoxide
p2827
sg43
Nssg242
(lp2828
sg244
(lp2829
(dp2830
g41
VnV eL ToWn
p2831
sg43
Nsasg248
I01
sg35
VPT6M14.8410608S
p2832
sg32
VDeath
p2833
sg251
I1
sa(dp2834
g32
VMedal
p2835
sg39
(dp2836
g41
VnV Pistola HCS
p2837
sg43
Nssg256
I2838259753
sg35
VPT6M14.8420737S
p2838
sa(dp2839
g32
VImpulse
p2840
sg39
(dp2841
g41
VnV Pistola HCS
p2842
sg43
Nssg1914
I2556889090
sg35
VPT6M14.8420737S
p2843
sa(dp2844
g32
VMedal
p2845
sg39
(dp2846
g41
VnV Pistola HCS
p2847
sg43
Nssg256
I3261908037
sg35
VPT6M14.8430613S
p2848
sa(dp2849
g38
I313138863
sg32
VWeaponDrop
p2850
sg180
I18
sg44
(lp2851
I1095363701
asg35
VPT6M14.8440618S
p2852
sg183
I9
sg184
VP0DT0H0M7.5333S
p2853
sg39
(dp2854
g41
VTL Danoxide
p2855
sg43
Nssa(dp2856
g38
I4096745987
sg32
VWeaponDrop
p2857
sg180
I0
sg44
(lp2858
I2758383128
asg35
VPT6M14.8440618S
p2859
sg183
I0
sg184
VP0DT0H0M27.8167S
p2860
sg39
(dp2861
g41
VTL Danoxide
p2862
sg43
Nssa(dp2863
g221
I4096745987
sg222
I00
sg223
I00
sg224
(dp2864
g41
VnV Mikwen HCS
p2865
sg43
Nssg227
(lp2866
I2758383128
asg229
I00
sg230
I01
sg231
I1
sg232
I0
sg233
I1
sg234
(dp2867
Vy
F-5.1250405299999997
sVx
F23.7999115
sVz
F1.61861908
ssg236
(dp2868
Vy
F1.3642169200000001
sVx
F15.7440491
sVz
F1.2384369399999999
ssg238
I00
sg239
(dp2869
g41
VTL StelluR
p2870
sg43
Nssg242
(lp2871
sg244
(lp2872
(dp2873
g41
VnV Pistola HCS
p2874
sg43
Nsa(dp2875
g41
VnV RayneHCS
p2876
sg43
Nsasg248
I01
sg35
VPT6M17.9921828S
p2877
sg32
VDeath
p2878
sg251
I1
sa(dp2879
g32
VMedal
p2880
sg39
(dp2881
g41
VnV Mikwen HCS
p2882
sg43
Nssg256
I2838259753
sg35
VPT6M17.9921828S
p2883
sa(dp2884
g32
VImpulse
p2885
sg39
(dp2886
g41
VnV Mikwen HCS
p2887
sg43
Nssg1914
I2556889090
sg35
VPT6M17.9921828S
p2888
sa(dp2889
g32
VMedal
p2890
sg39
(dp2891
g41
VnV Mikwen HCS
p2892
sg43
Nssg256
I3261908037
sg35
VPT6M17.9931828S
p2893
sa(dp2894
g38
I723388907
sg32
VWeaponDrop
p2895
sg180
I22
sg44
(lp2896
I89283061
asg35
VPT6M17.9941829S
p2897
sg183
I13
sg184
VP0DT0H0M2.7000S
p2898
sg39
(dp2899
g41
VTL StelluR
p2900
sg43
Nssa(dp2901
g38
I4096745987
sg32
VWeaponDrop
p2902
sg180
I10
sg44
(lp2903
I2758383128
asg35
VPT6M17.9941829S
p2904
sg183
I5
sg184
VP0DT0H0M41.7000S
p2905
sg39
(dp2906
g41
VTL StelluR
p2907
sg43
Nssa(dp2908
g221
I3484334713
sg222
I01
sg223
I00
sg224
(dp2909
g41
VLiquid Eco
p2910
sg43
Nssg227
(lp2911
I2758383128
asg229
I00
sg230
I00
sg231
I1
sg232
I0
sg233
I1
sg234
(dp2912
Vy
F0.11903377599999999
sVx
F14.3572674
sVz
F0.77455079999999998
ssg236
(dp2913
Vy
F0.29494959999999998
sVx
F14.664854999999999
sVz
F0.80008970000000001
ssg238
I00
sg239
(dp2914
g41
VnV Pistola HCS
p2915
sg43
Nssg242
(lp2916
sg244
(lp2917
(dp2918
g41
VTL StelluR
p2919
sg43
Nsasg248
I00
sg35
VPT6M18.7082099S
p2920
sg32
VDeath
p2921
sg251
I1
sa(dp2922
g32
VMedal
p2923
sg39
(dp2924
g41
VLiquid Eco
p2925
sg43
Nssg256
I3270120991
sg35
VPT6M18.7092101S
p2926
sa(dp2927
g38
I2511447508
sg32
VWeaponDrop
p2928
sg180
I8
sg44
(lp2929
I2758383128
asg35
VPT6M18.7102097S
p2930
sg183
I4
sg184
VP0DT0H0M43.6667S
p2931
sg39
(dp2932
g41
VnV Pistola HCS
p2933
sg43
Nssa(dp2934
g38
I313138863
sg32
VWeaponDrop
p2935
sg180
I0
sg44
(lp2936
I1095363701
asg35
VPT6M18.7112104S
p2937
sg183
I0
sg184
VP0DT0H0M8.3500S
p2938
sg39
(dp2939
g41
VnV Pistola HCS
p2940
sg43
Nssa(dp2941
g38
I313138863
sg32
VWeaponDrop
p2942
sg180
I0
sg44
(lp2943
I1095363701
asg35
VPT6M18.9732183S
p2944
sg183
I0
sg184
VP0DT0H0M6.5833S
p2945
sg39
(dp2946
g41
VTL Spartan HCS
p2947
sg43
Nssa(dp2948
g38
I669296699
sg39
(dp2949
g41
VTL Spartan HCS
p2950
sg43
Nssg44
(lp2951
I2758383128
asg32
VWeaponPickupPad
p2952
sg35
VPT6M18.9742204S
p2953
sa(dp2954
g38
I669296699
sg39
(dp2955
g41
VTL Spartan HCS
p2956
sg43
Nssg44
(lp2957
I2758383128
asg32
VWeaponPickup
p2958
sg35
VPT6M18.9742204S
p2959
sa(dp2960
g221
I4096745987
sg222
I00
sg223
I00
sg224
(dp2961
g41
VnV eL ToWn
p2962
sg43
Nssg227
(lp2963
I2758383128
asg229
I00
sg230
I01
sg231
I1
sg232
I0
sg233
I1
sg234
(dp2964
Vy
F-2.8108029999999999
sVx
F16.322372399999999
sVz
F0.80000305199999999
ssg236
(dp2965
Vy
F1.40629625
sVx
F16.253746
sVz
F0.80000300000000002
ssg238
I00
sg239
(dp2966
g41
VLiquid Eco
p2967
sg43
Nssg242
(lp2968
sg244
(lp2969
(dp2970
g41
VnV Mikwen HCS
p2971
sg43
Nsasg248
I00
sg35
VPT6M20.1082573S
p2972
sg32
VDeath
p2973
sg251
I1
sa(dp2974
g32
VMedal
p2975
sg39
(dp2976
g41
VnV RayneHCS
p2977
sg43
Nssg256
I824733727
sg35
VPT6M20.1082573S
p2978
sa(dp2979
g38
I3484334713
sg32
VWeaponDrop
p2980
sg180
I1
sg44
(lp2981
I2758383128
asg35
VPT6M20.1102576S
p2982
sg183
I1
sg184
VP0DT0H0M19.9500S
p2983
sg39
(dp2984
g41
VLiquid Eco
p2985
sg43
Nssa(dp2986
g38
I3484334713
sg32
VWeaponDrop
p2987
sg180
I0
sg44
(lp2988
I2758383128
asg35
VPT6M20.1102576S
p2989
sg183
I0
sg184
VP0DT0S
p2990
sg39
(dp2991
g41
VLiquid Eco
p2992
sg43
Nssa(dp2993
g38
I424645655
sg32
VWeaponDrop
p2994
sg180
I3
sg44
(lp2995
I1327094800
asg35
VPT6M20.1102576S
p2996
sg183
I3
sg184
VP0DT0H0M39.6000S
p2997
sg39
(dp2998
g41
VLiquid Eco
p2999
sg43
Nssa(dp3000
g38
I313138863
sg32
VWeaponDrop
p3001
sg180
I29
sg44
(lp3002
I1095363701
asg35
VPT6M22.2573258S
p3003
sg183
I14
sg184
VP0DT0H0M8.0333S
p3004
sg39
(dp3005
g41
VnV eL ToWn
p3006
sg43
Nssa(dp3007
g38
I723523180
sg39
(dp3008
g41
VnV eL ToWn
p3009
sg43
Nssg44
(lp3010
I2758383128
asg32
VWeaponPickupPad
p3011
sg35
VPT6M22.2573258S
p3012
sa(dp3013
g38
I723523180
sg39
(dp3014
g41
VnV eL ToWn
p3015
sg43
Nssg44
(lp3016
I2758383128
asg32
VWeaponPickup
p3017
sg35
VPT6M22.2573258S
p3018
sa(dp3019
g38
I313138863
sg39
(dp3020
g41
VTL Danoxide
p3021
sg43
Nssg44
(lp3022
I1095363701
asg32
VWeaponPickup
p3023
sg35
VPT6M22.858346S
p3024
sa(dp3025
g38
I4096745987
sg39
(dp3026
g41
VTL Danoxide
p3027
sg43
Nssg44
(lp3028
I2758383128
asg32
VWeaponPickup
p3029
sg35
VPT6M22.858346S
p3030
sa(dp3031
g32
VPlayerSpawn
p3032
sg39
(dp3033
g41
VTL Danoxide
p3034
sg43
Nssg35
VPT6M22.858346S
p3035
sa(dp3036
g38
I313138863
sg32
VWeaponDrop
p3037
sg180
I11
sg44
(lp3038
I1095363701
asg35
VPT6M23.4233621S
p3039
sg183
I2
sg184
VP0DT0H0M6.8167S
p3040
sg39
(dp3041
g41
VnV RayneHCS
p3042
sg43
Nssa(dp3043
g38
I3484334713
sg39
(dp3044
g41
VnV RayneHCS
p3045
sg43
Nssg44
(lp3046
I2758383128
asg32
VWeaponPickup
p3047
sg35
VPT6M23.4243646S
p3048
sa(dp3049
g38
I313138863
sg39
(dp3050
g41
VTL StelluR
p3051
sg43
Nssg44
(lp3052
I1095363701
asg32
VWeaponPickup
p3053
sg35
VPT6M26.009447S
p3054
sa(dp3055
g38
I4096745987
sg39
(dp3056
g41
VTL StelluR
p3057
sg43
Nssg44
(lp3058
I2758383128
asg32
VWeaponPickup
p3059
sg35
VPT6M26.009447S
p3060
sa(dp3061
g32
VPlayerSpawn
p3062
sg39
(dp3063
g41
VTL StelluR
p3064
sg43
Nssg35
VPT6M26.009447S
p3065
sa(dp3066
g38
I313138863
sg39
(dp3067
g41
VnV Pistola HCS
p3068
sg43
Nssg44
(lp3069
I1095363701
asg32
VWeaponPickup
p3070
sg35
VPT6M26.7254703S
p3071
sa(dp3072
g38
I4096745987
sg39
(dp3073
g41
VnV Pistola HCS
p3074
sg43
Nssg44
(lp3075
I2758383128
asg32
VWeaponPickup
p3076
sg35
VPT6M26.7254703S
p3077
sa(dp3078
g32
VPlayerSpawn
p3079
sg39
(dp3080
g41
VnV Pistola HCS
p3081
sg43
Nssg35
VPT6M26.7254703S
p3082
sa(dp3083
g38
I313138863
sg32
VWeaponDrop
p3084
sg180
I0
sg44
(lp3085
I1095363701
asg35
VPT6M27.0234776S
p3086
sg183
I0
sg184
VP0DT0H0M0.4500S
p3087
sg39
(dp3088
g41
VTL StelluR
p3089
sg43
Nssa(dp3090
g38
I424645655
sg39
(dp3091
g41
VTL StelluR
p3092
sg43
Nssg44
(lp3093
I1327094800
asg32
VWeaponPickup
p3094
sg35
VPT6M27.0234776S
p3095
sa(dp3096
g38
I313138863
sg39
(dp3097
g41
VLiquid Eco
p3098
sg43
Nssg44
(lp3099
I1095363701
asg32
VWeaponPickup
p3100
sg35
VPT6M28.1255138S
p3101
sa(dp3102
g38
I4096745987
sg39
(dp3103
g41
VLiquid Eco
p3104
sg43
Nssg44
(lp3105
I2758383128
asg32
VWeaponPickup
p3106
sg35
VPT6M28.1255138S
p3107
sa(dp3108
g32
VPlayerSpawn
p3109
sg39
(dp3110
g41
VLiquid Eco
p3111
sg43
Nssg35
VPT6M28.1255138S
p3112
sa(dp3113
g38
I313138863
sg32
VWeaponDrop
p3114
sg180
I0
sg44
(lp3115
I1095363701
asg35
VPT6M40.5899114S
p3116
sg183
I0
sg184
VP0DT0H0M1.8333S
p3117
sg39
(dp3118
g41
VnV Pistola HCS
p3119
sg43
Nssa(dp3120
g38
I1579758889
sg39
(dp3121
g41
VnV Pistola HCS
p3122
sg43
Nssg44
(lp3123
I2758383128
asg32
VWeaponPickup
p3124
sg35
VPT6M40.5899114S
p3125
sa(dp3126
g38
I669296699
sg32
VWeaponDrop
p3127
sg180
I5
sg44
(lp3128
I2758383128
asg35
VPT6M43.03999S
p3129
sg183
I2
sg184
VP0DT0H0M27.7667S
p3130
sg39
(dp3131
g41
VnV Mikwen HCS
p3132
sg43
Nssa(dp3133
g38
I723388907
sg39
(dp3134
g41
VnV Mikwen HCS
p3135
sg43
Nssg44
(lp3136
I89283061
asg32
VWeaponPickup
p3137
sg35
VPT6M43.03999S
p3138
sa(dp3139
g38
I4096745987
sg32
VWeaponDrop
p3140
sg180
I7
sg44
(lp3141
I2758383128
asg35
VPT6M46.8731122S
p3142
sg183
I3
sg184
VP0DT0H0M34.5000S
p3143
sg39
(dp3144
g41
VnV Mikwen HCS
p3145
sg43
Nssa(dp3146
g38
I2511447508
sg39
(dp3147
g41
VnV Mikwen HCS
p3148
sg43
Nssg44
(lp3149
I2758383128
asg32
VWeaponPickup
p3150
sg35
VPT6M46.8741145S
p3151
sa(dp3152
g221
I4096745987
sg222
I00
sg223
I00
sg224
(dp3153
g41
VnV Pistola HCS
p3154
sg43
Nssg227
(lp3155
I2758383128
asg229
I00
sg230
I01
sg231
I1
sg232
I0
sg233
I1
sg234
(dp3156
Vy
F-4.8362684199999997
sVx
F-6.906784
sVz
F0.96285366999999999
ssg236
(dp3157
Vy
F0.614244342
sVx
F-5.3064210000000003
sVz
F2.65148568
ssg238
I00
sg239
(dp3158
g41
VTL StelluR
p3159
sg43
Nssg242
(lp3160
sg244
(lp3161
(dp3162
g41
VnV eL ToWn
p3163
sg43
Nsasg248
I01
sg35
VPT6M53.0743123S
p3164
sg32
VDeath
p3165
sg251
I1
sa(dp3166
g32
VMedal
p3167
sg39
(dp3168
g41
VnV Pistola HCS
p3169
sg43
Nssg256
I3261908037
sg35
VPT6M53.0763127S
p3170
sa(dp3171
g38
I424645655
sg32
VWeaponDrop
p3172
sg180
I3
sg44
(lp3173
I1327094800
asg35
VPT6M53.0773129S
p3174
sg183
I3
sg184
VP0DT0H0M26.0500S
p3175
sg39
(dp3176
g41
VTL StelluR
p3177
sg43
Nssa(dp3178
g38
I4096745987
sg32
VWeaponDrop
p3179
sg180
I0
sg44
(lp3180
I2758383128
asg35
VPT6M53.0773129S
p3181
sg183
I0
sg184
VP0DT0H0M0.5667S
p3182
sg39
(dp3183
g41
VTL StelluR
p3184
sg43
Nssa(dp3185
g38
I4096745987
sg32
VWeaponDrop
p3186
sg180
I5
sg44
(lp3187
I2758383128
asg35
VPT7M0.2895417S
p3188
sg183
I3
sg184
VP0DT0H0M20.5167S
p3189
sg39
(dp3190
g41
VnV Pistola HCS
p3191
sg43
Nssa(dp3192
g38
I424645655
sg39
(dp3193
g41
VnV Pistola HCS
p3194
sg43
Nssg44
(lp3195
I1327094800
asg32
VWeaponPickup
p3196
sg35
VPT7M0.2905439S
p3197
sa(dp3198
g38
I313138863
sg39
(dp3199
g41
VTL StelluR
p3200
sg43
Nssg44
(lp3201
I1095363701
asg32
VWeaponPickup
p3202
sg35
VPT7M1.0915699S
p3203
sa(dp3204
g38
I4096745987
sg39
(dp3205
g41
VTL StelluR
p3206
sg43
Nssg44
(lp3207
I2758383128
asg32
VWeaponPickup
p3208
sg35
VPT7M1.0915699S
p3209
sa(dp3210
g32
VPlayerSpawn
p3211
sg39
(dp3212
g41
VTL StelluR
p3213
sg43
Nssg35
VPT7M1.0915699S
p3214
sa(dp3215
g221
I723523180
sg222
I00
sg223
I00
sg224
(dp3216
g41
VnV eL ToWn
p3217
sg43
Nssg227
(lp3218
I2758383128
asg229
I00
sg230
I01
sg231
I1
sg232
I0
sg233
I1
sg234
(dp3219
Vy
F9.7811229999999991
sVx
F-1.3281151099999999
sVz
F1.0712012099999999
ssg236
(dp3220
Vy
F14.495839999999999
sVx
F-1.6448859
sVz
F2.97351885
ssg238
I00
sg239
(dp3221
g41
VLiquid Eco
p3222
sg43
Nssg242
(lp3223
sg244
(lp3224
sg248
I00
sg35
VPT7M8.6908123S
p3225
sg32
VDeath
p3226
sg251
I1
sa(dp3227
g32
VMedal
p3228
sg39
(dp3229
g41
VnV Pistola HCS
p3230
sg43
Nssg256
I824733727
sg35
VPT7M8.6908123S
p3231
sa(dp3232
g38
I313138863
sg32
VWeaponDrop
p3233
sg180
I0
sg44
(lp3234
I1095363701
asg35
VPT7M8.6928127S
p3235
sg183
I0
sg184
VP0DT0H0M0.6833S
p3236
sg39
(dp3237
g41
VLiquid Eco
p3238
sg43
Nssa(dp3239
g38
I4096745987
sg32
VWeaponDrop
p3240
sg180
I9
sg44
(lp3241
I2758383128
asg35
VPT7M8.6928127S
p3242
sg183
I2
sg184
VP0DT0H0M39.8667S
p3243
sg39
(dp3244
g41
VLiquid Eco
p3245
sg43
Nssa(dp3246
g221
I4096745987
sg222
I00
sg223
I00
sg224
(dp3247
g41
VTL StelluR
p3248
sg43
Nssg227
(lp3249
I2758383128
asg229
I00
sg230
I01
sg231
I1
sg232
I0
sg233
I1
sg234
(dp3250
Vy
F1.33388543
sVx
F2.1405975800000001
sVz
F4.2913819999999996
ssg236
(dp3251
Vy
F11.167928699999999
sVx
F-1.1779598
sVz
F1.81394458
ssg238
I00
sg239
(dp3252
g41
VnV eL ToWn
p3253
sg43
Nssg242
(lp3254
sg244
(lp3255
(dp3256
g41
VTL Spartan HCS
p3257
sg43
Nsasg248
I00
sg35
VPT7M9.1918287S
p3258
sg32
VDeath
p3259
sg251
I1
sa(dp3260
g38
I723523180
sg32
VWeaponDrop
p3261
sg180
I2
sg44
(lp3262
I2758383128
asg35
VPT7M9.1928286S
p3263
sg183
I2
sg184
VP0DT0H0M44.8500S
p3264
sg39
(dp3265
g41
VnV eL ToWn
p3266
sg43
Nssa(dp3267
g38
I4096745987
sg32
VWeaponDrop
p3268
sg180
I8
sg44
(lp3269
I2758383128
asg35
VPT7M9.1928286S
p3270
sg183
I4
sg184
VP0DT0H1M5.9667S
p3271
sg39
(dp3272
g41
VnV eL ToWn
p3273
sg43
Nssa(dp3274
g221
I669296699
sg222
I00
sg223
I00
sg224
(dp3275
g41
VTL Spartan HCS
p3276
sg43
Nssg227
(lp3277
I2758383128
asg229
I00
sg230
I01
sg231
I1
sg232
I0
sg233
I1
sg234
(dp3278
Vy
F12.3019733
sVx
F7.3000720000000001
sVz
F2.7000700000000002
ssg236
(dp3279
Vy
F5.9709587099999997
sVx
F-5.0373506499999996
sVz
F0.78266143799999999
ssg238
I00
sg239
(dp3280
g41
VnV Pistola HCS
p3281
sg43
Nssg242
(lp3282
sg244
(lp3283
(dp3284
g41
VLiquid Eco
p3285
sg43
Nsasg248
I00
sg35
VPT7M9.6418431S
p3286
sg32
VDeath
p3287
sg251
I1
sa(dp3288
g38
I1579758889
sg32
VWeaponDrop
p3289
sg180
I4
sg44
(lp3290
I2758383128
asg35
VPT7M9.6438434S
p3291
sg183
I3
sg184
VP0DT0H0M16.3000S
p3292
sg39
(dp3293
g41
VnV Pistola HCS
p3294
sg43
Nssa(dp3295
g38
I424645655
sg32
VWeaponDrop
p3296
sg180
I0
sg44
(lp3297
I1327094800
asg35
VPT7M9.6438434S
p3298
sg183
I0
sg184
VP0DT0H0M4.2500S
p3299
sg39
(dp3300
g41
VnV Pistola HCS
p3301
sg43
Nssa(dp3302
g221
I3484334713
sg222
I00
sg223
I00
sg224
(dp3303
g41
VnV RayneHCS
p3304
sg43
Nssg227
(lp3305
I2758383128
asg229
I00
sg230
I01
sg231
I1
sg232
I0
sg233
I1
sg234
(dp3306
Vy
F17.1050453
sVx
F5.5747046500000002
sVz
F2.69963956
ssg236
(dp3307
Vy
F14.4367123
sVx
F7.99200058
sVz
F2.69993544
ssg238
I00
sg239
(dp3308
g41
VTL Spartan HCS
p3309
sg43
Nssg242
(lp3310
sg244
(lp3311
(dp3312
g41
VnV Mikwen HCS
p3313
sg43
Nsasg248
I00
sg35
VPT7M12.4919339S
p3314
sg32
VDeath
p3315
sg251
I1
sa(dp3316
g38
I669296699
sg32
VWeaponDrop
p3317
sg180
I4
sg44
(lp3318
I2758383128
asg35
VPT7M12.4939345S
p3319
sg183
I2
sg184
VP0DT0H0M49.7667S
p3320
sg39
(dp3321
g41
VTL Spartan HCS
p3322
sg43
Nssa(dp3323
g38
I4096745987
sg32
VWeaponDrop
p3324
sg180
I0
sg44
(lp3325
I2758383128
asg35
VPT7M12.4939345S
p3326
sg183
I0
sg184
VP0DT0H0M8.1667S
p3327
sg39
(dp3328
g41
VTL Spartan HCS
p3329
sg43
Nssa(dp3330
g221
I313138863
sg222
I01
sg223
I00
sg224
(dp3331
g41
VTL Danoxide
p3332
sg43
Nssg227
(lp3333
I1095363701
asg229
I00
sg230
I00
sg231
I1
sg232
I0
sg233
I1
sg234
(dp3334
Vy
F17.411474200000001
sVx
F5.7601190000000004
sVz
F2.6875849999999999
ssg236
(dp3335
Vy
F17.0615883
sVx
F5.7479659999999999
sVz
F2.6996426599999999
ssg238
I00
sg239
(dp3336
g41
VnV RayneHCS
p3337
sg43
Nssg242
(lp3338
sg244
(lp3339
sg248
I00
sg35
VPT7M12.590937S
p3340
sg32
VDeath
p3341
sg251
I1
sa(dp3342
g32
VMedal
p3343
sg39
(dp3344
g41
VTL Danoxide
p3345
sg43
Nssg256
I3270120991
sg35
VPT7M12.5919373S
p3346
sa(dp3347
g38
I3484334713
sg32
VWeaponDrop
p3348
sg180
I1
sg44
(lp3349
I2758383128
asg35
VPT7M12.5929372S
p3350
sg183
I1
sg184
VP0DT0H0M8.4333S
p3351
sg39
(dp3352
g41
VnV RayneHCS
p3353
sg43
Nssa(dp3354
g38
I424645655
sg32
VWeaponDrop
p3355
sg180
I57
sg44
(lp3356
I1327094800
asg35
VPT7M12.5929372S
p3357
sg183
I19
sg184
VP0DT0H1M55.3000S
p3358
sg39
(dp3359
g41
VnV RayneHCS
p3360
sg43
Nssa(dp3361
g221
I723388907
sg222
I00
sg223
I00
sg224
(dp3362
g41
VnV Mikwen HCS
p3363
sg43
Nssg227
(lp3364
I89283061
asg229
I00
sg230
I01
sg231
I1
sg232
I0
sg233
I1
sg234
(dp3365
Vy
F18.920010000000001
sVx
F4.8834569999999999
sVz
F2.6999504600000002
ssg236
(dp3366
Vy
F17.456943500000001
sVx
F6.0671405800000002
sVz
F2.6995520000000002
ssg238
I00
sg239
(dp3367
g41
VTL Danoxide
p3368
sg43
Nssg242
(lp3369
sg244
(lp3370
sg248
I00
sg35
VPT7M12.7919433S
p3371
sg32
VDeath
p3372
sg251
I1
sa(dp3373
g38
I313138863
sg32
VWeaponDrop
p3374
sg180
I8
sg44
(lp3375
I1095363701
asg35
VPT7M12.7939442S
p3376
sg183
I4
sg184
VP0DT0H0M2.0500S
p3377
sg39
(dp3378
g41
VTL Danoxide
p3379
sg43
Nssa(dp3380
g38
I313138863
sg32
VWeaponDrop
p3381
sg180
I0
sg44
(lp3382
I1095363701
asg35
VPT7M12.7939442S
p3383
sg183
I0
sg184
VP0DT0S
p3384
sg39
(dp3385
g41
VTL Danoxide
p3386
sg43
Nssa(dp3387
g38
I4096745987
sg32
VWeaponDrop
p3388
sg180
I1
sg44
(lp3389
I2758383128
asg35
VPT7M12.7939442S
p3390
sg183
I0
sg184
VP0DT0H0M47.8667S
p3391
sg39
(dp3392
g41
VTL Danoxide
p3393
sg43
Nssa(dp3394
g38
I313138863
sg32
VWeaponDrop
p3395
sg180
I0
sg44
(lp3396
I1095363701
asg35
VPT7M16.5230619S
p3397
sg183
I0
sg184
VP0DT0H0M2.2333S
p3398
sg39
(dp3399
g41
VTL StelluR
p3400
sg43
Nssa(dp3401
g38
I723523180
sg39
(dp3402
g41
VTL StelluR
p3403
sg43
Nssg44
(lp3404
I2758383128
asg32
VWeaponPickup
p3405
sg35
VPT7M16.524064S
p3406
sa(dp3407
g38
I313138863
sg39
(dp3408
g41
VLiquid Eco
p3409
sg43
Nssg44
(lp3410
I1095363701
asg32
VWeaponPickup
p3411
sg35
VPT7M16.7080693S
p3412
sa(dp3413
g38
I4096745987
sg39
(dp3414
g41
VLiquid Eco
p3415
sg43
Nssg44
(lp3416
I2758383128
asg32
VWeaponPickup
p3417
sg35
VPT7M16.7090694S
p3418
sa(dp3419
g32
VPlayerSpawn
p3420
sg39
(dp3421
g41
VLiquid Eco
p3422
sg43
Nssg35
VPT7M16.7090694S
p3423
sa(dp3424
g38
I313138863
sg39
(dp3425
g41
VnV eL ToWn
p3426
sg43
Nssg44
(lp3427
I1095363701
asg32
VWeaponPickup
p3428
sg35
VPT7M17.2080858S
p3429
sa(dp3430
g38
I4096745987
sg39
(dp3431
g41
VnV eL ToWn
p3432
sg43
Nssg44
(lp3433
I2758383128
asg32
VWeaponPickup
p3434
sg35
VPT7M17.2080858S
p3435
sa(dp3436
g32
VPlayerSpawn
p3437
sg39
(dp3438
g41
VnV eL ToWn
p3439
sg43
Nssg35
VPT7M17.2080858S
p3440
sa(dp3441
g38
I313138863
sg39
(dp3442
g41
VnV Pistola HCS
p3443
sg43
Nssg44
(lp3444
I1095363701
asg32
VWeaponPickup
p3445
sg35
VPT7M17.6581005S
p3446
sa(dp3447
g38
I4096745987
sg39
(dp3448
g41
VnV Pistola HCS
p3449
sg43
Nssg44
(lp3450
I2758383128
asg32
VWeaponPickup
p3451
sg35
VPT7M17.6581005S
p3452
sa(dp3453
g32
VPlayerSpawn
p3454
sg39
(dp3455
g41
VnV Pistola HCS
p3456
sg43
Nssg35
VPT7M17.6581005S
p3457
sa(dp3458
g221
I723523180
sg222
I00
sg223
I00
sg224
(dp3459
g41
VTL StelluR
p3460
sg43
Nssg227
(lp3461
I2758383128
asg229
I00
sg230
I01
sg231
I1
sg232
I0
sg233
I1
sg234
(dp3462
Vy
F15.679906799999999
sVx
F-1.69582641
sVz
F2.9137673400000002
ssg236
(dp3463
Vy
F14.7157888
sVx
F-0.56700855500000003
sVz
F2.1766214399999999
ssg238
I00
sg239
(dp3464
g41
VnV Mikwen HCS
p3465
sg43
Nssg242
(lp3466
sg244
(lp3467
sg248
I00
sg35
VPT7M17.6741S
p3468
sg32
VDeath
p3469
sg251
I1
sa(dp3470
g38
I723388907
sg32
VWeaponDrop
p3471
sg180
I43
sg44
(lp3472
I89283061
asg35
VPT7M17.6750997S
p3473
sg183
I22
sg184
VP0DT0H0M9.1500S
p3474
sg39
(dp3475
g41
VnV Mikwen HCS
p3476
sg43
Nssa(dp3477
g38
I2511447508
sg32
VWeaponDrop
p3478
sg180
I2
sg44
(lp3479
I2758383128
asg35
VPT7M17.6750997S
p3480
sg183
I0
sg184
VP0DT0H0M23.4667S
p3481
sg39
(dp3482
g41
VnV Mikwen HCS
p3483
sg43
Nssa(dp3484
g221
I723388907
sg222
I00
sg223
I00
sg224
(dp3485
g41
VnV Mikwen HCS
p3486
sg43
Nssg227
(lp3487
I89283061
asg229
I00
sg230
I01
sg231
I1
sg232
I0
sg233
I1
sg234
(dp3488
Vy
F14.7157888
sVx
F-0.56700855500000003
sVz
F2.1766214399999999
ssg236
(dp3489
Vy
F15.679906799999999
sVx
F-1.69582641
sVz
F2.9137673400000002
ssg238
I00
sg239
(dp3490
g41
VTL StelluR
p3491
sg43
Nssg242
(lp3492
sg244
(lp3493
sg248
I00
sg35
VPT7M17.6761005S
p3494
sg32
VDeath
p3495
sg251
I1
sa(dp3496
g38
I723523180
sg32
VWeaponDrop
p3497
sg180
I1
sg44
(lp3498
I2758383128
asg35
VPT7M17.6771002S
p3499
sg183
I1
sg184
VP0DT0H0M1.1500S
p3500
sg39
(dp3501
g41
VTL StelluR
p3502
sg43
Nssa(dp3503
g38
I4096745987
sg32
VWeaponDrop
p3504
sg180
I6
sg44
(lp3505
I2758383128
asg35
VPT7M17.6771002S
p3506
sg183
I2
sg184
VP0DT0H0M13.1833S
p3507
sg39
(dp3508
g41
VTL StelluR
p3509
sg43
Nssa(dp3510
g38
I313138863
sg39
(dp3511
g41
VTL Spartan HCS
p3512
sg43
Nssg44
(lp3513
I1095363701
asg32
VWeaponPickup
p3514
sg35
VPT7M20.5081913S
p3515
sa(dp3516
g38
I4096745987
sg39
(dp3517
g41
VTL Spartan HCS
p3518
sg43
Nssg44
(lp3519
I2758383128
asg32
VWeaponPickup
p3520
sg35
VPT7M20.5081913S
p3521
sa(dp3522
g32
VPlayerSpawn
p3523
sg39
(dp3524
g41
VTL Spartan HCS
p3525
sg43
Nssg35
VPT7M20.5081913S
p3526
sa(dp3527
g38
I313138863
sg39
(dp3528
g41
VnV RayneHCS
p3529
sg43
Nssg44
(lp3530
I1095363701
asg32
VWeaponPickup
p3531
sg35
VPT7M20.6081944S
p3532
sa(dp3533
g38
I4096745987
sg39
(dp3534
g41
VnV RayneHCS
p3535
sg43
Nssg44
(lp3536
I2758383128
asg32
VWeaponPickup
p3537
sg35
VPT7M20.6081944S
p3538
sa(dp3539
g32
VPlayerSpawn
p3540
sg39
(dp3541
g41
VnV RayneHCS
p3542
sg43
Nssg35
VPT7M20.6081944S
p3543
sa(dp3544
g38
I313138863
sg39
(dp3545
g41
VTL Danoxide
p3546
sg43
Nssg44
(lp3547
I1095363701
asg32
VWeaponPickup
p3548
sg35
VPT7M20.808201S
p3549
sa(dp3550
g38
I4096745987
sg39
(dp3551
g41
VTL Danoxide
p3552
sg43
Nssg44
(lp3553
I2758383128
asg32
VWeaponPickup
p3554
sg35
VPT7M20.808201S
p3555
sa(dp3556
g32
VPlayerSpawn
p3557
sg39
(dp3558
g41
VTL Danoxide
p3559
sg43
Nssg35
VPT7M20.808201S
p3560
sa(dp3561
g38
I313138863
sg32
VWeaponDrop
p3562
sg180
I0
sg44
(lp3563
I1095363701
asg35
VPT7M23.0062691S
p3564
sg183
I0
sg184
VP0DT0H0M6.3000S
p3565
sg39
(dp3566
g41
VLiquid Eco
p3567
sg43
Nssa(dp3568
g38
I669296699
sg39
(dp3569
g41
VLiquid Eco
p3570
sg43
Nssg44
(lp3571
I2758383128
asg32
VWeaponPickup
p3572
sg35
VPT7M23.0062691S
p3573
sa(dp3574
g38
I313138863
sg39
(dp3575
g41
VnV Mikwen HCS
p3576
sg43
Nssg44
(lp3577
I1095363701
asg32
VWeaponPickup
p3578
sg35
VPT7M25.691357S
p3579
sa(dp3580
g38
I4096745987
sg39
(dp3581
g41
VnV Mikwen HCS
p3582
sg43
Nssg44
(lp3583
I2758383128
asg32
VWeaponPickup
p3584
sg35
VPT7M25.691357S
p3585
sa(dp3586
g32
VPlayerSpawn
p3587
sg39
(dp3588
g41
VnV Mikwen HCS
p3589
sg43
Nssg35
VPT7M25.691357S
p3590
sa(dp3591
g38
I313138863
sg39
(dp3592
g41
VTL StelluR
p3593
sg43
Nssg44
(lp3594
I1095363701
asg32
VWeaponPickup
p3595
sg35
VPT7M25.7243577S
p3596
sa(dp3597
g38
I4096745987
sg39
(dp3598
g41
VTL StelluR
p3599
sg43
Nssg44
(lp3600
I2758383128
asg32
VWeaponPickup
p3601
sg35
VPT7M25.725358S
p3602
sa(dp3603
g32
VPlayerSpawn
p3604
sg39
(dp3605
g41
VTL StelluR
p3606
sg43
Nssg35
VPT7M25.725358S
p3607
sa(dp3608
g38
I313138863
sg32
VWeaponDrop
p3609
sg180
I0
sg44
(lp3610
I1095363701
asg35
VPT7M27.256405S
p3611
sg183
I0
sg184
VP0DT0H0M2.2000S
p3612
sg39
(dp3613
g41
VnV RayneHCS
p3614
sg43
Nssa(dp3615
g38
I3484334713
sg39
(dp3616
g41
VnV RayneHCS
p3617
sg43
Nssg44
(lp3618
I2758383128
asg32
VWeaponPickup
p3619
sg35
VPT7M27.256405S
p3620
sa(dp3621
g38
I669296699
sg32
VWeaponDrop
p3622
sg180
I0
sg44
(lp3623
I2758383128
asg35
VPT7M27.3894095S
p3624
sg183
I0
sg184
VP0DT0H0M2.2833S
p3625
sg39
(dp3626
g41
VLiquid Eco
p3627
sg43
Nssa(dp3628
g38
I723523180
sg39
(dp3629
g41
VLiquid Eco
p3630
sg43
Nssg44
(lp3631
I2758383128
asg32
VWeaponPickup
p3632
sg35
VPT7M27.3904114S
p3633
sa(dp3634
g38
I4096745987
sg32
VWeaponDrop
p3635
sg180
I0
sg44
(lp3636
I2758383128
asg35
VPT7M29.2564692S
p3637
sg183
I0
sg184
VP0DT0H0M2.8833S
p3638
sg39
(dp3639
g41
VnV Mikwen HCS
p3640
sg43
Nssa(dp3641
g38
I424645655
sg39
(dp3642
g41
VnV Mikwen HCS
p3643
sg43
Nssg44
(lp3644
I1327094800
asg32
VWeaponPickup
p3645
sg35
VPT7M29.2564692S
p3646
sa(dp3647
g221
I723523180
sg222
I00
sg223
I00
sg224
(dp3648
g41
VLiquid Eco
p3649
sg43
Nssg227
(lp3650
I2758383128
asg229
I00
sg230
I01
sg231
I1
sg232
I0
sg233
I1
sg234
(dp3651
Vy
F14.956193000000001
sVx
F1.2114720000000001
sVz
F1.9169769299999999
ssg236
(dp3652
Vy
F12.796452499999999
sVx
F-0.73662720000000004
sVz
F1.4530430000000001
ssg238
I00
sg239
(dp3653
g41
VnV RayneHCS
p3654
sg43
Nssg242
(lp3655
sg244
(lp3656
(dp3657
g41
VTL Spartan HCS
p3658
sg43
Nsasg248
I00
sg35
VPT7M31.857554S
p3659
sg32
VDeath
p3660
sg251
I1
sa(dp3661
g38
I3484334713
sg32
VWeaponDrop
p3662
sg180
I0
sg44
(lp3663
I2758383128
asg35
VPT7M31.8595537S
p3664
sg183
I0
sg184
VP0DT0H0M3.7500S
p3665
sg39
(dp3666
g41
VnV RayneHCS
p3667
sg43
Nssa(dp3668
g38
I4096745987
sg32
VWeaponDrop
p3669
sg180
I0
sg44
(lp3670
I2758383128
asg35
VPT7M31.8605541S
p3671
sg183
I0
sg184
VP0DT0H0M5.3000S
p3672
sg39
(dp3673
g41
VnV RayneHCS
p3674
sg43
Nssa(dp3675
g38
I313138863
sg32
VWeaponDrop
p3676
sg180
I22
sg44
(lp3677
I1095363701
asg35
VPT7M32.73958S
p3678
sg183
I14
sg184
VP0DT0H0M8.8500S
p3679
sg39
(dp3680
g41
VTL Spartan HCS
p3681
sg43
Nssa(dp3682
g38
I1579758889
sg39
(dp3683
g41
VTL Spartan HCS
p3684
sg43
Nssg44
(lp3685
I2758383128
asg32
VWeaponPickup
p3686
sg35
VPT7M32.73958S
p3687
sa(dp3688
g221
I313138863
sg222
I00
sg223
I00
sg224
(dp3689
g41
VnV Pistola HCS
p3690
sg43
Nssg227
(lp3691
I1095363701
asg229
I00
sg230
I01
sg231
I1
sg232
I0
sg233
I1
sg234
(dp3692
Vy
F13.404984499999999
sVx
F0.2853618
sVz
F4.536168
ssg236
(dp3693
Vy
F19.718800000000002
sVx
F0.28267769999999998
sVz
F3.9410050000000001
ssg238
I00
sg239
(dp3694
g41
VTL Danoxide
p3695
sg43
Nssg242
(lp3696
sg244
(lp3697
sg248
I00
sg35
VPT7M33.2915999S
p3698
sg32
VDeath
p3699
sg251
I1
sa(dp3700
g32
VMedal
p3701
sg39
(dp3702
g41
VnV Pistola HCS
p3703
sg43
Nssg256
I2782465081
sg35
VPT7M33.2915999S
p3704
sa(dp3705
g38
I313138863
sg32
VWeaponDrop
p3706
sg180
I0
sg44
(lp3707
I1095363701
asg35
VPT7M33.2936S
p3708
sg183
I0
sg184
VP0DT0H0M1.3833S
p3709
sg39
(dp3710
g41
VTL Danoxide
p3711
sg43
Nssa(dp3712
g38
I4096745987
sg32
VWeaponDrop
p3713
sg180
I10
sg44
(lp3714
I2758383128
asg35
VPT7M33.2936S
p3715
sg183
I5
sg184
VP0DT0H0M11.1000S
p3716
sg39
(dp3717
g41
VTL Danoxide
p3718
sg43
Nssa(dp3719
g221
I424645655
sg222
I00
sg223
I00
sg224
(dp3720
g41
VnV Mikwen HCS
p3721
sg43
Nssg227
(lp3722
I1327094800
asg229
I00
sg230
I01
sg231
I1
sg232
I0
sg233
I1
sg234
(dp3723
Vy
F3.25739264
sVx
F10.066292799999999
sVz
F2.39467645
ssg236
(dp3724
Vy
F4.2983756099999999
sVx
F14.3647089
sVz
F2.10008836
ssg238
I00
sg239
(dp3725
g41
VTL StelluR
p3726
sg43
Nssg242
(lp3727
sg244
(lp3728
(dp3729
g41
VnV eL ToWn
p3730
sg43
Nsasg248
I01
sg35
VPT7M34.4906373S
p3731
sg32
VDeath
p3732
sg251
I1
sa(dp3733
g32
VMedal
p3734
sg39
(dp3735
g41
VnV Mikwen HCS
p3736
sg43
Nssg256
I2838259753
sg35
VPT7M34.4906373S
p3737
sa(dp3738
g32
VImpulse
p3739
sg39
(dp3740
g41
VnV Mikwen HCS
p3741
sg43
Nssg1914
I2556889090
sg35
VPT7M34.4916382S
p3742
sa(dp3743
g32
VMedal
p3744
sg39
(dp3745
g41
VnV Mikwen HCS
p3746
sg43
Nssg256
I3261908037
sg35
VPT7M34.4926382S
p3747
sa(dp3748
g38
I313138863
sg32
VWeaponDrop
p3749
sg180
I0
sg44
(lp3750
I1095363701
asg35
VPT7M34.4926382S
p3751
sg183
I0
sg184
VP0DT0H0M0.8333S
p3752
sg39
(dp3753
g41
VTL StelluR
p3754
sg43
Nssa(dp3755
g38
I4096745987
sg32
VWeaponDrop
p3756
sg180
I5
sg44
(lp3757
I2758383128
asg35
VPT7M34.4926382S
p3758
sg183
I3
sg184
VP0DT0H0M7.9333S
p3759
sg39
(dp3760
g41
VTL StelluR
p3761
sg43
Nssa(dp3762
g221
I4096745987
sg222
I00
sg223
I00
sg224
(dp3763
g41
VTL Spartan HCS
p3764
sg43
Nssg227
(lp3765
I2758383128
asg229
I00
sg230
I01
sg231
I1
sg232
I0
sg233
I1
sg234
(dp3766
Vy
F5.6211605100000002
sVx
F-2.4623393999999998
sVz
F1.89618683
ssg236
(dp3767
Vy
F13.680469499999999
sVx
F-1.43188012
sVz
F4.5206739999999996
ssg238
I00
sg239
(dp3768
g41
VnV Pistola HCS
p3769
sg43
Nssg242
(lp3770
sg244
(lp3771
(dp3772
g41
VTL Danoxide
p3773
sg43
Nsasg248
I00
sg35
VPT7M35.7746793S
p3774
sg32
VDeath
p3775
sg251
I1
sa(dp3776
g38
I313138863
sg32
VWeaponDrop
p3777
sg180
I9
sg44
(lp3778
I1095363701
asg35
VPT7M35.7766791S
p3779
sg183
I4
sg184
VP0DT0H0M9.8333S
p3780
sg39
(dp3781
g41
VnV Pistola HCS
p3782
sg43
Nssa(dp3783
g38
I4096745987
sg32
VWeaponDrop
p3784
sg180
I0
sg44
(lp3785
I2758383128
asg35
VPT7M35.7766791S
p3786
sg183
I0
sg184
VP0DT0H0M8.2833S
p3787
sg39
(dp3788
g41
VnV Pistola HCS
p3789
sg43
Nssa(dp3790
g38
I313138863
sg39
(dp3791
g41
VnV RayneHCS
p3792
sg43
Nssg44
(lp3793
I1095363701
asg32
VWeaponPickup
p3794
sg35
VPT7M39.87481S
p3795
sa(dp3796
g38
I4096745987
sg39
(dp3797
g41
VnV RayneHCS
p3798
sg43
Nssg44
(lp3799
I2758383128
asg32
VWeaponPickup
p3800
sg35
VPT7M39.87481S
p3801
sa(dp3802
g32
VPlayerSpawn
p3803
sg39
(dp3804
g41
VnV RayneHCS
p3805
sg43
Nssg35
VPT7M39.87481S
p3806
sa(dp3807
g221
I313138863
sg222
I00
sg223
I00
sg224
(dp3808
g41
VnV eL ToWn
p3809
sg43
Nssg227
(lp3810
I1095363701
asg229
I00
sg230
I01
sg231
I1
sg232
I0
sg233
I1
sg234
(dp3811
Vy
F7.4779872899999997
sVx
F-7.168736
sVz
F1.2342712899999999
ssg236
(dp3812
Vy
F8.0396990000000006
sVx
F-2.6982620000000002
sVz
F1.5920661700000001
ssg238
I00
sg239
(dp3813
g41
VTL Spartan HCS
p3814
sg43
Nssg242
(lp3815
sg244
(lp3816
sg248
I00
sg35
VPT7M40.1248176S
p3817
sg32
VDeath
p3818
sg251
I1
sa(dp3819
g38
I1579758889
sg32
VWeaponDrop
p3820
sg180
I2
sg44
(lp3821
I2758383128
asg35
VPT7M40.1278186S
p3822
sg183
I1
sg184
VP0DT0H0M2.4000S
p3823
sg39
(dp3824
g41
VTL Spartan HCS
p3825
sg43
Nssa(dp3826
g38
I4096745987
sg32
VWeaponDrop
p3827
sg180
I7
sg44
(lp3828
I2758383128
asg35
VPT7M40.1278186S
p3829
sg183
I5
sg184
VP0DT0H0M8.3667S
p3830
sg39
(dp3831
g41
VTL Spartan HCS
p3832
sg43
Nssa(dp3833
g38
I313138863
sg39
(dp3834
g41
VTL Danoxide
p3835
sg43
Nssg44
(lp3836
I1095363701
asg32
VWeaponPickup
p3837
sg35
VPT7M41.3078558S
p3838
sa(dp3839
g38
I4096745987
sg39
(dp3840
g41
VTL Danoxide
p3841
sg43
Nssg44
(lp3842
I2758383128
asg32
VWeaponPickup
p3843
sg35
VPT7M41.3088566S
p3844
sa(dp3845
g32
VPlayerSpawn
p3846
sg39
(dp3847
g41
VTL Danoxide
p3848
sg43
Nssg35
VPT7M41.3088566S
p3849
sa(dp3850
g38
I313138863
sg39
(dp3851
g41
VTL StelluR
p3852
sg43
Nssg44
(lp3853
I1095363701
asg32
VWeaponPickup
p3854
sg35
VPT7M42.5078954S
p3855
sa(dp3856
g38
I4096745987
sg39
(dp3857
g41
VTL StelluR
p3858
sg43
Nssg44
(lp3859
I2758383128
asg32
VWeaponPickup
p3860
sg35
VPT7M42.5078954S
p3861
sa(dp3862
g32
VPlayerSpawn
p3863
sg39
(dp3864
g41
VTL StelluR
p3865
sg43
Nssg35
VPT7M42.5078954S
p3866
sa(dp3867
g38
I313138863
sg32
VWeaponDrop
p3868
sg180
I0
sg44
(lp3869
I1095363701
asg35
VPT7M42.6898995S
p3870
sg183
I0
sg184
VP0DT0H0M0.9667S
p3871
sg39
(dp3872
g41
VnV RayneHCS
p3873
sg43
Nssa(dp3874
g38
I723388907
sg39
(dp3875
g41
VnV RayneHCS
p3876
sg43
Nssg44
(lp3877
I89283061
asg32
VWeaponPickup
p3878
sg35
VPT7M42.6898995S
p3879
sa(dp3880
g221
I4096745987
sg222
I00
sg223
I00
sg224
(dp3881
g41
VLiquid Eco
p3882
sg43
Nssg227
(lp3883
I2758383128
asg229
I00
sg230
I01
sg231
I1
sg232
I0
sg233
I1
sg234
(dp3884
Vy
F8.7614999999999998
sVx
F-0.64188630000000002
sVz
F0.78408909999999998
ssg236
(dp3885
Vy
F8.6733969999999996
sVx
F-5.9555619999999996
sVz
F0.78266143799999999
ssg238
I00
sg239
(dp3886
g41
VnV eL ToWn
p3887
sg43
Nssg242
(lp3888
sg244
(lp3889
(dp3890
g41
VTL Spartan HCS
p3891
sg43
Nsasg248
I01
sg35
VPT7M42.8739058S
p3892
sg32
VDeath
p3893
sg251
I1
sa(dp3894
g32
VMedal
p3895
sg39
(dp3896
g41
VLiquid Eco
p3897
sg43
Nssg256
I466059351
sg35
VPT7M42.8759056S
p3898
sa(dp3899
g32
VMedal
p3900
sg39
(dp3901
g41
VLiquid Eco
p3902
sg43
Nssg256
I3261908037
sg35
VPT7M42.8826212S
p3903
sa(dp3904
g38
I313138863
sg32
VWeaponDrop
p3905
sg180
I28
sg44
(lp3906
I1095363701
asg35
VPT7M42.8829055S
p3907
sg183
I15
sg184
VP0DT0H0M6.3000S
p3908
sg39
(dp3909
g41
VnV eL ToWn
p3910
sg43
Nssa(dp3911
g38
I4096745987
sg32
VWeaponDrop
p3912
sg180
I3
sg44
(lp3913
I2758383128
asg35
VPT7M42.8829055S
p3914
sg183
I2
sg184
VP0DT0H0M19.3667S
p3915
sg39
(dp3916
g41
VnV eL ToWn
p3917
sg43
Nssa(dp3918
g38
I313138863
sg32
VWeaponDrop
p3919
sg180
I0
sg44
(lp3920
I1095363701
asg35
VPT7M43.705931S
p3921
sg183
I0
sg184
VP0DT0H0M1.2500S
p3922
sg39
(dp3923
g41
VTL Danoxide
p3924
sg43
Nssa(dp3925
g38
I723388907
sg39
(dp3926
g41
VTL Danoxide
p3927
sg43
Nssg44
(lp3928
I89283061
asg32
VWeaponPickup
p3929
sg35
VPT7M43.706933S
p3930
sa(dp3931
g38
I313138863
sg39
(dp3932
g41
VnV Pistola HCS
p3933
sg43
Nssg44
(lp3934
I1095363701
asg32
VWeaponPickup
p3935
sg35
VPT7M43.7909357S
p3936
sa(dp3937
g38
I4096745987
sg39
(dp3938
g41
VnV Pistola HCS
p3939
sg43
Nssg44
(lp3940
I2758383128
asg32
VWeaponPickup
p3941
sg35
VPT7M43.791936S
p3942
sa(dp3943
g32
VPlayerSpawn
p3944
sg39
(dp3945
g41
VnV Pistola HCS
p3946
sg43
Nssg35
VPT7M43.791936S
p3947
sa(dp3948
g38
I313138863
sg32
VWeaponDrop
p3949
sg180
I0
sg44
(lp3950
I1095363701
asg35
VPT7M47.4730514S
p3951
sg183
I0
sg184
VP0DT0H0M0.9667S
p3952
sg39
(dp3953
g41
VTL StelluR
p3954
sg43
Nssa(dp3955
g38
I2015271382
sg39
(dp3956
g41
VTL StelluR
p3957
sg43
Nssg44
(lp3958
I2758383128
asg32
VWeaponPickup
p3959
sg35
VPT7M47.4730514S
p3960
sa(dp3961
g221
I424645655
sg222
I00
sg223
I00
sg224
(dp3962
g41
VnV Mikwen HCS
p3963
sg43
Nssg227
(lp3964
I1327094800
asg229
I00
sg230
I01
sg231
I1
sg232
I0
sg233
I1
sg234
(dp3965
Vy
F15.6212044
sVx
F-0.91504263900000005
sVz
F1.9169769299999999
ssg236
(dp3966
Vy
F14.551963799999999
sVx
F0.58856799999999998
sVz
F1.9169769299999999
ssg238
I00
sg239
(dp3967
g41
VLiquid Eco
p3968
sg43
Nssg242
(lp3969
sg244
(lp3970
sg248
I01
sg35
VPT7M47.5250554S
p3971
sg32
VDeath
p3972
sg251
I1
sa(dp3973
g32
VMedal
p3974
sg39
(dp3975
g41
VnV Mikwen HCS
p3976
sg43
Nssg256
I3261908037
sg35
VPT7M47.528055S
p3977
sa(dp3978
g38
I723523180
sg32
VWeaponDrop
p3979
sg180
I1
sg44
(lp3980
I2758383128
asg35
VPT7M47.5290556S
p3981
sg183
I1
sg184
VP0DT0H0M8.3333S
p3982
sg39
(dp3983
g41
VLiquid Eco
p3984
sg43
Nssa(dp3985
g38
I4096745987
sg32
VWeaponDrop
p3986
sg180
I5
sg44
(lp3987
I2758383128
asg35
VPT7M47.5290556S
p3988
sg183
I1
sg184
VP0DT0H0M13.9000S
p3989
sg39
(dp3990
g41
VLiquid Eco
p3991
sg43
Nssa(dp3992
g38
I313138863
sg39
(dp3993
g41
VTL Spartan HCS
p3994
sg43
Nssg44
(lp3995
I1095363701
asg32
VWeaponPickup
p3996
sg35
VPT7M48.1410753S
p3997
sa(dp3998
g38
I4096745987
sg39
(dp3999
g41
VTL Spartan HCS
p4000
sg43
Nssg44
(lp4001
I2758383128
asg32
VWeaponPickup
p4002
sg35
VPT7M48.1410753S
p4003
sa(dp4004
g32
VPlayerSpawn
p4005
sg39
(dp4006
g41
VTL Spartan HCS
p4007
sg43
Nssg35
VPT7M48.1410753S
p4008
sa(dp4009
g38
I313138863
sg32
VWeaponDrop
p4010
sg180
I0
sg44
(lp4011
I1095363701
asg35
VPT7M48.3730804S
p4012
sg183
I0
sg184
VP0DT0H0M1.8833S
p4013
sg39
(dp4014
g41
VnV Mikwen HCS
p4015
sg43
Nssa(dp4016
g38
I4096745987
sg39
(dp4017
g41
VnV Mikwen HCS
p4018
sg43
Nssg44
(lp4019
I2758383128
asg32
VWeaponPickup
p4020
sg35
VPT7M48.3730804S
p4021
sa(dp4022
g38
I313138863
sg39
(dp4023
g41
VnV eL ToWn
p4024
sg43
Nssg44
(lp4025
I1095363701
asg32
VWeaponPickup
p4026
sg35
VPT7M50.8911634S
p4027
sa(dp4028
g38
I4096745987
sg39
(dp4029
g41
VnV eL ToWn
p4030
sg43
Nssg44
(lp4031
I2758383128
asg32
VWeaponPickup
p4032
sg35
VPT7M50.8911634S
p4033
sa(dp4034
g32
VPlayerSpawn
p4035
sg39
(dp4036
g41
VnV eL ToWn
p4037
sg43
Nssg35
VPT7M50.8911634S
p4038
sa(dp4039
g221
I424645655
sg222
I00
sg223
I00
sg224
(dp4040
g41
VnV Mikwen HCS
p4041
sg43
Nssg227
(lp4042
I1327094800
asg229
I00
sg230
I00
sg231
I0
sg232
I0
sg233
I0
sg234
(dp4043
Vy
F13.348362
sVx
F7.8073639999999997
sVz
F3.97648263
ssg236
(dp4044
Vy
F13.6812229
sVx
F10.335042
sVz
F4.0596594799999997
ssg238
I00
sg239
(dp4045
g615
g616
ssg242
(lp4046
sg244
(lp4047
sg248
I00
sg35
VPT7M53.4742458S
p4048
sg32
VDeath
p4049
sg251
I1
sa(dp4050
g221
I47178948
sg222
I00
sg223
I00
sg224
(dp4051
g41
VnV Mikwen HCS
p4052
sg43
Nssg227
(lp4053
sg229
I00
sg230
I00
sg231
I0
sg232
I0
sg233
I0
sg234
(dp4054
Vy
F13.348362
sVx
F7.8073639999999997
sVz
F3.97648263
ssg236
(dp4055
Vy
F13.680934000000001
sVx
F10.6369858
sVz
F4.0565579999999999
ssg238
I00
sg239
(dp4056
g615
g616
ssg242
(lp4057
sg244
(lp4058
sg248
I00
sg35
VPT7M53.4742458S
p4059
sg32
VDeath
p4060
sg251
I1
sa(dp4061
g38
I313138863
sg39
(dp4062
g41
VLiquid Eco
p4063
sg43
Nssg44
(lp4064
I1095363701
asg32
VWeaponPickup
p4065
sg35
VPT7M55.5413123S
p4066
sa(dp4067
g38
I4096745987
sg39
(dp4068
g41
VLiquid Eco
p4069
sg43
Nssg44
(lp4070
I2758383128
asg32
VWeaponPickup
p4071
sg35
VPT7M55.5413123S
p4072
sa(dp4073
g32
VPlayerSpawn
p4074
sg39
(dp4075
g41
VLiquid Eco
p4076
sg43
Nssg35
VPT7M55.5413123S
p4077
sa(dp4078
g221
I4096745987
sg222
I00
sg223
I00
sg224
(dp4079
g41
VnV RayneHCS
p4080
sg43
Nssg227
(lp4081
I2758383128
asg229
I00
sg230
I01
sg231
I1
sg232
I0
sg233
I1
sg234
(dp4082
Vy
F7.7547009999999998
sVx
F19.735246700000001
sVz
F1.6058958800000001
ssg236
(dp4083
Vy
F-5.7800874699999998
sVx
F21.726844799999999
sVz
F2.665584
ssg238
I00
sg239
(dp4084
g41
VTL StelluR
p4085
sg43
Nssg242
(lp4086
sg244
(lp4087
(dp4088
g41
VnV Mikwen HCS
p4089
sg43
Nsasg248
I01
sg35
VPT8M4.5736004S
p4090
sg32
VDeath
p4091
sg251
I1
sa(dp4092
g32
VMedal
p4093
sg39
(dp4094
g41
VnV RayneHCS
p4095
sg43
Nssg256
I2838259753
sg35
VPT8M4.5736004S
p4096
sa(dp4097
g32
VImpulse
p4098
sg39
(dp4099
g41
VnV RayneHCS
p4100
sg43
Nssg1914
I2556889090
sg35
VPT8M4.5746009S
p4101
sa(dp4102
g32
VMedal
p4103
sg39
(dp4104
g41
VnV RayneHCS
p4105
sg43
Nssg256
I3261908037
sg35
VPT8M4.5756005S
p4106
sa(dp4107
g38
I2015271382
sg32
VWeaponDrop
p4108
sg180
I0
sg44
(lp4109
I2758383128
asg35
VPT8M4.5756005S
p4110
sg183
I0
sg184
VP0DT0H0M0.4000S
p4111
sg39
(dp4112
g41
VTL StelluR
p4113
sg43
Nssa(dp4114
g38
I4096745987
sg32
VWeaponDrop
p4115
sg180
I12
sg44
(lp4116
I2758383128
asg35
VPT8M4.5756005S
p4117
sg183
I8
sg184
VP0DT0H0M20.7000S
p4118
sg39
(dp4119
g41
VTL StelluR
p4120
sg43
Nssa(dp4121
g221
I4096745987
sg222
I00
sg223
I00
sg224
(dp4122
g41
VnV RayneHCS
p4123
sg43
Nssg227
(lp4124
I2758383128
asg229
I00
sg230
I01
sg231
I1
sg232
I0
sg233
I1
sg234
(dp4125
Vy
F2.2383980000000001
sVx
F25.003665900000001
sVz
F1.6073081499999999
ssg236
(dp4126
Vy
F1.86581683
sVx
F17.6316776
sVz
F1.7452867000000001
ssg238
I00
sg239
(dp4127
g41
VTL Spartan HCS
p4128
sg43
Nssg242
(lp4129
sg244
(lp4130
(dp4131
g41
VnV Pistola HCS
p4132
sg43
Nsasg248
I00
sg35
VPT8M8.074713S
p4133
sg32
VDeath
p4134
sg251
I1
sa(dp4135
g32
VMedal
p4136
sg39
(dp4137
g41
VnV RayneHCS
p4138
sg43
Nssg256
I2838259753
sg35
VPT8M8.074713S
p4139
sa(dp4140
g32
VImpulse
p4141
sg39
(dp4142
g41
VnV RayneHCS
p4143
sg43
Nssg1914
I2556889090
sg35
VPT8M8.074713S
p4144
sa(dp4145
g32
VMedal
p4146
sg39
(dp4147
g41
VnV RayneHCS
p4148
sg43
Nssg256
I2078758684
sg35
VPT8M8.0767127S
p4149
sa(dp4150
g38
I313138863
sg32
VWeaponDrop
p4151
sg180
I3
sg44
(lp4152
I1095363701
asg35
VPT8M8.0767127S
p4153
sg183
I2
sg184
VP0DT0H0M8.8333S
p4154
sg39
(dp4155
g41
VTL Spartan HCS
p4156
sg43
Nssa(dp4157
g38
I4096745987
sg32
VWeaponDrop
p4158
sg180
I5
sg44
(lp4159
I2758383128
asg35
VPT8M8.0767127S
p4160
sg183
I5
sg184
VP0DT0H0M11.1000S
p4161
sg39
(dp4162
g41
VTL Spartan HCS
p4163
sg43
Nssa(dp4164
g38
I4096745987
sg32
VWeaponDrop
p4165
sg180
I0
sg44
(lp4166
I2758383128
asg35
VPT8M9.58976S
p4167
sg183
I0
sg184
VP0DT0H0M2.9833S
p4168
sg39
(dp4169
g41
VnV Mikwen HCS
p4170
sg43
Nssa(dp4171
g38
I723388907
sg39
(dp4172
g41
VnV Mikwen HCS
p4173
sg43
Nssg44
(lp4174
I89283061
asg32
VWeaponPickup
p4175
sg35
VPT8M9.58976S
p4176
sa(dp4177
g221
I723388907
sg222
I00
sg223
I00
sg224
(dp4178
g41
VTL Danoxide
p4179
sg43
Nssg227
(lp4180
I89283061
asg229
I00
sg230
I01
sg231
I1
sg232
I0
sg233
I1
sg234
(dp4181
Vy
F3.9514198299999999
sVx
F18.8549118
sVz
F1.8214676400000001
ssg236
(dp4182
Vy
F1.57887
sVx
F13.3779612
sVz
F0.71394443500000004
ssg238
I00
sg239
(dp4183
g41
VnV Pistola HCS
p4184
sg43
Nssg242
(lp4185
sg244
(lp4186
(dp4187
g41
VTL Spartan HCS
p4188
sg43
Nsasg248
I00
sg35
VPT8M9.956772S
p4189
sg32
VDeath
p4190
sg251
I1
sa(dp4191
g38
I4096745987
sg32
VWeaponDrop
p4192
sg180
I5
sg44
(lp4193
I2758383128
asg35
VPT8M9.9597734S
p4194
sg183
I4
sg184
VP0DT0H0M24.8667S
p4195
sg39
(dp4196
g41
VnV Pistola HCS
p4197
sg43
Nssa(dp4198
g38
I313138863
sg32
VWeaponDrop
p4199
sg180
I0
sg44
(lp4200
I1095363701
asg35
VPT8M9.9597734S
p4201
sg183
I0
sg184
VP0DT0H0M1.3000S
p4202
sg39
(dp4203
g41
VnV Pistola HCS
p4204
sg43
Nssa(dp4205
g38
I313138863
sg39
(dp4206
g41
VTL StelluR
p4207
sg43
Nssg44
(lp4208
I1095363701
asg32
VWeaponPickup
p4209
sg35
VPT8M12.5908577S
p4210
sa(dp4211
g38
I4096745987
sg39
(dp4212
g41
VTL StelluR
p4213
sg43
Nssg44
(lp4214
I2758383128
asg32
VWeaponPickup
p4215
sg35
VPT8M12.5908577S
p4216
sa(dp4217
g32
VPlayerSpawn
p4218
sg39
(dp4219
g41
VTL StelluR
p4220
sg43
Nssg35
VPT8M12.5908577S
p4221
sa(dp4222
g221
I723388907
sg222
I00
sg223
I00
sg224
(dp4223
g41
VnV RayneHCS
p4224
sg43
Nssg227
(lp4225
I89283061
asg229
I00
sg230
I01
sg231
I1
sg232
I0
sg233
I1
sg234
(dp4226
Vy
F-1.2000770000000001
sVx
F20.207789999999999
sVz
F1.0733857200000001
ssg236
(dp4227
Vy
F2.7777688500000002
sVx
F15.8172684
sVz
F0.80001809999999995
ssg238
I00
sg239
(dp4228
g41
VTL Danoxide
p4229
sg43
Nssg242
(lp4230
sg244
(lp4231
(dp4232
g41
VnV Mikwen HCS
p4233
sg43
Nsasg248
I00
sg35
VPT8M13.2748786S
p4234
sg32
VDeath
p4235
sg251
I1
sa(dp4236
g38
I723388907
sg32
VWeaponDrop
p4237
sg180
I58
sg44
(lp4238
I89283061
asg35
VPT8M13.2768784S
p4239
sg183
I14
sg184
VP0DT0H0M22.5333S
p4240
sg39
(dp4241
g41
VTL Danoxide
p4242
sg43
Nssa(dp4243
g38
I4096745987
sg32
VWeaponDrop
p4244
sg180
I6
sg44
(lp4245
I2758383128
asg35
VPT8M13.2768784S
p4246
sg183
I4
sg184
VP0DT0H0M8.1833S
p4247
sg39
(dp4248
g41
VTL Danoxide
p4249
sg43
Nssa(dp4250
g221
I4096745987
sg222
I00
sg223
I00
sg224
(dp4251
g41
VnV eL ToWn
p4252
sg43
Nssg227
(lp4253
I2758383128
asg229
I00
sg230
I01
sg231
I1
sg232
I0
sg233
I1
sg234
(dp4254
Vy
F-9.6810369999999999
sVx
F19.379056899999998
sVz
F2.13722849
ssg236
(dp4255
Vy
F-16.8159657
sVx
F20.158550000000002
sVz
F2.27037215
ssg238
I00
sg239
(dp4256
g41
VLiquid Eco
p4257
sg43
Nssg242
(lp4258
sg244
(lp4259
sg248
I01
sg35
VPT8M13.3068802S
p4260
sg32
VDeath
p4261
sg251
I1
sa(dp4262
g32
VMedal
p4263
sg39
(dp4264
g41
VnV eL ToWn
p4265
sg43
Nssg256
I3261908037
sg35
VPT8M13.3088798S
p4266
sa(dp4267
g38
I313138863
sg32
VWeaponDrop
p4268
sg180
I0
sg44
(lp4269
I1095363701
asg35
VPT8M13.3098795S
p4270
sg183
I0
sg184
VP0DT0H0M0.3667S
p4271
sg39
(dp4272
g41
VLiquid Eco
p4273
sg43
Nssa(dp4274
g38
I4096745987
sg32
VWeaponDrop
p4275
sg180
I6
sg44
(lp4276
I2758383128
asg35
VPT8M13.3098795S
p4277
sg183
I4
sg184
VP0DT0H0M17.4000S
p4278
sg39
(dp4279
g41
VLiquid Eco
p4280
sg43
Nssa(dp4281
g38
I313138863
sg32
VWeaponDrop
p4282
sg180
I0
sg44
(lp4283
I1095363701
asg35
VPT8M14.1729066S
p4284
sg183
I0
sg184
VP0DT0H0M0.9833S
p4285
sg39
(dp4286
g41
VTL StelluR
p4287
sg43
Nssa(dp4288
g38
I424645655
sg39
(dp4289
g41
VTL StelluR
p4290
sg43
Nssg44
(lp4291
I1327094800
asg32
VWeaponPickup
p4292
sg35
VPT8M14.1729066S
p4293
sa(dp4294
g38
I313138863
sg39
(dp4295
g41
VTL Spartan HCS
p4296
sg43
Nssg44
(lp4297
I1095363701
asg32
VWeaponPickup
p4298
sg35
VPT8M16.0909699S
p4299
sa(dp4300
g38
I4096745987
sg39
(dp4301
g41
VTL Spartan HCS
p4302
sg43
Nssg44
(lp4303
I2758383128
asg32
VWeaponPickup
p4304
sg35
VPT8M16.0909699S
p4305
sa(dp4306
g32
VPlayerSpawn
p4307
sg39
(dp4308
g41
VTL Spartan HCS
p4309
sg43
Nssg35
VPT8M16.0909699S
p4310
sa(dp4311
g32
VMedal
p4312
sg39
(dp4313
g41
VnV RayneHCS
p4314
sg43
Nssg256
I3400287617
sg35
VPT8M17.1730025S
p4315
sa(dp4316
g38
I313138863
sg39
(dp4317
g41
VnV Pistola HCS
p4318
sg43
Nssg44
(lp4319
I1095363701
asg32
VWeaponPickup
p4320
sg35
VPT8M17.97403S
p4321
sa(dp4322
g38
I4096745987
sg39
(dp4323
g41
VnV Pistola HCS
p4324
sg43
Nssg44
(lp4325
I2758383128
asg32
VWeaponPickup
p4326
sg35
VPT8M17.9750302S
p4327
sa(dp4328
g32
VPlayerSpawn
p4329
sg39
(dp4330
g41
VnV Pistola HCS
p4331
sg43
Nssg35
VPT8M17.9750302S
p4332
sa(dp4333
g221
I424645655
sg222
I00
sg223
I00
sg224
(dp4334
g41
VTL StelluR
p4335
sg43
Nssg227
(lp4336
I1327094800
asg229
I00
sg230
I01
sg231
I1
sg232
I0
sg233
I1
sg234
(dp4337
Vy
F-0.95924514500000002
sVx
F9.8242759999999993
sVz
F0.056474477100000003
ssg236
(dp4338
Vy
F-5.32402
sVx
F14.402456300000001
sVz
F0.0045492650000000003
ssg238
I00
sg239
(dp4339
g41
VnV eL ToWn
p4340
sg43
Nssg242
(lp4341
sg244
(lp4342
sg248
I01
sg35
VPT8M20.9571249S
p4343
sg32
VDeath
p4344
sg251
I1
sa(dp4345
g32
VImpulse
p4346
sg39
(dp4347
g41
VTL StelluR
p4348
sg43
Nssg1914
I3174430457
sg35
VPT8M20.9591242S
p4349
sa(dp4350
g32
VMedal
p4351
sg39
(dp4352
g41
VTL StelluR
p4353
sg43
Nssg256
I1080468863
sg35
VPT8M20.9601243S
p4354
sa(dp4355
g38
I313138863
sg32
VWeaponDrop
p4356
sg180
I0
sg44
(lp4357
I1095363701
asg35
VPT8M20.961125S
p4358
sg183
I0
sg184
VP0DT0H0M0.8167S
p4359
sg39
(dp4360
g41
VnV eL ToWn
p4361
sg43
Nssa(dp4362
g38
I4096745987
sg32
VWeaponDrop
p4363
sg180
I15
sg44
(lp4364
I2758383128
asg35
VPT8M20.961125S
p4365
sg183
I11
sg184
VP0DT0H0M29.2500S
p4366
sg39
(dp4367
g41
VnV eL ToWn
p4368
sg43
Nssa(dp4369
g38
I313138863
sg32
VWeaponDrop
p4370
sg180
I0
sg44
(lp4371
I1095363701
asg35
VPT8M21.0561262S
p4372
sg183
I0
sg184
VP0DT0H0M3.2833S
p4373
sg39
(dp4374
g41
VTL Spartan HCS
p4375
sg43
Nssa(dp4376
g38
I3484334713
sg39
(dp4377
g41
VTL Spartan HCS
p4378
sg43
Nssg44
(lp4379
I2758383128
asg32
VWeaponPickup
p4380
sg35
VPT8M21.0561262S
p4381
sa(dp4382
g38
I313138863
sg39
(dp4383
g41
VTL Danoxide
p4384
sg43
Nssg44
(lp4385
I1095363701
asg32
VWeaponPickup
p4386
sg35
VPT8M21.2911353S
p4387
sa(dp4388
g38
I4096745987
sg39
(dp4389
g41
VTL Danoxide
p4390
sg43
Nssg44
(lp4391
I2758383128
asg32
VWeaponPickup
p4392
sg35
VPT8M21.2921362S
p4393
sa(dp4394
g32
VPlayerSpawn
p4395
sg39
(dp4396
g41
VTL Danoxide
p4397
sg43
Nssg35
VPT8M21.2921362S
p4398
sa(dp4399
g38
I313138863
sg39
(dp4400
g41
VLiquid Eco
p4401
sg43
Nssg44
(lp4402
I1095363701
asg32
VWeaponPickup
p4403
sg35
VPT8M21.3241365S
p4404
sa(dp4405
g38
I4096745987
sg39
(dp4406
g41
VLiquid Eco
p4407
sg43
Nssg44
(lp4408
I2758383128
asg32
VWeaponPickup
p4409
sg35
VPT8M21.3251374S
p4410
sa(dp4411
g32
VPlayerSpawn
p4412
sg39
(dp4413
g41
VLiquid Eco
p4414
sg43
Nssg35
VPT8M21.3251374S
p4415
sa(dp4416
g38
I313138863
sg32
VWeaponDrop
p4417
sg180
I0
sg44
(lp4418
I1095363701
asg35
VPT8M23.1561938S
p4419
sg183
I0
sg184
VP0DT0H0M2.1167S
p4420
sg39
(dp4421
g41
VnV Pistola HCS
p4422
sg43
Nssa(dp4423
g38
I723523180
sg39
(dp4424
g41
VnV Pistola HCS
p4425
sg43
Nssg44
(lp4426
I2758383128
asg32
VWeaponPickupPad
p4427
sg35
VPT8M23.1561938S
p4428
sa(dp4429
g38
I723523180
sg39
(dp4430
g41
VnV Pistola HCS
p4431
sg43
Nssg44
(lp4432
I2758383128
asg32
VWeaponPickup
p4433
sg35
VPT8M23.1561938S
p4434
sa(dp4435
g221
I723388907
sg222
I00
sg223
I00
sg224
(dp4436
g41
VnV Mikwen HCS
p4437
sg43
Nssg227
(lp4438
I89283061
asg229
I00
sg230
I01
sg231
I1
sg232
I0
sg233
I1
sg234
(dp4439
Vy
F-0.70370449999999996
sVx
F10.159303700000001
sVz
F0.0045321880000000004
ssg236
(dp4440
Vy
F-2.6340706300000001
sVx
F10.7000761
sVz
F-0.57169519999999996
ssg238
I00
sg239
(dp4441
g41
VTL StelluR
p4442
sg43
Nssg242
(lp4443
sg244
(lp4444
(dp4445
g41
VnV eL ToWn
p4446
sg43
Nsasg248
I00
sg35
VPT8M23.1741958S
p4447
sg32
VDeath
p4448
sg251
I1
sa(dp4449
g38
I4096745987
sg32
VWeaponDrop
p4450
sg180
I0
sg44
(lp4451
I2758383128
asg35
VPT8M23.1761956S
p4452
sg183
I0
sg184
VP0DT0H0M1.1167S
p4453
sg39
(dp4454
g41
VTL StelluR
p4455
sg43
Nssa(dp4456
g38
I424645655
sg32
VWeaponDrop
p4457
sg180
I15
sg44
(lp4458
I1327094800
asg35
VPT8M23.1771967S
p4459
sg183
I11
sg184
VP0DT0H0M8.4833S
p4460
sg39
(dp4461
g41
VTL StelluR
p4462
sg43
Nssa(dp4463
g221
I4096745987
sg222
I00
sg223
I00
sg224
(dp4464
g41
VLiquid Eco
p4465
sg43
Nssg227
(lp4466
I2758383128
asg229
I00
sg230
I01
sg231
I1
sg232
I0
sg233
I1
sg234
(dp4467
Vy
F-5.3581566799999996
sVx
F5.0924172399999996
sVz
F0.0045229196500000002
ssg236
(dp4468
Vy
F1.92872417
sVx
F13.550330000000001
sVz
F1.01983058
ssg238
I00
sg239
(dp4469
g41
VnV Mikwen HCS
p4470
sg43
Nssg242
(lp4471
sg244
(lp4472
sg248
I01
sg35
VPT8M27.6903407S
p4473
sg32
VDeath
p4474
sg251
I1
sa(dp4475
g32
VMedal
p4476
sg39
(dp4477
g41
VLiquid Eco
p4478
sg43
Nssg256
I3698887726
sg35
VPT8M27.6913404S
p4479
sa(dp4480
g32
VMedal
p4481
sg39
(dp4482
g41
VLiquid Eco
p4483
sg43
Nssg256
I3261908037
sg35
VPT8M27.6923403S
p4484
sa(dp4485
g38
I424645655
sg32
VWeaponDrop
p4486
sg180
I63
sg44
(lp4487
I1327094800
asg35
VPT8M27.6933403S
p4488
sg183
I31
sg184
VP0DT0H0M45.5000S
p4489
sg39
(dp4490
g41
VnV Mikwen HCS
p4491
sg43
Nssa(dp4492
g38
I723388907
sg32
VWeaponDrop
p4493
sg180
I43
sg44
(lp4494
I89283061
asg35
VPT8M27.6933403S
p4495
sg183
I9
sg184
VP0DT0H0M8.7500S
p4496
sg39
(dp4497
g41
VnV Mikwen HCS
p4498
sg43
Nssa(dp4499
g38
I313138863
sg39
(dp4500
g41
VnV eL ToWn
p4501
sg43
Nssg44
(lp4502
I1095363701
asg32
VWeaponPickup
p4503
sg35
VPT8M28.9743822S
p4504
sa(dp4505
g38
I4096745987
sg39
(dp4506
g41
VnV eL ToWn
p4507
sg43
Nssg44
(lp4508
I2758383128
asg32
VWeaponPickup
p4509
sg35
VPT8M28.9743822S
p4510
sa(dp4511
g32
VPlayerSpawn
p4512
sg39
(dp4513
g41
VnV eL ToWn
p4514
sg43
Nssg35
VPT8M28.9743822S
p4515
sa(dp4516
g38
I313138863
sg39
(dp4517
g41
VTL StelluR
p4518
sg43
Nssg44
(lp4519
I1095363701
asg32
VWeaponPickup
p4520
sg35
VPT8M31.1904531S
p4521
sa(dp4522
g38
I4096745987
sg39
(dp4523
g41
VTL StelluR
p4524
sg43
Nssg44
(lp4525
I2758383128
asg32
VWeaponPickup
p4526
sg35
VPT8M31.1914531S
p4527
sa(dp4528
g32
VPlayerSpawn
p4529
sg39
(dp4530
g41
VTL StelluR
p4531
sg43
Nssg35
VPT8M31.1914531S
p4532
sa(dp4533
g221
I4096745987
sg222
I00
sg223
I00
sg224
(dp4534
g41
VnV eL ToWn
p4535
sg43
Nssg227
(lp4536
I2758383128
asg229
I00
sg230
I01
sg231
I1
sg232
I0
sg233
I1
sg234
(dp4537
Vy
F-5.54985046
sVx
F16.687570000000001
sVz
F2.3951778400000001
ssg236
(dp4538
Vy
F-7.940213
sVx
F-3.0761775999999998
sVz
F0.208689868
ssg238
I00
sg239
(dp4539
g41
VLiquid Eco
p4540
sg43
Nssg242
(lp4541
sg244
(lp4542
(dp4543
g41
VnV RayneHCS
p4544
sg43
Nsa(dp4545
g41
VnV Pistola HCS
p4546
sg43
Nsasg248
I01
sg35
VPT8M35.3075845S
p4547
sg32
VDeath
p4548
sg251
I1
sa(dp4549
g32
VMedal
p4550
sg39
(dp4551
g41
VnV eL ToWn
p4552
sg43
Nssg256
I352859864
sg35
VPT8M35.3075845S
p4553
sa(dp4554
g32
VImpulse
p4555
sg39
(dp4556
g41
VnV eL ToWn
p4557
sg43
Nssg1914
I2556889090
sg35
VPT8M35.3075845S
p4558
sa(dp4559
g32
VMedal
p4560
sg39
(dp4561
g41
VnV eL ToWn
p4562
sg43
Nssg256
I3261908037
sg35
VPT8M35.3085847S
p4563
sa(dp4564
g38
I313138863
sg32
VWeaponDrop
p4565
sg180
I0
sg44
(lp4566
I1095363701
asg35
VPT8M35.3095844S
p4567
sg183
I0
sg184
VP0DT0H0M0.6500S
p4568
sg39
(dp4569
g41
VLiquid Eco
p4570
sg43
Nssa(dp4571
g38
I4096745987
sg32
VWeaponDrop
p4572
sg180
I16
sg44
(lp4573
I2758383128
asg35
VPT8M35.3095844S
p4574
sg183
I10
sg184
VP0DT0H0M13.3333S
p4575
sg39
(dp4576
g41
VLiquid Eco
p4577
sg43
Nssa(dp4578
g38
I313138863
sg32
VWeaponDrop
p4579
sg180
I0
sg44
(lp4580
I1095363701
asg35
VPT8M35.522589S
p4581
sg183
I0
sg184
VP0DT0H0M1.3000S
p4582
sg39
(dp4583
g41
VTL StelluR
p4584
sg43
Nssa(dp4585
g38
I723388907
sg39
(dp4586
g41
VTL StelluR
p4587
sg43
Nssg44
(lp4588
I89283061
asg32
VWeaponPickup
p4589
sg35
VPT8M35.522589S
p4590
sa(dp4591
g38
I313138863
sg39
(dp4592
g41
VnV Mikwen HCS
p4593
sg43
Nssg44
(lp4594
I1095363701
asg32
VWeaponPickup
p4595
sg35
VPT8M35.7075976S
p4596
sa(dp4597
g38
I4096745987
sg39
(dp4598
g41
VnV Mikwen HCS
p4599
sg43
Nssg44
(lp4600
I2758383128
asg32
VWeaponPickup
p4601
sg35
VPT8M35.7075976S
p4602
sa(dp4603
g32
VPlayerSpawn
p4604
sg39
(dp4605
g41
VnV Mikwen HCS
p4606
sg43
Nssg35
VPT8M35.7075976S
p4607
sa(dp4608
g38
I4096745987
sg32
VWeaponDrop
p4609
sg180
I0
sg44
(lp4610
I2758383128
asg35
VPT8M37.4556518S
p4611
sg183
I0
sg184
VP0DT0H0M0.9333S
p4612
sg39
(dp4613
g41
VnV Mikwen HCS
p4614
sg43
Nssa(dp4615
g38
I2511447508
sg39
(dp4616
g41
VnV Mikwen HCS
p4617
sg43
Nssg44
(lp4618
I2758383128
asg32
VWeaponPickup
p4619
sg35
VPT8M37.4566537S
p4620
sa(dp4621
g38
I313138863
sg39
(dp4622
g41
VLiquid Eco
p4623
sg43
Nssg44
(lp4624
I1095363701
asg32
VWeaponPickup
p4625
sg35
VPT8M43.3248424S
p4626
sa(dp4627
g38
I4096745987
sg39
(dp4628
g41
VLiquid Eco
p4629
sg43
Nssg44
(lp4630
I2758383128
asg32
VWeaponPickup
p4631
sg35
VPT8M43.3248424S
p4632
sa(dp4633
g32
VPlayerSpawn
p4634
sg39
(dp4635
g41
VLiquid Eco
p4636
sg43
Nssg35
VPT8M43.3248424S
p4637
sa(dp4638
g38
I313138863
sg32
VWeaponDrop
p4639
sg180
I0
sg44
(lp4640
I1095363701
asg35
VPT8M46.1059466S
p4641
sg183
I0
sg184
VP0DT0H0M1.1667S
p4642
sg39
(dp4643
g41
VnV Mikwen HCS
p4644
sg43
Nssa(dp4645
g38
I1579758889
sg39
(dp4646
g41
VnV Mikwen HCS
p4647
sg43
Nssg44
(lp4648
I2758383128
asg32
VWeaponPickup
p4649
sg35
VPT8M46.1059466S
p4650
sa(dp4651
g221
I4096745987
sg222
I00
sg223
I00
sg224
(dp4652
g41
VTL StelluR
p4653
sg43
Nssg227
(lp4654
I2758383128
asg229
I00
sg230
I01
sg231
I1
sg232
I0
sg233
I1
sg234
(dp4655
Vy
F3.9535269999999998
sVx
F13.6894817
sVz
F3.7684407200000001
ssg236
(dp4656
Vy
F-7.3611430000000002
sVx
F-0.41847494200000002
sVz
F0.0045306384599999999
ssg238
I00
sg239
(dp4657
g41
VnV Mikwen HCS
p4658
sg43
Nssg242
(lp4659
sg244
(lp4660
sg248
I01
sg35
VPT8M54.6742778S
p4661
sg32
VDeath
p4662
sg251
I1
sa(dp4663
g32
VImpulse
p4664
sg39
(dp4665
g41
VTL StelluR
p4666
sg43
Nssg1914
I3174430457
sg35
VPT8M54.6752775S
p4667
sa(dp4668
g32
VMedal
p4669
sg39
(dp4670
g41
VTL StelluR
p4671
sg43
Nssg256
I3653057799
sg35
VPT8M54.6762777S
p4672
sa(dp4673
g38
I1579758889
sg32
VWeaponDrop
p4674
sg180
I0
sg44
(lp4675
I2758383128
asg35
VPT8M54.6772778S
p4676
sg183
I0
sg184
VP0DT0H0M7.1167S
p4677
sg39
(dp4678
g41
VnV Mikwen HCS
p4679
sg43
Nssa(dp4680
g38
I2511447508
sg32
VWeaponDrop
p4681
sg180
I2
sg44
(lp4682
I2758383128
asg35
VPT8M54.6772778S
p4683
sg183
I0
sg184
VP0DT0H0M9.7500S
p4684
sg39
(dp4685
g41
VnV Mikwen HCS
p4686
sg43
Nssa(dp4687
g38
I313138863
sg39
(dp4688
g41
VnV Mikwen HCS
p4689
sg43
Nssg44
(lp4690
I1095363701
asg32
VWeaponPickup
p4691
sg35
VPT9M2.6905633S
p4692
sa(dp4693
g38
I4096745987
sg39
(dp4694
g41
VnV Mikwen HCS
p4695
sg43
Nssg44
(lp4696
I2758383128
asg32
VWeaponPickup
p4697
sg35
VPT9M2.6905633S
p4698
sa(dp4699
g32
VPlayerSpawn
p4700
sg39
(dp4701
g41
VnV Mikwen HCS
p4702
sg43
Nssg35
VPT9M2.6905633S
p4703
sa(dp4704
g38
I4096745987
sg32
VWeaponDrop
p4705
sg180
I0
sg44
(lp4706
I2758383128
asg35
VPT9M4.6886248S
p4707
sg183
I0
sg184
VP0DT0H0M1.3333S
p4708
sg39
(dp4709
g41
VnV Mikwen HCS
p4710
sg43
Nssa(dp4711
g38
I2511447508
sg39
(dp4712
g41
VnV Mikwen HCS
p4713
sg43
Nssg44
(lp4714
I2758383128
asg32
VWeaponPickup
p4715
sg35
VPT9M4.6896271S
p4716
sa(dp4717
g221
I313138863
sg222
I00
sg223
I00
sg224
(dp4718
g41
VnV eL ToWn
p4719
sg43
Nssg227
(lp4720
I1095363701
asg229
I00
sg230
I01
sg231
I1
sg232
I0
sg233
I1
sg234
(dp4721
Vy
F5.9538803099999997
sVx
F5.8247323
sVz
F0.0045365989999999997
ssg236
(dp4722
Vy
F2.3919109999999999
sVx
F8.9178259999999998
sVz
F0.0045334696799999999
ssg238
I00
sg239
(dp4723
g41
VTL Spartan HCS
p4724
sg43
Nssg242
(lp4725
sg244
(lp4726
sg248
I00
sg35
VPT9M7.1237044S
p4727
sg32
VDeath
p4728
sg251
I1
sa(dp4729
g38
I3484334713
sg32
VWeaponDrop
p4730
sg180
I1
sg44
(lp4731
I2758383128
asg35
VPT9M7.1257046S
p4732
sg183
I1
sg184
VP0DT0H0M13.1167S
p4733
sg39
(dp4734
g41
VTL Spartan HCS
p4735
sg43
Nssa(dp4736
g38
I4096745987
sg32
VWeaponDrop
p4737
sg180
I1
sg44
(lp4738
I2758383128
asg35
VPT9M7.1257046S
p4739
sg183
I1
sg184
VP0DT0H0M34.6333S
p4740
sg39
(dp4741
g41
VTL Spartan HCS
p4742
sg43
Nssa(dp4743
g221
I723388907
sg222
I00
sg223
I00
sg224
(dp4744
g41
VTL StelluR
p4745
sg43
Nssg227
(lp4746
I89283061
asg229
I00
sg230
I01
sg231
I1
sg232
I0
sg233
I1
sg234
(dp4747
Vy
F5.44360876
sVx
F12.427119299999999
sVz
F0.0045318305500000001
ssg236
(dp4748
Vy
F6.5866829999999998
sVx
F7.0241346399999998
sVz
F0.0145195723
ssg238
I00
sg239
(dp4749
g41
VnV eL ToWn
p4750
sg43
Nssg242
(lp4751
sg244
(lp4752
(dp4753
g41
VTL Spartan HCS
p4754
sg43
Nsasg248
I00
sg35
VPT9M8.5917513S
p4755
sg32
VDeath
p4756
sg251
I1
sa(dp4757
g38
I313138863
sg32
VWeaponDrop
p4758
sg180
I13
sg44
(lp4759
I1095363701
asg35
VPT9M8.5937519S
p4760
sg183
I5
sg184
VP0DT0H0M3.3667S
p4761
sg39
(dp4762
g41
VnV eL ToWn
p4763
sg43
Nssa(dp4764
g38
I4096745987
sg32
VWeaponDrop
p4765
sg180
I21
sg44
(lp4766
I2758383128
asg35
VPT9M8.5937519S
p4767
sg183
I11
sg184
VP0DT0H0M36.2500S
p4768
sg39
(dp4769
g41
VnV eL ToWn
p4770
sg43
Nssa(dp4771
g38
I723388907
sg32
VWeaponDrop
p4772
sg180
I15
sg44
(lp4773
I89283061
asg35
VPT9M11.5558452S
p4774
sg183
I6
sg184
VP0DT0H0M3.9333S
p4775
sg39
(dp4776
g41
VTL StelluR
p4777
sg43
Nssa(dp4778
g38
I3484334713
sg39
(dp4779
g41
VTL StelluR
p4780
sg43
Nssg44
(lp4781
I2758383128
asg32
VWeaponPickup
p4782
sg35
VPT9M11.5558452S
p4783
sa(dp4784
g38
I313138863
sg39
(dp4785
g41
VTL Spartan HCS
p4786
sg43
Nssg44
(lp4787
I1095363701
asg32
VWeaponPickup
p4788
sg35
VPT9M15.140962S
p4789
sa(dp4790
g38
I4096745987
sg39
(dp4791
g41
VTL Spartan HCS
p4792
sg43
Nssg44
(lp4793
I2758383128
asg32
VWeaponPickup
p4794
sg35
VPT9M15.140962S
p4795
sa(dp4796
g32
VPlayerSpawn
p4797
sg39
(dp4798
g41
VTL Spartan HCS
p4799
sg43
Nssg35
VPT9M15.140962S
p4800
sa(dp4801
g221
I723523180
sg222
I00
sg223
I00
sg224
(dp4802
g41
VnV Pistola HCS
p4803
sg43
Nssg227
(lp4804
I2758383128
asg229
I00
sg230
I01
sg231
I1
sg232
I0
sg233
I1
sg234
(dp4805
Vy
F-5.9669020000000002
sVx
F-0.96053750000000004
sVz
F0.0045297145800000001
ssg236
(dp4806
Vy
F-7.6224559999999997
sVx
F-4.2887190000000004
sVz
F0.58427479999999998
ssg238
I00
sg239
(dp4807
g41
VLiquid Eco
p4808
sg43
Nssg242
(lp4809
sg244
(lp4810
sg248
I00
sg35
VPT9M16.1069922S
p4811
sg32
VDeath
p4812
sg251
I1
sa(dp4813
g38
I313138863
sg32
VWeaponDrop
p4814
sg180
I6
sg44
(lp4815
I1095363701
asg35
VPT9M16.1079926S
p4816
sg183
I5
sg184
VP0DT0H0M27.3667S
p4817
sg39
(dp4818
g41
VLiquid Eco
p4819
sg43
Nssa(dp4820
g38
I4096745987
sg32
VWeaponDrop
p4821
sg180
I0
sg44
(lp4822
I2758383128
asg35
VPT9M16.1079926S
p4823
sg183
I0
sg184
VP0DT0H0M5.4167S
p4824
sg39
(dp4825
g41
VLiquid Eco
p4826
sg43
Nssa(dp4827
g38
I313138863
sg39
(dp4828
g41
VnV eL ToWn
p4829
sg43
Nssg44
(lp4830
I1095363701
asg32
VWeaponPickup
p4831
sg35
VPT9M16.6070086S
p4832
sa(dp4833
g38
I4096745987
sg39
(dp4834
g41
VnV eL ToWn
p4835
sg43
Nssg44
(lp4836
I2758383128
asg32
VWeaponPickup
p4837
sg35
VPT9M16.6070086S
p4838
sa(dp4839
g32
VPlayerSpawn
p4840
sg39
(dp4841
g41
VnV eL ToWn
p4842
sg43
Nssg35
VPT9M16.6080089S
p4843
sa(dp4844
g221
I2511447508
sg222
I00
sg223
I00
sg224
(dp4845
g41
VnV Mikwen HCS
p4846
sg43
Nssg227
(lp4847
I2758383128
asg229
I00
sg230
I01
sg231
I1
sg232
I0
sg233
I1
sg234
(dp4848
Vy
F-12.9185429
sVx
F3.6324869999999998
sVz
F2.577429
ssg236
(dp4849
Vy
F2.6663463100000002
sVx
F3.9743714300000001
sVz
F4.0648155199999998
ssg238
I00
sg239
(dp4850
g41
VTL Danoxide
p4851
sg43
Nssg242
(lp4852
sg244
(lp4853
sg248
I00
sg35
VPT9M17.7240442S
p4854
sg32
VDeath
p4855
sg251
I1
sa(dp4856
g32
VMedal
p4857
sg39
(dp4858
g41
VnV Mikwen HCS
p4859
sg43
Nssg256
I352859864
sg35
VPT9M17.7240442S
p4860
sa(dp4861
g32
VImpulse
p4862
sg39
(dp4863
g41
VnV Mikwen HCS
p4864
sg43
Nssg1914
I2556889090
sg35
VPT9M17.7240442S
p4865
sa(dp4866
g38
I313138863
sg32
VWeaponDrop
p4867
sg180
I0
sg44
(lp4868
I1095363701
asg35
VPT9M17.7260437S
p4869
sg183
I0
sg184
VP0DT0H0M11.0500S
p4870
sg39
(dp4871
g41
VTL Danoxide
p4872
sg43
Nssa(dp4873
g38
I4096745987
sg32
VWeaponDrop
p4874
sg180
I9
sg44
(lp4875
I2758383128
asg35
VPT9M17.7260437S
p4876
sg183
I7
sg184
VP0DT0H0M45.3833S
p4877
sg39
(dp4878
g41
VTL Danoxide
p4879
sg43
Nssa(dp4880
g38
I313138863
sg32
VWeaponDrop
p4881
sg180
I0
sg44
(lp4882
I1095363701
asg35
VPT9M19.722106S
p4883
sg183
I0
sg184
VP0DT0H0M1.2667S
p4884
sg39
(dp4885
g41
VTL Spartan HCS
p4886
sg43
Nssa(dp4887
g38
I669296699
sg39
(dp4888
g41
VTL Spartan HCS
p4889
sg43
Nssg44
(lp4890
I2758383128
asg32
VWeaponPickupPad
p4891
sg35
VPT9M19.722106S
p4892
sa(dp4893
g32
VMedal
p4894
sg39
(dp4895
g41
VTL Spartan HCS
p4896
sg43
Nssg256
I2564994165
sg35
VPT9M19.722106S
p4897
sa(dp4898
g38
I669296699
sg39
(dp4899
g41
VTL Spartan HCS
p4900
sg43
Nssg44
(lp4901
I2758383128
asg32
VWeaponPickup
p4902
sg35
VPT9M19.723108S
p4903
sa(dp4904
g38
I4096745987
sg32
VWeaponDrop
p4905
sg180
I5
sg44
(lp4906
I2758383128
asg35
VPT9M21.3721593S
p4907
sg183
I2
sg184
VP0DT0H0M21.0167S
p4908
sg39
(dp4909
g41
VnV Pistola HCS
p4910
sg43
Nssa(dp4911
g38
I424645655
sg39
(dp4912
g41
VnV Pistola HCS
p4913
sg43
Nssg44
(lp4914
I1327094800
asg32
VWeaponPickup
p4915
sg35
VPT9M21.3721593S
p4916
sa(dp4917
g221
I4096745987
sg222
I00
sg223
I00
sg224
(dp4918
g41
VnV eL ToWn
p4919
sg43
Nssg227
(lp4920
I2758383128
asg229
I00
sg230
I01
sg231
I1
sg232
I0
sg233
I1
sg234
(dp4921
Vy
F-5.68566561
sVx
F23.638782500000001
sVz
F1.6205464599999999
ssg236
(dp4922
Vy
F3.6032250000000001
sVx
F22.861646700000001
sVz
F1.5272853399999999
ssg238
I00
sg239
(dp4923
g41
VTL StelluR
p4924
sg43
Nssg242
(lp4925
sg244
(lp4926
(dp4927
g41
VnV RayneHCS
p4928
sg43
Nsasg248
I01
sg35
VPT9M22.2241877S
p4929
sg32
VDeath
p4930
sg251
I1
sa(dp4931
g32
VMedal
p4932
sg39
(dp4933
g41
VnV eL ToWn
p4934
sg43
Nssg256
I3261908037
sg35
VPT9M22.2251879S
p4935
sa(dp4936
g38
I3484334713
sg32
VWeaponDrop
p4937
sg180
I1
sg44
(lp4938
I2758383128
asg35
VPT9M22.2251879S
p4939
sg183
I1
sg184
VP0DT0H0M4.3667S
p4940
sg39
(dp4941
g41
VTL StelluR
p4942
sg43
Nssa(dp4943
g38
I4096745987
sg32
VWeaponDrop
p4944
sg180
I18
sg44
(lp4945
I2758383128
asg35
VPT9M22.2251879S
p4946
sg183
I13
sg184
VP0DT0H0M41.4333S
p4947
sg39
(dp4948
g41
VTL StelluR
p4949
sg43
Nssa(dp4950
g38
I313138863
sg39
(dp4951
g41
VLiquid Eco
p4952
sg43
Nssg44
(lp4953
I1095363701
asg32
VWeaponPickup
p4954
sg35
VPT9M24.1242492S
p4955
sa(dp4956
g38
I4096745987
sg39
(dp4957
g41
VLiquid Eco
p4958
sg43
Nssg44
(lp4959
I2758383128
asg32
VWeaponPickup
p4960
sg35
VPT9M24.1242492S
p4961
sa(dp4962
g32
VPlayerSpawn
p4963
sg39
(dp4964
g41
VLiquid Eco
p4965
sg43
Nssg35
VPT9M24.1242492S
p4966
sa(dp4967
g38
I313138863
sg39
(dp4968
g41
VTL Danoxide
p4969
sg43
Nssg44
(lp4970
I1095363701
asg32
VWeaponPickup
p4971
sg35
VPT9M25.7403002S
p4972
sa(dp4973
g38
I4096745987
sg39
(dp4974
g41
VTL Danoxide
p4975
sg43
Nssg44
(lp4976
I2758383128
asg32
VWeaponPickup
p4977
sg35
VPT9M25.7413009S
p4978
sa(dp4979
g32
VPlayerSpawn
p4980
sg39
(dp4981
g41
VTL Danoxide
p4982
sg43
Nssg35
VPT9M25.7413009S
p4983
sa(dp4984
g38
I4096745987
sg32
VWeaponDrop
p4985
sg180
I0
sg44
(lp4986
I2758383128
asg35
VPT9M28.222378S
p4987
sg183
I0
sg184
VP0DT0H0M3.3667S
p4988
sg39
(dp4989
g41
VLiquid Eco
p4990
sg43
Nssa(dp4991
g38
I424645655
sg39
(dp4992
g41
VLiquid Eco
p4993
sg43
Nssg44
(lp4994
I1327094800
asg32
VWeaponPickup
p4995
sg35
VPT9M28.222378S
p4996
sa(dp4997
g221
I723523180
sg222
I00
sg223
I00
sg224
(dp4998
g41
VnV Pistola HCS
p4999
sg43
Nssg227
(lp5000
I2758383128
asg229
I00
sg230
I01
sg231
I1
sg232
I0
sg233
I1
sg234
(dp5001
Vy
F3.7199296999999998
sVx
F1.9858063500000001
sVz
F3.5011825600000002
ssg236
(dp5002
Vy
F6.7692670000000001
sVx
F-1.8002937999999999
sVz
F0.78266143799999999
ssg238
I00
sg239
(dp5003
g41
VLiquid Eco
p5004
sg43
Nssg242
(lp5005
sg244
(lp5006
sg248
I00
sg35
VPT9M29.3564156S
p5007
sg32
VDeath
p5008
sg251
I1
sa(dp5009
g38
I313138863
sg32
VWeaponDrop
p5010
sg180
I0
sg44
(lp5011
I1095363701
asg35
VPT9M29.3584167S
p5012
sg183
I0
sg184
VP0DT0H0M0.7333S
p5013
sg39
(dp5014
g41
VLiquid Eco
p5015
sg43
Nssa(dp5016
g38
I424645655
sg32
VWeaponDrop
p5017
sg180
I0
sg44
(lp5018
I1327094800
asg35
VPT9M29.3584167S
p5019
sg183
I0
sg184
VP0DT0H0M1.1333S
p5020
sg39
(dp5021
g41
VLiquid Eco
p5022
sg43
Nssa(dp5023
g38
I313138863
sg39
(dp5024
g41
VTL StelluR
p5025
sg43
Nssg44
(lp5026
I1095363701
asg32
VWeaponPickup
p5027
sg35
VPT9M30.2404451S
p5028
sa(dp5029
g38
I4096745987
sg39
(dp5030
g41
VTL StelluR
p5031
sg43
Nssg44
(lp5032
I2758383128
asg32
VWeaponPickup
p5033
sg35
VPT9M30.2414449S
p5034
sa(dp5035
g32
VPlayerSpawn
p5036
sg39
(dp5037
g41
VTL StelluR
p5038
sg43
Nssg35
VPT9M30.2414449S
p5039
sa(dp5040
g221
I723523180
sg222
I00
sg223
I00
sg224
(dp5041
g41
VnV Pistola HCS
p5042
sg43
Nssg227
(lp5043
I2758383128
asg229
I00
sg230
I01
sg231
I1
sg232
I0
sg233
I1
sg234
(dp5044
Vy
F17.072135899999999
sVx
F0.04802464
sVz
F3.8432602899999999
ssg236
(dp5045
Vy
F18.5143089
sVx
F-0.57576970000000005
sVz
F2.4999182200000001
ssg238
I00
sg239
(dp5046
g41
VTL Danoxide
p5047
sg43
Nssg242
(lp5048
sg244
(lp5049
sg248
I00
sg35
VPT9M34.4065782S
p5050
sg32
VDeath
p5051
sg251
I1
sa(dp5052
g38
I313138863
sg32
VWeaponDrop
p5053
sg180
I0
sg44
(lp5054
I1095363701
asg35
VPT9M34.4085775S
p5055
sg183
I0
sg184
VP0DT0H0M1.8000S
p5056
sg39
(dp5057
g41
VTL Danoxide
p5058
sg43
Nssa(dp5059
g38
I4096745987
sg32
VWeaponDrop
p5060
sg180
I0
sg44
(lp5061
I2758383128
asg35
VPT9M34.4085775S
p5062
sg183
I0
sg184
VP0DT0H0M6.8667S
p5063
sg39
(dp5064
g41
VTL Danoxide
p5065
sg43
Nssa(dp5066
g38
I313138863
sg32
VWeaponDrop
p5067
sg180
I0
sg44
(lp5068
I1095363701
asg35
VPT9M36.7716521S
p5069
sg183
I0
sg184
VP0DT0H0M0.8833S
p5070
sg39
(dp5071
g41
VTL StelluR
p5072
sg43
Nssa(dp5073
g38
I2015271382
sg39
(dp5074
g41
VTL StelluR
p5075
sg43
Nssg44
(lp5076
I2758383128
asg32
VWeaponPickup
p5077
sg35
VPT9M36.7726537S
p5078
sa(dp5079
g38
I313138863
sg39
(dp5080
g41
VLiquid Eco
p5081
sg43
Nssg44
(lp5082
I1095363701
asg32
VWeaponPickup
p5083
sg35
VPT9M37.3736734S
p5084
sa(dp5085
g38
I4096745987
sg39
(dp5086
g41
VLiquid Eco
p5087
sg43
Nssg44
(lp5088
I2758383128
asg32
VWeaponPickup
p5089
sg35
VPT9M37.3736734S
p5090
sa(dp5091
g32
VPlayerSpawn
p5092
sg39
(dp5093
g41
VLiquid Eco
p5094
sg43
Nssg35
VPT9M37.3736734S
p5095
sa(dp5096
g38
I313138863
sg32
VWeaponDrop
p5097
sg180
I0
sg44
(lp5098
I1095363701
asg35
VPT9M41.6718084S
p5099
sg183
I0
sg184
VP0DT0H0M0.9000S
p5100
sg39
(dp5101
g41
VnV eL ToWn
p5102
sg43
Nssa(dp5103
g38
I723388907
sg39
(dp5104
g41
VnV eL ToWn
p5105
sg43
Nssg44
(lp5106
I89283061
asg32
VWeaponPickup
p5107
sg35
VPT9M41.6728107S
p5108
sa(dp5109
g38
I313138863
sg39
(dp5110
g41
VTL Danoxide
p5111
sg43
Nssg44
(lp5112
I1095363701
asg32
VWeaponPickup
p5113
sg35
VPT9M42.4238344S
p5114
sa(dp5115
g38
I4096745987
sg39
(dp5116
g41
VTL Danoxide
p5117
sg43
Nssg44
(lp5118
I2758383128
asg32
VWeaponPickup
p5119
sg35
VPT9M42.4238344S
p5120
sa(dp5121
g32
VPlayerSpawn
p5122
sg39
(dp5123
g41
VTL Danoxide
p5124
sg43
Nssg35
VPT9M42.4238344S
p5125
sa(dp5126
g221
I424645655
sg222
I01
sg223
I00
sg224
(dp5127
g41
VnV Pistola HCS
p5128
sg43
Nssg227
(lp5129
I1327094800
asg229
I00
sg230
I00
sg231
I1
sg232
I0
sg233
I1
sg234
(dp5130
Vy
F17.731266000000002
sVx
F2.954456
sVz
F3.2878234399999999
ssg236
(dp5131
Vy
F17.512989999999999
sVx
F3.2248961899999999
sVz
F3.1404664499999999
ssg238
I00
sg239
(dp5132
g41
VTL Spartan HCS
p5133
sg43
Nssg242
(lp5134
sg244
(lp5135
(dp5136
g41
VnV Mikwen HCS
p5137
sg43
Nsasg248
I00
sg35
VPT9M43.53987S
p5138
sg32
VDeath
p5139
sg251
I1
sa(dp5140
g32
VMedal
p5141
sg39
(dp5142
g41
VnV Pistola HCS
p5143
sg43
Nssg256
I3270120991
sg35
VPT9M43.5408703S
p5144
sa(dp5145
g38
I669296699
sg32
VWeaponDrop
p5146
sg180
I3
sg44
(lp5147
I2758383128
asg35
VPT9M43.5418703S
p5148
sg183
I1
sg184
VP0DT0H0M22.4333S
p5149
sg39
(dp5150
g41
VTL Spartan HCS
p5151
sg43
Nssa(dp5152
g38
I4096745987
sg32
VWeaponDrop
p5153
sg180
I0
sg44
(lp5154
I2758383128
asg35
VPT9M43.5418703S
p5155
sg183
I0
sg184
VP0DT0H0M4.7000S
p5156
sg39
(dp5157
g41
VTL Spartan HCS
p5158
sg43
Nssa(dp5159
g38
I313138863
sg32
VWeaponDrop
p5160
sg180
I17
sg44
(lp5161
I1095363701
asg35
VPT9M44.1558895S
p5162
sg183
I7
sg184
VP0DT0H0M11.6000S
p5163
sg39
(dp5164
g41
VnV Mikwen HCS
p5165
sg43
Nssa(dp5166
g38
I4096745987
sg39
(dp5167
g41
VnV Mikwen HCS
p5168
sg43
Nssg44
(lp5169
I2758383128
asg32
VWeaponPickup
p5170
sg35
VPT9M44.1558895S
p5171
sa(dp5172
g38
I2511447508
sg32
VWeaponDrop
p5173
sg180
I6
sg44
(lp5174
I2758383128
asg35
VPT9M45.0719175S
p5175
sg183
I4
sg184
VP0DT0H0M28.7000S
p5176
sg39
(dp5177
g41
VnV Mikwen HCS
p5178
sg43
Nssa(dp5179
g38
I669296699
sg39
(dp5180
g41
VnV Mikwen HCS
p5181
sg43
Nssg44
(lp5182
I2758383128
asg32
VWeaponPickup
p5183
sg35
VPT9M45.0719175S
p5184
sa(dp5185
g38
I723523180
sg32
VWeaponDrop
p5186
sg180
I4
sg44
(lp5187
I2758383128
asg35
VPT9M46.1389513S
p5188
sg183
I4
sg184
VP0DT0H0M56.3500S
p5189
sg39
(dp5190
g41
VnV Pistola HCS
p5191
sg43
Nssa(dp5192
g38
I2511447508
sg39
(dp5193
g41
VnV Pistola HCS
p5194
sg43
Nssg44
(lp5195
I2758383128
asg32
VWeaponPickup
p5196
sg35
VPT9M46.1389513S
p5197
sa(dp5198
g38
I313138863
sg39
(dp5199
g41
VTL Spartan HCS
p5200
sg43
Nssg44
(lp5201
I1095363701
asg32
VWeaponPickup
p5202
sg35
VPT9M51.5581274S
p5203
sa(dp5204
g38
I4096745987
sg39
(dp5205
g41
VTL Spartan HCS
p5206
sg43
Nssg44
(lp5207
I2758383128
asg32
VWeaponPickup
p5208
sg35
VPT9M51.5581274S
p5209
sa(dp5210
g32
VPlayerSpawn
p5211
sg39
(dp5212
g41
VTL Spartan HCS
p5213
sg43
Nssg35
VPT9M51.5581274S
p5214
sa(dp5215
g221
I313138863
sg222
I00
sg223
I00
sg224
(dp5216
g41
VLiquid Eco
p5217
sg43
Nssg227
(lp5218
I1095363701
asg229
I00
sg230
I01
sg231
I1
sg232
I0
sg233
I1
sg234
(dp5219
Vy
F12.877512899999999
sVx
F5.4576070000000003
sVz
F5.2910695099999998
ssg236
(dp5220
Vy
F13.6152239
sVx
F5.0393786399999998
sVz
F3.6160185299999998
ssg238
I00
sg239
(dp5221
g41
VnV Pistola HCS
p5222
sg43
Nssg242
(lp5223
sg244
(lp5224
(dp5225
g41
VTL StelluR
p5226
sg43
Nsa(dp5227
g41
VTL Danoxide
p5228
sg43
Nsasg248
I00
sg35
VPT9M58.9403625S
p5229
sg32
VDeath
p5230
sg251
I1
sa(dp5231
g38
I2511447508
sg32
VWeaponDrop
p5232
sg180
I0
sg44
(lp5233
I2758383128
asg35
VPT9M58.941363S
p5234
sg183
I0
sg184
VP0DT0H0M0.5667S
p5235
sg39
(dp5236
g41
VnV Pistola HCS
p5237
sg43
Nssa(dp5238
g38
I424645655
sg32
VWeaponDrop
p5239
sg180
I36
sg44
(lp5240
I1327094800
asg35
VPT9M58.941363S
p5241
sg183
I13
sg184
VP0DT0H0M20.9167S
p5242
sg39
(dp5243
g41
VnV Pistola HCS
p5244
sg43
Nssa(dp5245
g38
I424645655
sg32
VWeaponDrop
p5246
sg180
I0
sg44
(lp5247
I1327094800
asg35
VPT9M58.941363S
p5248
sg183
I0
sg184
VP0DT0S
p5249
sg39
(dp5250
g41
VnV Pistola HCS
p5251
sg43
Nssa(dp5252
g32
VMedal
p5253
sg39
(dp5254
g41
VLiquid Eco
p5255
sg43
Nssg256
I3400287617
sg35
VPT10M5.2895665S
p5256
sa(dp5257
g38
I313138863
sg39
(dp5258
g41
VnV Pistola HCS
p5259
sg43
Nssg44
(lp5260
I1095363701
asg32
VWeaponPickup
p5261
sg35
VPT10M6.95662S
p5262
sa(dp5263
g38
I4096745987
sg39
(dp5264
g41
VnV Pistola HCS
p5265
sg43
Nssg44
(lp5266
I2758383128
asg32
VWeaponPickup
p5267
sg35
VPT10M6.95662S
p5268
sa(dp5269
g32
VPlayerSpawn
p5270
sg39
(dp5271
g41
VnV Pistola HCS
p5272
sg43
Nssg35
VPT10M6.95662S
p5273
sa(dp5274
g221
I723388907
sg222
I00
sg223
I00
sg224
(dp5275
g41
VnV RayneHCS
p5276
sg43
Nssg227
(lp5277
I89283061
asg229
I00
sg230
I01
sg231
I1
sg232
I0
sg233
I1
sg234
(dp5278
Vy
F1.4611418199999999
sVx
F15.695959999999999
sVz
F1.8945727299999999
ssg236
(dp5279
Vy
F2.8437211499999999
sVx
F19.1863575
sVz
F0.80000300000000002
ssg238
I00
sg239
(dp5280
g41
VTL Danoxide
p5281
sg43
Nssg242
(lp5282
sg244
(lp5283
sg248
I00
sg35
VPT10M22.9401307S
p5284
sg32
VDeath
p5285
sg251
I1
sa(dp5286
g38
I313138863
sg32
VWeaponDrop
p5287
sg180
I18
sg44
(lp5288
I1095363701
asg35
VPT10M22.9421309S
p5289
sg183
I9
sg184
VP0DT0H0M13.6333S
p5290
sg39
(dp5291
g41
VTL Danoxide
p5292
sg43
Nssa(dp5293
g38
I313138863
sg32
VWeaponDrop
p5294
sg180
I0
sg44
(lp5295
I1095363701
asg35
VPT10M22.9421309S
p5296
sg183
I0
sg184
VP0DT0S
p5297
sg39
(dp5298
g41
VTL Danoxide
p5299
sg43
Nssa(dp5300
g38
I4096745987
sg32
VWeaponDrop
p5301
sg180
I9
sg44
(lp5302
I2758383128
asg35
VPT10M22.9421309S
p5303
sg183
I5
sg184
VP0DT0H0M26.8833S
p5304
sg39
(dp5305
g41
VTL Danoxide
p5306
sg43
Nssa(dp5307
g221
I4096745987
sg222
I00
sg223
I00
sg224
(dp5308
g41
VTL Spartan HCS
p5309
sg43
Nssg227
(lp5310
I2758383128
asg229
I00
sg230
I01
sg231
I1
sg232
I0
sg233
I1
sg234
(dp5311
Vy
F-9.855677
sVx
F8.9012650000000004
sVz
F3.1403884899999999
ssg236
(dp5312
Vy
F-6.0857049999999999
sVx
F2.42641068
sVz
F0.59338139999999995
ssg238
I00
sg239
(dp5313
g41
VnV eL ToWn
p5314
sg43
Nssg242
(lp5315
sg244
(lp5316
sg248
I01
sg35
VPT10M23.3061427S
p5317
sg32
VDeath
p5318
sg251
I1
sa(dp5319
g32
VImpulse
p5320
sg39
(dp5321
g41
VTL Spartan HCS
p5322
sg43
Nssg1914
I3174430457
sg35
VPT10M23.3081422S
p5323
sa(dp5324
g32
VMedal
p5325
sg39
(dp5326
g41
VTL Spartan HCS
p5327
sg43
Nssg256
I3653057799
sg35
VPT10M23.3081422S
p5328
sa(dp5329
g38
I723388907
sg32
VWeaponDrop
p5330
sg180
I0
sg44
(lp5331
I89283061
asg35
VPT10M23.3091424S
p5332
sg183
I0
sg184
VP0DT0H0M14.4667S
p5333
sg39
(dp5334
g41
VnV eL ToWn
p5335
sg43
Nssa(dp5336
g38
I4096745987
sg32
VWeaponDrop
p5337
sg180
I22
sg44
(lp5338
I2758383128
asg35
VPT10M23.3091424S
p5339
sg183
I8
sg184
VP0DT0H0M51.3333S
p5340
sg39
(dp5341
g41
VnV eL ToWn
p5342
sg43
Nssa(dp5343
g221
I4096745987
sg222
I00
sg223
I00
sg224
(dp5344
g41
VLiquid Eco
p5345
sg43
Nssg227
(lp5346
I2758383128
asg229
I00
sg230
I01
sg231
I1
sg232
I0
sg233
I1
sg234
(dp5347
Vy
F9.1226970000000005
sVx
F19.857463800000001
sVz
F1.605896
ssg236
(dp5348
Vy
F-1.7432954300000001
sVx
F21.788948099999999
sVz
F0.80002033699999997
ssg238
I00
sg239
(dp5349
g41
VnV Pistola HCS
p5350
sg43
Nssg242
(lp5351
sg244
(lp5352
sg248
I01
sg35
VPT10M24.5061804S
p5353
sg32
VDeath
p5354
sg251
I1
sa(dp5355
g32
VMedal
p5356
sg39
(dp5357
g41
VLiquid Eco
p5358
sg43
Nssg256
I3261908037
sg35
VPT10M24.508181S
p5359
sa(dp5360
g38
I313138863
sg32
VWeaponDrop
p5361
sg180
I0
sg44
(lp5362
I1095363701
asg35
VPT10M24.5091815S
p5363
sg183
I0
sg184
VP0DT0H0M0.6167S
p5364
sg39
(dp5365
g41
VnV Pistola HCS
p5366
sg43
Nssa(dp5367
g38
I4096745987
sg32
VWeaponDrop
p5368
sg180
I9
sg44
(lp5369
I2758383128
asg35
VPT10M24.5091815S
p5370
sg183
I5
sg184
VP0DT0H0M16.9333S
p5371
sg39
(dp5372
g41
VnV Pistola HCS
p5373
sg43
Nssa(dp5374
g32
VMedal
p5375
sg39
(dp5376
g41
VnV RayneHCS
p5377
sg43
Nssg256
I3400287617
sg35
VPT10M26.9052563S
p5378
sa(dp5379
g221
I723388907
sg222
I00
sg223
I00
sg224
(dp5380
g41
VnV RayneHCS
p5381
sg43
Nssg227
(lp5382
I89283061
asg229
I00
sg230
I01
sg231
I1
sg232
I0
sg233
I1
sg234
(dp5383
Vy
F3.969757
sVx
F16.181806600000002
sVz
F3.1935190000000002
ssg236
(dp5384
Vy
F7.6906860000000004
sVx
F15.358295399999999
sVz
F1.76829529
ssg238
I00
sg239
(dp5385
g41
VLiquid Eco
p5386
sg43
Nssg242
(lp5387
sg244
(lp5388
(dp5389
g41
VnV Pistola HCS
p5390
sg43
Nsasg248
I00
sg35
VPT10M27.5062766S
p5391
sg32
VDeath
p5392
sg251
I1
sa(dp5393
g32
VMedal
p5394
sg39
(dp5395
g41
VnV RayneHCS
p5396
sg43
Nssg256
I2430242797
sg35
VPT10M27.5072765S
p5397
sa(dp5398
g32
VMedal
p5399
sg39
(dp5400
g41
VnV RayneHCS
p5401
sg43
Nssg256
I2078758684
sg35
VPT10M27.5072765S
p5402
sa(dp5403
g38
I313138863
sg32
VWeaponDrop
p5404
sg180
I21
sg44
(lp5405
I1095363701
asg35
VPT10M27.5082772S
p5406
sg183
I9
sg184
VP0DT0H0M18.0500S
p5407
sg39
(dp5408
g41
VLiquid Eco
p5409
sg43
Nssa(dp5410
g38
I4096745987
sg32
VWeaponDrop
p5411
sg180
I16
sg44
(lp5412
I2758383128
asg35
VPT10M27.5082772S
p5413
sg183
I4
sg184
VP0DT0H0M32.0833S
p5414
sg39
(dp5415
g41
VLiquid Eco
p5416
sg43
Nssa(dp5417
g38
I313138863
sg39
(dp5418
g41
VTL Danoxide
p5419
sg43
Nssg44
(lp5420
I1095363701
asg32
VWeaponPickup
p5421
sg35
VPT10M30.956388S
p5422
sa(dp5423
g38
I4096745987
sg39
(dp5424
g41
VTL Danoxide
p5425
sg43
Nssg44
(lp5426
I2758383128
asg32
VWeaponPickup
p5427
sg35
VPT10M30.956388S
p5428
sa(dp5429
g32
VPlayerSpawn
p5430
sg39
(dp5431
g41
VTL Danoxide
p5432
sg43
Nssg35
VPT10M30.956388S
p5433
sa(dp5434
g38
I313138863
sg39
(dp5435
g41
VnV eL ToWn
p5436
sg43
Nssg44
(lp5437
I1095363701
asg32
VWeaponPickup
p5438
sg35
VPT10M31.3233997S
p5439
sa(dp5440
g38
I4096745987
sg39
(dp5441
g41
VnV eL ToWn
p5442
sg43
Nssg44
(lp5443
I2758383128
asg32
VWeaponPickup
p5444
sg35
VPT10M31.3233997S
p5445
sa(dp5446
g32
VPlayerSpawn
p5447
sg39
(dp5448
g41
VnV eL ToWn
p5449
sg43
Nssg35
VPT10M31.3233997S
p5450
sa(dp5451
g38
I723388907
sg32
VWeaponDrop
p5452
sg180
I92
sg44
(lp5453
I89283061
asg35
VPT10M31.5054043S
p5454
sg183
I37
sg184
VP0DT0H0M43.7667S
p5455
sg39
(dp5456
g41
VnV RayneHCS
p5457
sg43
Nssa(dp5458
g38
I723388907
sg32
VWeaponDrop
p5459
sg180
I0
sg44
(lp5460
I89283061
asg35
VPT10M31.5054043S
p5461
sg183
I0
sg184
VP0DT0S
p5462
sg39
(dp5463
g41
VnV RayneHCS
p5464
sg43
Nssa(dp5465
g38
I723523180
sg39
(dp5466
g41
VnV RayneHCS
p5467
sg43
Nssg44
(lp5468
I2758383128
asg32
VWeaponPickupPad
p5469
sg35
VPT10M31.5054043S
p5470
sa(dp5471
g32
VMedal
p5472
sg39
(dp5473
g41
VnV RayneHCS
p5474
sg43
Nssg256
I2564994165
sg35
VPT10M31.5054043S
p5475
sa(dp5476
g38
I723523180
sg39
(dp5477
g41
VnV RayneHCS
p5478
sg43
Nssg44
(lp5479
I2758383128
asg32
VWeaponPickup
p5480
sg35
VPT10M31.5054043S
p5481
sa(dp5482
g221
I4096745987
sg222
I00
sg223
I00
sg224
(dp5483
g41
VTL StelluR
p5484
sg43
Nssg227
(lp5485
I2758383128
asg229
I00
sg230
I01
sg231
I1
sg232
I0
sg233
I1
sg234
(dp5486
Vy
F-0.43998490000000001
sVx
F12.1026106
sVz
F2.1077308700000001
ssg236
(dp5487
Vy
F-0.37836160000000002
sVx
F19.7373352
sVz
F1.4758324599999999
ssg238
I00
sg239
(dp5488
g41
VnV RayneHCS
p5489
sg43
Nssg242
(lp5490
sg244
(lp5491
(dp5492
g41
VLiquid Eco
p5493
sg43
Nsasg248
I01
sg35
VPT10M31.9224174S
p5494
sg32
VDeath
p5495
sg251
I1
sa(dp5496
g32
VMedal
p5497
sg39
(dp5498
g41
VTL StelluR
p5499
sg43
Nssg256
I3261908037
sg35
VPT10M31.9244183S
p5500
sa(dp5501
g38
I723523180
sg32
VWeaponDrop
p5502
sg180
I0
sg44
(lp5503
I2758383128
asg35
VPT10M31.9244183S
p5504
sg183
I0
sg184
VP0DT0H0M0.4167S
p5505
sg39
(dp5506
g41
VnV RayneHCS
p5507
sg43
Nssa(dp5508
g38
I4096745987
sg32
VWeaponDrop
p5509
sg180
I33
sg44
(lp5510
I2758383128
asg35
VPT10M31.9244183S
p5511
sg183
I18
sg184
VP0DT0H2M6.9000S
p5512
sg39
(dp5513
g41
VnV RayneHCS
p5514
sg43
Nssa(dp5515
g38
I313138863
sg39
(dp5516
g41
VnV Pistola HCS
p5517
sg43
Nssg44
(lp5518
I1095363701
asg32
VWeaponPickup
p5519
sg35
VPT10M32.5234381S
p5520
sa(dp5521
g38
I4096745987
sg39
(dp5522
g41
VnV Pistola HCS
p5523
sg43
Nssg44
(lp5524
I2758383128
asg32
VWeaponPickup
p5525
sg35
VPT10M32.5234381S
p5526
sa(dp5527
g32
VPlayerSpawn
p5528
sg39
(dp5529
g41
VnV Pistola HCS
p5530
sg43
Nssg35
VPT10M32.5234381S
p5531
sa(dp5532
g38
I313138863
sg39
(dp5533
g41
VLiquid Eco
p5534
sg43
Nssg44
(lp5535
I1095363701
asg32
VWeaponPickup
p5536
sg35
VPT10M35.5235339S
p5537
sa(dp5538
g38
I4096745987
sg39
(dp5539
g41
VLiquid Eco
p5540
sg43
Nssg44
(lp5541
I2758383128
asg32
VWeaponPickup
p5542
sg35
VPT10M35.5235339S
p5543
sa(dp5544
g32
VPlayerSpawn
p5545
sg39
(dp5546
g41
VLiquid Eco
p5547
sg43
Nssg35
VPT10M35.5235339S
p5548
sa(dp5549
g38
I2015271382
sg32
VWeaponDrop
p5550
sg180
I0
sg44
(lp5551
I2758383128
asg35
VPT10M37.454594S
p5552
sg183
I0
sg184
VP0DT0H0M1.7000S
p5553
sg39
(dp5554
g41
VTL StelluR
p5555
sg43
Nssa(dp5556
g38
I723523180
sg39
(dp5557
g41
VTL StelluR
p5558
sg43
Nssg44
(lp5559
I2758383128
asg32
VWeaponPickup
p5560
sg35
VPT10M37.4555955S
p5561
sa(dp5562
g38
I313138863
sg32
VWeaponDrop
p5563
sg180
I0
sg44
(lp5564
I1095363701
asg35
VPT10M39.2386516S
p5565
sg183
I0
sg184
VP0DT0H0M0.9000S
p5566
sg39
(dp5567
g41
VnV eL ToWn
p5568
sg43
Nssa(dp5569
g38
I723388907
sg39
(dp5570
g41
VnV eL ToWn
p5571
sg43
Nssg44
(lp5572
I89283061
asg32
VWeaponPickup
p5573
sg35
VPT10M39.2386516S
p5574
sa(dp5575
g38
I313138863
sg39
(dp5576
g41
VnV RayneHCS
p5577
sg43
Nssg44
(lp5578
I1095363701
asg32
VWeaponPickup
p5579
sg35
VPT10M39.9416754S
p5580
sa(dp5581
g38
I4096745987
sg39
(dp5582
g41
VnV RayneHCS
p5583
sg43
Nssg44
(lp5584
I2758383128
asg32
VWeaponPickup
p5585
sg35
VPT10M39.9416754S
p5586
sa(dp5587
g32
VPlayerSpawn
p5588
sg39
(dp5589
g41
VnV RayneHCS
p5590
sg43
Nssg35
VPT10M39.9416754S
p5591
sa(dp5592
g221
I4106030681
sg222
I00
sg223
I00
sg224
(dp5593
g41
VLiquid Eco
p5594
sg43
Nssg227
(lp5595
sg229
I00
sg230
I01
sg231
I1
sg232
I0
sg233
I1
sg234
(dp5596
Vy
F-3.9390165800000001
sVx
F-0.82383439999999997
sVz
F2.6671638500000001
ssg236
(dp5597
Vy
F-9.8727079999999994
sVx
F11.3882751
sVz
F3.14038825
ssg238
I00
sg239
(dp5598
g41
VnV Mikwen HCS
p5599
sg43
Nssg242
(lp5600
sg244
(lp5601
(dp5602
g41
VTL Spartan HCS
p5603
sg43
Nsasg248
I00
sg35
VPT10M41.5727273S
p5604
sg32
VDeath
p5605
sg251
I1
sa(dp5606
g38
I4096745987
sg32
VWeaponDrop
p5607
sg180
I1
sg44
(lp5608
I2758383128
asg35
VPT10M41.574727S
p5609
sg183
I0
sg184
VP0DT0H0M4.7167S
p5610
sg39
(dp5611
g41
VnV Mikwen HCS
p5612
sg43
Nssa(dp5613
g38
I669296699
sg32
VWeaponDrop
p5614
sg180
I4
sg44
(lp5615
I2758383128
asg35
VPT10M41.574727S
p5616
sg183
I1
sg184
VP0DT0H0M52.5333S
p5617
sg39
(dp5618
g41
VnV Mikwen HCS
p5619
sg43
Nssa(dp5620
g38
I313138863
sg32
VWeaponDrop
p5621
sg180
I8
sg44
(lp5622
I1095363701
asg35
VPT10M42.8217651S
p5623
sg183
I1
sg184
VP0DT0H0M16.9667S
p5624
sg39
(dp5625
g41
VTL Spartan HCS
p5626
sg43
Nssa(dp5627
g38
I669296699
sg39
(dp5628
g41
VTL Spartan HCS
p5629
sg43
Nssg44
(lp5630
I2758383128
asg32
VWeaponPickup
p5631
sg35
VPT10M42.8217651S
p5632
sa(dp5633
g221
I723523180
sg222
I00
sg223
I00
sg224
(dp5634
g41
VTL StelluR
p5635
sg43
Nssg227
(lp5636
I2758383128
asg229
I00
sg230
I00
sg231
I2
sg232
I0
sg233
I0
sg234
(dp5637
Vy
F3.7434751999999998
sVx
F17.6190262
sVz
F2.0017197100000002
ssg236
(dp5638
Vy
F0.0024245388300000001
sVx
F25.092289999999998
sVz
F1.61462975
ssg238
I00
sg239
(dp5639
g615
g616
ssg242
(lp5640
sg244
(lp5641
sg248
I00
sg35
VPT10M44.8058309S
p5642
sg32
VDeath
p5643
sg251
I1
sa(dp5644
g221
I723523180
sg222
I00
sg223
I00
sg224
(dp5645
g41
VTL StelluR
p5646
sg43
Nssg227
(lp5647
I2758383128
asg229
I00
sg230
I01
sg231
I1
sg232
I0
sg233
I1
sg234
(dp5648
Vy
F7.1937530000000001
sVx
F14.5272083
sVz
F0.0042170286200000004
ssg236
(dp5649
Vy
F7.0258016599999999
sVx
F10.238049500000001
sVz
F1.0076216499999999
ssg238
I00
sg239
(dp5650
g41
VnV eL ToWn
p5651
sg43
Nssg242
(lp5652
sg244
(lp5653
(dp5654
g41
VTL Danoxide
p5655
sg43
Nsa(dp5656
g41
VLiquid Eco
p5657
sg43
Nsasg248
I00
sg35
VPT10M49.4559798S
p5658
sg32
VDeath
p5659
sg251
I1
sa(dp5660
g38
I723388907
sg32
VWeaponDrop
p5661
sg180
I19
sg44
(lp5662
I89283061
asg35
VPT10M49.4569799S
p5663
sg183
I8
sg184
VP0DT0H0M8.3333S
p5664
sg39
(dp5665
g41
VnV eL ToWn
p5666
sg43
Nssa(dp5667
g38
I4096745987
sg32
VWeaponDrop
p5668
sg180
I4
sg44
(lp5669
I2758383128
asg35
VPT10M49.4569799S
p5670
sg183
I1
sg184
VP0DT0H0M8.9000S
p5671
sg39
(dp5672
g41
VnV eL ToWn
p5673
sg43
Nssa(dp5674
g38
I313138863
sg39
(dp5675
g41
VnV Mikwen HCS
p5676
sg43
Nssg44
(lp5677
I1095363701
asg32
VWeaponPickup
p5678
sg35
VPT10M49.5899845S
p5679
sa(dp5680
g38
I4096745987
sg39
(dp5681
g41
VnV Mikwen HCS
p5682
sg43
Nssg44
(lp5683
I2758383128
asg32
VWeaponPickup
p5684
sg35
VPT10M49.5899845S
p5685
sa(dp5686
g32
VPlayerSpawn
p5687
sg39
(dp5688
g41
VnV Mikwen HCS
p5689
sg43
Nssg35
VPT10M49.5899845S
p5690
sa(dp5691
g221
I669296699
sg222
I00
sg223
I01
sg224
(dp5692
g41
VTL Spartan HCS
p5693
sg43
Nssg227
(lp5694
I2758383128
asg229
I00
sg230
I00
sg231
I1
sg232
I0
sg233
I1
sg234
(dp5695
Vy
F-13.6721334
sVx
F8.3391769999999994
sVz
F2.1710076300000001
ssg236
(dp5696
Vy
F-13.8803158
sVx
F8.0641250000000007
sVz
F2.20691872
ssg238
I00
sg239
(dp5697
g41
VnV RayneHCS
p5698
sg43
Nssg242
(lp5699
sg244
(lp5700
sg248
I00
sg35
VPT10M52.2230746S
p5701
sg32
VDeath
p5702
sg251
I1
sa(dp5703
g32
VMedal
p5704
sg39
(dp5705
g41
VTL Spartan HCS
p5706
sg43
Nssg256
I250435527
sg35
VPT10M52.2240751S
p5707
sa(dp5708
g38
I313138863
sg32
VWeaponDrop
p5709
sg180
I0
sg44
(lp5710
I1095363701
asg35
VPT10M52.2250751S
p5711
sg183
I0
sg184
VP0DT0H0M8.0500S
p5712
sg39
(dp5713
g41
VnV RayneHCS
p5714
sg43
Nssa(dp5715
g38
I4096745987
sg32
VWeaponDrop
p5716
sg180
I0
sg44
(lp5717
I2758383128
asg35
VPT10M52.2250751S
p5718
sg183
I0
sg184
VP0DT0H0M4.2333S
p5719
sg39
(dp5720
g41
VnV RayneHCS
p5721
sg43
Nssa(dp5722
g221
I4096745987
sg222
I00
sg223
I00
sg224
(dp5723
g41
VTL Danoxide
p5724
sg43
Nssg227
(lp5725
I2758383128
asg229
I00
sg230
I01
sg231
I1
sg232
I0
sg233
I1
sg234
(dp5726
Vy
F9.7149780000000003
sVx
F12.325002700000001
sVz
F1.6481891900000001
ssg236
(dp5727
Vy
F10.758255
sVx
F14.846219100000001
sVz
F2.30636668
ssg238
I00
sg239
(dp5728
g41
VnV Pistola HCS
p5729
sg43
Nssg242
(lp5730
sg244
(lp5731
sg248
I00
sg35
VPT10M53.5561259S
p5732
sg32
VDeath
p5733
sg251
I1
sa(dp5734
g38
I313138863
sg32
VWeaponDrop
p5735
sg180
I0
sg44
(lp5736
I1095363701
asg35
VPT10M53.5581262S
p5737
sg183
I0
sg184
VP0DT0H0M1.4833S
p5738
sg39
(dp5739
g41
VnV Pistola HCS
p5740
sg43
Nssa(dp5741
g38
I4096745987
sg32
VWeaponDrop
p5742
sg180
I1
sg44
(lp5743
I2758383128
asg35
VPT10M53.5581262S
p5744
sg183
I0
sg184
VP0DT0H0M19.5500S
p5745
sg39
(dp5746
g41
VnV Pistola HCS
p5747
sg43
Nssa(dp5748
g221
I2460880172
sg222
I00
sg223
I00
sg224
(dp5749
g41
VnV Pistola HCS
p5750
sg43
Nssg227
(lp5751
sg229
I00
sg230
I01
sg231
I1
sg232
I0
sg233
I1
sg234
(dp5752
Vy
F9.9693210000000008
sVx
F14.911060000000001
sVz
F2.9901209999999998
ssg236
(dp5753
Vy
F10.129726399999999
sVx
F14.215723000000001
sVz
F1.6856387900000001
ssg238
I00
sg239
(dp5754
g41
VTL Danoxide
p5755
sg43
Nssg242
(lp5756
sg244
(lp5757
(dp5758
g41
VnV Mikwen HCS
p5759
sg43
Nsasg248
I00
sg35
VPT10M54.1391485S
p5760
sg32
VDeath
p5761
sg251
I1
sa(dp5762
g32
VMedal
p5763
sg39
(dp5764
g41
VnV Pistola HCS
p5765
sg43
Nssg256
I2251767925
sg35
VPT10M54.1401488S
p5766
sa(dp5767
g32
VMedal
p5768
sg39
(dp5769
g41
VnV Pistola HCS
p5770
sg43
Nssg256
I285057226
sg35
VPT10M54.1401488S
p5771
sa(dp5772
g38
I313138863
sg32
VWeaponDrop
p5773
sg180
I0
sg44
(lp5774
I1095363701
asg35
VPT10M54.1401488S
p5775
sg183
I0
sg184
VP0DT0H0M1.5000S
p5776
sg39
(dp5777
g41
VTL Danoxide
p5778
sg43
Nssa(dp5779
g38
I4096745987
sg32
VWeaponDrop
p5780
sg180
I25
sg44
(lp5781
I2758383128
asg35
VPT10M54.1401488S
p5782
sg183
I11
sg184
VP0DT0H0M21.6833S
p5783
sg39
(dp5784
g41
VTL Danoxide
p5785
sg43
Nssa(dp5786
g38
I313138863
sg39
(dp5787
g41
VnV eL ToWn
p5788
sg43
Nssg44
(lp5789
I1095363701
asg32
VWeaponPickup
p5790
sg35
VPT10M57.4732769S
p5791
sa(dp5792
g38
I4096745987
sg39
(dp5793
g41
VnV eL ToWn
p5794
sg43
Nssg44
(lp5795
I2758383128
asg32
VWeaponPickup
p5796
sg35
VPT10M57.4732769S
p5797
sa(dp5798
g32
VPlayerSpawn
p5799
sg39
(dp5800
g41
VnV eL ToWn
p5801
sg43
Nssg35
VPT10M57.4732769S
p5802
sa(dp5803
g221
I723523180
sg222
I00
sg223
I00
sg224
(dp5804
g41
VTL StelluR
p5805
sg43
Nssg227
(lp5806
I2758383128
asg229
I00
sg230
I01
sg231
I1
sg232
I0
sg233
I1
sg234
(dp5807
Vy
F7.6333399999999996
sVx
F0.1117452
sVz
F0.4795565
ssg236
(dp5808
Vy
F5.1383070000000002
sVx
F-3.2998780000000001
sVz
F1.6364281199999999
ssg238
I00
sg239
(dp5809
g41
VnV Mikwen HCS
p5810
sg43
Nssg242
(lp5811
sg244
(lp5812
(dp5813
g41
VLiquid Eco
p5814
sg43
Nsasg248
I00
sg35
VPT10M59.1723413S
p5815
sg32
VDeath
p5816
sg251
I1
sa(dp5817
g32
VMedal
p5818
sg39
(dp5819
g41
VTL StelluR
p5820
sg43
Nssg256
I3698887726
sg35
VPT10M59.1723413S
p5821
sa(dp5822
g38
I313138863
sg32
VWeaponDrop
p5823
sg180
I0
sg44
(lp5824
I1095363701
asg35
VPT10M59.1743418S
p5825
sg183
I0
sg184
VP0DT0H0M1.0500S
p5826
sg39
(dp5827
g41
VnV Mikwen HCS
p5828
sg43
Nssa(dp5829
g38
I4096745987
sg32
VWeaponDrop
p5830
sg180
I9
sg44
(lp5831
I2758383128
asg35
VPT10M59.1743418S
p5832
sg183
I5
sg184
VP0DT0H0M8.5333S
p5833
sg39
(dp5834
g41
VnV Mikwen HCS
p5835
sg43
Nssa(dp5836
g38
I313138863
sg39
(dp5837
g41
VnV RayneHCS
p5838
sg43
Nssg44
(lp5839
I1095363701
asg32
VWeaponPickup
p5840
sg35
VPT11M0.2403832S
p5841
sa(dp5842
g38
I4096745987
sg39
(dp5843
g41
VnV RayneHCS
p5844
sg43
Nssg44
(lp5845
I2758383128
asg32
VWeaponPickup
p5846
sg35
VPT11M0.2403832S
p5847
sa(dp5848
g32
VPlayerSpawn
p5849
sg39
(dp5850
g41
VnV RayneHCS
p5851
sg43
Nssg35
VPT11M0.2403832S
p5852
sa(dp5853
g38
I313138863
sg32
VWeaponDrop
p5854
sg180
I0
sg44
(lp5855
I1095363701
asg35
VPT11M0.2883829S
p5856
sg183
I0
sg184
VP0DT0H0M1.1167S
p5857
sg39
(dp5858
g41
VnV eL ToWn
p5859
sg43
Nssa(dp5860
g38
I3484334713
sg39
(dp5861
g41
VnV eL ToWn
p5862
sg43
Nssg44
(lp5863
I2758383128
asg32
VWeaponPickup
p5864
sg35
VPT11M0.2883829S
p5865
sa(dp5866
g38
I723523180
sg32
VWeaponDrop
p5867
sg180
I4
sg44
(lp5868
I2758383128
asg35
VPT11M0.7554024S
p5869
sg183
I2
sg184
VP0DT0H0M15.7167S
p5870
sg39
(dp5871
g41
VTL StelluR
p5872
sg43
Nssa(dp5873
g38
I313138863
sg39
(dp5874
g41
VTL StelluR
p5875
sg43
Nssg44
(lp5876
I1095363701
asg32
VWeaponPickup
p5877
sg35
VPT11M0.7554024S
p5878
sa(dp5879
g38
I313138863
sg32
VWeaponDrop
p5880
sg180
I0
sg44
(lp5881
I1095363701
asg35
VPT11M0.7714009S
p5882
sg183
I0
sg184
VP0DT0H0M1.2333S
p5883
sg39
(dp5884
g41
VLiquid Eco
p5885
sg43
Nssa(dp5886
g38
I723388907
sg39
(dp5887
g41
VLiquid Eco
p5888
sg43
Nssg44
(lp5889
I89283061
asg32
VWeaponPickup
p5890
sg35
VPT11M0.7714009S
p5891
sa(dp5892
g38
I313138863
sg39
(dp5893
g41
VnV Pistola HCS
p5894
sg43
Nssg44
(lp5895
I1095363701
asg32
VWeaponPickup
p5896
sg35
VPT11M1.5734345S
p5897
sa(dp5898
g38
I4096745987
sg39
(dp5899
g41
VnV Pistola HCS
p5900
sg43
Nssg44
(lp5901
I2758383128
asg32
VWeaponPickup
p5902
sg35
VPT11M1.5734345S
p5903
sa(dp5904
g32
VPlayerSpawn
p5905
sg39
(dp5906
g41
VnV Pistola HCS
p5907
sg43
Nssg35
VPT11M1.5734345S
p5908
sa(dp5909
g221
I3484334713
sg222
I00
sg223
I00
sg224
(dp5910
g41
VnV eL ToWn
p5911
sg43
Nssg227
(lp5912
I2758383128
asg229
I00
sg230
I01
sg231
I1
sg232
I0
sg233
I1
sg234
(dp5913
Vy
F3.5027539999999999
sVx
F-4.7409343699999997
sVz
F1.7999877900000001
ssg236
(dp5914
Vy
F5.4231605500000004
sVx
F-4.5091943700000003
sVz
F2.1947116900000001
ssg238
I00
sg239
(dp5915
g41
VTL StelluR
p5916
sg43
Nssg242
(lp5917
sg244
(lp5918
sg248
I00
sg35
VPT11M2.040452S
p5919
sg32
VDeath
p5920
sg251
I1
sa(dp5921
g32
VMedal
p5922
sg39
(dp5923
g41
VnV eL ToWn
p5924
sg43
Nssg256
I3698887726
sg35
VPT11M2.040452S
p5925
sa(dp5926
g38
I4096745987
sg32
VWeaponDrop
p5927
sg180
I36
sg44
(lp5928
I2758383128
asg35
VPT11M2.0424521S
p5929
sg183
I17
sg184
VP0DT0H1M13.0167S
p5930
sg39
(dp5931
g41
VTL StelluR
p5932
sg43
Nssa(dp5933
g38
I313138863
sg32
VWeaponDrop
p5934
sg180
I0
sg44
(lp5935
I1095363701
asg35
VPT11M2.0424521S
p5936
sg183
I0
sg184
VP0DT0H0M0.4833S
p5937
sg39
(dp5938
g41
VTL StelluR
p5939
sg43
Nssa(dp5940
g38
I313138863
sg32
VWeaponDrop
p5941
sg180
I0
sg44
(lp5942
I1095363701
asg35
VPT11M2.121453S
p5943
sg183
I0
sg184
VPT0S
p5944
sg39
(dp5945
g41
VTL StelluR
p5946
sg43
Nssa(dp5947
g38
I313138863
sg39
(dp5948
g41
VTL Danoxide
p5949
sg43
Nssg44
(lp5950
I1095363701
asg32
VWeaponPickup
p5951
sg35
VPT11M2.1564568S
p5952
sa(dp5953
g38
I4096745987
sg39
(dp5954
g41
VTL Danoxide
p5955
sg43
Nssg44
(lp5956
I2758383128
asg32
VWeaponPickup
p5957
sg35
VPT11M2.1564568S
p5958
sa(dp5959
g32
VPlayerSpawn
p5960
sg39
(dp5961
g41
VTL Danoxide
p5962
sg43
Nssg35
VPT11M2.1564568S
p5963
sa(dp5964
g38
I313138863
sg39
(dp5965
g41
VnV Mikwen HCS
p5966
sg43
Nssg44
(lp5967
I1095363701
asg32
VWeaponPickup
p5968
sg35
VPT11M7.1896493S
p5969
sa(dp5970
g38
I4096745987
sg39
(dp5971
g41
VnV Mikwen HCS
p5972
sg43
Nssg44
(lp5973
I2758383128
asg32
VWeaponPickup
p5974
sg35
VPT11M7.1906497S
p5975
sa(dp5976
g32
VPlayerSpawn
p5977
sg39
(dp5978
g41
VnV Mikwen HCS
p5979
sg43
Nssg35
VPT11M7.1906497S
p5980
sa(dp5981
g38
I313138863
sg39
(dp5982
g41
VTL StelluR
p5983
sg43
Nssg44
(lp5984
I1095363701
asg32
VWeaponPickup
p5985
sg35
VPT11M10.0567415S
p5986
sa(dp5987
g38
I4096745987
sg39
(dp5988
g41
VTL StelluR
p5989
sg43
Nssg44
(lp5990
I2758383128
asg32
VWeaponPickup
p5991
sg35
VPT11M10.0567415S
p5992
sa(dp5993
g32
VPlayerSpawn
p5994
sg39
(dp5995
g41
VTL StelluR
p5996
sg43
Nssg35
VPT11M10.0567415S
p5997
sa(dp5998
g38
I313138863
sg32
VWeaponDrop
p5999
sg180
I0
sg44
(lp6000
I1095363701
asg35
VPT11M13.3218448S
p6001
sg183
I0
sg184
VP0DT0H0M2.2500S
p6002
sg39
(dp6003
g41
VTL StelluR
p6004
sg43
Nssa(dp6005
g38
I723388907
sg39
(dp6006
g41
VTL StelluR
p6007
sg43
Nssg44
(lp6008
I89283061
asg32
VWeaponPickup
p6009
sg35
VPT11M13.3218448S
p6010
sa(dp6011
g38
I313138863
sg32
VWeaponDrop
p6012
sg180
I0
sg44
(lp6013
I1095363701
asg35
VPT11M16.9719626S
p6014
sg183
I0
sg184
VP0DT0H0M1.6833S
p6015
sg39
(dp6016
g41
VnV Pistola HCS
p6017
sg43
Nssa(dp6018
g38
I723388907
sg39
(dp6019
g41
VnV Pistola HCS
p6020
sg43
Nssg44
(lp6021
I89283061
asg32
VWeaponPickup
p6022
sg35
VPT11M16.9719626S
p6023
sa(dp6024
g38
I313138863
sg32
VWeaponDrop
p6025
sg180
I0
sg44
(lp6026
I1095363701
asg35
VPT11M21.7551147S
p6027
sg183
I0
sg184
VP0DT0H0M3.9167S
p6028
sg39
(dp6029
g41
VTL Danoxide
p6030
sg43
Nssa(dp6031
g38
I2511447508
sg39
(dp6032
g41
VTL Danoxide
p6033
sg43
Nssg44
(lp6034
I2758383128
asg32
VWeaponPickup
p6035
sg35
VPT11M21.7551147S
p6036
sa(dp6037
g221
I4096745987
sg222
I00
sg223
I00
sg224
(dp6038
g41
VnV Mikwen HCS
p6039
sg43
Nssg227
(lp6040
I2758383128
asg229
I00
sg230
I01
sg231
I1
sg232
I0
sg233
I1
sg234
(dp6041
Vy
F-0.78396460000000001
sVx
F-1.1720902900000001
sVz
F2.4000010000000001
ssg236
(dp6042
Vy
F-18.968914000000002
sVx
F1.463932
sVz
F1.7998879000000001
ssg238
I00
sg239
(dp6043
g41
VTL Spartan HCS
p6044
sg43
Nssg242
(lp6045
sg244
(lp6046
sg248
I01
sg35
VPT11M42.52278S
p6047
sg32
VDeath
p6048
sg251
I1
sa(dp6049
g32
VImpulse
p6050
sg39
(dp6051
g41
VnV Mikwen HCS
p6052
sg43
Nssg1914
I3174430457
sg35
VPT11M42.5237799S
p6053
sa(dp6054
g32
VMedal
p6055
sg39
(dp6056
g41
VnV Mikwen HCS
p6057
sg43
Nssg256
I3653057799
sg35
VPT11M42.5247793S
p6058
sa(dp6059
g38
I669296699
sg32
VWeaponDrop
p6060
sg180
I1
sg44
(lp6061
I2758383128
asg35
VPT11M42.5257799S
p6062
sg183
I1
sg184
VP0DT0H0M57.6833S
p6063
sg39
(dp6064
g41
VTL Spartan HCS
p6065
sg43
Nssa(dp6066
g38
I669296699
sg32
VWeaponDrop
p6067
sg180
I0
sg44
(lp6068
I2758383128
asg35
VPT11M42.5257799S
p6069
sg183
I0
sg184
VP0DT0S
p6070
sg39
(dp6071
g41
VTL Spartan HCS
p6072
sg43
Nssa(dp6073
g38
I4096745987
sg32
VWeaponDrop
p6074
sg180
I14
sg44
(lp6075
I2758383128
asg35
VPT11M42.5257799S
p6076
sg183
I8
sg184
VP0DT0H0M36.3167S
p6077
sg39
(dp6078
g41
VTL Spartan HCS
p6079
sg43
Nssa(dp6080
g221
I723388907
sg222
I00
sg223
I01
sg224
(dp6081
g41
VTL StelluR
p6082
sg43
Nssg227
(lp6083
I89283061
asg229
I00
sg230
I00
sg231
I1
sg232
I0
sg233
I1
sg234
(dp6084
Vy
F7.71925259
sVx
F18.291706099999999
sVz
F1.60425365
ssg236
(dp6085
Vy
F7.8449210000000003
sVx
F17.968029000000001
sVz
F1.6058958800000001
ssg238
I00
sg239
(dp6086
g41
VnV Pistola HCS
p6087
sg43
Nssg242
(lp6088
sg244
(lp6089
(dp6090
g41
VTL Danoxide
p6091
sg43
Nsasg248
I00
sg35
VPT11M42.5727816S
p6092
sg32
VDeath
p6093
sg251
I1
sa(dp6094
g32
VMedal
p6095
sg39
(dp6096
g41
VTL StelluR
p6097
sg43
Nssg256
I2287626681
sg35
VPT11M42.5727816S
p6098
sa(dp6099
g38
I4096745987
sg32
VWeaponDrop
p6100
sg180
I4
sg44
(lp6101
I2758383128
asg35
VPT11M42.5737812S
p6102
sg183
I1
sg184
VP0DT0H0M22.3333S
p6103
sg39
(dp6104
g41
VnV Pistola HCS
p6105
sg43
Nssa(dp6106
g38
I723388907
sg32
VWeaponDrop
p6107
sg180
I2
sg44
(lp6108
I89283061
asg35
VPT11M42.5747811S
p6109
sg183
I1
sg184
VP0DT0H0M16.9833S
p6110
sg39
(dp6111
g41
VnV Pistola HCS
p6112
sg43
Nssa(dp6113
g38
I4096745987
sg32
VWeaponDrop
p6114
sg180
I0
sg44
(lp6115
I2758383128
asg35
VPT11M46.8549184S
p6116
sg183
I0
sg184
VP0DT0H0M15.8000S
p6117
sg39
(dp6118
g41
VTL Danoxide
p6119
sg43
Nssa(dp6120
g38
I723388907
sg39
(dp6121
g41
VTL Danoxide
p6122
sg43
Nssg44
(lp6123
I89283061
asg32
VWeaponPickup
p6124
sg35
VPT11M46.8549184S
p6125
sa(dp6126
g221
I313138863
sg222
I00
sg223
I01
sg224
(dp6127
g41
VnV Mikwen HCS
p6128
sg43
Nssg227
(lp6129
I1095363701
asg229
I00
sg230
I00
sg231
I1
sg232
I0
sg233
I1
sg234
(dp6130
Vy
F-1.0304461700000001
sVx
F3.57496166
sVz
F0.66064375600000003
ssg236
(dp6131
Vy
F-0.894486
sVx
F3.2808332400000002
sVz
F0.81878656100000002
ssg238
I00
sg239
(dp6132
g41
VLiquid Eco
p6133
sg43
Nssg242
(lp6134
sg244
(lp6135
(dp6136
g41
VnV eL ToWn
p6137
sg43
Nsasg248
I00
sg35
VPT11M47.4059357S
p6138
sg32
VDeath
p6139
sg251
I1
sa(dp6140
g32
VMedal
p6141
sg39
(dp6142
g41
VnV Mikwen HCS
p6143
sg43
Nssg256
I2287626681
sg35
VPT11M47.4069364S
p6144
sa(dp6145
g32
VMedal
p6146
sg39
(dp6147
g41
VnV Mikwen HCS
p6148
sg43
Nssg256
I2078758684
sg35
VPT11M47.4069364S
p6149
sa(dp6150
g38
I723388907
sg32
VWeaponDrop
p6151
sg180
I18
sg44
(lp6152
I89283061
asg35
VPT11M47.4079365S
p6153
sg183
I5
sg184
VP0DT0H0M28.3500S
p6154
sg39
(dp6155
g41
VLiquid Eco
p6156
sg43
Nssa(dp6157
g38
I4096745987
sg32
VWeaponDrop
p6158
sg180
I30
sg44
(lp6159
I2758383128
asg35
VPT11M47.4089366S
p6160
sg183
I10
sg184
VP0DT0H0M42.3000S
p6161
sg39
(dp6162
g41
VLiquid Eco
p6163
sg43
Nssa(dp6164
g38
I313138863
sg39
(dp6165
g41
VTL Spartan HCS
p6166
sg43
Nssg44
(lp6167
I1095363701
asg32
VWeaponPickup
p6168
sg35
VPT11M50.5390364S
p6169
sa(dp6170
g38
I4096745987
sg39
(dp6171
g41
VTL Spartan HCS
p6172
sg43
Nssg44
(lp6173
I2758383128
asg32
VWeaponPickup
p6174
sg35
VPT11M50.540037S
p6175
sa(dp6176
g32
VPlayerSpawn
p6177
sg39
(dp6178
g41
VTL Spartan HCS
p6179
sg43
Nssg35
VPT11M50.540037S
p6180
sa(dp6181
g38
I313138863
sg39
(dp6182
g41
VnV Pistola HCS
p6183
sg43
Nssg44
(lp6184
I1095363701
asg32
VWeaponPickup
p6185
sg35
VPT11M50.5890384S
p6186
sa(dp6187
g38
I4096745987
sg39
(dp6188
g41
VnV Pistola HCS
p6189
sg43
Nssg44
(lp6190
I2758383128
asg32
VWeaponPickup
p6191
sg35
VPT11M50.5890384S
p6192
sa(dp6193
g32
VPlayerSpawn
p6194
sg39
(dp6195
g41
VnV Pistola HCS
p6196
sg43
Nssg35
VPT11M50.5890384S
p6197
sa(dp6198
g38
I313138863
sg32
VWeaponDrop
p6199
sg180
I0
sg44
(lp6200
I1095363701
asg35
VPT11M51.2712965S
p6201
sg183
I0
sg184
VP0DT0H0M7.1667S
p6202
sg39
(dp6203
g41
VnV RayneHCS
p6204
sg43
Nssa(dp6205
g38
I723388907
sg39
(dp6206
g41
VnV RayneHCS
p6207
sg43
Nssg44
(lp6208
I89283061
asg32
VWeaponPickup
p6209
sg35
VPT11M51.2712965S
p6210
sa(dp6211
g38
I313138863
sg32
VWeaponDrop
p6212
sg180
I2
sg44
(lp6213
I1095363701
asg35
VPT11M53.8711409S
p6214
sg183
I0
sg184
VP0DT0H0M5.5167S
p6215
sg39
(dp6216
g41
VnV Mikwen HCS
p6217
sg43
Nssa(dp6218
g38
I669296699
sg39
(dp6219
g41
VnV Mikwen HCS
p6220
sg43
Nssg44
(lp6221
I2758383128
asg32
VWeaponPickup
p6222
sg35
VPT11M53.8711409S
p6223
sa(dp6224
g38
I313138863
sg39
(dp6225
g41
VLiquid Eco
p6226
sg43
Nssg44
(lp6227
I1095363701
asg32
VWeaponPickup
p6228
sg35
VPT11M55.4231946S
p6229
sa(dp6230
g38
I4096745987
sg39
(dp6231
g41
VLiquid Eco
p6232
sg43
Nssg44
(lp6233
I2758383128
asg32
VWeaponPickup
p6234
sg35
VPT11M55.4231946S
p6235
sa(dp6236
g32
VPlayerSpawn
p6237
sg39
(dp6238
g41
VLiquid Eco
p6239
sg43
Nssg35
VPT11M55.4231946S
p6240
sa(dp6241
g38
I723388907
sg32
VWeaponDrop
p6242
sg180
I7
sg44
(lp6243
I89283061
asg35
VPT11M55.6712017S
p6244
sg183
I7
sg184
VP0DT0H0M22.2667S
p6245
sg39
(dp6246
g41
VTL StelluR
p6247
sg43
Nssa(dp6248
g38
I723388907
sg32
VWeaponDrop
p6249
sg180
I0
sg44
(lp6250
I89283061
asg35
VPT11M55.6712017S
p6251
sg183
I0
sg184
VP0DT0S
p6252
sg39
(dp6253
g41
VTL StelluR
p6254
sg43
Nssa(dp6255
g38
I424645655
sg39
(dp6256
g41
VTL StelluR
p6257
sg43
Nssg44
(lp6258
I1327094800
asg32
VWeaponPickup
p6259
sg35
VPT11M55.6712017S
p6260
sa(dp6261
g221
I669296699
sg222
I00
sg223
I00
sg224
(dp6262
g41
VnV Mikwen HCS
p6263
sg43
Nssg227
(lp6264
I2758383128
asg229
I00
sg230
I01
sg231
I1
sg232
I0
sg233
I1
sg234
(dp6265
Vy
F-18.4700661
sVx
F5.9602719999999998
sVz
F0.80000305199999999
ssg236
(dp6266
Vy
F3.5215613800000001
sVx
F2.28862166
sVz
F4.2288694400000004
ssg238
I00
sg239
(dp6267
g41
VTL StelluR
p6268
sg43
Nssg242
(lp6269
sg244
(lp6270
sg248
I01
sg35
VPT12M0.5393907S
p6271
sg32
VDeath
p6272
sg251
I1
sa(dp6273
g32
VMedal
p6274
sg39
(dp6275
g41
VnV Mikwen HCS
p6276
sg43
Nssg256
I848240062
sg35
VPT12M0.5403909S
p6277
sa(dp6278
g38
I424645655
sg32
VWeaponDrop
p6279
sg180
I3
sg44
(lp6280
I1327094800
asg35
VPT12M0.5533922S
p6281
sg183
I0
sg184
VP0DT0H0M4.8667S
p6282
sg39
(dp6283
g41
VTL StelluR
p6284
sg43
Nssa(dp6285
g38
I4096745987
sg32
VWeaponDrop
p6286
sg180
I0
sg44
(lp6287
I2758383128
asg35
VPT12M0.5533922S
p6288
sg183
I0
sg184
VP0DT0H0M21.1000S
p6289
sg39
(dp6290
g41
VTL StelluR
p6291
sg43
Nssa(dp6292
g221
I4106030681
sg222
I00
sg223
I00
sg224
(dp6293
g41
VnV Pistola HCS
p6294
sg43
Nssg227
(lp6295
sg229
I00
sg230
I01
sg231
I1
sg232
I0
sg233
I1
sg234
(dp6296
Vy
F-6.56646442
sVx
F0.41620606199999999
sVz
F2.2058629999999999
ssg236
(dp6297
Vy
F-6.6110882799999997
sVx
F-1.56863427
sVz
F0.16711205200000001
ssg238
I00
sg239
(dp6298
g41
VTL Danoxide
p6299
sg43
Nssg242
(lp6300
sg244
(lp6301
(dp6302
g41
VnV RayneHCS
p6303
sg43
Nsasg248
I00
sg35
VPT12M4.9245596S
p6304
sg32
VDeath
p6305
sg251
I1
sa(dp6306
g38
I2511447508
sg32
VWeaponDrop
p6307
sg180
I10
sg44
(lp6308
I2758383128
asg35
VPT12M4.9255591S
p6309
sg183
I4
sg184
VP0DT0H0M36.4000S
p6310
sg39
(dp6311
g41
VTL Danoxide
p6312
sg43
Nssa(dp6313
g38
I723388907
sg32
VWeaponDrop
p6314
sg180
I0
sg44
(lp6315
I89283061
asg35
VPT12M4.9255591S
p6316
sg183
I0
sg184
VP0DT0H0M6.6500S
p6317
sg39
(dp6318
g41
VTL Danoxide
p6319
sg43
Nssa(dp6320
g221
I313138863
sg222
I00
sg223
I01
sg224
(dp6321
g41
VnV Pistola HCS
p6322
sg43
Nssg227
(lp6323
I1095363701
asg229
I00
sg230
I00
sg231
I1
sg232
I0
sg233
I1
sg234
(dp6324
Vy
F-7.0590605699999998
sVx
F-4.4455679999999997
sVz
F0.21540599999999999
ssg236
(dp6325
Vy
F-7.3774423599999999
sVx
F-4.3074760000000003
sVz
F0.0045346320000000002
ssg238
I00
sg239
(dp6326
g41
VTL Spartan HCS
p6327
sg43
Nssg242
(lp6328
sg244
(lp6329
sg248
I00
sg35
VPT12M7.2556485S
p6330
sg32
VDeath
p6331
sg251
I1
sa(dp6332
g32
VMedal
p6333
sg39
(dp6334
g41
VnV Pistola HCS
p6335
sg43
Nssg256
I2287626681
sg35
VPT12M7.257649S
p6336
sa(dp6337
g32
VMedal
p6338
sg39
(dp6339
g41
VnV Pistola HCS
p6340
sg43
Nssg256
I2078758684
sg35
VPT12M7.257649S
p6341
sa(dp6342
g38
I4096745987
sg32
VWeaponDrop
p6343
sg180
I5
sg44
(lp6344
I2758383128
asg35
VPT12M7.257649S
p6345
sg183
I3
sg184
VP0DT0H0M4.8667S
p6346
sg39
(dp6347
g41
VTL Spartan HCS
p6348
sg43
Nssa(dp6349
g38
I313138863
sg32
VWeaponDrop
p6350
sg180
I6
sg44
(lp6351
I1095363701
asg35
VPT12M7.2596492S
p6352
sg183
I2
sg184
VP0DT0H0M11.8500S
p6353
sg39
(dp6354
g41
VTL Spartan HCS
p6355
sg43
Nssa(dp6356
g32
VRoundEnd
p6357
sg34
I0
sg35
VPT12M7.2716487S
p6358
sassb.