ccopy_reg
_reconstructor
p1
(c__main__
match_breakdown
p2
c__builtin__
object
p3
NtRp4
(dp5
S'details'
p6
(dp7
VIsCompleteSetOfEvents
p8
I01
sVLinks
p9
(dp10
VUgcFilmManifest
p11
(dp12
VAuthenticationLifetimeExtensionSupported
p13
I00
sVQueryString
p14
V?view=film-manifest
p15
sVRetryPolicyId
p16
Vexponentialretry
p17
sVPath
p18
V/h5/films/72fd6f36-7cf9-4275-b295-82a7830a7ad4
p19
sVAcknowledgementTypeId
p20
I0
sVAuthorityId
p21
Vugc
p22
sVTopicName
p23
V
ssVStatsMatchDetails
p24
(dp25
g13
I00
sg14
Nsg16
Vexponentialretry
p26
sg18
Vh5/custom/matches/72fd6f36-7cf9-4275-b295-82a7830a7ad4
p27
sg20
I0
sg21
Vspartanstats
p28
sg23
V
sssVGameEvents
p29
(lp30
(dp31
VEventName
p32
VRoundStart
p33
sVRoundIndex
p34
I0
sVTimeSinceStart
p35
VPT0.0589982S
p36
sa(dp37
VWeaponStockId
p38
I313138863
sVPlayer
p39
(dp40
VGamertag
p41
VE6 Cratos HCS
p42
sVXuid
p43
NssVWeaponAttachmentIds
p44
(lp45
I1095363701
asg32
VWeaponPickup
p46
sg35
VPT18.1171148S
p47
sa(dp48
g38
I4096745987
sg39
(dp49
g41
VE6 Cratos HCS
p50
sg43
Nssg44
(lp51
I2758383128
asg32
VWeaponPickup
p52
sg35
VPT18.1180963S
p53
sa(dp54
g32
VPlayerSpawn
p55
sg39
(dp56
g41
VE6 Cratos HCS
p57
sg43
Nssg35
VPT18.1180963S
p58
sa(dp59
g38
I313138863
sg39
(dp60
g41
VE6 Shooter
p61
sg43
Nssg44
(lp62
I1095363701
asg32
VWeaponPickup
p63
sg35
VPT18.1341139S
p64
sa(dp65
g38
I4096745987
sg39
(dp66
g41
VE6 Shooter
p67
sg43
Nssg44
(lp68
I2758383128
asg32
VWeaponPickup
p69
sg35
VPT18.1341139S
p70
sa(dp71
g32
VPlayerSpawn
p72
sg39
(dp73
g41
VE6 Shooter
p74
sg43
Nssg35
VPT18.1341139S
p75
sa(dp76
g38
I313138863
sg39
(dp77
g41
VE6 Huke HCS
p78
sg43
Nssg44
(lp79
I1095363701
asg32
VWeaponPickup
p80
sg35
VPT18.1500939S
p81
sa(dp82
g38
I4096745987
sg39
(dp83
g41
VE6 Huke HCS
p84
sg43
Nssg44
(lp85
I2758383128
asg32
VWeaponPickup
p86
sg35
VPT18.1511135S
p87
sa(dp88
g32
VPlayerSpawn
p89
sg39
(dp90
g41
VE6 Huke HCS
p91
sg43
Nssg35
VPT18.1511135S
p92
sa(dp93
g38
I313138863
sg39
(dp94
g41
VTL StelluR
p95
sg43
Nssg44
(lp96
I1095363701
asg32
VWeaponPickup
p97
sg35
VPT18.1670967S
p98
sa(dp99
g38
I4096745987
sg39
(dp100
g41
VTL StelluR
p101
sg43
Nssg44
(lp102
I2758383128
asg32
VWeaponPickup
p103
sg35
VPT18.1670967S
p104
sa(dp105
g32
VPlayerSpawn
p106
sg39
(dp107
g41
VTL StelluR
p108
sg43
Nssg35
VPT18.1670967S
p109
sa(dp110
g38
I313138863
sg39
(dp111
g41
VE6 bubu dubu
p112
sg43
Nssg44
(lp113
I1095363701
asg32
VWeaponPickup
p114
sg35
VPT18.184114S
p115
sa(dp116
g38
I4096745987
sg39
(dp117
g41
VE6 bubu dubu
p118
sg43
Nssg44
(lp119
I2758383128
asg32
VWeaponPickup
p120
sg35
VPT18.184114S
p121
sa(dp122
g32
VPlayerSpawn
p123
sg39
(dp124
g41
VE6 bubu dubu
p125
sg43
Nssg35
VPT18.184114S
p126
sa(dp127
g38
I313138863
sg39
(dp128
g41
VTL Danoxide
p129
sg43
Nssg44
(lp130
I1095363701
asg32
VWeaponPickup
p131
sg35
VPT18.2000946S
p132
sa(dp133
g38
I4096745987
sg39
(dp134
g41
VTL Danoxide
p135
sg43
Nssg44
(lp136
I2758383128
asg32
VWeaponPickup
p137
sg35
VPT18.2010973S
p138
sa(dp139
g32
VPlayerSpawn
p140
sg39
(dp141
g41
VTL Danoxide
p142
sg43
Nssg35
VPT18.2010973S
p143
sa(dp144
g38
I313138863
sg39
(dp145
g41
VTL Spartan HCS
p146
sg43
Nssg44
(lp147
I1095363701
asg32
VWeaponPickup
p148
sg35
VPT18.2171157S
p149
sa(dp150
g38
I4096745987
sg39
(dp151
g41
VTL Spartan HCS
p152
sg43
Nssg44
(lp153
I2758383128
asg32
VWeaponPickup
p154
sg35
VPT18.2181146S
p155
sa(dp156
g32
VPlayerSpawn
p157
sg39
(dp158
g41
VTL Spartan HCS
p159
sg43
Nssg35
VPT18.2181146S
p160
sa(dp161
g38
I313138863
sg39
(dp162
g41
VTL Eco HCS
p163
sg43
Nssg44
(lp164
I1095363701
asg32
VWeaponPickup
p165
sg35
VPT18.2341162S
p166
sa(dp167
g38
I4096745987
sg39
(dp168
g41
VTL Eco HCS
p169
sg43
Nssg44
(lp170
I2758383128
asg32
VWeaponPickup
p171
sg35
VPT18.2341162S
p172
sa(dp173
g32
VPlayerSpawn
p174
sg39
(dp175
g41
VTL Eco HCS
p176
sg43
Nssg35
VPT18.2341162S
p177
sa(dp178
g38
I4096745987
sg32
VWeaponDrop
p179
sVShotsFired
p180
I0
sg44
(lp181
I2758383128
asg35
VPT20.3481284S
p182
sVShotsLanded
p183
I0
sVTimeWeaponActiveAsPrimary
p184
VP0DT0H0M1.4333S
p185
sg39
(dp186
g41
VE6 Shooter
p187
sg43
Nssa(dp188
g38
I4108759423
sg39
(dp189
g41
VE6 Shooter
p190
sg43
Nssg44
(lp191
I2758383128
asg32
VWeaponPickup
p192
sg35
VPT20.3481284S
p193
sa(dp194
g38
I313138863
sg32
VWeaponDrop
p195
sg180
I0
sg44
(lp196
I1095363701
asg35
VPT21.6321175S
p197
sg183
I0
sg184
VP0DT0H0M2.3500S
p198
sg39
(dp199
g41
VTL StelluR
p200
sg43
Nssa(dp201
g38
I424645655
sg39
(dp202
g41
VTL StelluR
p203
sg43
Nssg44
(lp204
I1327094800
asg32
VWeaponPickup
p205
sg35
VPT21.6321175S
p206
sa(dp207
g38
I313138863
sg32
VWeaponDrop
p208
sg180
I0
sg44
(lp209
I1095363701
asg35
VPT22.8981256S
p210
sg183
I0
sg184
VP0DT0H0M2.3000S
p211
sg39
(dp212
g41
VTL Spartan HCS
p213
sg43
Nssa(dp214
g38
I3682788176
sg39
(dp215
g41
VTL Spartan HCS
p216
sg43
Nssg44
(lp217
I2758383128
asg32
VWeaponPickupPad
p218
sg35
VPT22.8981256S
p219
sa(dp220
g38
I3682788176
sg39
(dp221
g41
VTL Spartan HCS
p222
sg43
Nssg44
(lp223
I2758383128
asg32
VWeaponPickup
p224
sg35
VPT22.9001256S
p225
sa(dp226
g38
I313138863
sg32
VWeaponDrop
p227
sg180
I0
sg44
(lp228
I1095363701
asg35
VPT25.5821423S
p229
sg183
I0
sg184
VP0DT0H0M1.6167S
p230
sg39
(dp231
g41
VE6 Huke HCS
p232
sg43
Nssa(dp233
g38
I3808094875
sg39
(dp234
g41
VE6 Huke HCS
p235
sg43
Nssg44
(lp236
I2758383128
asg32
VWeaponPickup
p237
sg35
VPT25.5831623S
p238
sa(dp239
VKillerWeaponStockId
p240
I4096745987
sVIsAssassination
p241
I00
sVIsMelee
p242
I00
sVKiller
p243
(dp244
g41
VTL Spartan HCS
p245
sg43
NssVKillerWeaponAttachmentIds
p246
(lp247
I2758383128
asVIsGroundPound
p248
I00
sVIsWeapon
p249
I00
sVDeathDisposition
p250
I2
sVVictimStockId
p251
I0
sVVictimAgent
p252
I0
sVKillerWorldLocation
p253
(dp254
Vy
F-0.60450846000000003
sVx
F3.6287915700000002
sVz
F3.002688
ssVVictimWorldLocation
p255
(dp256
Vy
F0.099736270000000002
sVx
F8.0057399999999994
sVz
F0.71309334000000002
ssVIsShoulderBash
p257
I00
sVVictim
p258
(dp259
S'Gamertag'
p260
S'None'
p261
ssVVictimAttachmentIds
p262
(lp263
sVAssistants
p264
(lp265
sVIsHeadshot
p266
I00
sg35
VPT25.9541652S
p267
sg32
VDeath
p268
sVKillerAgent
p269
I1
sa(dp270
g240
I47178948
sg241
I00
sg242
I00
sg243
(dp271
g41
VTL Spartan HCS
p272
sg43
Nssg246
(lp273
sg248
I00
sg249
I00
sg250
I2
sg251
I0
sg252
I0
sg253
(dp274
Vy
F-0.60450846000000003
sVx
F3.6287915700000002
sVz
F3.002688
ssg255
(dp275
Vy
F0.109241828
sVx
F8.005274
sVz
F0.30517369999999999
ssg257
I00
sg258
(dp276
g260
g261
ssg262
(lp277
sg264
(lp278
sg266
I00
sg35
VPT25.9581465S
p279
sg32
VDeath
p280
sg269
I1
sa(dp281
g32
VMedal
p282
sg39
(dp283
g41
VE6 Huke HCS
p284
sg43
NssVMedalId
p285
I3565443938
sg35
VPT27.9601781S
p286
sa(dp287
g32
VMedal
p288
sg39
(dp289
g41
VE6 Shooter
p290
sg43
Nssg285
I3565443938
sg35
VPT27.9601781S
p291
sa(dp292
g240
I4096745987
sg241
I00
sg242
I00
sg243
(dp293
g41
VTL Spartan HCS
p294
sg43
Nssg246
(lp295
I2758383128
asg248
I00
sg249
I01
sg250
I1
sg251
I0
sg252
I1
sg253
(dp296
Vy
F3.9128959999999999
sVx
F7.3857059999999999
sVz
F0.85469234000000005
ssg255
(dp297
Vy
F13.681673999999999
sVx
F3.9323399999999999
sVz
F-0.89672744299999996
ssg257
I00
sg258
(dp298
g41
VE6 Huke HCS
p299
sg43
Nssg262
(lp300
sg264
(lp301
(dp302
g41
VTL Eco HCS
p303
sg43
Nsa(dp304
g41
VTL Danoxide
p305
sg43
Nsasg266
I01
sg35
VPT30.1161731S
p306
sg32
VDeath
p307
sg269
I1
sa(dp308
g32
VMedal
p309
sg39
(dp310
g41
VTL Spartan HCS
p311
sg43
Nssg285
I2838259753
sg35
VPT30.1171733S
p312
sa(dp313
g32
VImpulse
p314
sg39
(dp315
g41
VTL Spartan HCS
p316
sg43
NssVImpulseId
p317
I2556889090
sg35
VPT30.1171733S
p318
sa(dp319
g32
VMedal
p320
sg39
(dp321
g41
VTL Spartan HCS
p322
sg43
Nssg285
I3261908037
sg35
VPT30.1201912S
p323
sa(dp324
g32
VMedal
p325
sg39
(dp326
g41
VTL Spartan HCS
p327
sg43
Nssg285
I3001183151
sg35
VPT30.1201912S
p328
sa(dp329
g38
I3808094875
sg32
VWeaponDrop
p330
sg180
I8
sg44
(lp331
I2758383128
asg35
VPT30.121194S
p332
sg183
I4
sg184
VP0DT0H0M3.0333S
p333
sg39
(dp334
g41
VE6 Huke HCS
p335
sg43
Nssa(dp336
g38
I4096745987
sg32
VWeaponDrop
p337
sg180
I4
sg44
(lp338
I2758383128
asg35
VPT30.121194S
p339
sg183
I0
sg184
VP0DT0H0M7.3167S
p340
sg39
(dp341
g41
VE6 Huke HCS
p342
sg43
Nssa(dp343
g32
VMedal
p344
sg39
(dp345
g41
VTL StelluR
p346
sg43
Nssg285
I3565443938
sg35
VPT30.9001974S
p347
sa(dp348
g240
I4096745987
sg241
I00
sg242
I00
sg243
(dp349
g41
VE6 Cratos HCS
p350
sg43
Nssg246
(lp351
I2758383128
asg248
I00
sg249
I01
sg250
I1
sg251
I0
sg252
I1
sg253
(dp352
Vy
F24.255775499999999
sVx
F-12.298778499999999
sVz
F2.3784003299999998
ssg255
(dp353
Vy
F15.908773399999999
sVx
F0.197411
sVz
F-0.89672625100000003
ssg257
I00
sg258
(dp354
g41
VTL Eco HCS
p355
sg43
Nssg262
(lp356
sg264
(lp357
(dp358
g41
VE6 bubu dubu
p359
sg43
Nsa(dp360
g41
VE6 Huke HCS
p361
sg43
Nsasg266
I01
sg35
VPT31.0491769S
p362
sg32
VDeath
p363
sg269
I1
sa(dp364
g32
VMedal
p365
sg39
(dp366
g41
VE6 Cratos HCS
p367
sg43
Nssg285
I3261908037
sg35
VPT31.0501984S
p368
sa(dp369
g38
I313138863
sg32
VWeaponDrop
p370
sg180
I0
sg44
(lp371
I1095363701
asg35
VPT31.0511978S
p372
sg183
I0
sg184
VP0DT0H0M3.5500S
p373
sg39
(dp374
g41
VTL Eco HCS
p375
sg43
Nssa(dp376
g38
I4096745987
sg32
VWeaponDrop
p377
sg180
I6
sg44
(lp378
I2758383128
asg35
VPT31.0511978S
p379
sg183
I3
sg184
VP0DT0H0M9.2667S
p380
sg39
(dp381
g41
VTL Eco HCS
p382
sg43
Nssa(dp383
g32
VMedal
p384
sg39
(dp385
g41
VE6 bubu dubu
p386
sg43
Nssg285
I3565443938
sg35
VPT31.5482008S
p387
sa(dp388
g32
VMedal
p389
sg39
(dp390
g41
VE6 Cratos HCS
p391
sg43
Nssg285
I3565443938
sg35
VPT31.5482008S
p392
sa(dp393
g38
I2492868984
sg39
(dp394
g41
VTL StelluR
p395
sg43
Nssg44
(lp396
I2758383128
asg32
VWeaponPickup
p397
sg35
VPT33.5321936S
p398
sa(dp399
g240
I3682788176
sg241
I00
sg242
I00
sg243
(dp400
g41
VTL Spartan HCS
p401
sg43
Nssg246
(lp402
I2758383128
asg248
I00
sg249
I01
sg250
I1
sg251
I0
sg252
I1
sg253
(dp403
Vy
F3.9048061399999998
sVx
F6.1510660000000001
sVz
F1.9333362599999999
ssg255
(dp404
Vy
F5.5920386300000002
sVx
F5.8117122700000001
sVz
F-0.83637046800000003
ssg257
I00
sg258
(dp405
g41
VE6 Shooter
p406
sg43
Nssg262
(lp407
sg264
(lp408
(dp409
g41
VTL Danoxide
p410
sg43
Nsasg266
I00
sg35
VPT34.4491987S
p411
sg32
VDeath
p412
sg269
I1
sa(dp413
g32
VMedal
p414
sg39
(dp415
g41
VTL Spartan HCS
p416
sg43
Nssg285
I2838259753
sg35
VPT34.4501988S
p417
sa(dp418
g32
VImpulse
p419
sg39
(dp420
g41
VTL Spartan HCS
p421
sg43
Nssg317
I2556889090
sg35
VPT34.4501988S
p422
sa(dp423
g32
VMedal
p424
sg39
(dp425
g41
VTL Spartan HCS
p426
sg43
Nssg285
I2078758684
sg35
VPT34.4521995S
p427
sa(dp428
g38
I313138863
sg32
VWeaponDrop
p429
sg180
I15
sg44
(lp430
I1095363701
asg35
VPT34.4532S
p431
sg183
I11
sg184
VP0DT0H0M6.4500S
p432
sg39
(dp433
g41
VE6 Shooter
p434
sg43
Nssa(dp435
g38
I4108759423
sg32
VWeaponDrop
p436
sg180
I0
sg44
(lp437
I2758383128
asg35
VPT34.4532S
p438
sg183
I0
sg184
VP0DT0H0M8.4333S
p439
sg39
(dp440
g41
VE6 Shooter
p441
sg43
Nssa(dp442
g38
I2492868984
sg32
VWeaponDrop
p443
sg180
I0
sg44
(lp444
I2758383128
asg35
VPT34.6842S
p445
sg183
I0
sg184
VP0DT0H0M0.9833S
p446
sg39
(dp447
g41
VTL StelluR
p448
sg43
Nssa(dp449
g38
I313138863
sg39
(dp450
g41
VE6 Huke HCS
p451
sg43
Nssg44
(lp452
I1095363701
asg32
VWeaponPickup
p453
sg35
VPT38.1492277S
p454
sa(dp455
g38
I4096745987
sg39
(dp456
g41
VE6 Huke HCS
p457
sg43
Nssg44
(lp458
I2758383128
asg32
VWeaponPickup
p459
sg35
VPT38.1502239S
p460
sa(dp461
g32
VPlayerSpawn
p462
sg39
(dp463
g41
VE6 Huke HCS
p464
sg43
Nssg35
VPT38.1502239S
p465
sa(dp466
g38
I4096745987
sg32
VWeaponDrop
p467
sg180
I0
sg44
(lp468
I2758383128
asg35
VPT38.1982233S
p469
sg183
I0
sg184
VP0DT0H0M2.6500S
p470
sg39
(dp471
g41
VTL StelluR
p472
sg43
Nssa(dp473
g38
I2133511419
sg39
(dp474
g41
VTL StelluR
p475
sg43
Nssg44
(lp476
I2758383128
asg32
VWeaponPickup
p477
sg35
VPT38.1982233S
p478
sa(dp479
g38
I313138863
sg39
(dp480
g41
VTL Eco HCS
p481
sg43
Nssg44
(lp482
I1095363701
asg32
VWeaponPickup
p483
sg35
VPT39.0822289S
p484
sa(dp485
g38
I4096745987
sg39
(dp486
g41
VTL Eco HCS
p487
sg43
Nssg44
(lp488
I2758383128
asg32
VWeaponPickup
p489
sg35
VPT39.0832484S
p490
sa(dp491
g32
VPlayerSpawn
p492
sg39
(dp493
g41
VTL Eco HCS
p494
sg43
Nssg35
VPT39.0832484S
p495
sa(dp496
g240
I424645655
sg241
I00
sg242
I00
sg243
(dp497
g41
VTL StelluR
p498
sg43
Nssg246
(lp499
I1327094800
asg248
I00
sg249
I01
sg250
I1
sg251
I0
sg252
I1
sg253
(dp500
Vy
F12.3339815
sVx
F-8.3251720000000002
sVz
F-2.9499983799999998
ssg255
(dp501
Vy
F9.5265950000000004
sVx
F-4.1309595100000003
sVz
F-0.0022950620000000001
ssg257
I00
sg258
(dp502
g41
VE6 bubu dubu
p503
sg43
Nssg262
(lp504
sg264
(lp505
sg266
I01
sg35
VPT40.6492581S
p506
sg32
VDeath
p507
sg269
I1
sa(dp508
g32
VImpulse
p509
sg39
(dp510
g41
VTL StelluR
p511
sg43
Nssg317
I3174430457
sg35
VPT40.6512577S
p512
sa(dp513
g32
VMedal
p514
sg39
(dp515
g41
VTL StelluR
p516
sg43
Nssg285
I1080468863
sg35
VPT40.6522579S
p517
sa(dp518
g38
I313138863
sg32
VWeaponDrop
p519
sg180
I0
sg44
(lp520
I1095363701
asg35
VPT40.6532596S
p521
sg183
I0
sg184
VP0DT0H0M6.6833S
p522
sg39
(dp523
g41
VE6 bubu dubu
p524
sg43
Nssa(dp525
g38
I4096745987
sg32
VWeaponDrop
p526
sg180
I7
sg44
(lp527
I2758383128
asg35
VPT40.6532596S
p528
sg183
I4
sg184
VP0DT0H0M15.7667S
p529
sg39
(dp530
g41
VE6 bubu dubu
p531
sg43
Nssa(dp532
g32
VMedal
p533
sg39
(dp534
g41
VTL Danoxide
p535
sg43
Nssg285
I3565443938
sg35
VPT40.8322402S
p536
sa(dp537
g32
VMedal
p538
sg39
(dp539
g41
VTL Spartan HCS
p540
sg43
Nssg285
I3565443938
sg35
VPT40.8322402S
p541
sa(dp542
g240
I3682788176
sg241
I00
sg242
I00
sg243
(dp543
g41
VTL Spartan HCS
p544
sg43
Nssg246
(lp545
I2758383128
asg248
I00
sg249
I01
sg250
I1
sg251
I0
sg252
I1
sg253
(dp546
Vy
F9.9665999999999997
sVx
F8.6985589999999995
sVz
F-0.037857532499999999
ssg255
(dp547
Vy
F15.78796
sVx
F1.87291491
sVz
F-0.89672613099999998
ssg257
I00
sg258
(dp548
g41
VE6 Cratos HCS
p549
sg43
Nssg262
(lp550
sg264
(lp551
(dp552
g41
VTL Danoxide
p553
sg43
Nsasg266
I00
sg35
VPT41.2822598S
p554
sg32
VDeath
p555
sg269
I1
sa(dp556
g38
I313138863
sg32
VWeaponDrop
p557
sg180
I0
sg44
(lp558
I1095363701
asg35
VPT41.2842622S
p559
sg183
I0
sg184
VP0DT0H0M0.8833S
p560
sg39
(dp561
g41
VE6 Cratos HCS
p562
sg43
Nssa(dp563
g38
I4096745987
sg32
VWeaponDrop
p564
sg180
I12
sg44
(lp565
I2758383128
asg35
VPT41.2842622S
p566
sg183
I6
sg184
VP0DT0H0M22.2667S
p567
sg39
(dp568
g41
VE6 Cratos HCS
p569
sg43
Nssa(dp570
g38
I313138863
sg39
(dp571
g41
VE6 Shooter
p572
sg43
Nssg44
(lp573
I1095363701
asg32
VWeaponPickup
p574
sg35
VPT42.4822508S
p575
sa(dp576
g38
I4096745987
sg39
(dp577
g41
VE6 Shooter
p578
sg43
Nssg44
(lp579
I2758383128
asg32
VWeaponPickup
p580
sg35
VPT42.4832702S
p581
sa(dp582
g32
VPlayerSpawn
p583
sg39
(dp584
g41
VE6 Shooter
p585
sg43
Nssg35
VPT42.4832702S
p586
sa(dp587
g38
I313138863
sg32
VWeaponDrop
p588
sg180
I0
sg44
(lp589
I1095363701
asg35
VPT45.1312668S
p590
sg183
I0
sg184
VP0DT0H0M5.0000S
p591
sg39
(dp592
g41
VTL Danoxide
p593
sg43
Nssa(dp594
g38
I3808094875
sg39
(dp595
g41
VTL Danoxide
p596
sg43
Nssg44
(lp597
I2758383128
asg32
VWeaponPickup
p598
sg35
VPT45.1312668S
p599
sa(dp600
g240
I3682788176
sg241
I00
sg242
I00
sg243
(dp601
g41
VTL Spartan HCS
p602
sg43
Nssg246
(lp603
I2758383128
asg248
I00
sg249
I01
sg250
I1
sg251
I0
sg252
I1
sg253
(dp604
Vy
F12.51624
sVx
F-1.5344245400000001
sVz
F-0.86887919999999996
ssg255
(dp605
Vy
F1.7858364600000001
sVx
F-12.393892299999999
sVz
F-0.64765110000000004
ssg257
I00
sg258
(dp606
g41
VE6 Shooter
p607
sg43
Nssg262
(lp608
sg264
(lp609
sg266
I01
sg35
VPT46.8992784S
p610
sg32
VDeath
p611
sg269
I1
sa(dp612
g32
VMedal
p613
sg39
(dp614
g41
VTL Spartan HCS
p615
sg43
Nssg285
I1351381581
sg35
VPT46.9002803S
p616
sa(dp617
g38
I313138863
sg32
VWeaponDrop
p618
sg180
I5
sg44
(lp619
I1095363701
asg35
VPT46.9002803S
p620
sg183
I2
sg184
VP0DT0H0M2.0833S
p621
sg39
(dp622
g41
VE6 Shooter
p623
sg43
Nssa(dp624
g38
I4096745987
sg32
VWeaponDrop
p625
sg180
I0
sg44
(lp626
I2758383128
asg35
VPT46.9002803S
p627
sg183
I0
sg184
VP0DT0H0M2.3333S
p628
sg39
(dp629
g41
VE6 Shooter
p630
sg43
Nssa(dp631
g240
I4096745987
sg241
I00
sg242
I00
sg243
(dp632
g41
VTL Spartan HCS
p633
sg43
Nssg246
(lp634
I2758383128
asg248
I00
sg249
I01
sg250
I1
sg251
I0
sg252
I1
sg253
(dp635
Vy
F10.922239299999999
sVx
F-2.3111844100000001
sVz
F-0.86534076900000001
ssg255
(dp636
Vy
F3.28951883
sVx
F-10.154771800000001
sVz
F-0.89676370000000005
ssg257
I00
sg258
(dp637
g41
VE6 Huke HCS
p638
sg43
Nssg262
(lp639
sg264
(lp640
(dp641
g41
VTL Eco HCS
p642
sg43
Nsasg266
I01
sg35
VPT47.6992839S
p643
sg32
VDeath
p644
sg269
I1
sa(dp645
g32
VMedal
p646
sg39
(dp647
g41
VTL Spartan HCS
p648
sg43
Nssg285
I1351381581
sg35
VPT47.7002851S
p649
sa(dp650
g32
VMedal
p651
sg39
(dp652
g41
VTL Spartan HCS
p653
sg43
Nssg285
I3261908037
sg35
VPT47.7002851S
p654
sa(dp655
g32
VMedal
p656
sg39
(dp657
g41
VTL Spartan HCS
p658
sg43
Nssg285
I2430242797
sg35
VPT47.7002851S
p659
sa(dp660
g32
VMedal
p661
sg39
(dp662
g41
VTL Spartan HCS
p663
sg43
Nssg285
I2078758684
sg35
VPT47.7002851S
p664
sa(dp665
g32
VMedal
p666
sg39
(dp667
g41
VTL Eco HCS
p668
sg43
Nssg285
I2916014239
sg35
VPT47.7033049S
p669
sa(dp670
g38
I313138863
sg32
VWeaponDrop
p671
sg180
I0
sg44
(lp672
I1095363701
asg35
VPT47.7033049S
p673
sg183
I0
sg184
VP0DT0H0M1.2833S
p674
sg39
(dp675
g41
VE6 Huke HCS
p676
sg43
Nssa(dp677
g38
I4096745987
sg32
VWeaponDrop
p678
sg180
I2
sg44
(lp679
I2758383128
asg35
VPT47.7033049S
p680
sg183
I0
sg184
VP0DT0H0M8.2667S
p681
sg39
(dp682
g41
VE6 Huke HCS
p683
sg43
Nssa(dp684
g38
I313138863
sg39
(dp685
g41
VE6 bubu dubu
p686
sg43
Nssg44
(lp687
I1095363701
asg32
VWeaponPickup
p688
sg35
VPT48.6652901S
p689
sa(dp690
g38
I4096745987
sg39
(dp691
g41
VE6 bubu dubu
p692
sg43
Nssg44
(lp693
I2758383128
asg32
VWeaponPickup
p694
sg35
VPT48.6663091S
p695
sa(dp696
g32
VPlayerSpawn
p697
sg39
(dp698
g41
VE6 bubu dubu
p699
sg43
Nssg35
VPT48.6663091S
p700
sa(dp701
g38
I313138863
sg39
(dp702
g41
VE6 Cratos HCS
p703
sg43
Nssg44
(lp704
I1095363701
asg32
VWeaponPickup
p705
sg35
VPT49.2992934S
p706
sa(dp707
g38
I4096745987
sg39
(dp708
g41
VE6 Cratos HCS
p709
sg43
Nssg44
(lp710
I2758383128
asg32
VWeaponPickup
p711
sg35
VPT49.2992934S
p712
sa(dp713
g32
VPlayerSpawn
p714
sg39
(dp715
g41
VE6 Cratos HCS
p716
sg43
Nssg35
VPT49.2992934S
p717
sa(dp718
g38
I4096745987
sg32
VWeaponDrop
p719
sg180
I5
sg44
(lp720
I2758383128
asg35
VPT49.6142948S
p721
sg183
I4
sg184
VP0DT0H0M9.9500S
p722
sg39
(dp723
g41
VTL Eco HCS
p724
sg43
Nssa(dp725
g38
I424645655
sg39
(dp726
g41
VTL Eco HCS
p727
sg43
Nssg44
(lp728
I1327094800
asg32
VWeaponPickup
p729
sg35
VPT49.6142948S
p730
sa(dp731
g38
I4096745987
sg32
VWeaponDrop
p732
sg180
I0
sg44
(lp733
I2758383128
asg35
VPT51.6143074S
p734
sg183
I0
sg184
VP0DT0H0M2.2667S
p735
sg39
(dp736
g41
VE6 bubu dubu
p737
sg43
Nssa(dp738
g38
I4108759423
sg39
(dp739
g41
VE6 bubu dubu
p740
sg43
Nssg44
(lp741
I2758383128
asg32
VWeaponPickup
p742
sg35
VPT51.6143074S
p743
sa(dp744
g240
I3682788176
sg241
I00
sg242
I00
sg243
(dp745
g41
VTL Spartan HCS
p746
sg43
Nssg246
(lp747
I2758383128
asg248
I00
sg249
I01
sg250
I1
sg251
I0
sg252
I1
sg253
(dp748
Vy
F2.3006172199999999
sVx
F6.0551370000000002
sVz
F0.30550169999999999
ssg255
(dp749
Vy
F9.1552190000000007
sVx
F7.9416494399999999
sVz
F-0.89673020000000003
ssg257
I00
sg258
(dp750
g41
VE6 bubu dubu
p751
sg43
Nssg262
(lp752
sg264
(lp753
(dp754
g41
VTL Danoxide
p755
sg43
Nsasg266
I00
sg35
VPT54.7653301S
p756
sg32
VDeath
p757
sg269
I1
sa(dp758
g32
VMedal
p759
sg39
(dp760
g41
VTL Spartan HCS
p761
sg43
Nssg285
I1351381581
sg35
VPT54.7663312S
p762
sa(dp763
g38
I313138863
sg32
VWeaponDrop
p764
sg180
I0
sg44
(lp765
I1095363701
asg35
VPT54.7673314S
p766
sg183
I0
sg184
VP0DT0H0M0.6833S
p767
sg39
(dp768
g41
VE6 bubu dubu
p769
sg43
Nssa(dp770
g38
I4108759423
sg32
VWeaponDrop
p771
sg180
I3
sg44
(lp772
I2758383128
asg35
VPT54.7673314S
p773
sg183
I0
sg184
VP0DT0H0M3.1500S
p774
sg39
(dp775
g41
VE6 bubu dubu
p776
sg43
Nssa(dp777
g38
I313138863
sg39
(dp778
g41
VE6 Shooter
p779
sg43
Nssg44
(lp780
I1095363701
asg32
VWeaponPickup
p781
sg35
VPT54.9153492S
p782
sa(dp783
g38
I4096745987
sg39
(dp784
g41
VE6 Shooter
p785
sg43
Nssg44
(lp786
I2758383128
asg32
VWeaponPickup
p787
sg35
VPT54.9163316S
p788
sa(dp789
g32
VPlayerSpawn
p790
sg39
(dp791
g41
VE6 Shooter
p792
sg43
Nssg35
VPT54.9163316S
p793
sa(dp794
g38
I313138863
sg39
(dp795
g41
VE6 Huke HCS
p796
sg43
Nssg44
(lp797
I1095363701
asg32
VWeaponPickup
p798
sg35
VPT55.7163373S
p799
sa(dp800
g38
I4096745987
sg39
(dp801
g41
VE6 Huke HCS
p802
sg43
Nssg44
(lp803
I2758383128
asg32
VWeaponPickup
p804
sg35
VPT55.7163373S
p805
sa(dp806
g32
VPlayerSpawn
p807
sg39
(dp808
g41
VE6 Huke HCS
p809
sg43
Nssg35
VPT55.7163373S
p810
sa(dp811
g32
VMedal
p812
sg39
(dp813
g41
VTL StelluR
p814
sg43
Nssg285
I3565443938
sg35
VPT58.0643501S
p815
sa(dp816
g32
VMedal
p817
sg39
(dp818
g41
VTL Eco HCS
p819
sg43
Nssg285
I2105198095
sg35
VPT58.0643501S
p820
sa(dp821
g32
VMedal
p822
sg39
(dp823
g41
VTL Spartan HCS
p824
sg43
Nssg285
I2105198095
sg35
VPT58.0643501S
p825
sa(dp826
g32
VMedal
p827
sg39
(dp828
g41
VTL StelluR
p829
sg43
Nssg285
I2105198095
sg35
VPT58.0643501S
p830
sa(dp831
g32
VMedal
p832
sg39
(dp833
g41
VTL Danoxide
p834
sg43
Nssg285
I2105198095
sg35
VPT58.0643501S
p835
sa(dp836
g240
I4096745987
sg241
I00
sg242
I00
sg243
(dp837
g41
VTL Spartan HCS
p838
sg43
Nssg246
(lp839
I2758383128
asg248
I00
sg249
I01
sg250
I1
sg251
I0
sg252
I1
sg253
(dp840
Vy
F2.8087494400000002
sVx
F6.6891150000000001
sVz
F0.30540980000000001
ssg255
(dp841
Vy
F21.845098499999999
sVx
F4.317539
sVz
F-0.45537942599999998
ssg257
I00
sg258
(dp842
g41
VE6 Cratos HCS
p843
sg43
Nssg262
(lp844
sg264
(lp845
(dp846
g41
VTL StelluR
p847
sg43
Nsasg266
I00
sg35
VPT59.9153611S
p848
sg32
VDeath
p849
sg269
I1
sa(dp850
g38
I313138863
sg32
VWeaponDrop
p851
sg180
I0
sg44
(lp852
I1095363701
asg35
VPT59.9173819S
p853
sg183
I0
sg184
VP0DT0H0M1.4500S
p854
sg39
(dp855
g41
VE6 Cratos HCS
p856
sg43
Nssa(dp857
g38
I4096745987
sg32
VWeaponDrop
p858
sg180
I3
sg44
(lp859
I2758383128
asg35
VPT59.9173819S
p860
sg183
I1
sg184
VP0DT0H0M9.1667S
p861
sg39
(dp862
g41
VE6 Cratos HCS
p863
sg43
Nssa(dp864
g38
I4096745987
sg32
VWeaponDrop
p865
sg180
I20
sg44
(lp866
I2758383128
asg35
VPT1M2.330377S
p867
sg183
I6
sg184
VP0DT0H0M28.7667S
p868
sg39
(dp869
g41
VTL Danoxide
p870
sg43
Nssa(dp871
g38
I4108759423
sg39
(dp872
g41
VTL Danoxide
p873
sg43
Nssg44
(lp874
I2758383128
asg32
VWeaponPickup
p875
sg35
VPT1M2.330377S
p876
sa(dp877
g38
I313138863
sg39
(dp878
g41
VE6 bubu dubu
p879
sg43
Nssg44
(lp880
I1095363701
asg32
VWeaponPickup
p881
sg35
VPT1M2.782381S
p882
sa(dp883
g38
I4096745987
sg39
(dp884
g41
VE6 bubu dubu
p885
sg43
Nssg44
(lp886
I2758383128
asg32
VWeaponPickup
p887
sg35
VPT1M2.782381S
p888
sa(dp889
g32
VPlayerSpawn
p890
sg39
(dp891
g41
VE6 bubu dubu
p892
sg43
Nssg35
VPT1M2.782381S
p893
sa(dp894
g32
VMedal
p895
sg39
(dp896
g41
VTL Danoxide
p897
sg43
Nssg285
I2916014239
sg35
VPT1M4.5983924S
p898
sa(dp899
g240
I313138863
sg241
I00
sg242
I01
sg243
(dp900
g41
VE6 Shooter
p901
sg43
Nssg246
(lp902
I1095363701
asg248
I00
sg249
I00
sg250
I1
sg251
I0
sg252
I1
sg253
(dp903
Vy
F-0.73182329999999995
sVx
F-2.2164670000000002
sVz
F3.2910620000000002
ssg255
(dp904
Vy
F-1.0346493699999999
sVx
F-2.3851040000000001
sVz
F3.3786137100000002
ssg257
I00
sg258
(dp905
g41
VTL Spartan HCS
p906
sg43
Nssg262
(lp907
sg264
(lp908
sg266
I00
sg35
VPT1M6.7154063S
p909
sg32
VDeath
p910
sg269
I1
sa(dp911
g32
VMedal
p912
sg39
(dp913
g41
VE6 Shooter
p914
sg43
Nssg285
I2287626681
sg35
VPT1M6.7164268S
p915
sa(dp916
g38
I3682788176
sg32
VWeaponDrop
p917
sg180
I5
sg44
(lp918
I2758383128
asg35
VPT1M6.7164268S
p919
sg183
I5
sg184
VP0DT0H0M29.1500S
p920
sg39
(dp921
g41
VTL Spartan HCS
p922
sg43
Nssa(dp923
g38
I3682788176
sg32
VWeaponDrop
p924
sg180
I0
sg44
(lp925
I2758383128
asg35
VPT1M6.7164268S
p926
sg183
I0
sg184
VP0DT0S
p927
sg39
(dp928
g41
VTL Spartan HCS
p929
sg43
Nssa(dp930
g38
I4096745987
sg32
VWeaponDrop
p931
sg180
I18
sg44
(lp932
I2758383128
asg35
VPT1M6.7174272S
p933
sg183
I8
sg184
VP0DT0H0M17.0333S
p934
sg39
(dp935
g41
VTL Spartan HCS
p936
sg43
Nssa(dp937
g38
I313138863
sg39
(dp938
g41
VE6 Cratos HCS
p939
sg43
Nssg44
(lp940
I1095363701
asg32
VWeaponPickup
p941
sg35
VPT1M7.9404145S
p942
sa(dp943
g38
I4096745987
sg39
(dp944
g41
VE6 Cratos HCS
p945
sg43
Nssg44
(lp946
I2758383128
asg32
VWeaponPickup
p947
sg35
VPT1M7.9404145S
p948
sa(dp949
g32
VPlayerSpawn
p950
sg39
(dp951
g41
VE6 Cratos HCS
p952
sg43
Nssg35
VPT1M7.9404145S
p953
sa(dp954
g38
I4096745987
sg32
VWeaponDrop
p955
sg180
I0
sg44
(lp956
I2758383128
asg35
VPT1M11.9964713S
p957
sg183
I0
sg184
VP0DT0H0M8.8500S
p958
sg39
(dp959
g41
VE6 bubu dubu
p960
sg43
Nssa(dp961
g38
I424645655
sg39
(dp962
g41
VE6 bubu dubu
p963
sg43
Nssg44
(lp964
I1327094800
asg32
VWeaponPickup
p965
sg35
VPT1M11.9974602S
p966
sa(dp967
g240
I424645655
sg241
I00
sg242
I00
sg243
(dp968
g41
VTL Eco HCS
p969
sg43
Nssg246
(lp970
I1327094800
asg248
I00
sg249
I01
sg250
I1
sg251
I0
sg252
I1
sg253
(dp971
Vy
F15.3793583
sVx
F-15.2002916
sVz
F-0.89670276599999998
ssg255
(dp972
Vy
F12.282192200000001
sVx
F-17.8581161
sVz
F-0.89670604499999995
ssg257
I00
sg258
(dp973
g41
VE6 Huke HCS
p974
sg43
Nssg262
(lp975
sg264
(lp976
(dp977
g41
VTL StelluR
p978
sg43
Nsasg266
I01
sg35
VPT1M12.5814422S
p979
sg32
VDeath
p980
sg269
I1
sa(dp981
g32
VMedal
p982
sg39
(dp983
g41
VTL Eco HCS
p984
sg43
Nssg285
I3261908037
sg35
VPT1M12.582463S
p985
sa(dp986
g38
I313138863
sg32
VWeaponDrop
p987
sg180
I28
sg44
(lp988
I1095363701
asg35
VPT1M12.5834674S
p989
sg183
I6
sg184
VP0DT0H0M14.4833S
p990
sg39
(dp991
g41
VE6 Huke HCS
p992
sg43
Nssa(dp993
g38
I4096745987
sg32
VWeaponDrop
p994
sg180
I0
sg44
(lp995
I2758383128
asg35
VPT1M12.5834674S
p996
sg183
I0
sg184
VP0DT0H0M2.3833S
p997
sg39
(dp998
g41
VE6 Huke HCS
p999
sg43
Nssa(dp1000
g240
I2460880172
sg241
I00
sg242
I00
sg243
(dp1001
g41
VE6 Huke HCS
p1002
sg43
Nssg246
(lp1003
sg248
I00
sg249
I01
sg250
I1
sg251
I0
sg252
I1
sg253
(dp1004
Vy
F11.3380919
sVx
F-16.835866899999999
sVz
F-0.59326636799999999
ssg255
(dp1005
Vy
F15.299845700000001
sVx
F-18.021861999999999
sVz
F0.1455931
ssg257
I00
sg258
(dp1006
g41
VTL Eco HCS
p1007
sg43
Nssg262
(lp1008
sg264
(lp1009
sg266
I00
sg35
VPT1M13.7984501S
p1010
sg32
VDeath
p1011
sg269
I1
sa(dp1012
g32
VMedal
p1013
sg39
(dp1014
g41
VE6 Huke HCS
p1015
sg43
Nssg285
I2251767925
sg35
VPT1M13.7994714S
p1016
sa(dp1017
g32
VMedal
p1018
sg39
(dp1019
g41
VE6 Huke HCS
p1020
sg43
Nssg285
I285057226
sg35
VPT1M13.7994714S
p1021
sa(dp1022
g38
I313138863
sg32
VWeaponDrop
p1023
sg180
I0
sg44
(lp1024
I1095363701
asg35
VPT1M13.7994714S
p1025
sg183
I0
sg184
VP0DT0H0M0.5833S
p1026
sg39
(dp1027
g41
VTL Eco HCS
p1028
sg43
Nssa(dp1029
g38
I424645655
sg32
VWeaponDrop
p1030
sg180
I24
sg44
(lp1031
I1327094800
asg35
VPT1M13.7994714S
p1032
sg183
I8
sg184
VP0DT0H0M24.1833S
p1033
sg39
(dp1034
g41
VTL Eco HCS
p1035
sg43
Nssa(dp1036
g38
I313138863
sg39
(dp1037
g41
VTL Spartan HCS
p1038
sg43
Nssg44
(lp1039
I1095363701
asg32
VWeaponPickup
p1040
sg35
VPT1M14.7314573S
p1041
sa(dp1042
g38
I4096745987
sg39
(dp1043
g41
VTL Spartan HCS
p1044
sg43
Nssg44
(lp1045
I2758383128
asg32
VWeaponPickup
p1046
sg35
VPT1M14.7314573S
p1047
sa(dp1048
g32
VPlayerSpawn
p1049
sg39
(dp1050
g41
VTL Spartan HCS
p1051
sg43
Nssg35
VPT1M14.7314573S
p1052
sa(dp1053
g32
VMedal
p1054
sg39
(dp1055
g41
VE6 Shooter
p1056
sg43
Nssg285
I3565443938
sg35
VPT1M16.7154905S
p1057
sa(dp1058
g32
VMedal
p1059
sg39
(dp1060
g41
VE6 Cratos HCS
p1061
sg43
Nssg285
I3565443938
sg35
VPT1M16.7154905S
p1062
sa(dp1063
g32
VMedal
p1064
sg39
(dp1065
g41
VE6 bubu dubu
p1066
sg43
Nssg285
I1637841390
sg35
VPT1M16.7154905S
p1067
sa(dp1068
g38
I313138863
sg39
(dp1069
g41
VE6 Huke HCS
p1070
sg43
Nssg44
(lp1071
I1095363701
asg32
VWeaponPickup
p1072
sg35
VPT1M20.5984949S
p1073
sa(dp1074
g38
I4096745987
sg39
(dp1075
g41
VE6 Huke HCS
p1076
sg43
Nssg44
(lp1077
I2758383128
asg32
VWeaponPickup
p1078
sg35
VPT1M20.5984949S
p1079
sa(dp1080
g32
VPlayerSpawn
p1081
sg39
(dp1082
g41
VE6 Huke HCS
p1083
sg43
Nssg35
VPT1M20.5984949S
p1084
sa(dp1085
g38
I313138863
sg39
(dp1086
g41
VTL Eco HCS
p1087
sg43
Nssg44
(lp1088
I1095363701
asg32
VWeaponPickup
p1089
sg35
VPT1M21.815522S
p1090
sa(dp1091
g38
I4096745987
sg39
(dp1092
g41
VTL Eco HCS
p1093
sg43
Nssg44
(lp1094
I2758383128
asg32
VWeaponPickup
p1095
sg35
VPT1M21.815522S
p1096
sa(dp1097
g32
VPlayerSpawn
p1098
sg39
(dp1099
g41
VTL Eco HCS
p1100
sg43
Nssg35
VPT1M21.815522S
p1101
sa(dp1102
g240
I313138863
sg241
I00
sg242
I00
sg243
(dp1103
g41
VTL Spartan HCS
p1104
sg43
Nssg246
(lp1105
I1095363701
asg248
I00
sg249
I01
sg250
I1
sg251
I0
sg252
I1
sg253
(dp1106
Vy
F4.23467255
sVx
F3.2488809999999999
sVz
F1.2667673800000001
ssg255
(dp1107
Vy
F0.65254384300000001
sVx
F2.4855418199999999
sVz
F1.05445671
ssg257
I00
sg258
(dp1108
g41
VE6 Cratos HCS
p1109
sg43
Nssg262
(lp1110
sg264
(lp1111
(dp1112
g41
VTL Danoxide
p1113
sg43
Nsasg266
I00
sg35
VPT1M25.0485537S
p1114
sg32
VDeath
p1115
sg269
I1
sa(dp1116
g32
VMedal
p1117
sg39
(dp1118
g41
VTL Danoxide
p1119
sg43
Nssg285
I3744028405
sg35
VPT1M25.0495236S
p1120
sa(dp1121
g38
I313138863
sg32
VWeaponDrop
p1122
sg180
I0
sg44
(lp1123
I1095363701
asg35
VPT1M25.0505218S
p1124
sg183
I0
sg184
VP0DT0H0M1.0333S
p1125
sg39
(dp1126
g41
VE6 Cratos HCS
p1127
sg43
Nssa(dp1128
g38
I4096745987
sg32
VWeaponDrop
p1129
sg180
I7
sg44
(lp1130
I2758383128
asg35
VPT1M25.0505218S
p1131
sg183
I4
sg184
VP0DT0H0M16.0833S
p1132
sg39
(dp1133
g41
VE6 Cratos HCS
p1134
sg43
Nssa(dp1135
g38
I313138863
sg32
VWeaponDrop
p1136
sg180
I13
sg44
(lp1137
I1095363701
asg35
VPT1M26.2465305S
p1138
sg183
I6
sg184
VP0DT0H0M14.7667S
p1139
sg39
(dp1140
g41
VE6 Shooter
p1141
sg43
Nssa(dp1142
g38
I313138863
sg32
VWeaponDrop
p1143
sg180
I0
sg44
(lp1144
I1095363701
asg35
VPT1M26.2465305S
p1145
sg183
I0
sg184
VP0DT0S
p1146
sg39
(dp1147
g41
VE6 Shooter
p1148
sg43
Nssa(dp1149
g38
I3682788176
sg39
(dp1150
g41
VE6 Shooter
p1151
sg43
Nssg44
(lp1152
I2758383128
asg32
VWeaponPickup
p1153
sg35
VPT1M26.2465305S
p1154
sa(dp1155
g240
I4106030681
sg241
I00
sg242
I00
sg243
(dp1156
g41
VTL Eco HCS
p1157
sg43
Nssg246
(lp1158
sg248
I00
sg249
I01
sg250
I1
sg251
I0
sg252
I1
sg253
(dp1159
Vy
F9.8636250000000008
sVx
F1.9494560999999999
sVz
F1.4982089999999999
ssg255
(dp1160
Vy
F7.9188466100000001
sVx
F-3.2195563300000001
sVz
F1.49790943
ssg257
I00
sg258
(dp1161
g41
VE6 Huke HCS
p1162
sg43
Nssg262
(lp1163
sg264
(lp1164
sg266
I00
sg35
VPT1M31.5465642S
p1165
sg32
VDeath
p1166
sg269
I1
sa(dp1167
g32
VMedal
p1168
sg39
(dp1169
g41
VTL StelluR
p1170
sg43
Nssg285
I824733727
sg35
VPT1M31.5475842S
p1171
sa(dp1172
g38
I4096745987
sg32
VWeaponDrop
p1173
sg180
I7
sg44
(lp1174
I2758383128
asg35
VPT1M31.5485847S
p1175
sg183
I2
sg184
VP0DT0H0M10.0167S
p1176
sg39
(dp1177
g41
VE6 Huke HCS
p1178
sg43
Nssa(dp1179
g38
I313138863
sg32
VWeaponDrop
p1180
sg180
I0
sg44
(lp1181
I1095363701
asg35
VPT1M31.5505844S
p1182
sg183
I0
sg184
VP0DT0H0M0.9333S
p1183
sg39
(dp1184
g41
VE6 Huke HCS
p1185
sg43
Nssa(dp1186
g240
I313138863
sg241
I00
sg242
I00
sg243
(dp1187
g41
VTL Spartan HCS
p1188
sg43
Nssg246
(lp1189
I1095363701
asg248
I00
sg249
I01
sg250
I1
sg251
I0
sg252
I1
sg253
(dp1190
Vy
F-0.28151592600000003
sVx
F-5.0447883600000001
sVz
F0.305549562
ssg255
(dp1191
Vy
F2.1324909999999999
sVx
F-5.3578599999999996
sVz
F0.99930870000000005
ssg257
I00
sg258
(dp1192
g41
VE6 Shooter
p1193
sg43
Nssg262
(lp1194
sg264
(lp1195
(dp1196
g41
VTL Danoxide
p1197
sg43
Nsasg266
I00
sg35
VPT1M31.7505692S
p1198
sg32
VDeath
p1199
sg269
I1
sa(dp1200
g32
VMedal
p1201
sg39
(dp1202
g41
VTL Spartan HCS
p1203
sg43
Nssg285
I2838259753
sg35
VPT1M31.7505692S
p1204
sa(dp1205
g32
VImpulse
p1206
sg39
(dp1207
g41
VTL Spartan HCS
p1208
sg43
Nssg317
I2556889090
sg35
VPT1M31.7505692S
p1209
sa(dp1210
g38
I3682788176
sg32
VWeaponDrop
p1211
sg180
I1
sg44
(lp1212
I2758383128
asg35
VPT1M31.7525682S
p1213
sg183
I1
sg184
VP0DT0H0M1.9333S
p1214
sg39
(dp1215
g41
VE6 Shooter
p1216
sg43
Nssa(dp1217
g38
I4096745987
sg32
VWeaponDrop
p1218
sg180
I6
sg44
(lp1219
I2758383128
asg35
VPT1M31.7525682S
p1220
sg183
I2
sg184
VP0DT0H0M20.1333S
p1221
sg39
(dp1222
g41
VE6 Shooter
p1223
sg43
Nssa(dp1224
g38
I313138863
sg39
(dp1225
g41
VE6 Cratos HCS
p1226
sg43
Nssg44
(lp1227
I1095363701
asg32
VWeaponPickup
p1228
sg35
VPT1M33.0645945S
p1229
sa(dp1230
g38
I4096745987
sg39
(dp1231
g41
VE6 Cratos HCS
p1232
sg43
Nssg44
(lp1233
I2758383128
asg32
VWeaponPickup
p1234
sg35
VPT1M33.0645945S
p1235
sa(dp1236
g32
VPlayerSpawn
p1237
sg39
(dp1238
g41
VE6 Cratos HCS
p1239
sg43
Nssg35
VPT1M33.0645945S
p1240
sa(dp1241
g240
I2133511419
sg241
I00
sg242
I00
sg243
(dp1242
g41
VTL StelluR
p1243
sg43
Nssg246
(lp1244
I2758383128
asg248
I00
sg249
I01
sg250
I1
sg251
I0
sg252
I1
sg253
(dp1245
Vy
F3.9904510000000002
sVx
F-12.215493199999999
sVz
F-0.0274377167
ssg255
(dp1246
Vy
F3.9249224699999998
sVx
F-7.3141569999999998
sVz
F-0.89677143100000001
ssg257
I00
sg258
(dp1247
g41
VE6 bubu dubu
p1248
sg43
Nssg262
(lp1249
sg264
(lp1250
(dp1251
g41
VTL Eco HCS
p1252
sg43
Nsasg266
I00
sg35
VPT1M34.5475825S
p1253
sg32
VDeath
p1254
sg269
I1
sa(dp1255
g38
I313138863
sg32
VWeaponDrop
p1256
sg180
I0
sg44
(lp1257
I1095363701
asg35
VPT1M34.5495841S
p1258
sg183
I0
sg184
VP0DT0H0M0.3667S
p1259
sg39
(dp1260
g41
VE6 bubu dubu
p1261
sg43
Nssa(dp1262
g38
I424645655
sg32
VWeaponDrop
p1263
sg180
I12
sg44
(lp1264
I1327094800
asg35
VPT1M34.5495841S
p1265
sg183
I9
sg184
VP0DT0H0M22.5500S
p1266
sg39
(dp1267
g41
VE6 bubu dubu
p1268
sg43
Nssa(dp1269
g38
I4096745987
sg32
VWeaponDrop
p1270
sg180
I3
sg44
(lp1271
I2758383128
asg35
VPT1M37.795606S
p1272
sg183
I1
sg184
VP0DT0H0M10.8833S
p1273
sg39
(dp1274
g41
VTL Spartan HCS
p1275
sg43
Nssa(dp1276
g38
I424645655
sg39
(dp1277
g41
VTL Spartan HCS
p1278
sg43
Nssg44
(lp1279
I1327094800
asg32
VWeaponPickup
p1280
sg35
VPT1M37.7966129S
p1281
sa(dp1282
g32
VMedal
p1283
sg39
(dp1284
g41
VTL Spartan HCS
p1285
sg43
Nssg285
I3565443938
sg35
VPT1M39.1796353S
p1286
sa(dp1287
g32
VMedal
p1288
sg39
(dp1289
g41
VTL StelluR
p1290
sg43
Nssg285
I3565443938
sg35
VPT1M39.1796353S
p1291
sa(dp1292
g32
VMedal
p1293
sg39
(dp1294
g41
VTL Eco HCS
p1295
sg43
Nssg285
I2105198095
sg35
VPT1M39.1796353S
p1296
sa(dp1297
g32
VMedal
p1298
sg39
(dp1299
g41
VTL Spartan HCS
p1300
sg43
Nssg285
I2105198095
sg35
VPT1M39.1796353S
p1301
sa(dp1302
g32
VMedal
p1303
sg39
(dp1304
g41
VTL StelluR
p1305
sg43
Nssg285
I2105198095
sg35
VPT1M39.1796353S
p1306
sa(dp1307
g32
VMedal
p1308
sg39
(dp1309
g41
VTL Danoxide
p1310
sg43
Nssg285
I2105198095
sg35
VPT1M39.1796353S
p1311
sa(dp1312
g32
VMedal
p1313
sg39
(dp1314
g41
VTL Danoxide
p1315
sg43
Nssg285
I1637841390
sg35
VPT1M39.1796353S
p1316
sa(dp1317
g32
VMedal
p1318
sg39
(dp1319
g41
VTL StelluR
p1320
sg43
Nssg285
I3354395650
sg35
VPT1M39.1806341S
p1321
sa(dp1322
g38
I313138863
sg39
(dp1323
g41
VE6 Huke HCS
p1324
sg43
Nssg44
(lp1325
I1095363701
asg32
VWeaponPickup
p1326
sg35
VPT1M39.5646169S
p1327
sa(dp1328
g38
I4096745987
sg39
(dp1329
g41
VE6 Huke HCS
p1330
sg43
Nssg44
(lp1331
I2758383128
asg32
VWeaponPickup
p1332
sg35
VPT1M39.5646169S
p1333
sa(dp1334
g32
VPlayerSpawn
p1335
sg39
(dp1336
g41
VE6 Huke HCS
p1337
sg43
Nssg35
VPT1M39.5646169S
p1338
sa(dp1339
g38
I313138863
sg39
(dp1340
g41
VE6 Shooter
p1341
sg43
Nssg44
(lp1342
I1095363701
asg32
VWeaponPickup
p1343
sg35
VPT1M39.7646164S
p1344
sa(dp1345
g38
I4096745987
sg39
(dp1346
g41
VE6 Shooter
p1347
sg43
Nssg44
(lp1348
I2758383128
asg32
VWeaponPickup
p1349
sg35
VPT1M39.7646164S
p1350
sa(dp1351
g32
VPlayerSpawn
p1352
sg39
(dp1353
g41
VE6 Shooter
p1354
sg43
Nssg35
VPT1M39.7646164S
p1355
sa(dp1356
g38
I313138863
sg39
(dp1357
g41
VE6 bubu dubu
p1358
sg43
Nssg44
(lp1359
I1095363701
asg32
VWeaponPickup
p1360
sg35
VPT1M42.5646347S
p1361
sa(dp1362
g38
I4096745987
sg39
(dp1363
g41
VE6 bubu dubu
p1364
sg43
Nssg44
(lp1365
I2758383128
asg32
VWeaponPickup
p1366
sg35
VPT1M42.5646347S
p1367
sa(dp1368
g32
VPlayerSpawn
p1369
sg39
(dp1370
g41
VE6 bubu dubu
p1371
sg43
Nssg35
VPT1M42.5646347S
p1372
sa(dp1373
g240
I3808094875
sg241
I00
sg242
I00
sg243
(dp1374
g41
VTL Danoxide
p1375
sg43
Nssg246
(lp1376
I2758383128
asg248
I00
sg249
I01
sg250
I1
sg251
I0
sg252
I1
sg253
(dp1377
Vy
F19.817544900000001
sVx
F7.3138384800000003
sVz
F0.32689259999999998
ssg255
(dp1378
Vy
F18.3512688
sVx
F10.3957148
sVz
F1.29425061
ssg257
I00
sg258
(dp1379
g41
VE6 Huke HCS
p1380
sg43
Nssg262
(lp1381
sg264
(lp1382
(dp1383
g41
VTL StelluR
p1384
sg43
Nsasg266
I00
sg35
VPT1M49.4136793S
p1385
sg32
VDeath
p1386
sg269
I1
sa(dp1387
g32
VMedal
p1388
sg39
(dp1389
g41
VTL Danoxide
p1390
sg43
Nssg285
I2838259753
sg35
VPT1M49.4136793S
p1391
sa(dp1392
g32
VImpulse
p1393
sg39
(dp1394
g41
VTL Danoxide
p1395
sg43
Nssg317
I2556889090
sg35
VPT1M49.4136793S
p1396
sa(dp1397
g38
I313138863
sg32
VWeaponDrop
p1398
sg180
I12
sg44
(lp1399
I1095363701
asg35
VPT1M49.4156812S
p1400
sg183
I10
sg184
VP0DT0H0M4.7333S
p1401
sg39
(dp1402
g41
VE6 Huke HCS
p1403
sg43
Nssa(dp1404
g38
I4096745987
sg32
VWeaponDrop
p1405
sg180
I4
sg44
(lp1406
I2758383128
asg35
VPT1M49.4156812S
p1407
sg183
I3
sg184
VP0DT0H0M5.1167S
p1408
sg39
(dp1409
g41
VE6 Huke HCS
p1410
sg43
Nssa(dp1411
g240
I4096745987
sg241
I00
sg242
I00
sg243
(dp1412
g41
VE6 Cratos HCS
p1413
sg43
Nssg246
(lp1414
I2758383128
asg248
I00
sg249
I01
sg250
I1
sg251
I0
sg252
I1
sg253
(dp1415
Vy
F11.91839
sVx
F9.9182590000000008
sVz
F2.2910094299999999
ssg255
(dp1416
Vy
F18.584423099999999
sVx
F9.4266380000000005
sVz
F0.31205552800000003
ssg257
I00
sg258
(dp1417
g41
VTL Danoxide
p1418
sg43
Nssg262
(lp1419
sg264
(lp1420
(dp1421
g41
VE6 Huke HCS
p1422
sg43
Nsa(dp1423
g41
VE6 Shooter
p1424
sg43
Nsasg266
I01
sg35
VPT1M50.3806856S
p1425
sg32
VDeath
p1426
sg269
I1
sa(dp1427
g32
VMedal
p1428
sg39
(dp1429
g41
VE6 Cratos HCS
p1430
sg43
Nssg285
I3261908037
sg35
VPT1M50.381706S
p1431
sa(dp1432
g38
I3808094875
sg32
VWeaponDrop
p1433
sg180
I48
sg44
(lp1434
I2758383128
asg35
VPT1M50.3827044S
p1435
sg183
I6
sg184
VP0DT0H0M30.5667S
p1436
sg39
(dp1437
g41
VTL Danoxide
p1438
sg43
Nssa(dp1439
g38
I4108759423
sg32
VWeaponDrop
p1440
sg180
I18
sg44
(lp1441
I2758383128
asg35
VPT1M50.3827044S
p1442
sg183
I4
sg184
VP0DT0H0M27.8333S
p1443
sg39
(dp1444
g41
VTL Danoxide
p1445
sg43
Nssa(dp1446
g240
I4096745987
sg241
I00
sg242
I00
sg243
(dp1447
g41
VE6 bubu dubu
p1448
sg43
Nssg246
(lp1449
I2758383128
asg248
I00
sg249
I00
sg250
I2
sg251
I0
sg252
I0
sg253
(dp1450
Vy
F24.993026700000001
sVx
F-10.475867300000001
sVz
F1.503374
ssg255
(dp1451
Vy
F27.5284519
sVx
F-11.616913800000001
sVz
F1.50311935
ssg257
I00
sg258
(dp1452
g260
g261
ssg262
(lp1453
sg264
(lp1454
sg266
I00
sg35
VPT1M51.6797214S
p1455
sg32
VDeath
p1456
sg269
I1
sa(dp1457
g240
I3168248199
sg241
I00
sg242
I00
sg243
(dp1458
g41
VTL StelluR
p1459
sg43
Nssg246
(lp1460
sg248
I00
sg249
I00
sg250
I1
sg251
I0
sg252
I1
sg253
(dp1461
Vy
F13.50339
sVx
F4.2247843700000001
sVz
F1.4982568000000001
ssg255
(dp1462
Vy
F13.7680349
sVx
F4.4617443100000003
sVz
F1.4982566799999999
ssg257
I01
sg258
(dp1463
g41
VE6 Shooter
p1464
sg43
Nssg262
(lp1465
sg264
(lp1466
sg266
I00
sg35
VPT1M53.1637024S
p1467
sg32
VDeath
p1468
sg269
I1
sa(dp1469
g32
VMedal
p1470
sg39
(dp1471
g41
VTL StelluR
p1472
sg43
Nssg285
I298813630
sg35
VPT1M53.1647047S
p1473
sa(dp1474
g38
I313138863
sg32
VWeaponDrop
p1475
sg180
I6
sg44
(lp1476
I1095363701
asg35
VPT1M53.1647047S
p1477
sg183
I1
sg184
VP0DT0H0M4.7333S
p1478
sg39
(dp1479
g41
VE6 Shooter
p1480
sg43
Nssa(dp1481
g38
I4096745987
sg32
VWeaponDrop
p1482
sg180
I0
sg44
(lp1483
I2758383128
asg35
VPT1M53.166704S
p1484
sg183
I0
sg184
VP0DT0H0M8.6667S
p1485
sg39
(dp1486
g41
VE6 Shooter
p1487
sg43
Nssa(dp1488
g240
I424645655
sg241
I00
sg242
I00
sg243
(dp1489
g41
VTL StelluR
p1490
sg43
Nssg246
(lp1491
I1327094800
asg248
I00
sg249
I01
sg250
I1
sg251
I0
sg252
I1
sg253
(dp1492
Vy
F14.361026799999999
sVx
F3.9858534300000001
sVz
F1.4982566799999999
ssg255
(dp1493
Vy
F13.604155499999999
sVx
F6.4748109999999999
sVz
F2.3137188000000002
ssg257
I00
sg258
(dp1494
g41
VE6 Cratos HCS
p1495
sg43
Nssg262
(lp1496
sg264
(lp1497
sg266
I01
sg35
VPT1M55.179715S
p1498
sg32
VDeath
p1499
sg269
I1
sa(dp1500
g32
VMedal
p1501
sg39
(dp1502
g41
VTL StelluR
p1503
sg43
Nssg285
I3261908037
sg35
VPT1M55.180716S
p1504
sa(dp1505
g32
VMedal
p1506
sg39
(dp1507
g41
VTL StelluR
p1508
sg43
Nssg285
I2078758684
sg35
VPT1M55.180716S
p1509
sa(dp1510
g38
I313138863
sg32
VWeaponDrop
p1511
sg180
I15
sg44
(lp1512
I1095363701
asg35
VPT1M55.1817154S
p1513
sg183
I3
sg184
VP0DT0H0M3.4167S
p1514
sg39
(dp1515
g41
VE6 Cratos HCS
p1516
sg43
Nssa(dp1517
g38
I4096745987
sg32
VWeaponDrop
p1518
sg180
I7
sg44
(lp1519
I2758383128
asg35
VPT1M55.1817154S
p1520
sg183
I4
sg184
VP0DT0H0M18.7000S
p1521
sg39
(dp1522
g41
VE6 Cratos HCS
p1523
sg43
Nssa(dp1524
g38
I313138863
sg39
(dp1525
g41
VE6 Huke HCS
p1526
sg43
Nssg44
(lp1527
I1095363701
asg32
VWeaponPickup
p1528
sg35
VPT1M57.4297306S
p1529
sa(dp1530
g38
I4096745987
sg39
(dp1531
g41
VE6 Huke HCS
p1532
sg43
Nssg44
(lp1533
I2758383128
asg32
VWeaponPickup
p1534
sg35
VPT1M57.4307325S
p1535
sa(dp1536
g32
VPlayerSpawn
p1537
sg39
(dp1538
g41
VE6 Huke HCS
p1539
sg43
Nssg35
VPT1M57.4307325S
p1540
sa(dp1541
g38
I313138863
sg39
(dp1542
g41
VTL Danoxide
p1543
sg43
Nssg44
(lp1544
I1095363701
asg32
VWeaponPickup
p1545
sg35
VPT1M58.397738S
p1546
sa(dp1547
g38
I4096745987
sg39
(dp1548
g41
VTL Danoxide
p1549
sg43
Nssg44
(lp1550
I2758383128
asg32
VWeaponPickup
p1551
sg35
VPT1M58.397738S
p1552
sa(dp1553
g32
VPlayerSpawn
p1554
sg39
(dp1555
g41
VTL Danoxide
p1556
sg43
Nssg35
VPT1M58.397738S
p1557
sa(dp1558
g38
I4096745987
sg32
VWeaponDrop
p1559
sg180
I0
sg44
(lp1560
I2758383128
asg35
VPT2M0.9447743S
p1561
sg183
I0
sg184
VP0DT0H0M2.7833S
p1562
sg39
(dp1563
g41
VE6 Huke HCS
p1564
sg43
Nssa(dp1565
g38
I424645655
sg39
(dp1566
g41
VE6 Huke HCS
p1567
sg43
Nssg44
(lp1568
I1327094800
asg32
VWeaponPickup
p1569
sg35
VPT2M0.9457721S
p1570
sa(dp1571
g38
I313138863
sg39
(dp1572
g41
VE6 Shooter
p1573
sg43
Nssg44
(lp1574
I1095363701
asg32
VWeaponPickup
p1575
sg35
VPT2M1.1797533S
p1576
sa(dp1577
g38
I4096745987
sg39
(dp1578
g41
VE6 Shooter
p1579
sg43
Nssg44
(lp1580
I2758383128
asg32
VWeaponPickup
p1581
sg35
VPT2M1.1807523S
p1582
sa(dp1583
g32
VPlayerSpawn
p1584
sg39
(dp1585
g41
VE6 Shooter
p1586
sg43
Nssg35
VPT2M1.1807523S
p1587
sa(dp1588
g32
VMedal
p1589
sg39
(dp1590
g41
VTL Spartan HCS
p1591
sg43
Nssg285
I2916014239
sg35
VPT2M3.0117857S
p1592
sa(dp1593
g38
I313138863
sg39
(dp1594
g41
VE6 Cratos HCS
p1595
sg43
Nssg44
(lp1596
I1095363701
asg32
VWeaponPickup
p1597
sg35
VPT2M3.1967673S
p1598
sa(dp1599
g38
I4096745987
sg39
(dp1600
g41
VE6 Cratos HCS
p1601
sg43
Nssg44
(lp1602
I2758383128
asg32
VWeaponPickup
p1603
sg35
VPT2M3.1967673S
p1604
sa(dp1605
g32
VPlayerSpawn
p1606
sg39
(dp1607
g41
VE6 Cratos HCS
p1608
sg43
Nssg35
VPT2M3.1967673S
p1609
sa(dp1610
g32
VMedal
p1611
sg39
(dp1612
g41
VE6 Huke HCS
p1613
sg43
Nssg285
I3565443938
sg35
VPT2M7.4287942S
p1614
sa(dp1615
g32
VMedal
p1616
sg39
(dp1617
g41
VE6 Shooter
p1618
sg43
Nssg285
I3565443938
sg35
VPT2M7.4287942S
p1619
sa(dp1620
g240
I3190813201
sg241
I00
sg242
I00
sg243
(dp1621
g41
VTL Eco HCS
p1622
sg43
Nssg246
(lp1623
sg248
I00
sg249
I01
sg250
I1
sg251
I0
sg252
I1
sg253
(dp1624
Vy
F20.439125099999998
sVx
F-3.9520804900000002
sVz
F1.4996433300000001
ssg255
(dp1625
Vy
F15.305361700000001
sVx
F-1.84261382
sVz
F1.6919724899999999
ssg257
I00
sg258
(dp1626
g41
VE6 bubu dubu
p1627
sg43
Nssg262
(lp1628
sg264
(lp1629
(dp1630
g41
VTL Spartan HCS
p1631
sg43
Nsasg266
I00
sg35
VPT2M11.3798202S
p1632
sg32
VDeath
p1633
sg269
I1
sa(dp1634
g38
I313138863
sg32
VWeaponDrop
p1635
sg180
I0
sg44
(lp1636
I1095363701
asg35
VPT2M11.3818404S
p1637
sg183
I0
sg184
VP0DT0H0M0.8000S
p1638
sg39
(dp1639
g41
VE6 bubu dubu
p1640
sg43
Nssa(dp1641
g38
I4096745987
sg32
VWeaponDrop
p1642
sg180
I11
sg44
(lp1643
I2758383128
asg35
VPT2M11.3818404S
p1644
sg183
I8
sg184
VP0DT0H0M28.0167S
p1645
sg39
(dp1646
g41
VE6 bubu dubu
p1647
sg43
Nssa(dp1648
g38
I4096745987
sg32
VWeaponDrop
p1649
sg180
I0
sg44
(lp1650
I2758383128
asg35
VPT2M11.3818404S
p1651
sg183
I0
sg184
VP0DT0S
p1652
sg39
(dp1653
g41
VE6 bubu dubu
p1654
sg43
Nssa(dp1655
g240
I313138863
sg241
I00
sg242
I00
sg243
(dp1656
g41
VE6 Shooter
p1657
sg43
Nssg246
(lp1658
I1095363701
asg248
I00
sg249
I01
sg250
I1
sg251
I0
sg252
I1
sg253
(dp1659
Vy
F12.2113295
sVx
F-16.993637100000001
sVz
F-0.89671873999999996
ssg255
(dp1660
Vy
F13.589146599999999
sVx
F-18.723226499999999
sVz
F-0.104200155
ssg257
I00
sg258
(dp1661
g41
VTL StelluR
p1662
sg43
Nssg262
(lp1663
sg264
(lp1664
(dp1665
g41
VE6 Huke HCS
p1666
sg43
Nsasg266
I00
sg35
VPT2M12.0628232S
p1667
sg32
VDeath
p1668
sg269
I1
sa(dp1669
g38
I424645655
sg32
VWeaponDrop
p1670
sg180
I90
sg44
(lp1671
I1327094800
asg35
VPT2M12.0638431S
p1672
sg183
I46
sg184
VP0DT0H1M21.0500S
p1673
sg39
(dp1674
g41
VTL StelluR
p1675
sg43
Nssa(dp1676
g38
I2133511419
sg32
VWeaponDrop
p1677
sg180
I41
sg44
(lp1678
I2758383128
asg35
VPT2M12.0638431S
p1679
sg183
I11
sg184
VP0DT0H0M26.8333S
p1680
sg39
(dp1681
g41
VTL StelluR
p1682
sg43
Nssa(dp1683
g240
I4096745987
sg241
I00
sg242
I01
sg243
(dp1684
g41
VTL Danoxide
p1685
sg43
Nssg246
(lp1686
I2758383128
asg248
I00
sg249
I00
sg250
I1
sg251
I0
sg252
I1
sg253
(dp1687
Vy
F-1.4434615399999999
sVx
F-6.9992575600000002
sVz
F4.6474852599999998
ssg255
(dp1688
Vy
F-1.77916586
sVx
F-7.2203092599999996
sVz
F4.60543966
ssg257
I00
sg258
(dp1689
g41
VE6 Cratos HCS
p1690
sg43
Nssg262
(lp1691
sg264
(lp1692
sg266
I00
sg35
VPT2M13.262831S
p1693
sg32
VDeath
p1694
sg269
I1
sa(dp1695
g32
VMedal
p1696
sg39
(dp1697
g41
VTL Danoxide
p1698
sg43
Nssg285
I2287626681
sg35
VPT2M13.2638324S
p1699
sa(dp1700
g38
I313138863
sg32
VWeaponDrop
p1701
sg180
I0
sg44
(lp1702
I1095363701
asg35
VPT2M13.2648309S
p1703
sg183
I0
sg184
VP0DT0H0M1.2833S
p1704
sg39
(dp1705
g41
VE6 Cratos HCS
p1706
sg43
Nssa(dp1707
g38
I4096745987
sg32
VWeaponDrop
p1708
sg180
I4
sg44
(lp1709
I2758383128
asg35
VPT2M13.2648309S
p1710
sg183
I2
sg184
VP0DT0H0M8.7833S
p1711
sg39
(dp1712
g41
VE6 Cratos HCS
p1713
sg43
Nssa(dp1714
g38
I313138863
sg32
VWeaponDrop
p1715
sg180
I0
sg44
(lp1716
I1095363701
asg35
VPT2M19.3448732S
p1717
sg183
I0
sg184
VP0DT0H0M3.5500S
p1718
sg39
(dp1719
g41
VTL Danoxide
p1720
sg43
Nssa(dp1721
g38
I3682788176
sg39
(dp1722
g41
VTL Danoxide
p1723
sg43
Nssg44
(lp1724
I2758383128
asg32
VWeaponPickupPad
p1725
sg35
VPT2M19.3458737S
p1726
sa(dp1727
g38
I3682788176
sg39
(dp1728
g41
VTL Danoxide
p1729
sg43
Nssg44
(lp1730
I2758383128
asg32
VWeaponPickup
p1731
sg35
VPT2M19.3458737S
p1732
sa(dp1733
g38
I313138863
sg39
(dp1734
g41
VE6 bubu dubu
p1735
sg43
Nssg44
(lp1736
I1095363701
asg32
VWeaponPickup
p1737
sg35
VPT2M19.3998757S
p1738
sa(dp1739
g38
I4096745987
sg39
(dp1740
g41
VE6 bubu dubu
p1741
sg43
Nssg44
(lp1742
I2758383128
asg32
VWeaponPickup
p1743
sg35
VPT2M19.3998757S
p1744
sa(dp1745
g32
VPlayerSpawn
p1746
sg39
(dp1747
g41
VE6 bubu dubu
p1748
sg43
Nssg35
VPT2M19.3998757S
p1749
sa(dp1750
g240
I424645655
sg241
I00
sg242
I00
sg243
(dp1751
g41
VE6 Huke HCS
p1752
sg43
Nssg246
(lp1753
I1327094800
asg248
I00
sg249
I01
sg250
I1
sg251
I0
sg252
I1
sg253
(dp1754
Vy
F-1.01983
sVx
F-1.67482924
sVz
F0.30554962200000002
ssg255
(dp1755
Vy
F-0.39181384400000002
sVx
F0.54018759999999999
sVz
F1.31650925
ssg257
I00
sg258
(dp1756
g41
VTL Spartan HCS
p1757
sg43
Nssg262
(lp1758
sg264
(lp1759
sg266
I01
sg35
VPT2M19.5788711S
p1760
sg32
VDeath
p1761
sg269
I1
sa(dp1762
g32
VImpulse
p1763
sg39
(dp1764
g41
VE6 Huke HCS
p1765
sg43
Nssg317
I3174430457
sg35
VPT2M19.5808702S
p1766
sa(dp1767
g32
VMedal
p1768
sg39
(dp1769
g41
VE6 Huke HCS
p1770
sg43
Nssg285
I1080468863
sg35
VPT2M19.5808702S
p1771
sa(dp1772
g38
I313138863
sg32
VWeaponDrop
p1773
sg180
I44
sg44
(lp1774
I1095363701
asg35
VPT2M19.5818703S
p1775
sg183
I29
sg184
VP0DT0H0M28.5833S
p1776
sg39
(dp1777
g41
VTL Spartan HCS
p1778
sg43
Nssa(dp1779
g38
I424645655
sg32
VWeaponDrop
p1780
sg180
I9
sg44
(lp1781
I1327094800
asg35
VPT2M19.5818703S
p1782
sg183
I6
sg184
VP0DT0H0M25.3833S
p1783
sg39
(dp1784
g41
VTL Spartan HCS
p1785
sg43
Nssa(dp1786
g38
I313138863
sg39
(dp1787
g41
VTL StelluR
p1788
sg43
Nssg44
(lp1789
I1095363701
asg32
VWeaponPickup
p1790
sg35
VPT2M20.0788754S
p1791
sa(dp1792
g38
I4096745987
sg39
(dp1793
g41
VTL StelluR
p1794
sg43
Nssg44
(lp1795
I2758383128
asg32
VWeaponPickup
p1796
sg35
VPT2M20.0798948S
p1797
sa(dp1798
g32
VPlayerSpawn
p1799
sg39
(dp1800
g41
VTL StelluR
p1801
sg43
Nssg35
VPT2M20.0798948S
p1802
sa(dp1803
g38
I313138863
sg32
VWeaponDrop
p1804
sg180
I0
sg44
(lp1805
I1095363701
asg35
VPT2M21.1278805S
p1806
sg183
I0
sg184
VP0DT0H0M0.9167S
p1807
sg39
(dp1808
g41
VE6 bubu dubu
p1809
sg43
Nssa(dp1810
g38
I3808094875
sg39
(dp1811
g41
VE6 bubu dubu
p1812
sg43
Nssg44
(lp1813
I2758383128
asg32
VWeaponPickup
p1814
sg35
VPT2M21.1278805S
p1815
sa(dp1816
g38
I313138863
sg39
(dp1817
g41
VE6 Cratos HCS
p1818
sg43
Nssg44
(lp1819
I1095363701
asg32
VWeaponPickup
p1820
sg35
VPT2M21.2799044S
p1821
sa(dp1822
g38
I4096745987
sg39
(dp1823
g41
VE6 Cratos HCS
p1824
sg43
Nssg44
(lp1825
I2758383128
asg32
VWeaponPickup
p1826
sg35
VPT2M21.2799044S
p1827
sa(dp1828
g32
VPlayerSpawn
p1829
sg39
(dp1830
g41
VE6 Cratos HCS
p1831
sg43
Nssg35
VPT2M21.2799044S
p1832
sa(dp1833
g240
I4096745987
sg241
I00
sg242
I00
sg243
(dp1834
g41
VE6 Cratos HCS
p1835
sg43
Nssg246
(lp1836
I2758383128
asg248
I00
sg249
I01
sg250
I1
sg251
I0
sg252
I1
sg253
(dp1837
Vy
F22.844165799999999
sVx
F7.6849694299999998
sVz
F2.1593885400000001
ssg255
(dp1838
Vy
F23.134624500000001
sVx
F-3.393214
sVz
F2.3706757999999999
ssg257
I00
sg258
(dp1839
g41
VTL StelluR
p1840
sg43
Nssg262
(lp1841
sg264
(lp1842
sg266
I01
sg35
VPT2M25.5959113S
p1843
sg32
VDeath
p1844
sg269
I1
sa(dp1845
g32
VImpulse
p1846
sg39
(dp1847
g41
VE6 Cratos HCS
p1848
sg43
Nssg317
I3174430457
sg35
VPT2M25.5979303S
p1849
sa(dp1850
g32
VMedal
p1851
sg39
(dp1852
g41
VE6 Cratos HCS
p1853
sg43
Nssg285
I3653057799
sg35
VPT2M25.5979303S
p1854
sa(dp1855
g38
I313138863
sg32
VWeaponDrop
p1856
sg180
I0
sg44
(lp1857
I1095363701
asg35
VPT2M25.5989306S
p1858
sg183
I0
sg184
VP0DT0H0M0.7833S
p1859
sg39
(dp1860
g41
VTL StelluR
p1861
sg43
Nssa(dp1862
g38
I4096745987
sg32
VWeaponDrop
p1863
sg180
I5
sg44
(lp1864
I2758383128
asg35
VPT2M25.5989306S
p1865
sg183
I4
sg184
VP0DT0H0M4.7333S
p1866
sg39
(dp1867
g41
VTL StelluR
p1868
sg43
Nssa(dp1869
g38
I313138863
sg32
VWeaponDrop
p1870
sg180
I10
sg44
(lp1871
I1095363701
asg35
VPT2M26.4109348S
p1872
sg183
I6
sg184
VP0DT0H0M4.8167S
p1873
sg39
(dp1874
g41
VE6 Shooter
p1875
sg43
Nssa(dp1876
g38
I424645655
sg39
(dp1877
g41
VE6 Shooter
p1878
sg43
Nssg44
(lp1879
I1327094800
asg32
VWeaponPickup
p1880
sg35
VPT2M26.4109348S
p1881
sa(dp1882
g38
I313138863
sg39
(dp1883
g41
VTL Spartan HCS
p1884
sg43
Nssg44
(lp1885
I1095363701
asg32
VWeaponPickup
p1886
sg35
VPT2M27.5959429S
p1887
sa(dp1888
g38
I4096745987
sg39
(dp1889
g41
VTL Spartan HCS
p1890
sg43
Nssg44
(lp1891
I2758383128
asg32
VWeaponPickup
p1892
sg35
VPT2M27.5959429S
p1893
sa(dp1894
g32
VPlayerSpawn
p1895
sg39
(dp1896
g41
VTL Spartan HCS
p1897
sg43
Nssg35
VPT2M27.5959429S
p1898
sa(dp1899
g240
I424645655
sg241
I00
sg242
I00
sg243
(dp1900
g41
VE6 Shooter
p1901
sg43
Nssg246
(lp1902
I1327094800
asg248
I00
sg249
I01
sg250
I1
sg251
I0
sg252
I1
sg253
(dp1903
Vy
F12.109075499999999
sVx
F-12.881902699999999
sVz
F2.485865
ssg255
(dp1904
Vy
F11.310667
sVx
F1.47955072
sVz
F-0.89672929999999995
ssg257
I00
sg258
(dp1905
g41
VTL Danoxide
p1906
sg43
Nssg262
(lp1907
sg264
(lp1908
(dp1909
g41
VE6 Huke HCS
p1910
sg43
Nsasg266
I01
sg35
VPT2M30.4789404S
p1911
sg32
VDeath
p1912
sg269
I1
sa(dp1913
g32
VMedal
p1914
sg39
(dp1915
g41
VE6 Shooter
p1916
sg43
Nssg285
I3261908037
sg35
VPT2M30.4809422S
p1917
sa(dp1918
g38
I3682788176
sg32
VWeaponDrop
p1919
sg180
I0
sg44
(lp1920
I2758383128
asg35
VPT2M30.4809422S
p1921
sg183
I0
sg184
VP0DT0H0M11.1333S
p1922
sg39
(dp1923
g41
VTL Danoxide
p1924
sg43
Nssa(dp1925
g38
I4096745987
sg32
VWeaponDrop
p1926
sg180
I4
sg44
(lp1927
I2758383128
asg35
VPT2M30.4809422S
p1928
sg183
I0
sg184
VP0DT0H0M17.4000S
p1929
sg39
(dp1930
g41
VTL Danoxide
p1931
sg43
Nssa(dp1932
g240
I424645655
sg241
I00
sg242
I00
sg243
(dp1933
g41
VE6 Shooter
p1934
sg43
Nssg246
(lp1935
I1327094800
asg248
I00
sg249
I01
sg250
I1
sg251
I0
sg252
I1
sg253
(dp1936
Vy
F12.071709999999999
sVx
F-10.7227678
sVz
F1.6350107199999999
ssg255
(dp1937
Vy
F12.313242000000001
sVx
F-6.2951090000000001
sVz
F0.59271806500000002
ssg257
I00
sg258
(dp1938
g41
VTL Eco HCS
p1939
sg43
Nssg262
(lp1940
sg264
(lp1941
(dp1942
g41
VE6 bubu dubu
p1943
sg43
Nsasg266
I01
sg35
VPT2M31.3119466S
p1944
sg32
VDeath
p1945
sg269
I1
sa(dp1946
g32
VMedal
p1947
sg39
(dp1948
g41
VE6 Shooter
p1949
sg43
Nssg285
I2838259753
sg35
VPT2M31.3119466S
p1950
sa(dp1951
g32
VImpulse
p1952
sg39
(dp1953
g41
VE6 Shooter
p1954
sg43
Nssg317
I2556889090
sg35
VPT2M31.3119466S
p1955
sa(dp1956
g32
VMedal
p1957
sg39
(dp1958
g41
VE6 Shooter
p1959
sg43
Nssg285
I3261908037
sg35
VPT2M31.3129682S
p1960
sa(dp1961
g32
VMedal
p1962
sg39
(dp1963
g41
VE6 Shooter
p1964
sg43
Nssg285
I2078758684
sg35
VPT2M31.313968S
p1965
sa(dp1966
g38
I313138863
sg32
VWeaponDrop
p1967
sg180
I20
sg44
(lp1968
I1095363701
asg35
VPT2M31.313968S
p1969
sg183
I6
sg184
VP0DT0H0M22.5333S
p1970
sg39
(dp1971
g41
VTL Eco HCS
p1972
sg43
Nssa(dp1973
g38
I4096745987
sg32
VWeaponDrop
p1974
sg180
I22
sg44
(lp1975
I2758383128
asg35
VPT2M31.313968S
p1976
sg183
I9
sg184
VP0DT0H0M46.9667S
p1977
sg39
(dp1978
g41
VTL Eco HCS
p1979
sg43
Nssa(dp1980
g32
VMedal
p1981
sg39
(dp1982
g41
VE6 bubu dubu
p1983
sg43
Nssg285
I3565443938
sg35
VPT2M32.4279538S
p1984
sa(dp1985
g32
VMedal
p1986
sg39
(dp1987
g41
VE6 Huke HCS
p1988
sg43
Nssg285
I3565443938
sg35
VPT2M32.4279538S
p1989
sa(dp1990
g38
I313138863
sg32
VWeaponDrop
p1991
sg180
I0
sg44
(lp1992
I1095363701
asg35
VPT2M32.8939759S
p1993
sg183
I0
sg184
VP0DT0H0M0.9167S
p1994
sg39
(dp1995
g41
VE6 Huke HCS
p1996
sg43
Nssa(dp1997
g38
I3682788176
sg39
(dp1998
g41
VE6 Huke HCS
p1999
sg43
Nssg44
(lp2000
I2758383128
asg32
VWeaponPickup
p2001
sg35
VPT2M32.8939759S
p2002
sa(dp2003
g38
I313138863
sg39
(dp2004
g41
VTL StelluR
p2005
sg43
Nssg44
(lp2006
I1095363701
asg32
VWeaponPickup
p2007
sg35
VPT2M33.6119619S
p2008
sa(dp2009
g38
I4096745987
sg39
(dp2010
g41
VTL StelluR
p2011
sg43
Nssg44
(lp2012
I2758383128
asg32
VWeaponPickup
p2013
sg35
VPT2M33.612981S
p2014
sa(dp2015
g32
VPlayerSpawn
p2016
sg39
(dp2017
g41
VTL StelluR
p2018
sg43
Nssg35
VPT2M33.612981S
p2019
sa(dp2020
g38
I2492868984
sg39
(dp2021
g41
VE6 Shooter
p2022
sg43
Nssg44
(lp2023
I2758383128
asg32
VWeaponPickup
p2024
sg35
VPT2M36.1279775S
p2025
sa(dp2026
g38
I2492868984
sg32
VWeaponDrop
p2027
sg180
I0
sg44
(lp2028
I2758383128
asg35
VPT2M37.2819833S
p2029
sg183
I0
sg184
VP0DT0H0M0.9833S
p2030
sg39
(dp2031
g41
VE6 Shooter
p2032
sg43
Nssa(dp2033
g240
I313138863
sg241
I00
sg242
I01
sg243
(dp2034
g41
VTL Spartan HCS
p2035
sg43
Nssg246
(lp2036
I1095363701
asg248
I00
sg249
I00
sg250
I1
sg251
I0
sg252
I1
sg253
(dp2037
Vy
F24.11759
sVx
F0.37351646999999999
sVz
F-0.9029703
ssg255
(dp2038
Vy
F24.201726900000001
sVx
F0.94953430000000005
sVz
F-0.89649325599999996
ssg257
I00
sg258
(dp2039
g41
VE6 Cratos HCS
p2040
sg43
Nssg262
(lp2041
sg264
(lp2042
sg266
I00
sg35
VPT2M37.7119869S
p2043
sg32
VDeath
p2044
sg269
I1
sa(dp2045
g32
VMedal
p2046
sg39
(dp2047
g41
VTL Spartan HCS
p2048
sg43
Nssg285
I2287626681
sg35
VPT2M37.7129891S
p2049
sa(dp2050
g38
I4096745987
sg32
VWeaponDrop
p2051
sg180
I6
sg44
(lp2052
I2758383128
asg35
VPT2M37.7129891S
p2053
sg183
I5
sg184
VP0DT0H0M15.6667S
p2054
sg39
(dp2055
g41
VE6 Cratos HCS
p2056
sg43
Nssa(dp2057
g38
I313138863
sg32
VWeaponDrop
p2058
sg180
I0
sg44
(lp2059
I1095363701
asg35
VPT2M37.7139886S
p2060
sg183
I0
sg184
VP0DT0H0M0.7667S
p2061
sg39
(dp2062
g41
VE6 Cratos HCS
p2063
sg43
Nssa(dp2064
g38
I313138863
sg39
(dp2065
g41
VTL Danoxide
p2066
sg43
Nssg44
(lp2067
I1095363701
asg32
VWeaponPickup
p2068
sg35
VPT2M38.4949931S
p2069
sa(dp2070
g38
I4096745987
sg39
(dp2071
g41
VTL Danoxide
p2072
sg43
Nssg44
(lp2073
I2758383128
asg32
VWeaponPickup
p2074
sg35
VPT2M38.4960126S
p2075
sa(dp2076
g32
VPlayerSpawn
p2077
sg39
(dp2078
g41
VTL Danoxide
p2079
sg43
Nssg35
VPT2M38.4960126S
p2080
sa(dp2081
g38
I313138863
sg39
(dp2082
g41
VTL Eco HCS
p2083
sg43
Nssg44
(lp2084
I1095363701
asg32
VWeaponPickup
p2085
sg35
VPT2M39.3289996S
p2086
sa(dp2087
g38
I4096745987
sg39
(dp2088
g41
VTL Eco HCS
p2089
sg43
Nssg44
(lp2090
I2758383128
asg32
VWeaponPickup
p2091
sg35
VPT2M39.3289996S
p2092
sa(dp2093
g32
VPlayerSpawn
p2094
sg39
(dp2095
g41
VTL Eco HCS
p2096
sg43
Nssg35
VPT2M39.3289996S
p2097
sa(dp2098
g240
I424645655
sg241
I00
sg242
I00
sg243
(dp2099
g41
VE6 Huke HCS
p2100
sg43
Nssg246
(lp2101
I1327094800
asg248
I00
sg249
I01
sg250
I1
sg251
I0
sg252
I1
sg253
(dp2102
Vy
F23.046250000000001
sVx
F3.69487882
sVz
F-0.89658070000000001
ssg255
(dp2103
Vy
F23.172350000000002
sVx
F-0.89593509999999998
sVz
F-0.89614975500000005
ssg257
I00
sg258
(dp2104
g41
VTL Spartan HCS
p2105
sg43
Nssg262
(lp2106
sg264
(lp2107
(dp2108
g41
VE6 Shooter
p2109
sg43
Nsasg266
I01
sg35
VPT2M40.4450065S
p2110
sg32
VDeath
p2111
sg269
I1
sa(dp2112
g32
VMedal
p2113
sg39
(dp2114
g41
VE6 Huke HCS
p2115
sg43
Nssg285
I3261908037
sg35
VPT2M40.4470066S
p2116
sa(dp2117
g38
I313138863
sg32
VWeaponDrop
p2118
sg180
I10
sg44
(lp2119
I1095363701
asg35
VPT2M40.4480083S
p2120
sg183
I9
sg184
VP0DT0H0M5.4667S
p2121
sg39
(dp2122
g41
VTL Spartan HCS
p2123
sg43
Nssa(dp2124
g38
I313138863
sg32
VWeaponDrop
p2125
sg180
I0
sg44
(lp2126
I1095363701
asg35
VPT2M40.4480083S
p2127
sg183
I0
sg184
VP0DT0S
p2128
sg39
(dp2129
g41
VTL Spartan HCS
p2130
sg43
Nssa(dp2131
g38
I4096745987
sg32
VWeaponDrop
p2132
sg180
I3
sg44
(lp2133
I2758383128
asg35
VPT2M40.4480083S
p2134
sg183
I0
sg184
VP0DT0H0M7.3833S
p2135
sg39
(dp2136
g41
VTL Spartan HCS
p2137
sg43
Nssa(dp2138
g38
I4096745987
sg32
VWeaponDrop
p2139
sg180
I0
sg44
(lp2140
I2758383128
asg35
VPT2M42.1270363S
p2141
sg183
I0
sg184
VP0DT0H0M3.0333S
p2142
sg39
(dp2143
g41
VTL Danoxide
p2144
sg43
Nssa(dp2145
g38
I424645655
sg39
(dp2146
g41
VTL Danoxide
p2147
sg43
Nssg44
(lp2148
I1327094800
asg32
VWeaponPickup
p2149
sg35
VPT2M42.1270363S
p2150
sa(dp2151
g38
I4096745987
sg32
VWeaponDrop
p2152
sg180
I0
sg44
(lp2153
I2758383128
asg35
VPT2M44.9440329S
p2154
sg183
I0
sg184
VP0DT0H0M20.5833S
p2155
sg39
(dp2156
g41
VE6 Shooter
p2157
sg43
Nssa(dp2158
g38
I313138863
sg39
(dp2159
g41
VE6 Shooter
p2160
sg43
Nssg44
(lp2161
I1095363701
asg32
VWeaponPickup
p2162
sg35
VPT2M44.9440329S
p2163
sa(dp2164
g38
I313138863
sg39
(dp2165
g41
VE6 Cratos HCS
p2166
sg43
Nssg44
(lp2167
I1095363701
asg32
VWeaponPickup
p2168
sg35
VPT2M45.7290634S
p2169
sa(dp2170
g38
I4096745987
sg39
(dp2171
g41
VE6 Cratos HCS
p2172
sg43
Nssg44
(lp2173
I2758383128
asg32
VWeaponPickup
p2174
sg35
VPT2M45.7290634S
p2175
sa(dp2176
g32
VPlayerSpawn
p2177
sg39
(dp2178
g41
VE6 Cratos HCS
p2179
sg43
Nssg35
VPT2M45.7290634S
p2180
sa(dp2181
g32
VMedal
p2182
sg39
(dp2183
g41
VTL Eco HCS
p2184
sg43
Nssg285
I3565443938
sg35
VPT2M47.1770484S
p2185
sa(dp2186
g32
VMedal
p2187
sg39
(dp2188
g41
VTL Danoxide
p2189
sg43
Nssg285
I3565443938
sg35
VPT2M47.1770484S
p2190
sa(dp2191
g38
I313138863
sg39
(dp2192
g41
VTL Spartan HCS
p2193
sg43
Nssg44
(lp2194
I1095363701
asg32
VWeaponPickup
p2195
sg35
VPT2M48.4620577S
p2196
sa(dp2197
g38
I4096745987
sg39
(dp2198
g41
VTL Spartan HCS
p2199
sg43
Nssg44
(lp2200
I2758383128
asg32
VWeaponPickup
p2201
sg35
VPT2M48.4620577S
p2202
sa(dp2203
g32
VPlayerSpawn
p2204
sg39
(dp2205
g41
VTL Spartan HCS
p2206
sg43
Nssg35
VPT2M48.4620577S
p2207
sa(dp2208
g240
I4096745987
sg241
I00
sg242
I00
sg243
(dp2209
g41
VTL StelluR
p2210
sg43
Nssg246
(lp2211
I2758383128
asg248
I00
sg249
I01
sg250
I1
sg251
I0
sg252
I1
sg253
(dp2212
Vy
F4.6423750000000004
sVx
F7.9032710000000002
sVz
F1.1544638899999999
ssg255
(dp2213
Vy
F9.0233609999999995
sVx
F2.81343174
sVz
F0.111549765
ssg257
I00
sg258
(dp2214
g41
VE6 bubu dubu
p2215
sg43
Nssg262
(lp2216
sg264
(lp2217
(dp2218
g41
VTL Danoxide
p2219
sg43
Nsa(dp2220
g41
VTL Eco HCS
p2221
sg43
Nsasg266
I00
sg35
VPT2M49.1110822S
p2222
sg32
VDeath
p2223
sg269
I1
sa(dp2224
g38
I3808094875
sg32
VWeaponDrop
p2225
sg180
I0
sg44
(lp2226
I2758383128
asg35
VPT2M49.1130809S
p2227
sg183
I0
sg184
VP0DT0H0M6.2833S
p2228
sg39
(dp2229
g41
VE6 bubu dubu
p2230
sg43
Nssa(dp2231
g38
I4096745987
sg32
VWeaponDrop
p2232
sg180
I8
sg44
(lp2233
I2758383128
asg35
VPT2M49.1130809S
p2234
sg183
I4
sg184
VP0DT0H0M22.5167S
p2235
sg39
(dp2236
g41
VE6 bubu dubu
p2237
sg43
Nssa(dp2238
g240
I4096745987
sg241
I00
sg242
I00
sg243
(dp2239
g41
VE6 Cratos HCS
p2240
sg43
Nssg246
(lp2241
I2758383128
asg248
I00
sg249
I00
sg250
I2
sg251
I0
sg252
I0
sg253
(dp2242
Vy
F20.666239999999998
sVx
F3.87234759
sVz
F-0.89672260000000004
ssg255
(dp2243
Vy
F0.099739579999999994
sVx
F8.0057419999999997
sVz
F0.7130978
ssg257
I00
sg258
(dp2244
g260
g261
ssg262
(lp2245
sg264
(lp2246
sg266
I00
sg35
VPT2M49.478063S
p2247
sg32
VDeath
p2248
sg269
I1
sa(dp2249
g240
I47178948
sg241
I00
sg242
I00
sg243
(dp2250
g41
VE6 Cratos HCS
p2251
sg43
Nssg246
(lp2252
sg248
I00
sg249
I00
sg250
I2
sg251
I0
sg252
I0
sg253
(dp2253
Vy
F20.666239999999998
sVx
F3.87234759
sVz
F-0.89672260000000004
ssg255
(dp2254
Vy
F0.10923453399999999
sVx
F8.0052830000000004
sVz
F0.30517453
ssg257
I00
sg258
(dp2255
g260
g261
ssg262
(lp2256
sg264
(lp2257
sg266
I00
sg35
VPT2M49.478063S
p2258
sg32
VDeath
p2259
sg269
I1
sa(dp2260
g32
VMedal
p2261
sg39
(dp2262
g41
VE6 Huke HCS
p2263
sg43
Nssg285
I3565443938
sg35
VPT2M55.7941035S
p2264
sa(dp2265
g32
VMedal
p2266
sg39
(dp2267
g41
VE6 Huke HCS
p2268
sg43
Nssg285
I3354395650
sg35
VPT2M55.7941035S
p2269
sa(dp2270
g240
I4096745987
sg241
I00
sg242
I00
sg243
(dp2271
g41
VTL Eco HCS
p2272
sg43
Nssg246
(lp2273
I2758383128
asg248
I00
sg249
I01
sg250
I1
sg251
I0
sg252
I1
sg253
(dp2274
Vy
F6.4843659999999996
sVx
F4.2721552799999998
sVz
F-0.89673139999999996
ssg255
(dp2275
Vy
F20.453815500000001
sVx
F4.3600954999999999
sVz
F-0.83760863500000005
ssg257
I00
sg258
(dp2276
g41
VE6 Cratos HCS
p2277
sg43
Nssg262
(lp2278
sg264
(lp2279
(dp2280
g41
VTL StelluR
p2281
sg43
Nsasg266
I01
sg35
VPT2M55.9131055S
p2282
sg32
VDeath
p2283
sg269
I1
sa(dp2284
g32
VMedal
p2285
sg39
(dp2286
g41
VTL Eco HCS
p2287
sg43
Nssg285
I3261908037
sg35
VPT2M55.9141242S
p2288
sa(dp2289
g38
I313138863
sg32
VWeaponDrop
p2290
sg180
I0
sg44
(lp2291
I1095363701
asg35
VPT2M55.9151055S
p2292
sg183
I0
sg184
VP0DT0H0M0.7000S
p2293
sg39
(dp2294
g41
VE6 Cratos HCS
p2295
sg43
Nssa(dp2296
g38
I4096745987
sg32
VWeaponDrop
p2297
sg180
I7
sg44
(lp2298
I2758383128
asg35
VPT2M55.9151055S
p2299
sg183
I2
sg184
VP0DT0H0M9.4833S
p2300
sg39
(dp2301
g41
VE6 Cratos HCS
p2302
sg43
Nssa(dp2303
g38
I4096745987
sg32
VWeaponDrop
p2304
sg180
I0
sg44
(lp2305
I2758383128
asg35
VPT2M55.9151055S
p2306
sg183
I0
sg184
VP0DT0S
p2307
sg39
(dp2308
g41
VE6 Cratos HCS
p2309
sg43
Nssa(dp2310
g38
I313138863
sg39
(dp2311
g41
VE6 bubu dubu
p2312
sg43
Nssg44
(lp2313
I1095363701
asg32
VWeaponPickup
p2314
sg35
VPT2M57.1291114S
p2315
sa(dp2316
g38
I4096745987
sg39
(dp2317
g41
VE6 bubu dubu
p2318
sg43
Nssg44
(lp2319
I2758383128
asg32
VWeaponPickup
p2320
sg35
VPT2M57.1301119S
p2321
sa(dp2322
g32
VPlayerSpawn
p2323
sg39
(dp2324
g41
VE6 bubu dubu
p2325
sg43
Nssg35
VPT2M57.1301119S
p2326
sa(dp2327
g38
I313138863
sg32
VWeaponDrop
p2328
sg180
I0
sg44
(lp2329
I1095363701
asg35
VPT2M57.2761327S
p2330
sg183
I0
sg184
VP0DT0H0M0.9167S
p2331
sg39
(dp2332
g41
VTL Eco HCS
p2333
sg43
Nssa(dp2334
g38
I3808094875
sg39
(dp2335
g41
VTL Eco HCS
p2336
sg43
Nssg44
(lp2337
I2758383128
asg32
VWeaponPickup
p2338
sg35
VPT2M57.2761327S
p2339
sa(dp2340
g240
I3682788176
sg241
I00
sg242
I00
sg243
(dp2341
g41
VE6 Huke HCS
p2342
sg43
Nssg246
(lp2343
I2758383128
asg248
I00
sg249
I01
sg250
I1
sg251
I0
sg252
I1
sg253
(dp2344
Vy
F22.986553199999999
sVx
F-3.0972042100000001
sVz
F-0.066718429999999995
ssg255
(dp2345
Vy
F8.7556600000000007
sVx
F5.4361629999999996
sVz
F-0.89673069999999999
ssg257
I00
sg258
(dp2346
g41
VTL Eco HCS
p2347
sg43
Nssg262
(lp2348
sg264
(lp2349
sg266
I00
sg35
VPT2M58.6451214S
p2350
sg32
VDeath
p2351
sg269
I1
sa(dp2352
g32
VMedal
p2353
sg39
(dp2354
g41
VE6 Huke HCS
p2355
sg43
Nssg285
I1351381581
sg35
VPT2M58.6461232S
p2356
sa(dp2357
g38
I3808094875
sg32
VWeaponDrop
p2358
sg180
I0
sg44
(lp2359
I2758383128
asg35
VPT2M58.6481225S
p2360
sg183
I0
sg184
VP0DT0H0M0.4000S
p2361
sg39
(dp2362
g41
VTL Eco HCS
p2363
sg43
Nssa(dp2364
g38
I4096745987
sg32
VWeaponDrop
p2365
sg180
I10
sg44
(lp2366
I2758383128
asg35
VPT2M58.6481225S
p2367
sg183
I1
sg184
VP0DT0H0M18.0000S
p2368
sg39
(dp2369
g41
VTL Eco HCS
p2370
sg43
Nssa(dp2371
g32
VMedal
p2372
sg39
(dp2373
g41
VTL StelluR
p2374
sg43
Nssg285
I3400287617
sg35
VPT3M1.2431598S
p2375
sa(dp2376
g240
I424645655
sg241
I00
sg242
I00
sg243
(dp2377
g41
VE6 Shooter
p2378
sg43
Nssg246
(lp2379
I1327094800
asg248
I00
sg249
I01
sg250
I1
sg251
I0
sg252
I1
sg253
(dp2380
Vy
F14.4693661
sVx
F-1.24913406
sVz
F1.4995212600000001
ssg255
(dp2381
Vy
F13.810556399999999
sVx
F-7.4284499999999998
sVz
F2.21547055
ssg257
I00
sg258
(dp2382
g41
VTL Danoxide
p2383
sg43
Nssg262
(lp2384
sg264
(lp2385
sg266
I01
sg35
VPT3M3.561154S
p2386
sg32
VDeath
p2387
sg269
I1
sa(dp2388
g32
VMedal
p2389
sg39
(dp2390
g41
VE6 Huke HCS
p2391
sg43
Nssg285
I824733727
sg35
VPT3M3.561154S
p2392
sa(dp2393
g32
VImpulse
p2394
sg39
(dp2395
g41
VE6 Shooter
p2396
sg43
Nssg317
I3174430457
sg35
VPT3M3.5621742S
p2397
sa(dp2398
g32
VMedal
p2399
sg39
(dp2400
g41
VE6 Shooter
p2401
sg43
Nssg285
I1080468863
sg35
VPT3M3.5631722S
p2402
sa(dp2403
g38
I313138863
sg32
VWeaponDrop
p2404
sg180
I0
sg44
(lp2405
I1095363701
asg35
VPT3M3.5631722S
p2406
sg183
I0
sg184
VP0DT0H0M0.6000S
p2407
sg39
(dp2408
g41
VTL Danoxide
p2409
sg43
Nssa(dp2410
g38
I424645655
sg32
VWeaponDrop
p2411
sg180
I27
sg44
(lp2412
I1327094800
asg35
VPT3M3.5631722S
p2413
sg183
I13
sg184
VP0DT0H0M21.4333S
p2414
sg39
(dp2415
g41
VTL Danoxide
p2416
sg43
Nssa(dp2417
g38
I313138863
sg39
(dp2418
g41
VE6 Cratos HCS
p2419
sg43
Nssg44
(lp2420
I1095363701
asg32
VWeaponPickup
p2421
sg35
VPT3M3.928177S
p2422
sa(dp2423
g38
I4096745987
sg39
(dp2424
g41
VE6 Cratos HCS
p2425
sg43
Nssg44
(lp2426
I2758383128
asg32
VWeaponPickup
p2427
sg35
VPT3M3.928177S
p2428
sa(dp2429
g32
VPlayerSpawn
p2430
sg39
(dp2431
g41
VE6 Cratos HCS
p2432
sg43
Nssg35
VPT3M3.928177S
p2433
sa(dp2434
g240
I4096745987
sg241
I00
sg242
I00
sg243
(dp2435
g41
VTL StelluR
p2436
sg43
Nssg246
(lp2437
I2758383128
asg248
I00
sg249
I01
sg250
I1
sg251
I0
sg252
I1
sg253
(dp2438
Vy
F23.85127
sVx
F9.0825870000000002
sVz
F0.31205559999999999
ssg255
(dp2439
Vy
F22.8809185
sVx
F4.5987587000000003
sVz
F0.18460348200000001
ssg257
I00
sg258
(dp2440
g41
VE6 Huke HCS
p2441
sg43
Nssg262
(lp2442
sg264
(lp2443
sg266
I00
sg35
VPT3M4.64516S
p2444
sg32
VDeath
p2445
sg269
I1
sa(dp2446
g38
I3682788176
sg32
VWeaponDrop
p2447
sg180
I3
sg44
(lp2448
I2758383128
asg35
VPT3M4.6461802S
p2449
sg183
I2
sg184
VP0DT0H0M26.8500S
p2450
sg39
(dp2451
g41
VE6 Huke HCS
p2452
sg43
Nssa(dp2453
g38
I3682788176
sg32
VWeaponDrop
p2454
sg180
I0
sg44
(lp2455
I2758383128
asg35
VPT3M4.6461802S
p2456
sg183
I0
sg184
VP0DT0S
p2457
sg39
(dp2458
g41
VE6 Huke HCS
p2459
sg43
Nssa(dp2460
g38
I424645655
sg32
VWeaponDrop
p2461
sg180
I54
sg44
(lp2462
I1327094800
asg35
VPT3M4.6461802S
p2463
sg183
I30
sg184
VP0DT0H0M36.6667S
p2464
sg39
(dp2465
g41
VE6 Huke HCS
p2466
sg43
Nssa(dp2467
g38
I313138863
sg32
VWeaponDrop
p2468
sg180
I5
sg44
(lp2469
I1095363701
asg35
VPT3M5.4761663S
p2470
sg183
I0
sg184
VP0DT0H0M7.5167S
p2471
sg39
(dp2472
g41
VTL Spartan HCS
p2473
sg43
Nssa(dp2474
g38
I2133511419
sg39
(dp2475
g41
VTL Spartan HCS
p2476
sg43
Nssg44
(lp2477
I2758383128
asg32
VWeaponPickup
p2478
sg35
VPT3M5.4761663S
p2479
sa(dp2480
g38
I313138863
sg32
VWeaponDrop
p2481
sg180
I0
sg44
(lp2482
I1095363701
asg35
VPT3M6.6261734S
p2483
sg183
I0
sg184
VP0DT0H0M3.3833S
p2484
sg39
(dp2485
g41
VTL StelluR
p2486
sg43
Nssa(dp2487
g38
I424645655
sg39
(dp2488
g41
VTL StelluR
p2489
sg43
Nssg44
(lp2490
I1327094800
asg32
VWeaponPickup
p2491
sg35
VPT3M6.6261734S
p2492
sa(dp2493
g38
I313138863
sg39
(dp2494
g41
VTL Eco HCS
p2495
sg43
Nssg44
(lp2496
I1095363701
asg32
VWeaponPickup
p2497
sg35
VPT3M6.6611742S
p2498
sa(dp2499
g38
I4096745987
sg39
(dp2500
g41
VTL Eco HCS
p2501
sg43
Nssg44
(lp2502
I2758383128
asg32
VWeaponPickup
p2503
sg35
VPT3M6.6611742S
p2504
sa(dp2505
g32
VPlayerSpawn
p2506
sg39
(dp2507
g41
VTL Eco HCS
p2508
sg43
Nssg35
VPT3M6.6611742S
p2509
sa(dp2510
g32
VMedal
p2511
sg39
(dp2512
g41
VE6 Shooter
p2513
sg43
Nssg285
I2916014239
sg35
VPT3M6.7761946S
p2514
sa(dp2515
g38
I4096745987
sg32
VWeaponDrop
p2516
sg180
I27
sg44
(lp2517
I2758383128
asg35
VPT3M7.4591993S
p2518
sg183
I15
sg184
VP0DT0H0M30.0667S
p2519
sg39
(dp2520
g41
VTL StelluR
p2521
sg43
Nssa(dp2522
g38
I313138863
sg39
(dp2523
g41
VTL StelluR
p2524
sg43
Nssg44
(lp2525
I1095363701
asg32
VWeaponPickup
p2526
sg35
VPT3M7.4601784S
p2527
sa(dp2528
g38
I4096745987
sg32
VWeaponDrop
p2529
sg180
I0
sg44
(lp2530
I2758383128
asg35
VPT3M7.6931791S
p2531
sg183
I0
sg184
VP0DT0H0M2.9167S
p2532
sg39
(dp2533
g41
VE6 Cratos HCS
p2534
sg43
Nssa(dp2535
g38
I424645655
sg39
(dp2536
g41
VE6 Cratos HCS
p2537
sg43
Nssg44
(lp2538
I1327094800
asg32
VWeaponPickup
p2539
sg35
VPT3M7.6931791S
p2540
sa(dp2541
g38
I313138863
sg32
VWeaponDrop
p2542
sg180
I0
sg44
(lp2543
I1095363701
asg35
VPT3M8.2591837S
p2544
sg183
I0
sg184
VP0DT0H0M0.8000S
p2545
sg39
(dp2546
g41
VTL StelluR
p2547
sg43
Nssa(dp2548
g38
I3682788176
sg39
(dp2549
g41
VTL StelluR
p2550
sg43
Nssg44
(lp2551
I2758383128
asg32
VWeaponPickup
p2552
sg35
VPT3M8.2601839S
p2553
sa(dp2554
g32
VMedal
p2555
sg39
(dp2556
g41
VE6 bubu dubu
p2557
sg43
Nssg285
I3565443938
sg35
VPT3M8.7101859S
p2558
sa(dp2559
g32
VMedal
p2560
sg39
(dp2561
g41
VE6 Cratos HCS
p2562
sg43
Nssg285
I3565443938
sg35
VPT3M8.7101859S
p2563
sa(dp2564
g32
VMedal
p2565
sg39
(dp2566
g41
VE6 Shooter
p2567
sg43
Nssg285
I2105198095
sg35
VPT3M8.7101859S
p2568
sa(dp2569
g32
VMedal
p2570
sg39
(dp2571
g41
VE6 Cratos HCS
p2572
sg43
Nssg285
I2105198095
sg35
VPT3M8.7101859S
p2573
sa(dp2574
g32
VMedal
p2575
sg39
(dp2576
g41
VE6 Huke HCS
p2577
sg43
Nssg285
I2105198095
sg35
VPT3M8.7101859S
p2578
sa(dp2579
g32
VMedal
p2580
sg39
(dp2581
g41
VE6 bubu dubu
p2582
sg43
Nssg285
I2105198095
sg35
VPT3M8.7101859S
p2583
sa(dp2584
g38
I313138863
sg39
(dp2585
g41
VTL Danoxide
p2586
sg43
Nssg44
(lp2587
I1095363701
asg32
VWeaponPickup
p2588
sg35
VPT3M11.5782054S
p2589
sa(dp2590
g38
I4096745987
sg39
(dp2591
g41
VTL Danoxide
p2592
sg43
Nssg44
(lp2593
I2758383128
asg32
VWeaponPickup
p2594
sg35
VPT3M11.5782054S
p2595
sa(dp2596
g32
VPlayerSpawn
p2597
sg39
(dp2598
g41
VTL Danoxide
p2599
sg43
Nssg35
VPT3M11.5782054S
p2600
sa(dp2601
g38
I313138863
sg39
(dp2602
g41
VE6 Huke HCS
p2603
sg43
Nssg44
(lp2604
I1095363701
asg32
VWeaponPickup
p2605
sg35
VPT3M12.6612136S
p2606
sa(dp2607
g38
I4096745987
sg39
(dp2608
g41
VE6 Huke HCS
p2609
sg43
Nssg44
(lp2610
I2758383128
asg32
VWeaponPickup
p2611
sg35
VPT3M12.6612136S
p2612
sa(dp2613
g32
VPlayerSpawn
p2614
sg39
(dp2615
g41
VE6 Huke HCS
p2616
sg43
Nssg35
VPT3M12.6612136S
p2617
sa(dp2618
g32
VMedal
p2619
sg39
(dp2620
g41
VTL Eco HCS
p2621
sg43
Nssg285
I3565443938
sg35
VPT3M18.5262498S
p2622
sa(dp2623
g32
VMedal
p2624
sg39
(dp2625
g41
VTL Danoxide
p2626
sg43
Nssg285
I3565443938
sg35
VPT3M18.5262498S
p2627
sa(dp2628
g240
I3682788176
sg241
I00
sg242
I00
sg243
(dp2629
g41
VTL StelluR
p2630
sg43
Nssg246
(lp2631
I2758383128
asg248
I00
sg249
I01
sg250
I1
sg251
I0
sg252
I1
sg253
(dp2632
Vy
F1.00117207
sVx
F8.1162939999999999
sVz
F0.30554944299999998
ssg255
(dp2633
Vy
F-1.1158981299999999
sVx
F4.2775344799999999
sVz
F1.95850039
ssg257
I00
sg258
(dp2634
g41
VE6 Cratos HCS
p2635
sg43
Nssg262
(lp2636
sg264
(lp2637
(dp2638
g41
VTL Eco HCS
p2639
sg43
Nsasg266
I00
sg35
VPT3M18.7942507S
p2640
sg32
VDeath
p2641
sg269
I1
sa(dp2642
g38
I313138863
sg32
VWeaponDrop
p2643
sg180
I0
sg44
(lp2644
I1095363701
asg35
VPT3M18.7952717S
p2645
sg183
I0
sg184
VP0DT0H0M0.8500S
p2646
sg39
(dp2647
g41
VE6 Cratos HCS
p2648
sg43
Nssa(dp2649
g38
I424645655
sg32
VWeaponDrop
p2650
sg180
I0
sg44
(lp2651
I1327094800
asg35
VPT3M18.7952717S
p2652
sg183
I0
sg184
VP0DT0H0M11.1000S
p2653
sg39
(dp2654
g41
VE6 Cratos HCS
p2655
sg43
Nssa(dp2656
g240
I4096745987
sg241
I00
sg242
I00
sg243
(dp2657
g41
VE6 Huke HCS
p2658
sg43
Nssg246
(lp2659
I2758383128
asg248
I00
sg249
I01
sg250
I1
sg251
I0
sg252
I1
sg253
(dp2660
Vy
F20.3381519
sVx
F1.2237954099999999
sVz
F-0.8967231
ssg255
(dp2661
Vy
F11.440379999999999
sVx
F7.7990919999999999
sVz
F-0.896728635
ssg257
I00
sg258
(dp2662
g41
VTL Spartan HCS
p2663
sg43
Nssg262
(lp2664
sg264
(lp2665
sg266
I01
sg35
VPT3M20.2432805S
p2666
sg32
VDeath
p2667
sg269
I1
sa(dp2668
g32
VMedal
p2669
sg39
(dp2670
g41
VE6 Huke HCS
p2671
sg43
Nssg285
I3261908037
sg35
VPT3M20.2452617S
p2672
sa(dp2673
g38
I2133511419
sg32
VWeaponDrop
p2674
sg180
I15
sg44
(lp2675
I2758383128
asg35
VPT3M20.2452617S
p2676
sg183
I1
sg184
VP0DT0H0M10.6667S
p2677
sg39
(dp2678
g41
VTL Spartan HCS
p2679
sg43
Nssa(dp2680
g38
I4096745987
sg32
VWeaponDrop
p2681
sg180
I3
sg44
(lp2682
I2758383128
asg35
VPT3M20.2452617S
p2683
sg183
I0
sg184
VP0DT0H0M13.6000S
p2684
sg39
(dp2685
g41
VTL Spartan HCS
p2686
sg43
Nssa(dp2687
g32
VMedal
p2688
sg39
(dp2689
g41
VE6 Huke HCS
p2690
sg43
Nssg285
I2916014239
sg35
VPT3M23.6262814S
p2691
sa(dp2692
g240
I4096745987
sg241
I00
sg242
I00
sg243
(dp2693
g41
VE6 Huke HCS
p2694
sg43
Nssg246
(lp2695
I2758383128
asg248
I00
sg249
I01
sg250
I1
sg251
I0
sg252
I1
sg253
(dp2696
Vy
F9.9804539999999999
sVx
F4.5493526500000003
sVz
F-0.35882666699999999
ssg255
(dp2697
Vy
F13.4813051
sVx
F-4.4181585300000004
sVz
F-1.51670814
ssg257
I00
sg258
(dp2698
g41
VTL Eco HCS
p2699
sg43
Nssg262
(lp2700
sg264
(lp2701
(dp2702
g41
VE6 Shooter
p2703
sg43
Nsasg266
I01
sg35
VPT3M25.2602911S
p2704
sg32
VDeath
p2705
sg269
I1
sa(dp2706
g32
VMedal
p2707
sg39
(dp2708
g41
VE6 bubu dubu
p2709
sg43
Nssg285
I824733727
sg35
VPT3M25.2602911S
p2710
sa(dp2711
g32
VMedal
p2712
sg39
(dp2713
g41
VE6 Huke HCS
p2714
sg43
Nssg285
I3261908037
sg35
VPT3M25.2613116S
p2715
sa(dp2716
g38
I313138863
sg32
VWeaponDrop
p2717
sg180
I0
sg44
(lp2718
I1095363701
asg35
VPT3M25.2623115S
p2719
sg183
I0
sg184
VP0DT0H0M4.4500S
p2720
sg39
(dp2721
g41
VTL Eco HCS
p2722
sg43
Nssa(dp2723
g38
I4096745987
sg32
VWeaponDrop
p2724
sg180
I10
sg44
(lp2725
I2758383128
asg35
VPT3M25.2623115S
p2726
sg183
I5
sg184
VP0DT0H0M14.1500S
p2727
sg39
(dp2728
g41
VTL Eco HCS
p2729
sg43
Nssa(dp2730
g38
I313138863
sg39
(dp2731
g41
VE6 Cratos HCS
p2732
sg43
Nssg44
(lp2733
I1095363701
asg32
VWeaponPickup
p2734
sg35
VPT3M26.8103022S
p2735
sa(dp2736
g38
I4096745987
sg39
(dp2737
g41
VE6 Cratos HCS
p2738
sg43
Nssg44
(lp2739
I2758383128
asg32
VWeaponPickup
p2740
sg35
VPT3M26.8113027S
p2741
sa(dp2742
g32
VPlayerSpawn
p2743
sg39
(dp2744
g41
VE6 Cratos HCS
p2745
sg43
Nssg35
VPT3M26.8113027S
p2746
sa(dp2747
g38
I313138863
sg39
(dp2748
g41
VTL Spartan HCS
p2749
sg43
Nssg44
(lp2750
I1095363701
asg32
VWeaponPickup
p2751
sg35
VPT3M28.260313S
p2752
sa(dp2753
g38
I4096745987
sg39
(dp2754
g41
VTL Spartan HCS
p2755
sg43
Nssg44
(lp2756
I2758383128
asg32
VWeaponPickup
p2757
sg35
VPT3M28.2613125S
p2758
sa(dp2759
g32
VPlayerSpawn
p2760
sg39
(dp2761
g41
VTL Spartan HCS
p2762
sg43
Nssg35
VPT3M28.2613125S
p2763
sa(dp2764
g38
I313138863
sg32
VWeaponDrop
p2765
sg180
I0
sg44
(lp2766
I1095363701
asg35
VPT3M29.3083392S
p2767
sg183
I0
sg184
VP0DT0H0M4.0500S
p2768
sg39
(dp2769
g41
VE6 Huke HCS
p2770
sg43
Nssa(dp2771
g38
I3808094875
sg39
(dp2772
g41
VE6 Huke HCS
p2773
sg43
Nssg44
(lp2774
I2758383128
asg32
VWeaponPickup
p2775
sg35
VPT3M29.3093374S
p2776
sa(dp2777
g240
I4096745987
sg241
I00
sg242
I00
sg243
(dp2778
g41
VTL Danoxide
p2779
sg43
Nssg246
(lp2780
I2758383128
asg248
I00
sg249
I01
sg250
I1
sg251
I0
sg252
I1
sg253
(dp2781
Vy
F-0.33072449999999998
sVx
F-0.55223846399999998
sVz
F0.305549562
ssg255
(dp2782
Vy
F3.0384921999999999
sVx
F7.9496173900000002
sVz
F0.49659013699999999
ssg257
I00
sg258
(dp2783
g41
VE6 bubu dubu
p2784
sg43
Nssg262
(lp2785
sg264
(lp2786
sg266
I01
sg35
VPT3M29.910321S
p2787
sg32
VDeath
p2788
sg269
I1
sa(dp2789
g32
VImpulse
p2790
sg39
(dp2791
g41
VTL Danoxide
p2792
sg43
Nssg317
I3174430457
sg35
VPT3M29.9123205S
p2793
sa(dp2794
g32
VMedal
p2795
sg39
(dp2796
g41
VTL Danoxide
p2797
sg43
Nssg285
I3653057799
sg35
VPT3M29.9133209S
p2798
sa(dp2799
g38
I4096745987
sg32
VWeaponDrop
p2800
sg180
I9
sg44
(lp2801
I2758383128
asg35
VPT3M29.9133209S
p2802
sg183
I6
sg184
VP0DT0H0M22.5833S
p2803
sg39
(dp2804
g41
VE6 bubu dubu
p2805
sg43
Nssa(dp2806
g38
I313138863
sg32
VWeaponDrop
p2807
sg180
I25
sg44
(lp2808
I1095363701
asg35
VPT3M29.9143437S
p2809
sg183
I11
sg184
VP0DT0H0M10.2000S
p2810
sg39
(dp2811
g41
VE6 bubu dubu
p2812
sg43
Nssa(dp2813
g240
I424645655
sg241
I00
sg242
I00
sg243
(dp2814
g41
VE6 Shooter
p2815
sg43
Nssg246
(lp2816
I1327094800
asg248
I00
sg249
I01
sg250
I1
sg251
I0
sg252
I1
sg253
(dp2817
Vy
F14.5753317
sVx
F-1.79588127
sVz
F1.4995212600000001
ssg255
(dp2818
Vy
F8.4439039999999999
sVx
F-0.66814154400000003
sVz
F1.4982089999999999
ssg257
I00
sg258
(dp2819
g41
VTL StelluR
p2820
sg43
Nssg262
(lp2821
sg264
(lp2822
(dp2823
g41
VE6 Cratos HCS
p2824
sg43
Nsasg266
I01
sg35
VPT3M31.1433509S
p2825
sg32
VDeath
p2826
sg269
I1
sa(dp2827
g32
VMedal
p2828
sg39
(dp2829
g41
VE6 Shooter
p2830
sg43
Nssg285
I3261908037
sg35
VPT3M31.1443541S
p2831
sa(dp2832
g32
VMedal
p2833
sg39
(dp2834
g41
VE6 Shooter
p2835
sg43
Nssg285
I2430242797
sg35
VPT3M31.1443541S
p2836
sa(dp2837
g38
I424645655
sg32
VWeaponDrop
p2838
sg180
I12
sg44
(lp2839
I1327094800
asg35
VPT3M31.1453491S
p2840
sg183
I6
sg184
VP0DT0H0M7.3667S
p2841
sg39
(dp2842
g41
VTL StelluR
p2843
sg43
Nssa(dp2844
g38
I3682788176
sg32
VWeaponDrop
p2845
sg180
I2
sg44
(lp2846
I2758383128
asg35
VPT3M31.1453491S
p2847
sg183
I1
sg184
VP0DT0H0M15.9167S
p2848
sg39
(dp2849
g41
VTL StelluR
p2850
sg43
Nssa(dp2851
g38
I3682788176
sg32
VWeaponDrop
p2852
sg180
I0
sg44
(lp2853
I2758383128
asg35
VPT3M31.1453491S
p2854
sg183
I0
sg184
VP0DT0S
p2855
sg39
(dp2856
g41
VTL StelluR
p2857
sg43
Nssa(dp2858
g240
I4096745987
sg241
I00
sg242
I00
sg243
(dp2859
g41
VE6 Cratos HCS
p2860
sg43
Nssg246
(lp2861
I2758383128
asg248
I00
sg249
I01
sg250
I1
sg251
I0
sg252
I1
sg253
(dp2862
Vy
F3.2830493500000002
sVx
F-13.2024908
sVz
F-0.36678460000000002
ssg255
(dp2863
Vy
F0.89603734000000002
sVx
F-4.6167116200000002
sVz
F0.30226784899999998
ssg257
I00
sg258
(dp2864
g41
VTL Danoxide
p2865
sg43
Nssg262
(lp2866
sg264
(lp2867
(dp2868
g41
VE6 bubu dubu
p2869
sg43
Nsasg266
I01
sg35
VPT3M32.3263371S
p2870
sg32
VDeath
p2871
sg269
I1
sa(dp2872
g32
VMedal
p2873
sg39
(dp2874
g41
VE6 Cratos HCS
p2875
sg43
Nssg285
I3261908037
sg35
VPT3M32.3273565S
p2876
sa(dp2877
g38
I313138863
sg32
VWeaponDrop
p2878
sg180
I0
sg44
(lp2879
I1095363701
asg35
VPT3M32.328358S
p2880
sg183
I0
sg184
VP0DT0H0M0.3167S
p2881
sg39
(dp2882
g41
VTL Danoxide
p2883
sg43
Nssa(dp2884
g38
I4096745987
sg32
VWeaponDrop
p2885
sg180
I7
sg44
(lp2886
I2758383128
asg35
VPT3M32.328358S
p2887
sg183
I6
sg184
VP0DT0H0M20.4333S
p2888
sg39
(dp2889
g41
VTL Danoxide
p2890
sg43
Nssa(dp2891
g38
I4096745987
sg32
VWeaponDrop
p2892
sg180
I7
sg44
(lp2893
I2758383128
asg35
VPT3M33.1423434S
p2894
sg183
I5
sg184
VP0DT0H0M5.3167S
p2895
sg39
(dp2896
g41
VE6 Cratos HCS
p2897
sg43
Nssa(dp2898
g38
I424645655
sg39
(dp2899
g41
VE6 Cratos HCS
p2900
sg43
Nssg44
(lp2901
I1327094800
asg32
VWeaponPickup
p2902
sg35
VPT3M33.1423434S
p2903
sa(dp2904
g38
I313138863
sg39
(dp2905
g41
VTL Eco HCS
p2906
sg43
Nssg44
(lp2907
I1095363701
asg32
VWeaponPickup
p2908
sg35
VPT3M33.2773445S
p2909
sa(dp2910
g38
I4096745987
sg39
(dp2911
g41
VTL Eco HCS
p2912
sg43
Nssg44
(lp2913
I2758383128
asg32
VWeaponPickup
p2914
sg35
VPT3M33.2773445S
p2915
sa(dp2916
g32
VPlayerSpawn
p2917
sg39
(dp2918
g41
VTL Eco HCS
p2919
sg43
Nssg35
VPT3M33.2773445S
p2920
sa(dp2921
g38
I313138863
sg32
VWeaponDrop
p2922
sg180
I0
sg44
(lp2923
I1095363701
asg35
VPT3M33.7423475S
p2924
sg183
I0
sg184
VP0DT0H0M15.9000S
p2925
sg39
(dp2926
g41
VE6 Shooter
p2927
sg43
Nssa(dp2928
g38
I3682788176
sg39
(dp2929
g41
VE6 Shooter
p2930
sg43
Nssg44
(lp2931
I2758383128
asg32
VWeaponPickup
p2932
sg35
VPT3M33.7423475S
p2933
sa(dp2934
g240
I4096745987
sg241
I00
sg242
I00
sg243
(dp2935
g41
VTL Spartan HCS
p2936
sg43
Nssg246
(lp2937
I2758383128
asg248
I00
sg249
I01
sg250
I1
sg251
I0
sg252
I1
sg253
(dp2938
Vy
F8.8309099999999994
sVx
F7.2916869999999996
sVz
F-0.89673049999999999
ssg255
(dp2939
Vy
F1.8314191099999999
sVx
F5.9034550000000001
sVz
F0.30556064799999999
ssg257
I00
sg258
(dp2940
g41
VE6 Huke HCS
p2941
sg43
Nssg262
(lp2942
sg264
(lp2943
sg266
I01
sg35
VPT3M34.4773501S
p2944
sg32
VDeath
p2945
sg269
I1
sa(dp2946
g32
VMedal
p2947
sg39
(dp2948
g41
VTL Spartan HCS
p2949
sg43
Nssg285
I3261908037
sg35
VPT3M34.4783514S
p2950
sa(dp2951
g38
I3808094875
sg32
VWeaponDrop
p2952
sg180
I0
sg44
(lp2953
I2758383128
asg35
VPT3M34.4793496S
p2954
sg183
I0
sg184
VP0DT0H0M3.9167S
p2955
sg39
(dp2956
g41
VE6 Huke HCS
p2957
sg43
Nssa(dp2958
g38
I4096745987
sg32
VWeaponDrop
p2959
sg180
I6
sg44
(lp2960
I2758383128
asg35
VPT3M34.4793496S
p2961
sg183
I4
sg184
VP0DT0H0M13.8500S
p2962
sg39
(dp2963
g41
VE6 Huke HCS
p2964
sg43
Nssa(dp2965
g38
I313138863
sg32
VWeaponDrop
p2966
sg180
I0
sg44
(lp2967
I1095363701
asg35
VPT3M37.2923694S
p2968
sg183
I0
sg184
VP0DT0H0M4.4833S
p2969
sg39
(dp2970
g41
VTL Spartan HCS
p2971
sg43
Nssa(dp2972
g38
I3808094875
sg39
(dp2973
g41
VTL Spartan HCS
p2974
sg43
Nssg44
(lp2975
I2758383128
asg32
VWeaponPickup
p2976
sg35
VPT3M37.2933916S
p2977
sa(dp2978
g38
I313138863
sg39
(dp2979
g41
VE6 bubu dubu
p2980
sg43
Nssg44
(lp2981
I1095363701
asg32
VWeaponPickup
p2982
sg35
VPT3M37.9273743S
p2983
sa(dp2984
g38
I4096745987
sg39
(dp2985
g41
VE6 bubu dubu
p2986
sg43
Nssg44
(lp2987
I2758383128
asg32
VWeaponPickup
p2988
sg35
VPT3M37.9273743S
p2989
sa(dp2990
g32
VPlayerSpawn
p2991
sg39
(dp2992
g41
VE6 bubu dubu
p2993
sg43
Nssg35
VPT3M37.9273743S
p2994
sa(dp2995
g38
I313138863
sg39
(dp2996
g41
VTL StelluR
p2997
sg43
Nssg44
(lp2998
I1095363701
asg32
VWeaponPickup
p2999
sg35
VPT3M39.1603806S
p3000
sa(dp3001
g38
I4096745987
sg39
(dp3002
g41
VTL StelluR
p3003
sg43
Nssg44
(lp3004
I2758383128
asg32
VWeaponPickup
p3005
sg35
VPT3M39.1613817S
p3006
sa(dp3007
g32
VPlayerSpawn
p3008
sg39
(dp3009
g41
VTL StelluR
p3010
sg43
Nssg35
VPT3M39.1613817S
p3011
sa(dp3012
g32
VMedal
p3013
sg39
(dp3014
g41
VE6 Cratos HCS
p3015
sg43
Nssg285
I3565443938
sg35
VPT3M39.5253839S
p3016
sa(dp3017
g32
VMedal
p3018
sg39
(dp3019
g41
VE6 Shooter
p3020
sg43
Nssg285
I2105198095
sg35
VPT3M39.5264027S
p3021
sa(dp3022
g32
VMedal
p3023
sg39
(dp3024
g41
VE6 Cratos HCS
p3025
sg43
Nssg285
I2105198095
sg35
VPT3M39.5264027S
p3026
sa(dp3027
g32
VMedal
p3028
sg39
(dp3029
g41
VE6 Huke HCS
p3030
sg43
Nssg285
I2105198095
sg35
VPT3M39.5264027S
p3031
sa(dp3032
g32
VMedal
p3033
sg39
(dp3034
g41
VE6 bubu dubu
p3035
sg43
Nssg285
I2105198095
sg35
VPT3M39.5264027S
p3036
sa(dp3037
g38
I313138863
sg39
(dp3038
g41
VTL Danoxide
p3039
sg43
Nssg44
(lp3040
I1095363701
asg32
VWeaponPickup
p3041
sg35
VPT3M40.3434078S
p3042
sa(dp3043
g38
I4096745987
sg39
(dp3044
g41
VTL Danoxide
p3045
sg43
Nssg44
(lp3046
I2758383128
asg32
VWeaponPickup
p3047
sg35
VPT3M40.3434078S
p3048
sa(dp3049
g32
VPlayerSpawn
p3050
sg39
(dp3051
g41
VTL Danoxide
p3052
sg43
Nssg35
VPT3M40.3434078S
p3053
sa(dp3054
g38
I313138863
sg32
VWeaponDrop
p3055
sg180
I0
sg44
(lp3056
I1095363701
asg35
VPT3M42.1754003S
p3057
sg183
I0
sg184
VP0DT0H0M0.8167S
p3058
sg39
(dp3059
g41
VTL StelluR
p3060
sg43
Nssa(dp3061
g38
I4108759423
sg39
(dp3062
g41
VTL StelluR
p3063
sg43
Nssg44
(lp3064
I2758383128
asg32
VWeaponPickup
p3065
sg35
VPT3M42.1754003S
p3066
sa(dp3067
g38
I313138863
sg39
(dp3068
g41
VE6 Huke HCS
p3069
sg43
Nssg44
(lp3070
I1095363701
asg32
VWeaponPickup
p3071
sg35
VPT3M42.4934023S
p3072
sa(dp3073
g38
I4096745987
sg39
(dp3074
g41
VE6 Huke HCS
p3075
sg43
Nssg44
(lp3076
I2758383128
asg32
VWeaponPickup
p3077
sg35
VPT3M42.4934023S
p3078
sa(dp3079
g32
VPlayerSpawn
p3080
sg39
(dp3081
g41
VE6 Huke HCS
p3082
sg43
Nssg35
VPT3M42.4934023S
p3083
sa(dp3084
g32
VMedal
p3085
sg39
(dp3086
g41
VTL Eco HCS
p3087
sg43
Nssg285
I3565443938
sg35
VPT3M45.325444S
p3088
sa(dp3089
g32
VMedal
p3090
sg39
(dp3091
g41
VTL Spartan HCS
p3092
sg43
Nssg285
I1637841390
sg35
VPT3M45.325444S
p3093
sa(dp3094
g240
I4108759423
sg241
I00
sg242
I00
sg243
(dp3095
g41
VTL StelluR
p3096
sg43
Nssg246
(lp3097
I2758383128
asg248
I00
sg249
I01
sg250
I1
sg251
I0
sg252
I1
sg253
(dp3098
Vy
F22.3185024
sVx
F5.9358143800000001
sVz
F1.4063099999999999
ssg255
(dp3099
Vy
F16.676975299999999
sVx
F-10.0781755
sVz
F1.5002749
ssg257
I00
sg258
(dp3100
g41
VE6 bubu dubu
p3101
sg43
Nssg262
(lp3102
sg264
(lp3103
(dp3104
g41
VTL Danoxide
p3105
sg43
Nsasg266
I01
sg35
VPT3M49.7264122S
p3106
sg32
VDeath
p3107
sg269
I1
sa(dp3108
g32
VMedal
p3109
sg39
(dp3110
g41
VTL StelluR
p3111
sg43
Nssg285
I3261908037
sg35
VPT3M49.728412S
p3112
sa(dp3113
g38
I313138863
sg32
VWeaponDrop
p3114
sg180
I0
sg44
(lp3115
I1095363701
asg35
VPT3M49.728412S
p3116
sg183
I0
sg184
VP0DT0H0M1.9333S
p3117
sg39
(dp3118
g41
VE6 bubu dubu
p3119
sg43
Nssa(dp3120
g38
I4096745987
sg32
VWeaponDrop
p3121
sg180
I4
sg44
(lp3122
I2758383128
asg35
VPT3M49.728412S
p3123
sg183
I1
sg184
VP0DT0H0M9.8667S
p3124
sg39
(dp3125
g41
VE6 bubu dubu
p3126
sg43
Nssa(dp3127
g38
I313138863
sg39
(dp3128
g41
VE6 bubu dubu
p3129
sg43
Nssg44
(lp3130
I1095363701
asg32
VWeaponPickup
p3131
sg35
VPT3M57.7434125S
p3132
sa(dp3133
g38
I4096745987
sg39
(dp3134
g41
VE6 bubu dubu
p3135
sg43
Nssg44
(lp3136
I2758383128
asg32
VWeaponPickup
p3137
sg35
VPT3M57.7444314S
p3138
sa(dp3139
g32
VPlayerSpawn
p3140
sg39
(dp3141
g41
VE6 bubu dubu
p3142
sg43
Nssg35
VPT3M57.7444314S
p3143
sa(dp3144
g240
I313138863
sg241
I00
sg242
I00
sg243
(dp3145
g41
VTL Danoxide
p3146
sg43
Nssg246
(lp3147
I1095363701
asg248
I00
sg249
I01
sg250
I1
sg251
I0
sg252
I1
sg253
(dp3148
Vy
F17.553274200000001
sVx
F-3.5458674399999999
sVz
F1.4995031400000001
ssg255
(dp3149
Vy
F13.209814099999999
sVx
F-3.07497525
sVz
F2.4209625699999999
ssg257
I00
sg258
(dp3150
g41
VE6 Shooter
p3151
sg43
Nssg262
(lp3152
sg264
(lp3153
(dp3154
g41
VTL Spartan HCS
p3155
sg43
Nsasg266
I00
sg35
VPT3M59.2924106S
p3156
sg32
VDeath
p3157
sg269
I1
sa(dp3158
g38
I424645655
sg32
VWeaponDrop
p3159
sg180
I99
sg44
(lp3160
I1327094800
asg35
VPT3M59.2944129S
p3161
sg183
I55
sg184
VP0DT0H1M9.7500S
p3162
sg39
(dp3163
g41
VE6 Shooter
p3164
sg43
Nssa(dp3165
g38
I3682788176
sg32
VWeaponDrop
p3166
sg180
I1
sg44
(lp3167
I2758383128
asg35
VPT3M59.2944129S
p3168
sg183
I1
sg184
VP0DT0H0M6.0667S
p3169
sg39
(dp3170
g41
VE6 Shooter
p3171
sg43
Nssa(dp3172
g240
I4108759423
sg241
I00
sg242
I00
sg243
(dp3173
g41
VTL StelluR
p3174
sg43
Nssg246
(lp3175
I2758383128
asg248
I00
sg249
I01
sg250
I1
sg251
I0
sg252
I1
sg253
(dp3176
Vy
F9.6126090000000008
sVx
F2.35608935
sVz
F2.004464
ssg255
(dp3177
Vy
F9.6337240000000008
sVx
F1.2337255499999999
sVz
F2.5825038
ssg257
I00
sg258
(dp3178
g41
VE6 Huke HCS
p3179
sg43
Nssg262
(lp3180
sg264
(lp3181
(dp3182
g41
VTL Danoxide
p3183
sg43
Nsasg266
I01
sg35
VPT3M59.8924117S
p3184
sg32
VDeath
p3185
sg269
I1
sa(dp3186
g32
VMedal
p3187
sg39
(dp3188
g41
VTL StelluR
p3189
sg43
Nssg285
I3261908037
sg35
VPT3M59.893415S
p3190
sa(dp3191
g38
I313138863
sg32
VWeaponDrop
p3192
sg180
I11
sg44
(lp3193
I1095363701
asg35
VPT3M59.8944131S
p3194
sg183
I1
sg184
VP0DT0H0M5.5000S
p3195
sg39
(dp3196
g41
VE6 Huke HCS
p3197
sg43
Nssa(dp3198
g38
I4096745987
sg32
VWeaponDrop
p3199
sg180
I2
sg44
(lp3200
I2758383128
asg35
VPT3M59.8944131S
p3201
sg183
I2
sg184
VP0DT0H0M11.9000S
p3202
sg39
(dp3203
g41
VE6 Huke HCS
p3204
sg43
Nssa(dp3205
g38
I313138863
sg39
(dp3206
g41
VE6 Shooter
p3207
sg43
Nssg44
(lp3208
I1095363701
asg32
VWeaponPickup
p3209
sg35
VPT4M7.309433S
p3210
sa(dp3211
g38
I4096745987
sg39
(dp3212
g41
VE6 Shooter
p3213
sg43
Nssg44
(lp3214
I2758383128
asg32
VWeaponPickup
p3215
sg35
VPT4M7.309433S
p3216
sa(dp3217
g32
VPlayerSpawn
p3218
sg39
(dp3219
g41
VE6 Shooter
p3220
sg43
Nssg35
VPT4M7.309433S
p3221
sa(dp3222
g38
I313138863
sg39
(dp3223
g41
VE6 Huke HCS
p3224
sg43
Nssg44
(lp3225
I1095363701
asg32
VWeaponPickup
p3226
sg35
VPT4M7.9074331S
p3227
sa(dp3228
g38
I4096745987
sg39
(dp3229
g41
VE6 Huke HCS
p3230
sg43
Nssg44
(lp3231
I2758383128
asg32
VWeaponPickup
p3232
sg35
VPT4M7.9074331S
p3233
sa(dp3234
g32
VPlayerSpawn
p3235
sg39
(dp3236
g41
VE6 Huke HCS
p3237
sg43
Nssg35
VPT4M7.9074331S
p3238
sa(dp3239
g240
I313138863
sg241
I00
sg242
I00
sg243
(dp3240
g41
VTL Eco HCS
p3241
sg43
Nssg246
(lp3242
I1095363701
asg248
I00
sg249
I01
sg250
I1
sg251
I0
sg252
I1
sg253
(dp3243
Vy
F-0.34737747899999999
sVx
F-2.9785835700000001
sVz
F1.2674672600000001
ssg255
(dp3244
Vy
F2.2045078299999998
sVx
F-5.4079532600000002
sVz
F1.14654481
ssg257
I00
sg258
(dp3245
g41
VE6 Cratos HCS
p3246
sg43
Nssg262
(lp3247
sg264
(lp3248
sg266
I00
sg35
VPT4M8.9584121S
p3249
sg32
VDeath
p3250
sg269
I1
sa(dp3251
g32
VMedal
p3252
sg39
(dp3253
g41
VTL Eco HCS
p3254
sg43
Nssg285
I2838259753
sg35
VPT4M8.9594135S
p3255
sa(dp3256
g32
VImpulse
p3257
sg39
(dp3258
g41
VTL Eco HCS
p3259
sg43
Nssg317
I2556889090
sg35
VPT4M8.9594135S
p3260
sa(dp3261
g38
I313138863
sg32
VWeaponDrop
p3262
sg180
I0
sg44
(lp3263
I1095363701
asg35
VPT4M8.961433S
p3264
sg183
I0
sg184
VP0DT0H0M1.0167S
p3265
sg39
(dp3266
g41
VE6 Cratos HCS
p3267
sg43
Nssa(dp3268
g38
I424645655
sg32
VWeaponDrop
p3269
sg180
I57
sg44
(lp3270
I1327094800
asg35
VPT4M8.961433S
p3271
sg183
I29
sg184
VP0DT0H0M35.8167S
p3272
sg39
(dp3273
g41
VE6 Cratos HCS
p3274
sg43
Nssa(dp3275
g32
VMedal
p3276
sg39
(dp3277
g41
VTL Danoxide
p3278
sg43
Nssg285
I3565443938
sg35
VPT4M15.7914362S
p3279
sa(dp3280
g38
I313138863
sg39
(dp3281
g41
VE6 Cratos HCS
p3282
sg43
Nssg44
(lp3283
I1095363701
asg32
VWeaponPickup
p3284
sg35
VPT4M16.9754322S
p3285
sa(dp3286
g38
I4096745987
sg39
(dp3287
g41
VE6 Cratos HCS
p3288
sg43
Nssg44
(lp3289
I2758383128
asg32
VWeaponPickup
p3290
sg35
VPT4M16.9764332S
p3291
sa(dp3292
g32
VPlayerSpawn
p3293
sg39
(dp3294
g41
VE6 Cratos HCS
p3295
sg43
Nssg35
VPT4M16.9764332S
p3296
sa(dp3297
g38
I313138863
sg32
VWeaponDrop
p3298
sg180
I11
sg44
(lp3299
I1095363701
asg35
VPT4M20.2234122S
p3300
sg183
I7
sg184
VP0DT0H0M4.5333S
p3301
sg39
(dp3302
g41
VE6 Shooter
p3303
sg43
Nssa(dp3304
g38
I3682788176
sg39
(dp3305
g41
VE6 Shooter
p3306
sg43
Nssg44
(lp3307
I2758383128
asg32
VWeaponPickupPad
p3308
sg35
VPT4M20.224434S
p3309
sa(dp3310
g38
I3682788176
sg39
(dp3311
g41
VE6 Shooter
p3312
sg43
Nssg44
(lp3313
I2758383128
asg32
VWeaponPickup
p3314
sg35
VPT4M20.224434S
p3315
sa(dp3316
g240
I313138863
sg241
I00
sg242
I00
sg243
(dp3317
g41
VE6 Huke HCS
p3318
sg43
Nssg246
(lp3319
I1095363701
asg248
I00
sg249
I01
sg250
I1
sg251
I0
sg252
I1
sg253
(dp3320
Vy
F1.6907357000000001
sVx
F1.0332253
sVz
F0.305549562
ssg255
(dp3321
Vy
F4.0121260000000003
sVx
F-2.616196
sVz
F-0.33790170000000003
ssg257
I00
sg258
(dp3322
g41
VTL Eco HCS
p3323
sg43
Nssg262
(lp3324
sg264
(lp3325
(dp3326
g41
VE6 Shooter
p3327
sg43
Nsasg266
I00
sg35
VPT4M20.3254112S
p3328
sg32
VDeath
p3329
sg269
I1
sa(dp3330
g38
I313138863
sg32
VWeaponDrop
p3331
sg180
I37
sg44
(lp3332
I1095363701
asg35
VPT4M20.3274106S
p3333
sg183
I19
sg184
VP0DT0H0M15.0833S
p3334
sg39
(dp3335
g41
VTL Eco HCS
p3336
sg43
Nssa(dp3337
g38
I4096745987
sg32
VWeaponDrop
p3338
sg180
I12
sg44
(lp3339
I2758383128
asg35
VPT4M20.3274106S
p3340
sg183
I5
sg184
VP0DT0H0M31.9667S
p3341
sg39
(dp3342
g41
VTL Eco HCS
p3343
sg43
Nssa(dp3344
g240
I4096745987
sg241
I00
sg242
I00
sg243
(dp3345
g41
VE6 Cratos HCS
p3346
sg43
Nssg246
(lp3347
I2758383128
asg248
I00
sg249
I01
sg250
I1
sg251
I0
sg252
I1
sg253
(dp3348
Vy
F-0.86701360000000005
sVx
F-10.2776651
sVz
F2.2543139999999999
ssg255
(dp3349
Vy
F11.279651599999999
sVx
F-9.4169020000000003
sVz
F3.1506812599999998
ssg257
I00
sg258
(dp3350
g41
VTL StelluR
p3351
sg43
Nssg262
(lp3352
sg264
(lp3353
(dp3354
g41
VE6 bubu dubu
p3355
sg43
Nsasg266
I00
sg35
VPT4M21.3744228S
p3356
sg32
VDeath
p3357
sg269
I1
sa(dp3358
g38
I4108759423
sg32
VWeaponDrop
p3359
sg180
I34
sg44
(lp3360
I2758383128
asg35
VPT4M21.3764318S
p3361
sg183
I14
sg184
VP0DT0H0M39.2000S
p3362
sg39
(dp3363
g41
VTL StelluR
p3364
sg43
Nssa(dp3365
g38
I4096745987
sg32
VWeaponDrop
p3366
sg180
I0
sg44
(lp3367
I2758383128
asg35
VPT4M21.3764318S
p3368
sg183
I0
sg184
VP0DT0H0M2.2000S
p3369
sg39
(dp3370
g41
VTL StelluR
p3371
sg43
Nssa(dp3372
g38
I313138863
sg39
(dp3373
g41
VTL Eco HCS
p3374
sg43
Nssg44
(lp3375
I1095363701
asg32
VWeaponPickup
p3376
sg35
VPT4M28.3414115S
p3377
sa(dp3378
g38
I4096745987
sg39
(dp3379
g41
VTL Eco HCS
p3380
sg43
Nssg44
(lp3381
I2758383128
asg32
VWeaponPickup
p3382
sg35
VPT4M28.3414115S
p3383
sa(dp3384
g32
VPlayerSpawn
p3385
sg39
(dp3386
g41
VTL Eco HCS
p3387
sg43
Nssg35
VPT4M28.3414115S
p3388
sa(dp3389
g38
I313138863
sg39
(dp3390
g41
VTL StelluR
p3391
sg43
Nssg44
(lp3392
I1095363701
asg32
VWeaponPickup
p3393
sg35
VPT4M29.3914138S
p3394
sa(dp3395
g38
I4096745987
sg39
(dp3396
g41
VTL StelluR
p3397
sg43
Nssg44
(lp3398
I2758383128
asg32
VWeaponPickup
p3399
sg35
VPT4M29.3914138S
p3400
sa(dp3401
g32
VPlayerSpawn
p3402
sg39
(dp3403
g41
VTL StelluR
p3404
sg43
Nssg35
VPT4M29.3914138S
p3405
sa(dp3406
g38
I4096745987
sg32
VWeaponDrop
p3407
sg180
I0
sg44
(lp3408
I2758383128
asg35
VPT4M30.2064317S
p3409
sg183
I0
sg184
VP0DT0H0M10.7667S
p3410
sg39
(dp3411
g41
VE6 Huke HCS
p3412
sg43
Nssa(dp3413
g38
I4108759423
sg39
(dp3414
g41
VE6 Huke HCS
p3415
sg43
Nssg44
(lp3416
I2758383128
asg32
VWeaponPickup
p3417
sg35
VPT4M30.2064317S
p3418
sa(dp3419
g38
I313138863
sg32
VWeaponDrop
p3420
sg180
I0
sg44
(lp3421
I1095363701
asg35
VPT4M32.954433S
p3422
sg183
I0
sg184
VP0DT0H0M2.7833S
p3423
sg39
(dp3424
g41
VTL StelluR
p3425
sg43
Nssa(dp3426
g38
I424645655
sg39
(dp3427
g41
VTL StelluR
p3428
sg43
Nssg44
(lp3429
I1327094800
asg32
VWeaponPickup
p3430
sg35
VPT4M32.954433S
p3431
sa(dp3432
g32
VMedal
p3433
sg39
(dp3434
g41
VE6 Cratos HCS
p3435
sg43
Nssg285
I3565443938
sg35
VPT4M36.0244122S
p3436
sa(dp3437
g32
VMedal
p3438
sg39
(dp3439
g41
VE6 Shooter
p3440
sg43
Nssg285
I3565443938
sg35
VPT4M36.0244122S
p3441
sa(dp3442
g32
VMedal
p3443
sg39
(dp3444
g41
VTL Eco HCS
p3445
sg43
Nssg285
I3565443938
sg35
VPT4M36.3734339S
p3446
sa(dp3447
g32
VMedal
p3448
sg39
(dp3449
g41
VTL StelluR
p3450
sg43
Nssg285
I3565443938
sg35
VPT4M36.3734339S
p3451
sa(dp3452
g32
VMedal
p3453
sg39
(dp3454
g41
VTL Danoxide
p3455
sg43
Nssg285
I1637841390
sg35
VPT4M36.3734339S
p3456
sa(dp3457
g32
VMedal
p3458
sg39
(dp3459
g41
VE6 bubu dubu
p3460
sg43
Nssg285
I3565443938
sg35
VPT4M37.9624183S
p3461
sa(dp3462
g38
I2492868984
sg39
(dp3463
g41
VTL Danoxide
p3464
sg43
Nssg44
(lp3465
I2758383128
asg32
VWeaponPickup
p3466
sg35
VPT4M38.2904135S
p3467
sa(dp3468
g240
I3682788176
sg241
I00
sg242
I00
sg243
(dp3469
g41
VE6 Shooter
p3470
sg43
Nssg246
(lp3471
I2758383128
asg248
I00
sg249
I01
sg250
I1
sg251
I0
sg252
I1
sg253
(dp3472
Vy
F10.645275099999999
sVx
F3.4205546400000002
sVz
F-0.89672960000000002
ssg255
(dp3473
Vy
F12.349179299999999
sVx
F-5.2799620000000003
sVz
F0.8882622
ssg257
I00
sg258
(dp3474
g41
VTL Danoxide
p3475
sg43
Nssg262
(lp3476
sg264
(lp3477
sg266
I00
sg35
VPT4M38.4247195S
p3478
sg32
VDeath
p3479
sg269
I1
sa(dp3480
g38
I313138863
sg32
VWeaponDrop
p3481
sg180
I23
sg44
(lp3482
I1095363701
asg35
VPT4M38.426412S
p3483
sg183
I10
sg184
VP0DT0H0M10.7167S
p3484
sg39
(dp3485
g41
VTL Danoxide
p3486
sg43
Nssa(dp3487
g38
I4096745987
sg32
VWeaponDrop
p3488
sg180
I13
sg44
(lp3489
I2758383128
asg35
VPT4M38.426412S
p3490
sg183
I6
sg184
VP0DT0H0M47.3667S
p3491
sg39
(dp3492
g41
VTL Danoxide
p3493
sg43
Nssa(dp3494
g38
I313138863
sg32
VWeaponDrop
p3495
sg180
I0
sg44
(lp3496
I1095363701
asg35
VPT4M39.4064114S
p3497
sg183
I0
sg184
VP0DT0H0M2.0167S
p3498
sg39
(dp3499
g41
VTL Eco HCS
p3500
sg43
Nssa(dp3501
g38
I723388907
sg39
(dp3502
g41
VTL Eco HCS
p3503
sg43
Nssg44
(lp3504
I89283061
asg32
VWeaponPickup
p3505
sg35
VPT4M39.4064114S
p3506
sa(dp3507
g240
I313138863
sg241
I00
sg242
I00
sg243
(dp3508
g41
VE6 Cratos HCS
p3509
sg43
Nssg246
(lp3510
I1095363701
asg248
I00
sg249
I01
sg250
I1
sg251
I0
sg252
I1
sg253
(dp3511
Vy
F-0.88879160000000001
sVx
F-2.5399005400000001
sVz
F1.18774176
ssg255
(dp3512
Vy
F1.836165
sVx
F-5.4377655999999996
sVz
F1.39243925
ssg257
I00
sg258
(dp3513
g41
VTL StelluR
p3514
sg43
Nssg262
(lp3515
sg264
(lp3516
sg266
I00
sg35
VPT4M44.1574117S
p3517
sg32
VDeath
p3518
sg269
I1
sa(dp3519
g38
I424645655
sg32
VWeaponDrop
p3520
sg180
I18
sg44
(lp3521
I1327094800
asg35
VPT4M44.158436S
p3522
sg183
I9
sg184
VP0DT0H0M11.2000S
p3523
sg39
(dp3524
g41
VTL StelluR
p3525
sg43
Nssa(dp3526
g38
I4096745987
sg32
VWeaponDrop
p3527
sg180
I0
sg44
(lp3528
I2758383128
asg35
VPT4M44.158436S
p3529
sg183
I0
sg184
VP0DT0H0M0.7833S
p3530
sg39
(dp3531
g41
VTL StelluR
p3532
sg43
Nssa(dp3533
g38
I313138863
sg39
(dp3534
g41
VTL Danoxide
p3535
sg43
Nssg44
(lp3536
I1095363701
asg32
VWeaponPickup
p3537
sg35
VPT4M46.4414316S
p3538
sa(dp3539
g38
I4096745987
sg39
(dp3540
g41
VTL Danoxide
p3541
sg43
Nssg44
(lp3542
I2758383128
asg32
VWeaponPickup
p3543
sg35
VPT4M46.4414316S
p3544
sa(dp3545
g32
VPlayerSpawn
p3546
sg39
(dp3547
g41
VTL Danoxide
p3548
sg43
Nssg35
VPT4M46.4414316S
p3549
sa(dp3550
g240
I3808094875
sg241
I00
sg242
I00
sg243
(dp3551
g41
VTL Spartan HCS
p3552
sg43
Nssg246
(lp3553
I2758383128
asg248
I00
sg249
I01
sg250
I1
sg251
I0
sg252
I1
sg253
(dp3554
Vy
F2.10071254
sVx
F-1.443951
sVz
F0.29324860000000003
ssg255
(dp3555
Vy
F0.54039669999999995
sVx
F-1.7669600000000001
sVz
F0.30554962200000002
ssg257
I00
sg258
(dp3556
g41
VE6 Cratos HCS
p3557
sg43
Nssg262
(lp3558
sg264
(lp3559
sg266
I00
sg35
VPT4M50.0084126S
p3560
sg32
VDeath
p3561
sg269
I1
sa(dp3562
g38
I313138863
sg32
VWeaponDrop
p3563
sg180
I22
sg44
(lp3564
I1095363701
asg35
VPT4M50.0104362S
p3565
sg183
I14
sg184
VP0DT0H0M5.6000S
p3566
sg39
(dp3567
g41
VE6 Cratos HCS
p3568
sg43
Nssa(dp3569
g38
I4096745987
sg32
VWeaponDrop
p3570
sg180
I14
sg44
(lp3571
I2758383128
asg35
VPT4M50.0104362S
p3572
sg183
I9
sg184
VP0DT0H0M27.4333S
p3573
sg39
(dp3574
g41
VE6 Cratos HCS
p3575
sg43
Nssa(dp3576
g240
I3682788176
sg241
I00
sg242
I00
sg243
(dp3577
g41
VE6 Shooter
p3578
sg43
Nssg246
(lp3579
I2758383128
asg248
I00
sg249
I01
sg250
I1
sg251
I0
sg252
I1
sg253
(dp3580
Vy
F0.61607956900000005
sVx
F7.3776289999999998
sVz
F1.17654145
ssg255
(dp3581
Vy
F3.4574889999999998
sVx
F-1.6748361599999999
sVz
F-0.30922907599999999
ssg257
I00
sg258
(dp3582
g41
VTL Spartan HCS
p3583
sg43
Nssg262
(lp3584
sg264
(lp3585
(dp3586
g41
VE6 Cratos HCS
p3587
sg43
Nsasg266
I00
sg35
VPT4M50.9074131S
p3588
sg32
VDeath
p3589
sg269
I1
sa(dp3590
g38
I3808094875
sg32
VWeaponDrop
p3591
sg180
I16
sg44
(lp3592
I2758383128
asg35
VPT4M50.9084114S
p3593
sg183
I7
sg184
VP0DT0H0M37.0500S
p3594
sg39
(dp3595
g41
VTL Spartan HCS
p3596
sg43
Nssa(dp3597
g38
I4096745987
sg32
VWeaponDrop
p3598
sg180
I25
sg44
(lp3599
I2758383128
asg35
VPT4M50.9094123S
p3600
sg183
I14
sg184
VP0DT0H0M41.1167S
p3601
sg39
(dp3602
g41
VTL Spartan HCS
p3603
sg43
Nssa(dp3604
g38
I313138863
sg39
(dp3605
g41
VTL StelluR
p3606
sg43
Nssg44
(lp3607
I1095363701
asg32
VWeaponPickup
p3608
sg35
VPT4M52.1734119S
p3609
sa(dp3610
g38
I4096745987
sg39
(dp3611
g41
VTL StelluR
p3612
sg43
Nssg44
(lp3613
I2758383128
asg32
VWeaponPickup
p3614
sg35
VPT4M52.1744143S
p3615
sa(dp3616
g32
VPlayerSpawn
p3617
sg39
(dp3618
g41
VTL StelluR
p3619
sg43
Nssg35
VPT4M52.1744143S
p3620
sa(dp3621
g240
I4096745987
sg241
I00
sg242
I00
sg243
(dp3622
g41
VE6 bubu dubu
p3623
sg43
Nssg246
(lp3624
I2758383128
asg248
I00
sg249
I00
sg250
I2
sg251
I0
sg252
I0
sg253
(dp3625
Vy
F22.471666299999999
sVx
F2.6650896099999999
sVz
F1.5000038099999999
ssg255
(dp3626
Vy
F27.5284519
sVx
F-11.616913800000001
sVz
F1.50311935
ssg257
I00
sg258
(dp3627
g260
g261
ssg262
(lp3628
sg264
(lp3629
sg266
I00
sg35
VPT4M53.5904144S
p3630
sg32
VDeath
p3631
sg269
I1
sa(dp3632
g240
I4096745987
sg241
I00
sg242
I00
sg243
(dp3633
g41
VTL Danoxide
p3634
sg43
Nssg246
(lp3635
I2758383128
asg248
I00
sg249
I01
sg250
I1
sg251
I0
sg252
I1
sg253
(dp3636
Vy
F10.98305
sVx
F-9.5561190000000007
sVz
F3.2293605799999998
ssg255
(dp3637
Vy
F8.5007839999999995
sVx
F-11.417465200000001
sVz
F1.52057409
ssg257
I00
sg258
(dp3638
g41
VE6 Huke HCS
p3639
sg43
Nssg262
(lp3640
sg264
(lp3641
(dp3642
g41
VTL Eco HCS
p3643
sg43
Nsasg266
I01
sg35
VPT4M56.6734111S
p3644
sg32
VDeath
p3645
sg269
I1
sa(dp3646
g32
VMedal
p3647
sg39
(dp3648
g41
VTL Danoxide
p3649
sg43
Nssg285
I3261908037
sg35
VPT4M56.6744339S
p3650
sa(dp3651
g38
I313138863
sg32
VWeaponDrop
p3652
sg180
I28
sg44
(lp3653
I1095363701
asg35
VPT4M56.6754318S
p3654
sg183
I14
sg184
VP0DT0H0M15.2000S
p3655
sg39
(dp3656
g41
VE6 Huke HCS
p3657
sg43
Nssa(dp3658
g38
I4108759423
sg32
VWeaponDrop
p3659
sg180
I2
sg44
(lp3660
I2758383128
asg35
VPT4M56.6754318S
p3661
sg183
I1
sg184
VP0DT0H0M22.8000S
p3662
sg39
(dp3663
g41
VE6 Huke HCS
p3664
sg43
Nssa(dp3665
g38
I313138863
sg39
(dp3666
g41
VE6 Cratos HCS
p3667
sg43
Nssg44
(lp3668
I1095363701
asg32
VWeaponPickup
p3669
sg35
VPT4M58.0234122S
p3670
sa(dp3671
g38
I4096745987
sg39
(dp3672
g41
VE6 Cratos HCS
p3673
sg43
Nssg44
(lp3674
I2758383128
asg32
VWeaponPickup
p3675
sg35
VPT4M58.024433S
p3676
sa(dp3677
g32
VPlayerSpawn
p3678
sg39
(dp3679
g41
VE6 Cratos HCS
p3680
sg43
Nssg35
VPT4M58.024433S
p3681
sa(dp3682
g38
I313138863
sg39
(dp3683
g41
VTL Spartan HCS
p3684
sg43
Nssg44
(lp3685
I1095363701
asg32
VWeaponPickup
p3686
sg35
VPT4M58.9244172S
p3687
sa(dp3688
g38
I4096745987
sg39
(dp3689
g41
VTL Spartan HCS
p3690
sg43
Nssg44
(lp3691
I2758383128
asg32
VWeaponPickup
p3692
sg35
VPT4M58.9254131S
p3693
sa(dp3694
g32
VPlayerSpawn
p3695
sg39
(dp3696
g41
VTL Spartan HCS
p3697
sg43
Nssg35
VPT4M58.9254131S
p3698
sa(dp3699
g32
VMedal
p3700
sg39
(dp3701
g41
VTL Eco HCS
p3702
sg43
Nssg285
I3565443938
sg35
VPT5M0.155412S
p3703
sa(dp3704
g32
VMedal
p3705
sg39
(dp3706
g41
VTL StelluR
p3707
sg43
Nssg285
I3565443938
sg35
VPT5M0.155412S
p3708
sa(dp3709
g38
I4096745987
sg32
VWeaponDrop
p3710
sg180
I0
sg44
(lp3711
I2758383128
asg35
VPT5M0.4564158S
p3712
sg183
I0
sg184
VP0DT0H0M0.6333S
p3713
sg39
(dp3714
g41
VTL Spartan HCS
p3715
sg43
Nssa(dp3716
g38
I424645655
sg39
(dp3717
g41
VTL Spartan HCS
p3718
sg43
Nssg44
(lp3719
I1327094800
asg32
VWeaponPickup
p3720
sg35
VPT5M0.4564158S
p3721
sa(dp3722
g240
I4096745987
sg241
I00
sg242
I00
sg243
(dp3723
g41
VE6 Cratos HCS
p3724
sg43
Nssg246
(lp3725
I2758383128
asg248
I00
sg249
I01
sg250
I1
sg251
I0
sg252
I1
sg253
(dp3726
Vy
F23.752065699999999
sVx
F8.3711000000000002
sVz
F0.22954446100000001
ssg255
(dp3727
Vy
F25.2866058
sVx
F-9.5543410000000009
sVz
F-0.24943837499999999
ssg257
I00
sg258
(dp3728
g41
VTL StelluR
p3729
sg43
Nssg262
(lp3730
sg264
(lp3731
(dp3732
g41
VE6 Shooter
p3733
sg43
Nsa(dp3734
g41
VE6 bubu dubu
p3735
sg43
Nsasg266
I00
sg35
VPT5M2.7234128S
p3736
sg32
VDeath
p3737
sg269
I1
sa(dp3738
g38
I313138863
sg32
VWeaponDrop
p3739
sg180
I7
sg44
(lp3740
I1095363701
asg35
VPT5M2.7264126S
p3741
sg183
I2
sg184
VP0DT0H0M6.5833S
p3742
sg39
(dp3743
g41
VTL StelluR
p3744
sg43
Nssa(dp3745
g38
I4096745987
sg32
VWeaponDrop
p3746
sg180
I2
sg44
(lp3747
I2758383128
asg35
VPT5M2.7264126S
p3748
sg183
I0
sg184
VP0DT0H0M3.9667S
p3749
sg39
(dp3750
g41
VTL StelluR
p3751
sg43
Nssa(dp3752
g38
I313138863
sg39
(dp3753
g41
VE6 Huke HCS
p3754
sg43
Nssg44
(lp3755
I1095363701
asg32
VWeaponPickup
p3756
sg35
VPT5M4.6904325S
p3757
sa(dp3758
g38
I4096745987
sg39
(dp3759
g41
VE6 Huke HCS
p3760
sg43
Nssg44
(lp3761
I2758383128
asg32
VWeaponPickup
p3762
sg35
VPT5M4.6904325S
p3763
sa(dp3764
g32
VPlayerSpawn
p3765
sg39
(dp3766
g41
VE6 Huke HCS
p3767
sg43
Nssg35
VPT5M4.6904325S
p3768
sa(dp3769
g240
I313138863
sg241
I00
sg242
I00
sg243
(dp3770
g41
VE6 Cratos HCS
p3771
sg43
Nssg246
(lp3772
I1095363701
asg248
I00
sg249
I01
sg250
I1
sg251
I0
sg252
I1
sg253
(dp3773
Vy
F14.5191851
sVx
F-5.9525642400000001
sVz
F2.3703465499999998
ssg255
(dp3774
Vy
F12.060745199999999
sVx
F-2.3134005100000001
sVz
F2.3820834199999998
ssg257
I00
sg258
(dp3775
g41
VTL Danoxide
p3776
sg43
Nssg262
(lp3777
sg264
(lp3778
sg266
I00
sg35
VPT5M10.6564114S
p3779
sg32
VDeath
p3780
sg269
I1
sa(dp3781
g32
VMedal
p3782
sg39
(dp3783
g41
VE6 Cratos HCS
p3784
sg43
Nssg285
I2838259753
sg35
VPT5M10.6574325S
p3785
sa(dp3786
g32
VImpulse
p3787
sg39
(dp3788
g41
VE6 Cratos HCS
p3789
sg43
Nssg317
I2556889090
sg35
VPT5M10.6574325S
p3790
sa(dp3791
g38
I313138863
sg32
VWeaponDrop
p3792
sg180
I12
sg44
(lp3793
I1095363701
asg35
VPT5M10.6584316S
p3794
sg183
I5
sg184
VP0DT0H0M4.5667S
p3795
sg39
(dp3796
g41
VTL Danoxide
p3797
sg43
Nssa(dp3798
g38
I4096745987
sg32
VWeaponDrop
p3799
sg180
I7
sg44
(lp3800
I2758383128
asg35
VPT5M10.6584316S
p3801
sg183
I2
sg184
VP0DT0H0M19.6500S
p3802
sg39
(dp3803
g41
VTL Danoxide
p3804
sg43
Nssa(dp3805
g38
I313138863
sg39
(dp3806
g41
VTL StelluR
p3807
sg43
Nssg44
(lp3808
I1095363701
asg32
VWeaponPickup
p3809
sg35
VPT5M10.7394127S
p3810
sa(dp3811
g38
I4096745987
sg39
(dp3812
g41
VTL StelluR
p3813
sg43
Nssg44
(lp3814
I2758383128
asg32
VWeaponPickup
p3815
sg35
VPT5M10.7404322S
p3816
sa(dp3817
g32
VPlayerSpawn
p3818
sg39
(dp3819
g41
VTL StelluR
p3820
sg43
Nssg35
VPT5M10.7404322S
p3821
sa(dp3822
g38
I313138863
sg32
VWeaponDrop
p3823
sg180
I0
sg44
(lp3824
I1095363701
asg35
VPT5M14.188413S
p3825
sg183
I0
sg184
VP0DT0H0M0.7500S
p3826
sg39
(dp3827
g41
VE6 Huke HCS
p3828
sg43
Nssa(dp3829
g38
I723388907
sg39
(dp3830
g41
VE6 Huke HCS
p3831
sg43
Nssg44
(lp3832
I89283061
asg32
VWeaponPickup
p3833
sg35
VPT5M14.188413S
p3834
sa(dp3835
g240
I3682788176
sg241
I00
sg242
I00
sg243
(dp3836
g41
VE6 Shooter
p3837
sg43
Nssg246
(lp3838
I2758383128
asg248
I00
sg249
I01
sg250
I1
sg251
I0
sg252
I1
sg253
(dp3839
Vy
F11.470903399999999
sVx
F-1.4686617900000001
sVz
F1.4982091200000001
ssg255
(dp3840
Vy
F12.164916
sVx
F-11.5597563
sVz
F1.5030209999999999
ssg257
I00
sg258
(dp3841
g41
VTL Spartan HCS
p3842
sg43
Nssg262
(lp3843
sg264
(lp3844
sg266
I00
sg35
VPT5M14.289412S
p3845
sg32
VDeath
p3846
sg269
I1
sa(dp3847
g38
I313138863
sg32
VWeaponDrop
p3848
sg180
I0
sg44
(lp3849
I1095363701
asg35
VPT5M14.291412S
p3850
sg183
I0
sg184
VP0DT0H0M4.9833S
p3851
sg39
(dp3852
g41
VTL Spartan HCS
p3853
sg43
Nssa(dp3854
g38
I424645655
sg32
VWeaponDrop
p3855
sg180
I0
sg44
(lp3856
I1327094800
asg35
VPT5M14.291412S
p3857
sg183
I0
sg184
VP0DT0H0M9.7500S
p3858
sg39
(dp3859
g41
VTL Spartan HCS
p3860
sg43
Nssa(dp3861
g240
I4096745987
sg241
I00
sg242
I00
sg243
(dp3862
g41
VE6 Cratos HCS
p3863
sg43
Nssg246
(lp3864
I2758383128
asg248
I00
sg249
I01
sg250
I1
sg251
I0
sg252
I1
sg253
(dp3865
Vy
F17.634904899999999
sVx
F-11.8669434
sVz
F1.1856137499999999
ssg255
(dp3866
Vy
F25.864587799999999
sVx
F-9.5211459999999999
sVz
F2.4852383100000002
ssg257
I00
sg258
(dp3867
g41
VTL Eco HCS
p3868
sg43
Nssg262
(lp3869
sg264
(lp3870
(dp3871
g41
VE6 Huke HCS
p3872
sg43
Nsasg266
I01
sg35
VPT5M14.5224123S
p3873
sg32
VDeath
p3874
sg269
I1
sa(dp3875
g32
VMedal
p3876
sg39
(dp3877
g41
VE6 Cratos HCS
p3878
sg43
Nssg285
I2838259753
sg35
VPT5M14.5234132S
p3879
sa(dp3880
g32
VImpulse
p3881
sg39
(dp3882
g41
VE6 Cratos HCS
p3883
sg43
Nssg317
I2556889090
sg35
VPT5M14.5234132S
p3884
sa(dp3885
g32
VMedal
p3886
sg39
(dp3887
g41
VE6 Cratos HCS
p3888
sg43
Nssg285
I2494364276
sg35
VPT5M14.5234132S
p3889
sa(dp3890
g32
VMedal
p3891
sg39
(dp3892
g41
VE6 Cratos HCS
p3893
sg43
Nssg285
I3261908037
sg35
VPT5M14.5244332S
p3894
sa(dp3895
g32
VMedal
p3896
sg39
(dp3897
g41
VE6 Cratos HCS
p3898
sg43
Nssg285
I2078758684
sg35
VPT5M14.5244332S
p3899
sa(dp3900
g38
I723388907
sg32
VWeaponDrop
p3901
sg180
I20
sg44
(lp3902
I89283061
asg35
VPT5M14.5244332S
p3903
sg183
I2
sg184
VP0DT0H0M20.9000S
p3904
sg39
(dp3905
g41
VTL Eco HCS
p3906
sg43
Nssa(dp3907
g38
I4096745987
sg32
VWeaponDrop
p3908
sg180
I18
sg44
(lp3909
I2758383128
asg35
VPT5M14.5244332S
p3910
sg183
I10
sg184
VP0DT0H0M23.2667S
p3911
sg39
(dp3912
g41
VTL Eco HCS
p3913
sg43
Nssa(dp3914
g38
I313138863
sg39
(dp3915
g41
VTL Danoxide
p3916
sg43
Nssg44
(lp3917
I1095363701
asg32
VWeaponPickup
p3918
sg35
VPT5M18.6744127S
p3919
sa(dp3920
g38
I4096745987
sg39
(dp3921
g41
VTL Danoxide
p3922
sg43
Nssg44
(lp3923
I2758383128
asg32
VWeaponPickup
p3924
sg35
VPT5M18.6754119S
p3925
sa(dp3926
g32
VPlayerSpawn
p3927
sg39
(dp3928
g41
VTL Danoxide
p3929
sg43
Nssg35
VPT5M18.6754119S
p3930
sa(dp3931
g32
VMedal
p3932
sg39
(dp3933
g41
VE6 bubu dubu
p3934
sg43
Nssg285
I3565443938
sg35
VPT5M21.9384128S
p3935
sa(dp3936
g32
VMedal
p3937
sg39
(dp3938
g41
VE6 Cratos HCS
p3939
sg43
Nssg285
I3565443938
sg35
VPT5M21.9384128S
p3940
sa(dp3941
g38
I313138863
sg39
(dp3942
g41
VTL Spartan HCS
p3943
sg43
Nssg44
(lp3944
I1095363701
asg32
VWeaponPickup
p3945
sg35
VPT5M22.3064117S
p3946
sa(dp3947
g38
I4096745987
sg39
(dp3948
g41
VTL Spartan HCS
p3949
sg43
Nssg44
(lp3950
I2758383128
asg32
VWeaponPickup
p3951
sg35
VPT5M22.3064117S
p3952
sa(dp3953
g32
VPlayerSpawn
p3954
sg39
(dp3955
g41
VTL Spartan HCS
p3956
sg43
Nssg35
VPT5M22.3064117S
p3957
sa(dp3958
g38
I313138863
sg39
(dp3959
g41
VTL Eco HCS
p3960
sg43
Nssg44
(lp3961
I1095363701
asg32
VWeaponPickup
p3962
sg35
VPT5M22.5394125S
p3963
sa(dp3964
g38
I4096745987
sg39
(dp3965
g41
VTL Eco HCS
p3966
sg43
Nssg44
(lp3967
I2758383128
asg32
VWeaponPickup
p3968
sg35
VPT5M22.5394125S
p3969
sa(dp3970
g32
VPlayerSpawn
p3971
sg39
(dp3972
g41
VTL Eco HCS
p3973
sg43
Nssg35
VPT5M22.540411S
p3974
sa(dp3975
g240
I3682788176
sg241
I00
sg242
I00
sg243
(dp3976
g41
VE6 Shooter
p3977
sg43
Nssg246
(lp3978
I2758383128
asg248
I00
sg249
I01
sg250
I1
sg251
I0
sg252
I1
sg253
(dp3979
Vy
F2.518691
sVx
F-6.3804054299999997
sVz
F2.681902
ssg255
(dp3980
Vy
F4.0639450000000004
sVx
F-17.794138
sVz
F1.5012302399999999
ssg257
I00
sg258
(dp3981
g41
VTL Eco HCS
p3982
sg43
Nssg262
(lp3983
sg264
(lp3984
sg266
I00
sg35
VPT5M25.5554109S
p3985
sg32
VDeath
p3986
sg269
I1
sa(dp3987
g38
I313138863
sg32
VWeaponDrop
p3988
sg180
I0
sg44
(lp3989
I1095363701
asg35
VPT5M25.5564314S
p3990
sg183
I0
sg184
VP0DT0H0M0.6833S
p3991
sg39
(dp3992
g41
VTL Eco HCS
p3993
sg43
Nssa(dp3994
g38
I4096745987
sg32
VWeaponDrop
p3995
sg180
I1
sg44
(lp3996
I2758383128
asg35
VPT5M25.5564314S
p3997
sg183
I0
sg184
VP0DT0H0M2.3333S
p3998
sg39
(dp3999
g41
VTL Eco HCS
p4000
sg43
Nssa(dp4001
g240
I313138863
sg241
I00
sg242
I00
sg243
(dp4002
g41
VE6 Cratos HCS
p4003
sg43
Nssg246
(lp4004
I1095363701
asg248
I00
sg249
I01
sg250
I1
sg251
I0
sg252
I1
sg253
(dp4005
Vy
F22.8519726
sVx
F5.0933279999999996
sVz
F1.7277716400000001
ssg255
(dp4006
Vy
F21.909587899999998
sVx
F7.9367876099999997
sVz
F0.58680564199999996
ssg257
I00
sg258
(dp4007
g41
VTL Danoxide
p4008
sg43
Nssg262
(lp4009
sg264
(lp4010
(dp4011
g41
VE6 bubu dubu
p4012
sg43
Nsasg266
I00
sg35
VPT5M26.9234134S
p4013
sg32
VDeath
p4014
sg269
I1
sa(dp4015
g38
I4096745987
sg32
VWeaponDrop
p4016
sg180
I8
sg44
(lp4017
I2758383128
asg35
VPT5M26.9244337S
p4018
sg183
I4
sg184
VP0DT0H0M7.2833S
p4019
sg39
(dp4020
g41
VTL Danoxide
p4021
sg43
Nssa(dp4022
g38
I313138863
sg32
VWeaponDrop
p4023
sg180
I0
sg44
(lp4024
I1095363701
asg35
VPT5M26.9254319S
p4025
sg183
I0
sg184
VP0DT0H0M0.9667S
p4026
sg39
(dp4027
g41
VTL Danoxide
p4028
sg43
Nssa(dp4029
g240
I313138863
sg241
I00
sg242
I00
sg243
(dp4030
g41
VTL StelluR
p4031
sg43
Nssg246
(lp4032
I1095363701
asg248
I00
sg249
I01
sg250
I1
sg251
I0
sg252
I1
sg253
(dp4033
Vy
F2.73823953
sVx
F-7.9445639999999997
sVz
F0.41037356899999999
ssg255
(dp4034
Vy
F3.2965233299999999
sVx
F-9.3102610000000006
sVz
F0.18620458200000001
ssg257
I00
sg258
(dp4035
g41
VE6 Shooter
p4036
sg43
Nssg262
(lp4037
sg264
(lp4038
(dp4039
g41
VTL Spartan HCS
p4040
sg43
Nsasg266
I00
sg35
VPT5M29.6884125S
p4041
sg32
VDeath
p4042
sg269
I1
sa(dp4043
g32
VMedal
p4044
sg39
(dp4045
g41
VTL StelluR
p4046
sg43
Nssg285
I1351381581
sg35
VPT5M29.6894126S
p4047
sa(dp4048
g38
I3682788176
sg32
VWeaponDrop
p4049
sg180
I5
sg44
(lp4050
I2758383128
asg35
VPT5M29.6904108S
p4051
sg183
I5
sg184
VP0DT0H0M55.4833S
p4052
sg39
(dp4053
g41
VE6 Shooter
p4054
sg43
Nssa(dp4055
g38
I3682788176
sg32
VWeaponDrop
p4056
sg180
I0
sg44
(lp4057
I2758383128
asg35
VPT5M29.6904108S
p4058
sg183
I0
sg184
VP0DT0S
p4059
sg39
(dp4060
g41
VE6 Shooter
p4061
sg43
Nssa(dp4062
g38
I4096745987
sg32
VWeaponDrop
p4063
sg180
I4
sg44
(lp4064
I2758383128
asg35
VPT5M29.6904108S
p4065
sg183
I1
sg184
VP0DT0H0M22.3667S
p4066
sg39
(dp4067
g41
VE6 Shooter
p4068
sg43
Nssa(dp4069
g240
I723388907
sg241
I00
sg242
I00
sg243
(dp4070
g41
VE6 Huke HCS
p4071
sg43
Nssg246
(lp4072
I89283061
asg248
I00
sg249
I01
sg250
I1
sg251
I0
sg252
I1
sg253
(dp4073
Vy
F2.9942452899999998
sVx
F-13.43824
sVz
F-0.077625393900000006
ssg255
(dp4074
Vy
F3.3392539999999999
sVx
F-10.423864399999999
sVz
F-0.89676195400000003
ssg257
I00
sg258
(dp4075
g41
VTL Spartan HCS
p4076
sg43
Nssg262
(lp4077
sg264
(lp4078
sg266
I00
sg35
VPT5M29.9074107S
p4079
sg32
VDeath
p4080
sg269
I1
sa(dp4081
g38
I313138863
sg32
VWeaponDrop
p4082
sg180
I12
sg44
(lp4083
I1095363701
asg35
VPT5M29.9104131S
p4084
sg183
I11
sg184
VP0DT0H0M5.0000S
p4085
sg39
(dp4086
g41
VTL Spartan HCS
p4087
sg43
Nssa(dp4088
g38
I4096745987
sg32
VWeaponDrop
p4089
sg180
I0
sg44
(lp4090
I2758383128
asg35
VPT5M29.9104131S
p4091
sg183
I0
sg184
VP0DT0H0M2.6000S
p4092
sg39
(dp4093
g41
VTL Spartan HCS
p4094
sg43
Nssa(dp4095
g240
I4096745987
sg241
I00
sg242
I00
sg243
(dp4096
g41
VE6 Cratos HCS
p4097
sg43
Nssg246
(lp4098
I2758383128
asg248
I00
sg249
I01
sg250
I1
sg251
I0
sg252
I1
sg253
(dp4099
Vy
F17.3449688
sVx
F6.5406469999999999
sVz
F0.30411636800000003
ssg255
(dp4100
Vy
F2.2782216100000001
sVx
F-15.0884266
sVz
F-0.89674690000000001
ssg257
I00
sg258
(dp4101
g41
VTL StelluR
p4102
sg43
Nssg262
(lp4103
sg264
(lp4104
(dp4105
g41
VE6 bubu dubu
p4106
sg43
Nsa(dp4107
g41
VE6 Huke HCS
p4108
sg43
Nsasg266
I00
sg35
VPT5M33.3884121S
p4109
sg32
VDeath
p4110
sg269
I1
sa(dp4111
g32
VMedal
p4112
sg39
(dp4113
g41
VE6 Cratos HCS
p4114
sg43
Nssg285
I352859864
sg35
VPT5M33.3884121S
p4115
sa(dp4116
g32
VMedal
p4117
sg39
(dp4118
g41
VE6 Cratos HCS
p4119
sg43
Nssg285
I3972445431
sg35
VPT5M33.3884121S
p4120
sa(dp4121
g32
VImpulse
p4122
sg39
(dp4123
g41
VE6 Cratos HCS
p4124
sg43
Nssg317
I2556889090
sg35
VPT5M33.3884121S
p4125
sa(dp4126
g32
VMedal
p4127
sg39
(dp4128
g41
VE6 Cratos HCS
p4129
sg43
Nssg285
I2430242797
sg35
VPT5M33.3894135S
p4130
sa(dp4131
g38
I313138863
sg32
VWeaponDrop
p4132
sg180
I27
sg44
(lp4133
I1095363701
asg35
VPT5M33.3904121S
p4134
sg183
I5
sg184
VP0DT0H0M7.7000S
p4135
sg39
(dp4136
g41
VTL StelluR
p4137
sg43
Nssa(dp4138
g38
I4096745987
sg32
VWeaponDrop
p4139
sg180
I2
sg44
(lp4140
I2758383128
asg35
VPT5M33.3904121S
p4141
sg183
I1
sg184
VP0DT0H0M14.9500S
p4142
sg39
(dp4143
g41
VTL StelluR
p4144
sg43
Nssa(dp4145
g38
I313138863
sg39
(dp4146
g41
VTL Eco HCS
p4147
sg43
Nssg44
(lp4148
I1095363701
asg32
VWeaponPickup
p4149
sg35
VPT5M33.5724142S
p4150
sa(dp4151
g38
I4096745987
sg39
(dp4152
g41
VTL Eco HCS
p4153
sg43
Nssg44
(lp4154
I2758383128
asg32
VWeaponPickup
p4155
sg35
VPT5M33.5724142S
p4156
sa(dp4157
g32
VPlayerSpawn
p4158
sg39
(dp4159
g41
VTL Eco HCS
p4160
sg43
Nssg35
VPT5M33.5724142S
p4161
sa(dp4162
g32
VMedal
p4163
sg39
(dp4164
g41
VE6 Huke HCS
p4165
sg43
Nssg285
I3565443938
sg35
VPT5M34.254412S
p4166
sa(dp4167
g32
VMedal
p4168
sg39
(dp4169
g41
VE6 bubu dubu
p4170
sg43
Nssg285
I3565443938
sg35
VPT5M34.254412S
p4171
sa(dp4172
g32
VMedal
p4173
sg39
(dp4174
g41
VE6 Shooter
p4175
sg43
Nssg285
I2105198095
sg35
VPT5M34.254412S
p4176
sa(dp4177
g32
VMedal
p4178
sg39
(dp4179
g41
VE6 Cratos HCS
p4180
sg43
Nssg285
I2105198095
sg35
VPT5M34.254412S
p4181
sa(dp4182
g32
VMedal
p4183
sg39
(dp4184
g41
VE6 Huke HCS
p4185
sg43
Nssg285
I2105198095
sg35
VPT5M34.254412S
p4186
sa(dp4187
g32
VMedal
p4188
sg39
(dp4189
g41
VE6 bubu dubu
p4190
sg43
Nssg285
I2105198095
sg35
VPT5M34.254412S
p4191
sa(dp4192
g32
VMedal
p4193
sg39
(dp4194
g41
VE6 bubu dubu
p4195
sg43
Nssg285
I3354395650
sg35
VPT5M34.255432S
p4196
sa(dp4197
g240
I4106030681
sg241
I00
sg242
I00
sg243
(dp4198
g41
VTL StelluR
p4199
sg43
Nssg246
(lp4200
sg248
I00
sg249
I01
sg250
I1
sg251
I0
sg252
I1
sg253
(dp4201
Vy
F3.5037517500000002
sVx
F-16.097971000000001
sVz
F-0.78409150000000005
ssg255
(dp4202
Vy
F4.2200245900000004
sVx
F-10.647398000000001
sVz
F-0.049923956399999997
ssg257
I00
sg258
(dp4203
g41
VE6 Huke HCS
p4204
sg43
Nssg262
(lp4205
sg264
(lp4206
sg266
I00
sg35
VPT5M34.4554126S
p4207
sg32
VDeath
p4208
sg269
I1
sa(dp4209
g32
VMedal
p4210
sg39
(dp4211
g41
VTL StelluR
p4212
sg43
Nssg285
I285057226
sg35
VPT5M34.4564325S
p4213
sa(dp4214
g38
I723388907
sg32
VWeaponDrop
p4215
sg180
I57
sg44
(lp4216
I89283061
asg35
VPT5M34.4574329S
p4217
sg183
I16
sg184
VP0DT0H0M16.1667S
p4218
sg39
(dp4219
g41
VE6 Huke HCS
p4220
sg43
Nssa(dp4221
g38
I4096745987
sg32
VWeaponDrop
p4222
sg180
I8
sg44
(lp4223
I2758383128
asg35
VPT5M34.4584331S
p4224
sg183
I7
sg184
VP0DT0H0M12.8500S
p4225
sg39
(dp4226
g41
VE6 Huke HCS
p4227
sg43
Nssa(dp4228
g38
I313138863
sg39
(dp4229
g41
VTL Danoxide
p4230
sg43
Nssg44
(lp4231
I1095363701
asg32
VWeaponPickup
p4232
sg35
VPT5M34.9384117S
p4233
sa(dp4234
g38
I4096745987
sg39
(dp4235
g41
VTL Danoxide
p4236
sg43
Nssg44
(lp4237
I2758383128
asg32
VWeaponPickup
p4238
sg35
VPT5M34.9394105S
p4239
sa(dp4240
g32
VPlayerSpawn
p4241
sg39
(dp4242
g41
VTL Danoxide
p4243
sg43
Nssg35
VPT5M34.9394105S
p4244
sa(dp4245
g38
I313138863
sg32
VWeaponDrop
p4246
sg180
I34
sg44
(lp4247
I1095363701
asg35
VPT5M35.6704331S
p4248
sg183
I24
sg184
VP0DT0H0M11.0667S
p4249
sg39
(dp4250
g41
VE6 Cratos HCS
p4251
sg43
Nssa(dp4252
g38
I3808094875
sg39
(dp4253
g41
VE6 Cratos HCS
p4254
sg43
Nssg44
(lp4255
I2758383128
asg32
VWeaponPickup
p4256
sg35
VPT5M35.6704331S
p4257
sa(dp4258
g38
I4096745987
sg32
VWeaponDrop
p4259
sg180
I36
sg44
(lp4260
I2758383128
asg35
VPT5M36.0204339S
p4261
sg183
I18
sg184
VP0DT0H1M9.5500S
p4262
sg39
(dp4263
g41
VE6 bubu dubu
p4264
sg43
Nssa(dp4265
g38
I4096745987
sg32
VWeaponDrop
p4266
sg180
I0
sg44
(lp4267
I2758383128
asg35
VPT5M36.0204339S
p4268
sg183
I0
sg184
VP0DT0S
p4269
sg39
(dp4270
g41
VE6 bubu dubu
p4271
sg43
Nssa(dp4272
g38
I424645655
sg39
(dp4273
g41
VE6 bubu dubu
p4274
sg43
Nssg44
(lp4275
I1327094800
asg32
VWeaponPickup
p4276
sg35
VPT5M36.0204339S
p4277
sa(dp4278
g38
I313138863
sg39
(dp4279
g41
VE6 Shooter
p4280
sg43
Nssg44
(lp4281
I1095363701
asg32
VWeaponPickup
p4282
sg35
VPT5M37.7054343S
p4283
sa(dp4284
g38
I4096745987
sg39
(dp4285
g41
VE6 Shooter
p4286
sg43
Nssg44
(lp4287
I2758383128
asg32
VWeaponPickup
p4288
sg35
VPT5M37.7054343S
p4289
sa(dp4290
g32
VPlayerSpawn
p4291
sg39
(dp4292
g41
VE6 Shooter
p4293
sg43
Nssg35
VPT5M37.7054343S
p4294
sa(dp4295
g38
I313138863
sg39
(dp4296
g41
VTL Spartan HCS
p4297
sg43
Nssg44
(lp4298
I1095363701
asg32
VWeaponPickup
p4299
sg35
VPT5M37.9254338S
p4300
sa(dp4301
g38
I4096745987
sg39
(dp4302
g41
VTL Spartan HCS
p4303
sg43
Nssg44
(lp4304
I2758383128
asg32
VWeaponPickup
p4305
sg35
VPT5M37.9254338S
p4306
sa(dp4307
g32
VPlayerSpawn
p4308
sg39
(dp4309
g41
VTL Spartan HCS
p4310
sg43
Nssg35
VPT5M37.9254338S
p4311
sa(dp4312
g240
I4096745987
sg241
I00
sg242
I00
sg243
(dp4313
g41
VE6 Cratos HCS
p4314
sg43
Nssg246
(lp4315
I2758383128
asg248
I00
sg249
I01
sg250
I1
sg251
I0
sg252
I1
sg253
(dp4316
Vy
F9.1461520000000007
sVx
F6.4448146800000004
sVz
F-0.058422059999999998
ssg255
(dp4317
Vy
F2.93830013
sVx
F6.456321
sVz
F1.1558768699999999
ssg257
I00
sg258
(dp4318
g41
VTL Danoxide
p4319
sg43
Nssg262
(lp4320
sg264
(lp4321
sg266
I01
sg35
VPT5M38.0227268S
p4322
sg32
VDeath
p4323
sg269
I1
sa(dp4324
g32
VImpulse
p4325
sg39
(dp4326
g41
VE6 Cratos HCS
p4327
sg43
Nssg317
I3174430457
sg35
VPT5M38.0264137S
p4328
sa(dp4329
g32
VMedal
p4330
sg39
(dp4331
g41
VE6 Cratos HCS
p4332
sg43
Nssg285
I3653057799
sg35
VPT5M38.0274155S
p4333
sa(dp4334
g32
VMedal
p4335
sg39
(dp4336
g41
VE6 Cratos HCS
p4337
sg43
Nssg285
I2078758684
sg35
VPT5M38.0274155S
p4338
sa(dp4339
g38
I313138863
sg32
VWeaponDrop
p4340
sg180
I0
sg44
(lp4341
I1095363701
asg35
VPT5M38.0284341S
p4342
sg183
I0
sg184
VP0DT0H0M0.6000S
p4343
sg39
(dp4344
g41
VTL Danoxide
p4345
sg43
Nssa(dp4346
g38
I4096745987
sg32
VWeaponDrop
p4347
sg180
I5
sg44
(lp4348
I2758383128
asg35
VPT5M38.0284341S
p4349
sg183
I3
sg184
VP0DT0H0M2.4833S
p4350
sg39
(dp4351
g41
VTL Danoxide
p4352
sg43
Nssa(dp4353
g38
I313138863
sg32
VWeaponDrop
p4354
sg180
I40
sg44
(lp4355
I1095363701
asg35
VPT5M38.122432S
p4356
sg183
I22
sg184
VP0DT0H0M29.2500S
p4357
sg39
(dp4358
g41
VE6 bubu dubu
p4359
sg43
Nssa(dp4360
g38
I3682788176
sg39
(dp4361
g41
VE6 bubu dubu
p4362
sg43
Nssg44
(lp4363
I2758383128
asg32
VWeaponPickup
p4364
sg35
VPT5M38.1234338S
p4365
sa(dp4366
g240
I4096745987
sg241
I00
sg242
I00
sg243
(dp4367
g41
VE6 Cratos HCS
p4368
sg43
Nssg246
(lp4369
I2758383128
asg248
I00
sg249
I00
sg250
I2
sg251
I0
sg252
I0
sg253
(dp4370
Vy
F3.5583550000000002
sVx
F6.3837469999999996
sVz
F-0.0034702420000000001
ssg255
(dp4371
Vy
F0.099739579999999994
sVx
F8.0057419999999997
sVz
F0.7130978
ssg257
I00
sg258
(dp4372
g260
g261
ssg262
(lp4373
sg264
(lp4374
sg266
I00
sg35
VPT5M40.9044131S
p4375
sg32
VDeath
p4376
sg269
I1
sa(dp4377
g240
I47178948
sg241
I00
sg242
I00
sg243
(dp4378
g41
VE6 Cratos HCS
p4379
sg43
Nssg246
(lp4380
sg248
I00
sg249
I00
sg250
I2
sg251
I0
sg252
I0
sg253
(dp4381
Vy
F3.5583550000000002
sVx
F6.3837469999999996
sVz
F-0.0034702420000000001
ssg255
(dp4382
Vy
F0.10923453399999999
sVx
F8.0052830000000004
sVz
F0.30517453
ssg257
I00
sg258
(dp4383
g260
g261
ssg262
(lp4384
sg264
(lp4385
sg266
I00
sg35
VPT5M40.9044131S
p4386
sg32
VDeath
p4387
sg269
I1
sa(dp4388
g240
I4096745987
sg241
I00
sg242
I00
sg243
(dp4389
g41
VTL Spartan HCS
p4390
sg43
Nssg246
(lp4391
I2758383128
asg248
I00
sg249
I01
sg250
I1
sg251
I0
sg252
I1
sg253
(dp4392
Vy
F17.324008899999999
sVx
F3.4566129999999999
sVz
F-0.18391070000000001
ssg255
(dp4393
Vy
F3.1168429999999998
sVx
F6.1982574499999998
sVz
F0.177352011
ssg257
I00
sg258
(dp4394
g41
VE6 Cratos HCS
p4395
sg43
Nssg262
(lp4396
sg264
(lp4397
(dp4398
g41
VTL Danoxide
p4399
sg43
Nsasg266
I01
sg35
VPT5M41.1214153S
p4400
sg32
VDeath
p4401
sg269
I1
sa(dp4402
g32
VMedal
p4403
sg39
(dp4404
g41
VTL Spartan HCS
p4405
sg43
Nssg285
I3261908037
sg35
VPT5M41.1234369S
p4406
sa(dp4407
g38
I4096745987
sg32
VWeaponDrop
p4408
sg180
I23
sg44
(lp4409
I2758383128
asg35
VPT5M41.1234369S
p4410
sg183
I16
sg184
VP0DT0H0M31.3500S
p4411
sg39
(dp4412
g41
VE6 Cratos HCS
p4413
sg43
Nssa(dp4414
g38
I4096745987
sg32
VWeaponDrop
p4415
sg180
I0
sg44
(lp4416
I2758383128
asg35
VPT5M41.1234369S
p4417
sg183
I0
sg184
VP0DT0S
p4418
sg39
(dp4419
g41
VE6 Cratos HCS
p4420
sg43
Nssa(dp4421
g38
I3808094875
sg32
VWeaponDrop
p4422
sg180
I0
sg44
(lp4423
I2758383128
asg35
VPT5M41.1244371S
p4424
sg183
I0
sg184
VP0DT0H0M0.6833S
p4425
sg39
(dp4426
g41
VE6 Cratos HCS
p4427
sg43
Nssa(dp4428
g38
I313138863
sg39
(dp4429
g41
VTL StelluR
p4430
sg43
Nssg44
(lp4431
I1095363701
asg32
VWeaponPickup
p4432
sg35
VPT5M41.4054117S
p4433
sa(dp4434
g38
I4096745987
sg39
(dp4435
g41
VTL StelluR
p4436
sg43
Nssg44
(lp4437
I2758383128
asg32
VWeaponPickup
p4438
sg35
VPT5M41.4064112S
p4439
sa(dp4440
g32
VPlayerSpawn
p4441
sg39
(dp4442
g41
VTL StelluR
p4443
sg43
Nssg35
VPT5M41.4064112S
p4444
sa(dp4445
g38
I313138863
sg39
(dp4446
g41
VE6 Huke HCS
p4447
sg43
Nssg44
(lp4448
I1095363701
asg32
VWeaponPickup
p4449
sg35
VPT5M42.4714131S
p4450
sa(dp4451
g38
I4096745987
sg39
(dp4452
g41
VE6 Huke HCS
p4453
sg43
Nssg44
(lp4454
I2758383128
asg32
VWeaponPickup
p4455
sg35
VPT5M42.4724322S
p4456
sa(dp4457
g32
VPlayerSpawn
p4458
sg39
(dp4459
g41
VE6 Huke HCS
p4460
sg43
Nssg35
VPT5M42.4724322S
p4461
sa(dp4462
g240
I3682788176
sg241
I00
sg242
I00
sg243
(dp4463
g41
VE6 bubu dubu
p4464
sg43
Nssg246
(lp4465
I2758383128
asg248
I00
sg249
I01
sg250
I1
sg251
I0
sg252
I1
sg253
(dp4466
Vy
F-0.45947724600000001
sVx
F0.117356613
sVz
F1.4219536800000001
ssg255
(dp4467
Vy
F1.02884245
sVx
F-0.645629644
sVz
F0.30554962200000002
ssg257
I00
sg258
(dp4468
g41
VTL Eco HCS
p4469
sg43
Nssg262
(lp4470
sg264
(lp4471
sg266
I00
sg35
VPT5M42.6054132S
p4472
sg32
VDeath
p4473
sg269
I1
sa(dp4474
g38
I313138863
sg32
VWeaponDrop
p4475
sg180
I11
sg44
(lp4476
I1095363701
asg35
VPT5M42.6064319S
p4477
sg183
I9
sg184
VP0DT0H0M7.5167S
p4478
sg39
(dp4479
g41
VTL Eco HCS
p4480
sg43
Nssa(dp4481
g38
I4096745987
sg32
VWeaponDrop
p4482
sg180
I0
sg44
(lp4483
I2758383128
asg35
VPT5M42.6064319S
p4484
sg183
I0
sg184
VP0DT0H0M1.5167S
p4485
sg39
(dp4486
g41
VTL Eco HCS
p4487
sg43
Nssa(dp4488
g38
I313138863
sg39
(dp4489
g41
VTL Danoxide
p4490
sg43
Nssg44
(lp4491
I1095363701
asg32
VWeaponPickup
p4492
sg35
VPT5M46.0384133S
p4493
sa(dp4494
g38
I4096745987
sg39
(dp4495
g41
VTL Danoxide
p4496
sg43
Nssg44
(lp4497
I2758383128
asg32
VWeaponPickup
p4498
sg35
VPT5M46.0384133S
p4499
sa(dp4500
g32
VPlayerSpawn
p4501
sg39
(dp4502
g41
VTL Danoxide
p4503
sg43
Nssg35
VPT5M46.0384133S
p4504
sa(dp4505
g38
I3682788176
sg32
VWeaponDrop
p4506
sg180
I1
sg44
(lp4507
I2758383128
asg35
VPT5M47.7374328S
p4508
sg183
I1
sg184
VP0DT0H0M5.3000S
p4509
sg39
(dp4510
g41
VE6 bubu dubu
p4511
sg43
Nssa(dp4512
g38
I3682788176
sg32
VWeaponDrop
p4513
sg180
I0
sg44
(lp4514
I2758383128
asg35
VPT5M47.7374328S
p4515
sg183
I0
sg184
VP0DT0S
p4516
sg39
(dp4517
g41
VE6 bubu dubu
p4518
sg43
Nssa(dp4519
g38
I313138863
sg39
(dp4520
g41
VE6 bubu dubu
p4521
sg43
Nssg44
(lp4522
I1095363701
asg32
VWeaponPickup
p4523
sg35
VPT5M47.7374328S
p4524
sa(dp4525
g38
I313138863
sg39
(dp4526
g41
VE6 Cratos HCS
p4527
sg43
Nssg44
(lp4528
I1095363701
asg32
VWeaponPickup
p4529
sg35
VPT5M49.1384136S
p4530
sa(dp4531
g38
I4096745987
sg39
(dp4532
g41
VE6 Cratos HCS
p4533
sg43
Nssg44
(lp4534
I2758383128
asg32
VWeaponPickup
p4535
sg35
VPT5M49.1384136S
p4536
sa(dp4537
g32
VPlayerSpawn
p4538
sg39
(dp4539
g41
VE6 Cratos HCS
p4540
sg43
Nssg35
VPT5M49.1384136S
p4541
sa(dp4542
g38
I4096745987
sg32
VWeaponDrop
p4543
sg180
I0
sg44
(lp4544
I2758383128
asg35
VPT5M49.4364131S
p4545
sg183
I0
sg184
VP0DT0H0M5.0167S
p4546
sg39
(dp4547
g41
VE6 Huke HCS
p4548
sg43
Nssa(dp4549
g38
I424645655
sg39
(dp4550
g41
VE6 Huke HCS
p4551
sg43
Nssg44
(lp4552
I1327094800
asg32
VWeaponPickup
p4553
sg35
VPT5M49.437413S
p4554
sa(dp4555
g38
I313138863
sg39
(dp4556
g41
VTL Eco HCS
p4557
sg43
Nssg44
(lp4558
I1095363701
asg32
VWeaponPickup
p4559
sg35
VPT5M50.6214129S
p4560
sa(dp4561
g38
I4096745987
sg39
(dp4562
g41
VTL Eco HCS
p4563
sg43
Nssg44
(lp4564
I2758383128
asg32
VWeaponPickup
p4565
sg35
VPT5M50.6224138S
p4566
sa(dp4567
g32
VPlayerSpawn
p4568
sg39
(dp4569
g41
VTL Eco HCS
p4570
sg43
Nssg35
VPT5M50.6224138S
p4571
sa(dp4572
g240
I4096745987
sg241
I00
sg242
I00
sg243
(dp4573
g41
VTL Spartan HCS
p4574
sg43
Nssg246
(lp4575
I2758383128
asg248
I00
sg249
I01
sg250
I1
sg251
I0
sg252
I1
sg253
(dp4576
Vy
F14.4119329
sVx
F0.383818716
sVz
F0.0047458409999999998
ssg255
(dp4577
Vy
F20.751234100000001
sVx
F5.208297
sVz
F0.19941082600000001
ssg257
I00
sg258
(dp4578
g41
VE6 Shooter
p4579
sg43
Nssg262
(lp4580
sg264
(lp4581
(dp4582
g41
VTL StelluR
p4583
sg43
Nsasg266
I01
sg35
VPT5M50.8554131S
p4584
sg32
VDeath
p4585
sg269
I1
sa(dp4586
g32
VMedal
p4587
sg39
(dp4588
g41
VTL Spartan HCS
p4589
sg43
Nssg285
I3261908037
sg35
VPT5M50.856411S
p4590
sa(dp4591
g38
I313138863
sg32
VWeaponDrop
p4592
sg180
I0
sg44
(lp4593
I1095363701
asg35
VPT5M50.856411S
p4594
sg183
I0
sg184
VP0DT0H0M1.3000S
p4595
sg39
(dp4596
g41
VE6 Shooter
p4597
sg43
Nssa(dp4598
g38
I4096745987
sg32
VWeaponDrop
p4599
sg180
I13
sg44
(lp4600
I2758383128
asg35
VPT5M50.856411S
p4601
sg183
I7
sg184
VP0DT0H0M11.8500S
p4602
sg39
(dp4603
g41
VE6 Shooter
p4604
sg43
Nssa(dp4605
g38
I313138863
sg32
VWeaponDrop
p4606
sg180
I0
sg44
(lp4607
I1095363701
asg35
VPT5M50.9864146S
p4608
sg183
I0
sg184
VP0DT0H0M2.4333S
p4609
sg39
(dp4610
g41
VE6 bubu dubu
p4611
sg43
Nssa(dp4612
g38
I3808094875
sg39
(dp4613
g41
VE6 bubu dubu
p4614
sg43
Nssg44
(lp4615
I2758383128
asg32
VWeaponPickup
p4616
sg35
VPT5M50.9874138S
p4617
sa(dp4618
g38
I313138863
sg32
VWeaponDrop
p4619
sg180
I0
sg44
(lp4620
I1095363701
asg35
VPT5M52.5534239S
p4621
sg183
I0
sg184
VP0DT0H0M0.9333S
p4622
sg39
(dp4623
g41
VE6 Cratos HCS
p4624
sg43
Nssa(dp4625
g38
I723388907
sg39
(dp4626
g41
VE6 Cratos HCS
p4627
sg43
Nssg44
(lp4628
I89283061
asg32
VWeaponPickup
p4629
sg35
VPT5M52.5534239S
p4630
sa(dp4631
g240
I4096745987
sg241
I00
sg242
I00
sg243
(dp4632
g41
VTL Eco HCS
p4633
sg43
Nssg246
(lp4634
I2758383128
asg248
I00
sg249
I01
sg250
I1
sg251
I0
sg252
I1
sg253
(dp4635
Vy
F24.45608
sVx
F-9.9318019999999994
sVz
F1.5033741
ssg255
(dp4636
Vy
F15.014613199999999
sVx
F-3.0815413
sVz
F1.4995212600000001
ssg257
I00
sg258
(dp4637
g41
VE6 Huke HCS
p4638
sg43
Nssg262
(lp4639
sg264
(lp4640
sg266
I01
sg35
VPT5M56.1044113S
p4641
sg32
VDeath
p4642
sg269
I1
sa(dp4643
g32
VMedal
p4644
sg39
(dp4645
g41
VTL Eco HCS
p4646
sg43
Nssg285
I3261908037
sg35
VPT5M56.1094106S
p4647
sa(dp4648
g38
I313138863
sg32
VWeaponDrop
p4649
sg180
I0
sg44
(lp4650
I1095363701
asg35
VPT5M56.1104118S
p4651
sg183
I0
sg184
VP0DT0H0M1.9500S
p4652
sg39
(dp4653
g41
VE6 Huke HCS
p4654
sg43
Nssa(dp4655
g38
I424645655
sg32
VWeaponDrop
p4656
sg180
I6
sg44
(lp4657
I1327094800
asg35
VPT5M56.1104118S
p4658
sg183
I3
sg184
VP0DT0H0M6.6667S
p4659
sg39
(dp4660
g41
VE6 Huke HCS
p4661
sg43
Nssa(dp4662
g38
I313138863
sg32
VWeaponDrop
p4663
sg180
I0
sg44
(lp4664
I1095363701
asg35
VPT5M58.6194109S
p4665
sg183
I0
sg184
VP0DT0H0M0.7500S
p4666
sg39
(dp4667
g41
VTL Eco HCS
p4668
sg43
Nssa(dp4669
g38
I723388907
sg39
(dp4670
g41
VTL Eco HCS
p4671
sg43
Nssg44
(lp4672
I89283061
asg32
VWeaponPickup
p4673
sg35
VPT5M58.6194109S
p4674
sa(dp4675
g240
I4096745987
sg241
I00
sg242
I00
sg243
(dp4676
g41
VE6 Cratos HCS
p4677
sg43
Nssg246
(lp4678
I2758383128
asg248
I00
sg249
I01
sg250
I1
sg251
I0
sg252
I1
sg253
(dp4679
Vy
F12.673416100000001
sVx
F-0.62987950000000004
sVz
F-0.86890520000000004
ssg255
(dp4680
Vy
F6.7452006300000003
sVx
F8.7007809999999992
sVz
F-0.62146959999999996
ssg257
I00
sg258
(dp4681
g41
VTL Danoxide
p4682
sg43
Nssg262
(lp4683
sg264
(lp4684
(dp4685
g41
VE6 bubu dubu
p4686
sg43
Nsasg266
I01
sg35
VPT5M58.7044112S
p4687
sg32
VDeath
p4688
sg269
I1
sa(dp4689
g32
VMedal
p4690
sg39
(dp4691
g41
VE6 bubu dubu
p4692
sg43
Nssg285
I3744028405
sg35
VPT5M58.7044112S
p4693
sa(dp4694
g32
VMedal
p4695
sg39
(dp4696
g41
VE6 Cratos HCS
p4697
sg43
Nssg285
I1351381581
sg35
VPT5M58.7054318S
p4698
sa(dp4699
g32
VMedal
p4700
sg39
(dp4701
g41
VE6 Cratos HCS
p4702
sg43
Nssg285
I3261908037
sg35
VPT5M58.7054318S
p4703
sa(dp4704
g38
I313138863
sg32
VWeaponDrop
p4705
sg180
I0
sg44
(lp4706
I1095363701
asg35
VPT5M58.7064333S
p4707
sg183
I0
sg184
VP0DT0H0M0.4667S
p4708
sg39
(dp4709
g41
VTL Danoxide
p4710
sg43
Nssa(dp4711
g38
I4096745987
sg32
VWeaponDrop
p4712
sg180
I7
sg44
(lp4713
I2758383128
asg35
VPT5M58.7064333S
p4714
sg183
I1
sg184
VP0DT0H0M12.2000S
p4715
sg39
(dp4716
g41
VTL Danoxide
p4717
sg43
Nssa(dp4718
g38
I313138863
sg39
(dp4719
g41
VE6 Shooter
p4720
sg43
Nssg44
(lp4721
I1095363701
asg32
VWeaponPickup
p4722
sg35
VPT5M58.8714375S
p4723
sa(dp4724
g38
I4096745987
sg39
(dp4725
g41
VE6 Shooter
p4726
sg43
Nssg44
(lp4727
I2758383128
asg32
VWeaponPickup
p4728
sg35
VPT5M58.8724369S
p4729
sa(dp4730
g32
VPlayerSpawn
p4731
sg39
(dp4732
g41
VE6 Shooter
p4733
sg43
Nssg35
VPT5M58.8724369S
p4734
sa(dp4735
g240
I4096745987
sg241
I00
sg242
I00
sg243
(dp4736
g41
VTL Spartan HCS
p4737
sg43
Nssg246
(lp4738
I2758383128
asg248
I00
sg249
I01
sg250
I1
sg251
I0
sg252
I1
sg253
(dp4739
Vy
F6.5516905799999998
sVx
F6.0345319999999996
sVz
F-0.124325112
ssg255
(dp4740
Vy
F10.104623800000001
sVx
F2.1650707699999998
sVz
F-0.89673006499999997
ssg257
I00
sg258
(dp4741
g41
VE6 Cratos HCS
p4742
sg43
Nssg262
(lp4743
sg264
(lp4744
(dp4745
g41
VTL Danoxide
p4746
sg43
Nsasg266
I01
sg35
VPT6M1.387413S
p4747
sg32
VDeath
p4748
sg269
I1
sa(dp4749
g32
VMedal
p4750
sg39
(dp4751
g41
VTL Spartan HCS
p4752
sg43
Nssg285
I3261908037
sg35
VPT6M1.3884594S
p4753
sa(dp4754
g38
I723388907
sg32
VWeaponDrop
p4755
sg180
I0
sg44
(lp4756
I89283061
asg35
VPT6M1.3894319S
p4757
sg183
I0
sg184
VP0DT0H0M0.5000S
p4758
sg39
(dp4759
g41
VE6 Cratos HCS
p4760
sg43
Nssa(dp4761
g38
I4096745987
sg32
VWeaponDrop
p4762
sg180
I11
sg44
(lp4763
I2758383128
asg35
VPT6M1.3894319S
p4764
sg183
I9
sg184
VP0DT0H0M10.8167S
p4765
sg39
(dp4766
g41
VE6 Cratos HCS
p4767
sg43
Nssa(dp4768
g240
I3808094875
sg241
I00
sg242
I01
sg243
(dp4769
g41
VE6 bubu dubu
p4770
sg43
Nssg246
(lp4771
I2758383128
asg248
I00
sg249
I00
sg250
I1
sg251
I0
sg252
I1
sg253
(dp4772
Vy
F6.5364036600000004
sVx
F7.2600846299999997
sVz
F-0.90481853499999998
ssg255
(dp4773
Vy
F6.2689959999999996
sVx
F7.0383305500000004
sVz
F-0.89673230000000004
ssg257
I00
sg258
(dp4774
g41
VTL Spartan HCS
p4775
sg43
Nssg262
(lp4776
sg264
(lp4777
(dp4778
g41
VE6 Cratos HCS
p4779
sg43
Nsasg266
I00
sg35
VPT6M2.3044115S
p4780
sg32
VDeath
p4781
sg269
I1
sa(dp4782
g32
VMedal
p4783
sg39
(dp4784
g41
VE6 bubu dubu
p4785
sg43
Nssg285
I1351381581
sg35
VPT6M2.3054363S
p4786
sa(dp4787
g32
VMedal
p4788
sg39
(dp4789
g41
VE6 bubu dubu
p4790
sg43
Nssg285
I2287626681
sg35
VPT6M2.3054363S
p4791
sa(dp4792
g32
VMedal
p4793
sg39
(dp4794
g41
VE6 bubu dubu
p4795
sg43
Nssg285
I2916014239
sg35
VPT6M2.3054363S
p4796
sa(dp4797
g38
I4096745987
sg32
VWeaponDrop
p4798
sg180
I11
sg44
(lp4799
I2758383128
asg35
VPT6M2.3064353S
p4800
sg183
I9
sg184
VP0DT0H0M16.5833S
p4801
sg39
(dp4802
g41
VTL Spartan HCS
p4803
sg43
Nssa(dp4804
g38
I313138863
sg32
VWeaponDrop
p4805
sg180
I0
sg44
(lp4806
I1095363701
asg35
VPT6M2.3074414S
p4807
sg183
I0
sg184
VP0DT0H0M7.8000S
p4808
sg39
(dp4809
g41
VTL Spartan HCS
p4810
sg43
Nssa(dp4811
g32
VMedal
p4812
sg39
(dp4813
g41
VTL Eco HCS
p4814
sg43
Nssg285
I3565443938
sg35
VPT6M3.1204143S
p4815
sa(dp4816
g32
VMedal
p4817
sg39
(dp4818
g41
VTL StelluR
p4819
sg43
Nssg285
I3565443938
sg35
VPT6M3.1204143S
p4820
sa(dp4821
g38
I313138863
sg39
(dp4822
g41
VE6 Huke HCS
p4823
sg43
Nssg44
(lp4824
I1095363701
asg32
VWeaponPickup
p4825
sg35
VPT6M4.1214142S
p4826
sa(dp4827
g38
I4096745987
sg39
(dp4828
g41
VE6 Huke HCS
p4829
sg43
Nssg44
(lp4830
I2758383128
asg32
VWeaponPickup
p4831
sg35
VPT6M4.1214142S
p4832
sa(dp4833
g32
VPlayerSpawn
p4834
sg39
(dp4835
g41
VE6 Huke HCS
p4836
sg43
Nssg35
VPT6M4.1214142S
p4837
sa(dp4838
g38
I313138863
sg39
(dp4839
g41
VTL Danoxide
p4840
sg43
Nssg44
(lp4841
I1095363701
asg32
VWeaponPickup
p4842
sg35
VPT6M6.7214315S
p4843
sa(dp4844
g38
I4096745987
sg39
(dp4845
g41
VTL Danoxide
p4846
sg43
Nssg44
(lp4847
I2758383128
asg32
VWeaponPickup
p4848
sg35
VPT6M6.7214315S
p4849
sa(dp4850
g32
VPlayerSpawn
p4851
sg39
(dp4852
g41
VTL Danoxide
p4853
sg43
Nssg35
VPT6M6.7214315S
p4854
sa(dp4855
g38
I4096745987
sg32
VWeaponDrop
p4856
sg180
I0
sg44
(lp4857
I2758383128
asg35
VPT6M7.6524121S
p4858
sg183
I0
sg184
VP0DT0H0M2.4667S
p4859
sg39
(dp4860
g41
VE6 Huke HCS
p4861
sg43
Nssa(dp4862
g38
I424645655
sg39
(dp4863
g41
VE6 Huke HCS
p4864
sg43
Nssg44
(lp4865
I1327094800
asg32
VWeaponPickup
p4866
sg35
VPT6M7.6524121S
p4867
sa(dp4868
g240
I4096745987
sg241
I00
sg242
I00
sg243
(dp4869
g41
VTL Eco HCS
p4870
sg43
Nssg246
(lp4871
I2758383128
asg248
I00
sg249
I01
sg250
I1
sg251
I0
sg252
I1
sg253
(dp4872
Vy
F14.167517699999999
sVx
F-9.8775449999999996
sVz
F2.4187736499999999
ssg255
(dp4873
Vy
F15.4312611
sVx
F-5.5923623999999998
sVz
F2.5934438700000002
ssg257
I00
sg258
(dp4874
g41
VE6 Shooter
p4875
sg43
Nssg262
(lp4876
sg264
(lp4877
(dp4878
g41
VTL StelluR
p4879
sg43
Nsasg266
I01
sg35
VPT6M9.0884127S
p4880
sg32
VDeath
p4881
sg269
I1
sa(dp4882
g32
VMedal
p4883
sg39
(dp4884
g41
VTL Eco HCS
p4885
sg43
Nssg285
I3261908037
sg35
VPT6M9.0894315S
p4886
sa(dp4887
g38
I313138863
sg32
VWeaponDrop
p4888
sg180
I27
sg44
(lp4889
I1095363701
asg35
VPT6M9.0894315S
p4890
sg183
I17
sg184
VP0DT0H0M5.9333S
p4891
sg39
(dp4892
g41
VE6 Shooter
p4893
sg43
Nssa(dp4894
g38
I4096745987
sg32
VWeaponDrop
p4895
sg180
I0
sg44
(lp4896
I2758383128
asg35
VPT6M9.0894315S
p4897
sg183
I0
sg184
VP0DT0H0M4.2833S
p4898
sg39
(dp4899
g41
VE6 Shooter
p4900
sg43
Nssa(dp4901
g38
I313138863
sg39
(dp4902
g41
VE6 Cratos HCS
p4903
sg43
Nssg44
(lp4904
I1095363701
asg32
VWeaponPickup
p4905
sg35
VPT6M9.4044336S
p4906
sa(dp4907
g38
I4096745987
sg39
(dp4908
g41
VE6 Cratos HCS
p4909
sg43
Nssg44
(lp4910
I2758383128
asg32
VWeaponPickup
p4911
sg35
VPT6M9.4044336S
p4912
sa(dp4913
g32
VPlayerSpawn
p4914
sg39
(dp4915
g41
VE6 Cratos HCS
p4916
sg43
Nssg35
VPT6M9.4044336S
p4917
sa(dp4918
g38
I313138863
sg32
VWeaponDrop
p4919
sg180
I0
sg44
(lp4920
I1095363701
asg35
VPT6M10.0864131S
p4921
sg183
I0
sg184
VP0DT0H0M1.2333S
p4922
sg39
(dp4923
g41
VTL StelluR
p4924
sg43
Nssa(dp4925
g38
I723388907
sg39
(dp4926
g41
VTL StelluR
p4927
sg43
Nssg44
(lp4928
I89283061
asg32
VWeaponPickup
p4929
sg35
VPT6M10.0864131S
p4930
sa(dp4931
g38
I313138863
sg39
(dp4932
g41
VTL Spartan HCS
p4933
sg43
Nssg44
(lp4934
I1095363701
asg32
VWeaponPickup
p4935
sg35
VPT6M10.3204126S
p4936
sa(dp4937
g38
I4096745987
sg39
(dp4938
g41
VTL Spartan HCS
p4939
sg43
Nssg44
(lp4940
I2758383128
asg32
VWeaponPickup
p4941
sg35
VPT6M10.3214323S
p4942
sa(dp4943
g32
VPlayerSpawn
p4944
sg39
(dp4945
g41
VTL Spartan HCS
p4946
sg43
Nssg35
VPT6M10.3214323S
p4947
sa(dp4948
g240
I424645655
sg241
I00
sg242
I00
sg243
(dp4949
g41
VE6 Huke HCS
p4950
sg43
Nssg246
(lp4951
I1327094800
asg248
I00
sg249
I01
sg250
I1
sg251
I0
sg252
I1
sg253
(dp4952
Vy
F8.2908270000000002
sVx
F-17.861583700000001
sVz
F-0.89672629999999998
ssg255
(dp4953
Vy
F13.568997400000001
sVx
F-17.807136499999999
sVz
F-0.8966904
ssg257
I00
sg258
(dp4954
g41
VTL StelluR
p4955
sg43
Nssg262
(lp4956
sg264
(lp4957
(dp4958
g41
VE6 Shooter
p4959
sg43
Nsasg266
I01
sg35
VPT6M10.4204114S
p4960
sg32
VDeath
p4961
sg269
I1
sa(dp4962
g32
VMedal
p4963
sg39
(dp4964
g41
VE6 Huke HCS
p4965
sg43
Nssg285
I3261908037
sg35
VPT6M10.4224143S
p4966
sa(dp4967
g38
I723388907
sg32
VWeaponDrop
p4968
sg180
I0
sg44
(lp4969
I89283061
asg35
VPT6M10.4224143S
p4970
sg183
I0
sg184
VP0DT0H0M0.3333S
p4971
sg39
(dp4972
g41
VTL StelluR
p4973
sg43
Nssa(dp4974
g38
I4096745987
sg32
VWeaponDrop
p4975
sg180
I15
sg44
(lp4976
I2758383128
asg35
VPT6M10.4224143S
p4977
sg183
I7
sg184
VP0DT0H0M27.4500S
p4978
sg39
(dp4979
g41
VTL StelluR
p4980
sg43
Nssa(dp4981
g38
I313138863
sg32
VWeaponDrop
p4982
sg180
I0
sg44
(lp4983
I1095363701
asg35
VPT6M12.2354317S
p4984
sg183
I0
sg184
VP0DT0H0M1.6000S
p4985
sg39
(dp4986
g41
VE6 Huke HCS
p4987
sg43
Nssa(dp4988
g38
I723388907
sg39
(dp4989
g41
VE6 Huke HCS
p4990
sg43
Nssg44
(lp4991
I89283061
asg32
VWeaponPickup
p4992
sg35
VPT6M12.2354317S
p4993
sa(dp4994
g32
VMedal
p4995
sg39
(dp4996
g41
VTL Eco HCS
p4997
sg43
Nssg285
I3400287617
sg35
VPT6M13.1694129S
p4998
sa(dp4999
g38
I313138863
sg39
(dp5000
g41
VE6 Shooter
p5001
sg43
Nssg44
(lp5002
I1095363701
asg32
VWeaponPickup
p5003
sg35
VPT6M17.1034126S
p5004
sa(dp5005
g38
I4096745987
sg39
(dp5006
g41
VE6 Shooter
p5007
sg43
Nssg44
(lp5008
I2758383128
asg32
VWeaponPickup
p5009
sg35
VPT6M17.1044314S
p5010
sa(dp5011
g32
VPlayerSpawn
p5012
sg39
(dp5013
g41
VE6 Shooter
p5014
sg43
Nssg35
VPT6M17.1044314S
p5015
sa(dp5016
g38
I313138863
sg39
(dp5017
g41
VTL StelluR
p5018
sg43
Nssg44
(lp5019
I1095363701
asg32
VWeaponPickup
p5020
sg35
VPT6M18.437432S
p5021
sa(dp5022
g38
I4096745987
sg39
(dp5023
g41
VTL StelluR
p5024
sg43
Nssg44
(lp5025
I2758383128
asg32
VWeaponPickup
p5026
sg35
VPT6M18.437432S
p5027
sa(dp5028
g32
VPlayerSpawn
p5029
sg39
(dp5030
g41
VTL StelluR
p5031
sg43
Nssg35
VPT6M18.437432S
p5032
sa(dp5033
g38
I313138863
sg32
VWeaponDrop
p5034
sg180
I0
sg44
(lp5035
I1095363701
asg35
VPT6M21.0524126S
p5036
sg183
I0
sg184
VP0DT0H0M8.3833S
p5037
sg39
(dp5038
g41
VTL Spartan HCS
p5039
sg43
Nssa(dp5040
g38
I3682788176
sg39
(dp5041
g41
VTL Spartan HCS
p5042
sg43
Nssg44
(lp5043
I2758383128
asg32
VWeaponPickupPad
p5044
sg35
VPT6M21.0524126S
p5045
sa(dp5046
g38
I3682788176
sg39
(dp5047
g41
VTL Spartan HCS
p5048
sg43
Nssg44
(lp5049
I2758383128
asg32
VWeaponPickup
p5050
sg35
VPT6M21.0524126S
p5051
sa(dp5052
g240
I424645655
sg241
I00
sg242
I00
sg243
(dp5053
g41
VE6 Huke HCS
p5054
sg43
Nssg246
(lp5055
I1327094800
asg248
I00
sg249
I01
sg250
I1
sg251
I0
sg252
I1
sg253
(dp5056
Vy
F5.1395754800000004
sVx
F-11.283117300000001
sVz
F1.0518401900000001
ssg255
(dp5057
Vy
F3.9391859999999999
sVx
F-1.2895320699999999
sVz
F3.0911940000000002
ssg257
I00
sg258
(dp5058
g41
VTL Danoxide
p5059
sg43
Nssg262
(lp5060
sg264
(lp5061
(dp5062
g41
VE6 Cratos HCS
p5063
sg43
Nsasg266
I01
sg35
VPT6M21.187413S
p5064
sg32
VDeath
p5065
sg269
I1
sa(dp5066
g32
VMedal
p5067
sg39
(dp5068
g41
VE6 Huke HCS
p5069
sg43
Nssg285
I3261908037
sg35
VPT6M21.1884324S
p5070
sa(dp5071
g38
I313138863
sg32
VWeaponDrop
p5072
sg180
I0
sg44
(lp5073
I1095363701
asg35
VPT6M21.1894313S
p5074
sg183
I0
sg184
VP0DT0H0M1.0500S
p5075
sg39
(dp5076
g41
VTL Danoxide
p5077
sg43
Nssa(dp5078
g38
I4096745987
sg32
VWeaponDrop
p5079
sg180
I7
sg44
(lp5080
I2758383128
asg35
VPT6M21.1894313S
p5081
sg183
I3
sg184
VP0DT0H0M13.4167S
p5082
sg39
(dp5083
g41
VTL Danoxide
p5084
sg43
Nssa(dp5085
g38
I313138863
sg32
VWeaponDrop
p5086
sg180
I0
sg44
(lp5087
I1095363701
asg35
VPT6M24.5354116S
p5088
sg183
I0
sg184
VP0DT0H0M1.2333S
p5089
sg39
(dp5090
g41
VTL StelluR
p5091
sg43
Nssa(dp5092
g38
I4108759423
sg39
(dp5093
g41
VTL StelluR
p5094
sg43
Nssg44
(lp5095
I2758383128
asg32
VWeaponPickup
p5096
sg35
VPT6M24.5354116S
p5097
sa(dp5098
g240
I723388907
sg241
I00
sg242
I00
sg243
(dp5099
g41
VTL Eco HCS
p5100
sg43
Nssg246
(lp5101
I89283061
asg248
I00
sg249
I01
sg250
I1
sg251
I0
sg252
I1
sg253
(dp5102
Vy
F9.0487380000000002
sVx
F-15.8536663
sVz
F1.50906944
ssg255
(dp5103
Vy
F6.32436943
sVx
F-16.483303100000001
sVz
F2.5823457200000002
ssg257
I00
sg258
(dp5104
g41
VE6 Cratos HCS
p5105
sg43
Nssg262
(lp5106
sg264
(lp5107
sg266
I00
sg35
VPT6M27.3374129S
p5108
sg32
VDeath
p5109
sg269
I1
sa(dp5110
g38
I313138863
sg32
VWeaponDrop
p5111
sg180
I0
sg44
(lp5112
I1095363701
asg35
VPT6M27.3394325S
p5113
sg183
I0
sg184
VP0DT0H0M0.8167S
p5114
sg39
(dp5115
g41
VE6 Cratos HCS
p5116
sg43
Nssa(dp5117
g38
I4096745987
sg32
VWeaponDrop
p5118
sg180
I15
sg44
(lp5119
I2758383128
asg35
VPT6M27.3394325S
p5120
sg183
I7
sg184
VP0DT0H0M17.1167S
p5121
sg39
(dp5122
g41
VE6 Cratos HCS
p5123
sg43
Nssa(dp5124
g240
I3808094875
sg241
I00
sg242
I00
sg243
(dp5125
g41
VE6 bubu dubu
p5126
sg43
Nssg246
(lp5127
I2758383128
asg248
I00
sg249
I01
sg250
I1
sg251
I0
sg252
I1
sg253
(dp5128
Vy
F12.180180500000001
sVx
F8.7718139999999991
sVz
F0.97931420000000002
ssg255
(dp5129
Vy
F10.319954900000001
sVx
F7.9046700000000003
sVz
F-0.89672940000000001
ssg257
I00
sg258
(dp5130
g41
VTL Spartan HCS
p5131
sg43
Nssg262
(lp5132
sg264
(lp5133
sg266
I00
sg35
VPT6M28.4364122S
p5134
sg32
VDeath
p5135
sg269
I1
sa(dp5136
g32
VMedal
p5137
sg39
(dp5138
g41
VE6 bubu dubu
p5139
sg43
Nssg285
I1351381581
sg35
VPT6M28.437432S
p5140
sa(dp5141
g38
I3682788176
sg32
VWeaponDrop
p5142
sg180
I0
sg44
(lp5143
I2758383128
asg35
VPT6M28.4384309S
p5144
sg183
I0
sg184
VP0DT0H0M6.4167S
p5145
sg39
(dp5146
g41
VTL Spartan HCS
p5147
sg43
Nssa(dp5148
g38
I4096745987
sg32
VWeaponDrop
p5149
sg180
I0
sg44
(lp5150
I2758383128
asg35
VPT6M28.4384309S
p5151
sg183
I0
sg184
VP0DT0H0M3.3167S
p5152
sg39
(dp5153
g41
VTL Spartan HCS
p5154
sg43
Nssa(dp5155
g32
VMedal
p5156
sg39
(dp5157
g41
VE6 Huke HCS
p5158
sg43
Nssg285
I2916014239
sg35
VPT6M28.868432S
p5159
sa(dp5160
g38
I313138863
sg39
(dp5161
g41
VTL Danoxide
p5162
sg43
Nssg44
(lp5163
I1095363701
asg32
VWeaponPickup
p5164
sg35
VPT6M29.2034345S
p5165
sa(dp5166
g38
I4096745987
sg39
(dp5167
g41
VTL Danoxide
p5168
sg43
Nssg44
(lp5169
I2758383128
asg32
VWeaponPickup
p5170
sg35
VPT6M29.2034345S
p5171
sa(dp5172
g32
VPlayerSpawn
p5173
sg39
(dp5174
g41
VTL Danoxide
p5175
sg43
Nssg35
VPT6M29.2044368S
p5176
sa(dp5177
g240
I4096745987
sg241
I00
sg242
I00
sg243
(dp5178
g41
VE6 Shooter
p5179
sg43
Nssg246
(lp5180
I2758383128
asg248
I00
sg249
I01
sg250
I1
sg251
I0
sg252
I1
sg253
(dp5181
Vy
F3.2437705999999999
sVx
F6.2736616100000004
sVz
F0.13907951099999999
ssg255
(dp5182
Vy
F17.060686100000002
sVx
F8.4075365099999999
sVz
F-0.42364594300000002
ssg257
I00
sg258
(dp5183
g41
VTL StelluR
p5184
sg43
Nssg262
(lp5185
sg264
(lp5186
(dp5187
g41
VE6 Huke HCS
p5188
sg43
Nsasg266
I01
sg35
VPT6M30.9034135S
p5189
sg32
VDeath
p5190
sg269
I1
sa(dp5191
g32
VMedal
p5192
sg39
(dp5193
g41
VE6 Shooter
p5194
sg43
Nssg285
I3261908037
sg35
VPT6M30.9044316S
p5195
sa(dp5196
g38
I4108759423
sg32
VWeaponDrop
p5197
sg180
I2
sg44
(lp5198
I2758383128
asg35
VPT6M30.9054357S
p5199
sg183
I1
sg184
VP0DT0H0M6.3667S
p5200
sg39
(dp5201
g41
VTL StelluR
p5202
sg43
Nssa(dp5203
g38
I4096745987
sg32
VWeaponDrop
p5204
sg180
I0
sg44
(lp5205
I2758383128
asg35
VPT6M30.9054357S
p5206
sg183
I0
sg184
VP0DT0H0M4.8667S
p5207
sg39
(dp5208
g41
VTL StelluR
p5209
sg43
Nssa(dp5210
g38
I4096745987
sg32
VWeaponDrop
p5211
sg180
I20
sg44
(lp5212
I2758383128
asg35
VPT6M31.2184111S
p5213
sg183
I11
sg184
VP0DT0H0M29.1333S
p5214
sg39
(dp5215
g41
VTL Eco HCS
p5216
sg43
Nssa(dp5217
g38
I424645655
sg39
(dp5218
g41
VTL Eco HCS
p5219
sg43
Nssg44
(lp5220
I1327094800
asg32
VWeaponPickup
p5221
sg35
VPT6M31.2184111S
p5222
sa(dp5223
g38
I723388907
sg32
VWeaponDrop
p5224
sg180
I7
sg44
(lp5225
I89283061
asg35
VPT6M31.9854127S
p5226
sg183
I0
sg184
VP0DT0H0M5.6000S
p5227
sg39
(dp5228
g41
VE6 Huke HCS
p5229
sg43
Nssa(dp5230
g38
I4096745987
sg39
(dp5231
g41
VE6 Huke HCS
p5232
sg43
Nssg44
(lp5233
I2758383128
asg32
VWeaponPickup
p5234
sg35
VPT6M31.9854127S
p5235
sa(dp5236
g38
I313138863
sg32
VWeaponDrop
p5237
sg180
I8
sg44
(lp5238
I1095363701
asg35
VPT6M33.6514138S
p5239
sg183
I1
sg184
VP0DT0H0M4.8000S
p5240
sg39
(dp5241
g41
VE6 Shooter
p5242
sg43
Nssa(dp5243
g38
I723388907
sg39
(dp5244
g41
VE6 Shooter
p5245
sg43
Nssg44
(lp5246
I89283061
asg32
VWeaponPickup
p5247
sg35
VPT6M33.6514138S
p5248
sa(dp5249
g38
I4096745987
sg32
VWeaponDrop
p5250
sg180
I0
sg44
(lp5251
I2758383128
asg35
VPT6M34.0184123S
p5252
sg183
I0
sg184
VP0DT0H0M2.0333S
p5253
sg39
(dp5254
g41
VE6 Huke HCS
p5255
sg43
Nssa(dp5256
g38
I3682788176
sg39
(dp5257
g41
VE6 Huke HCS
p5258
sg43
Nssg44
(lp5259
I2758383128
asg32
VWeaponPickup
p5260
sg35
VPT6M34.0184123S
p5261
sa(dp5262
g38
I313138863
sg39
(dp5263
g41
VE6 Cratos HCS
p5264
sg43
Nssg44
(lp5265
I1095363701
asg32
VWeaponPickup
p5266
sg35
VPT6M35.3534331S
p5267
sa(dp5268
g38
I4096745987
sg39
(dp5269
g41
VE6 Cratos HCS
p5270
sg43
Nssg44
(lp5271
I2758383128
asg32
VWeaponPickup
p5272
sg35
VPT6M35.3534331S
p5273
sa(dp5274
g32
VPlayerSpawn
p5275
sg39
(dp5276
g41
VE6 Cratos HCS
p5277
sg43
Nssg35
VPT6M35.3534331S
p5278
sa(dp5279
g38
I313138863
sg39
(dp5280
g41
VTL Spartan HCS
p5281
sg43
Nssg44
(lp5282
I1095363701
asg32
VWeaponPickup
p5283
sg35
VPT6M36.4534127S
p5284
sa(dp5285
g38
I4096745987
sg39
(dp5286
g41
VTL Spartan HCS
p5287
sg43
Nssg44
(lp5288
I2758383128
asg32
VWeaponPickup
p5289
sg35
VPT6M36.4534127S
p5290
sa(dp5291
g32
VPlayerSpawn
p5292
sg39
(dp5293
g41
VTL Spartan HCS
p5294
sg43
Nssg35
VPT6M36.4534127S
p5295
sa(dp5296
g32
VMedal
p5297
sg39
(dp5298
g41
VTL Eco HCS
p5299
sg43
Nssg285
I3565443938
sg35
VPT6M37.4184124S
p5300
sa(dp5301
g32
VMedal
p5302
sg39
(dp5303
g41
VTL Danoxide
p5304
sg43
Nssg285
I3565443938
sg35
VPT6M37.4184124S
p5305
sa(dp5306
g38
I313138863
sg39
(dp5307
g41
VTL StelluR
p5308
sg43
Nssg44
(lp5309
I1095363701
asg32
VWeaponPickup
p5310
sg35
VPT6M38.9194127S
p5311
sa(dp5312
g38
I4096745987
sg39
(dp5313
g41
VTL StelluR
p5314
sg43
Nssg44
(lp5315
I2758383128
asg32
VWeaponPickup
p5316
sg35
VPT6M38.920414S
p5317
sa(dp5318
g32
VPlayerSpawn
p5319
sg39
(dp5320
g41
VTL StelluR
p5321
sg43
Nssg35
VPT6M38.920414S
p5322
sa(dp5323
g38
I2492868984
sg39
(dp5324
g41
VE6 Huke HCS
p5325
sg43
Nssg44
(lp5326
I2758383128
asg32
VWeaponPickup
p5327
sg35
VPT6M40.7024114S
p5328
sa(dp5329
g38
I2492868984
sg32
VWeaponDrop
p5330
sg180
I0
sg44
(lp5331
I2758383128
asg35
VPT6M41.8694118S
p5332
sg183
I0
sg184
VP0DT0H0M0.9833S
p5333
sg39
(dp5334
g41
VE6 Huke HCS
p5335
sg43
Nssa(dp5336
g240
I4096745987
sg241
I00
sg242
I00
sg243
(dp5337
g41
VE6 Shooter
p5338
sg43
Nssg246
(lp5339
I2758383128
asg248
I00
sg249
I01
sg250
I1
sg251
I0
sg252
I1
sg253
(dp5340
Vy
F10.790911700000001
sVx
F1.9988131499999999
sVz
F-0.89672960000000002
ssg255
(dp5341
Vy
F12.424387899999999
sVx
F-8.9207090000000004
sVz
F1.49996555
ssg257
I00
sg258
(dp5342
g41
VTL Danoxide
p5343
sg43
Nssg262
(lp5344
sg264
(lp5345
sg266
I01
sg35
VPT6M42.7364128S
p5346
sg32
VDeath
p5347
sg269
I1
sa(dp5348
g32
VMedal
p5349
sg39
(dp5350
g41
VE6 Shooter
p5351
sg43
Nssg285
I3261908037
sg35
VPT6M42.7384329S
p5352
sa(dp5353
g38
I313138863
sg32
VWeaponDrop
p5354
sg180
I0
sg44
(lp5355
I1095363701
asg35
VPT6M42.7394312S
p5356
sg183
I0
sg184
VP0DT0H0M0.4500S
p5357
sg39
(dp5358
g41
VTL Danoxide
p5359
sg43
Nssa(dp5360
g38
I4096745987
sg32
VWeaponDrop
p5361
sg180
I3
sg44
(lp5362
I2758383128
asg35
VPT6M42.7394312S
p5363
sg183
I1
sg184
VP0DT0H0M13.0833S
p5364
sg39
(dp5365
g41
VTL Danoxide
p5366
sg43
Nssa(dp5367
g240
I4096745987
sg241
I00
sg242
I00
sg243
(dp5368
g41
VTL StelluR
p5369
sg43
Nssg246
(lp5370
I2758383128
asg248
I00
sg249
I01
sg250
I1
sg251
I0
sg252
I1
sg253
(dp5371
Vy
F10.940226600000001
sVx
F-13.980022399999999
sVz
F2.0772252099999999
ssg255
(dp5372
Vy
F15.4441071
sVx
F-6.5249566999999997
sVz
F2.1939280000000001
ssg257
I00
sg258
(dp5373
g41
VE6 Huke HCS
p5374
sg43
Nssg262
(lp5375
sg264
(lp5376
(dp5377
g41
VTL Eco HCS
p5378
sg43
Nsa(dp5379
g41
VTL Danoxide
p5380
sg43
Nsasg266
I01
sg35
VPT6M43.7194117S
p5381
sg32
VDeath
p5382
sg269
I1
sa(dp5383
g32
VMedal
p5384
sg39
(dp5385
g41
VTL StelluR
p5386
sg43
Nssg285
I3261908037
sg35
VPT6M43.7204139S
p5387
sa(dp5388
g38
I3682788176
sg32
VWeaponDrop
p5389
sg180
I1
sg44
(lp5390
I2758383128
asg35
VPT6M43.7214142S
p5391
sg183
I0
sg184
VP0DT0H0M8.7000S
p5392
sg39
(dp5393
g41
VE6 Huke HCS
p5394
sg43
Nssa(dp5395
g38
I424645655
sg32
VWeaponDrop
p5396
sg180
I32
sg44
(lp5397
I1327094800
asg35
VPT6M43.7214142S
p5398
sg183
I19
sg184
VP0DT0H0M18.2000S
p5399
sg39
(dp5400
g41
VE6 Huke HCS
p5401
sg43
Nssa(dp5402
g240
I4096745987
sg241
I00
sg242
I00
sg243
(dp5403
g41
VE6 Shooter
p5404
sg43
Nssg246
(lp5405
I2758383128
asg248
I00
sg249
I01
sg250
I1
sg251
I0
sg252
I1
sg253
(dp5406
Vy
F11.6192665
sVx
F-2.39531231
sVz
F0.112518221
ssg255
(dp5407
Vy
F12.382520700000001
sVx
F-9.6204479999999997
sVz
F-0.8967273
ssg257
I00
sg258
(dp5408
g41
VTL Eco HCS
p5409
sg43
Nssg262
(lp5410
sg264
(lp5411
sg266
I01
sg35
VPT6M46.2354119S
p5412
sg32
VDeath
p5413
sg269
I1
sa(dp5414
g32
VMedal
p5415
sg39
(dp5416
g41
VE6 Shooter
p5417
sg43
Nssg285
I2782465081
sg35
VPT6M46.2364312S
p5418
sa(dp5419
g32
VImpulse
p5420
sg39
(dp5421
g41
VE6 Shooter
p5422
sg43
Nssg317
I3174430457
sg35
VPT6M46.2374361S
p5423
sa(dp5424
g32
VMedal
p5425
sg39
(dp5426
g41
VE6 Shooter
p5427
sg43
Nssg285
I3653057799
sg35
VPT6M46.2374361S
p5428
sa(dp5429
g32
VMedal
p5430
sg39
(dp5431
g41
VE6 Shooter
p5432
sg43
Nssg285
I2078758684
sg35
VPT6M46.2374361S
p5433
sa(dp5434
g38
I723388907
sg32
VWeaponDrop
p5435
sg180
I33
sg44
(lp5436
I89283061
asg35
VPT6M46.2384313S
p5437
sg183
I15
sg184
VP0DT0H0M12.7833S
p5438
sg39
(dp5439
g41
VTL Eco HCS
p5440
sg43
Nssa(dp5441
g38
I424645655
sg32
VWeaponDrop
p5442
sg180
I40
sg44
(lp5443
I1327094800
asg35
VPT6M46.2384313S
p5444
sg183
I19
sg184
VP0DT0H0M12.9500S
p5445
sg39
(dp5446
g41
VTL Eco HCS
p5447
sg43
Nssa(dp5448
g240
I4096745987
sg241
I00
sg242
I00
sg243
(dp5449
g41
VTL Spartan HCS
p5450
sg43
Nssg246
(lp5451
I2758383128
asg248
I00
sg249
I01
sg250
I1
sg251
I0
sg252
I1
sg253
(dp5452
Vy
F3.20585012
sVx
F-8.7748880000000007
sVz
F2.6801986699999998
ssg255
(dp5453
Vy
F12.118919399999999
sVx
F-2.14647985
sVz
F-0.30722430000000001
ssg257
I00
sg258
(dp5454
g41
VE6 Shooter
p5455
sg43
Nssg262
(lp5456
sg264
(lp5457
(dp5458
g41
VTL Eco HCS
p5459
sg43
Nsasg266
I01
sg35
VPT6M46.5524105S
p5460
sg32
VDeath
p5461
sg269
I1
sa(dp5462
g32
VMedal
p5463
sg39
(dp5464
g41
VTL Spartan HCS
p5465
sg43
Nssg285
I3261908037
sg35
VPT6M46.5534145S
p5466
sa(dp5467
g38
I723388907
sg32
VWeaponDrop
p5468
sg180
I0
sg44
(lp5469
I89283061
asg35
VPT6M46.5544128S
p5470
sg183
I0
sg184
VP0DT0H0M0.5000S
p5471
sg39
(dp5472
g41
VE6 Shooter
p5473
sg43
Nssa(dp5474
g38
I4096745987
sg32
VWeaponDrop
p5475
sg180
I23
sg44
(lp5476
I2758383128
asg35
VPT6M46.5544128S
p5477
sg183
I14
sg184
VP0DT0H0M24.1500S
p5478
sg39
(dp5479
g41
VE6 Shooter
p5480
sg43
Nssa(dp5481
g38
I313138863
sg32
VWeaponDrop
p5482
sg180
I0
sg44
(lp5483
I1095363701
asg35
VPT6M47.1174111S
p5484
sg183
I0
sg184
VP0DT0H0M1.2167S
p5485
sg39
(dp5486
g41
VTL StelluR
p5487
sg43
Nssa(dp5488
g38
I3682788176
sg39
(dp5489
g41
VTL StelluR
p5490
sg43
Nssg44
(lp5491
I2758383128
asg32
VWeaponPickup
p5492
sg35
VPT6M47.1174111S
p5493
sa(dp5494
g32
VMedal
p5495
sg39
(dp5496
g41
VE6 bubu dubu
p5497
sg43
Nssg285
I3565443938
sg35
VPT6M48.619418S
p5498
sa(dp5499
g32
VMedal
p5500
sg39
(dp5501
g41
VE6 Cratos HCS
p5502
sg43
Nssg285
I3565443938
sg35
VPT6M48.619418S
p5503
sa(dp5504
g240
I3682788176
sg241
I00
sg242
I00
sg243
(dp5505
g41
VTL StelluR
p5506
sg43
Nssg246
(lp5507
I2758383128
asg248
I00
sg249
I01
sg250
I1
sg251
I0
sg252
I1
sg253
(dp5508
Vy
F15.5271864
sVx
F-10.203887
sVz
F2.3767735999999999
ssg255
(dp5509
Vy
F26.657360000000001
sVx
F-8.3354970000000002
sVz
F1.503376
ssg257
I00
sg258
(dp5510
g41
VE6 Cratos HCS
p5511
sg43
Nssg262
(lp5512
sg264
(lp5513
sg266
I00
sg35
VPT6M50.552412S
p5514
sg32
VDeath
p5515
sg269
I1
sa(dp5516
g38
I4096745987
sg32
VWeaponDrop
p5517
sg180
I3
sg44
(lp5518
I2758383128
asg35
VPT6M50.553433S
p5519
sg183
I1
sg184
VP0DT0H0M14.3333S
p5520
sg39
(dp5521
g41
VE6 Cratos HCS
p5522
sg43
Nssa(dp5523
g38
I313138863
sg32
VWeaponDrop
p5524
sg180
I0
sg44
(lp5525
I1095363701
asg35
VPT6M50.5544328S
p5526
sg183
I0
sg184
VP0DT0H0M0.8667S
p5527
sg39
(dp5528
g41
VE6 Cratos HCS
p5529
sg43
Nssa(dp5530
g38
I313138863
sg39
(dp5531
g41
VTL Danoxide
p5532
sg43
Nssg44
(lp5533
I1095363701
asg32
VWeaponPickup
p5534
sg35
VPT6M50.7524118S
p5535
sa(dp5536
g38
I4096745987
sg39
(dp5537
g41
VTL Danoxide
p5538
sg43
Nssg44
(lp5539
I2758383128
asg32
VWeaponPickup
p5540
sg35
VPT6M50.7524118S
p5541
sa(dp5542
g32
VPlayerSpawn
p5543
sg39
(dp5544
g41
VTL Danoxide
p5545
sg43
Nssg35
VPT6M50.7524118S
p5546
sa(dp5547
g38
I313138863
sg39
(dp5548
g41
VE6 Huke HCS
p5549
sg43
Nssg44
(lp5550
I1095363701
asg32
VWeaponPickup
p5551
sg35
VPT6M51.7354133S
p5552
sa(dp5553
g38
I4096745987
sg39
(dp5554
g41
VE6 Huke HCS
p5555
sg43
Nssg44
(lp5556
I2758383128
asg32
VWeaponPickup
p5557
sg35
VPT6M51.7364132S
p5558
sa(dp5559
g32
VPlayerSpawn
p5560
sg39
(dp5561
g41
VE6 Huke HCS
p5562
sg43
Nssg35
VPT6M51.7364132S
p5563
sa(dp5564
g38
I313138863
sg39
(dp5565
g41
VTL Eco HCS
p5566
sg43
Nssg44
(lp5567
I1095363701
asg32
VWeaponPickup
p5568
sg35
VPT6M54.2524121S
p5569
sa(dp5570
g38
I4096745987
sg39
(dp5571
g41
VTL Eco HCS
p5572
sg43
Nssg44
(lp5573
I2758383128
asg32
VWeaponPickup
p5574
sg35
VPT6M54.2524121S
p5575
sa(dp5576
g32
VPlayerSpawn
p5577
sg39
(dp5578
g41
VTL Eco HCS
p5579
sg43
Nssg35
VPT6M54.2524121S
p5580
sa(dp5581
g38
I313138863
sg39
(dp5582
g41
VE6 Shooter
p5583
sg43
Nssg44
(lp5584
I1095363701
asg32
VWeaponPickup
p5585
sg35
VPT6M54.5694141S
p5586
sa(dp5587
g38
I4096745987
sg39
(dp5588
g41
VE6 Shooter
p5589
sg43
Nssg44
(lp5590
I2758383128
asg32
VWeaponPickup
p5591
sg35
VPT6M54.5694141S
p5592
sa(dp5593
g32
VPlayerSpawn
p5594
sg39
(dp5595
g41
VE6 Shooter
p5596
sg43
Nssg35
VPT6M54.5694141S
p5597
sa(dp5598
g38
I4096745987
sg32
VWeaponDrop
p5599
sg180
I0
sg44
(lp5600
I2758383128
asg35
VPT6M57.1334132S
p5601
sg183
I0
sg184
VP0DT0H0M2.2833S
p5602
sg39
(dp5603
g41
VTL Eco HCS
p5604
sg43
Nssa(dp5605
g38
I424645655
sg39
(dp5606
g41
VTL Eco HCS
p5607
sg43
Nssg44
(lp5608
I1327094800
asg32
VWeaponPickup
p5609
sg35
VPT6M57.1344132S
p5610
sa(dp5611
g38
I313138863
sg39
(dp5612
g41
VE6 Cratos HCS
p5613
sg43
Nssg44
(lp5614
I1095363701
asg32
VWeaponPickup
p5615
sg35
VPT6M58.568414S
p5616
sa(dp5617
g38
I4096745987
sg39
(dp5618
g41
VE6 Cratos HCS
p5619
sg43
Nssg44
(lp5620
I2758383128
asg32
VWeaponPickup
p5621
sg35
VPT6M58.569414S
p5622
sa(dp5623
g32
VPlayerSpawn
p5624
sg39
(dp5625
g41
VE6 Cratos HCS
p5626
sg43
Nssg35
VPT6M58.569414S
p5627
sa(dp5628
g240
I4096745987
sg241
I00
sg242
I00
sg243
(dp5629
g41
VE6 Shooter
p5630
sg43
Nssg246
(lp5631
I2758383128
asg248
I00
sg249
I01
sg250
I1
sg251
I0
sg252
I1
sg253
(dp5632
Vy
F21.8177834
sVx
F8.209657
sVz
F0.47505122399999999
ssg255
(dp5633
Vy
F8.2325470000000003
sVx
F8.4231099999999994
sVz
F-0.89673080000000005
ssg257
I00
sg258
(dp5634
g41
VTL Spartan HCS
p5635
sg43
Nssg262
(lp5636
sg264
(lp5637
(dp5638
g41
VE6 Cratos HCS
p5639
sg43
Nsasg266
I01
sg35
VPT7M0.9684326S
p5640
sg32
VDeath
p5641
sg269
I1
sa(dp5642
g32
VMedal
p5643
sg39
(dp5644
g41
VE6 Shooter
p5645
sg43
Nssg285
I1351381581
sg35
VPT7M0.9694143S
p5646
sa(dp5647
g32
VMedal
p5648
sg39
(dp5649
g41
VE6 Shooter
p5650
sg43
Nssg285
I3261908037
sg35
VPT7M0.9704333S
p5651
sa(dp5652
g32
VMedal
p5653
sg39
(dp5654
g41
VE6 Huke HCS
p5655
sg43
Nssg285
I2916014239
sg35
VPT7M0.9704333S
p5656
sa(dp5657
g38
I313138863
sg32
VWeaponDrop
p5658
sg180
I0
sg44
(lp5659
I1095363701
asg35
VPT7M0.9704333S
p5660
sg183
I0
sg184
VP0DT0H0M7.1000S
p5661
sg39
(dp5662
g41
VTL Spartan HCS
p5663
sg43
Nssa(dp5664
g38
I4096745987
sg32
VWeaponDrop
p5665
sg180
I7
sg44
(lp5666
I2758383128
asg35
VPT7M0.9704333S
p5667
sg183
I5
sg184
VP0DT0H0M17.4167S
p5668
sg39
(dp5669
g41
VTL Spartan HCS
p5670
sg43
Nssa(dp5671
g240
I424645655
sg241
I00
sg242
I00
sg243
(dp5672
g41
VTL Eco HCS
p5673
sg43
Nssg246
(lp5674
I1327094800
asg248
I00
sg249
I01
sg250
I1
sg251
I0
sg252
I1
sg253
(dp5675
Vy
F0.50463340000000001
sVx
F6.7105410000000001
sVz
F1.19157767
ssg255
(dp5676
Vy
F2.6509930000000002
sVx
F6.2918734599999997
sVz
F0.35105370000000002
ssg257
I00
sg258
(dp5677
g41
VE6 Huke HCS
p5678
sg43
Nssg262
(lp5679
sg264
(lp5680
(dp5681
g41
VTL StelluR
p5682
sg43
Nsasg266
I01
sg35
VPT7M5.4184115S
p5683
sg32
VDeath
p5684
sg269
I1
sa(dp5685
g32
VMedal
p5686
sg39
(dp5687
g41
VTL Eco HCS
p5688
sg43
Nssg285
I3261908037
sg35
VPT7M5.420414S
p5689
sa(dp5690
g38
I313138863
sg32
VWeaponDrop
p5691
sg180
I16
sg44
(lp5692
I1095363701
asg35
VPT7M5.4214142S
p5693
sg183
I12
sg184
VP0DT0H0M8.8500S
p5694
sg39
(dp5695
g41
VE6 Huke HCS
p5696
sg43
Nssa(dp5697
g38
I4096745987
sg32
VWeaponDrop
p5698
sg180
I0
sg44
(lp5699
I2758383128
asg35
VPT7M5.4214142S
p5700
sg183
I0
sg184
VP0DT0H0M4.8333S
p5701
sg39
(dp5702
g41
VE6 Huke HCS
p5703
sg43
Nssa(dp5704
g240
I4096745987
sg241
I00
sg242
I00
sg243
(dp5705
g41
VTL Danoxide
p5706
sg43
Nssg246
(lp5707
I2758383128
asg248
I00
sg249
I01
sg250
I1
sg251
I0
sg252
I1
sg253
(dp5708
Vy
F11.03959
sVx
F0.59087604299999996
sVz
F-0.23672689999999999
ssg255
(dp5709
Vy
F22.3125477
sVx
F2.0934159999999999
sVz
F-0.239788115
ssg257
I00
sg258
(dp5710
g41
VE6 Cratos HCS
p5711
sg43
Nssg262
(lp5712
sg264
(lp5713
sg266
I01
sg35
VPT7M7.8854135S
p5714
sg32
VDeath
p5715
sg269
I1
sa(dp5716
g32
VMedal
p5717
sg39
(dp5718
g41
VTL StelluR
p5719
sg43
Nssg285
I824733727
sg35
VPT7M7.8854135S
p5720
sa(dp5721
g32
VMedal
p5722
sg39
(dp5723
g41
VTL Danoxide
p5724
sg43
Nssg285
I3261908037
sg35
VPT7M7.8864147S
p5725
sa(dp5726
g38
I313138863
sg32
VWeaponDrop
p5727
sg180
I0
sg44
(lp5728
I1095363701
asg35
VPT7M7.8874147S
p5729
sg183
I0
sg184
VP0DT0H0M0.7500S
p5730
sg39
(dp5731
g41
VE6 Cratos HCS
p5732
sg43
Nssa(dp5733
g38
I4096745987
sg32
VWeaponDrop
p5734
sg180
I6
sg44
(lp5735
I2758383128
asg35
VPT7M7.8874147S
p5736
sg183
I3
sg184
VP0DT0H0M8.5667S
p5737
sg39
(dp5738
g41
VE6 Cratos HCS
p5739
sg43
Nssa(dp5740
g38
I313138863
sg39
(dp5741
g41
VTL Spartan HCS
p5742
sg43
Nssg44
(lp5743
I1095363701
asg32
VWeaponPickup
p5744
sg35
VPT7M8.9854124S
p5745
sa(dp5746
g38
I4096745987
sg39
(dp5747
g41
VTL Spartan HCS
p5748
sg43
Nssg44
(lp5749
I2758383128
asg32
VWeaponPickup
p5750
sg35
VPT7M8.9864325S
p5751
sa(dp5752
g32
VPlayerSpawn
p5753
sg39
(dp5754
g41
VTL Spartan HCS
p5755
sg43
Nssg35
VPT7M8.9864325S
p5756
sa(dp5757
g32
VMedal
p5758
sg39
(dp5759
g41
VTL Eco HCS
p5760
sg43
Nssg285
I3400287617
sg35
VPT7M9.3504135S
p5761
sa(dp5762
g240
I424645655
sg241
I00
sg242
I00
sg243
(dp5763
g41
VE6 bubu dubu
p5764
sg43
Nssg246
(lp5765
I1327094800
asg248
I00
sg249
I01
sg250
I1
sg251
I0
sg252
I1
sg253
(dp5766
Vy
F22.669008300000002
sVx
F-8.2873940000000008
sVz
F1.5033749300000001
ssg255
(dp5767
Vy
F16.447859999999999
sVx
F-1.57356918
sVz
F-1.8589918599999999
ssg257
I00
sg258
(dp5768
g41
VTL StelluR
p5769
sg43
Nssg262
(lp5770
sg264
(lp5771
(dp5772
g41
VE6 Cratos HCS
p5773
sg43
Nsasg266
I01
sg35
VPT7M9.451412S
p5774
sg32
VDeath
p5775
sg269
I1
sa(dp5776
g32
VMedal
p5777
sg39
(dp5778
g41
VE6 bubu dubu
p5779
sg43
Nssg285
I3261908037
sg35
VPT7M9.4534343S
p5780
sa(dp5781
g38
I3682788176
sg32
VWeaponDrop
p5782
sg180
I3
sg44
(lp5783
I2758383128
asg35
VPT7M9.4534343S
p5784
sg183
I3
sg184
VP0DT0H0M18.1167S
p5785
sg39
(dp5786
g41
VTL StelluR
p5787
sg43
Nssa(dp5788
g38
I4096745987
sg32
VWeaponDrop
p5789
sg180
I10
sg44
(lp5790
I2758383128
asg35
VPT7M9.4534343S
p5791
sg183
I5
sg184
VP0DT0H0M11.2000S
p5792
sg39
(dp5793
g41
VTL StelluR
p5794
sg43
Nssa(dp5795
g38
I313138863
sg39
(dp5796
g41
VE6 Huke HCS
p5797
sg43
Nssg44
(lp5798
I1095363701
asg32
VWeaponPickup
p5799
sg35
VPT7M13.4354891S
p5800
sa(dp5801
g38
I4096745987
sg39
(dp5802
g41
VE6 Huke HCS
p5803
sg43
Nssg44
(lp5804
I2758383128
asg32
VWeaponPickup
p5805
sg35
VPT7M13.4354891S
p5806
sa(dp5807
g32
VPlayerSpawn
p5808
sg39
(dp5809
g41
VE6 Huke HCS
p5810
sg43
Nssg35
VPT7M13.4354891S
p5811
sa(dp5812
g32
VMedal
p5813
sg39
(dp5814
g41
VTL Danoxide
p5815
sg43
Nssg285
I3565443938
sg35
VPT7M14.9854107S
p5816
sa(dp5817
g32
VMedal
p5818
sg39
(dp5819
g41
VTL Eco HCS
p5820
sg43
Nssg285
I3565443938
sg35
VPT7M14.9854107S
p5821
sa(dp5822
g38
I313138863
sg39
(dp5823
g41
VE6 Cratos HCS
p5824
sg43
Nssg44
(lp5825
I1095363701
asg32
VWeaponPickup
p5826
sg35
VPT7M15.9014134S
p5827
sa(dp5828
g38
I4096745987
sg39
(dp5829
g41
VE6 Cratos HCS
p5830
sg43
Nssg44
(lp5831
I2758383128
asg32
VWeaponPickup
p5832
sg35
VPT7M15.9014134S
p5833
sa(dp5834
g32
VPlayerSpawn
p5835
sg39
(dp5836
g41
VE6 Cratos HCS
p5837
sg43
Nssg35
VPT7M15.9014134S
p5838
sa(dp5839
g38
I313138863
sg39
(dp5840
g41
VTL StelluR
p5841
sg43
Nssg44
(lp5842
I1095363701
asg32
VWeaponPickup
p5843
sg35
VPT7M17.4694322S
p5844
sa(dp5845
g38
I4096745987
sg39
(dp5846
g41
VTL StelluR
p5847
sg43
Nssg44
(lp5848
I2758383128
asg32
VWeaponPickup
p5849
sg35
VPT7M17.4694322S
p5850
sa(dp5851
g32
VPlayerSpawn
p5852
sg39
(dp5853
g41
VTL StelluR
p5854
sg43
Nssg35
VPT7M17.4694322S
p5855
sa(dp5856
g240
I313138863
sg241
I00
sg242
I00
sg243
(dp5857
g41
VE6 Shooter
p5858
sg43
Nssg246
(lp5859
I1095363701
asg248
I00
sg249
I01
sg250
I1
sg251
I0
sg252
I1
sg253
(dp5860
Vy
F7.7414465000000003
sVx
F4.7677300000000002
sVz
F-0.34184661500000002
ssg255
(dp5861
Vy
F10.119180699999999
sVx
F2.5242300000000002
sVz
F-0.072368349999999998
ssg257
I00
sg258
(dp5862
g41
VTL Danoxide
p5863
sg43
Nssg262
(lp5864
sg264
(lp5865
sg266
I00
sg35
VPT7M17.901411S
p5866
sg32
VDeath
p5867
sg269
I1
sa(dp5868
g38
I313138863
sg32
VWeaponDrop
p5869
sg180
I0
sg44
(lp5870
I1095363701
asg35
VPT7M17.9034318S
p5871
sg183
I0
sg184
VP0DT0H0M0.5000S
p5872
sg39
(dp5873
g41
VTL Danoxide
p5874
sg43
Nssa(dp5875
g38
I4096745987
sg32
VWeaponDrop
p5876
sg180
I20
sg44
(lp5877
I2758383128
asg35
VPT7M17.9034318S
p5878
sg183
I9
sg184
VP0DT0H0M26.6500S
p5879
sg39
(dp5880
g41
VTL Danoxide
p5881
sg43
Nssa(dp5882
g240
I424645655
sg241
I00
sg242
I00
sg243
(dp5883
g41
VTL Eco HCS
p5884
sg43
Nssg246
(lp5885
I1327094800
asg248
I00
sg249
I01
sg250
I1
sg251
I0
sg252
I1
sg253
(dp5886
Vy
F11.609296799999999
sVx
F6.6659584000000001
sVz
F1.20987844
ssg255
(dp5887
Vy
F5.8737259999999996
sVx
F4.1924214400000004
sVz
F-0.84968659999999996
ssg257
I00
sg258
(dp5888
g41
VE6 Shooter
p5889
sg43
Nssg262
(lp5890
sg264
(lp5891
(dp5892
g41
VTL Danoxide
p5893
sg43
Nsasg266
I01
sg35
VPT7M19.5844124S
p5894
sg32
VDeath
p5895
sg269
I1
sa(dp5896
g32
VMedal
p5897
sg39
(dp5898
g41
VTL Eco HCS
p5899
sg43
Nssg285
I1351381581
sg35
VPT7M19.5864327S
p5900
sa(dp5901
g32
VMedal
p5902
sg39
(dp5903
g41
VTL Eco HCS
p5904
sg43
Nssg285
I3261908037
sg35
VPT7M19.5864327S
p5905
sa(dp5906
g38
I313138863
sg32
VWeaponDrop
p5907
sg180
I34
sg44
(lp5908
I1095363701
asg35
VPT7M19.5864327S
p5909
sg183
I24
sg184
VP0DT0H0M9.2333S
p5910
sg39
(dp5911
g41
VE6 Shooter
p5912
sg43
Nssa(dp5913
g38
I4096745987
sg32
VWeaponDrop
p5914
sg180
I5
sg44
(lp5915
I2758383128
asg35
VPT7M19.5864327S
p5916
sg183
I5
sg184
VP0DT0H0M15.7833S
p5917
sg39
(dp5918
g41
VE6 Shooter
p5919
sg43
Nssa(dp5920
g240
I3808094875
sg241
I00
sg242
I00
sg243
(dp5921
g41
VE6 bubu dubu
p5922
sg43
Nssg246
(lp5923
I2758383128
asg248
I00
sg249
I01
sg250
I1
sg251
I0
sg252
I1
sg253
(dp5924
Vy
F7.2637689999999999
sVx
F6.1154756499999996
sVz
F-0.21675333399999999
ssg255
(dp5925
Vy
F11.530968700000001
sVx
F5.2958999999999996
sVz
F0.080076960000000003
ssg257
I00
sg258
(dp5926
g41
VTL Eco HCS
p5927
sg43
Nssg262
(lp5928
sg264
(lp5929
(dp5930
g41
VE6 Shooter
p5931
sg43
Nsa(dp5932
g41
VE6 Huke HCS
p5933
sg43
Nsasg266
I00
sg35
VPT7M22.1014121S
p5934
sg32
VDeath
p5935
sg269
I1
sa(dp5936
g32
VMedal
p5937
sg39
(dp5938
g41
VE6 bubu dubu
p5939
sg43
Nssg285
I2430242797
sg35
VPT7M22.1034316S
p5940
sa(dp5941
g38
I313138863
sg32
VWeaponDrop
p5942
sg180
I0
sg44
(lp5943
I1095363701
asg35
VPT7M22.1034316S
p5944
sg183
I0
sg184
VP0DT0H0M0.6000S
p5945
sg39
(dp5946
g41
VTL Eco HCS
p5947
sg43
Nssa(dp5948
g38
I424645655
sg32
VWeaponDrop
p5949
sg180
I39
sg44
(lp5950
I1327094800
asg35
VPT7M22.1034316S
p5951
sg183
I19
sg184
VP0DT0H0M24.9667S
p5952
sg39
(dp5953
g41
VTL Eco HCS
p5954
sg43
Nssa(dp5955
g240
I4096745987
sg241
I00
sg242
I00
sg243
(dp5956
g41
VTL Spartan HCS
p5957
sg43
Nssg246
(lp5958
I2758383128
asg248
I00
sg249
I00
sg250
I2
sg251
I0
sg252
I0
sg253
(dp5959
Vy
F24.62096
sVx
F-11.018547999999999
sVz
F1.503374
ssg255
(dp5960
Vy
F27.5284519
sVx
F-11.616913800000001
sVz
F1.50311935
ssg257
I00
sg258
(dp5961
g260
g261
ssg262
(lp5962
sg264
(lp5963
sg266
I00
sg35
VPT7M22.2514722S
p5964
sg32
VDeath
p5965
sg269
I1
sa(dp5966
g38
I313138863
sg39
(dp5967
g41
VTL Danoxide
p5968
sg43
Nssg44
(lp5969
I1095363701
asg32
VWeaponPickup
p5970
sg35
VPT7M25.9194133S
p5971
sa(dp5972
g38
I4096745987
sg39
(dp5973
g41
VTL Danoxide
p5974
sg43
Nssg44
(lp5975
I2758383128
asg32
VWeaponPickup
p5976
sg35
VPT7M25.9194133S
p5977
sa(dp5978
g32
VPlayerSpawn
p5979
sg39
(dp5980
g41
VTL Danoxide
p5981
sg43
Nssg35
VPT7M25.9194133S
p5982
sa(dp5983
g38
I313138863
sg39
(dp5984
g41
VE6 Shooter
p5985
sg43
Nssg44
(lp5986
I1095363701
asg32
VWeaponPickup
p5987
sg35
VPT7M27.6014147S
p5988
sa(dp5989
g38
I4096745987
sg39
(dp5990
g41
VE6 Shooter
p5991
sg43
Nssg44
(lp5992
I2758383128
asg32
VWeaponPickup
p5993
sg35
VPT7M27.6014147S
p5994
sa(dp5995
g32
VPlayerSpawn
p5996
sg39
(dp5997
g41
VE6 Shooter
p5998
sg43
Nssg35
VPT7M27.6014147S
p5999
sa(dp6000
g38
I313138863
sg32
VWeaponDrop
p6001
sg180
I0
sg44
(lp6002
I1095363701
asg35
VPT7M28.7324134S
p6003
sg183
I0
sg184
VP0DT0H0M1.2167S
p6004
sg39
(dp6005
g41
VE6 Cratos HCS
p6006
sg43
Nssa(dp6007
g38
I2133511419
sg39
(dp6008
g41
VE6 Cratos HCS
p6009
sg43
Nssg44
(lp6010
I2758383128
asg32
VWeaponPickup
p6011
sg35
VPT7M28.7334332S
p6012
sa(dp6013
g32
VMedal
p6014
sg39
(dp6015
g41
VE6 bubu dubu
p6016
sg43
Nssg285
I3565443938
sg35
VPT7M29.2504122S
p6017
sa(dp6018
g32
VMedal
p6019
sg39
(dp6020
g41
VE6 Shooter
p6021
sg43
Nssg285
I1637841390
sg35
VPT7M29.2504122S
p6022
sa(dp6023
g32
VMedal
p6024
sg39
(dp6025
g41
VE6 Huke HCS
p6026
sg43
Nssg285
I1637841390
sg35
VPT7M29.2504122S
p6027
sa(dp6028
g38
I313138863
sg39
(dp6029
g41
VTL Eco HCS
p6030
sg43
Nssg44
(lp6031
I1095363701
asg32
VWeaponPickup
p6032
sg35
VPT7M30.1184127S
p6033
sa(dp6034
g38
I4096745987
sg39
(dp6035
g41
VTL Eco HCS
p6036
sg43
Nssg44
(lp6037
I2758383128
asg32
VWeaponPickup
p6038
sg35
VPT7M30.1184127S
p6039
sa(dp6040
g32
VPlayerSpawn
p6041
sg39
(dp6042
g41
VTL Eco HCS
p6043
sg43
Nssg35
VPT7M30.1184127S
p6044
sa(dp6045
g240
I313138863
sg241
I00
sg242
I00
sg243
(dp6046
g41
VE6 Huke HCS
p6047
sg43
Nssg246
(lp6048
I1095363701
asg248
I00
sg249
I01
sg250
I1
sg251
I0
sg252
I1
sg253
(dp6049
Vy
F27.950426100000001
sVx
F-9.1518289999999993
sVz
F1.503374
ssg255
(dp6050
Vy
F25.0312424
sVx
F-8.8177210000000006
sVz
F1.5033741
ssg257
I00
sg258
(dp6051
g41
VTL Spartan HCS
p6052
sg43
Nssg262
(lp6053
sg264
(lp6054
(dp6055
g41
VE6 Shooter
p6056
sg43
Nsasg266
I00
sg35
VPT7M33.017411S
p6057
sg32
VDeath
p6058
sg269
I1
sa(dp6059
g32
VMedal
p6060
sg39
(dp6061
g41
VE6 Huke HCS
p6062
sg43
Nssg285
I1351381581
sg35
VPT7M33.0184338S
p6063
sa(dp6064
g32
VMedal
p6065
sg39
(dp6066
g41
VE6 Huke HCS
p6067
sg43
Nssg285
I2916014239
sg35
VPT7M33.0194133S
p6068
sa(dp6069
g38
I313138863
sg32
VWeaponDrop
p6070
sg180
I0
sg44
(lp6071
I1095363701
asg35
VPT7M33.0194133S
p6072
sg183
I0
sg184
VP0DT0H0M1.5167S
p6073
sg39
(dp6074
g41
VTL Spartan HCS
p6075
sg43
Nssa(dp6076
g38
I4096745987
sg32
VWeaponDrop
p6077
sg180
I12
sg44
(lp6078
I2758383128
asg35
VPT7M33.0194133S
p6079
sg183
I5
sg184
VP0DT0H0M22.5000S
p6080
sg39
(dp6081
g41
VTL Spartan HCS
p6082
sg43
Nssa(dp6083
g240
I2133511419
sg241
I00
sg242
I00
sg243
(dp6084
g41
VE6 Cratos HCS
p6085
sg43
Nssg246
(lp6086
I2758383128
asg248
I00
sg249
I01
sg250
I1
sg251
I0
sg252
I1
sg253
(dp6087
Vy
F19.614574399999999
sVx
F-11.0677729
sVz
F1.120444
ssg255
(dp6088
Vy
F13.450365100000001
sVx
F-12.095413199999999
sVz
F-0.01028198
ssg257
I00
sg258
(dp6089
g41
VTL StelluR
p6090
sg43
Nssg262
(lp6091
sg264
(lp6092
sg266
I00
sg35
VPT7M35.9834113S
p6093
sg32
VDeath
p6094
sg269
I1
sa(dp6095
g32
VMedal
p6096
sg39
(dp6097
g41
VE6 Cratos HCS
p6098
sg43
Nssg285
I2782465081
sg35
VPT7M35.9844126S
p6099
sa(dp6100
g38
I313138863
sg32
VWeaponDrop
p6101
sg180
I31
sg44
(lp6102
I1095363701
asg35
VPT7M35.9854119S
p6103
sg183
I5
sg184
VP0DT0H0M8.1167S
p6104
sg39
(dp6105
g41
VTL StelluR
p6106
sg43
Nssa(dp6107
g38
I4096745987
sg32
VWeaponDrop
p6108
sg180
I9
sg44
(lp6109
I2758383128
asg35
VPT7M35.9854119S
p6110
sg183
I7
sg184
VP0DT0H0M10.3833S
p6111
sg39
(dp6112
g41
VTL StelluR
p6113
sg43
Nssa(dp6114
g240
I424645655
sg241
I00
sg242
I00
sg243
(dp6115
g41
VE6 bubu dubu
p6116
sg43
Nssg246
(lp6117
I1327094800
asg248
I00
sg249
I01
sg250
I1
sg251
I0
sg252
I1
sg253
(dp6118
Vy
F4.9033730000000002
sVx
F-1.754807
sVz
F3.3301910000000001
ssg255
(dp6119
Vy
F13.585793499999999
sVx
F-4.4691305200000002
sVz
F2.2524662000000002
ssg257
I00
sg258
(dp6120
g41
VTL Danoxide
p6121
sg43
Nssg262
(lp6122
sg264
(lp6123
(dp6124
g41
VE6 Huke HCS
p6125
sg43
Nsasg266
I01
sg35
VPT7M36.4004112S
p6126
sg32
VDeath
p6127
sg269
I1
sa(dp6128
g32
VMedal
p6129
sg39
(dp6130
g41
VE6 bubu dubu
p6131
sg43
Nssg285
I2838259753
sg35
VPT7M36.4004112S
p6132
sa(dp6133
g32
VImpulse
p6134
sg39
(dp6135
g41
VE6 bubu dubu
p6136
sg43
Nssg317
I2556889090
sg35
VPT7M36.4004112S
p6137
sa(dp6138
g32
VMedal
p6139
sg39
(dp6140
g41
VE6 bubu dubu
p6141
sg43
Nssg285
I3261908037
sg35
VPT7M36.401432S
p6142
sa(dp6143
g38
I313138863
sg32
VWeaponDrop
p6144
sg180
I0
sg44
(lp6145
I1095363701
asg35
VPT7M36.4024334S
p6146
sg183
I0
sg184
VP0DT0H0M0.6833S
p6147
sg39
(dp6148
g41
VTL Danoxide
p6149
sg43
Nssa(dp6150
g38
I4096745987
sg32
VWeaponDrop
p6151
sg180
I9
sg44
(lp6152
I2758383128
asg35
VPT7M36.4024334S
p6153
sg183
I4
sg184
VP0DT0H0M9.7833S
p6154
sg39
(dp6155
g41
VTL Danoxide
p6156
sg43
Nssa(dp6157
g32
VMedal
p6158
sg39
(dp6159
g41
VE6 Cratos HCS
p6160
sg43
Nssg285
I3400287617
sg35
VPT7M39.933428S
p6161
sa(dp6162
g38
I313138863
sg39
(dp6163
g41
VTL Spartan HCS
p6164
sg43
Nssg44
(lp6165
I1095363701
asg32
VWeaponPickup
p6166
sg35
VPT7M41.0334125S
p6167
sa(dp6168
g38
I4096745987
sg39
(dp6169
g41
VTL Spartan HCS
p6170
sg43
Nssg44
(lp6171
I2758383128
asg32
VWeaponPickup
p6172
sg35
VPT7M41.0344129S
p6173
sa(dp6174
g32
VPlayerSpawn
p6175
sg39
(dp6176
g41
VTL Spartan HCS
p6177
sg43
Nssg35
VPT7M41.0344129S
p6178
sa(dp6179
g38
I313138863
sg39
(dp6180
g41
VTL StelluR
p6181
sg43
Nssg44
(lp6182
I1095363701
asg32
VWeaponPickup
p6183
sg35
VPT7M44.0004365S
p6184
sa(dp6185
g38
I4096745987
sg39
(dp6186
g41
VTL StelluR
p6187
sg43
Nssg44
(lp6188
I2758383128
asg32
VWeaponPickup
p6189
sg35
VPT7M44.0004365S
p6190
sa(dp6191
g32
VPlayerSpawn
p6192
sg39
(dp6193
g41
VTL StelluR
p6194
sg43
Nssg35
VPT7M44.0004365S
p6195
sa(dp6196
g38
I313138863
sg39
(dp6197
g41
VTL Danoxide
p6198
sg43
Nssg44
(lp6199
I1095363701
asg32
VWeaponPickup
p6200
sg35
VPT7M44.4174333S
p6201
sa(dp6202
g38
I4096745987
sg39
(dp6203
g41
VTL Danoxide
p6204
sg43
Nssg44
(lp6205
I2758383128
asg32
VWeaponPickup
p6206
sg35
VPT7M44.4174333S
p6207
sa(dp6208
g32
VPlayerSpawn
p6209
sg39
(dp6210
g41
VTL Danoxide
p6211
sg43
Nssg35
VPT7M44.4174333S
p6212
sa(dp6213
g32
VMedal
p6214
sg39
(dp6215
g41
VE6 bubu dubu
p6216
sg43
Nssg285
I1691836029
sg35
VPT7M45.0494121S
p6217
sa(dp6218
g240
I4096745987
sg241
I00
sg242
I00
sg243
(dp6219
g41
VE6 Huke HCS
p6220
sg43
Nssg246
(lp6221
I2758383128
asg248
I00
sg249
I01
sg250
I1
sg251
I0
sg252
I1
sg253
(dp6222
Vy
F14.843897800000001
sVx
F-1.64669025
sVz
F1.4995212600000001
ssg255
(dp6223
Vy
F6.5565676699999997
sVx
F-1.4075741799999999
sVz
F1.49761641
ssg257
I00
sg258
(dp6224
g41
VTL Spartan HCS
p6225
sg43
Nssg262
(lp6226
sg264
(lp6227
(dp6228
g41
VE6 bubu dubu
p6229
sg43
Nsasg266
I01
sg35
VPT7M48.8834121S
p6230
sg32
VDeath
p6231
sg269
I1
sa(dp6232
g32
VMedal
p6233
sg39
(dp6234
g41
VE6 Huke HCS
p6235
sg43
Nssg285
I3261908037
sg35
VPT7M48.8854352S
p6236
sa(dp6237
g38
I313138863
sg32
VWeaponDrop
p6238
sg180
I7
sg44
(lp6239
I1095363701
asg35
VPT7M48.8864366S
p6240
sg183
I7
sg184
VP0DT0H0M3.3000S
p6241
sg39
(dp6242
g41
VTL Spartan HCS
p6243
sg43
Nssa(dp6244
g38
I4096745987
sg32
VWeaponDrop
p6245
sg180
I4
sg44
(lp6246
I2758383128
asg35
VPT7M48.8864366S
p6247
sg183
I2
sg184
VP0DT0H0M4.5500S
p6248
sg39
(dp6249
g41
VTL Spartan HCS
p6250
sg43
Nssa(dp6251
g240
I2133511419
sg241
I01
sg242
I00
sg243
(dp6252
g41
VE6 Cratos HCS
p6253
sg43
Nssg246
(lp6254
I2758383128
asg248
I00
sg249
I00
sg250
I1
sg251
I0
sg252
I1
sg253
(dp6255
Vy
F14.819145199999999
sVx
F-9.9673010000000009
sVz
F2.1689963300000001
ssg255
(dp6256
Vy
F14.488818200000001
sVx
F-9.8004940000000005
sVz
F2.3864986899999998
ssg257
I00
sg258
(dp6257
g41
VTL StelluR
p6258
sg43
Nssg262
(lp6259
sg264
(lp6260
sg266
I00
sg35
VPT7M49.7834119S
p6261
sg32
VDeath
p6262
sg269
I1
sa(dp6263
g32
VMedal
p6264
sg39
(dp6265
g41
VE6 Huke HCS
p6266
sg43
Nssg285
I824733727
sg35
VPT7M49.7834119S
p6267
sa(dp6268
g32
VMedal
p6269
sg39
(dp6270
g41
VE6 Cratos HCS
p6271
sg43
Nssg285
I3270120991
sg35
VPT7M49.7844333S
p6272
sa(dp6273
g38
I4096745987
sg32
VWeaponDrop
p6274
sg180
I3
sg44
(lp6275
I2758383128
asg35
VPT7M49.7844333S
p6276
sg183
I2
sg184
VP0DT0H0M5.1167S
p6277
sg39
(dp6278
g41
VTL StelluR
p6279
sg43
Nssa(dp6280
g38
I313138863
sg32
VWeaponDrop
p6281
sg180
I0
sg44
(lp6282
I1095363701
asg35
VPT7M49.7854168S
p6283
sg183
I0
sg184
VP0DT0H0M0.6667S
p6284
sg39
(dp6285
g41
VTL StelluR
p6286
sg43
Nssa(dp6287
g240
I4096745987
sg241
I01
sg242
I00
sg243
(dp6288
g41
VTL Danoxide
p6289
sg43
Nssg246
(lp6290
I2758383128
asg248
I00
sg249
I00
sg250
I1
sg251
I0
sg252
I1
sg253
(dp6291
Vy
F17.6190338
sVx
F-10.23873
sVz
F1.5011626499999999
ssg255
(dp6292
Vy
F17.226058999999999
sVx
F-10.270572700000001
sVz
F1.5007939299999999
ssg257
I00
sg258
(dp6293
g41
VE6 Cratos HCS
p6294
sg43
Nssg262
(lp6295
sg264
(lp6296
sg266
I00
sg35
VPT7M51.1504117S
p6297
sg32
VDeath
p6298
sg269
I1
sa(dp6299
g32
VMedal
p6300
sg39
(dp6301
g41
VTL Danoxide
p6302
sg43
Nssg285
I3270120991
sg35
VPT7M51.1514329S
p6303
sa(dp6304
g38
I2133511419
sg32
VWeaponDrop
p6305
sg180
I32
sg44
(lp6306
I2758383128
asg35
VPT7M51.1524328S
p6307
sg183
I15
sg184
VP0DT0H0M15.2667S
p6308
sg39
(dp6309
g41
VE6 Cratos HCS
p6310
sg43
Nssa(dp6311
g38
I2133511419
sg32
VWeaponDrop
p6312
sg180
I0
sg44
(lp6313
I2758383128
asg35
VPT7M51.1524328S
p6314
sg183
I0
sg184
VP0DT0S
p6315
sg39
(dp6316
g41
VE6 Cratos HCS
p6317
sg43
Nssa(dp6318
g38
I4096745987
sg32
VWeaponDrop
p6319
sg180
I3
sg44
(lp6320
I2758383128
asg35
VPT7M51.1524328S
p6321
sg183
I1
sg184
VP0DT0H0M18.7500S
p6322
sg39
(dp6323
g41
VE6 Cratos HCS
p6324
sg43
Nssa(dp6325
g32
VRoundEnd
p6326
sg34
I0
sg35
VPT7M53.4994334S
p6327
sassb.