ccopy_reg
_reconstructor
p1
(c__main__
match_breakdown
p2
c__builtin__
object
p3
NtRp4
(dp5
S'details'
p6
(dp7
VIsCompleteSetOfEvents
p8
I01
sVLinks
p9
(dp10
VUgcFilmManifest
p11
(dp12
VAuthenticationLifetimeExtensionSupported
p13
I00
sVQueryString
p14
V?view=film-manifest
p15
sVRetryPolicyId
p16
Vexponentialretry
p17
sVPath
p18
V/h5/films/4008cafe-2675-432c-b127-bbb700ac9d77
p19
sVAcknowledgementTypeId
p20
I0
sVAuthorityId
p21
Vugc
p22
sVTopicName
p23
V
ssVStatsMatchDetails
p24
(dp25
g13
I00
sg14
Nsg16
Vexponentialretry
p26
sg18
Vh5/custom/matches/4008cafe-2675-432c-b127-bbb700ac9d77
p27
sg20
I0
sg21
Vspartanstats
p28
sg23
V
sssVGameEvents
p29
(lp30
(dp31
VEventName
p32
VRoundStart
p33
sVRoundIndex
p34
I0
sVTimeSinceStart
p35
VPT0.060001S
p36
sa(dp37
VWeaponStockId
p38
I313138863
sVPlayer
p39
(dp40
VGamertag
p41
VnV Mikwen HCS
p42
sVXuid
p43
NssVWeaponAttachmentIds
p44
(lp45
I1095363701
asg32
VWeaponPickup
p46
sg35
VPT26.391022S
p47
sa(dp48
g38
I4096745987
sg39
(dp49
g41
VnV Mikwen HCS
p50
sg43
Nssg44
(lp51
I2758383128
asg32
VWeaponPickup
p52
sg35
VPT26.391022S
p53
sa(dp54
g32
VPlayerSpawn
p55
sg39
(dp56
g41
VnV Mikwen HCS
p57
sg43
Nssg35
VPT26.391022S
p58
sa(dp59
g38
I313138863
sg39
(dp60
g41
VnV Pistola HCS
p61
sg43
Nssg44
(lp62
I1095363701
asg32
VWeaponPickup
p63
sg35
VPT26.4070018S
p64
sa(dp65
g38
I4096745987
sg39
(dp66
g41
VnV Pistola HCS
p67
sg43
Nssg44
(lp68
I2758383128
asg32
VWeaponPickup
p69
sg35
VPT26.4080209S
p70
sa(dp71
g32
VPlayerSpawn
p72
sg39
(dp73
g41
VnV Pistola HCS
p74
sg43
Nssg35
VPT26.4080209S
p75
sa(dp76
g38
I313138863
sg39
(dp77
g41
VnV eL ToWn
p78
sg43
Nssg44
(lp79
I1095363701
asg32
VWeaponPickup
p80
sg35
VPT26.4240204S
p81
sa(dp82
g38
I4096745987
sg39
(dp83
g41
VnV eL ToWn
p84
sg43
Nssg44
(lp85
I2758383128
asg32
VWeaponPickup
p86
sg35
VPT26.425021S
p87
sa(dp88
g32
VPlayerSpawn
p89
sg39
(dp90
g41
VnV eL ToWn
p91
sg43
Nssg35
VPT26.425021S
p92
sa(dp93
g38
I313138863
sg39
(dp94
g41
VTL Danoxide
p95
sg43
Nssg44
(lp96
I1095363701
asg32
VWeaponPickup
p97
sg35
VPT26.4410206S
p98
sa(dp99
g38
I4096745987
sg39
(dp100
g41
VTL Danoxide
p101
sg43
Nssg44
(lp102
I2758383128
asg32
VWeaponPickup
p103
sg35
VPT26.4410206S
p104
sa(dp105
g32
VPlayerSpawn
p106
sg39
(dp107
g41
VTL Danoxide
p108
sg43
Nssg35
VPT26.4410206S
p109
sa(dp110
g38
I313138863
sg39
(dp111
g41
VTL StelluR
p112
sg43
Nssg44
(lp113
I1095363701
asg32
VWeaponPickup
p114
sg35
VPT26.4580215S
p115
sa(dp116
g38
I4096745987
sg39
(dp117
g41
VTL StelluR
p118
sg43
Nssg44
(lp119
I2758383128
asg32
VWeaponPickup
p120
sg35
VPT26.4580215S
p121
sa(dp122
g32
VPlayerSpawn
p123
sg39
(dp124
g41
VTL StelluR
p125
sg43
Nssg35
VPT26.4580215S
p126
sa(dp127
g38
I313138863
sg39
(dp128
g41
VTL Spartan HCS
p129
sg43
Nssg44
(lp130
I1095363701
asg32
VWeaponPickup
p131
sg35
VPT26.4740206S
p132
sa(dp133
g38
I4096745987
sg39
(dp134
g41
VTL Spartan HCS
p135
sg43
Nssg44
(lp136
I2758383128
asg32
VWeaponPickup
p137
sg35
VPT26.4740206S
p138
sa(dp139
g32
VPlayerSpawn
p140
sg39
(dp141
g41
VTL Spartan HCS
p142
sg43
Nssg35
VPT26.4740206S
p143
sa(dp144
g38
I313138863
sg39
(dp145
g41
VnV RayneHCS
p146
sg43
Nssg44
(lp147
I1095363701
asg32
VWeaponPickup
p148
sg35
VPT26.4910232S
p149
sa(dp150
g38
I4096745987
sg39
(dp151
g41
VnV RayneHCS
p152
sg43
Nssg44
(lp153
I2758383128
asg32
VWeaponPickup
p154
sg35
VPT26.4910232S
p155
sa(dp156
g32
VPlayerSpawn
p157
sg39
(dp158
g41
VnV RayneHCS
p159
sg43
Nssg35
VPT26.4910232S
p160
sa(dp161
g38
I313138863
sg39
(dp162
g41
VLiquid Eco
p163
sg43
Nssg44
(lp164
I1095363701
asg32
VWeaponPickup
p165
sg35
VPT26.5070014S
p166
sa(dp167
g38
I4096745987
sg39
(dp168
g41
VLiquid Eco
p169
sg43
Nssg44
(lp170
I2758383128
asg32
VWeaponPickup
p171
sg35
VPT26.5080255S
p172
sa(dp173
g32
VPlayerSpawn
p174
sg39
(dp175
g41
VLiquid Eco
p176
sg43
Nssg35
VPT26.5080255S
p177
sa(dp178
g38
I4096745987
sg32
VWeaponDrop
p179
sVShotsFired
p180
I0
sg44
(lp181
I2758383128
asg35
VPT29.3720032S
p182
sVShotsLanded
p183
I0
sVTimeWeaponActiveAsPrimary
p184
VP0DT0H0M0.1667S
p185
sg39
(dp186
g41
VTL StelluR
p187
sg43
Nssa(dp188
g38
I424645655
sg39
(dp189
g41
VTL StelluR
p190
sg43
Nssg44
(lp191
I1327094800
asg32
VWeaponPickup
p192
sg35
VPT29.3730205S
p193
sa(dp194
g38
I2492868984
sg39
(dp195
g41
VLiquid Eco
p196
sg43
Nssg44
(lp197
I2758383128
asg32
VWeaponPickup
p198
sg35
VPT33.0729992S
p199
sa(dp200
g38
I2492868984
sg32
VWeaponDrop
p201
sg180
I0
sg44
(lp202
I2758383128
asg35
VPT34.2240013S
p203
sg183
I0
sg184
VP0DT0H0M0.9833S
p204
sg39
(dp205
g41
VLiquid Eco
p206
sg43
Nssa(dp207
VKillerWeaponStockId
p208
I313138863
sVIsAssassination
p209
I00
sVIsMelee
p210
I01
sVKiller
p211
(dp212
g41
VTL Spartan HCS
p213
sg43
NssVKillerWeaponAttachmentIds
p214
(lp215
I1095363701
asVIsGroundPound
p216
I00
sVIsWeapon
p217
I00
sVDeathDisposition
p218
I1
sVVictimStockId
p219
I0
sVVictimAgent
p220
I1
sVKillerWorldLocation
p221
(dp222
Vy
F-0.87750289999999997
sVx
F-1.5332748899999999
sVz
F2.55304837
ssVVictimWorldLocation
p223
(dp224
Vy
F-0.52998489999999998
sVx
F-1.2633862499999999
sVz
F2.4000008099999999
ssVIsShoulderBash
p225
I00
sVVictim
p226
(dp227
g41
VnV Pistola HCS
p228
sg43
NssVVictimAttachmentIds
p229
(lp230
sVAssistants
p231
(lp232
sVIsHeadshot
p233
I00
sg35
VPT37.109021S
p234
sg32
VDeath
p235
sVKillerAgent
p236
I1
sa(dp237
g32
VMedal
p238
sg39
(dp239
g41
VTL Spartan HCS
p240
sg43
NssVMedalId
p241
I2287626681
sg35
VPT37.1120203S
p242
sa(dp243
g32
VMedal
p244
sg39
(dp245
g41
VTL Spartan HCS
p246
sg43
Nssg241
I3001183151
sg35
VPT37.1130264S
p247
sa(dp248
g38
I313138863
sg32
VWeaponDrop
p249
sg180
I9
sg44
(lp250
I1095363701
asg35
VPT37.1160026S
p251
sg183
I2
sg184
VP0DT0H0M5.7833S
p252
sg39
(dp253
g41
VnV Pistola HCS
p254
sg43
Nssa(dp255
g38
I4096745987
sg32
VWeaponDrop
p256
sg180
I0
sg44
(lp257
I2758383128
asg35
VPT37.1170027S
p258
sg183
I0
sg184
VP0DT0H0M4.9167S
p259
sg39
(dp260
g41
VnV Pistola HCS
p261
sg43
Nssa(dp262
g208
I3190813201
sg209
I00
sg210
I00
sg211
(dp263
g41
VnV Pistola HCS
p264
sg43
Nssg214
(lp265
sg216
I00
sg217
I01
sg218
I1
sg219
I0
sg220
I1
sg221
(dp266
Vy
F-0.45271235700000001
sVx
F-1.0168081499999999
sVz
F2.30645561
ssg223
(dp267
Vy
F-0.87268489999999999
sVx
F-1.661043
sVz
F2.40000057
ssg225
I00
sg226
(dp268
g41
VTL Spartan HCS
p269
sg43
Nssg229
(lp270
sg231
(lp271
(dp272
g41
VnV eL ToWn
p273
sg43
Nsasg233
I00
sg35
VPT37.2900008S
p274
sg32
VDeath
p275
sg236
I1
sa(dp276
g38
I313138863
sg32
VWeaponDrop
p277
sg180
I12
sg44
(lp278
I1095363701
asg35
VPT37.2920228S
p279
sg183
I7
sg184
VP0DT0H0M8.4500S
p280
sg39
(dp281
g41
VTL Spartan HCS
p282
sg43
Nssa(dp283
g38
I313138863
sg32
VWeaponDrop
p284
sg180
I0
sg44
(lp285
I1095363701
asg35
VPT37.2920228S
p286
sg183
I0
sg184
VP0DT0S
p287
sg39
(dp288
g41
VTL Spartan HCS
p289
sg43
Nssa(dp290
g38
I4096745987
sg32
VWeaponDrop
p291
sg180
I0
sg44
(lp292
I2758383128
asg35
VPT37.2920228S
p293
sg183
I0
sg184
VP0DT0H0M2.3667S
p294
sg39
(dp295
g41
VTL Spartan HCS
p296
sg43
Nssa(dp297
g38
I2492868984
sg39
(dp298
g41
VTL StelluR
p299
sg43
Nssg44
(lp300
I2758383128
asg32
VWeaponPickup
p301
sg35
VPT39.8560009S
p302
sa(dp303
g38
I313138863
sg32
VWeaponDrop
p304
sg180
I0
sg44
(lp305
I1095363701
asg35
VPT40.1880015S
p306
sg183
I0
sg184
VP0DT0H0M1.0000S
p307
sg39
(dp308
g41
VTL Danoxide
p309
sg43
Nssa(dp310
g38
I723388907
sg39
(dp311
g41
VTL Danoxide
p312
sg43
Nssg44
(lp313
I89283061
asg32
VWeaponPickup
p314
sg35
VPT40.1890015S
p315
sa(dp316
g38
I2492868984
sg32
VWeaponDrop
p317
sg180
I0
sg44
(lp318
I2758383128
asg35
VPT41.0070002S
p319
sg183
I0
sg184
VP0DT0H0M0.9833S
p320
sg39
(dp321
g41
VTL StelluR
p322
sg43
Nssa(dp323
g32
VMedal
p324
sg39
(dp325
g41
VnV eL ToWn
p326
sg43
Nssg241
I3565443938
sg35
VPT41.4820022S
p327
sa(dp328
g38
I313138863
sg39
(dp329
g41
VnV Pistola HCS
p330
sg43
Nssg44
(lp331
I1095363701
asg32
VWeaponPickup
p332
sg35
VPT45.1230014S
p333
sa(dp334
g38
I4096745987
sg39
(dp335
g41
VnV Pistola HCS
p336
sg43
Nssg44
(lp337
I2758383128
asg32
VWeaponPickup
p338
sg35
VPT45.1240248S
p339
sa(dp340
g32
VPlayerSpawn
p341
sg39
(dp342
g41
VnV Pistola HCS
p343
sg43
Nssg35
VPT45.1240248S
p344
sa(dp345
g38
I313138863
sg39
(dp346
g41
VTL Spartan HCS
p347
sg43
Nssg44
(lp348
I1095363701
asg32
VWeaponPickup
p349
sg35
VPT45.3070016S
p350
sa(dp351
g38
I4096745987
sg39
(dp352
g41
VTL Spartan HCS
p353
sg43
Nssg44
(lp354
I2758383128
asg32
VWeaponPickup
p355
sg35
VPT45.3070016S
p356
sa(dp357
g32
VPlayerSpawn
p358
sg39
(dp359
g41
VTL Spartan HCS
p360
sg43
Nssg35
VPT45.3070016S
p361
sa(dp362
g208
I4096745987
sg209
I00
sg210
I00
sg211
(dp363
g41
VLiquid Eco
p364
sg43
Nssg214
(lp365
I2758383128
asg216
I00
sg217
I01
sg218
I1
sg219
I0
sg220
I1
sg221
(dp366
Vy
F8.3154880000000002
sVx
F18.1745567
sVz
F1.6058958800000001
ssg223
(dp367
Vy
F-1.8784102199999999
sVx
F23.113102000000001
sVz
F0.9745511
ssg225
I00
sg226
(dp368
g41
VnV RayneHCS
p369
sg43
Nssg229
(lp370
sg231
(lp371
(dp372
g41
VTL Danoxide
p373
sg43
Nsasg233
I01
sg35
VPT45.723007S
p374
sg32
VDeath
p375
sg236
I1
sa(dp376
g32
VMedal
p377
sg39
(dp378
g41
VLiquid Eco
p379
sg43
Nssg241
I3261908037
sg35
VPT45.7250024S
p380
sa(dp381
g38
I313138863
sg32
VWeaponDrop
p382
sg180
I13
sg44
(lp383
I1095363701
asg35
VPT45.7250024S
p384
sg183
I4
sg184
VP0DT0H0M5.0500S
p385
sg39
(dp386
g41
VnV RayneHCS
p387
sg43
Nssa(dp388
g38
I4096745987
sg32
VWeaponDrop
p389
sg180
I10
sg44
(lp390
I2758383128
asg35
VPT45.7250024S
p391
sg183
I7
sg184
VP0DT0H0M14.1833S
p392
sg39
(dp393
g41
VnV RayneHCS
p394
sg43
Nssa(dp395
g32
VMedal
p396
sg39
(dp397
g41
VTL Danoxide
p398
sg43
Nssg241
I3565443938
sg35
VPT47.2220012S
p399
sa(dp400
g32
VMedal
p401
sg39
(dp402
g41
VLiquid Eco
p403
sg43
Nssg241
I3565443938
sg35
VPT47.2220012S
p404
sa(dp405
g208
I4096745987
sg209
I00
sg210
I00
sg211
(dp406
g41
VTL Danoxide
p407
sg43
Nssg214
(lp408
I2758383128
asg216
I00
sg217
I01
sg218
I1
sg219
I0
sg220
I1
sg221
(dp409
Vy
F13.403689399999999
sVx
F16.978012100000001
sVz
F2.5434071999999999
ssg223
(dp410
Vy
F4.8733760000000004
sVx
F16.623395899999998
sVz
F2.3995150000000001
ssg225
I00
sg226
(dp411
g41
VnV Mikwen HCS
p412
sg43
Nssg229
(lp413
sg231
(lp414
(dp415
g41
VLiquid Eco
p416
sg43
Nsasg233
I01
sg35
VPT48.1400011S
p417
sg32
VDeath
p418
sg236
I1
sa(dp419
g32
VMedal
p420
sg39
(dp421
g41
VTL Danoxide
p422
sg43
Nssg241
I3261908037
sg35
VPT48.1410272S
p423
sa(dp424
g38
I313138863
sg32
VWeaponDrop
p425
sg180
I16
sg44
(lp426
I1095363701
asg35
VPT48.1420263S
p427
sg183
I7
sg184
VP0DT0H0M13.4667S
p428
sg39
(dp429
g41
VnV Mikwen HCS
p430
sg43
Nssa(dp431
g38
I4096745987
sg32
VWeaponDrop
p432
sg180
I0
sg44
(lp433
I2758383128
asg35
VPT48.1420263S
p434
sg183
I0
sg184
VP0DT0H0M8.2833S
p435
sg39
(dp436
g41
VnV Mikwen HCS
p437
sg43
Nssa(dp438
g38
I4096745987
sg32
VWeaponDrop
p439
sg180
I0
sg44
(lp440
I2758383128
asg35
VPT49.0210219S
p441
sg183
I0
sg184
VP0DT0H0M3.0500S
p442
sg39
(dp443
g41
VnV Pistola HCS
p444
sg43
Nssa(dp445
g38
I2511447508
sg39
(dp446
g41
VnV Pistola HCS
p447
sg43
Nssg44
(lp448
I2758383128
asg32
VWeaponPickup
p449
sg35
VPT49.0220249S
p450
sa(dp451
g208
I424645655
sg209
I00
sg210
I00
sg211
(dp452
g41
VTL StelluR
p453
sg43
Nssg214
(lp454
I1327094800
asg216
I00
sg217
I01
sg218
I1
sg219
I0
sg220
I1
sg221
(dp455
Vy
F0.72370409999999996
sVx
F2.3038639999999999
sVz
F3.4763476799999999
ssg223
(dp456
Vy
F-7.9227623899999999
sVx
F9.0513030000000008
sVz
F3.1405026899999999
ssg225
I00
sg226
(dp457
g41
VnV eL ToWn
p458
sg43
Nssg229
(lp459
sg231
(lp460
sg233
I01
sg35
VPT50.4060009S
p461
sg32
VDeath
p462
sg236
I1
sa(dp463
g32
VMedal
p464
sg39
(dp465
g41
VTL StelluR
p466
sg43
Nssg241
I3261908037
sg35
VPT50.4080234S
p467
sa(dp468
g38
I313138863
sg32
VWeaponDrop
p469
sg180
I0
sg44
(lp470
I1095363701
asg35
VPT50.4090219S
p471
sg183
I0
sg184
VP0DT0H0M0.9333S
p472
sg39
(dp473
g41
VnV eL ToWn
p474
sg43
Nssa(dp475
g38
I4096745987
sg32
VWeaponDrop
p476
sg180
I13
sg44
(lp477
I2758383128
asg35
VPT50.4090219S
p478
sg183
I4
sg184
VP0DT0H0M23.0500S
p479
sg39
(dp480
g41
VnV eL ToWn
p481
sg43
Nssa(dp482
g208
I2511447508
sg209
I00
sg210
I00
sg211
(dp483
g41
VnV Pistola HCS
p484
sg43
Nssg214
(lp485
I2758383128
asg216
I00
sg217
I01
sg218
I1
sg219
I0
sg220
I1
sg221
(dp486
Vy
F-7.1666402800000002
sVx
F20.183857
sVz
F2.4429733800000002
ssg223
(dp487
Vy
F-0.165606841
sVx
F26.575067499999999
sVz
F1.6084711599999999
ssg225
I00
sg226
(dp488
g41
VLiquid Eco
p489
sg43
Nssg229
(lp490
sg231
(lp491
(dp492
g41
VnV Mikwen HCS
p493
sg43
Nsasg233
I01
sg35
VPT53.1560009S
p494
sg32
VDeath
p495
sg236
I1
sa(dp496
g32
VMedal
p497
sg39
(dp498
g41
VnV Pistola HCS
p499
sg43
Nssg241
I3261908037
sg35
VPT53.1580036S
p500
sa(dp501
g38
I313138863
sg32
VWeaponDrop
p502
sg180
I28
sg44
(lp503
I1095363701
asg35
VPT53.159021S
p504
sg183
I8
sg184
VP0DT0H0M17.6500S
p505
sg39
(dp506
g41
VLiquid Eco
p507
sg43
Nssa(dp508
g38
I4096745987
sg32
VWeaponDrop
p509
sg180
I8
sg44
(lp510
I2758383128
asg35
VPT53.159021S
p511
sg183
I5
sg184
VP0DT0H0M8.0000S
p512
sg39
(dp513
g41
VLiquid Eco
p514
sg43
Nssa(dp515
g38
I313138863
sg39
(dp516
g41
VnV RayneHCS
p517
sg43
Nssg44
(lp518
I1095363701
asg32
VWeaponPickup
p519
sg35
VPT53.7400219S
p520
sa(dp521
g38
I4096745987
sg39
(dp522
g41
VnV RayneHCS
p523
sg43
Nssg44
(lp524
I2758383128
asg32
VWeaponPickup
p525
sg35
VPT53.7400219S
p526
sa(dp527
g32
VPlayerSpawn
p528
sg39
(dp529
g41
VnV RayneHCS
p530
sg43
Nssg35
VPT53.7400219S
p531
sa(dp532
g32
VMedal
p533
sg39
(dp534
g41
VTL StelluR
p535
sg43
Nssg241
I3565443938
sg35
VPT55.655001S
p536
sa(dp537
g32
VMedal
p538
sg39
(dp539
g41
VTL Spartan HCS
p540
sg43
Nssg241
I3565443938
sg35
VPT55.655001S
p541
sa(dp542
g38
I313138863
sg39
(dp543
g41
VnV Mikwen HCS
p544
sg43
Nssg44
(lp545
I1095363701
asg32
VWeaponPickup
p546
sg35
VPT56.1570206S
p547
sa(dp548
g38
I4096745987
sg39
(dp549
g41
VnV Mikwen HCS
p550
sg43
Nssg44
(lp551
I2758383128
asg32
VWeaponPickup
p552
sg35
VPT56.1570206S
p553
sa(dp554
g32
VPlayerSpawn
p555
sg39
(dp556
g41
VnV Mikwen HCS
p557
sg43
Nssg35
VPT56.1570206S
p558
sa(dp559
g208
I723388907
sg209
I00
sg210
I00
sg211
(dp560
g41
VTL Danoxide
p561
sg43
Nssg214
(lp562
I89283061
asg216
I00
sg217
I01
sg218
I1
sg219
I0
sg220
I1
sg221
(dp563
Vy
F-3.4486477400000002
sVx
F21.866890000000001
sVz
F0.98935854400000001
ssg223
(dp564
Vy
F-7.0559244200000002
sVx
F23.608650000000001
sVz
F1.6176079999999999
ssg225
I00
sg226
(dp565
g41
VnV Pistola HCS
p566
sg43
Nssg229
(lp567
sg231
(lp568
(dp569
g41
VLiquid Eco
p570
sg43
Nsasg233
I00
sg35
VPT56.4899998S
p571
sg32
VDeath
p572
sg236
I1
sa(dp573
g38
I313138863
sg32
VWeaponDrop
p574
sg180
I0
sg44
(lp575
I1095363701
asg35
VPT56.4919997S
p576
sg183
I0
sg184
VP0DT0H0M0.8500S
p577
sg39
(dp578
g41
VnV Pistola HCS
p579
sg43
Nssa(dp580
g38
I2511447508
sg32
VWeaponDrop
p581
sg180
I5
sg44
(lp582
I2758383128
asg35
VPT56.4919997S
p583
sg183
I5
sg184
VP0DT0H0M7.4667S
p584
sg39
(dp585
g41
VnV Pistola HCS
p586
sg43
Nssa(dp587
g38
I313138863
sg39
(dp588
g41
VnV eL ToWn
p589
sg43
Nssg44
(lp590
I1095363701
asg32
VWeaponPickup
p591
sg35
VPT58.4230016S
p592
sa(dp593
g38
I4096745987
sg39
(dp594
g41
VnV eL ToWn
p595
sg43
Nssg44
(lp596
I2758383128
asg32
VWeaponPickup
p597
sg35
VPT58.4230016S
p598
sa(dp599
g32
VPlayerSpawn
p600
sg39
(dp601
g41
VnV eL ToWn
p602
sg43
Nssg35
VPT58.4230016S
p603
sa(dp604
g208
I424645655
sg209
I00
sg210
I00
sg211
(dp605
g41
VTL StelluR
p606
sg43
Nssg214
(lp607
I1327094800
asg216
I00
sg217
I01
sg218
I1
sg219
I0
sg220
I1
sg221
(dp608
Vy
F-0.011700768
sVx
F3.4946362999999998
sVz
F3.7001571700000002
ssg223
(dp609
Vy
F-13.133471500000001
sVx
F3.3037664900000001
sVz
F0.68526540000000002
ssg225
I00
sg226
(dp610
g41
VnV RayneHCS
p611
sg43
Nssg229
(lp612
sg231
(lp613
sg233
I01
sg35
VPT58.8220016S
p614
sg32
VDeath
p615
sg236
I1
sa(dp616
g32
VMedal
p617
sg39
(dp618
g41
VTL StelluR
p619
sg43
Nssg241
I3261908037
sg35
VPT58.8250207S
p620
sa(dp621
g38
I313138863
sg32
VWeaponDrop
p622
sg180
I0
sg44
(lp623
I1095363701
asg35
VPT58.8250207S
p624
sg183
I0
sg184
VP0DT0H0M0.7500S
p625
sg39
(dp626
g41
VnV RayneHCS
p627
sg43
Nssa(dp628
g38
I4096745987
sg32
VWeaponDrop
p629
sg180
I9
sg44
(lp630
I2758383128
asg35
VPT58.8250207S
p631
sg183
I5
sg184
VP0DT0H0M4.3333S
p632
sg39
(dp633
g41
VnV RayneHCS
p634
sg43
Nssa(dp635
g38
I313138863
sg39
(dp636
g41
VLiquid Eco
p637
sg43
Nssg44
(lp638
I1095363701
asg32
VWeaponPickup
p639
sg35
VPT1M1.1730222S
p640
sa(dp641
g38
I4096745987
sg39
(dp642
g41
VLiquid Eco
p643
sg43
Nssg44
(lp644
I2758383128
asg32
VWeaponPickup
p645
sg35
VPT1M1.1730222S
p646
sa(dp647
g32
VPlayerSpawn
p648
sg39
(dp649
g41
VLiquid Eco
p650
sg43
Nssg35
VPT1M1.1730222S
p651
sa(dp652
g38
I4096745987
sg32
VWeaponDrop
p653
sg180
I0
sg44
(lp654
I2758383128
asg35
VPT1M3.5710263S
p655
sg183
I0
sg184
VP0DT0H0M1.7167S
p656
sg39
(dp657
g41
VLiquid Eco
p658
sg43
Nssa(dp659
g38
I424645655
sg39
(dp660
g41
VLiquid Eco
p661
sg43
Nssg44
(lp662
I1327094800
asg32
VWeaponPickup
p663
sg35
VPT1M3.5710263S
p664
sa(dp665
g38
I313138863
sg39
(dp666
g41
VnV Pistola HCS
p667
sg43
Nssg44
(lp668
I1095363701
asg32
VWeaponPickup
p669
sg35
VPT1M4.506003S
p670
sa(dp671
g38
I4096745987
sg39
(dp672
g41
VnV Pistola HCS
p673
sg43
Nssg44
(lp674
I2758383128
asg32
VWeaponPickup
p675
sg35
VPT1M4.506003S
p676
sa(dp677
g32
VPlayerSpawn
p678
sg39
(dp679
g41
VnV Pistola HCS
p680
sg43
Nssg35
VPT1M4.506003S
p681
sa(dp682
g38
I313138863
sg39
(dp683
g41
VnV RayneHCS
p684
sg43
Nssg44
(lp685
I1095363701
asg32
VWeaponPickup
p686
sg35
VPT1M6.8390224S
p687
sa(dp688
g38
I4096745987
sg39
(dp689
g41
VnV RayneHCS
p690
sg43
Nssg44
(lp691
I2758383128
asg32
VWeaponPickup
p692
sg35
VPT1M6.8400087S
p693
sa(dp694
g32
VPlayerSpawn
p695
sg39
(dp696
g41
VnV RayneHCS
p697
sg43
Nssg35
VPT1M6.8400087S
p698
sa(dp699
g208
I723388907
sg209
I00
sg210
I00
sg211
(dp700
g41
VTL Danoxide
p701
sg43
Nssg214
(lp702
I89283061
asg216
I00
sg217
I01
sg218
I1
sg219
I0
sg220
I1
sg221
(dp703
Vy
F-8.2877919999999996
sVx
F19.718214
sVz
F1.6210519999999999
ssg223
(dp704
Vy
F-7.301609
sVx
F17.081716499999999
sVz
F1.5862025
ssg225
I00
sg226
(dp705
g41
VnV Mikwen HCS
p706
sg43
Nssg229
(lp707
sg231
(lp708
sg233
I00
sg35
VPT1M13.9220019S
p709
sg32
VDeath
p710
sg236
I1
sa(dp711
g38
I313138863
sg32
VWeaponDrop
p712
sg180
I0
sg44
(lp713
I1095363701
asg35
VPT1M13.9250218S
p714
sg183
I0
sg184
VP0DT0H0M3.4667S
p715
sg39
(dp716
g41
VnV Mikwen HCS
p717
sg43
Nssa(dp718
g38
I4096745987
sg32
VWeaponDrop
p719
sg180
I9
sg44
(lp720
I2758383128
asg35
VPT1M13.9250218S
p721
sg183
I1
sg184
VP0DT0H0M14.3000S
p722
sg39
(dp723
g41
VnV Mikwen HCS
p724
sg43
Nssa(dp725
g208
I424645655
sg209
I00
sg210
I00
sg211
(dp726
g41
VTL StelluR
p727
sg43
Nssg214
(lp728
I1327094800
asg216
I00
sg217
I01
sg218
I1
sg219
I0
sg220
I1
sg221
(dp729
Vy
F10.0440769
sVx
F1.7401228
sVz
F4.2228813199999999
ssg223
(dp730
Vy
F1.1689688
sVx
F5.2169413599999999
sVz
F3.7001574000000002
ssg225
I00
sg226
(dp731
g41
VnV RayneHCS
p732
sg43
Nssg229
(lp733
sg231
(lp734
sg233
I01
sg35
VPT1M15.4220005S
p735
sg32
VDeath
p736
sg236
I1
sa(dp737
g32
VMedal
p738
sg39
(dp739
g41
VTL StelluR
p740
sg43
Nssg241
I1351381581
sg35
VPT1M15.4240222S
p741
sa(dp742
g32
VMedal
p743
sg39
(dp744
g41
VTL StelluR
p745
sg43
Nssg241
I3261908037
sg35
VPT1M15.4250249S
p746
sa(dp747
g38
I313138863
sg32
VWeaponDrop
p748
sg180
I11
sg44
(lp749
I1095363701
asg35
VPT1M15.4260218S
p750
sg183
I4
sg184
VP0DT0H0M3.4333S
p751
sg39
(dp752
g41
VnV RayneHCS
p753
sg43
Nssa(dp754
g38
I4096745987
sg32
VWeaponDrop
p755
sg180
I3
sg44
(lp756
I2758383128
asg35
VPT1M15.4260218S
p757
sg183
I1
sg184
VP0DT0H0M5.1500S
p758
sg39
(dp759
g41
VnV RayneHCS
p760
sg43
Nssa(dp761
g208
I4096745987
sg209
I00
sg210
I00
sg211
(dp762
g41
VnV RayneHCS
p763
sg43
Nssg214
(lp764
I2758383128
asg216
I00
sg217
I01
sg218
I1
sg219
I0
sg220
I1
sg221
(dp765
Vy
F1.1689688
sVx
F5.2169413599999999
sVz
F3.7001574000000002
ssg223
(dp766
Vy
F10.0440769
sVx
F1.7401228
sVz
F4.2228813199999999
ssg225
I00
sg226
(dp767
g41
VTL StelluR
p768
sg43
Nssg229
(lp769
sg231
(lp770
(dp771
g41
VnV Pistola HCS
p772
sg43
Nsasg233
I01
sg35
VPT1M15.4270208S
p773
sg32
VDeath
p774
sg236
I1
sa(dp775
g32
VMedal
p776
sg39
(dp777
g41
VnV RayneHCS
p778
sg43
Nssg241
I3261908037
sg35
VPT1M15.4280033S
p779
sa(dp780
g38
I313138863
sg32
VWeaponDrop
p781
sg180
I0
sg44
(lp782
I1095363701
asg35
VPT1M15.4280033S
p783
sg183
I0
sg184
VP0DT0H0M2.7500S
p784
sg39
(dp785
g41
VTL StelluR
p786
sg43
Nssa(dp787
g38
I424645655
sg32
VWeaponDrop
p788
sg180
I76
sg44
(lp789
I1327094800
asg35
VPT1M15.4280033S
p790
sg183
I42
sg184
VP0DT0H0M45.0500S
p791
sg39
(dp792
g41
VTL StelluR
p793
sg43
Nssa(dp794
g38
I313138863
sg32
VWeaponDrop
p795
sg180
I0
sg44
(lp796
I1095363701
asg35
VPT1M16.1370221S
p797
sg183
I0
sg184
VP0DT0H0M0.8167S
p798
sg39
(dp799
g41
VLiquid Eco
p800
sg43
Nssa(dp801
g38
I2902827823
sg39
(dp802
g41
VLiquid Eco
p803
sg43
Nssg44
(lp804
I2758383128
asg32
VWeaponPickupPad
p805
sg35
VPT1M16.1370221S
p806
sa(dp807
g38
I2902827823
sg39
(dp808
g41
VLiquid Eco
p809
sg43
Nssg44
(lp810
I2758383128
asg32
VWeaponPickup
p811
sg35
VPT1M16.1390033S
p812
sa(dp813
g208
I313138863
sg209
I00
sg210
I00
sg211
(dp814
g41
VTL Spartan HCS
p815
sg43
Nssg214
(lp816
I1095363701
asg216
I00
sg217
I01
sg218
I1
sg219
I0
sg220
I1
sg221
(dp817
Vy
F-14.4660416
sVx
F11.5603456
sVz
F0.77935755299999998
ssg223
(dp818
Vy
F-17.913501700000001
sVx
F12.78102
sVz
F2.2141802300000002
ssg225
I00
sg226
(dp819
g41
VnV eL ToWn
p820
sg43
Nssg229
(lp821
sg231
(lp822
(dp823
g41
VLiquid Eco
p824
sg43
Nsasg233
I00
sg35
VPT1M20.1550014S
p825
sg32
VDeath
p826
sg236
I1
sa(dp827
g38
I313138863
sg32
VWeaponDrop
p828
sg180
I12
sg44
(lp829
I1095363701
asg35
VPT1M20.1560007S
p830
sg183
I1
sg184
VP0DT0H0M6.6333S
p831
sg39
(dp832
g41
VnV eL ToWn
p833
sg43
Nssa(dp834
g38
I4096745987
sg32
VWeaponDrop
p835
sg180
I10
sg44
(lp836
I2758383128
asg35
VPT1M20.1560007S
p837
sg183
I5
sg184
VP0DT0H0M15.1000S
p838
sg39
(dp839
g41
VnV eL ToWn
p840
sg43
Nssa(dp841
g208
I4096745987
sg209
I00
sg210
I00
sg211
(dp842
g41
VnV Pistola HCS
p843
sg43
Nssg214
(lp844
I2758383128
asg216
I00
sg217
I01
sg218
I1
sg219
I0
sg220
I1
sg221
(dp845
Vy
F1.7572700999999999
sVx
F3.95153928
sVz
F3.7001571700000002
ssg223
(dp846
Vy
F-9.3293090000000003
sVx
F8.6607649999999996
sVz
F3.9746065100000001
ssg225
I00
sg226
(dp847
g41
VTL Danoxide
p848
sg43
Nssg229
(lp849
sg231
(lp850
sg233
I01
sg35
VPT1M20.7050006S
p851
sg32
VDeath
p852
sg236
I1
sa(dp853
g32
VImpulse
p854
sg39
(dp855
g41
VnV Pistola HCS
p856
sg43
NssVImpulseId
p857
I3174430457
sg35
VPT1M20.7060215S
p858
sa(dp859
g32
VMedal
p860
sg39
(dp861
g41
VnV Pistola HCS
p862
sg43
Nssg241
I3653057799
sg35
VPT1M20.7070032S
p863
sa(dp864
g38
I723388907
sg32
VWeaponDrop
p865
sg180
I53
sg44
(lp866
I89283061
asg35
VPT1M20.7070032S
p867
sg183
I25
sg184
VP0DT0H0M12.8500S
p868
sg39
(dp869
g41
VTL Danoxide
p870
sg43
Nssa(dp871
g38
I4096745987
sg32
VWeaponDrop
p872
sg180
I27
sg44
(lp873
I2758383128
asg35
VPT1M20.7070032S
p874
sg183
I15
sg184
VP0DT0H0M40.4167S
p875
sg39
(dp876
g41
VTL Danoxide
p877
sg43
Nssa(dp878
g38
I313138863
sg39
(dp879
g41
VnV Mikwen HCS
p880
sg43
Nssg44
(lp881
I1095363701
asg32
VWeaponPickup
p882
sg35
VPT1M21.9380007S
p883
sa(dp884
g38
I4096745987
sg39
(dp885
g41
VnV Mikwen HCS
p886
sg43
Nssg44
(lp887
I2758383128
asg32
VWeaponPickup
p888
sg35
VPT1M21.939S
p889
sa(dp890
g32
VPlayerSpawn
p891
sg39
(dp892
g41
VnV Mikwen HCS
p893
sg43
Nssg35
VPT1M21.939S
p894
sa(dp895
g38
I313138863
sg39
(dp896
g41
VnV RayneHCS
p897
sg43
Nssg44
(lp898
I1095363701
asg32
VWeaponPickup
p899
sg35
VPT1M23.4380015S
p900
sa(dp901
g38
I4096745987
sg39
(dp902
g41
VnV RayneHCS
p903
sg43
Nssg44
(lp904
I2758383128
asg32
VWeaponPickup
p905
sg35
VPT1M23.4390206S
p906
sa(dp907
g32
VPlayerSpawn
p908
sg39
(dp909
g41
VnV RayneHCS
p910
sg43
Nssg35
VPT1M23.4390206S
p911
sa(dp912
g38
I313138863
sg39
(dp913
g41
VTL StelluR
p914
sg43
Nssg44
(lp915
I1095363701
asg32
VWeaponPickup
p916
sg35
VPT1M23.4720037S
p917
sa(dp918
g38
I4096745987
sg39
(dp919
g41
VTL StelluR
p920
sg43
Nssg44
(lp921
I2758383128
asg32
VWeaponPickup
p922
sg35
VPT1M23.4720037S
p923
sa(dp924
g32
VPlayerSpawn
p925
sg39
(dp926
g41
VTL StelluR
p927
sg43
Nssg35
VPT1M23.4720037S
p928
sa(dp929
g38
I313138863
sg32
VWeaponDrop
p930
sg180
I0
sg44
(lp931
I1095363701
asg35
VPT1M25.4030264S
p932
sg183
I0
sg184
VP0DT0H0M1.6833S
p933
sg39
(dp934
g41
VTL StelluR
p935
sg43
Nssa(dp936
g38
I2511447508
sg39
(dp937
g41
VTL StelluR
p938
sg43
Nssg44
(lp939
I2758383128
asg32
VWeaponPickup
p940
sg35
VPT1M25.4040263S
p941
sa(dp942
g208
I4106030681
sg209
I00
sg210
I00
sg211
(dp943
g41
VLiquid Eco
p944
sg43
Nssg214
(lp945
sg216
I00
sg217
I01
sg218
I1
sg219
I0
sg220
I1
sg221
(dp946
Vy
F-8.983136
sVx
F12.2695007
sVz
F3.1403884899999999
ssg223
(dp947
Vy
F1.85731852
sVx
F4.77770472
sVz
F3.7001574000000002
ssg225
I00
sg226
(dp948
g41
VnV Pistola HCS
p949
sg43
Nssg229
(lp950
sg231
(lp951
(dp952
g41
VTL Danoxide
p953
sg43
Nsasg233
I00
sg35
VPT1M25.4050006S
p954
sg32
VDeath
p955
sg236
I1
sa(dp956
g32
VMedal
p957
sg39
(dp958
g41
VLiquid Eco
p959
sg43
Nssg241
I1351381581
sg35
VPT1M25.4060277S
p960
sa(dp961
g38
I313138863
sg32
VWeaponDrop
p962
sg180
I9
sg44
(lp963
I1095363701
asg35
VPT1M25.4070198S
p964
sg183
I4
sg184
VP0DT0H0M5.4333S
p965
sg39
(dp966
g41
VnV Pistola HCS
p967
sg43
Nssa(dp968
g38
I4096745987
sg32
VWeaponDrop
p969
sg180
I5
sg44
(lp970
I2758383128
asg35
VPT1M25.4070198S
p971
sg183
I5
sg184
VP0DT0H0M15.4667S
p972
sg39
(dp973
g41
VnV Pistola HCS
p974
sg43
Nssa(dp975
g32
VMedal
p976
sg39
(dp977
g41
VnV Mikwen HCS
p978
sg43
Nssg241
I3565443938
sg35
VPT1M27.737001S
p979
sa(dp980
g32
VMedal
p981
sg39
(dp982
g41
VnV RayneHCS
p983
sg43
Nssg241
I1637841390
sg35
VPT1M27.737001S
p984
sa(dp985
g32
VMedal
p986
sg39
(dp987
g41
VnV Pistola HCS
p988
sg43
Nssg241
I1637841390
sg35
VPT1M27.737001S
p989
sa(dp990
g38
I313138863
sg39
(dp991
g41
VnV eL ToWn
p992
sg43
Nssg44
(lp993
I1095363701
asg32
VWeaponPickup
p994
sg35
VPT1M28.1782374S
p995
sa(dp996
g38
I4096745987
sg39
(dp997
g41
VnV eL ToWn
p998
sg43
Nssg44
(lp999
I2758383128
asg32
VWeaponPickup
p1000
sg35
VPT1M28.1790206S
p1001
sa(dp1002
g32
VPlayerSpawn
p1003
sg39
(dp1004
g41
VnV eL ToWn
p1005
sg43
Nssg35
VPT1M28.1790206S
p1006
sa(dp1007
g38
I313138863
sg39
(dp1008
g41
VTL Danoxide
p1009
sg43
Nssg44
(lp1010
I1095363701
asg32
VWeaponPickup
p1011
sg35
VPT1M28.7210015S
p1012
sa(dp1013
g38
I4096745987
sg39
(dp1014
g41
VTL Danoxide
p1015
sg43
Nssg44
(lp1016
I2758383128
asg32
VWeaponPickup
p1017
sg35
VPT1M28.7220264S
p1018
sa(dp1019
g32
VPlayerSpawn
p1020
sg39
(dp1021
g41
VTL Danoxide
p1022
sg43
Nssg35
VPT1M28.7220264S
p1023
sa(dp1024
g208
I2511447508
sg209
I00
sg210
I00
sg211
(dp1025
g41
VTL StelluR
p1026
sg43
Nssg214
(lp1027
I2758383128
asg216
I00
sg217
I01
sg218
I1
sg219
I0
sg220
I1
sg221
(dp1028
Vy
F-7.7047460000000001
sVx
F9.6277310000000007
sVz
F3.1403884899999999
ssg223
(dp1029
Vy
F1.0267869999999999
sVx
F6.1773915300000004
sVz
F3.2799284499999999
ssg225
I00
sg226
(dp1030
g41
VnV Mikwen HCS
p1031
sg43
Nssg229
(lp1032
sg231
(lp1033
(dp1034
g41
VTL Spartan HCS
p1035
sg43
Nsasg233
I00
sg35
VPT1M32.1379998S
p1036
sg32
VDeath
p1037
sg236
I1
sa(dp1038
g38
I313138863
sg32
VWeaponDrop
p1039
sg180
I0
sg44
(lp1040
I1095363701
asg35
VPT1M32.1400004S
p1041
sg183
I0
sg184
VP0DT0H0M0.8833S
p1042
sg39
(dp1043
g41
VnV Mikwen HCS
p1044
sg43
Nssa(dp1045
g38
I4096745987
sg32
VWeaponDrop
p1046
sg180
I7
sg44
(lp1047
I2758383128
asg35
VPT1M32.1400004S
p1048
sg183
I4
sg184
VP0DT0H0M9.3167S
p1049
sg39
(dp1050
g41
VnV Mikwen HCS
p1051
sg43
Nssa(dp1052
g32
VMedal
p1053
sg39
(dp1054
g41
VTL StelluR
p1055
sg43
Nssg241
I3565443938
sg35
VPT1M32.170001S
p1056
sa(dp1057
g32
VMedal
p1058
sg39
(dp1059
g41
VTL Danoxide
p1060
sg43
Nssg241
I1637841390
sg35
VPT1M32.1710031S
p1061
sa(dp1062
g32
VMedal
p1063
sg39
(dp1064
g41
VLiquid Eco
p1065
sg43
Nssg241
I1637841390
sg35
VPT1M32.1710031S
p1066
sa(dp1067
g208
I4096745987
sg209
I00
sg210
I00
sg211
(dp1068
g41
VnV RayneHCS
p1069
sg43
Nssg214
(lp1070
I2758383128
asg216
I00
sg217
I01
sg218
I1
sg219
I0
sg220
I1
sg221
(dp1071
Vy
F-2.4514155400000002
sVx
F-1.8710886200000001
sVz
F2.7645077699999998
ssg223
(dp1072
Vy
F-7.5783529999999999
sVx
F9.6805260000000004
sVz
F4.0070962899999998
ssg225
I00
sg226
(dp1073
g41
VTL StelluR
p1074
sg43
Nssg229
(lp1075
sg231
(lp1076
(dp1077
g41
VnV Mikwen HCS
p1078
sg43
Nsasg233
I01
sg35
VPT1M32.671001S
p1079
sg32
VDeath
p1080
sg236
I1
sa(dp1081
g32
VMedal
p1082
sg39
(dp1083
g41
VnV RayneHCS
p1084
sg43
Nssg241
I3261908037
sg35
VPT1M32.6730215S
p1085
sa(dp1086
g38
I2511447508
sg32
VWeaponDrop
p1087
sg180
I6
sg44
(lp1088
I2758383128
asg35
VPT1M32.6730215S
p1089
sg183
I3
sg184
VP0DT0H0M7.2667S
p1090
sg39
(dp1091
g41
VTL StelluR
p1092
sg43
Nssa(dp1093
g38
I4096745987
sg32
VWeaponDrop
p1094
sg180
I0
sg44
(lp1095
I2758383128
asg35
VPT1M32.6730215S
p1096
sg183
I0
sg184
VP0DT0H0M0.2500S
p1097
sg39
(dp1098
g41
VTL StelluR
p1099
sg43
Nssa(dp1100
g38
I313138863
sg39
(dp1101
g41
VnV Pistola HCS
p1102
sg43
Nssg44
(lp1103
I1095363701
asg32
VWeaponPickup
p1104
sg35
VPT1M33.4210014S
p1105
sa(dp1106
g38
I4096745987
sg39
(dp1107
g41
VnV Pistola HCS
p1108
sg43
Nssg44
(lp1109
I2758383128
asg32
VWeaponPickup
p1110
sg35
VPT1M33.422021S
p1111
sa(dp1112
g32
VPlayerSpawn
p1113
sg39
(dp1114
g41
VnV Pistola HCS
p1115
sg43
Nssg35
VPT1M33.422021S
p1116
sa(dp1117
g38
I313138863
sg32
VWeaponDrop
p1118
sg180
I0
sg44
(lp1119
I1095363701
asg35
VPT1M34.7030274S
p1120
sg183
I0
sg184
VP0DT0H0M0.6000S
p1121
sg39
(dp1122
g41
VnV eL ToWn
p1123
sg43
Nssa(dp1124
g38
I723388907
sg39
(dp1125
g41
VnV eL ToWn
p1126
sg43
Nssg44
(lp1127
I89283061
asg32
VWeaponPickup
p1128
sg35
VPT1M34.7030274S
p1129
sa(dp1130
g208
I4096745987
sg209
I00
sg210
I00
sg211
(dp1131
g41
VnV Pistola HCS
p1132
sg43
Nssg214
(lp1133
I2758383128
asg216
I00
sg217
I01
sg218
I1
sg219
I0
sg220
I1
sg221
(dp1134
Vy
F0.37965068200000002
sVx
F2.0240256799999998
sVz
F3.3367652900000002
ssg223
(dp1135
Vy
F-18.297000000000001
sVx
F0.60208165599999997
sVz
F2.0407862699999999
ssg225
I00
sg226
(dp1136
g41
VTL Spartan HCS
p1137
sg43
Nssg229
(lp1138
sg231
(lp1139
(dp1140
g41
VnV RayneHCS
p1141
sg43
Nsasg233
I01
sg35
VPT1M37.871S
p1142
sg32
VDeath
p1143
sg236
I1
sa(dp1144
g32
VMedal
p1145
sg39
(dp1146
g41
VnV Pistola HCS
p1147
sg43
Nssg241
I352859864
sg35
VPT1M37.871S
p1148
sa(dp1149
g32
VImpulse
p1150
sg39
(dp1151
g41
VnV Pistola HCS
p1152
sg43
Nssg857
I2556889090
sg35
VPT1M37.871S
p1153
sa(dp1154
g32
VMedal
p1155
sg39
(dp1156
g41
VnV Pistola HCS
p1157
sg43
Nssg241
I3261908037
sg35
VPT1M37.8720025S
p1158
sa(dp1159
g38
I313138863
sg32
VWeaponDrop
p1160
sg180
I25
sg44
(lp1161
I1095363701
asg35
VPT1M37.8730004S
p1162
sg183
I9
sg184
VP0DT0H0M23.7667S
p1163
sg39
(dp1164
g41
VTL Spartan HCS
p1165
sg43
Nssa(dp1166
g38
I4096745987
sg32
VWeaponDrop
p1167
sg180
I18
sg44
(lp1168
I2758383128
asg35
VPT1M37.8730004S
p1169
sg183
I11
sg184
VP0DT0H0M28.8000S
p1170
sg39
(dp1171
g41
VTL Spartan HCS
p1172
sg43
Nssa(dp1173
g38
I313138863
sg39
(dp1174
g41
VnV Mikwen HCS
p1175
sg43
Nssg44
(lp1176
I1095363701
asg32
VWeaponPickup
p1177
sg35
VPT1M40.1540014S
p1178
sa(dp1179
g38
I4096745987
sg39
(dp1180
g41
VnV Mikwen HCS
p1181
sg43
Nssg44
(lp1182
I2758383128
asg32
VWeaponPickup
p1183
sg35
VPT1M40.1550007S
p1184
sa(dp1185
g32
VPlayerSpawn
p1186
sg39
(dp1187
g41
VnV Mikwen HCS
p1188
sg43
Nssg35
VPT1M40.1550007S
p1189
sa(dp1190
g38
I313138863
sg39
(dp1191
g41
VTL StelluR
p1192
sg43
Nssg44
(lp1193
I1095363701
asg32
VWeaponPickup
p1194
sg35
VPT1M40.6880215S
p1195
sa(dp1196
g38
I4096745987
sg39
(dp1197
g41
VTL StelluR
p1198
sg43
Nssg44
(lp1199
I2758383128
asg32
VWeaponPickup
p1200
sg35
VPT1M40.6880215S
p1201
sa(dp1202
g32
VPlayerSpawn
p1203
sg39
(dp1204
g41
VTL StelluR
p1205
sg43
Nssg35
VPT1M40.6880215S
p1206
sa(dp1207
g32
VMedal
p1208
sg39
(dp1209
g41
VLiquid Eco
p1210
sg43
Nssg241
I2916014239
sg35
VPT1M41.4050234S
p1211
sa(dp1212
g208
I4096745987
sg209
I00
sg210
I00
sg211
(dp1213
g41
VnV Pistola HCS
p1214
sg43
Nssg214
(lp1215
I2758383128
asg216
I00
sg217
I01
sg218
I1
sg219
I0
sg220
I1
sg221
(dp1216
Vy
F7.6001779999999997
sVx
F11.3634758
sVz
F2.3947753899999999
ssg223
(dp1217
Vy
F8.0355709999999991
sVx
F17.6084423
sVz
F1.6058958800000001
ssg225
I00
sg226
(dp1218
g41
VLiquid Eco
p1219
sg43
Nssg229
(lp1220
sg231
(lp1221
(dp1222
g41
VnV eL ToWn
p1223
sg43
Nsasg233
I01
sg35
VPT1M43.2050067S
p1224
sg32
VDeath
p1225
sg236
I1
sa(dp1226
g32
VMedal
p1227
sg39
(dp1228
g41
VnV Pistola HCS
p1229
sg43
Nssg241
I3261908037
sg35
VPT1M43.2060231S
p1230
sa(dp1231
g38
I2902827823
sg32
VWeaponDrop
p1232
sg180
I3
sg44
(lp1233
I2758383128
asg35
VPT1M43.2070212S
p1234
sg183
I2
sg184
VP0DT0H0M14.5667S
p1235
sg39
(dp1236
g41
VLiquid Eco
p1237
sg43
Nssa(dp1238
g38
I424645655
sg32
VWeaponDrop
p1239
sg180
I24
sg44
(lp1240
I1327094800
asg35
VPT1M43.2070212S
p1241
sg183
I6
sg184
VP0DT0H0M24.9333S
p1242
sg39
(dp1243
g41
VLiquid Eco
p1244
sg43
Nssa(dp1245
g208
I313138863
sg209
I00
sg210
I00
sg211
(dp1246
g41
VTL Danoxide
p1247
sg43
Nssg214
(lp1248
I1095363701
asg216
I00
sg217
I01
sg218
I1
sg219
I0
sg220
I1
sg221
(dp1249
Vy
F4.6076730000000001
sVx
F20.049182900000002
sVz
F1.1674377899999999
ssg223
(dp1250
Vy
F2.26043057
sVx
F23.7388382
sVz
F1.2857799999999999
ssg225
I00
sg226
(dp1251
g41
VnV eL ToWn
p1252
sg43
Nssg229
(lp1253
sg231
(lp1254
(dp1255
g41
VLiquid Eco
p1256
sg43
Nsasg233
I00
sg35
VPT1M44.7709998S
p1257
sg32
VDeath
p1258
sg236
I1
sa(dp1259
g38
I4096745987
sg32
VWeaponDrop
p1260
sg180
I9
sg44
(lp1261
I2758383128
asg35
VPT1M44.7730204S
p1262
sg183
I6
sg184
VP0DT0H0M15.5333S
p1263
sg39
(dp1264
g41
VnV eL ToWn
p1265
sg43
Nssa(dp1266
g38
I723388907
sg32
VWeaponDrop
p1267
sg180
I0
sg44
(lp1268
I89283061
asg35
VPT1M44.7730204S
p1269
sg183
I0
sg184
VP0DT0H0M0.4667S
p1270
sg39
(dp1271
g41
VnV eL ToWn
p1272
sg43
Nssa(dp1273
g38
I313138863
sg39
(dp1274
g41
VTL Spartan HCS
p1275
sg43
Nssg44
(lp1276
I1095363701
asg32
VWeaponPickup
p1277
sg35
VPT1M45.8870015S
p1278
sa(dp1279
g38
I4096745987
sg39
(dp1280
g41
VTL Spartan HCS
p1281
sg43
Nssg44
(lp1282
I2758383128
asg32
VWeaponPickup
p1283
sg35
VPT1M45.8880222S
p1284
sa(dp1285
g32
VPlayerSpawn
p1286
sg39
(dp1287
g41
VTL Spartan HCS
p1288
sg43
Nssg35
VPT1M45.8880222S
p1289
sa(dp1290
g38
I313138863
sg32
VWeaponDrop
p1291
sg180
I0
sg44
(lp1292
I1095363701
asg35
VPT1M46.1190273S
p1293
sg183
I0
sg184
VP0DT0H0M2.4667S
p1294
sg39
(dp1295
g41
VnV Pistola HCS
p1296
sg43
Nssa(dp1297
g38
I2902827823
sg39
(dp1298
g41
VnV Pistola HCS
p1299
sg43
Nssg44
(lp1300
I2758383128
asg32
VWeaponPickup
p1301
sg35
VPT1M46.1190273S
p1302
sa(dp1303
g38
I4096745987
sg32
VWeaponDrop
p1304
sg180
I0
sg44
(lp1305
I2758383128
asg35
VPT1M48.5520006S
p1306
sg183
I0
sg184
VP0DT0H0M7.8000S
p1307
sg39
(dp1308
g41
VnV Mikwen HCS
p1309
sg43
Nssa(dp1310
g38
I424645655
sg39
(dp1311
g41
VnV Mikwen HCS
p1312
sg43
Nssg44
(lp1313
I1327094800
asg32
VWeaponPickup
p1314
sg35
VPT1M48.5530006S
p1315
sa(dp1316
g38
I313138863
sg39
(dp1317
g41
VLiquid Eco
p1318
sg43
Nssg44
(lp1319
I1095363701
asg32
VWeaponPickup
p1320
sg35
VPT1M51.2210205S
p1321
sa(dp1322
g38
I4096745987
sg39
(dp1323
g41
VLiquid Eco
p1324
sg43
Nssg44
(lp1325
I2758383128
asg32
VWeaponPickup
p1326
sg35
VPT1M51.2210205S
p1327
sa(dp1328
g32
VPlayerSpawn
p1329
sg39
(dp1330
g41
VLiquid Eco
p1331
sg43
Nssg35
VPT1M51.2210205S
p1332
sa(dp1333
g38
I313138863
sg39
(dp1334
g41
VnV eL ToWn
p1335
sg43
Nssg44
(lp1336
I1095363701
asg32
VWeaponPickup
p1337
sg35
VPT1M52.7870021S
p1338
sa(dp1339
g38
I4096745987
sg39
(dp1340
g41
VnV eL ToWn
p1341
sg43
Nssg44
(lp1342
I2758383128
asg32
VWeaponPickup
p1343
sg35
VPT1M52.7880217S
p1344
sa(dp1345
g32
VPlayerSpawn
p1346
sg39
(dp1347
g41
VnV eL ToWn
p1348
sg43
Nssg35
VPT1M52.7880217S
p1349
sa(dp1350
g208
I4096745987
sg209
I00
sg210
I00
sg211
(dp1351
g41
VTL Danoxide
p1352
sg43
Nssg214
(lp1353
I2758383128
asg216
I00
sg217
I01
sg218
I1
sg219
I0
sg220
I1
sg221
(dp1354
Vy
F4.0910553900000002
sVx
F13.540015199999999
sVz
F0.83239390000000002
ssg223
(dp1355
Vy
F9.2090010000000007
sVx
F10.063406000000001
sVz
F0.031287997999999997
ssg225
I00
sg226
(dp1356
g41
VnV Pistola HCS
p1357
sg43
Nssg229
(lp1358
sg231
(lp1359
sg233
I01
sg35
VPT1M54.1040021S
p1360
sg32
VDeath
p1361
sg236
I1
sa(dp1362
g32
VMedal
p1363
sg39
(dp1364
g41
VTL Danoxide
p1365
sg43
Nssg241
I3261908037
sg35
VPT1M54.1050211S
p1366
sa(dp1367
g38
I2902827823
sg32
VWeaponDrop
p1368
sg180
I1
sg44
(lp1369
I2758383128
asg35
VPT1M54.10602S
p1370
sg183
I1
sg184
VP0DT0H0M5.6167S
p1371
sg39
(dp1372
g41
VnV Pistola HCS
p1373
sg43
Nssa(dp1374
g38
I4096745987
sg32
VWeaponDrop
p1375
sg180
I9
sg44
(lp1376
I2758383128
asg35
VPT1M54.10602S
p1377
sg183
I6
sg184
VP0DT0H0M12.6000S
p1378
sg39
(dp1379
g41
VnV Pistola HCS
p1380
sg43
Nssa(dp1381
g208
I4096745987
sg209
I00
sg210
I00
sg211
(dp1382
g41
VTL Spartan HCS
p1383
sg43
Nssg214
(lp1384
I2758383128
asg216
I00
sg217
I01
sg218
I1
sg219
I0
sg220
I1
sg221
(dp1385
Vy
F5.2980239999999998
sVx
F24.154048899999999
sVz
F2.0504493699999999
ssg223
(dp1386
Vy
F10.9512062
sVx
F15.2883244
sVz
F1.93048215
ssg225
I00
sg226
(dp1387
g41
VnV Mikwen HCS
p1388
sg43
Nssg229
(lp1389
sg231
(lp1390
sg233
I01
sg35
VPT1M54.1540016S
p1391
sg32
VDeath
p1392
sg236
I1
sa(dp1393
g32
VImpulse
p1394
sg39
(dp1395
g41
VTL Spartan HCS
p1396
sg43
Nssg857
I3174430457
sg35
VPT1M54.1550222S
p1397
sa(dp1398
g32
VMedal
p1399
sg39
(dp1400
g41
VTL Spartan HCS
p1401
sg43
Nssg241
I1351381581
sg35
VPT1M54.1550222S
p1402
sa(dp1403
g32
VMedal
p1404
sg39
(dp1405
g41
VTL Spartan HCS
p1406
sg43
Nssg241
I3653057799
sg35
VPT1M54.1560204S
p1407
sa(dp1408
g38
I313138863
sg32
VWeaponDrop
p1409
sg180
I0
sg44
(lp1410
I1095363701
asg35
VPT1M54.1560204S
p1411
sg183
I0
sg184
VP0DT0H0M0.6000S
p1412
sg39
(dp1413
g41
VnV Mikwen HCS
p1414
sg43
Nssa(dp1415
g38
I424645655
sg32
VWeaponDrop
p1416
sg180
I12
sg44
(lp1417
I1327094800
asg35
VPT1M54.1560204S
p1418
sg183
I9
sg184
VP0DT0H0M5.6000S
p1419
sg39
(dp1420
g41
VnV Mikwen HCS
p1421
sg43
Nssa(dp1422
g32
VMedal
p1423
sg39
(dp1424
g41
VTL Spartan HCS
p1425
sg43
Nssg241
I2916014239
sg35
VPT1M55.8530008S
p1426
sa(dp1427
g38
I313138863
sg39
(dp1428
g41
VnV Pistola HCS
p1429
sg43
Nssg44
(lp1430
I1095363701
asg32
VWeaponPickup
p1431
sg35
VPT2M2.1200009S
p1432
sa(dp1433
g38
I4096745987
sg39
(dp1434
g41
VnV Pistola HCS
p1435
sg43
Nssg44
(lp1436
I2758383128
asg32
VWeaponPickup
p1437
sg35
VPT2M2.1200009S
p1438
sa(dp1439
g32
VPlayerSpawn
p1440
sg39
(dp1441
g41
VnV Pistola HCS
p1442
sg43
Nssg35
VPT2M2.1200009S
p1443
sa(dp1444
g38
I313138863
sg39
(dp1445
g41
VnV Mikwen HCS
p1446
sg43
Nssg44
(lp1447
I1095363701
asg32
VWeaponPickup
p1448
sg35
VPT2M2.1700011S
p1449
sa(dp1450
g38
I4096745987
sg39
(dp1451
g41
VnV Mikwen HCS
p1452
sg43
Nssg44
(lp1453
I2758383128
asg32
VWeaponPickup
p1454
sg35
VPT2M2.1700011S
p1455
sa(dp1456
g32
VPlayerSpawn
p1457
sg39
(dp1458
g41
VnV Mikwen HCS
p1459
sg43
Nssg35
VPT2M2.1700011S
p1460
sa(dp1461
g208
I313138863
sg209
I01
sg210
I00
sg211
(dp1462
g41
VTL StelluR
p1463
sg43
Nssg214
(lp1464
I1095363701
asg216
I00
sg217
I00
sg218
I1
sg219
I0
sg220
I1
sg221
(dp1465
Vy
F-16.106031399999999
sVx
F5.6745400000000004
sVz
F0.797462
ssg223
(dp1466
Vy
F-15.810426700000001
sVx
F5.4937100000000001
sVz
F0.80000305199999999
ssg225
I00
sg226
(dp1467
g41
VnV eL ToWn
p1468
sg43
Nssg229
(lp1469
sg231
(lp1470
sg233
I00
sg35
VPT2M4.9529998S
p1471
sg32
VDeath
p1472
sg236
I1
sa(dp1473
g32
VMedal
p1474
sg39
(dp1475
g41
VTL StelluR
p1476
sg43
Nssg241
I3270120991
sg35
VPT2M4.9540023S
p1477
sa(dp1478
g38
I4096745987
sg32
VWeaponDrop
p1479
sg180
I1
sg44
(lp1480
I2758383128
asg35
VPT2M4.9550019S
p1481
sg183
I0
sg184
VP0DT0H0M11.4500S
p1482
sg39
(dp1483
g41
VnV eL ToWn
p1484
sg43
Nssa(dp1485
g38
I313138863
sg32
VWeaponDrop
p1486
sg180
I0
sg44
(lp1487
I1095363701
asg35
VPT2M4.9560203S
p1488
sg183
I0
sg184
VP0DT0H0M0.7167S
p1489
sg39
(dp1490
g41
VnV eL ToWn
p1491
sg43
Nssa(dp1492
g208
I4096745987
sg209
I00
sg210
I00
sg211
(dp1493
g41
VnV Mikwen HCS
p1494
sg43
Nssg214
(lp1495
I2758383128
asg216
I00
sg217
I01
sg218
I1
sg219
I0
sg220
I1
sg221
(dp1496
Vy
F18.18092
sVx
F-0.38087207099999998
sVz
F3.69805479
ssg223
(dp1497
Vy
F2.3266823300000001
sVx
F4.1646037099999997
sVz
F4.7109155700000001
ssg225
I00
sg226
(dp1498
g41
VTL Spartan HCS
p1499
sg43
Nssg229
(lp1500
sg231
(lp1501
(dp1502
g41
VnV RayneHCS
p1503
sg43
Nsasg233
I01
sg35
VPT2M6.0530018S
p1504
sg32
VDeath
p1505
sg236
I1
sa(dp1506
g32
VMedal
p1507
sg39
(dp1508
g41
VnV Mikwen HCS
p1509
sg43
Nssg241
I1351381581
sg35
VPT2M6.0550213S
p1510
sa(dp1511
g32
VMedal
p1512
sg39
(dp1513
g41
VnV Mikwen HCS
p1514
sg43
Nssg241
I3261908037
sg35
VPT2M6.0550213S
p1515
sa(dp1516
g38
I313138863
sg32
VWeaponDrop
p1517
sg180
I0
sg44
(lp1518
I1095363701
asg35
VPT2M6.0550213S
p1519
sg183
I0
sg184
VP0DT0H0M5.9833S
p1520
sg39
(dp1521
g41
VTL Spartan HCS
p1522
sg43
Nssa(dp1523
g38
I4096745987
sg32
VWeaponDrop
p1524
sg180
I13
sg44
(lp1525
I2758383128
asg35
VPT2M6.0550213S
p1526
sg183
I9
sg184
VP0DT0H0M14.1833S
p1527
sg39
(dp1528
g41
VTL Spartan HCS
p1529
sg43
Nssa(dp1530
g32
VMedal
p1531
sg39
(dp1532
g41
VnV RayneHCS
p1533
sg43
Nssg241
I2916014239
sg35
VPT2M6.3850211S
p1534
sa(dp1535
g208
I4096745987
sg209
I00
sg210
I00
sg211
(dp1536
g41
VTL StelluR
p1537
sg43
Nssg214
(lp1538
I2758383128
asg216
I00
sg217
I01
sg218
I1
sg219
I0
sg220
I1
sg221
(dp1539
Vy
F-16.2150459
sVx
F6.6555504799999996
sVz
F0.80000300000000002
ssg223
(dp1540
Vy
F0.027763409999999999
sVx
F4.1735420000000003
sVz
F3.7001571700000002
ssg225
I00
sg226
(dp1541
g41
VnV RayneHCS
p1542
sg43
Nssg229
(lp1543
sg231
(lp1544
(dp1545
g41
VLiquid Eco
p1546
sg43
Nsasg233
I01
sg35
VPT2M7.003001S
p1547
sg32
VDeath
p1548
sg236
I1
sa(dp1549
g32
VMedal
p1550
sg39
(dp1551
g41
VTL StelluR
p1552
sg43
Nssg241
I3261908037
sg35
VPT2M7.0040031S
p1553
sa(dp1554
g32
VMedal
p1555
sg39
(dp1556
g41
VTL StelluR
p1557
sg43
Nssg241
I2078758684
sg35
VPT2M7.0050007S
p1558
sa(dp1559
g38
I313138863
sg32
VWeaponDrop
p1560
sg180
I21
sg44
(lp1561
I1095363701
asg35
VPT2M7.0050007S
p1562
sg183
I9
sg184
VP0DT0H0M6.5000S
p1563
sg39
(dp1564
g41
VnV RayneHCS
p1565
sg43
Nssa(dp1566
g38
I4096745987
sg32
VWeaponDrop
p1567
sg180
I26
sg44
(lp1568
I2758383128
asg35
VPT2M7.0050007S
p1569
sg183
I13
sg184
VP0DT0H0M37.0667S
p1570
sg39
(dp1571
g41
VnV RayneHCS
p1572
sg43
Nssa(dp1573
g38
I313138863
sg39
(dp1574
g41
VnV eL ToWn
p1575
sg43
Nssg44
(lp1576
I1095363701
asg32
VWeaponPickup
p1577
sg35
VPT2M12.9700032S
p1578
sa(dp1579
g38
I4096745987
sg39
(dp1580
g41
VnV eL ToWn
p1581
sg43
Nssg44
(lp1582
I2758383128
asg32
VWeaponPickup
p1583
sg35
VPT2M12.9700032S
p1584
sa(dp1585
g32
VPlayerSpawn
p1586
sg39
(dp1587
g41
VnV eL ToWn
p1588
sg43
Nssg35
VPT2M12.9700032S
p1589
sa(dp1590
g38
I313138863
sg39
(dp1591
g41
VTL Spartan HCS
p1592
sg43
Nssg44
(lp1593
I1095363701
asg32
VWeaponPickup
p1594
sg35
VPT2M14.0700201S
p1595
sa(dp1596
g38
I4096745987
sg39
(dp1597
g41
VTL Spartan HCS
p1598
sg43
Nssg44
(lp1599
I2758383128
asg32
VWeaponPickup
p1600
sg35
VPT2M14.0700201S
p1601
sa(dp1602
g32
VPlayerSpawn
p1603
sg39
(dp1604
g41
VTL Spartan HCS
p1605
sg43
Nssg35
VPT2M14.0700201S
p1606
sa(dp1607
g38
I313138863
sg39
(dp1608
g41
VnV RayneHCS
p1609
sg43
Nssg44
(lp1610
I1095363701
asg32
VWeaponPickup
p1611
sg35
VPT2M15.0200205S
p1612
sa(dp1613
g38
I4096745987
sg39
(dp1614
g41
VnV RayneHCS
p1615
sg43
Nssg44
(lp1616
I2758383128
asg32
VWeaponPickup
p1617
sg35
VPT2M15.0200205S
p1618
sa(dp1619
g32
VPlayerSpawn
p1620
sg39
(dp1621
g41
VnV RayneHCS
p1622
sg43
Nssg35
VPT2M15.0200205S
p1623
sa(dp1624
g208
I313138863
sg209
I00
sg210
I00
sg211
(dp1625
g41
VLiquid Eco
p1626
sg43
Nssg214
(lp1627
I1095363701
asg216
I00
sg217
I01
sg218
I1
sg219
I0
sg220
I1
sg221
(dp1628
Vy
F17.043949999999999
sVx
F-1.07408535
sVz
F3.1136002500000002
ssg223
(dp1629
Vy
F20.037401200000001
sVx
F-0.44302305600000003
sVz
F2.4997850000000001
ssg225
I00
sg226
(dp1630
g41
VnV Mikwen HCS
p1631
sg43
Nssg229
(lp1632
sg231
(lp1633
sg233
I00
sg35
VPT2M17.4899998S
p1634
sg32
VDeath
p1635
sg236
I1
sa(dp1636
g38
I313138863
sg32
VWeaponDrop
p1637
sg180
I7
sg44
(lp1638
I1095363701
asg35
VPT2M17.4920015S
p1639
sg183
I4
sg184
VP0DT0H0M1.7000S
p1640
sg39
(dp1641
g41
VnV Mikwen HCS
p1642
sg43
Nssa(dp1643
g38
I4096745987
sg32
VWeaponDrop
p1644
sg180
I10
sg44
(lp1645
I2758383128
asg35
VPT2M17.4920015S
p1646
sg183
I4
sg184
VP0DT0H0M13.6167S
p1647
sg39
(dp1648
g41
VnV Mikwen HCS
p1649
sg43
Nssa(dp1650
g32
VMedal
p1651
sg39
(dp1652
g41
VTL Danoxide
p1653
sg43
Nssg241
I3565443938
sg35
VPT2M21.518001S
p1654
sa(dp1655
g32
VMedal
p1656
sg39
(dp1657
g41
VTL Spartan HCS
p1658
sg43
Nssg241
I3565443938
sg35
VPT2M21.518001S
p1659
sa(dp1660
g32
VMedal
p1661
sg39
(dp1662
g41
VLiquid Eco
p1663
sg43
Nssg241
I2105198095
sg35
VPT2M21.5190265S
p1664
sa(dp1665
g32
VMedal
p1666
sg39
(dp1667
g41
VTL Spartan HCS
p1668
sg43
Nssg241
I2105198095
sg35
VPT2M21.5190265S
p1669
sa(dp1670
g32
VMedal
p1671
sg39
(dp1672
g41
VTL StelluR
p1673
sg43
Nssg241
I2105198095
sg35
VPT2M21.5190265S
p1674
sa(dp1675
g32
VMedal
p1676
sg39
(dp1677
g41
VTL Danoxide
p1678
sg43
Nssg241
I2105198095
sg35
VPT2M21.5190265S
p1679
sa(dp1680
g208
I4106030681
sg209
I00
sg210
I00
sg211
(dp1681
g41
VnV RayneHCS
p1682
sg43
Nssg214
(lp1683
sg216
I00
sg217
I01
sg218
I1
sg219
I0
sg220
I1
sg221
(dp1684
Vy
F8.3314330000000005
sVx
F18.504396400000001
sVz
F1.6058958800000001
ssg223
(dp1685
Vy
F1.2288478599999999
sVx
F5.6717977499999996
sVz
F3.7001574000000002
ssg225
I00
sg226
(dp1686
g41
VTL Danoxide
p1687
sg43
Nssg229
(lp1688
sg231
(lp1689
(dp1690
g41
VnV Pistola HCS
p1691
sg43
Nsasg233
I00
sg35
VPT2M23.0360019S
p1692
sg32
VDeath
p1693
sg236
I1
sa(dp1694
g32
VMedal
p1695
sg39
(dp1696
g41
VnV RayneHCS
p1697
sg43
Nssg241
I352859864
sg35
VPT2M23.0360019S
p1698
sa(dp1699
g32
VImpulse
p1700
sg39
(dp1701
g41
VnV RayneHCS
p1702
sg43
Nssg857
I2556889090
sg35
VPT2M23.0360019S
p1703
sa(dp1704
g38
I313138863
sg32
VWeaponDrop
p1705
sg180
I21
sg44
(lp1706
I1095363701
asg35
VPT2M23.0380224S
p1707
sg183
I11
sg184
VP0DT0H0M10.4333S
p1708
sg39
(dp1709
g41
VTL Danoxide
p1710
sg43
Nssa(dp1711
g38
I4096745987
sg32
VWeaponDrop
p1712
sg180
I19
sg44
(lp1713
I2758383128
asg35
VPT2M23.0380224S
p1714
sg183
I9
sg184
VP0DT0H0M43.8833S
p1715
sg39
(dp1716
g41
VTL Danoxide
p1717
sg43
Nssa(dp1718
g32
VMedal
p1719
sg39
(dp1720
g41
VnV Pistola HCS
p1721
sg43
Nssg241
I3565443938
sg35
VPT2M23.8010205S
p1722
sa(dp1723
g32
VMedal
p1724
sg39
(dp1725
g41
VnV RayneHCS
p1726
sg43
Nssg241
I3565443938
sg35
VPT2M23.8010205S
p1727
sa(dp1728
g38
I4096745987
sg32
VWeaponDrop
p1729
sg180
I1
sg44
(lp1730
I2758383128
asg35
VPT2M23.8680012S
p1731
sg183
I0
sg184
VP0DT0H0M8.0167S
p1732
sg39
(dp1733
g41
VnV RayneHCS
p1734
sg43
Nssa(dp1735
g38
I424645655
sg39
(dp1736
g41
VnV RayneHCS
p1737
sg43
Nssg44
(lp1738
I1327094800
asg32
VWeaponPickup
p1739
sg35
VPT2M23.8680012S
p1740
sa(dp1741
g208
I4096745987
sg209
I00
sg210
I00
sg211
(dp1742
g41
VTL StelluR
p1743
sg43
Nssg214
(lp1744
I2758383128
asg216
I00
sg217
I01
sg218
I1
sg219
I0
sg220
I1
sg221
(dp1745
Vy
F-19.315244700000001
sVx
F8.0982690000000002
sVz
F1.6223559400000001
ssg223
(dp1746
Vy
F-12.22706
sVx
F18.177129999999998
sVz
F2.7197673299999998
ssg225
I00
sg226
(dp1747
g41
VnV eL ToWn
p1748
sg43
Nssg229
(lp1749
sg231
(lp1750
sg233
I01
sg35
VPT2M25.3690007S
p1751
sg32
VDeath
p1752
sg236
I1
sa(dp1753
g32
VMedal
p1754
sg39
(dp1755
g41
VTL StelluR
p1756
sg43
Nssg241
I3261908037
sg35
VPT2M25.3710219S
p1757
sa(dp1758
g38
I313138863
sg32
VWeaponDrop
p1759
sg180
I0
sg44
(lp1760
I1095363701
asg35
VPT2M25.3710219S
p1761
sg183
I0
sg184
VP0DT0H0M0.7833S
p1762
sg39
(dp1763
g41
VnV eL ToWn
p1764
sg43
Nssa(dp1765
g38
I4096745987
sg32
VWeaponDrop
p1766
sg180
I12
sg44
(lp1767
I2758383128
asg35
VPT2M25.3710219S
p1768
sg183
I6
sg184
VP0DT0H0M11.6167S
p1769
sg39
(dp1770
g41
VnV eL ToWn
p1771
sg43
Nssa(dp1772
g38
I313138863
sg39
(dp1773
g41
VnV Mikwen HCS
p1774
sg43
Nssg44
(lp1775
I1095363701
asg32
VWeaponPickup
p1776
sg35
VPT2M25.5020022S
p1777
sa(dp1778
g38
I4096745987
sg39
(dp1779
g41
VnV Mikwen HCS
p1780
sg43
Nssg44
(lp1781
I2758383128
asg32
VWeaponPickup
p1782
sg35
VPT2M25.5030207S
p1783
sa(dp1784
g32
VPlayerSpawn
p1785
sg39
(dp1786
g41
VnV Mikwen HCS
p1787
sg43
Nssg35
VPT2M25.5030207S
p1788
sa(dp1789
g32
VMedal
p1790
sg39
(dp1791
g41
VTL StelluR
p1792
sg43
Nssg241
I3400287617
sg35
VPT2M29.2350001S
p1793
sa(dp1794
g38
I313138863
sg39
(dp1795
g41
VTL Danoxide
p1796
sg43
Nssg44
(lp1797
I1095363701
asg32
VWeaponPickup
p1798
sg35
VPT2M31.0530152S
p1799
sa(dp1800
g38
I4096745987
sg39
(dp1801
g41
VTL Danoxide
p1802
sg43
Nssg44
(lp1803
I2758383128
asg32
VWeaponPickup
p1804
sg35
VPT2M31.0530152S
p1805
sa(dp1806
g32
VPlayerSpawn
p1807
sg39
(dp1808
g41
VTL Danoxide
p1809
sg43
Nssg35
VPT2M31.0530152S
p1810
sa(dp1811
g38
I313138863
sg39
(dp1812
g41
VnV eL ToWn
p1813
sg43
Nssg44
(lp1814
I1095363701
asg32
VWeaponPickup
p1815
sg35
VPT2M33.386001S
p1816
sa(dp1817
g38
I4096745987
sg39
(dp1818
g41
VnV eL ToWn
p1819
sg43
Nssg44
(lp1820
I2758383128
asg32
VWeaponPickup
p1821
sg35
VPT2M33.386001S
p1822
sa(dp1823
g32
VPlayerSpawn
p1824
sg39
(dp1825
g41
VnV eL ToWn
p1826
sg43
Nssg35
VPT2M33.386001S
p1827
sa(dp1828
g38
I2492868984
sg39
(dp1829
g41
VTL Spartan HCS
p1830
sg43
Nssg44
(lp1831
I2758383128
asg32
VWeaponPickup
p1832
sg35
VPT2M35.9850006S
p1833
sa(dp1834
g38
I2492868984
sg32
VWeaponDrop
p1835
sg180
I0
sg44
(lp1836
I2758383128
asg35
VPT2M37.1519995S
p1837
sg183
I0
sg184
VP0DT0H0M1.0000S
p1838
sg39
(dp1839
g41
VTL Spartan HCS
p1840
sg43
Nssa(dp1841
g208
I313138863
sg209
I00
sg210
I00
sg211
(dp1842
g41
VTL Spartan HCS
p1843
sg43
Nssg214
(lp1844
I1095363701
asg216
I00
sg217
I01
sg218
I1
sg219
I0
sg220
I1
sg221
(dp1845
Vy
F-1.3904238900000001
sVx
F11.7945957
sVz
F-0.79777514900000002
ssg223
(dp1846
Vy
F1.6483389100000001
sVx
F12.686714200000001
sVz
F0.54785156300000004
ssg225
I00
sg226
(dp1847
g41
VnV RayneHCS
p1848
sg43
Nssg229
(lp1849
sg231
(lp1850
sg233
I00
sg35
VPT2M38.1019998S
p1851
sg32
VDeath
p1852
sg236
I1
sa(dp1853
g32
VMedal
p1854
sg39
(dp1855
g41
VTL Spartan HCS
p1856
sg43
Nssg241
I3698887726
sg35
VPT2M38.1019998S
p1857
sa(dp1858
g38
I313138863
sg32
VWeaponDrop
p1859
sg180
I0
sg44
(lp1860
I1095363701
asg35
VPT2M38.1039995S
p1861
sg183
I0
sg184
VP0DT0H0M3.5833S
p1862
sg39
(dp1863
g41
VnV RayneHCS
p1864
sg43
Nssa(dp1865
g38
I424645655
sg32
VWeaponDrop
p1866
sg180
I9
sg44
(lp1867
I1327094800
asg35
VPT2M38.1039995S
p1868
sg183
I5
sg184
VP0DT0H0M11.4833S
p1869
sg39
(dp1870
g41
VnV RayneHCS
p1871
sg43
Nssa(dp1872
g208
I313138863
sg209
I00
sg210
I00
sg211
(dp1873
g41
VnV Pistola HCS
p1874
sg43
Nssg214
(lp1875
I1095363701
asg216
I00
sg217
I01
sg218
I1
sg219
I0
sg220
I1
sg221
(dp1876
Vy
F9.2219309999999997
sVx
F4.0604579999999997
sVz
F0.0045383869999999996
ssg223
(dp1877
Vy
F6.1532015800000002
sVx
F6.6514939999999996
sVz
F0.0045357644600000002
ssg225
I00
sg226
(dp1878
g41
VLiquid Eco
p1879
sg43
Nssg229
(lp1880
sg231
(lp1881
sg233
I00
sg35
VPT2M38.9860016S
p1882
sg32
VDeath
p1883
sg236
I1
sa(dp1884
g38
I313138863
sg32
VWeaponDrop
p1885
sg180
I29
sg44
(lp1886
I1095363701
asg35
VPT2M38.9880207S
p1887
sg183
I14
sg184
VP0DT0H0M8.0500S
p1888
sg39
(dp1889
g41
VLiquid Eco
p1890
sg43
Nssa(dp1891
g38
I4096745987
sg32
VWeaponDrop
p1892
sg180
I12
sg44
(lp1893
I2758383128
asg35
VPT2M38.9880207S
p1894
sg183
I7
sg184
VP0DT0H0M39.7167S
p1895
sg39
(dp1896
g41
VLiquid Eco
p1897
sg43
Nssa(dp1898
g208
I4096745987
sg209
I00
sg210
I00
sg211
(dp1899
g41
VTL StelluR
p1900
sg43
Nssg214
(lp1901
I2758383128
asg216
I00
sg217
I01
sg218
I1
sg219
I0
sg220
I1
sg221
(dp1902
Vy
F-6.9952426000000001
sVx
F10.2383623
sVz
F4.2540445299999998
ssg223
(dp1903
Vy
F9.5457979999999996
sVx
F5.098916
sVz
F0.0045373439999999996
ssg225
I00
sg226
(dp1904
g41
VnV Pistola HCS
p1905
sg43
Nssg229
(lp1906
sg231
(lp1907
(dp1908
g41
VLiquid Eco
p1909
sg43
Nsasg233
I01
sg35
VPT2M39.4690016S
p1910
sg32
VDeath
p1911
sg236
I1
sa(dp1912
g32
VMedal
p1913
sg39
(dp1914
g41
VTL StelluR
p1915
sg43
Nssg241
I3261908037
sg35
VPT2M39.4700015S
p1916
sa(dp1917
g38
I313138863
sg32
VWeaponDrop
p1918
sg180
I27
sg44
(lp1919
I1095363701
asg35
VPT2M39.4710013S
p1920
sg183
I15
sg184
VP0DT0H0M6.1667S
p1921
sg39
(dp1922
g41
VnV Pistola HCS
p1923
sg43
Nssa(dp1924
g38
I4096745987
sg32
VWeaponDrop
p1925
sg180
I4
sg44
(lp1926
I2758383128
asg35
VPT2M39.4710013S
p1927
sg183
I3
sg184
VP0DT0H0M31.1833S
p1928
sg39
(dp1929
g41
VnV Pistola HCS
p1930
sg43
Nssa(dp1931
g38
I2492868984
sg39
(dp1932
g41
VTL Danoxide
p1933
sg43
Nssg44
(lp1934
I2758383128
asg32
VWeaponPickup
p1935
sg35
VPT2M41.818001S
p1936
sa(dp1937
g38
I2492868984
sg32
VWeaponDrop
p1938
sg180
I0
sg44
(lp1939
I2758383128
asg35
VPT2M42.9530001S
p1940
sg183
I0
sg184
VP0DT0H0M0.9833S
p1941
sg39
(dp1942
g41
VTL Danoxide
p1943
sg43
Nssa(dp1944
g38
I313138863
sg39
(dp1945
g41
VnV RayneHCS
p1946
sg43
Nssg44
(lp1947
I1095363701
asg32
VWeaponPickup
p1948
sg35
VPT2M46.119021S
p1949
sa(dp1950
g38
I4096745987
sg39
(dp1951
g41
VnV RayneHCS
p1952
sg43
Nssg44
(lp1953
I2758383128
asg32
VWeaponPickup
p1954
sg35
VPT2M46.119021S
p1955
sa(dp1956
g32
VPlayerSpawn
p1957
sg39
(dp1958
g41
VnV RayneHCS
p1959
sg43
Nssg35
VPT2M46.119021S
p1960
sa(dp1961
g208
I4096745987
sg209
I00
sg210
I00
sg211
(dp1962
g41
VTL StelluR
p1963
sg43
Nssg214
(lp1964
I2758383128
asg216
I00
sg217
I01
sg218
I1
sg219
I0
sg220
I1
sg221
(dp1965
Vy
F-4.4813780000000003
sVx
F23.674880000000002
sVz
F1.6740820000000001
ssg223
(dp1966
Vy
F6.2477609999999997
sVx
F19.419902799999999
sVz
F1.6058961199999999
ssg225
I00
sg226
(dp1967
g41
VnV eL ToWn
p1968
sg43
Nssg229
(lp1969
sg231
(lp1970
sg233
I01
sg35
VPT2M46.4020013S
p1971
sg32
VDeath
p1972
sg236
I1
sa(dp1973
g32
VMedal
p1974
sg39
(dp1975
g41
VTL StelluR
p1976
sg43
Nssg241
I3261908037
sg35
VPT2M46.404022S
p1977
sa(dp1978
g32
VMedal
p1979
sg39
(dp1980
g41
VTL StelluR
p1981
sg43
Nssg241
I2430242797
sg35
VPT2M46.404022S
p1982
sa(dp1983
g38
I313138863
sg32
VWeaponDrop
p1984
sg180
I0
sg44
(lp1985
I1095363701
asg35
VPT2M46.404022S
p1986
sg183
I0
sg184
VP0DT0H0M1.2500S
p1987
sg39
(dp1988
g41
VnV eL ToWn
p1989
sg43
Nssa(dp1990
g38
I4096745987
sg32
VWeaponDrop
p1991
sg180
I4
sg44
(lp1992
I2758383128
asg35
VPT2M46.404022S
p1993
sg183
I3
sg184
VP0DT0H0M11.7667S
p1994
sg39
(dp1995
g41
VnV eL ToWn
p1996
sg43
Nssa(dp1997
g38
I313138863
sg39
(dp1998
g41
VLiquid Eco
p1999
sg43
Nssg44
(lp2000
I1095363701
asg32
VWeaponPickup
p2001
sg35
VPT2M47.0020223S
p2002
sa(dp2003
g38
I4096745987
sg39
(dp2004
g41
VLiquid Eco
p2005
sg43
Nssg44
(lp2006
I2758383128
asg32
VWeaponPickup
p2007
sg35
VPT2M47.0020223S
p2008
sa(dp2009
g32
VPlayerSpawn
p2010
sg39
(dp2011
g41
VLiquid Eco
p2012
sg43
Nssg35
VPT2M47.0020223S
p2013
sa(dp2014
g38
I313138863
sg39
(dp2015
g41
VnV Pistola HCS
p2016
sg43
Nssg44
(lp2017
I1095363701
asg32
VWeaponPickup
p2018
sg35
VPT2M47.4850009S
p2019
sa(dp2020
g38
I4096745987
sg39
(dp2021
g41
VnV Pistola HCS
p2022
sg43
Nssg44
(lp2023
I2758383128
asg32
VWeaponPickup
p2024
sg35
VPT2M47.4860006S
p2025
sa(dp2026
g32
VPlayerSpawn
p2027
sg39
(dp2028
g41
VnV Pistola HCS
p2029
sg43
Nssg35
VPT2M47.4860006S
p2030
sa(dp2031
g32
VMedal
p2032
sg39
(dp2033
g41
VTL Danoxide
p2034
sg43
Nssg241
I2916014239
sg35
VPT2M47.9170002S
p2035
sa(dp2036
g208
I4096745987
sg209
I00
sg210
I00
sg211
(dp2037
g41
VTL Danoxide
p2038
sg43
Nssg214
(lp2039
I2758383128
asg216
I00
sg217
I01
sg218
I1
sg219
I0
sg220
I1
sg221
(dp2040
Vy
F2.8150415400000002
sVx
F2.9183949999999999
sVz
F4.6531380000000002
ssg223
(dp2041
Vy
F14.697277100000001
sVx
F1.5186482699999999
sVz
F3.98456717
ssg225
I00
sg226
(dp2042
g41
VnV Mikwen HCS
p2043
sg43
Nssg229
(lp2044
sg231
(lp2045
(dp2046
g41
VTL Spartan HCS
p2047
sg43
Nsasg233
I01
sg35
VPT2M48.2020009S
p2048
sg32
VDeath
p2049
sg236
I1
sa(dp2050
g32
VMedal
p2051
sg39
(dp2052
g41
VTL Danoxide
p2053
sg43
Nssg241
I3261908037
sg35
VPT2M48.203S
p2054
sa(dp2055
g38
I313138863
sg32
VWeaponDrop
p2056
sg180
I0
sg44
(lp2057
I1095363701
asg35
VPT2M48.2040219S
p2058
sg183
I0
sg184
VP0DT0H0M0.6500S
p2059
sg39
(dp2060
g41
VnV Mikwen HCS
p2061
sg43
Nssa(dp2062
g38
I4096745987
sg32
VWeaponDrop
p2063
sg180
I14
sg44
(lp2064
I2758383128
asg35
VPT2M48.2040219S
p2065
sg183
I9
sg184
VP0DT0H0M22.0500S
p2066
sg39
(dp2067
g41
VnV Mikwen HCS
p2068
sg43
Nssa(dp2069
g38
I313138863
sg32
VWeaponDrop
p2070
sg180
I13
sg44
(lp2071
I1095363701
asg35
VPT2M50.4500203S
p2072
sg183
I2
sg184
VP0DT0H0M18.5667S
p2073
sg39
(dp2074
g41
VTL Spartan HCS
p2075
sg43
Nssa(dp2076
g38
I723388907
sg39
(dp2077
g41
VTL Spartan HCS
p2078
sg43
Nssg44
(lp2079
I89283061
asg32
VWeaponPickup
p2080
sg35
VPT2M50.4500203S
p2081
sa(dp2082
g208
I4096745987
sg209
I00
sg210
I00
sg211
(dp2083
g41
VnV RayneHCS
p2084
sg43
Nssg214
(lp2085
I2758383128
asg216
I00
sg217
I01
sg218
I1
sg219
I0
sg220
I1
sg221
(dp2086
Vy
F-14.2591906
sVx
F18.933593800000001
sVz
F1.60081077
ssg223
(dp2087
Vy
F-7.1166989999999997
sVx
F19.75441
sVz
F2.5979054000000001
ssg225
I00
sg226
(dp2088
g41
VTL StelluR
p2089
sg43
Nssg229
(lp2090
sg231
(lp2091
(dp2092
g41
VnV eL ToWn
p2093
sg43
Nsasg233
I01
sg35
VPT2M51.1680016S
p2094
sg32
VDeath
p2095
sg236
I1
sa(dp2096
g32
VMedal
p2097
sg39
(dp2098
g41
VnV RayneHCS
p2099
sg43
Nssg241
I3261908037
sg35
VPT2M51.1700034S
p2100
sa(dp2101
g38
I313138863
sg32
VWeaponDrop
p2102
sg180
I8
sg44
(lp2103
I1095363701
asg35
VPT2M51.1700034S
p2104
sg183
I6
sg184
VP0DT0H0M4.7333S
p2105
sg39
(dp2106
g41
VTL StelluR
p2107
sg43
Nssa(dp2108
g38
I313138863
sg32
VWeaponDrop
p2109
sg180
I0
sg44
(lp2110
I1095363701
asg35
VPT2M51.1700034S
p2111
sg183
I0
sg184
VP0DT0S
p2112
sg39
(dp2113
g41
VTL StelluR
p2114
sg43
Nssa(dp2115
g38
I4096745987
sg32
VWeaponDrop
p2116
sg180
I37
sg44
(lp2117
I2758383128
asg35
VPT2M51.1700034S
p2118
sg183
I25
sg184
VP0DT0H1M5.7500S
p2119
sg39
(dp2120
g41
VTL StelluR
p2121
sg43
Nssa(dp2122
g38
I313138863
sg39
(dp2123
g41
VnV eL ToWn
p2124
sg43
Nssg44
(lp2125
I1095363701
asg32
VWeaponPickup
p2126
sg35
VPT2M54.4180029S
p2127
sa(dp2128
g38
I4096745987
sg39
(dp2129
g41
VnV eL ToWn
p2130
sg43
Nssg44
(lp2131
I2758383128
asg32
VWeaponPickup
p2132
sg35
VPT2M54.4180029S
p2133
sa(dp2134
g32
VPlayerSpawn
p2135
sg39
(dp2136
g41
VnV eL ToWn
p2137
sg43
Nssg35
VPT2M54.4180029S
p2138
sa(dp2139
g38
I313138863
sg39
(dp2140
g41
VnV Mikwen HCS
p2141
sg43
Nssg44
(lp2142
I1095363701
asg32
VWeaponPickup
p2143
sg35
VPT2M56.2180253S
p2144
sa(dp2145
g38
I4096745987
sg39
(dp2146
g41
VnV Mikwen HCS
p2147
sg43
Nssg44
(lp2148
I2758383128
asg32
VWeaponPickup
p2149
sg35
VPT2M56.2180253S
p2150
sa(dp2151
g32
VPlayerSpawn
p2152
sg39
(dp2153
g41
VnV Mikwen HCS
p2154
sg43
Nssg35
VPT2M56.2180253S
p2155
sa(dp2156
g38
I313138863
sg32
VWeaponDrop
p2157
sg180
I0
sg44
(lp2158
I1095363701
asg35
VPT2M58.2500004S
p2159
sg183
I0
sg184
VP0DT0H0M1.3833S
p2160
sg39
(dp2161
g41
VnV RayneHCS
p2162
sg43
Nssa(dp2163
g38
I2902827823
sg39
(dp2164
g41
VnV RayneHCS
p2165
sg43
Nssg44
(lp2166
I2758383128
asg32
VWeaponPickupPad
p2167
sg35
VPT2M58.2500004S
p2168
sa(dp2169
g38
I2902827823
sg39
(dp2170
g41
VnV RayneHCS
p2171
sg43
Nssg44
(lp2172
I2758383128
asg32
VWeaponPickup
p2173
sg35
VPT2M58.2500004S
p2174
sa(dp2175
g38
I313138863
sg39
(dp2176
g41
VTL StelluR
p2177
sg43
Nssg44
(lp2178
I1095363701
asg32
VWeaponPickup
p2179
sg35
VPT2M59.1850205S
p2180
sa(dp2181
g38
I4096745987
sg39
(dp2182
g41
VTL StelluR
p2183
sg43
Nssg44
(lp2184
I2758383128
asg32
VWeaponPickup
p2185
sg35
VPT2M59.1850205S
p2186
sa(dp2187
g32
VPlayerSpawn
p2188
sg39
(dp2189
g41
VTL StelluR
p2190
sg43
Nssg35
VPT2M59.1850205S
p2191
sa(dp2192
g32
VMedal
p2193
sg39
(dp2194
g41
VTL Spartan HCS
p2195
sg43
Nssg241
I3565443938
sg35
VPT2M59.2670009S
p2196
sa(dp2197
g32
VMedal
p2198
sg39
(dp2199
g41
VLiquid Eco
p2200
sg43
Nssg241
I2105198095
sg35
VPT2M59.2670009S
p2201
sa(dp2202
g32
VMedal
p2203
sg39
(dp2204
g41
VTL Spartan HCS
p2205
sg43
Nssg241
I2105198095
sg35
VPT2M59.2670009S
p2206
sa(dp2207
g32
VMedal
p2208
sg39
(dp2209
g41
VTL StelluR
p2210
sg43
Nssg241
I2105198095
sg35
VPT2M59.2670009S
p2211
sa(dp2212
g32
VMedal
p2213
sg39
(dp2214
g41
VTL Danoxide
p2215
sg43
Nssg241
I2105198095
sg35
VPT2M59.2670009S
p2216
sa(dp2217
g208
I4096745987
sg209
I00
sg210
I00
sg211
(dp2218
g41
VnV Mikwen HCS
p2219
sg43
Nssg214
(lp2220
I2758383128
asg216
I00
sg217
I01
sg218
I1
sg219
I0
sg220
I1
sg221
(dp2221
Vy
F3.9395229999999999
sVx
F5.1123409999999998
sVz
F3.7001574000000002
ssg223
(dp2222
Vy
F12.0046406
sVx
F18.504793200000002
sVz
F1.65135908
ssg225
I00
sg226
(dp2223
g41
VTL Spartan HCS
p2224
sg43
Nssg229
(lp2225
sg231
(lp2226
(dp2227
g41
VnV Pistola HCS
p2228
sg43
Nsa(dp2229
g41
VnV RayneHCS
p2230
sg43
Nsa(dp2231
g41
VnV eL ToWn
p2232
sg43
Nsasg233
I01
sg35
VPT3M2.5850019S
p2233
sg32
VDeath
p2234
sg236
I1
sa(dp2235
g32
VMedal
p2236
sg39
(dp2237
g41
VnV Mikwen HCS
p2238
sg43
Nssg241
I194124164
sg35
VPT3M2.5850019S
p2239
sa(dp2240
g32
VMedal
p2241
sg39
(dp2242
g41
VnV Pistola HCS
p2243
sg43
Nssg241
I1326375333
sg35
VPT3M2.5850019S
p2244
sa(dp2245
g32
VMedal
p2246
sg39
(dp2247
g41
VnV RayneHCS
p2248
sg43
Nssg241
I1326375333
sg35
VPT3M2.5850019S
p2249
sa(dp2250
g32
VMedal
p2251
sg39
(dp2252
g41
VnV eL ToWn
p2253
sg43
Nssg241
I1326375333
sg35
VPT3M2.5850019S
p2254
sa(dp2255
g32
VMedal
p2256
sg39
(dp2257
g41
VnV Mikwen HCS
p2258
sg43
Nssg241
I3261908037
sg35
VPT3M2.5870007S
p2259
sa(dp2260
g38
I723388907
sg32
VWeaponDrop
p2261
sg180
I6
sg44
(lp2262
I89283061
asg35
VPT3M2.5870007S
p2263
sg183
I2
sg184
VP0DT0H0M5.6000S
p2264
sg39
(dp2265
g41
VTL Spartan HCS
p2266
sg43
Nssa(dp2267
g38
I4096745987
sg32
VWeaponDrop
p2268
sg180
I11
sg44
(lp2269
I2758383128
asg35
VPT3M2.5870007S
p2270
sg183
I7
sg184
VP0DT0H0M23.3333S
p2271
sg39
(dp2272
g41
VTL Spartan HCS
p2273
sg43
Nssa(dp2274
g208
I4096745987
sg209
I00
sg210
I00
sg211
(dp2275
g41
VTL Danoxide
p2276
sg43
Nssg214
(lp2277
I2758383128
asg216
I00
sg217
I01
sg218
I1
sg219
I0
sg220
I1
sg221
(dp2278
Vy
F-8.5013109999999994
sVx
F19.607932999999999
sVz
F2.0256643300000001
ssg223
(dp2279
Vy
F-4.158639
sVx
F20.236347200000001
sVz
F2.8221688299999999
ssg225
I00
sg226
(dp2280
g41
VnV RayneHCS
p2281
sg43
Nssg229
(lp2282
sg231
(lp2283
(dp2284
g41
VLiquid Eco
p2285
sg43
Nsasg233
I01
sg35
VPT3M3.8850028S
p2286
sg32
VDeath
p2287
sg236
I1
sa(dp2288
g32
VMedal
p2289
sg39
(dp2290
g41
VTL Danoxide
p2291
sg43
Nssg241
I3261908037
sg35
VPT3M3.8860212S
p2292
sa(dp2293
g38
I2902827823
sg32
VWeaponDrop
p2294
sg180
I1
sg44
(lp2295
I2758383128
asg35
VPT3M3.8860212S
p2296
sg183
I1
sg184
VP0DT0H0M5.6333S
p2297
sg39
(dp2298
g41
VnV RayneHCS
p2299
sg43
Nssa(dp2300
g38
I4096745987
sg32
VWeaponDrop
p2301
sg180
I8
sg44
(lp2302
I2758383128
asg35
VPT3M3.8860212S
p2303
sg183
I7
sg184
VP0DT0H0M10.7500S
p2304
sg39
(dp2305
g41
VnV RayneHCS
p2306
sg43
Nssa(dp2307
g32
VMedal
p2308
sg39
(dp2309
g41
VnV eL ToWn
p2310
sg43
Nssg241
I3565443938
sg35
VPT3M5.2170203S
p2311
sa(dp2312
g32
VMedal
p2313
sg39
(dp2314
g41
VnV Mikwen HCS
p2315
sg43
Nssg241
I3565443938
sg35
VPT3M5.2170203S
p2316
sa(dp2317
g38
I313138863
sg32
VWeaponDrop
p2318
sg180
I28
sg44
(lp2319
I1095363701
asg35
VPT3M6.0490019S
p2320
sg183
I8
sg184
VP0DT0H0M12.5500S
p2321
sg39
(dp2322
g41
VTL Danoxide
p2323
sg43
Nssa(dp2324
g38
I2902827823
sg39
(dp2325
g41
VTL Danoxide
p2326
sg43
Nssg44
(lp2327
I2758383128
asg32
VWeaponPickup
p2328
sg35
VPT3M6.0500022S
p2329
sa(dp2330
g208
I4096745987
sg209
I00
sg210
I00
sg211
(dp2331
g41
VTL StelluR
p2332
sg43
Nssg214
(lp2333
I2758383128
asg216
I00
sg217
I01
sg218
I1
sg219
I0
sg220
I1
sg221
(dp2334
Vy
F-13.4464054
sVx
F9.6984750000000002
sVz
F2.2062072800000001
ssg223
(dp2335
Vy
F-0.65416470000000004
sVx
F2.7547912600000002
sVz
F3.7051460000000001
ssg225
I00
sg226
(dp2336
g41
VnV Mikwen HCS
p2337
sg43
Nssg229
(lp2338
sg231
(lp2339
sg233
I01
sg35
VPT3M7.1170081S
p2340
sg32
VDeath
p2341
sg236
I1
sa(dp2342
g32
VMedal
p2343
sg39
(dp2344
g41
VTL StelluR
p2345
sg43
Nssg241
I3261908037
sg35
VPT3M7.1190208S
p2346
sa(dp2347
g38
I313138863
sg32
VWeaponDrop
p2348
sg180
I0
sg44
(lp2349
I1095363701
asg35
VPT3M7.1200219S
p2350
sg183
I0
sg184
VP0DT0H0M0.6833S
p2351
sg39
(dp2352
g41
VnV Mikwen HCS
p2353
sg43
Nssa(dp2354
g38
I4096745987
sg32
VWeaponDrop
p2355
sg180
I7
sg44
(lp2356
I2758383128
asg35
VPT3M7.1200219S
p2357
sg183
I2
sg184
VP0DT0H0M10.2167S
p2358
sg39
(dp2359
g41
VnV Mikwen HCS
p2360
sg43
Nssa(dp2361
g38
I313138863
sg39
(dp2362
g41
VTL Spartan HCS
p2363
sg43
Nssg44
(lp2364
I1095363701
asg32
VWeaponPickup
p2365
sg35
VPT3M10.6010009S
p2366
sa(dp2367
g38
I4096745987
sg39
(dp2368
g41
VTL Spartan HCS
p2369
sg43
Nssg44
(lp2370
I2758383128
asg32
VWeaponPickup
p2371
sg35
VPT3M10.6010009S
p2372
sa(dp2373
g32
VPlayerSpawn
p2374
sg39
(dp2375
g41
VTL Spartan HCS
p2376
sg43
Nssg35
VPT3M10.6010009S
p2377
sa(dp2378
g208
I4096745987
sg209
I00
sg210
I00
sg211
(dp2379
g41
VTL Danoxide
p2380
sg43
Nssg214
(lp2381
I2758383128
asg216
I00
sg217
I01
sg218
I1
sg219
I0
sg220
I1
sg221
(dp2382
Vy
F5.4071507499999996
sVx
F23.14254
sVz
F1.611192
ssg223
(dp2383
Vy
F9.036149
sVx
F15.8489237
sVz
F1.605896
ssg225
I00
sg226
(dp2384
g41
VnV Pistola HCS
p2385
sg43
Nssg229
(lp2386
sg231
(lp2387
(dp2388
g41
VLiquid Eco
p2389
sg43
Nsasg233
I01
sg35
VPT3M10.6340015S
p2390
sg32
VDeath
p2391
sg236
I1
sa(dp2392
g32
VMedal
p2393
sg39
(dp2394
g41
VTL Danoxide
p2395
sg43
Nssg241
I1351381581
sg35
VPT3M10.6350022S
p2396
sa(dp2397
g32
VMedal
p2398
sg39
(dp2399
g41
VTL Danoxide
p2400
sg43
Nssg241
I3261908037
sg35
VPT3M10.6360212S
p2401
sa(dp2402
g38
I313138863
sg32
VWeaponDrop
p2403
sg180
I9
sg44
(lp2404
I1095363701
asg35
VPT3M10.6360212S
p2405
sg183
I0
sg184
VP0DT0H0M3.0833S
p2406
sg39
(dp2407
g41
VnV Pistola HCS
p2408
sg43
Nssa(dp2409
g38
I4096745987
sg32
VWeaponDrop
p2410
sg180
I17
sg44
(lp2411
I2758383128
asg35
VPT3M10.6360212S
p2412
sg183
I5
sg184
VP0DT0H0M20.0667S
p2413
sg39
(dp2414
g41
VnV Pistola HCS
p2415
sg43
Nssa(dp2416
g38
I313138863
sg39
(dp2417
g41
VnV RayneHCS
p2418
sg43
Nssg44
(lp2419
I1095363701
asg32
VWeaponPickup
p2420
sg35
VPT3M11.9010024S
p2421
sa(dp2422
g38
I4096745987
sg39
(dp2423
g41
VnV RayneHCS
p2424
sg43
Nssg44
(lp2425
I2758383128
asg32
VWeaponPickup
p2426
sg35
VPT3M11.9020229S
p2427
sa(dp2428
g32
VPlayerSpawn
p2429
sg39
(dp2430
g41
VnV RayneHCS
p2431
sg43
Nssg35
VPT3M11.9020229S
p2432
sa(dp2433
g32
VMedal
p2434
sg39
(dp2435
g41
VTL Danoxide
p2436
sg43
Nssg241
I2916014239
sg35
VPT3M12.166S
p2437
sa(dp2438
g38
I313138863
sg39
(dp2439
g41
VnV Mikwen HCS
p2440
sg43
Nssg44
(lp2441
I1095363701
asg32
VWeaponPickup
p2442
sg35
VPT3M15.1340206S
p2443
sa(dp2444
g38
I4096745987
sg39
(dp2445
g41
VnV Mikwen HCS
p2446
sg43
Nssg44
(lp2447
I2758383128
asg32
VWeaponPickup
p2448
sg35
VPT3M15.1340206S
p2449
sa(dp2450
g32
VPlayerSpawn
p2451
sg39
(dp2452
g41
VnV Mikwen HCS
p2453
sg43
Nssg35
VPT3M15.1350206S
p2454
sa(dp2455
g208
I313138863
sg209
I00
sg210
I00
sg211
(dp2456
g41
VnV eL ToWn
p2457
sg43
Nssg214
(lp2458
I1095363701
asg216
I00
sg217
I01
sg218
I1
sg219
I0
sg220
I1
sg221
(dp2459
Vy
F-8.0591419999999996
sVx
F12.913434000000001
sVz
F0.0045318305500000001
ssg223
(dp2460
Vy
F-7.7878236799999998
sVx
F10.072567899999999
sVz
F0.80087909999999995
ssg225
I00
sg226
(dp2461
g41
VTL StelluR
p2462
sg43
Nssg229
(lp2463
sg231
(lp2464
sg233
I00
sg35
VPT3M17.3500198S
p2465
sg32
VDeath
p2466
sg236
I1
sa(dp2467
g38
I313138863
sg32
VWeaponDrop
p2468
sg180
I0
sg44
(lp2469
I1095363701
asg35
VPT3M17.3530247S
p2470
sg183
I0
sg184
VP0DT0H0M3.4167S
p2471
sg39
(dp2472
g41
VTL StelluR
p2473
sg43
Nssa(dp2474
g38
I4096745987
sg32
VWeaponDrop
p2475
sg180
I16
sg44
(lp2476
I2758383128
asg35
VPT3M17.3530247S
p2477
sg183
I8
sg184
VP0DT0H0M14.7500S
p2478
sg39
(dp2479
g41
VTL StelluR
p2480
sg43
Nssa(dp2481
g38
I313138863
sg39
(dp2482
g41
VnV Pistola HCS
p2483
sg43
Nssg44
(lp2484
I1095363701
asg32
VWeaponPickup
p2485
sg35
VPT3M18.6510266S
p2486
sa(dp2487
g38
I4096745987
sg39
(dp2488
g41
VnV Pistola HCS
p2489
sg43
Nssg44
(lp2490
I2758383128
asg32
VWeaponPickup
p2491
sg35
VPT3M18.6510266S
p2492
sa(dp2493
g32
VPlayerSpawn
p2494
sg39
(dp2495
g41
VnV Pistola HCS
p2496
sg43
Nssg35
VPT3M18.6510266S
p2497
sa(dp2498
g208
I4096745987
sg209
I00
sg210
I00
sg211
(dp2499
g41
VTL Danoxide
p2500
sg43
Nssg214
(lp2501
I2758383128
asg216
I00
sg217
I01
sg218
I1
sg219
I0
sg220
I0
sg221
(dp2502
Vy
F9.7787319999999998
sVx
F11.4847593
sVz
F3.83767557
ssg223
(dp2503
Vy
F13.696915600000001
sVx
F10.634316399999999
sVz
F4.0607319999999998
ssg225
I00
sg226
(dp2504
S'Gamertag'
p2505
S'None'
p2506
ssg229
(lp2507
sg231
(lp2508
sg233
I00
sg35
VPT3M18.8000029S
p2509
sg32
VDeath
p2510
sg236
I1
sa(dp2511
g208
I47178948
sg209
I00
sg210
I00
sg211
(dp2512
g41
VTL Danoxide
p2513
sg43
Nssg214
(lp2514
sg216
I00
sg217
I01
sg218
I1
sg219
I0
sg220
I0
sg221
(dp2515
Vy
F9.7787319999999998
sVx
F11.4847593
sVz
F3.83767557
ssg223
(dp2516
Vy
F13.6809177
sVx
F10.3329773
sVz
F4.0566089999999999
ssg225
I00
sg226
(dp2517
g2505
g2506
ssg229
(lp2518
sg231
(lp2519
sg233
I00
sg35
VPT3M18.8000029S
p2520
sg32
VDeath
p2521
sg236
I1
sa(dp2522
g32
VMedal
p2523
sg39
(dp2524
g41
VnV Mikwen HCS
p2525
sg43
Nssg241
I2916014239
sg35
VPT3M22.1660206S
p2526
sa(dp2527
g208
I4096745987
sg209
I00
sg210
I01
sg211
(dp2528
g41
VnV RayneHCS
p2529
sg43
Nssg214
(lp2530
I2758383128
asg216
I00
sg217
I00
sg218
I1
sg219
I0
sg220
I1
sg221
(dp2531
Vy
F-8.0499240000000007
sVx
F11.8390942
sVz
F3.1370403800000002
ssg223
(dp2532
Vy
F-7.7019467400000003
sVx
F11.803840599999999
sVz
F3.1403884899999999
ssg225
I00
sg226
(dp2533
g41
VLiquid Eco
p2534
sg43
Nssg229
(lp2535
sg231
(lp2536
sg233
I00
sg35
VPT3M25.233008S
p2537
sg32
VDeath
p2538
sg236
I1
sa(dp2539
g32
VMedal
p2540
sg39
(dp2541
g41
VnV RayneHCS
p2542
sg43
Nssg241
I2287626681
sg35
VPT3M25.23402S
p2543
sa(dp2544
g38
I313138863
sg32
VWeaponDrop
p2545
sg180
I5
sg44
(lp2546
I1095363701
asg35
VPT3M25.23402S
p2547
sg183
I3
sg184
VP0DT0H0M3.5000S
p2548
sg39
(dp2549
g41
VLiquid Eco
p2550
sg43
Nssa(dp2551
g38
I4096745987
sg32
VWeaponDrop
p2552
sg180
I12
sg44
(lp2553
I2758383128
asg35
VPT3M25.2360027S
p2554
sg183
I6
sg184
VP0DT0H0M34.7333S
p2555
sg39
(dp2556
g41
VLiquid Eco
p2557
sg43
Nssa(dp2558
g38
I313138863
sg39
(dp2559
g41
VTL StelluR
p2560
sg43
Nssg44
(lp2561
I1095363701
asg32
VWeaponPickup
p2562
sg35
VPT3M25.3670246S
p2563
sa(dp2564
g38
I4096745987
sg39
(dp2565
g41
VTL StelluR
p2566
sg43
Nssg44
(lp2567
I2758383128
asg32
VWeaponPickup
p2568
sg35
VPT3M25.3670246S
p2569
sa(dp2570
g32
VPlayerSpawn
p2571
sg39
(dp2572
g41
VTL StelluR
p2573
sg43
Nssg35
VPT3M25.3670246S
p2574
sa(dp2575
g32
VMedal
p2576
sg39
(dp2577
g41
VnV RayneHCS
p2578
sg43
Nssg241
I3565443938
sg35
VPT3M26.9820101S
p2579
sa(dp2580
g32
VMedal
p2581
sg39
(dp2582
g41
VnV Pistola HCS
p2583
sg43
Nssg241
I3565443938
sg35
VPT3M26.9820101S
p2584
sa(dp2585
g32
VMedal
p2586
sg39
(dp2587
g41
VnV eL ToWn
p2588
sg43
Nssg241
I1637841390
sg35
VPT3M26.9820101S
p2589
sa(dp2590
g38
I313138863
sg32
VWeaponDrop
p2591
sg180
I0
sg44
(lp2592
I1095363701
asg35
VPT3M28.2320009S
p2593
sg183
I0
sg184
VP0DT0H0M1.2667S
p2594
sg39
(dp2595
g41
VTL StelluR
p2596
sg43
Nssa(dp2597
g38
I424645655
sg39
(dp2598
g41
VTL StelluR
p2599
sg43
Nssg44
(lp2600
I1327094800
asg32
VWeaponPickup
p2601
sg35
VPT3M28.2320009S
p2602
sa(dp2603
g32
VMedal
p2604
sg39
(dp2605
g41
VnV Mikwen HCS
p2606
sg43
Nssg241
I2916014239
sg35
VPT3M30.4650206S
p2607
sa(dp2608
g208
I313138863
sg209
I00
sg210
I00
sg211
(dp2609
g41
VnV Mikwen HCS
p2610
sg43
Nssg214
(lp2611
I1095363701
asg216
I00
sg217
I01
sg218
I1
sg219
I0
sg220
I1
sg221
(dp2612
Vy
F1.3158673000000001
sVx
F4.4467869999999996
sVz
F4.5774819999999998
ssg223
(dp2613
Vy
F7.1923584900000002
sVx
F0.20206637699999999
sVz
F3.6566290000000001
ssg225
I00
sg226
(dp2614
g41
VTL Spartan HCS
p2615
sg43
Nssg229
(lp2616
sg231
(lp2617
(dp2618
g41
VnV Pistola HCS
p2619
sg43
Nsasg233
I00
sg35
VPT3M32.1170007S
p2620
sg32
VDeath
p2621
sg236
I1
sa(dp2622
g38
I313138863
sg32
VWeaponDrop
p2623
sg180
I8
sg44
(lp2624
I1095363701
asg35
VPT3M32.1180257S
p2625
sg183
I2
sg184
VP0DT0H0M12.5833S
p2626
sg39
(dp2627
g41
VTL Spartan HCS
p2628
sg43
Nssa(dp2629
g38
I4096745987
sg32
VWeaponDrop
p2630
sg180
I0
sg44
(lp2631
I2758383128
asg35
VPT3M32.1180257S
p2632
sg183
I0
sg184
VP0DT0H0M8.9333S
p2633
sg39
(dp2634
g41
VTL Spartan HCS
p2635
sg43
Nssa(dp2636
g38
I313138863
sg32
VWeaponDrop
p2637
sg180
I0
sg44
(lp2638
I1095363701
asg35
VPT3M32.732001S
p2639
sg183
I0
sg184
VP0DT0H0M1.8500S
p2640
sg39
(dp2641
g41
VnV RayneHCS
p2642
sg43
Nssa(dp2643
g38
I2015271382
sg39
(dp2644
g41
VnV RayneHCS
p2645
sg43
Nssg44
(lp2646
I2758383128
asg32
VWeaponPickup
p2647
sg35
VPT3M32.732001S
p2648
sa(dp2649
g38
I313138863
sg39
(dp2650
g41
VLiquid Eco
p2651
sg43
Nssg44
(lp2652
I1095363701
asg32
VWeaponPickup
p2653
sg35
VPT3M33.2500005S
p2654
sa(dp2655
g38
I4096745987
sg39
(dp2656
g41
VLiquid Eco
p2657
sg43
Nssg44
(lp2658
I2758383128
asg32
VWeaponPickup
p2659
sg35
VPT3M33.2500005S
p2660
sa(dp2661
g32
VPlayerSpawn
p2662
sg39
(dp2663
g41
VLiquid Eco
p2664
sg43
Nssg35
VPT3M33.2500005S
p2665
sa(dp2666
g208
I424645655
sg209
I00
sg210
I00
sg211
(dp2667
g41
VTL StelluR
p2668
sg43
Nssg214
(lp2669
I1327094800
asg216
I00
sg217
I01
sg218
I1
sg219
I0
sg220
I1
sg221
(dp2670
Vy
F-0.42171009999999998
sVx
F0.97566533099999997
sVz
F3.1266722699999998
ssg223
(dp2671
Vy
F-0.7865413
sVx
F2.3718214
sVz
F3.5133920000000001
ssg225
I00
sg226
(dp2672
g41
VnV Mikwen HCS
p2673
sg43
Nssg229
(lp2674
sg231
(lp2675
(dp2676
g41
VTL Spartan HCS
p2677
sg43
Nsasg233
I01
sg35
VPT3M36.0830004S
p2678
sg32
VDeath
p2679
sg236
I1
sa(dp2680
g32
VMedal
p2681
sg39
(dp2682
g41
VTL StelluR
p2683
sg43
Nssg241
I3261908037
sg35
VPT3M36.0850024S
p2684
sa(dp2685
g38
I313138863
sg32
VWeaponDrop
p2686
sg180
I23
sg44
(lp2687
I1095363701
asg35
VPT3M36.0850024S
p2688
sg183
I5
sg184
VP0DT0H0M7.8167S
p2689
sg39
(dp2690
g41
VnV Mikwen HCS
p2691
sg43
Nssa(dp2692
g38
I4096745987
sg32
VWeaponDrop
p2693
sg180
I6
sg44
(lp2694
I2758383128
asg35
VPT3M36.0850024S
p2695
sg183
I4
sg184
VP0DT0H0M13.1333S
p2696
sg39
(dp2697
g41
VnV Mikwen HCS
p2698
sg43
Nssa(dp2699
g208
I2902827823
sg209
I00
sg210
I00
sg211
(dp2700
g41
VTL Danoxide
p2701
sg43
Nssg214
(lp2702
I2758383128
asg216
I00
sg217
I01
sg218
I1
sg219
I0
sg220
I1
sg221
(dp2703
Vy
F-6.5448180000000002
sVx
F19.969423299999999
sVz
F2.4644458299999998
ssg223
(dp2704
Vy
F-10.2557077
sVx
F19.0214748
sVz
F2.2130918500000001
ssg225
I00
sg226
(dp2705
g41
VnV eL ToWn
p2706
sg43
Nssg229
(lp2707
sg231
(lp2708
sg233
I00
sg35
VPT3M36.1660007S
p2709
sg32
VDeath
p2710
sg236
I1
sa(dp2711
g38
I313138863
sg32
VWeaponDrop
p2712
sg180
I50
sg44
(lp2713
I1095363701
asg35
VPT3M36.1670022S
p2714
sg183
I13
sg184
VP0DT0H0M17.9500S
p2715
sg39
(dp2716
g41
VnV eL ToWn
p2717
sg43
Nssa(dp2718
g38
I4096745987
sg32
VWeaponDrop
p2719
sg180
I17
sg44
(lp2720
I2758383128
asg35
VPT3M36.1670022S
p2721
sg183
I5
sg184
VP0DT0H0M23.8000S
p2722
sg39
(dp2723
g41
VnV eL ToWn
p2724
sg43
Nssa(dp2725
g208
I4096745987
sg209
I00
sg210
I00
sg211
(dp2726
g41
VnV Pistola HCS
p2727
sg43
Nssg214
(lp2728
I2758383128
asg216
I00
sg217
I01
sg218
I1
sg219
I0
sg220
I1
sg221
(dp2729
Vy
F-2.2329137299999999
sVx
F-4.7058359999999997
sVz
F1.7999877900000001
ssg223
(dp2730
Vy
F-0.87585675699999999
sVx
F-2.09658313
sVz
F2.3999999999999999
ssg225
I00
sg226
(dp2731
g41
VTL StelluR
p2732
sg43
Nssg229
(lp2733
sg231
(lp2734
(dp2735
g41
VnV Mikwen HCS
p2736
sg43
Nsa(dp2737
g41
VnV RayneHCS
p2738
sg43
Nsasg233
I00
sg35
VPT3M37.6160001S
p2739
sg32
VDeath
p2740
sg236
I1
sa(dp2741
g38
I424645655
sg32
VWeaponDrop
p2742
sg180
I15
sg44
(lp2743
I1327094800
asg35
VPT3M37.6180203S
p2744
sg183
I10
sg184
VP0DT0H0M9.3833S
p2745
sg39
(dp2746
g41
VTL StelluR
p2747
sg43
Nssa(dp2748
g38
I4096745987
sg32
VWeaponDrop
p2749
sg180
I0
sg44
(lp2750
I2758383128
asg35
VPT3M37.6180203S
p2751
sg183
I0
sg184
VP0DT0H0M1.6000S
p2752
sg39
(dp2753
g41
VTL StelluR
p2754
sg43
Nssa(dp2755
g38
I4096745987
sg32
VWeaponDrop
p2756
sg180
I12
sg44
(lp2757
I2758383128
asg35
VPT3M39.015001S
p2758
sg183
I6
sg184
VP0DT0H0M19.7333S
p2759
sg39
(dp2760
g41
VnV Pistola HCS
p2761
sg43
Nssa(dp2762
g38
I424645655
sg39
(dp2763
g41
VnV Pistola HCS
p2764
sg43
Nssg44
(lp2765
I1327094800
asg32
VWeaponPickup
p2766
sg35
VPT3M39.015001S
p2767
sa(dp2768
g38
I313138863
sg39
(dp2769
g41
VTL Spartan HCS
p2770
sg43
Nssg44
(lp2771
I1095363701
asg32
VWeaponPickup
p2772
sg35
VPT3M40.1330274S
p2773
sa(dp2774
g38
I4096745987
sg39
(dp2775
g41
VTL Spartan HCS
p2776
sg43
Nssg44
(lp2777
I2758383128
asg32
VWeaponPickup
p2778
sg35
VPT3M40.1330274S
p2779
sa(dp2780
g32
VPlayerSpawn
p2781
sg39
(dp2782
g41
VTL Spartan HCS
p2783
sg43
Nssg35
VPT3M40.1330274S
p2784
sa(dp2785
g32
VMedal
p2786
sg39
(dp2787
g41
VnV RayneHCS
p2788
sg43
Nssg241
I2916014239
sg35
VPT3M41.4980219S
p2789
sa(dp2790
g208
I424645655
sg209
I00
sg210
I00
sg211
(dp2791
g41
VnV Pistola HCS
p2792
sg43
Nssg214
(lp2793
I1327094800
asg216
I00
sg217
I01
sg218
I1
sg219
I0
sg220
I1
sg221
(dp2794
Vy
F-2.9949178700000001
sVx
F-0.25782924899999998
sVz
F2.3762941400000002
ssg223
(dp2795
Vy
F-5.0153340000000002
sVx
F11.659739999999999
sVz
F3.9340832200000002
ssg225
I00
sg226
(dp2796
g41
VTL Danoxide
p2797
sg43
Nssg229
(lp2798
sg231
(lp2799
(dp2800
g41
VnV RayneHCS
p2801
sg43
Nsasg233
I01
sg35
VPT3M41.7830015S
p2802
sg32
VDeath
p2803
sg236
I1
sa(dp2804
g32
VMedal
p2805
sg39
(dp2806
g41
VnV Pistola HCS
p2807
sg43
Nssg241
I3261908037
sg35
VPT3M41.7850254S
p2808
sa(dp2809
g32
VMedal
p2810
sg39
(dp2811
g41
VnV Pistola HCS
p2812
sg43
Nssg241
I2078758684
sg35
VPT3M41.7850254S
p2813
sa(dp2814
g38
I2902827823
sg32
VWeaponDrop
p2815
sg180
I3
sg44
(lp2816
I2758383128
asg35
VPT3M41.7850254S
p2817
sg183
I3
sg184
VP0DT0H0M11.9833S
p2818
sg39
(dp2819
g41
VTL Danoxide
p2820
sg43
Nssa(dp2821
g38
I4096745987
sg32
VWeaponDrop
p2822
sg180
I28
sg44
(lp2823
I2758383128
asg35
VPT3M41.7850254S
p2824
sg183
I14
sg184
VP0DT0H0M45.2000S
p2825
sg39
(dp2826
g41
VTL Danoxide
p2827
sg43
Nssa(dp2828
g38
I4096745987
sg32
VWeaponDrop
p2829
sg180
I0
sg44
(lp2830
I2758383128
asg35
VPT3M41.7850254S
p2831
sg183
I0
sg184
VP0DT0S
p2832
sg39
(dp2833
g41
VTL Danoxide
p2834
sg43
Nssa(dp2835
g38
I313138863
sg39
(dp2836
g41
VnV Mikwen HCS
p2837
sg43
Nssg44
(lp2838
I1095363701
asg32
VWeaponPickup
p2839
sg35
VPT3M44.0990015S
p2840
sa(dp2841
g38
I4096745987
sg39
(dp2842
g41
VnV Mikwen HCS
p2843
sg43
Nssg44
(lp2844
I2758383128
asg32
VWeaponPickup
p2845
sg35
VPT3M44.1000207S
p2846
sa(dp2847
g32
VPlayerSpawn
p2848
sg39
(dp2849
g41
VnV Mikwen HCS
p2850
sg43
Nssg35
VPT3M44.1000207S
p2851
sa(dp2852
g38
I313138863
sg39
(dp2853
g41
VnV eL ToWn
p2854
sg43
Nssg44
(lp2855
I1095363701
asg32
VWeaponPickup
p2856
sg35
VPT3M44.1830014S
p2857
sa(dp2858
g38
I4096745987
sg39
(dp2859
g41
VnV eL ToWn
p2860
sg43
Nssg44
(lp2861
I2758383128
asg32
VWeaponPickup
p2862
sg35
VPT3M44.1830014S
p2863
sa(dp2864
g32
VPlayerSpawn
p2865
sg39
(dp2866
g41
VnV eL ToWn
p2867
sg43
Nssg35
VPT3M44.1830014S
p2868
sa(dp2869
g208
I3190813201
sg209
I00
sg210
I00
sg211
(dp2870
g41
VnV Pistola HCS
p2871
sg43
Nssg214
(lp2872
sg216
I00
sg217
I01
sg218
I1
sg219
I0
sg220
I1
sg221
(dp2873
Vy
F-3.1909394299999998
sVx
F0.65991239999999995
sVz
F2.3754806500000001
ssg223
(dp2874
Vy
F-0.37592181600000002
sVx
F-1.0669633199999999
sVz
F2.5501673199999999
ssg225
I00
sg226
(dp2875
g41
VLiquid Eco
p2876
sg43
Nssg229
(lp2877
sg231
(lp2878
(dp2879
g41
VnV RayneHCS
p2880
sg43
Nsasg233
I00
sg35
VPT3M45.4330246S
p2881
sg32
VDeath
p2882
sg236
I1
sa(dp2883
g32
VMedal
p2884
sg39
(dp2885
g41
VnV Pistola HCS
p2886
sg43
Nssg241
I2763748638
sg35
VPT3M45.4340248S
p2887
sa(dp2888
g38
I313138863
sg32
VWeaponDrop
p2889
sg180
I13
sg44
(lp2890
I1095363701
asg35
VPT3M45.4340248S
p2891
sg183
I4
sg184
VP0DT0H0M5.6333S
p2892
sg39
(dp2893
g41
VLiquid Eco
p2894
sg43
Nssa(dp2895
g38
I4096745987
sg32
VWeaponDrop
p2896
sg180
I1
sg44
(lp2897
I2758383128
asg35
VPT3M45.4340248S
p2898
sg183
I0
sg184
VP0DT0H0M6.5500S
p2899
sg39
(dp2900
g41
VLiquid Eco
p2901
sg43
Nssa(dp2902
g38
I313138863
sg39
(dp2903
g41
VTL StelluR
p2904
sg43
Nssg44
(lp2905
I1095363701
asg32
VWeaponPickup
p2906
sg35
VPT3M45.6330219S
p2907
sa(dp2908
g38
I4096745987
sg39
(dp2909
g41
VTL StelluR
p2910
sg43
Nssg44
(lp2911
I2758383128
asg32
VWeaponPickup
p2912
sg35
VPT3M45.6330219S
p2913
sa(dp2914
g32
VPlayerSpawn
p2915
sg39
(dp2916
g41
VTL StelluR
p2917
sg43
Nssg35
VPT3M45.6330219S
p2918
sa(dp2919
g38
I313138863
sg32
VWeaponDrop
p2920
sg180
I0
sg44
(lp2921
I1095363701
asg35
VPT3M48.9140027S
p2922
sg183
I0
sg184
VP0DT0H0M1.5833S
p2923
sg39
(dp2924
g41
VTL StelluR
p2925
sg43
Nssa(dp2926
g38
I723388907
sg39
(dp2927
g41
VTL StelluR
p2928
sg43
Nssg44
(lp2929
I89283061
asg32
VWeaponPickup
p2930
sg35
VPT3M48.9150034S
p2931
sa(dp2932
g38
I313138863
sg39
(dp2933
g41
VTL Danoxide
p2934
sg43
Nssg44
(lp2935
I1095363701
asg32
VWeaponPickup
p2936
sg35
VPT3M49.7990021S
p2937
sa(dp2938
g38
I4096745987
sg39
(dp2939
g41
VTL Danoxide
p2940
sg43
Nssg44
(lp2941
I2758383128
asg32
VWeaponPickup
p2942
sg35
VPT3M49.7990021S
p2943
sa(dp2944
g32
VPlayerSpawn
p2945
sg39
(dp2946
g41
VTL Danoxide
p2947
sg43
Nssg35
VPT3M49.8000256S
p2948
sa(dp2949
g208
I4096745987
sg209
I00
sg210
I00
sg211
(dp2950
g41
VTL StelluR
p2951
sg43
Nssg214
(lp2952
I2758383128
asg216
I00
sg217
I01
sg218
I1
sg219
I0
sg220
I1
sg221
(dp2953
Vy
F3.43062735
sVx
F21.614135699999999
sVz
F1.89579773
ssg223
(dp2954
Vy
F-2.039698
sVx
F20.687324499999999
sVz
F0.92680910000000005
ssg225
I00
sg226
(dp2955
g41
VnV Mikwen HCS
p2956
sg43
Nssg229
(lp2957
sg231
(lp2958
(dp2959
g41
VTL Spartan HCS
p2960
sg43
Nsasg233
I01
sg35
VPT3M51.2990009S
p2961
sg32
VDeath
p2962
sg236
I1
sa(dp2963
g32
VMedal
p2964
sg39
(dp2965
g41
VTL StelluR
p2966
sg43
Nssg241
I3261908037
sg35
VPT3M51.3000209S
p2967
sa(dp2968
g38
I313138863
sg32
VWeaponDrop
p2969
sg180
I0
sg44
(lp2970
I1095363701
asg35
VPT3M51.3010211S
p2971
sg183
I0
sg184
VP0DT0H0M0.7667S
p2972
sg39
(dp2973
g41
VnV Mikwen HCS
p2974
sg43
Nssa(dp2975
g38
I4096745987
sg32
VWeaponDrop
p2976
sg180
I3
sg44
(lp2977
I2758383128
asg35
VPT3M51.3010211S
p2978
sg183
I2
sg184
VP0DT0H0M6.4333S
p2979
sg39
(dp2980
g41
VnV Mikwen HCS
p2981
sg43
Nssa(dp2982
g38
I313138863
sg39
(dp2983
g41
VLiquid Eco
p2984
sg43
Nssg44
(lp2985
I1095363701
asg32
VWeaponPickup
p2986
sg35
VPT3M53.4490029S
p2987
sa(dp2988
g38
I4096745987
sg39
(dp2989
g41
VLiquid Eco
p2990
sg43
Nssg44
(lp2991
I2758383128
asg32
VWeaponPickup
p2992
sg35
VPT3M53.4490029S
p2993
sa(dp2994
g32
VPlayerSpawn
p2995
sg39
(dp2996
g41
VLiquid Eco
p2997
sg43
Nssg35
VPT3M53.4500008S
p2998
sa(dp2999
g38
I313138863
sg39
(dp3000
g41
VnV Mikwen HCS
p3001
sg43
Nssg44
(lp3002
I1095363701
asg32
VWeaponPickup
p3003
sg35
VPT3M59.3160033S
p3004
sa(dp3005
g38
I4096745987
sg39
(dp3006
g41
VnV Mikwen HCS
p3007
sg43
Nssg44
(lp3008
I2758383128
asg32
VWeaponPickup
p3009
sg35
VPT3M59.3160033S
p3010
sa(dp3011
g32
VPlayerSpawn
p3012
sg39
(dp3013
g41
VnV Mikwen HCS
p3014
sg43
Nssg35
VPT3M59.3160033S
p3015
sa(dp3016
g32
VMedal
p3017
sg39
(dp3018
g41
VTL Spartan HCS
p3019
sg43
Nssg241
I2916014239
sg35
VPT4M0.1980018S
p3020
sa(dp3021
g208
I313138863
sg209
I00
sg210
I00
sg211
(dp3022
g41
VTL Spartan HCS
p3023
sg43
Nssg214
(lp3024
I1095363701
asg216
I00
sg217
I01
sg218
I1
sg219
I0
sg220
I1
sg221
(dp3025
Vy
F6.4604554199999997
sVx
F21.581969999999998
sVz
F1.60960484
ssg223
(dp3026
Vy
F3.27889681
sVx
F20.014263199999998
sVz
F0.80000649999999995
ssg225
I00
sg226
(dp3027
g41
VnV eL ToWn
p3028
sg43
Nssg229
(lp3029
sg231
(lp3030
(dp3031
g41
VTL Danoxide
p3032
sg43
Nsa(dp3033
g41
VLiquid Eco
p3034
sg43
Nsasg233
I00
sg35
VPT4M1.5320012S
p3035
sg32
VDeath
p3036
sg236
I1
sa(dp3037
g38
I313138863
sg32
VWeaponDrop
p3038
sg180
I2
sg44
(lp3039
I1095363701
asg35
VPT4M1.533022S
p3040
sg183
I0
sg184
VP0DT0H0M2.7667S
p3041
sg39
(dp3042
g41
VnV eL ToWn
p3043
sg43
Nssa(dp3044
g38
I4096745987
sg32
VWeaponDrop
p3045
sg180
I8
sg44
(lp3046
I2758383128
asg35
VPT4M1.533022S
p3047
sg183
I4
sg184
VP0DT0H0M14.5833S
p3048
sg39
(dp3049
g41
VnV eL ToWn
p3050
sg43
Nssa(dp3051
g208
I723388907
sg209
I00
sg210
I00
sg211
(dp3052
g41
VTL StelluR
p3053
sg43
Nssg214
(lp3054
I89283061
asg216
I00
sg217
I01
sg218
I1
sg219
I0
sg220
I1
sg221
(dp3055
Vy
F-7.8735290000000004
sVx
F20.560563999999999
sVz
F2.3207874300000002
ssg223
(dp3056
Vy
F-7.0399212799999997
sVx
F16.412420000000001
sVz
F1.58762348
ssg225
I00
sg226
(dp3057
g41
VnV RayneHCS
p3058
sg43
Nssg229
(lp3059
sg231
(lp3060
sg233
I00
sg35
VPT4M4.4330022S
p3061
sg32
VDeath
p3062
sg236
I1
sa(dp3063
g38
I2015271382
sg32
VWeaponDrop
p3064
sg180
I7
sg44
(lp3065
I2758383128
asg35
VPT4M4.4350204S
p3066
sg183
I3
sg184
VP0DT0H0M6.1333S
p3067
sg39
(dp3068
g41
VnV RayneHCS
p3069
sg43
Nssa(dp3070
g38
I4096745987
sg32
VWeaponDrop
p3071
sg180
I24
sg44
(lp3072
I2758383128
asg35
VPT4M4.4350204S
p3073
sg183
I13
sg184
VP0DT0H0M44.5500S
p3074
sg39
(dp3075
g41
VnV RayneHCS
p3076
sg43
Nssa(dp3077
g38
I4096745987
sg32
VWeaponDrop
p3078
sg180
I0
sg44
(lp3079
I2758383128
asg35
VPT4M4.4350204S
p3080
sg183
I0
sg184
VP0DT0S
p3081
sg39
(dp3082
g41
VnV RayneHCS
p3083
sg43
Nssa(dp3084
g208
I4096745987
sg209
I00
sg210
I00
sg211
(dp3085
g41
VnV Mikwen HCS
p3086
sg43
Nssg214
(lp3087
I2758383128
asg216
I00
sg217
I01
sg218
I1
sg219
I0
sg220
I1
sg221
(dp3088
Vy
F-7.8135495199999996
sVx
F10.173731800000001
sVz
F3.1403884899999999
ssg223
(dp3089
Vy
F-9.6590349999999994
sVx
F14.4450188
sVz
F2.8315675300000001
ssg225
I00
sg226
(dp3090
g41
VTL StelluR
p3091
sg43
Nssg229
(lp3092
sg231
(lp3093
(dp3094
g41
VnV RayneHCS
p3095
sg43
Nsasg233
I01
sg35
VPT4M7.315001S
p3096
sg32
VDeath
p3097
sg236
I1
sa(dp3098
g32
VMedal
p3099
sg39
(dp3100
g41
VnV Mikwen HCS
p3101
sg43
Nssg241
I3261908037
sg35
VPT4M7.3160225S
p3102
sa(dp3103
g38
I4096745987
sg32
VWeaponDrop
p3104
sg180
I8
sg44
(lp3105
I2758383128
asg35
VPT4M7.317023S
p3106
sg183
I3
sg184
VP0DT0H0M13.3833S
p3107
sg39
(dp3108
g41
VTL StelluR
p3109
sg43
Nssa(dp3110
g38
I723388907
sg32
VWeaponDrop
p3111
sg180
I32
sg44
(lp3112
I89283061
asg35
VPT4M7.317023S
p3113
sg183
I15
sg184
VP0DT0H0M6.7167S
p3114
sg39
(dp3115
g41
VTL StelluR
p3116
sg43
Nssa(dp3117
g38
I313138863
sg32
VWeaponDrop
p3118
sg180
I0
sg44
(lp3119
I1095363701
asg35
VPT4M8.146999S
p3120
sg183
I0
sg184
VP0DT0H0M0.7833S
p3121
sg39
(dp3122
g41
VnV Mikwen HCS
p3123
sg43
Nssa(dp3124
g38
I2015271382
sg39
(dp3125
g41
VnV Mikwen HCS
p3126
sg43
Nssg44
(lp3127
I2758383128
asg32
VWeaponPickup
p3128
sg35
VPT4M8.146999S
p3129
sa(dp3130
g38
I313138863
sg32
VWeaponDrop
p3131
sg180
I0
sg44
(lp3132
I1095363701
asg35
VPT4M8.5800215S
p3133
sg183
I0
sg184
VP0DT0H0M2.2333S
p3134
sg39
(dp3135
g41
VTL Danoxide
p3136
sg43
Nssa(dp3137
g38
I723388907
sg39
(dp3138
g41
VTL Danoxide
p3139
sg43
Nssg44
(lp3140
I89283061
asg32
VWeaponPickup
p3141
sg35
VPT4M8.5800215S
p3142
sa(dp3143
g38
I313138863
sg39
(dp3144
g41
VnV eL ToWn
p3145
sg43
Nssg44
(lp3146
I1095363701
asg32
VWeaponPickup
p3147
sg35
VPT4M9.5480016S
p3148
sa(dp3149
g38
I4096745987
sg39
(dp3150
g41
VnV eL ToWn
p3151
sg43
Nssg44
(lp3152
I2758383128
asg32
VWeaponPickup
p3153
sg35
VPT4M9.5490219S
p3154
sa(dp3155
g32
VPlayerSpawn
p3156
sg39
(dp3157
g41
VnV eL ToWn
p3158
sg43
Nssg35
VPT4M9.5490219S
p3159
sa(dp3160
g38
I313138863
sg39
(dp3161
g41
VnV RayneHCS
p3162
sg43
Nssg44
(lp3163
I1095363701
asg32
VWeaponPickup
p3164
sg35
VPT4M12.448001S
p3165
sa(dp3166
g38
I4096745987
sg39
(dp3167
g41
VnV RayneHCS
p3168
sg43
Nssg44
(lp3169
I2758383128
asg32
VWeaponPickup
p3170
sg35
VPT4M12.4490005S
p3171
sa(dp3172
g32
VPlayerSpawn
p3173
sg39
(dp3174
g41
VnV RayneHCS
p3175
sg43
Nssg35
VPT4M12.4490005S
p3176
sa(dp3177
g208
I723388907
sg209
I00
sg210
I00
sg211
(dp3178
g41
VTL Danoxide
p3179
sg43
Nssg214
(lp3180
I89283061
asg216
I00
sg217
I01
sg218
I1
sg219
I0
sg220
I1
sg221
(dp3181
Vy
F-14.2328682
sVx
F6.7302330000000001
sVz
F1.690177
ssg223
(dp3182
Vy
F-14.227706
sVx
F10.0137787
sVz
F2.2062072800000001
ssg225
I00
sg226
(dp3183
g41
VnV Mikwen HCS
p3184
sg43
Nssg229
(lp3185
sg231
(lp3186
(dp3187
g41
VTL StelluR
p3188
sg43
Nsa(dp3189
g41
VTL Spartan HCS
p3190
sg43
Nsasg233
I00
sg35
VPT4M13.015S
p3191
sg32
VDeath
p3192
sg236
I1
sa(dp3193
g38
I4096745987
sg32
VWeaponDrop
p3194
sg180
I5
sg44
(lp3195
I2758383128
asg35
VPT4M13.017021S
p3196
sg183
I4
sg184
VP0DT0H0M9.9500S
p3197
sg39
(dp3198
g41
VnV Mikwen HCS
p3199
sg43
Nssa(dp3200
g38
I2015271382
sg32
VWeaponDrop
p3201
sg180
I8
sg44
(lp3202
I2758383128
asg35
VPT4M13.0180209S
p3203
sg183
I3
sg184
VP0DT0H0M2.9667S
p3204
sg39
(dp3205
g41
VnV Mikwen HCS
p3206
sg43
Nssa(dp3207
g38
I313138863
sg39
(dp3208
g41
VTL StelluR
p3209
sg43
Nssg44
(lp3210
I1095363701
asg32
VWeaponPickup
p3211
sg35
VPT4M15.3320218S
p3212
sa(dp3213
g38
I4096745987
sg39
(dp3214
g41
VTL StelluR
p3215
sg43
Nssg44
(lp3216
I2758383128
asg32
VWeaponPickup
p3217
sg35
VPT4M15.3320218S
p3218
sa(dp3219
g32
VPlayerSpawn
p3220
sg39
(dp3221
g41
VTL StelluR
p3222
sg43
Nssg35
VPT4M15.3320218S
p3223
sa(dp3224
g38
I313138863
sg39
(dp3225
g41
VnV Mikwen HCS
p3226
sg43
Nssg44
(lp3227
I1095363701
asg32
VWeaponPickup
p3228
sg35
VPT4M21.0310044S
p3229
sa(dp3230
g38
I4096745987
sg39
(dp3231
g41
VnV Mikwen HCS
p3232
sg43
Nssg44
(lp3233
I2758383128
asg32
VWeaponPickup
p3234
sg35
VPT4M21.0320006S
p3235
sa(dp3236
g32
VPlayerSpawn
p3237
sg39
(dp3238
g41
VnV Mikwen HCS
p3239
sg43
Nssg35
VPT4M21.0320006S
p3240
sa(dp3241
g208
I4096745987
sg209
I00
sg210
I00
sg211
(dp3242
g41
VnV eL ToWn
p3243
sg43
Nssg214
(lp3244
I2758383128
asg216
I00
sg217
I01
sg218
I1
sg219
I0
sg220
I1
sg221
(dp3245
Vy
F8.5326380000000004
sVx
F0.275852084
sVz
F3.7001571700000002
ssg223
(dp3246
Vy
F13.06378
sVx
F6.6043295899999999
sVz
F3.0249018699999999
ssg225
I00
sg226
(dp3247
g41
VLiquid Eco
p3248
sg43
Nssg229
(lp3249
sg231
(lp3250
sg233
I01
sg35
VPT4M23.5470207S
p3251
sg32
VDeath
p3252
sg236
I1
sa(dp3253
g32
VMedal
p3254
sg39
(dp3255
g41
VnV eL ToWn
p3256
sg43
Nssg241
I3261908037
sg35
VPT4M23.5500219S
p3257
sa(dp3258
g38
I313138863
sg32
VWeaponDrop
p3259
sg180
I0
sg44
(lp3260
I1095363701
asg35
VPT4M23.5500219S
p3261
sg183
I0
sg184
VP0DT0H0M0.5833S
p3262
sg39
(dp3263
g41
VLiquid Eco
p3264
sg43
Nssa(dp3265
g38
I4096745987
sg32
VWeaponDrop
p3266
sg180
I22
sg44
(lp3267
I2758383128
asg35
VPT4M23.5500219S
p3268
sg183
I7
sg184
VP0DT0H0M29.5167S
p3269
sg39
(dp3270
g41
VLiquid Eco
p3271
sg43
Nssa(dp3272
g32
VMedal
p3273
sg39
(dp3274
g41
VTL Spartan HCS
p3275
sg43
Nssg241
I3565443938
sg35
VPT4M24.7470001S
p3276
sa(dp3277
g208
I313138863
sg209
I00
sg210
I00
sg211
(dp3278
g41
VnV RayneHCS
p3279
sg43
Nssg214
(lp3280
I1095363701
asg216
I00
sg217
I01
sg218
I1
sg219
I0
sg220
I1
sg221
(dp3281
Vy
F-7.1875980000000004
sVx
F17.722297699999999
sVz
F1.599542
ssg223
(dp3282
Vy
F-7.730213
sVx
F17.409753800000001
sVz
F1.70674908
ssg225
I00
sg226
(dp3283
g41
VTL Spartan HCS
p3284
sg43
Nssg229
(lp3285
sg231
(lp3286
(dp3287
g41
VnV Pistola HCS
p3288
sg43
Nsa(dp3289
g41
VnV Mikwen HCS
p3290
sg43
Nsasg233
I00
sg35
VPT4M26.9970074S
p3291
sg32
VDeath
p3292
sg236
I1
sa(dp3293
g38
I313138863
sg32
VWeaponDrop
p3294
sg180
I19
sg44
(lp3295
I1095363701
asg35
VPT4M26.9990216S
p3296
sg183
I7
sg184
VP0DT0H0M15.7167S
p3297
sg39
(dp3298
g41
VTL Spartan HCS
p3299
sg43
Nssa(dp3300
g38
I4096745987
sg32
VWeaponDrop
p3301
sg180
I11
sg44
(lp3302
I2758383128
asg35
VPT4M26.9990216S
p3303
sg183
I6
sg184
VP0DT0H0M31.1500S
p3304
sg39
(dp3305
g41
VTL Spartan HCS
p3306
sg43
Nssa(dp3307
g208
I4096745987
sg209
I00
sg210
I00
sg211
(dp3308
g41
VTL StelluR
p3309
sg43
Nssg214
(lp3310
I2758383128
asg216
I00
sg217
I01
sg218
I1
sg219
I0
sg220
I1
sg221
(dp3311
Vy
F-7.997776
sVx
F21.3067989
sVz
F1.6216887200000001
ssg223
(dp3312
Vy
F-7.2591495500000001
sVx
F16.973581299999999
sVz
F1.5865858799999999
ssg225
I00
sg226
(dp3313
g41
VnV RayneHCS
p3314
sg43
Nssg229
(lp3315
sg231
(lp3316
(dp3317
g41
VTL Spartan HCS
p3318
sg43
Nsasg233
I01
sg35
VPT4M27.6140012S
p3319
sg32
VDeath
p3320
sg236
I1
sa(dp3321
g32
VMedal
p3322
sg39
(dp3323
g41
VTL StelluR
p3324
sg43
Nssg241
I3261908037
sg35
VPT4M27.6150206S
p3325
sa(dp3326
g38
I313138863
sg32
VWeaponDrop
p3327
sg180
I10
sg44
(lp3328
I1095363701
asg35
VPT4M27.6160033S
p3329
sg183
I3
sg184
VP0DT0H0M9.4000S
p3330
sg39
(dp3331
g41
VnV RayneHCS
p3332
sg43
Nssa(dp3333
g38
I313138863
sg32
VWeaponDrop
p3334
sg180
I0
sg44
(lp3335
I1095363701
asg35
VPT4M27.6160033S
p3336
sg183
I0
sg184
VP0DT0S
p3337
sg39
(dp3338
g41
VnV RayneHCS
p3339
sg43
Nssa(dp3340
g38
I4096745987
sg32
VWeaponDrop
p3341
sg180
I0
sg44
(lp3342
I2758383128
asg35
VPT4M27.6160033S
p3343
sg183
I0
sg184
VP0DT0H0M5.7667S
p3344
sg39
(dp3345
g41
VnV RayneHCS
p3346
sg43
Nssa(dp3347
g38
I313138863
sg39
(dp3348
g41
VLiquid Eco
p3349
sg43
Nssg44
(lp3350
I1095363701
asg32
VWeaponPickup
p3351
sg35
VPT4M31.5640026S
p3352
sa(dp3353
g38
I4096745987
sg39
(dp3354
g41
VLiquid Eco
p3355
sg43
Nssg44
(lp3356
I2758383128
asg32
VWeaponPickup
p3357
sg35
VPT4M31.5640026S
p3358
sa(dp3359
g32
VPlayerSpawn
p3360
sg39
(dp3361
g41
VLiquid Eco
p3362
sg43
Nssg35
VPT4M31.5640026S
p3363
sa(dp3364
g38
I313138863
sg32
VWeaponDrop
p3365
sg180
I0
sg44
(lp3366
I1095363701
asg35
VPT4M32.0290205S
p3367
sg183
I0
sg184
VP0DT0H0M1.3167S
p3368
sg39
(dp3369
g41
VTL StelluR
p3370
sg43
Nssa(dp3371
g38
I2902827823
sg39
(dp3372
g41
VTL StelluR
p3373
sg43
Nssg44
(lp3374
I2758383128
asg32
VWeaponPickupPad
p3375
sg35
VPT4M32.0290205S
p3376
sa(dp3377
g38
I2902827823
sg39
(dp3378
g41
VTL StelluR
p3379
sg43
Nssg44
(lp3380
I2758383128
asg32
VWeaponPickup
p3381
sg35
VPT4M32.0300202S
p3382
sa(dp3383
g38
I313138863
sg39
(dp3384
g41
VTL Spartan HCS
p3385
sg43
Nssg44
(lp3386
I1095363701
asg32
VWeaponPickup
p3387
sg35
VPT4M35.0140012S
p3388
sa(dp3389
g38
I4096745987
sg39
(dp3390
g41
VTL Spartan HCS
p3391
sg43
Nssg44
(lp3392
I2758383128
asg32
VWeaponPickup
p3393
sg35
VPT4M35.0140012S
p3394
sa(dp3395
g32
VPlayerSpawn
p3396
sg39
(dp3397
g41
VTL Spartan HCS
p3398
sg43
Nssg35
VPT4M35.0140012S
p3399
sa(dp3400
g38
I313138863
sg39
(dp3401
g41
VnV RayneHCS
p3402
sg43
Nssg44
(lp3403
I1095363701
asg32
VWeaponPickup
p3404
sg35
VPT4M35.6310008S
p3405
sa(dp3406
g38
I4096745987
sg39
(dp3407
g41
VnV RayneHCS
p3408
sg43
Nssg44
(lp3409
I2758383128
asg32
VWeaponPickup
p3410
sg35
VPT4M35.6310008S
p3411
sa(dp3412
g32
VPlayerSpawn
p3413
sg39
(dp3414
g41
VnV RayneHCS
p3415
sg43
Nssg35
VPT4M35.6310008S
p3416
sa(dp3417
g208
I4096745987
sg209
I00
sg210
I00
sg211
(dp3418
g41
VnV Mikwen HCS
p3419
sg43
Nssg214
(lp3420
I2758383128
asg216
I00
sg217
I01
sg218
I1
sg219
I0
sg220
I1
sg221
(dp3421
Vy
F1.6167734899999999
sVx
F5.1163410000000002
sVz
F3.7001571700000002
ssg223
(dp3422
Vy
F15.639522599999999
sVx
F-0.079324126199999997
sVz
F3.7000045799999999
ssg225
I00
sg226
(dp3423
g41
VLiquid Eco
p3424
sg43
Nssg229
(lp3425
sg231
(lp3426
sg233
I01
sg35
VPT4M36.4810019S
p3427
sg32
VDeath
p3428
sg236
I1
sa(dp3429
g32
VMedal
p3430
sg39
(dp3431
g41
VnV Mikwen HCS
p3432
sg43
Nssg241
I3261908037
sg35
VPT4M36.4820011S
p3433
sa(dp3434
g38
I313138863
sg32
VWeaponDrop
p3435
sg180
I0
sg44
(lp3436
I1095363701
asg35
VPT4M36.4829999S
p3437
sg183
I0
sg184
VP0DT0H0M1.1667S
p3438
sg39
(dp3439
g41
VLiquid Eco
p3440
sg43
Nssa(dp3441
g38
I4096745987
sg32
VWeaponDrop
p3442
sg180
I4
sg44
(lp3443
I2758383128
asg35
VPT4M36.4829999S
p3444
sg183
I3
sg184
VP0DT0H0M3.7500S
p3445
sg39
(dp3446
g41
VLiquid Eco
p3447
sg43
Nssa(dp3448
g208
I4096745987
sg209
I00
sg210
I00
sg211
(dp3449
g41
VTL Danoxide
p3450
sg43
Nssg214
(lp3451
I2758383128
asg216
I00
sg217
I01
sg218
I1
sg219
I0
sg220
I1
sg221
(dp3452
Vy
F-16.9477577
sVx
F1.20621109
sVz
F2.463994
ssg223
(dp3453
Vy
F0.86877439999999995
sVx
F4.832363
sVz
F3.7001571700000002
ssg225
I00
sg226
(dp3454
g41
VnV Mikwen HCS
p3455
sg43
Nssg229
(lp3456
sg231
(lp3457
(dp3458
g41
VLiquid Eco
p3459
sg43
Nsasg233
I01
sg35
VPT4M36.8472963S
p3460
sg32
VDeath
p3461
sg236
I1
sa(dp3462
g32
VMedal
p3463
sg39
(dp3464
g41
VTL Danoxide
p3465
sg43
Nssg241
I3261908037
sg35
VPT4M36.8480161S
p3466
sa(dp3467
g38
I313138863
sg32
VWeaponDrop
p3468
sg180
I0
sg44
(lp3469
I1095363701
asg35
VPT4M36.8490222S
p3470
sg183
I0
sg184
VP0DT0H0M0.7667S
p3471
sg39
(dp3472
g41
VnV Mikwen HCS
p3473
sg43
Nssa(dp3474
g38
I4096745987
sg32
VWeaponDrop
p3475
sg180
I13
sg44
(lp3476
I2758383128
asg35
VPT4M36.8490222S
p3477
sg183
I6
sg184
VP0DT0H0M15.0500S
p3478
sg39
(dp3479
g41
VnV Mikwen HCS
p3480
sg43
Nssa(dp3481
g208
I2902827823
sg209
I00
sg210
I00
sg211
(dp3482
g41
VTL StelluR
p3483
sg43
Nssg214
(lp3484
I2758383128
asg216
I00
sg217
I01
sg218
I1
sg219
I0
sg220
I1
sg221
(dp3485
Vy
F1.8824069999999999
sVx
F13.2144394
sVz
F0.77474796800000001
ssg223
(dp3486
Vy
F0.3008883
sVx
F11.422681799999999
sVz
F-0.79758673899999999
ssg225
I00
sg226
(dp3487
g41
VnV eL ToWn
p3488
sg43
Nssg229
(lp3489
sg231
(lp3490
sg233
I00
sg35
VPT4M37.3300006S
p3491
sg32
VDeath
p3492
sg236
I1
sa(dp3493
g38
I313138863
sg32
VWeaponDrop
p3494
sg180
I0
sg44
(lp3495
I1095363701
asg35
VPT4M37.3320021S
p3496
sg183
I0
sg184
VP0DT0H0M5.1667S
p3497
sg39
(dp3498
g41
VnV eL ToWn
p3499
sg43
Nssa(dp3500
g38
I4096745987
sg32
VWeaponDrop
p3501
sg180
I10
sg44
(lp3502
I2758383128
asg35
VPT4M37.3320021S
p3503
sg183
I5
sg184
VP0DT0H0M22.6167S
p3504
sg39
(dp3505
g41
VnV eL ToWn
p3506
sg43
Nssa(dp3507
g38
I2492868984
sg39
(dp3508
g41
VTL StelluR
p3509
sg43
Nssg44
(lp3510
I2758383128
asg32
VWeaponPickup
p3511
sg35
VPT4M38.5470017S
p3512
sa(dp3513
g208
I424645655
sg209
I00
sg210
I00
sg211
(dp3514
g41
VnV Pistola HCS
p3515
sg43
Nssg214
(lp3516
I1327094800
asg216
I00
sg217
I01
sg218
I1
sg219
I0
sg220
I1
sg221
(dp3517
Vy
F-6.8341000000000003
sVx
F11.9802485
sVz
F0.0045318305500000001
ssg223
(dp3518
Vy
F2.3864624499999998
sVx
F12.4334373
sVz
F0.32124763699999997
ssg225
I00
sg226
(dp3519
g41
VTL StelluR
p3520
sg43
Nssg229
(lp3521
sg231
(lp3522
sg233
I01
sg35
VPT4M39.3639919S
p3523
sg32
VDeath
p3524
sg236
I1
sa(dp3525
g32
VMedal
p3526
sg39
(dp3527
g41
VnV Pistola HCS
p3528
sg43
Nssg241
I3261908037
sg35
VPT4M39.3670203S
p3529
sa(dp3530
g38
I2902827823
sg32
VWeaponDrop
p3531
sg180
I1
sg44
(lp3532
I2758383128
asg35
VPT4M39.3670203S
p3533
sg183
I1
sg184
VP0DT0H0M6.6833S
p3534
sg39
(dp3535
g41
VTL StelluR
p3536
sg43
Nssa(dp3537
g38
I4096745987
sg32
VWeaponDrop
p3538
sg180
I6
sg44
(lp3539
I2758383128
asg35
VPT4M39.3670203S
p3540
sg183
I1
sg184
VP0DT0H0M15.3833S
p3541
sg39
(dp3542
g41
VTL StelluR
p3543
sg43
Nssa(dp3544
g38
I2492868984
sg32
VWeaponDrop
p3545
sg180
I0
sg44
(lp3546
I2758383128
asg35
VPT4M39.3670203S
p3547
sg183
I0
sg184
VP0DT0H0M0.6500S
p3548
sg39
(dp3549
g41
VTL StelluR
p3550
sg43
Nssa(dp3551
g208
I4096745987
sg209
I00
sg210
I00
sg211
(dp3552
g41
VTL Spartan HCS
p3553
sg43
Nssg214
(lp3554
I2758383128
asg216
I00
sg217
I01
sg218
I1
sg219
I0
sg220
I1
sg221
(dp3555
Vy
F-10.6273994
sVx
F7.3577469999999998
sVz
F0.0045261980000000004
ssg223
(dp3556
Vy
F-7.8332709999999999
sVx
F10.452855100000001
sVz
F1.12212884
ssg225
I00
sg226
(dp3557
g41
VnV Pistola HCS
p3558
sg43
Nssg229
(lp3559
sg231
(lp3560
sg233
I00
sg35
VPT4M41.1470005S
p3561
sg32
VDeath
p3562
sg236
I1
sa(dp3563
g38
I313138863
sg32
VWeaponDrop
p3564
sg180
I0
sg44
(lp3565
I1095363701
asg35
VPT4M41.1490214S
p3566
sg183
I0
sg184
VP0DT0H0M8.8833S
p3567
sg39
(dp3568
g41
VnV Pistola HCS
p3569
sg43
Nssa(dp3570
g38
I424645655
sg32
VWeaponDrop
p3571
sg180
I60
sg44
(lp3572
I1327094800
asg35
VPT4M41.1490214S
p3573
sg183
I30
sg184
VP0DT0H0M53.8833S
p3574
sg39
(dp3575
g41
VnV Pistola HCS
p3576
sg43
Nssa(dp3577
g38
I313138863
sg39
(dp3578
g41
VLiquid Eco
p3579
sg43
Nssg44
(lp3580
I1095363701
asg32
VWeaponPickup
p3581
sg35
VPT4M44.4970015S
p3582
sa(dp3583
g38
I4096745987
sg39
(dp3584
g41
VLiquid Eco
p3585
sg43
Nssg44
(lp3586
I2758383128
asg32
VWeaponPickup
p3587
sg35
VPT4M44.4980018S
p3588
sa(dp3589
g32
VPlayerSpawn
p3590
sg39
(dp3591
g41
VLiquid Eco
p3592
sg43
Nssg35
VPT4M44.4980018S
p3593
sa(dp3594
g38
I313138863
sg39
(dp3595
g41
VnV Mikwen HCS
p3596
sg43
Nssg44
(lp3597
I1095363701
asg32
VWeaponPickup
p3598
sg35
VPT4M44.8640014S
p3599
sa(dp3600
g38
I4096745987
sg39
(dp3601
g41
VnV Mikwen HCS
p3602
sg43
Nssg44
(lp3603
I2758383128
asg32
VWeaponPickup
p3604
sg35
VPT4M44.8640014S
p3605
sa(dp3606
g32
VPlayerSpawn
p3607
sg39
(dp3608
g41
VnV Mikwen HCS
p3609
sg43
Nssg35
VPT4M44.8640014S
p3610
sa(dp3611
g38
I313138863
sg39
(dp3612
g41
VnV eL ToWn
p3613
sg43
Nssg44
(lp3614
I1095363701
asg32
VWeaponPickup
p3615
sg35
VPT4M45.3470014S
p3616
sa(dp3617
g38
I4096745987
sg39
(dp3618
g41
VnV eL ToWn
p3619
sg43
Nssg44
(lp3620
I2758383128
asg32
VWeaponPickup
p3621
sg35
VPT4M45.3470014S
p3622
sa(dp3623
g32
VPlayerSpawn
p3624
sg39
(dp3625
g41
VnV eL ToWn
p3626
sg43
Nssg35
VPT4M45.3470014S
p3627
sa(dp3628
g38
I313138863
sg32
VWeaponDrop
p3629
sg180
I0
sg44
(lp3630
I1095363701
asg35
VPT4M46.6790011S
p3631
sg183
I0
sg184
VP0DT0H0M4.5000S
p3632
sg39
(dp3633
g41
VTL Spartan HCS
p3634
sg43
Nssa(dp3635
g38
I2902827823
sg39
(dp3636
g41
VTL Spartan HCS
p3637
sg43
Nssg44
(lp3638
I2758383128
asg32
VWeaponPickup
p3639
sg35
VPT4M46.6790011S
p3640
sa(dp3641
g38
I313138863
sg39
(dp3642
g41
VTL StelluR
p3643
sg43
Nssg44
(lp3644
I1095363701
asg32
VWeaponPickup
p3645
sg35
VPT4M47.3800016S
p3646
sa(dp3647
g38
I4096745987
sg39
(dp3648
g41
VTL StelluR
p3649
sg43
Nssg44
(lp3650
I2758383128
asg32
VWeaponPickup
p3651
sg35
VPT4M47.381022S
p3652
sa(dp3653
g32
VPlayerSpawn
p3654
sg39
(dp3655
g41
VTL StelluR
p3656
sg43
Nssg35
VPT4M47.381022S
p3657
sa(dp3658
g38
I2492868984
sg39
(dp3659
g41
VLiquid Eco
p3660
sg43
Nssg44
(lp3661
I2758383128
asg32
VWeaponPickup
p3662
sg35
VPT4M47.7629999S
p3663
sa(dp3664
g38
I2492868984
sg32
VWeaponDrop
p3665
sg180
I0
sg44
(lp3666
I2758383128
asg35
VPT4M48.9140012S
p3667
sg183
I0
sg184
VP0DT0H0M0.9833S
p3668
sg39
(dp3669
g41
VLiquid Eco
p3670
sg43
Nssa(dp3671
g38
I313138863
sg39
(dp3672
g41
VnV Pistola HCS
p3673
sg43
Nssg44
(lp3674
I1095363701
asg32
VWeaponPickup
p3675
sg35
VPT4M49.1640005S
p3676
sa(dp3677
g38
I4096745987
sg39
(dp3678
g41
VnV Pistola HCS
p3679
sg43
Nssg44
(lp3680
I2758383128
asg32
VWeaponPickup
p3681
sg35
VPT4M49.1640005S
p3682
sa(dp3683
g32
VPlayerSpawn
p3684
sg39
(dp3685
g41
VnV Pistola HCS
p3686
sg43
Nssg35
VPT4M49.1640005S
p3687
sa(dp3688
g208
I4096745987
sg209
I00
sg210
I00
sg211
(dp3689
g41
VnV RayneHCS
p3690
sg43
Nssg214
(lp3691
I2758383128
asg216
I00
sg217
I01
sg218
I1
sg219
I0
sg220
I1
sg221
(dp3692
Vy
F-7.9135293999999998
sVx
F9.9727510000000006
sVz
F3.1403884899999999
ssg223
(dp3693
Vy
F-12.6207733
sVx
F3.2158923100000001
sVz
F3.5204267499999999
ssg225
I00
sg226
(dp3694
g41
VTL Danoxide
p3695
sg43
Nssg229
(lp3696
sg231
(lp3697
(dp3698
g41
VnV Mikwen HCS
p3699
sg43
Nsasg233
I01
sg35
VPT4M49.3470005S
p3700
sg32
VDeath
p3701
sg236
I1
sa(dp3702
g32
VMedal
p3703
sg39
(dp3704
g41
VnV RayneHCS
p3705
sg43
Nssg241
I3261908037
sg35
VPT4M49.3480031S
p3706
sa(dp3707
g38
I723388907
sg32
VWeaponDrop
p3708
sg180
I31
sg44
(lp3709
I89283061
asg35
VPT4M49.3490006S
p3710
sg183
I8
sg184
VP0DT0H0M15.3500S
p3711
sg39
(dp3712
g41
VTL Danoxide
p3713
sg43
Nssa(dp3714
g38
I4096745987
sg32
VWeaponDrop
p3715
sg180
I35
sg44
(lp3716
I2758383128
asg35
VPT4M49.3490006S
p3717
sg183
I14
sg184
VP0DT0H0M41.9667S
p3718
sg39
(dp3719
g41
VTL Danoxide
p3720
sg43
Nssa(dp3721
g38
I313138863
sg32
VWeaponDrop
p3722
sg180
I0
sg44
(lp3723
I1095363701
asg35
VPT4M50.5450021S
p3724
sg183
I0
sg184
VP0DT0H0M1.0500S
p3725
sg39
(dp3726
g41
VnV RayneHCS
p3727
sg43
Nssa(dp3728
g38
I2015271382
sg39
(dp3729
g41
VnV RayneHCS
p3730
sg43
Nssg44
(lp3731
I2758383128
asg32
VWeaponPickup
p3732
sg35
VPT4M50.5460009S
p3733
sa(dp3734
g32
VMedal
p3735
sg39
(dp3736
g41
VnV RayneHCS
p3737
sg43
Nssg241
I3565443938
sg35
VPT4M52.8460223S
p3738
sa(dp3739
g208
I4096745987
sg209
I00
sg210
I00
sg211
(dp3740
g41
VTL StelluR
p3741
sg43
Nssg214
(lp3742
I2758383128
asg216
I00
sg217
I01
sg218
I1
sg219
I0
sg220
I1
sg221
(dp3743
Vy
F-9.7517200000000006
sVx
F21.210144
sVz
F2.71802783
ssg223
(dp3744
Vy
F-7.720993
sVx
F9.2421050000000005
sVz
F3.1404592999999998
ssg225
I00
sg226
(dp3745
g41
VnV RayneHCS
p3746
sg43
Nssg229
(lp3747
sg231
(lp3748
(dp3749
g41
VTL Danoxide
p3750
sg43
Nsasg233
I00
sg35
VPT4M53.1800017S
p3751
sg32
VDeath
p3752
sg236
I1
sa(dp3753
g38
I4096745987
sg32
VWeaponDrop
p3754
sg180
I10
sg44
(lp3755
I2758383128
asg35
VPT4M53.1820223S
p3756
sg183
I5
sg184
VP0DT0H0M16.0167S
p3757
sg39
(dp3758
g41
VnV RayneHCS
p3759
sg43
Nssa(dp3760
g38
I2015271382
sg32
VWeaponDrop
p3761
sg180
I0
sg44
(lp3762
I2758383128
asg35
VPT4M53.1820223S
p3763
sg183
I0
sg184
VP0DT0H0M0.4833S
p3764
sg39
(dp3765
g41
VnV RayneHCS
p3766
sg43
Nssa(dp3767
g38
I4096745987
sg32
VWeaponDrop
p3768
sg180
I0
sg44
(lp3769
I2758383128
asg35
VPT4M53.427021S
p3770
sg183
I0
sg184
VP0DT0H0M3.0667S
p3771
sg39
(dp3772
g41
VLiquid Eco
p3773
sg43
Nssa(dp3774
g38
I424645655
sg39
(dp3775
g41
VLiquid Eco
p3776
sg43
Nssg44
(lp3777
I1327094800
asg32
VWeaponPickup
p3778
sg35
VPT4M53.427021S
p3779
sa(dp3780
g38
I313138863
sg32
VWeaponDrop
p3781
sg180
I0
sg44
(lp3782
I1095363701
asg35
VPT4M57.1120008S
p3783
sg183
I0
sg184
VP0DT0H0M1.2000S
p3784
sg39
(dp3785
g41
VnV eL ToWn
p3786
sg43
Nssa(dp3787
g38
I723388907
sg39
(dp3788
g41
VnV eL ToWn
p3789
sg43
Nssg44
(lp3790
I89283061
asg32
VWeaponPickup
p3791
sg35
VPT4M57.1120008S
p3792
sa(dp3793
g38
I313138863
sg39
(dp3794
g41
VTL Danoxide
p3795
sg43
Nssg44
(lp3796
I1095363701
asg32
VWeaponPickup
p3797
sg35
VPT4M57.3630015S
p3798
sa(dp3799
g38
I4096745987
sg39
(dp3800
g41
VTL Danoxide
p3801
sg43
Nssg44
(lp3802
I2758383128
asg32
VWeaponPickup
p3803
sg35
VPT4M57.364003S
p3804
sa(dp3805
g32
VPlayerSpawn
p3806
sg39
(dp3807
g41
VTL Danoxide
p3808
sg43
Nssg35
VPT4M57.364003S
p3809
sa(dp3810
g38
I313138863
sg32
VWeaponDrop
p3811
sg180
I0
sg44
(lp3812
I1095363701
asg35
VPT5M0.4279997S
p3813
sg183
I0
sg184
VP0DT0H0M0.7000S
p3814
sg39
(dp3815
g41
VTL Danoxide
p3816
sg43
Nssa(dp3817
g38
I723388907
sg39
(dp3818
g41
VTL Danoxide
p3819
sg43
Nssg44
(lp3820
I89283061
asg32
VWeaponPickup
p3821
sg35
VPT5M0.4279997S
p3822
sa(dp3823
g32
VMedal
p3824
sg39
(dp3825
g41
VTL Spartan HCS
p3826
sg43
Nssg241
I3565443938
sg35
VPT5M0.6449999S
p3827
sa(dp3828
g32
VMedal
p3829
sg39
(dp3830
g41
VTL StelluR
p3831
sg43
Nssg241
I3565443938
sg35
VPT5M0.6449999S
p3832
sa(dp3833
g38
I313138863
sg39
(dp3834
g41
VnV RayneHCS
p3835
sg43
Nssg44
(lp3836
I1095363701
asg32
VWeaponPickup
p3837
sg35
VPT5M1.1960014S
p3838
sa(dp3839
g38
I4096745987
sg39
(dp3840
g41
VnV RayneHCS
p3841
sg43
Nssg44
(lp3842
I2758383128
asg32
VWeaponPickup
p3843
sg35
VPT5M1.1970332S
p3844
sa(dp3845
g32
VPlayerSpawn
p3846
sg39
(dp3847
g41
VnV RayneHCS
p3848
sg43
Nssg35
VPT5M1.1970332S
p3849
sa(dp3850
g32
VMedal
p3851
sg39
(dp3852
g41
VnV Pistola HCS
p3853
sg43
Nssg241
I3565443938
sg35
VPT5M1.8290218S
p3854
sa(dp3855
g32
VMedal
p3856
sg39
(dp3857
g41
VnV eL ToWn
p3858
sg43
Nssg241
I3565443938
sg35
VPT5M1.8290218S
p3859
sa(dp3860
g208
I424645655
sg209
I00
sg210
I00
sg211
(dp3861
g41
VLiquid Eco
p3862
sg43
Nssg214
(lp3863
I1327094800
asg216
I00
sg217
I01
sg218
I1
sg219
I0
sg220
I1
sg221
(dp3864
Vy
F7.8214629999999996
sVx
F8.1829230000000006
sVz
F0.012358307799999999
ssg223
(dp3865
Vy
F4.4165660000000004
sVx
F15.9686089
sVz
F2.39951348
ssg225
I00
sg226
(dp3866
g41
VnV eL ToWn
p3867
sg43
Nssg229
(lp3868
sg231
(lp3869
sg233
I00
sg35
VPT5M13.0960019S
p3870
sg32
VDeath
p3871
sg236
I1
sa(dp3872
g38
I723388907
sg32
VWeaponDrop
p3873
sg180
I0
sg44
(lp3874
I89283061
asg35
VPT5M13.0980028S
p3875
sg183
I0
sg184
VP0DT0H0M5.2500S
p3876
sg39
(dp3877
g41
VnV eL ToWn
p3878
sg43
Nssa(dp3879
g38
I4096745987
sg32
VWeaponDrop
p3880
sg180
I0
sg44
(lp3881
I2758383128
asg35
VPT5M13.0980028S
p3882
sg183
I0
sg184
VP0DT0H0M21.2833S
p3883
sg39
(dp3884
g41
VnV eL ToWn
p3885
sg43
Nssa(dp3886
g208
I4096745987
sg209
I00
sg210
I00
sg211
(dp3887
g41
VnV RayneHCS
p3888
sg43
Nssg214
(lp3889
I2758383128
asg216
I00
sg217
I01
sg218
I1
sg219
I0
sg220
I1
sg221
(dp3890
Vy
F5.0199769999999999
sVx
F4.4948230000000002
sVz
F3.7001571700000002
ssg223
(dp3891
Vy
F13.165337600000001
sVx
F20.842138299999998
sVz
F2.0032081599999998
ssg225
I00
sg226
(dp3892
g41
VTL Danoxide
p3893
sg43
Nssg229
(lp3894
sg231
(lp3895
(dp3896
g41
VnV Mikwen HCS
p3897
sg43
Nsasg233
I01
sg35
VPT5M13.1620009S
p3898
sg32
VDeath
p3899
sg236
I1
sa(dp3900
g32
VMedal
p3901
sg39
(dp3902
g41
VnV RayneHCS
p3903
sg43
Nssg241
I1351381581
sg35
VPT5M13.163003S
p3904
sa(dp3905
g32
VMedal
p3906
sg39
(dp3907
g41
VnV RayneHCS
p3908
sg43
Nssg241
I3261908037
sg35
VPT5M13.163003S
p3909
sa(dp3910
g38
I723388907
sg32
VWeaponDrop
p3911
sg180
I0
sg44
(lp3912
I89283061
asg35
VPT5M13.1640204S
p3913
sg183
I0
sg184
VP0DT0H0M3.3833S
p3914
sg39
(dp3915
g41
VTL Danoxide
p3916
sg43
Nssa(dp3917
g38
I4096745987
sg32
VWeaponDrop
p3918
sg180
I4
sg44
(lp3919
I2758383128
asg35
VPT5M13.1640204S
p3920
sg183
I0
sg184
VP0DT0H0M11.7000S
p3921
sg39
(dp3922
g41
VTL Danoxide
p3923
sg43
Nssa(dp3924
g208
I4096745987
sg209
I00
sg210
I00
sg211
(dp3925
g41
VnV Pistola HCS
p3926
sg43
Nssg214
(lp3927
I2758383128
asg216
I00
sg217
I01
sg218
I1
sg219
I0
sg220
I1
sg221
(dp3928
Vy
F15.3805494
sVx
F10.3119221
sVz
F3.2549190000000001
ssg223
(dp3929
Vy
F16.049463299999999
sVx
F15.487175000000001
sVz
F2.7091293300000001
ssg225
I00
sg226
(dp3930
g41
VTL StelluR
p3931
sg43
Nssg229
(lp3932
sg231
(lp3933
(dp3934
g41
VnV RayneHCS
p3935
sg43
Nsasg233
I00
sg35
VPT5M16.5120007S
p3936
sg32
VDeath
p3937
sg236
I1
sa(dp3938
g38
I313138863
sg32
VWeaponDrop
p3939
sg180
I10
sg44
(lp3940
I1095363701
asg35
VPT5M16.5130211S
p3941
sg183
I6
sg184
VP0DT0H0M3.7333S
p3942
sg39
(dp3943
g41
VTL StelluR
p3944
sg43
Nssa(dp3945
g38
I4096745987
sg32
VWeaponDrop
p3946
sg180
I8
sg44
(lp3947
I2758383128
asg35
VPT5M16.5130211S
p3948
sg183
I4
sg184
VP0DT0H0M25.3833S
p3949
sg39
(dp3950
g41
VTL StelluR
p3951
sg43
Nssa(dp3952
g32
VMedal
p3953
sg39
(dp3954
g41
VnV RayneHCS
p3955
sg43
Nssg241
I2916014239
sg35
VPT5M16.9940227S
p3956
sa(dp3957
g208
I424645655
sg209
I00
sg210
I00
sg211
(dp3958
g41
VLiquid Eco
p3959
sg43
Nssg214
(lp3960
I1327094800
asg216
I00
sg217
I01
sg218
I1
sg219
I0
sg220
I1
sg221
(dp3961
Vy
F8.8535699999999995
sVx
F3.6781144100000001
sVz
F0.812388
ssg223
(dp3962
Vy
F11.032488799999999
sVx
F15.3214006
sVz
F1.605896
ssg225
I00
sg226
(dp3963
g41
VnV RayneHCS
p3964
sg43
Nssg229
(lp3965
sg231
(lp3966
sg233
I01
sg35
VPT5M17.4950029S
p3967
sg32
VDeath
p3968
sg236
I1
sa(dp3969
g32
VMedal
p3970
sg39
(dp3971
g41
VLiquid Eco
p3972
sg43
Nssg241
I3261908037
sg35
VPT5M17.4980219S
p3973
sa(dp3974
g32
VMedal
p3975
sg39
(dp3976
g41
VLiquid Eco
p3977
sg43
Nssg241
I2078758684
sg35
VPT5M17.4980219S
p3978
sa(dp3979
g38
I313138863
sg32
VWeaponDrop
p3980
sg180
I0
sg44
(lp3981
I1095363701
asg35
VPT5M17.4990226S
p3982
sg183
I0
sg184
VP0DT0H0M2.1833S
p3983
sg39
(dp3984
g41
VnV RayneHCS
p3985
sg43
Nssa(dp3986
g38
I4096745987
sg32
VWeaponDrop
p3987
sg180
I7
sg44
(lp3988
I2758383128
asg35
VPT5M17.4990226S
p3989
sg183
I4
sg184
VP0DT0H0M14.1000S
p3990
sg39
(dp3991
g41
VnV RayneHCS
p3992
sg43
Nssa(dp3993
g38
I313138863
sg39
(dp3994
g41
VnV eL ToWn
p3995
sg43
Nssg44
(lp3996
I1095363701
asg32
VWeaponPickup
p3997
sg35
VPT5M21.1120021S
p3998
sa(dp3999
g38
I4096745987
sg39
(dp4000
g41
VnV eL ToWn
p4001
sg43
Nssg44
(lp4002
I2758383128
asg32
VWeaponPickup
p4003
sg35
VPT5M21.1130252S
p4004
sa(dp4005
g32
VPlayerSpawn
p4006
sg39
(dp4007
g41
VnV eL ToWn
p4008
sg43
Nssg35
VPT5M21.1130252S
p4009
sa(dp4010
g38
I313138863
sg39
(dp4011
g41
VTL Danoxide
p4012
sg43
Nssg44
(lp4013
I1095363701
asg32
VWeaponPickup
p4014
sg35
VPT5M21.1790209S
p4015
sa(dp4016
g38
I4096745987
sg39
(dp4017
g41
VTL Danoxide
p4018
sg43
Nssg44
(lp4019
I2758383128
asg32
VWeaponPickup
p4020
sg35
VPT5M21.1790209S
p4021
sa(dp4022
g32
VPlayerSpawn
p4023
sg39
(dp4024
g41
VTL Danoxide
p4025
sg43
Nssg35
VPT5M21.1790209S
p4026
sa(dp4027
g38
I313138863
sg39
(dp4028
g41
VTL StelluR
p4029
sg43
Nssg44
(lp4030
I1095363701
asg32
VWeaponPickup
p4031
sg35
VPT5M24.5290018S
p4032
sa(dp4033
g38
I4096745987
sg39
(dp4034
g41
VTL StelluR
p4035
sg43
Nssg44
(lp4036
I2758383128
asg32
VWeaponPickup
p4037
sg35
VPT5M24.5290018S
p4038
sa(dp4039
g32
VPlayerSpawn
p4040
sg39
(dp4041
g41
VTL StelluR
p4042
sg43
Nssg35
VPT5M24.5290018S
p4043
sa(dp4044
g208
I2902827823
sg209
I00
sg210
I00
sg211
(dp4045
g41
VTL Spartan HCS
p4046
sg43
Nssg214
(lp4047
I2758383128
asg216
I00
sg217
I01
sg218
I1
sg219
I0
sg220
I1
sg221
(dp4048
Vy
F-0.87033474399999999
sVx
F3.3849019999999999
sVz
F3.7001571700000002
ssg223
(dp4049
Vy
F18.4912949
sVx
F5.7034273100000004
sVz
F3.0685088600000001
ssg225
I00
sg226
(dp4050
g41
VnV Pistola HCS
p4051
sg43
Nssg229
(lp4052
sg231
(lp4053
(dp4054
g41
VLiquid Eco
p4055
sg43
Nsasg233
I00
sg35
VPT5M24.6619999S
p4056
sg32
VDeath
p4057
sg236
I1
sa(dp4058
g32
VMedal
p4059
sg39
(dp4060
g41
VTL Spartan HCS
p4061
sg43
Nssg241
I651116095
sg35
VPT5M24.6630074S
p4062
sa(dp4063
g38
I313138863
sg32
VWeaponDrop
p4064
sg180
I0
sg44
(lp4065
I1095363701
asg35
VPT5M24.6630074S
p4066
sg183
I0
sg184
VP0DT0H0M1.7833S
p4067
sg39
(dp4068
g41
VnV Pistola HCS
p4069
sg43
Nssa(dp4070
g38
I4096745987
sg32
VWeaponDrop
p4071
sg180
I9
sg44
(lp4072
I2758383128
asg35
VPT5M24.6630074S
p4073
sg183
I3
sg184
VP0DT0H0M33.7000S
p4074
sg39
(dp4075
g41
VnV Pistola HCS
p4076
sg43
Nssa(dp4077
g38
I313138863
sg39
(dp4078
g41
VnV RayneHCS
p4079
sg43
Nssg44
(lp4080
I1095363701
asg32
VWeaponPickup
p4081
sg35
VPT5M25.5120018S
p4082
sa(dp4083
g38
I4096745987
sg39
(dp4084
g41
VnV RayneHCS
p4085
sg43
Nssg44
(lp4086
I2758383128
asg32
VWeaponPickup
p4087
sg35
VPT5M25.5130037S
p4088
sa(dp4089
g32
VPlayerSpawn
p4090
sg39
(dp4091
g41
VnV RayneHCS
p4092
sg43
Nssg35
VPT5M25.5130037S
p4093
sa(dp4094
g32
VMedal
p4095
sg39
(dp4096
g41
VTL Spartan HCS
p4097
sg43
Nssg241
I3565443938
sg35
VPT5M26.294001S
p4098
sa(dp4099
g32
VMedal
p4100
sg39
(dp4101
g41
VTL Danoxide
p4102
sg43
Nssg241
I3565443938
sg35
VPT5M26.294001S
p4103
sa(dp4104
g208
I4096745987
sg209
I00
sg210
I00
sg211
(dp4105
g41
VnV Mikwen HCS
p4106
sg43
Nssg214
(lp4107
I2758383128
asg216
I00
sg217
I01
sg218
I1
sg219
I0
sg220
I1
sg221
(dp4108
Vy
F9.2530750000000008
sVx
F-2.0459809999999998
sVz
F0.78266143799999999
ssg223
(dp4109
Vy
F5.8560276
sVx
F-0.17274524299999999
sVz
F3.3745188700000002
ssg225
I00
sg226
(dp4110
g41
VTL Spartan HCS
p4111
sg43
Nssg229
(lp4112
sg231
(lp4113
(dp4114
g41
VnV eL ToWn
p4115
sg43
Nsasg233
I01
sg35
VPT5M29.1450008S
p4116
sg32
VDeath
p4117
sg236
I1
sa(dp4118
g32
VMedal
p4119
sg39
(dp4120
g41
VnV Mikwen HCS
p4121
sg43
Nssg241
I3148489433
sg35
VPT5M29.1450008S
p4122
sa(dp4123
g32
VMedal
p4124
sg39
(dp4125
g41
VnV Mikwen HCS
p4126
sg43
Nssg241
I3261908037
sg35
VPT5M29.1460206S
p4127
sa(dp4128
g38
I2902827823
sg32
VWeaponDrop
p4129
sg180
I3
sg44
(lp4130
I2758383128
asg35
VPT5M29.1470222S
p4131
sg183
I3
sg184
VP0DT0H0M32.6000S
p4132
sg39
(dp4133
g41
VTL Spartan HCS
p4134
sg43
Nssa(dp4135
g38
I4096745987
sg32
VWeaponDrop
p4136
sg180
I11
sg44
(lp4137
I2758383128
asg35
VPT5M29.1470222S
p4138
sg183
I4
sg184
VP0DT0H0M17.0167S
p4139
sg39
(dp4140
g41
VTL Spartan HCS
p4141
sg43
Nssa(dp4142
g208
I4096745987
sg209
I00
sg210
I00
sg211
(dp4143
g41
VnV Mikwen HCS
p4144
sg43
Nssg214
(lp4145
I2758383128
asg216
I00
sg217
I01
sg218
I1
sg219
I0
sg220
I1
sg221
(dp4146
Vy
F10.4015045
sVx
F-2.3689975699999999
sVz
F0.78252580000000005
ssg223
(dp4147
Vy
F3.7041487700000002
sVx
F2.2948605999999998
sVz
F3.4915041900000001
ssg225
I00
sg226
(dp4148
g41
VTL Danoxide
p4149
sg43
Nssg229
(lp4150
sg231
(lp4151
(dp4152
g41
VnV eL ToWn
p4153
sg43
Nsasg233
I00
sg35
VPT5M29.8120078S
p4154
sg32
VDeath
p4155
sg236
I1
sa(dp4156
g32
VMedal
p4157
sg39
(dp4158
g41
VnV Mikwen HCS
p4159
sg43
Nssg241
I2078758684
sg35
VPT5M29.813026S
p4160
sa(dp4161
g38
I313138863
sg32
VWeaponDrop
p4162
sg180
I0
sg44
(lp4163
I1095363701
asg35
VPT5M29.8140028S
p4164
sg183
I0
sg184
VP0DT0H0M0.8500S
p4165
sg39
(dp4166
g41
VTL Danoxide
p4167
sg43
Nssa(dp4168
g38
I4096745987
sg32
VWeaponDrop
p4169
sg180
I4
sg44
(lp4170
I2758383128
asg35
VPT5M29.8140028S
p4171
sg183
I1
sg184
VP0DT0H0M7.7833S
p4172
sg39
(dp4173
g41
VTL Danoxide
p4174
sg43
Nssa(dp4175
g38
I313138863
sg39
(dp4176
g41
VnV Pistola HCS
p4177
sg43
Nssg44
(lp4178
I1095363701
asg32
VWeaponPickup
p4179
sg35
VPT5M32.6780022S
p4180
sa(dp4181
g38
I4096745987
sg39
(dp4182
g41
VnV Pistola HCS
p4183
sg43
Nssg44
(lp4184
I2758383128
asg32
VWeaponPickup
p4185
sg35
VPT5M32.6790223S
p4186
sa(dp4187
g32
VPlayerSpawn
p4188
sg39
(dp4189
g41
VnV Pistola HCS
p4190
sg43
Nssg35
VPT5M32.6790223S
p4191
sa(dp4192
g208
I4096745987
sg209
I00
sg210
I00
sg211
(dp4193
g41
VTL StelluR
p4194
sg43
Nssg214
(lp4195
I2758383128
asg216
I00
sg217
I01
sg218
I1
sg219
I0
sg220
I1
sg221
(dp4196
Vy
F4.582306
sVx
F0.51291763800000001
sVz
F4.3261690000000002
ssg223
(dp4197
Vy
F13.2415714
sVx
F-0.941723168
sVz
F4.7636127500000001
ssg225
I00
sg226
(dp4198
g41
VnV Mikwen HCS
p4199
sg43
Nssg229
(lp4200
sg231
(lp4201
(dp4202
g41
VTL Danoxide
p4203
sg43
Nsasg233
I01
sg35
VPT5M35.2780001S
p4204
sg32
VDeath
p4205
sg236
I1
sa(dp4206
g32
VMedal
p4207
sg39
(dp4208
g41
VTL StelluR
p4209
sg43
Nssg241
I3261908037
sg35
VPT5M35.2790227S
p4210
sa(dp4211
g38
I313138863
sg32
VWeaponDrop
p4212
sg180
I0
sg44
(lp4213
I1095363701
asg35
VPT5M35.280022S
p4214
sg183
I0
sg184
VP0DT0H0M5.8000S
p4215
sg39
(dp4216
g41
VnV Mikwen HCS
p4217
sg43
Nssa(dp4218
g38
I4096745987
sg32
VWeaponDrop
p4219
sg180
I20
sg44
(lp4220
I2758383128
asg35
VPT5M35.280022S
p4221
sg183
I10
sg184
VP0DT0H0M44.6000S
p4222
sg39
(dp4223
g41
VnV Mikwen HCS
p4224
sg43
Nssa(dp4225
g208
I4096745987
sg209
I00
sg210
I00
sg211
(dp4226
g41
VnV RayneHCS
p4227
sg43
Nssg214
(lp4228
I2758383128
asg216
I00
sg217
I01
sg218
I1
sg219
I0
sg220
I1
sg221
(dp4229
Vy
F-8.5202570000000009
sVx
F9.8328179999999996
sVz
F3.1403873
ssg223
(dp4230
Vy
F5.9274069999999996
sVx
F-0.98790884000000001
sVz
F3.90262771
ssg225
I00
sg226
(dp4231
g41
VTL StelluR
p4232
sg43
Nssg229
(lp4233
sg231
(lp4234
sg233
I01
sg35
VPT5M35.9110011S
p4235
sg32
VDeath
p4236
sg236
I1
sa(dp4237
g32
VMedal
p4238
sg39
(dp4239
g41
VnV RayneHCS
p4240
sg43
Nssg241
I3261908037
sg35
VPT5M35.914022S
p4241
sa(dp4242
g38
I313138863
sg32
VWeaponDrop
p4243
sg180
I0
sg44
(lp4244
I1095363701
asg35
VPT5M35.914022S
p4245
sg183
I0
sg184
VP0DT0H0M0.8000S
p4246
sg39
(dp4247
g41
VTL StelluR
p4248
sg43
Nssa(dp4249
g38
I4096745987
sg32
VWeaponDrop
p4250
sg180
I12
sg44
(lp4251
I2758383128
asg35
VPT5M35.914022S
p4252
sg183
I10
sg184
VP0DT0H0M10.5833S
p4253
sg39
(dp4254
g41
VTL StelluR
p4255
sg43
Nssa(dp4256
g38
I313138863
sg39
(dp4257
g41
VTL Spartan HCS
p4258
sg43
Nssg44
(lp4259
I1095363701
asg32
VWeaponPickup
p4260
sg35
VPT5M37.1620247S
p4261
sa(dp4262
g38
I4096745987
sg39
(dp4263
g41
VTL Spartan HCS
p4264
sg43
Nssg44
(lp4265
I2758383128
asg32
VWeaponPickup
p4266
sg35
VPT5M37.1620247S
p4267
sa(dp4268
g32
VPlayerSpawn
p4269
sg39
(dp4270
g41
VTL Spartan HCS
p4271
sg43
Nssg35
VPT5M37.1620247S
p4272
sa(dp4273
g38
I313138863
sg32
VWeaponDrop
p4274
sg180
I0
sg44
(lp4275
I1095363701
asg35
VPT5M37.7600221S
p4276
sg183
I0
sg184
VP0DT0H0M0.9833S
p4277
sg39
(dp4278
g41
VnV RayneHCS
p4279
sg43
Nssa(dp4280
g38
I2015271382
sg39
(dp4281
g41
VnV RayneHCS
p4282
sg43
Nssg44
(lp4283
I2758383128
asg32
VWeaponPickup
p4284
sg35
VPT5M37.7600221S
p4285
sa(dp4286
g38
I313138863
sg39
(dp4287
g41
VTL Danoxide
p4288
sg43
Nssg44
(lp4289
I1095363701
asg32
VWeaponPickup
p4290
sg35
VPT5M37.8280207S
p4291
sa(dp4292
g38
I4096745987
sg39
(dp4293
g41
VTL Danoxide
p4294
sg43
Nssg44
(lp4295
I2758383128
asg32
VWeaponPickup
p4296
sg35
VPT5M37.8280207S
p4297
sa(dp4298
g32
VPlayerSpawn
p4299
sg39
(dp4300
g41
VTL Danoxide
p4301
sg43
Nssg35
VPT5M37.8280207S
p4302
sa(dp4303
g38
I4096745987
sg32
VWeaponDrop
p4304
sg180
I0
sg44
(lp4305
I2758383128
asg35
VPT5M38.8930237S
p4306
sg183
I0
sg184
VP0DT0H0M0.6833S
p4307
sg39
(dp4308
g41
VTL Danoxide
p4309
sg43
Nssa(dp4310
g38
I424645655
sg39
(dp4311
g41
VTL Danoxide
p4312
sg43
Nssg44
(lp4313
I1327094800
asg32
VWeaponPickup
p4314
sg35
VPT5M38.8930237S
p4315
sa(dp4316
g32
VMedal
p4317
sg39
(dp4318
g41
VnV RayneHCS
p4319
sg43
Nssg241
I3565443938
sg35
VPT5M39.5600115S
p4320
sa(dp4321
g32
VMedal
p4322
sg39
(dp4323
g41
VnV eL ToWn
p4324
sg43
Nssg241
I3565443938
sg35
VPT5M39.5600115S
p4325
sa(dp4326
g32
VMedal
p4327
sg39
(dp4328
g41
VnV Pistola HCS
p4329
sg43
Nssg241
I3565443938
sg35
VPT5M39.5600115S
p4330
sa(dp4331
g38
I313138863
sg39
(dp4332
g41
VnV Mikwen HCS
p4333
sg43
Nssg44
(lp4334
I1095363701
asg32
VWeaponPickup
p4335
sg35
VPT5M43.2950207S
p4336
sa(dp4337
g38
I4096745987
sg39
(dp4338
g41
VnV Mikwen HCS
p4339
sg43
Nssg44
(lp4340
I2758383128
asg32
VWeaponPickup
p4341
sg35
VPT5M43.2950207S
p4342
sa(dp4343
g32
VPlayerSpawn
p4344
sg39
(dp4345
g41
VnV Mikwen HCS
p4346
sg43
Nssg35
VPT5M43.2950207S
p4347
sa(dp4348
g38
I313138863
sg39
(dp4349
g41
VTL StelluR
p4350
sg43
Nssg44
(lp4351
I1095363701
asg32
VWeaponPickup
p4352
sg35
VPT5M43.9260222S
p4353
sa(dp4354
g38
I4096745987
sg39
(dp4355
g41
VTL StelluR
p4356
sg43
Nssg44
(lp4357
I2758383128
asg32
VWeaponPickup
p4358
sg35
VPT5M43.9260222S
p4359
sa(dp4360
g32
VPlayerSpawn
p4361
sg39
(dp4362
g41
VTL StelluR
p4363
sg43
Nssg35
VPT5M43.9260222S
p4364
sa(dp4365
g38
I313138863
sg32
VWeaponDrop
p4366
sg180
I0
sg44
(lp4367
I1095363701
asg35
VPT5M44.5760225S
p4368
sg183
I0
sg184
VP0DT0H0M3.7333S
p4369
sg39
(dp4370
g41
VTL Spartan HCS
p4371
sg43
Nssa(dp4372
g38
I723388907
sg39
(dp4373
g41
VTL Spartan HCS
p4374
sg43
Nssg44
(lp4375
I89283061
asg32
VWeaponPickup
p4376
sg35
VPT5M44.5770034S
p4377
sa(dp4378
g208
I313138863
sg209
I00
sg210
I00
sg211
(dp4379
g41
VnV eL ToWn
p4380
sg43
Nssg214
(lp4381
I1095363701
asg216
I00
sg217
I01
sg218
I1
sg219
I0
sg220
I1
sg221
(dp4382
Vy
F-1.11525249
sVx
F-1.62161
sVz
F3.1335928399999999
ssg223
(dp4383
Vy
F2.855753
sVx
F-7.4643983800000004
sVz
F1.80017352
ssg225
I00
sg226
(dp4384
g41
VTL Danoxide
p4385
sg43
Nssg229
(lp4386
sg231
(lp4387
(dp4388
g41
VnV RayneHCS
p4389
sg43
Nsasg233
I00
sg35
VPT5M47.8610004S
p4390
sg32
VDeath
p4391
sg236
I1
sa(dp4392
g38
I313138863
sg32
VWeaponDrop
p4393
sg180
I0
sg44
(lp4394
I1095363701
asg35
VPT5M47.8630221S
p4395
sg183
I0
sg184
VP0DT0H0M0.3833S
p4396
sg39
(dp4397
g41
VTL Danoxide
p4398
sg43
Nssa(dp4399
g38
I424645655
sg32
VWeaponDrop
p4400
sg180
I9
sg44
(lp4401
I1327094800
asg35
VPT5M47.8630221S
p4402
sg183
I3
sg184
VP0DT0H0M8.9667S
p4403
sg39
(dp4404
g41
VTL Danoxide
p4405
sg43
Nssa(dp4406
g32
VMedal
p4407
sg39
(dp4408
g41
VLiquid Eco
p4409
sg43
Nssg241
I3565443938
sg35
VPT5M48.0600018S
p4410
sa(dp4411
g32
VMedal
p4412
sg39
(dp4413
g41
VTL Spartan HCS
p4414
sg43
Nssg241
I3565443938
sg35
VPT5M48.0600018S
p4415
sa(dp4416
g208
I723388907
sg209
I00
sg210
I01
sg211
(dp4417
g41
VTL Spartan HCS
p4418
sg43
Nssg214
(lp4419
I89283061
asg216
I00
sg217
I00
sg218
I1
sg219
I0
sg220
I1
sg221
(dp4420
Vy
F9.0021939999999994
sVx
F16.536269999999998
sVz
F1.5089920800000001
ssg223
(dp4421
Vy
F9.4356240000000007
sVx
F16.30077
sVz
F1.6058954000000001
ssg225
I00
sg226
(dp4422
g41
VnV Mikwen HCS
p4423
sg43
Nssg229
(lp4424
sg231
(lp4425
sg233
I00
sg35
VPT5M52.328002S
p4426
sg32
VDeath
p4427
sg236
I1
sa(dp4428
g32
VMedal
p4429
sg39
(dp4430
g41
VTL Spartan HCS
p4431
sg43
Nssg241
I1351381581
sg35
VPT5M52.3290212S
p4432
sa(dp4433
g32
VMedal
p4434
sg39
(dp4435
g41
VTL Spartan HCS
p4436
sg43
Nssg241
I250435527
sg35
VPT5M52.3290212S
p4437
sa(dp4438
g38
I313138863
sg32
VWeaponDrop
p4439
sg180
I10
sg44
(lp4440
I1095363701
asg35
VPT5M52.3290212S
p4441
sg183
I7
sg184
VP0DT0H0M5.5833S
p4442
sg39
(dp4443
g41
VnV Mikwen HCS
p4444
sg43
Nssa(dp4445
g38
I313138863
sg32
VWeaponDrop
p4446
sg180
I0
sg44
(lp4447
I1095363701
asg35
VPT5M52.3290212S
p4448
sg183
I0
sg184
VP0DT0S
p4449
sg39
(dp4450
g41
VnV Mikwen HCS
p4451
sg43
Nssa(dp4452
g38
I4096745987
sg32
VWeaponDrop
p4453
sg180
I0
sg44
(lp4454
I2758383128
asg35
VPT5M52.3300218S
p4455
sg183
I0
sg184
VP0DT0H0M3.4500S
p4456
sg39
(dp4457
g41
VnV Mikwen HCS
p4458
sg43
Nssa(dp4459
g208
I313138863
sg209
I00
sg210
I01
sg211
(dp4460
g41
VnV Mikwen HCS
p4461
sg43
Nssg214
(lp4462
I1095363701
asg216
I00
sg217
I00
sg218
I1
sg219
I0
sg220
I1
sg221
(dp4463
Vy
F9.4356240000000007
sVx
F16.30077
sVz
F1.8308954200000001
ssg223
(dp4464
Vy
F9.0021939999999994
sVx
F16.536269999999998
sVz
F1.5089920800000001
ssg225
I00
sg226
(dp4465
g41
VTL Spartan HCS
p4466
sg43
Nssg229
(lp4467
sg231
(lp4468
sg233
I00
sg35
VPT5M52.3300218S
p4469
sg32
VDeath
p4470
sg236
I1
sa(dp4471
g32
VMedal
p4472
sg39
(dp4473
g41
VnV Mikwen HCS
p4474
sg43
Nssg241
I250435527
sg35
VPT5M52.3310214S
p4475
sa(dp4476
g38
I723388907
sg32
VWeaponDrop
p4477
sg180
I16
sg44
(lp4478
I89283061
asg35
VPT5M52.3320034S
p4479
sg183
I7
sg184
VP0DT0H0M6.2833S
p4480
sg39
(dp4481
g41
VTL Spartan HCS
p4482
sg43
Nssa(dp4483
g38
I723388907
sg32
VWeaponDrop
p4484
sg180
I0
sg44
(lp4485
I89283061
asg35
VPT5M52.3320034S
p4486
sg183
I0
sg184
VP0DT0S
p4487
sg39
(dp4488
g41
VTL Spartan HCS
p4489
sg43
Nssa(dp4490
g38
I4096745987
sg32
VWeaponDrop
p4491
sg180
I0
sg44
(lp4492
I2758383128
asg35
VPT5M52.3320034S
p4493
sg183
I0
sg184
VP0DT0H0M5.1500S
p4494
sg39
(dp4495
g41
VTL Spartan HCS
p4496
sg43
Nssa(dp4497
g208
I4096745987
sg209
I00
sg210
I00
sg211
(dp4498
g41
VTL StelluR
p4499
sg43
Nssg214
(lp4500
I2758383128
asg216
I00
sg217
I01
sg218
I1
sg219
I0
sg220
I1
sg221
(dp4501
Vy
F-1.04897559
sVx
F0.6358935
sVz
F2.9184601300000002
ssg223
(dp4502
Vy
F1.8966959999999999
sVx
F3.8335720000000002
sVz
F4.4241347299999996
ssg225
I00
sg226
(dp4503
g41
VnV RayneHCS
p4504
sg43
Nssg229
(lp4505
sg231
(lp4506
sg233
I01
sg35
VPT5M55.1270009S
p4507
sg32
VDeath
p4508
sg236
I1
sa(dp4509
g32
VMedal
p4510
sg39
(dp4511
g41
VTL StelluR
p4512
sg43
Nssg241
I1351381581
sg35
VPT5M55.1290242S
p4513
sa(dp4514
g32
VMedal
p4515
sg39
(dp4516
g41
VTL StelluR
p4517
sg43
Nssg241
I3261908037
sg35
VPT5M55.1300032S
p4518
sa(dp4519
g38
I2015271382
sg32
VWeaponDrop
p4520
sg180
I14
sg44
(lp4521
I2758383128
asg35
VPT5M55.1300032S
p4522
sg183
I7
sg184
VP0DT0H0M4.0167S
p4523
sg39
(dp4524
g41
VnV RayneHCS
p4525
sg43
Nssa(dp4526
g38
I4096745987
sg32
VWeaponDrop
p4527
sg180
I16
sg44
(lp4528
I2758383128
asg35
VPT5M55.1300032S
p4529
sg183
I10
sg184
VP0DT0H0M24.6167S
p4530
sg39
(dp4531
g41
VnV RayneHCS
p4532
sg43
Nssa(dp4533
g208
I313138863
sg209
I00
sg210
I00
sg211
(dp4534
g41
VnV eL ToWn
p4535
sg43
Nssg214
(lp4536
I1095363701
asg216
I00
sg217
I01
sg218
I1
sg219
I0
sg220
I1
sg221
(dp4537
Vy
F0.82054793800000003
sVx
F4.83285856
sVz
F3.7001574000000002
ssg223
(dp4538
Vy
F-1.1602113199999999
sVx
F0.23948834799999999
sVz
F3.3944473300000002
ssg225
I00
sg226
(dp4539
g41
VTL StelluR
p4540
sg43
Nssg229
(lp4541
sg231
(lp4542
(dp4543
g41
VnV RayneHCS
p4544
sg43
Nsasg233
I00
sg35
VPT5M55.3439996S
p4545
sg32
VDeath
p4546
sg236
I1
sa(dp4547
g38
I313138863
sg32
VWeaponDrop
p4548
sg180
I0
sg44
(lp4549
I1095363701
asg35
VPT5M55.3460269S
p4550
sg183
I0
sg184
VP0DT0H0M0.6833S
p4551
sg39
(dp4552
g41
VTL StelluR
p4553
sg43
Nssa(dp4554
g38
I4096745987
sg32
VWeaponDrop
p4555
sg180
I9
sg44
(lp4556
I2758383128
asg35
VPT5M55.3460269S
p4557
sg183
I7
sg184
VP0DT0H0M10.7333S
p4558
sg39
(dp4559
g41
VTL StelluR
p4560
sg43
Nssa(dp4561
g38
I313138863
sg39
(dp4562
g41
VTL Danoxide
p4563
sg43
Nssg44
(lp4564
I1095363701
asg32
VWeaponPickup
p4565
sg35
VPT5M55.8780205S
p4566
sa(dp4567
g38
I4096745987
sg39
(dp4568
g41
VTL Danoxide
p4569
sg43
Nssg44
(lp4570
I2758383128
asg32
VWeaponPickup
p4571
sg35
VPT5M55.8780205S
p4572
sa(dp4573
g32
VPlayerSpawn
p4574
sg39
(dp4575
g41
VTL Danoxide
p4576
sg43
Nssg35
VPT5M55.8780205S
p4577
sa(dp4578
g32
VMedal
p4579
sg39
(dp4580
g41
VnV eL ToWn
p4581
sg43
Nssg241
I3565443938
sg35
VPT5M57.2789995S
p4582
sa(dp4583
g32
VMedal
p4584
sg39
(dp4585
g41
VnV RayneHCS
p4586
sg43
Nssg241
I1637841390
sg35
VPT5M57.2789995S
p4587
sa(dp4588
g38
I313138863
sg39
(dp4589
g41
VnV Mikwen HCS
p4590
sg43
Nssg44
(lp4591
I1095363701
asg32
VWeaponPickup
p4592
sg35
VPT6M0.3440207S
p4593
sa(dp4594
g38
I4096745987
sg39
(dp4595
g41
VnV Mikwen HCS
p4596
sg43
Nssg44
(lp4597
I2758383128
asg32
VWeaponPickup
p4598
sg35
VPT6M0.3440207S
p4599
sa(dp4600
g32
VPlayerSpawn
p4601
sg39
(dp4602
g41
VnV Mikwen HCS
p4603
sg43
Nssg35
VPT6M0.3440207S
p4604
sa(dp4605
g38
I313138863
sg39
(dp4606
g41
VTL Spartan HCS
p4607
sg43
Nssg44
(lp4608
I1095363701
asg32
VWeaponPickup
p4609
sg35
VPT6M0.3770015S
p4610
sa(dp4611
g38
I4096745987
sg39
(dp4612
g41
VTL Spartan HCS
p4613
sg43
Nssg44
(lp4614
I2758383128
asg32
VWeaponPickup
p4615
sg35
VPT6M0.3780215S
p4616
sa(dp4617
g32
VPlayerSpawn
p4618
sg39
(dp4619
g41
VTL Spartan HCS
p4620
sg43
Nssg35
VPT6M0.3780215S
p4621
sa(dp4622
g208
I313138863
sg209
I00
sg210
I00
sg211
(dp4623
g41
VnV Pistola HCS
p4624
sg43
Nssg214
(lp4625
I1095363701
asg216
I00
sg217
I01
sg218
I1
sg219
I0
sg220
I1
sg221
(dp4626
Vy
F10.5651007
sVx
F17.223838799999999
sVz
F1.605896
ssg223
(dp4627
Vy
F12.890435200000001
sVx
F19.1304035
sVz
F2.6745135800000002
ssg225
I00
sg226
(dp4628
g41
VLiquid Eco
p4629
sg43
Nssg229
(lp4630
sg231
(lp4631
(dp4632
g41
VnV eL ToWn
p4633
sg43
Nsasg233
I00
sg35
VPT6M1.5100011S
p4634
sg32
VDeath
p4635
sg236
I1
sa(dp4636
g38
I313138863
sg32
VWeaponDrop
p4637
sg180
I0
sg44
(lp4638
I1095363701
asg35
VPT6M1.5110215S
p4639
sg183
I0
sg184
VP0DT0H0M4.8667S
p4640
sg39
(dp4641
g41
VLiquid Eco
p4642
sg43
Nssa(dp4643
g38
I424645655
sg32
VWeaponDrop
p4644
sg180
I72
sg44
(lp4645
I1327094800
asg35
VPT6M1.5110215S
p4646
sg183
I50
sg184
VP0DT0H1M8.0667S
p4647
sg39
(dp4648
g41
VLiquid Eco
p4649
sg43
Nssa(dp4650
g38
I313138863
sg39
(dp4651
g41
VnV RayneHCS
p4652
sg43
Nssg44
(lp4653
I1095363701
asg32
VWeaponPickup
p4654
sg35
VPT6M3.1440215S
p4655
sa(dp4656
g38
I4096745987
sg39
(dp4657
g41
VnV RayneHCS
p4658
sg43
Nssg44
(lp4659
I2758383128
asg32
VWeaponPickup
p4660
sg35
VPT6M3.1440215S
p4661
sa(dp4662
g32
VPlayerSpawn
p4663
sg39
(dp4664
g41
VnV RayneHCS
p4665
sg43
Nssg35
VPT6M3.1440215S
p4666
sa(dp4667
g38
I313138863
sg39
(dp4668
g41
VTL StelluR
p4669
sg43
Nssg44
(lp4670
I1095363701
asg32
VWeaponPickup
p4671
sg35
VPT6M3.3600016S
p4672
sa(dp4673
g38
I4096745987
sg39
(dp4674
g41
VTL StelluR
p4675
sg43
Nssg44
(lp4676
I2758383128
asg32
VWeaponPickup
p4677
sg35
VPT6M3.361021S
p4678
sa(dp4679
g32
VPlayerSpawn
p4680
sg39
(dp4681
g41
VTL StelluR
p4682
sg43
Nssg35
VPT6M3.361021S
p4683
sa(dp4684
g38
I313138863
sg32
VWeaponDrop
p4685
sg180
I31
sg44
(lp4686
I1095363701
asg35
VPT6M6.4420273S
p4687
sg183
I13
sg184
VP0DT0H0M17.9167S
p4688
sg39
(dp4689
g41
VnV Pistola HCS
p4690
sg43
Nssa(dp4691
g38
I723388907
sg39
(dp4692
g41
VnV Pistola HCS
p4693
sg43
Nssg44
(lp4694
I89283061
asg32
VWeaponPickup
p4695
sg35
VPT6M6.4420273S
p4696
sa(dp4697
g38
I313138863
sg39
(dp4698
g41
VLiquid Eco
p4699
sg43
Nssg44
(lp4700
I1095363701
asg32
VWeaponPickup
p4701
sg35
VPT6M9.5270487S
p4702
sa(dp4703
g38
I4096745987
sg39
(dp4704
g41
VLiquid Eco
p4705
sg43
Nssg44
(lp4706
I2758383128
asg32
VWeaponPickup
p4707
sg35
VPT6M9.5270487S
p4708
sa(dp4709
g32
VPlayerSpawn
p4710
sg39
(dp4711
g41
VLiquid Eco
p4712
sg43
Nssg35
VPT6M9.5270487S
p4713
sa(dp4714
g32
VMedal
p4715
sg39
(dp4716
g41
VnV Pistola HCS
p4717
sg43
Nssg241
I3565443938
sg35
VPT6M9.8590275S
p4718
sa(dp4719
g32
VMedal
p4720
sg39
(dp4721
g41
VnV eL ToWn
p4722
sg43
Nssg241
I3565443938
sg35
VPT6M9.8590275S
p4723
sa(dp4724
g32
VMedal
p4725
sg39
(dp4726
g41
VnV eL ToWn
p4727
sg43
Nssg241
I2105198095
sg35
VPT6M9.8590275S
p4728
sa(dp4729
g32
VMedal
p4730
sg39
(dp4731
g41
VnV RayneHCS
p4732
sg43
Nssg241
I2105198095
sg35
VPT6M9.8590275S
p4733
sa(dp4734
g32
VMedal
p4735
sg39
(dp4736
g41
VnV Pistola HCS
p4737
sg43
Nssg241
I2105198095
sg35
VPT6M9.8590275S
p4738
sa(dp4739
g32
VMedal
p4740
sg39
(dp4741
g41
VnV Mikwen HCS
p4742
sg43
Nssg241
I2105198095
sg35
VPT6M9.8590275S
p4743
sa(dp4744
g32
VMedal
p4745
sg39
(dp4746
g41
VnV eL ToWn
p4747
sg43
Nssg241
I3354395650
sg35
VPT6M9.8590275S
p4748
sa(dp4749
g208
I4096745987
sg209
I00
sg210
I00
sg211
(dp4750
g41
VTL Danoxide
p4751
sg43
Nssg214
(lp4752
I2758383128
asg216
I00
sg217
I01
sg218
I1
sg219
I0
sg220
I1
sg221
(dp4753
Vy
F-0.55731260000000005
sVx
F24.1032352
sVz
F1.6141087999999999
ssg223
(dp4754
Vy
F9.8105139999999995
sVx
F17.135560999999999
sVz
F2.6789130000000001
ssg225
I00
sg226
(dp4755
g41
VnV Pistola HCS
p4756
sg43
Nssg229
(lp4757
sg231
(lp4758
(dp4759
g41
VTL Spartan HCS
p4760
sg43
Nsasg233
I00
sg35
VPT6M10.0100273S
p4761
sg32
VDeath
p4762
sg236
I1
sa(dp4763
g38
I723388907
sg32
VWeaponDrop
p4764
sg180
I0
sg44
(lp4765
I89283061
asg35
VPT6M10.0130553S
p4766
sg183
I0
sg184
VP0DT0H0M0.4500S
p4767
sg39
(dp4768
g41
VnV Pistola HCS
p4769
sg43
Nssa(dp4770
g38
I4096745987
sg32
VWeaponDrop
p4771
sg180
I3
sg44
(lp4772
I2758383128
asg35
VPT6M10.0130553S
p4773
sg183
I0
sg184
VP0DT0H0M18.9667S
p4774
sg39
(dp4775
g41
VnV Pistola HCS
p4776
sg43
Nssa(dp4777
g208
I4096745987
sg209
I00
sg210
I00
sg211
(dp4778
g41
VTL Danoxide
p4779
sg43
Nssg214
(lp4780
I2758383128
asg216
I00
sg217
I01
sg218
I1
sg219
I0
sg220
I1
sg221
(dp4781
Vy
F-2.8207373599999999
sVx
F24.077196099999998
sVz
F1.61530638
ssg223
(dp4782
Vy
F-0.157963187
sVx
F13.714211499999999
sVz
F1.2160255900000001
ssg225
I00
sg226
(dp4783
g41
VnV Mikwen HCS
p4784
sg43
Nssg229
(lp4785
sg231
(lp4786
(dp4787
g41
VTL StelluR
p4788
sg43
Nsasg233
I01
sg35
VPT6M11.5430387S
p4789
sg32
VDeath
p4790
sg236
I1
sa(dp4791
g32
VMedal
p4792
sg39
(dp4793
g41
VTL Danoxide
p4794
sg43
Nssg241
I2838259753
sg35
VPT6M11.5440398S
p4795
sa(dp4796
g32
VImpulse
p4797
sg39
(dp4798
g41
VTL Danoxide
p4799
sg43
Nssg857
I2556889090
sg35
VPT6M11.5440398S
p4800
sa(dp4801
g32
VMedal
p4802
sg39
(dp4803
g41
VTL Danoxide
p4804
sg43
Nssg241
I3261908037
sg35
VPT6M11.5450385S
p4805
sa(dp4806
g32
VMedal
p4807
sg39
(dp4808
g41
VTL Danoxide
p4809
sg43
Nssg241
I2078758684
sg35
VPT6M11.5450385S
p4810
sa(dp4811
g38
I313138863
sg32
VWeaponDrop
p4812
sg180
I0
sg44
(lp4813
I1095363701
asg35
VPT6M11.5450385S
p4814
sg183
I0
sg184
VP0DT0H0M1.3000S
p4815
sg39
(dp4816
g41
VnV Mikwen HCS
p4817
sg43
Nssa(dp4818
g38
I4096745987
sg32
VWeaponDrop
p4819
sg180
I9
sg44
(lp4820
I2758383128
asg35
VPT6M11.5450385S
p4821
sg183
I5
sg184
VP0DT0H0M9.9000S
p4822
sg39
(dp4823
g41
VnV Mikwen HCS
p4824
sg43
Nssa(dp4825
g32
VMedal
p4826
sg39
(dp4827
g41
VTL Danoxide
p4828
sg43
Nssg241
I3400287617
sg35
VPT6M15.059061S
p4829
sa(dp4830
g38
I313138863
sg32
VWeaponDrop
p4831
sg180
I0
sg44
(lp4832
I1095363701
asg35
VPT6M16.2750893S
p4833
sg183
I0
sg184
VP0DT0H0M4.3000S
p4834
sg39
(dp4835
g41
VTL Spartan HCS
p4836
sg43
Nssa(dp4837
g38
I723388907
sg39
(dp4838
g41
VTL Spartan HCS
p4839
sg43
Nssg44
(lp4840
I89283061
asg32
VWeaponPickup
p4841
sg35
VPT6M16.2750893S
p4842
sa(dp4843
g38
I313138863
sg39
(dp4844
g41
VnV Pistola HCS
p4845
sg43
Nssg44
(lp4846
I1095363701
asg32
VWeaponPickup
p4847
sg35
VPT6M18.0270792S
p4848
sa(dp4849
g38
I4096745987
sg39
(dp4850
g41
VnV Pistola HCS
p4851
sg43
Nssg44
(lp4852
I2758383128
asg32
VWeaponPickup
p4853
sg35
VPT6M18.0270792S
p4854
sa(dp4855
g32
VPlayerSpawn
p4856
sg39
(dp4857
g41
VnV Pistola HCS
p4858
sg43
Nssg35
VPT6M18.0270792S
p4859
sa(dp4860
g208
I4096745987
sg209
I00
sg210
I01
sg211
(dp4861
g41
VTL StelluR
p4862
sg43
Nssg214
(lp4863
I2758383128
asg216
I00
sg217
I00
sg218
I1
sg219
I0
sg220
I1
sg221
(dp4864
Vy
F9.5963329999999996
sVx
F14.570494699999999
sVz
F2.47421837
ssg223
(dp4865
Vy
F9.8325560000000003
sVx
F14.1886578
sVz
F2.4569429999999999
ssg225
I00
sg226
(dp4866
g41
VnV eL ToWn
p4867
sg43
Nssg229
(lp4868
sg231
(lp4869
sg233
I00
sg35
VPT6M19.2760869S
p4870
sg32
VDeath
p4871
sg236
I1
sa(dp4872
g32
VMedal
p4873
sg39
(dp4874
g41
VTL StelluR
p4875
sg43
Nssg241
I2287626681
sg35
VPT6M19.2780865S
p4876
sa(dp4877
g38
I313138863
sg32
VWeaponDrop
p4878
sg180
I32
sg44
(lp4879
I1095363701
asg35
VPT6M19.2780865S
p4880
sg183
I12
sg184
VP0DT0H0M12.7167S
p4881
sg39
(dp4882
g41
VnV eL ToWn
p4883
sg43
Nssa(dp4884
g38
I313138863
sg32
VWeaponDrop
p4885
sg180
I0
sg44
(lp4886
I1095363701
asg35
VPT6M19.2780865S
p4887
sg183
I0
sg184
VP0DT0S
p4888
sg39
(dp4889
g41
VnV eL ToWn
p4890
sg43
Nssa(dp4891
g38
I4096745987
sg32
VWeaponDrop
p4892
sg180
I18
sg44
(lp4893
I2758383128
asg35
VPT6M19.2790882S
p4894
sg183
I10
sg184
VP0DT0H0M45.4500S
p4895
sg39
(dp4896
g41
VnV eL ToWn
p4897
sg43
Nssa(dp4898
g208
I313138863
sg209
I00
sg210
I00
sg211
(dp4899
g41
VLiquid Eco
p4900
sg43
Nssg214
(lp4901
I1095363701
asg216
I00
sg217
I01
sg218
I1
sg219
I0
sg220
I1
sg221
(dp4902
Vy
F-7.1817503
sVx
F10.123543700000001
sVz
F4.2790460000000001
ssg223
(dp4903
Vy
F-12.6439819
sVx
F9.5033390000000004
sVz
F2.90685964
ssg225
I00
sg226
(dp4904
g41
VnV RayneHCS
p4905
sg43
Nssg229
(lp4906
sg231
(lp4907
(dp4908
g41
VTL Danoxide
p4909
sg43
Nsasg233
I00
sg35
VPT6M19.4960926S
p4910
sg32
VDeath
p4911
sg236
I1
sa(dp4912
g38
I313138863
sg32
VWeaponDrop
p4913
sg180
I22
sg44
(lp4914
I1095363701
asg35
VPT6M19.4981097S
p4915
sg183
I11
sg184
VP0DT0H0M11.6000S
p4916
sg39
(dp4917
g41
VnV RayneHCS
p4918
sg43
Nssa(dp4919
g38
I4096745987
sg32
VWeaponDrop
p4920
sg180
I0
sg44
(lp4921
I2758383128
asg35
VPT6M19.4981097S
p4922
sg183
I0
sg184
VP0DT0H0M4.7500S
p4923
sg39
(dp4924
g41
VnV RayneHCS
p4925
sg43
Nssa(dp4926
g38
I313138863
sg39
(dp4927
g41
VnV Mikwen HCS
p4928
sg43
Nssg44
(lp4929
I1095363701
asg32
VWeaponPickup
p4930
sg35
VPT6M19.5600904S
p4931
sa(dp4932
g38
I4096745987
sg39
(dp4933
g41
VnV Mikwen HCS
p4934
sg43
Nssg44
(lp4935
I2758383128
asg32
VWeaponPickup
p4936
sg35
VPT6M19.5600904S
p4937
sa(dp4938
g32
VPlayerSpawn
p4939
sg39
(dp4940
g41
VnV Mikwen HCS
p4941
sg43
Nssg35
VPT6M19.5600904S
p4942
sa(dp4943
g38
I313138863
sg32
VWeaponDrop
p4944
sg180
I23
sg44
(lp4945
I1095363701
asg35
VPT6M20.2920945S
p4946
sg183
I11
sg184
VP0DT0H0M5.1667S
p4947
sg39
(dp4948
g41
VTL Danoxide
p4949
sg43
Nssa(dp4950
g38
I2015271382
sg39
(dp4951
g41
VTL Danoxide
p4952
sg43
Nssg44
(lp4953
I2758383128
asg32
VWeaponPickup
p4954
sg35
VPT6M20.2920945S
p4955
sa(dp4956
g32
VMedal
p4957
sg39
(dp4958
g41
VTL Danoxide
p4959
sg43
Nssg241
I3565443938
sg35
VPT6M21.0591189S
p4960
sa(dp4961
g32
VMedal
p4962
sg39
(dp4963
g41
VLiquid Eco
p4964
sg43
Nssg241
I3565443938
sg35
VPT6M21.0591189S
p4965
sa(dp4966
g32
VMedal
p4967
sg39
(dp4968
g41
VTL StelluR
p4969
sg43
Nssg241
I1637841390
sg35
VPT6M21.0591189S
p4970
sa(dp4971
g32
VMedal
p4972
sg39
(dp4973
g41
VTL Spartan HCS
p4974
sg43
Nssg241
I3565443938
sg35
VPT6M21.7081263S
p4975
sa(dp4976
g32
VMedal
p4977
sg39
(dp4978
g41
VTL StelluR
p4979
sg43
Nssg241
I3565443938
sg35
VPT6M21.7081263S
p4980
sa(dp4981
g32
VMedal
p4982
sg39
(dp4983
g41
VTL StelluR
p4984
sg43
Nssg241
I3400287617
sg35
VPT6M23.1421046S
p4985
sa(dp4986
g208
I4096745987
sg209
I00
sg210
I00
sg211
(dp4987
g41
VnV Mikwen HCS
p4988
sg43
Nssg214
(lp4989
I2758383128
asg216
I00
sg217
I01
sg218
I1
sg219
I0
sg220
I1
sg221
(dp4990
Vy
F-0.67189216600000001
sVx
F0.80361205300000005
sVz
F2.7402377100000002
ssg223
(dp4991
Vy
F-8.5051480000000002
sVx
F10.609220000000001
sVz
F3.1403884899999999
ssg225
I00
sg226
(dp4992
g41
VTL Danoxide
p4993
sg43
Nssg229
(lp4994
sg231
(lp4995
(dp4996
g41
VnV Pistola HCS
p4997
sg43
Nsasg233
I01
sg35
VPT6M26.2931031S
p4998
sg32
VDeath
p4999
sg236
I1
sa(dp5000
g32
VMedal
p5001
sg39
(dp5002
g41
VnV Mikwen HCS
p5003
sg43
Nssg241
I3261908037
sg35
VPT6M26.2941231S
p5004
sa(dp5005
g38
I2015271382
sg32
VWeaponDrop
p5006
sg180
I0
sg44
(lp5007
I2758383128
asg35
VPT6M26.295123S
p5008
sg183
I0
sg184
VP0DT0H0M0.5000S
p5009
sg39
(dp5010
g41
VTL Danoxide
p5011
sg43
Nssa(dp5012
g38
I4096745987
sg32
VWeaponDrop
p5013
sg180
I16
sg44
(lp5014
I2758383128
asg35
VPT6M26.295123S
p5015
sg183
I10
sg184
VP0DT0H0M24.7500S
p5016
sg39
(dp5017
g41
VTL Danoxide
p5018
sg43
Nssa(dp5019
g38
I313138863
sg39
(dp5020
g41
VnV eL ToWn
p5021
sg43
Nssg44
(lp5022
I1095363701
asg32
VWeaponPickup
p5023
sg35
VPT6M27.2931287S
p5024
sa(dp5025
g38
I4096745987
sg39
(dp5026
g41
VnV eL ToWn
p5027
sg43
Nssg44
(lp5028
I2758383128
asg32
VWeaponPickup
p5029
sg35
VPT6M27.2931287S
p5030
sa(dp5031
g32
VPlayerSpawn
p5032
sg39
(dp5033
g41
VnV eL ToWn
p5034
sg43
Nssg35
VPT6M27.2931287S
p5035
sa(dp5036
g38
I313138863
sg39
(dp5037
g41
VnV RayneHCS
p5038
sg43
Nssg44
(lp5039
I1095363701
asg32
VWeaponPickup
p5040
sg35
VPT6M27.5091035S
p5041
sa(dp5042
g38
I4096745987
sg39
(dp5043
g41
VnV RayneHCS
p5044
sg43
Nssg44
(lp5045
I2758383128
asg32
VWeaponPickup
p5046
sg35
VPT6M27.5101031S
p5047
sa(dp5048
g32
VPlayerSpawn
p5049
sg39
(dp5050
g41
VnV RayneHCS
p5051
sg43
Nssg35
VPT6M27.5101031S
p5052
sa(dp5053
g208
I4096745987
sg209
I00
sg210
I00
sg211
(dp5054
g41
VnV eL ToWn
p5055
sg43
Nssg214
(lp5056
I2758383128
asg216
I00
sg217
I01
sg218
I1
sg219
I0
sg220
I1
sg221
(dp5057
Vy
F-5.2115130000000001
sVx
F20.144763900000001
sVz
F2.5044534199999999
ssg223
(dp5058
Vy
F1.83312571
sVx
F20.883888200000001
sVz
F0.80001330000000004
ssg225
I00
sg226
(dp5059
g41
VTL StelluR
p5060
sg43
Nssg229
(lp5061
sg231
(lp5062
(dp5063
g41
VnV RayneHCS
p5064
sg43
Nsasg233
I01
sg35
VPT6M32.9091035S
p5065
sg32
VDeath
p5066
sg236
I1
sa(dp5067
g32
VMedal
p5068
sg39
(dp5069
g41
VnV eL ToWn
p5070
sg43
Nssg241
I3261908037
sg35
VPT6M32.9111423S
p5071
sa(dp5072
g38
I313138863
sg32
VWeaponDrop
p5073
sg180
I0
sg44
(lp5074
I1095363701
asg35
VPT6M32.9111423S
p5075
sg183
I0
sg184
VP0DT0H0M1.9167S
p5076
sg39
(dp5077
g41
VTL StelluR
p5078
sg43
Nssa(dp5079
g38
I4096745987
sg32
VWeaponDrop
p5080
sg180
I13
sg44
(lp5081
I2758383128
asg35
VPT6M32.9111423S
p5082
sg183
I8
sg184
VP0DT0H0M27.6333S
p5083
sg39
(dp5084
g41
VTL StelluR
p5085
sg43
Nssa(dp5086
g38
I4096745987
sg32
VWeaponDrop
p5087
sg180
I0
sg44
(lp5088
I2758383128
asg35
VPT6M32.9111423S
p5089
sg183
I0
sg184
VP0DT0S
p5090
sg39
(dp5091
g41
VTL StelluR
p5092
sg43
Nssa(dp5093
g208
I4096745987
sg209
I00
sg210
I00
sg211
(dp5094
g41
VLiquid Eco
p5095
sg43
Nssg214
(lp5096
I2758383128
asg216
I00
sg217
I01
sg218
I1
sg219
I0
sg220
I1
sg221
(dp5097
Vy
F-1.27457011
sVx
F-6.9859799999999996
sVz
F1.8001130000000001
ssg223
(dp5098
Vy
F-1.3150827899999999
sVx
F-0.78977274900000005
sVz
F2.4000015299999999
ssg225
I00
sg226
(dp5099
g41
VnV Mikwen HCS
p5100
sg43
Nssg229
(lp5101
sg231
(lp5102
sg233
I01
sg35
VPT6M33.0261039S
p5103
sg32
VDeath
p5104
sg236
I1
sa(dp5105
g32
VMedal
p5106
sg39
(dp5107
g41
VLiquid Eco
p5108
sg43
Nssg241
I3261908037
sg35
VPT6M33.0271229S
p5109
sa(dp5110
g38
I313138863
sg32
VWeaponDrop
p5111
sg180
I9
sg44
(lp5112
I1095363701
asg35
VPT6M33.0281243S
p5113
sg183
I3
sg184
VP0DT0H0M3.3333S
p5114
sg39
(dp5115
g41
VnV Mikwen HCS
p5116
sg43
Nssa(dp5117
g38
I4096745987
sg32
VWeaponDrop
p5118
sg180
I11
sg44
(lp5119
I2758383128
asg35
VPT6M33.0281243S
p5120
sg183
I5
sg184
VP0DT0H0M10.1333S
p5121
sg39
(dp5122
g41
VnV Mikwen HCS
p5123
sg43
Nssa(dp5124
g38
I313138863
sg39
(dp5125
g41
VTL Danoxide
p5126
sg43
Nssg44
(lp5127
I1095363701
asg32
VWeaponPickup
p5128
sg35
VPT6M34.3091038S
p5129
sa(dp5130
g38
I4096745987
sg39
(dp5131
g41
VTL Danoxide
p5132
sg43
Nssg44
(lp5133
I2758383128
asg32
VWeaponPickup
p5134
sg35
VPT6M34.310104S
p5135
sa(dp5136
g32
VPlayerSpawn
p5137
sg39
(dp5138
g41
VTL Danoxide
p5139
sg43
Nssg35
VPT6M34.310104S
p5140
sa(dp5141
g38
I313138863
sg32
VWeaponDrop
p5142
sg180
I0
sg44
(lp5143
I1095363701
asg35
VPT6M35.658104S
p5144
sg183
I0
sg184
VP0DT0H0M1.1500S
p5145
sg39
(dp5146
g41
VnV RayneHCS
p5147
sg43
Nssa(dp5148
g38
I2902827823
sg39
(dp5149
g41
VnV RayneHCS
p5150
sg43
Nssg44
(lp5151
I2758383128
asg32
VWeaponPickupPad
p5152
sg35
VPT6M35.658104S
p5153
sa(dp5154
g38
I2902827823
sg39
(dp5155
g41
VnV RayneHCS
p5156
sg43
Nssg44
(lp5157
I2758383128
asg32
VWeaponPickup
p5158
sg35
VPT6M35.658104S
p5159
sa(dp5160
g208
I4096745987
sg209
I00
sg210
I00
sg211
(dp5161
g41
VTL Spartan HCS
p5162
sg43
Nssg214
(lp5163
I2758383128
asg216
I00
sg217
I01
sg218
I1
sg219
I0
sg220
I1
sg221
(dp5164
Vy
F10.186264
sVx
F16.7169743
sVz
F2.1438009999999998
ssg223
(dp5165
Vy
F1.6698005199999999
sVx
F24.164835
sVz
F2.2179340000000001
ssg225
I00
sg226
(dp5166
g41
VnV RayneHCS
p5167
sg43
Nssg229
(lp5168
sg231
(lp5169
(dp5170
g41
VTL StelluR
p5171
sg43
Nsa(dp5172
g41
VTL Danoxide
p5173
sg43
Nsasg233
I01
sg35
VPT6M36.9261041S
p5174
sg32
VDeath
p5175
sg236
I1
sa(dp5176
g32
VMedal
p5177
sg39
(dp5178
g41
VTL Spartan HCS
p5179
sg43
Nssg241
I3261908037
sg35
VPT6M36.9271277S
p5180
sa(dp5181
g38
I2902827823
sg32
VWeaponDrop
p5182
sg180
I0
sg44
(lp5183
I2758383128
asg35
VPT6M36.9271277S
p5184
sg183
I0
sg184
VP0DT0H0M1.2667S
p5185
sg39
(dp5186
g41
VnV RayneHCS
p5187
sg43
Nssa(dp5188
g38
I4096745987
sg32
VWeaponDrop
p5189
sg180
I4
sg44
(lp5190
I2758383128
asg35
VPT6M36.9271277S
p5191
sg183
I1
sg184
VP0DT0H0M7.0000S
p5192
sg39
(dp5193
g41
VnV RayneHCS
p5194
sg43
Nssa(dp5195
g208
I313138863
sg209
I00
sg210
I00
sg211
(dp5196
g41
VLiquid Eco
p5197
sg43
Nssg214
(lp5198
I1095363701
asg216
I00
sg217
I01
sg218
I1
sg219
I0
sg220
I1
sg221
(dp5199
Vy
F-8.1023359999999993
sVx
F-6.8607810000000002
sVz
F0.7968092
ssg223
(dp5200
Vy
F-6.2498555199999997
sVx
F-3.3461134399999999
sVz
F0.0045324859999999996
ssg225
I00
sg226
(dp5201
g41
VnV Pistola HCS
p5202
sg43
Nssg229
(lp5203
sg231
(lp5204
sg233
I00
sg35
VPT6M39.8431039S
p5205
sg32
VDeath
p5206
sg236
I1
sa(dp5207
g38
I313138863
sg32
VWeaponDrop
p5208
sg180
I18
sg44
(lp5209
I1095363701
asg35
VPT6M39.845129S
p5210
sg183
I8
sg184
VP0DT0H0M5.4167S
p5211
sg39
(dp5212
g41
VnV Pistola HCS
p5213
sg43
Nssa(dp5214
g38
I4096745987
sg32
VWeaponDrop
p5215
sg180
I4
sg44
(lp5216
I2758383128
asg35
VPT6M39.845129S
p5217
sg183
I2
sg184
VP0DT0H0M16.4000S
p5218
sg39
(dp5219
g41
VnV Pistola HCS
p5220
sg43
Nssa(dp5221
g38
I723388907
sg32
VWeaponDrop
p5222
sg180
I6
sg44
(lp5223
I89283061
asg35
VPT6M40.5571237S
p5224
sg183
I0
sg184
VP0DT0H0M13.9333S
p5225
sg39
(dp5226
g41
VTL Spartan HCS
p5227
sg43
Nssa(dp5228
g38
I2902827823
sg39
(dp5229
g41
VTL Spartan HCS
p5230
sg43
Nssg44
(lp5231
I2758383128
asg32
VWeaponPickup
p5232
sg35
VPT6M40.5581237S
p5233
sa(dp5234
g38
I2492868984
sg39
(dp5235
g41
VnV eL ToWn
p5236
sg43
Nssg44
(lp5237
I2758383128
asg32
VWeaponPickup
p5238
sg35
VPT6M40.5751021S
p5239
sa(dp5240
g38
I313138863
sg39
(dp5241
g41
VTL StelluR
p5242
sg43
Nssg44
(lp5243
I1095363701
asg32
VWeaponPickup
p5244
sg35
VPT6M40.9261246S
p5245
sa(dp5246
g38
I4096745987
sg39
(dp5247
g41
VTL StelluR
p5248
sg43
Nssg44
(lp5249
I2758383128
asg32
VWeaponPickup
p5250
sg35
VPT6M40.9261246S
p5251
sa(dp5252
g32
VPlayerSpawn
p5253
sg39
(dp5254
g41
VTL StelluR
p5255
sg43
Nssg35
VPT6M40.9261246S
p5256
sa(dp5257
g38
I313138863
sg39
(dp5258
g41
VnV Mikwen HCS
p5259
sg43
Nssg44
(lp5260
I1095363701
asg32
VWeaponPickup
p5261
sg35
VPT6M41.0421029S
p5262
sa(dp5263
g38
I4096745987
sg39
(dp5264
g41
VnV Mikwen HCS
p5265
sg43
Nssg44
(lp5266
I2758383128
asg32
VWeaponPickup
p5267
sg35
VPT6M41.0431018S
p5268
sa(dp5269
g32
VPlayerSpawn
p5270
sg39
(dp5271
g41
VnV Mikwen HCS
p5272
sg43
Nssg35
VPT6M41.0431018S
p5273
sa(dp5274
g38
I2492868984
sg32
VWeaponDrop
p5275
sg180
I0
sg44
(lp5276
I2758383128
asg35
VPT6M41.7431022S
p5277
sg183
I0
sg184
VP0DT0H0M1.0000S
p5278
sg39
(dp5279
g41
VnV eL ToWn
p5280
sg43
Nssa(dp5281
g38
I313138863
sg39
(dp5282
g41
VnV RayneHCS
p5283
sg43
Nssg44
(lp5284
I1095363701
asg32
VWeaponPickup
p5285
sg35
VPT6M44.9421242S
p5286
sa(dp5287
g38
I4096745987
sg39
(dp5288
g41
VnV RayneHCS
p5289
sg43
Nssg44
(lp5290
I2758383128
asg32
VWeaponPickup
p5291
sg35
VPT6M44.9421242S
p5292
sa(dp5293
g32
VPlayerSpawn
p5294
sg39
(dp5295
g41
VnV RayneHCS
p5296
sg43
Nssg35
VPT6M44.9431245S
p5297
sa(dp5298
g208
I313138863
sg209
I00
sg210
I00
sg211
(dp5299
g41
VTL Danoxide
p5300
sg43
Nssg214
(lp5301
I1095363701
asg216
I00
sg217
I01
sg218
I1
sg219
I0
sg220
I1
sg221
(dp5302
Vy
F0.312579155
sVx
F13.8479919
sVz
F0.99594210000000005
ssg223
(dp5303
Vy
F-0.99579359999999995
sVx
F15.5138044
sVz
F0.80003690000000005
ssg225
I00
sg226
(dp5304
g41
VnV eL ToWn
p5305
sg43
Nssg229
(lp5306
sg231
(lp5307
(dp5308
g41
VTL Spartan HCS
p5309
sg43
Nsa(dp5310
g41
VTL StelluR
p5311
sg43
Nsasg233
I00
sg35
VPT6M46.6761042S
p5312
sg32
VDeath
p5313
sg236
I1
sa(dp5314
g32
VMedal
p5315
sg39
(dp5316
g41
VTL Danoxide
p5317
sg43
Nssg241
I2838259753
sg35
VPT6M46.6761042S
p5318
sa(dp5319
g32
VImpulse
p5320
sg39
(dp5321
g41
VTL Danoxide
p5322
sg43
Nssg857
I2556889090
sg35
VPT6M46.6761042S
p5323
sa(dp5324
g38
I313138863
sg32
VWeaponDrop
p5325
sg180
I0
sg44
(lp5326
I1095363701
asg35
VPT6M46.677102S
p5327
sg183
I0
sg184
VP0DT0H0M5.5000S
p5328
sg39
(dp5329
g41
VnV eL ToWn
p5330
sg43
Nssa(dp5331
g38
I4096745987
sg32
VWeaponDrop
p5332
sg180
I14
sg44
(lp5333
I2758383128
asg35
VPT6M46.677102S
p5334
sg183
I9
sg184
VP0DT0H0M12.6000S
p5335
sg39
(dp5336
g41
VnV eL ToWn
p5337
sg43
Nssa(dp5338
g38
I313138863
sg39
(dp5339
g41
VnV Pistola HCS
p5340
sg43
Nssg44
(lp5341
I1095363701
asg32
VWeaponPickup
p5342
sg35
VPT6M47.8591237S
p5343
sa(dp5344
g38
I4096745987
sg39
(dp5345
g41
VnV Pistola HCS
p5346
sg43
Nssg44
(lp5347
I2758383128
asg32
VWeaponPickup
p5348
sg35
VPT6M47.8591237S
p5349
sa(dp5350
g32
VPlayerSpawn
p5351
sg39
(dp5352
g41
VnV Pistola HCS
p5353
sg43
Nssg35
VPT6M47.8591237S
p5354
sa(dp5355
g32
VMedal
p5356
sg39
(dp5357
g41
VTL StelluR
p5358
sg43
Nssg241
I3565443938
sg35
VPT6M50.9411035S
p5359
sa(dp5360
g32
VMedal
p5361
sg39
(dp5362
g41
VLiquid Eco
p5363
sg43
Nssg241
I3565443938
sg35
VPT6M50.9411035S
p5364
sa(dp5365
g32
VMedal
p5366
sg39
(dp5367
g41
VLiquid Eco
p5368
sg43
Nssg241
I2105198095
sg35
VPT6M50.9411035S
p5369
sa(dp5370
g32
VMedal
p5371
sg39
(dp5372
g41
VTL Spartan HCS
p5373
sg43
Nssg241
I2105198095
sg35
VPT6M50.9411035S
p5374
sa(dp5375
g32
VMedal
p5376
sg39
(dp5377
g41
VTL StelluR
p5378
sg43
Nssg241
I2105198095
sg35
VPT6M50.9411035S
p5379
sa(dp5380
g32
VMedal
p5381
sg39
(dp5382
g41
VTL Danoxide
p5383
sg43
Nssg241
I2105198095
sg35
VPT6M50.9411035S
p5384
sa(dp5385
g208
I4106030681
sg209
I00
sg210
I00
sg211
(dp5386
g41
VnV Mikwen HCS
p5387
sg43
Nssg214
(lp5388
sg216
I00
sg217
I01
sg218
I1
sg219
I0
sg220
I1
sg221
(dp5389
Vy
F-11.1511269
sVx
F8.5997109999999992
sVz
F4.0080466299999999
ssg223
(dp5390
Vy
F3.8205118200000001
sVx
F2.9530029999999998
sVz
F3.7001571700000002
ssg225
I00
sg226
(dp5391
g41
VLiquid Eco
p5392
sg43
Nssg229
(lp5393
sg231
(lp5394
(dp5395
g41
VnV RayneHCS
p5396
sg43
Nsasg233
I00
sg35
VPT6M51.0081029S
p5397
sg32
VDeath
p5398
sg236
I1
sa(dp5399
g32
VMedal
p5400
sg39
(dp5401
g41
VnV Mikwen HCS
p5402
sg43
Nssg241
I3491849182
sg35
VPT6M51.0091284S
p5403
sa(dp5404
g38
I4096745987
sg32
VWeaponDrop
p5405
sg180
I5
sg44
(lp5406
I2758383128
asg35
VPT6M51.0101243S
p5407
sg183
I2
sg184
VP0DT0H0M21.2167S
p5408
sg39
(dp5409
g41
VLiquid Eco
p5410
sg43
Nssa(dp5411
g38
I313138863
sg32
VWeaponDrop
p5412
sg180
I53
sg44
(lp5413
I1095363701
asg35
VPT6M51.0121232S
p5414
sg183
I23
sg184
VP0DT0H0M20.2667S
p5415
sg39
(dp5416
g41
VLiquid Eco
p5417
sg43
Nssa(dp5418
g208
I4106030681
sg209
I00
sg210
I00
sg211
(dp5419
g41
VnV Mikwen HCS
p5420
sg43
Nssg214
(lp5421
sg216
I00
sg217
I01
sg218
I1
sg219
I0
sg220
I1
sg221
(dp5422
Vy
F-11.1511269
sVx
F8.5997109999999992
sVz
F4.0080466299999999
ssg223
(dp5423
Vy
F2.7369430000000001
sVx
F3.528124
sVz
F3.7001571700000002
ssg225
I00
sg226
(dp5424
g41
VTL StelluR
p5425
sg43
Nssg229
(lp5426
sg231
(lp5427
(dp5428
g41
VnV RayneHCS
p5429
sg43
Nsasg233
I00
sg35
VPT6M51.0121232S
p5430
sg32
VDeath
p5431
sg236
I1
sa(dp5432
g32
VMedal
p5433
sg39
(dp5434
g41
VnV Mikwen HCS
p5435
sg43
Nssg241
I2531822079
sg35
VPT6M51.0121232S
p5436
sa(dp5437
g32
VMedal
p5438
sg39
(dp5439
g41
VnV Mikwen HCS
p5440
sg43
Nssg241
I2078758684
sg35
VPT6M51.0131225S
p5441
sa(dp5442
g38
I313138863
sg32
VWeaponDrop
p5443
sg180
I0
sg44
(lp5444
I1095363701
asg35
VPT6M51.0131225S
p5445
sg183
I0
sg184
VP0DT0H0M0.7167S
p5446
sg39
(dp5447
g41
VTL StelluR
p5448
sg43
Nssa(dp5449
g38
I4096745987
sg32
VWeaponDrop
p5450
sg180
I4
sg44
(lp5451
I2758383128
asg35
VPT6M51.0131225S
p5452
sg183
I2
sg184
VP0DT0H0M9.3667S
p5453
sg39
(dp5454
g41
VTL StelluR
p5455
sg43
Nssa(dp5456
g32
VMedal
p5457
sg39
(dp5458
g41
VTL Danoxide
p5459
sg43
Nssg241
I2916014239
sg35
VPT6M51.4911032S
p5460
sa(dp5461
g208
I4096745987
sg209
I00
sg210
I00
sg211
(dp5462
g41
VTL Danoxide
p5463
sg43
Nssg214
(lp5464
I2758383128
asg216
I00
sg217
I01
sg218
I1
sg219
I0
sg220
I1
sg221
(dp5465
Vy
F-7.58687735
sVx
F10.598259000000001
sVz
F3.1403884899999999
ssg223
(dp5466
Vy
F-12.8691978
sVx
F8.9746839999999999
sVz
F2.4003496200000001
ssg225
I00
sg226
(dp5467
g41
VnV Mikwen HCS
p5468
sg43
Nssg229
(lp5469
sg231
(lp5470
sg233
I01
sg35
VPT6M52.3081036S
p5471
sg32
VDeath
p5472
sg236
I1
sa(dp5473
g32
VMedal
p5474
sg39
(dp5475
g41
VTL Danoxide
p5476
sg43
Nssg241
I2766284219
sg35
VPT6M52.3101323S
p5477
sa(dp5478
g38
I4096745987
sg32
VWeaponDrop
p5479
sg180
I9
sg44
(lp5480
I2758383128
asg35
VPT6M52.3101323S
p5481
sg183
I5
sg184
VP0DT0H0M10.4833S
p5482
sg39
(dp5483
g41
VnV Mikwen HCS
p5484
sg43
Nssa(dp5485
g38
I313138863
sg32
VWeaponDrop
p5486
sg180
I0
sg44
(lp5487
I1095363701
asg35
VPT6M52.3111291S
p5488
sg183
I0
sg184
VP0DT0H0M0.7833S
p5489
sg39
(dp5490
g41
VnV Mikwen HCS
p5491
sg43
Nssa(dp5492
g38
I313138863
sg39
(dp5493
g41
VnV eL ToWn
p5494
sg43
Nssg44
(lp5495
I1095363701
asg32
VWeaponPickup
p5496
sg35
VPT6M54.6921055S
p5497
sa(dp5498
g38
I4096745987
sg39
(dp5499
g41
VnV eL ToWn
p5500
sg43
Nssg44
(lp5501
I2758383128
asg32
VWeaponPickup
p5502
sg35
VPT6M54.6921055S
p5503
sa(dp5504
g32
VPlayerSpawn
p5505
sg39
(dp5506
g41
VnV eL ToWn
p5507
sg43
Nssg35
VPT6M54.6921055S
p5508
sa(dp5509
g208
I4096745987
sg209
I00
sg210
I00
sg211
(dp5510
g41
VnV Pistola HCS
p5511
sg43
Nssg214
(lp5512
I2758383128
asg216
I00
sg217
I01
sg218
I1
sg219
I0
sg220
I1
sg221
(dp5513
Vy
F-12.7711124
sVx
F6.0205755200000004
sVz
F2.5812096599999999
ssg223
(dp5514
Vy
F-8.4607340000000004
sVx
F12.7517891
sVz
F3.1403884899999999
ssg225
I00
sg226
(dp5515
g41
VTL Danoxide
p5516
sg43
Nssg229
(lp5517
sg231
(lp5518
(dp5519
g41
VnV Mikwen HCS
p5520
sg43
Nsa(dp5521
g41
VnV RayneHCS
p5522
sg43
Nsasg233
I01
sg35
VPT6M55.392104S
p5523
sg32
VDeath
p5524
sg236
I1
sa(dp5525
g32
VMedal
p5526
sg39
(dp5527
g41
VnV Pistola HCS
p5528
sg43
Nssg241
I2838259753
sg35
VPT6M55.392104S
p5529
sa(dp5530
g32
VImpulse
p5531
sg39
(dp5532
g41
VnV Pistola HCS
p5533
sg43
Nssg857
I2556889090
sg35
VPT6M55.392104S
p5534
sa(dp5535
g32
VMedal
p5536
sg39
(dp5537
g41
VnV Pistola HCS
p5538
sg43
Nssg241
I3261908037
sg35
VPT6M55.3931041S
p5539
sa(dp5540
g38
I313138863
sg32
VWeaponDrop
p5541
sg180
I41
sg44
(lp5542
I1095363701
asg35
VPT6M55.3941062S
p5543
sg183
I19
sg184
VP0DT0H0M7.2833S
p5544
sg39
(dp5545
g41
VTL Danoxide
p5546
sg43
Nssa(dp5547
g38
I4096745987
sg32
VWeaponDrop
p5548
sg180
I15
sg44
(lp5549
I2758383128
asg35
VPT6M55.3941062S
p5550
sg183
I5
sg184
VP0DT0H0M13.8000S
p5551
sg39
(dp5552
g41
VTL Danoxide
p5553
sg43
Nssa(dp5554
g208
I2902827823
sg209
I00
sg210
I00
sg211
(dp5555
g41
VTL Spartan HCS
p5556
sg43
Nssg214
(lp5557
I2758383128
asg216
I00
sg217
I01
sg218
I1
sg219
I0
sg220
I1
sg221
(dp5558
Vy
F-7.8970950000000002
sVx
F12.959712
sVz
F3.1403884899999999
ssg223
(dp5559
Vy
F-8.9758840000000006
sVx
F8.9246490000000005
sVz
F4.019501
ssg225
I00
sg226
(dp5560
g41
VnV Pistola HCS
p5561
sg43
Nssg229
(lp5562
sg231
(lp5563
sg233
I00
sg35
VPT6M58.3581032S
p5564
sg32
VDeath
p5565
sg236
I1
sa(dp5566
g38
I313138863
sg32
VWeaponDrop
p5567
sg180
I12
sg44
(lp5568
I1095363701
asg35
VPT6M58.3591045S
p5569
sg183
I9
sg184
VP0DT0H0M2.2500S
p5570
sg39
(dp5571
g41
VnV Pistola HCS
p5572
sg43
Nssa(dp5573
g38
I4096745987
sg32
VWeaponDrop
p5574
sg180
I6
sg44
(lp5575
I2758383128
asg35
VPT6M58.3591045S
p5576
sg183
I1
sg184
VP0DT0H0M8.2500S
p5577
sg39
(dp5578
g41
VnV Pistola HCS
p5579
sg43
Nssa(dp5580
g38
I313138863
sg39
(dp5581
g41
VLiquid Eco
p5582
sg43
Nssg44
(lp5583
I1095363701
asg32
VWeaponPickup
p5584
sg35
VPT6M59.0261057S
p5585
sa(dp5586
g38
I4096745987
sg39
(dp5587
g41
VLiquid Eco
p5588
sg43
Nssg44
(lp5589
I2758383128
asg32
VWeaponPickup
p5590
sg35
VPT6M59.0261057S
p5591
sa(dp5592
g32
VPlayerSpawn
p5593
sg39
(dp5594
g41
VLiquid Eco
p5595
sg43
Nssg35
VPT6M59.0261057S
p5596
sa(dp5597
g38
I313138863
sg39
(dp5598
g41
VTL StelluR
p5599
sg43
Nssg44
(lp5600
I1095363701
asg32
VWeaponPickup
p5601
sg35
VPT6M59.0591072S
p5602
sa(dp5603
g38
I4096745987
sg39
(dp5604
g41
VTL StelluR
p5605
sg43
Nssg44
(lp5606
I2758383128
asg32
VWeaponPickup
p5607
sg35
VPT6M59.0591072S
p5608
sa(dp5609
g32
VPlayerSpawn
p5610
sg39
(dp5611
g41
VTL StelluR
p5612
sg43
Nssg35
VPT6M59.0591072S
p5613
sa(dp5614
g38
I313138863
sg39
(dp5615
g41
VnV Mikwen HCS
p5616
sg43
Nssg44
(lp5617
I1095363701
asg32
VWeaponPickup
p5618
sg35
VPT7M0.3251243S
p5619
sa(dp5620
g38
I4096745987
sg39
(dp5621
g41
VnV Mikwen HCS
p5622
sg43
Nssg44
(lp5623
I2758383128
asg32
VWeaponPickup
p5624
sg35
VPT7M0.326106S
p5625
sa(dp5626
g32
VPlayerSpawn
p5627
sg39
(dp5628
g41
VnV Mikwen HCS
p5629
sg43
Nssg35
VPT7M0.326106S
p5630
sa(dp5631
g38
I2492868984
sg39
(dp5632
g41
VnV Mikwen HCS
p5633
sg43
Nssg44
(lp5634
I2758383128
asg32
VWeaponPickup
p5635
sg35
VPT7M1.8911029S
p5636
sa(dp5637
g38
I2492868984
sg32
VWeaponDrop
p5638
sg180
I0
sg44
(lp5639
I2758383128
asg35
VPT7M3.0422854S
p5640
sg183
I0
sg184
VP0DT0H0M0.9833S
p5641
sg39
(dp5642
g41
VnV Mikwen HCS
p5643
sg43
Nssa(dp5644
g38
I313138863
sg39
(dp5645
g41
VTL Danoxide
p5646
sg43
Nssg44
(lp5647
I1095363701
asg32
VWeaponPickup
p5648
sg35
VPT7M3.408123S
p5649
sa(dp5650
g38
I4096745987
sg39
(dp5651
g41
VTL Danoxide
p5652
sg43
Nssg44
(lp5653
I2758383128
asg32
VWeaponPickup
p5654
sg35
VPT7M3.408123S
p5655
sa(dp5656
g32
VPlayerSpawn
p5657
sg39
(dp5658
g41
VTL Danoxide
p5659
sg43
Nssg35
VPT7M3.408123S
p5660
sa(dp5661
g38
I313138863
sg39
(dp5662
g41
VnV Pistola HCS
p5663
sg43
Nssg44
(lp5664
I1095363701
asg32
VWeaponPickup
p5665
sg35
VPT7M6.3751028S
p5666
sa(dp5667
g38
I4096745987
sg39
(dp5668
g41
VnV Pistola HCS
p5669
sg43
Nssg44
(lp5670
I2758383128
asg32
VWeaponPickup
p5671
sg35
VPT7M6.3751028S
p5672
sa(dp5673
g32
VPlayerSpawn
p5674
sg39
(dp5675
g41
VnV Pistola HCS
p5676
sg43
Nssg35
VPT7M6.3751028S
p5677
sa(dp5678
g208
I4096745987
sg209
I00
sg210
I00
sg211
(dp5679
g41
VTL Danoxide
p5680
sg43
Nssg214
(lp5681
I2758383128
asg216
I00
sg217
I01
sg218
I1
sg219
I0
sg220
I1
sg221
(dp5682
Vy
F12.7238483
sVx
F5.9352739999999997
sVz
F3.5884330000000002
ssg223
(dp5683
Vy
F0.51480245599999996
sVx
F5.6570729999999996
sVz
F3.7001574000000002
ssg225
I00
sg226
(dp5684
g41
VnV eL ToWn
p5685
sg43
Nssg229
(lp5686
sg231
(lp5687
(dp5688
g41
VTL StelluR
p5689
sg43
Nsasg233
I01
sg35
VPT7M6.8251056S
p5690
sg32
VDeath
p5691
sg236
I1
sa(dp5692
g32
VMedal
p5693
sg39
(dp5694
g41
VTL Danoxide
p5695
sg43
Nssg241
I1351381581
sg35
VPT7M6.8261032S
p5696
sa(dp5697
g32
VMedal
p5698
sg39
(dp5699
g41
VTL Danoxide
p5700
sg43
Nssg241
I3261908037
sg35
VPT7M6.8261032S
p5701
sa(dp5702
g38
I4096745987
sg32
VWeaponDrop
p5703
sg180
I0
sg44
(lp5704
I2758383128
asg35
VPT7M6.8261032S
p5705
sg183
I0
sg184
VP0DT0H0M11.1333S
p5706
sg39
(dp5707
g41
VnV eL ToWn
p5708
sg43
Nssa(dp5709
g38
I313138863
sg32
VWeaponDrop
p5710
sg180
I0
sg44
(lp5711
I1095363701
asg35
VPT7M6.8271031S
p5712
sg183
I0
sg184
VP0DT0H0M1.0000S
p5713
sg39
(dp5714
g41
VnV eL ToWn
p5715
sg43
Nssa(dp5716
g208
I4096745987
sg209
I00
sg210
I00
sg211
(dp5717
g41
VLiquid Eco
p5718
sg43
Nssg214
(lp5719
I2758383128
asg216
I00
sg217
I01
sg218
I1
sg219
I0
sg220
I1
sg221
(dp5720
Vy
F3.5240137599999999
sVx
F10.125371899999999
sVz
F2.39467645
ssg223
(dp5721
Vy
F-8.6705260000000006
sVx
F12.9401207
sVz
F3.1403884899999999
ssg225
I00
sg226
(dp5722
g41
VnV RayneHCS
p5723
sg43
Nssg229
(lp5724
sg231
(lp5725
(dp5726
g41
VTL Spartan HCS
p5727
sg43
Nsasg233
I01
sg35
VPT7M7.5251045S
p5728
sg32
VDeath
p5729
sg236
I1
sa(dp5730
g32
VMedal
p5731
sg39
(dp5732
g41
VLiquid Eco
p5733
sg43
Nssg241
I2838259753
sg35
VPT7M7.5251045S
p5734
sa(dp5735
g32
VImpulse
p5736
sg39
(dp5737
g41
VLiquid Eco
p5738
sg43
Nssg857
I2556889090
sg35
VPT7M7.5251045S
p5739
sa(dp5740
g32
VMedal
p5741
sg39
(dp5742
g41
VLiquid Eco
p5743
sg43
Nssg241
I1351381581
sg35
VPT7M7.526128S
p5744
sa(dp5745
g32
VMedal
p5746
sg39
(dp5747
g41
VLiquid Eco
p5748
sg43
Nssg241
I3261908037
sg35
VPT7M7.526128S
p5749
sa(dp5750
g38
I313138863
sg32
VWeaponDrop
p5751
sg180
I4
sg44
(lp5752
I1095363701
asg35
VPT7M7.5271287S
p5753
sg183
I0
sg184
VP0DT0H0M4.3667S
p5754
sg39
(dp5755
g41
VnV RayneHCS
p5756
sg43
Nssa(dp5757
g38
I4096745987
sg32
VWeaponDrop
p5758
sg180
I15
sg44
(lp5759
I2758383128
asg35
VPT7M7.5271287S
p5760
sg183
I11
sg184
VP0DT0H0M18.2167S
p5761
sg39
(dp5762
g41
VnV RayneHCS
p5763
sg43
Nssa(dp5764
g208
I4096745987
sg209
I00
sg210
I00
sg211
(dp5765
g41
VnV RayneHCS
p5766
sg43
Nssg214
(lp5767
I2758383128
asg216
I00
sg217
I01
sg218
I1
sg219
I0
sg220
I1
sg221
(dp5768
Vy
F-8.6773120000000006
sVx
F12.9379969
sVz
F3.1049666400000002
ssg223
(dp5769
Vy
F-9.6235959999999992
sVx
F14.3993673
sVz
F2.84848642
ssg225
I00
sg226
(dp5770
g41
VTL Spartan HCS
p5771
sg43
Nssg229
(lp5772
sg231
(lp5773
sg233
I01
sg35
VPT7M7.591119S
p5774
sg32
VDeath
p5775
sg236
I1
sa(dp5776
g32
VImpulse
p5777
sg39
(dp5778
g41
VnV RayneHCS
p5779
sg43
Nssg857
I3174430457
sg35
VPT7M7.5941239S
p5780
sa(dp5781
g32
VMedal
p5782
sg39
(dp5783
g41
VnV RayneHCS
p5784
sg43
Nssg241
I3653057799
sg35
VPT7M7.5951239S
p5785
sa(dp5786
g38
I2902827823
sg32
VWeaponDrop
p5787
sg180
I4
sg44
(lp5788
I2758383128
asg35
VPT7M7.5951239S
p5789
sg183
I4
sg184
VP0DT0H0M16.2000S
p5790
sg39
(dp5791
g41
VTL Spartan HCS
p5792
sg43
Nssa(dp5793
g38
I4096745987
sg32
VWeaponDrop
p5794
sg180
I14
sg44
(lp5795
I2758383128
asg35
VPT7M7.5951239S
p5796
sg183
I9
sg184
VP0DT0H0M32.7833S
p5797
sg39
(dp5798
g41
VTL Spartan HCS
p5799
sg43
Nssa(dp5800
g32
VMedal
p5801
sg39
(dp5802
g41
VTL StelluR
p5803
sg43
Nssg241
I2916014239
sg35
VPT7M8.6071228S
p5804
sa(dp5805
g32
VMedal
p5806
sg39
(dp5807
g41
VLiquid Eco
p5808
sg43
Nssg241
I2916014239
sg35
VPT7M10.2731258S
p5809
sa(dp5810
g208
I4096745987
sg209
I00
sg210
I00
sg211
(dp5811
g41
VLiquid Eco
p5812
sg43
Nssg214
(lp5813
I2758383128
asg216
I00
sg217
I01
sg218
I1
sg219
I0
sg220
I1
sg221
(dp5814
Vy
F-7.3691649999999997
sVx
F10.117502200000001
sVz
F4.2737280000000002
ssg223
(dp5815
Vy
F-3.2704925500000002
sVx
F-0.23749820899999999
sVz
F2.3754806500000001
ssg225
I00
sg226
(dp5816
g41
VnV Pistola HCS
p5817
sg43
Nssg229
(lp5818
sg231
(lp5819
(dp5820
g41
VTL StelluR
p5821
sg43
Nsasg233
I01
sg35
VPT7M12.2241033S
p5822
sg32
VDeath
p5823
sg236
I1
sa(dp5824
g32
VMedal
p5825
sg39
(dp5826
g41
VLiquid Eco
p5827
sg43
Nssg241
I3261908037
sg35
VPT7M12.225128S
p5828
sa(dp5829
g32
VMedal
p5830
sg39
(dp5831
g41
VLiquid Eco
p5832
sg43
Nssg241
I2078758684
sg35
VPT7M12.225128S
p5833
sa(dp5834
g38
I313138863
sg32
VWeaponDrop
p5835
sg180
I11
sg44
(lp5836
I1095363701
asg35
VPT7M12.2261052S
p5837
sg183
I8
sg184
VP0DT0H0M3.2000S
p5838
sg39
(dp5839
g41
VnV Pistola HCS
p5840
sg43
Nssa(dp5841
g38
I4096745987
sg32
VWeaponDrop
p5842
sg180
I0
sg44
(lp5843
I2758383128
asg35
VPT7M12.2261052S
p5844
sg183
I0
sg184
VP0DT0H0M2.6500S
p5845
sg39
(dp5846
g41
VnV Pistola HCS
p5847
sg43
Nssa(dp5848
g38
I313138863
sg39
(dp5849
g41
VnV eL ToWn
p5850
sg43
Nssg44
(lp5851
I1095363701
asg32
VWeaponPickup
p5852
sg35
VPT7M14.8411227S
p5853
sa(dp5854
g38
I4096745987
sg39
(dp5855
g41
VnV eL ToWn
p5856
sg43
Nssg44
(lp5857
I2758383128
asg32
VWeaponPickup
p5858
sg35
VPT7M14.8411227S
p5859
sa(dp5860
g32
VPlayerSpawn
p5861
sg39
(dp5862
g41
VnV eL ToWn
p5863
sg43
Nssg35
VPT7M14.8411227S
p5864
sa(dp5865
g38
I313138863
sg39
(dp5866
g41
VnV RayneHCS
p5867
sg43
Nssg44
(lp5868
I1095363701
asg32
VWeaponPickup
p5869
sg35
VPT7M15.5411052S
p5870
sa(dp5871
g38
I4096745987
sg39
(dp5872
g41
VnV RayneHCS
p5873
sg43
Nssg44
(lp5874
I2758383128
asg32
VWeaponPickup
p5875
sg35
VPT7M15.5411052S
p5876
sa(dp5877
g32
VPlayerSpawn
p5878
sg39
(dp5879
g41
VnV RayneHCS
p5880
sg43
Nssg35
VPT7M15.5411052S
p5881
sa(dp5882
g38
I313138863
sg39
(dp5883
g41
VTL Spartan HCS
p5884
sg43
Nssg44
(lp5885
I1095363701
asg32
VWeaponPickup
p5886
sg35
VPT7M15.6081045S
p5887
sa(dp5888
g38
I4096745987
sg39
(dp5889
g41
VTL Spartan HCS
p5890
sg43
Nssg44
(lp5891
I2758383128
asg32
VWeaponPickup
p5892
sg35
VPT7M15.6081045S
p5893
sa(dp5894
g32
VPlayerSpawn
p5895
sg39
(dp5896
g41
VTL Spartan HCS
p5897
sg43
Nssg35
VPT7M15.6081045S
p5898
sa(dp5899
g38
I313138863
sg32
VWeaponDrop
p5900
sg180
I0
sg44
(lp5901
I1095363701
asg35
VPT7M16.1391275S
p5902
sg183
I0
sg184
VP0DT0H0M4.0000S
p5903
sg39
(dp5904
g41
VLiquid Eco
p5905
sg43
Nssa(dp5906
g38
I2015271382
sg39
(dp5907
g41
VLiquid Eco
p5908
sg43
Nssg44
(lp5909
I2758383128
asg32
VWeaponPickup
p5910
sg35
VPT7M16.1391275S
p5911
sa(dp5912
g208
I313138863
sg209
I00
sg210
I01
sg211
(dp5913
g41
VnV Mikwen HCS
p5914
sg43
Nssg214
(lp5915
I1095363701
asg216
I00
sg217
I00
sg218
I1
sg219
I0
sg220
I1
sg221
(dp5916
Vy
F4.3464183800000002
sVx
F-7.2756433500000002
sVz
F1.2502334100000001
ssg223
(dp5917
Vy
F4.0256657599999999
sVx
F-7.40671444
sVz
F1.40119433
ssg225
I00
sg226
(dp5918
g41
VTL Danoxide
p5919
sg43
Nssg229
(lp5920
sg231
(lp5921
sg233
I00
sg35
VPT7M16.2081045S
p5922
sg32
VDeath
p5923
sg236
I1
sa(dp5924
g32
VMedal
p5925
sg39
(dp5926
g41
VnV Mikwen HCS
p5927
sg43
Nssg241
I250435527
sg35
VPT7M16.2091237S
p5928
sa(dp5929
g38
I313138863
sg32
VWeaponDrop
p5930
sg180
I5
sg44
(lp5931
I1095363701
asg35
VPT7M16.2091237S
p5932
sg183
I3
sg184
VP0DT0H0M6.4667S
p5933
sg39
(dp5934
g41
VTL Danoxide
p5935
sg43
Nssa(dp5936
g38
I313138863
sg32
VWeaponDrop
p5937
sg180
I0
sg44
(lp5938
I1095363701
asg35
VPT7M16.2091237S
p5939
sg183
I0
sg184
VP0DT0S
p5940
sg39
(dp5941
g41
VTL Danoxide
p5942
sg43
Nssa(dp5943
g38
I4096745987
sg32
VWeaponDrop
p5944
sg180
I6
sg44
(lp5945
I2758383128
asg35
VPT7M16.2101261S
p5946
sg183
I3
sg184
VP0DT0H0M6.3333S
p5947
sg39
(dp5948
g41
VTL Danoxide
p5949
sg43
Nssa(dp5950
g208
I313138863
sg209
I00
sg210
I01
sg211
(dp5951
g41
VTL Danoxide
p5952
sg43
Nssg214
(lp5953
I1095363701
asg216
I00
sg217
I00
sg218
I1
sg219
I0
sg220
I1
sg221
(dp5954
Vy
F4.0256657599999999
sVx
F-7.40671444
sVz
F1.6261943599999999
ssg223
(dp5955
Vy
F4.3464183800000002
sVx
F-7.2756433500000002
sVz
F1.2502334100000001
ssg225
I00
sg226
(dp5956
g41
VnV Mikwen HCS
p5957
sg43
Nssg229
(lp5958
sg231
(lp5959
(dp5960
g41
VTL StelluR
p5961
sg43
Nsasg233
I00
sg35
VPT7M16.2111282S
p5962
sg32
VDeath
p5963
sg236
I1
sa(dp5964
g32
VMedal
p5965
sg39
(dp5966
g41
VTL Danoxide
p5967
sg43
Nssg241
I2287626681
sg35
VPT7M16.2111282S
p5968
sa(dp5969
g38
I313138863
sg32
VWeaponDrop
p5970
sg180
I17
sg44
(lp5971
I1095363701
asg35
VPT7M16.2121254S
p5972
sg183
I8
sg184
VP0DT0H0M6.7500S
p5973
sg39
(dp5974
g41
VnV Mikwen HCS
p5975
sg43
Nssa(dp5976
g38
I313138863
sg32
VWeaponDrop
p5977
sg180
I0
sg44
(lp5978
I1095363701
asg35
VPT7M16.2121254S
p5979
sg183
I0
sg184
VP0DT0S
p5980
sg39
(dp5981
g41
VnV Mikwen HCS
p5982
sg43
Nssa(dp5983
g38
I4096745987
sg32
VWeaponDrop
p5984
sg180
I1
sg44
(lp5985
I2758383128
asg35
VPT7M16.2121254S
p5986
sg183
I1
sg184
VP0DT0H0M8.1333S
p5987
sg39
(dp5988
g41
VnV Mikwen HCS
p5989
sg43
Nssa(dp5990
g38
I313138863
sg39
(dp5991
g41
VnV Pistola HCS
p5992
sg43
Nssg44
(lp5993
I1095363701
asg32
VWeaponPickup
p5994
sg35
VPT7M20.2411247S
p5995
sa(dp5996
g38
I4096745987
sg39
(dp5997
g41
VnV Pistola HCS
p5998
sg43
Nssg44
(lp5999
I2758383128
asg32
VWeaponPickup
p6000
sg35
VPT7M20.2411247S
p6001
sa(dp6002
g32
VPlayerSpawn
p6003
sg39
(dp6004
g41
VnV Pistola HCS
p6005
sg43
Nssg35
VPT7M20.2411247S
p6006
sa(dp6007
g32
VRoundEnd
p6008
sg34
I0
sg35
VPT7M22.740103S
p6009
sassb.