ccopy_reg
_reconstructor
p1
(c__main__
match_breakdown
p2
c__builtin__
object
p3
NtRp4
(dp5
S'details'
p6
(dp7
VIsCompleteSetOfEvents
p8
I01
sVLinks
p9
(dp10
VUgcFilmManifest
p11
(dp12
VAuthenticationLifetimeExtensionSupported
p13
I00
sVQueryString
p14
V?view=film-manifest
p15
sVRetryPolicyId
p16
Vexponentialretry
p17
sVPath
p18
V/h5/films/e78b168d-402a-44b6-9bdd-184579e58e47
p19
sVAcknowledgementTypeId
p20
I0
sVAuthorityId
p21
Vugc
p22
sVTopicName
p23
V
ssVStatsMatchDetails
p24
(dp25
g13
I00
sg14
Nsg16
Vexponentialretry
p26
sg18
Vh5/custom/matches/e78b168d-402a-44b6-9bdd-184579e58e47
p27
sg20
I0
sg21
Vspartanstats
p28
sg23
V
sssVGameEvents
p29
(lp30
(dp31
VEventName
p32
VRoundStart
p33
sVRoundIndex
p34
I0
sVTimeSinceStart
p35
VPT0.1010034S
p36
sa(dp37
VWeaponStockId
p38
I313138863
sVPlayer
p39
(dp40
VGamertag
p41
VOG APG HCS
p42
sVXuid
p43
NssVWeaponAttachmentIds
p44
(lp45
I1095363701
asg32
VWeaponPickup
p46
sg35
VPT16.9133277S
p47
sa(dp48
g38
I4096745987
sg39
(dp49
g41
VOG APG HCS
p50
sg43
Nssg44
(lp51
I2758383128
asg32
VWeaponPickup
p52
sg35
VPT16.9143264S
p53
sa(dp54
g32
VPlayerSpawn
p55
sg39
(dp56
g41
VOG APG HCS
p57
sg43
Nssg35
VPT16.9143264S
p58
sa(dp59
g38
I313138863
sg39
(dp60
g41
VOG Str8 SickHCS
p61
sg43
Nssg44
(lp62
I1095363701
asg32
VWeaponPickup
p63
sg35
VPT16.9293262S
p64
sa(dp65
g38
I4096745987
sg39
(dp66
g41
VOG Str8 SickHCS
p67
sg43
Nssg44
(lp68
I2758383128
asg32
VWeaponPickup
p69
sg35
VPT16.9303268S
p70
sa(dp71
g32
VPlayerSpawn
p72
sg39
(dp73
g41
VOG Str8 SickHCS
p74
sg43
Nssg35
VPT16.9303268S
p75
sa(dp76
g38
I313138863
sg39
(dp77
g41
VOG ACE HCS
p78
sg43
Nssg44
(lp79
I1095363701
asg32
VWeaponPickup
p80
sg35
VPT16.946337S
p81
sa(dp82
g38
I4096745987
sg39
(dp83
g41
VOG ACE HCS
p84
sg43
Nssg44
(lp85
I2758383128
asg32
VWeaponPickup
p86
sg35
VPT16.946337S
p87
sa(dp88
g32
VPlayerSpawn
p89
sg39
(dp90
g41
VOG ACE HCS
p91
sg43
Nssg35
VPT16.946337S
p92
sa(dp93
g38
I313138863
sg39
(dp94
g41
VnV RayneHCS
p95
sg43
Nssg44
(lp96
I1095363701
asg32
VWeaponPickup
p97
sg35
VPT16.9633266S
p98
sa(dp99
g38
I4096745987
sg39
(dp100
g41
VnV RayneHCS
p101
sg43
Nssg44
(lp102
I2758383128
asg32
VWeaponPickup
p103
sg35
VPT16.9633266S
p104
sa(dp105
g32
VPlayerSpawn
p106
sg39
(dp107
g41
VnV RayneHCS
p108
sg43
Nssg35
VPT16.9633266S
p109
sa(dp110
g38
I313138863
sg39
(dp111
g41
VnV Mikwen HCS
p112
sg43
Nssg44
(lp113
I1095363701
asg32
VWeaponPickup
p114
sg35
VPT16.979327S
p115
sa(dp116
g38
I4096745987
sg39
(dp117
g41
VnV Mikwen HCS
p118
sg43
Nssg44
(lp119
I2758383128
asg32
VWeaponPickup
p120
sg35
VPT16.9803277S
p121
sa(dp122
g32
VPlayerSpawn
p123
sg39
(dp124
g41
VnV Mikwen HCS
p125
sg43
Nssg35
VPT16.9803277S
p126
sa(dp127
g38
I313138863
sg39
(dp128
g41
VnV Pistola HCS
p129
sg43
Nssg44
(lp130
I1095363701
asg32
VWeaponPickup
p131
sg35
VPT16.9963277S
p132
sa(dp133
g38
I4096745987
sg39
(dp134
g41
VnV Pistola HCS
p135
sg43
Nssg44
(lp136
I2758383128
asg32
VWeaponPickup
p137
sg35
VPT16.9963277S
p138
sa(dp139
g32
VPlayerSpawn
p140
sg39
(dp141
g41
VnV Pistola HCS
p142
sg43
Nssg35
VPT16.9963277S
p143
sa(dp144
g38
I313138863
sg39
(dp145
g41
VnV eL ToWn
p146
sg43
Nssg44
(lp147
I1095363701
asg32
VWeaponPickup
p148
sg35
VPT17.0133282S
p149
sa(dp150
g38
I4096745987
sg39
(dp151
g41
VnV eL ToWn
p152
sg43
Nssg44
(lp153
I2758383128
asg32
VWeaponPickup
p154
sg35
VPT17.0133282S
p155
sa(dp156
g32
VPlayerSpawn
p157
sg39
(dp158
g41
VnV eL ToWn
p159
sg43
Nssg35
VPT17.0133282S
p160
sa(dp161
g38
I313138863
sg39
(dp162
g41
VOG Maniac HCS
p163
sg43
Nssg44
(lp164
I1095363701
asg32
VWeaponPickup
p165
sg35
VPT17.0293282S
p166
sa(dp167
g38
I4096745987
sg39
(dp168
g41
VOG Maniac HCS
p169
sg43
Nssg44
(lp170
I2758383128
asg32
VWeaponPickup
p171
sg35
VPT17.0303286S
p172
sa(dp173
g32
VPlayerSpawn
p174
sg39
(dp175
g41
VOG Maniac HCS
p176
sg43
Nssg35
VPT17.0303286S
p177
sa(dp178
g38
I4096745987
sg32
VWeaponDrop
p179
sVShotsFired
p180
I0
sg44
(lp181
I2758383128
asg35
VPT18.5953569S
p182
sVShotsLanded
p183
I0
sVTimeWeaponActiveAsPrimary
p184
VP0DT0H0M0.2667S
p185
sg39
(dp186
g41
VOG Maniac HCS
p187
sg43
Nssa(dp188
g38
I523953283
sg39
(dp189
g41
VOG Maniac HCS
p190
sg43
Nssg44
(lp191
I1327094800
asg32
VWeaponPickup
p192
sg35
VPT18.5953569S
p193
sa(dp194
g38
I4096745987
sg32
VWeaponDrop
p195
sg180
I0
sg44
(lp196
I2758383128
asg35
VPT18.8283608S
p197
sg183
I0
sg184
VP0DT0H0M0.8333S
p198
sg39
(dp199
g41
VnV Mikwen HCS
p200
sg43
Nssa(dp201
g38
I523953283
sg39
(dp202
g41
VnV Mikwen HCS
p203
sg43
Nssg44
(lp204
I1327094800
asg32
VWeaponPickup
p205
sg35
VPT18.8283608S
p206
sa(dp207
g38
I2492868984
sg39
(dp208
g41
VnV RayneHCS
p209
sg43
Nssg44
(lp210
I2758383128
asg32
VWeaponPickup
p211
sg35
VPT22.4464324S
p212
sa(dp213
VKillerWeaponStockId
p214
I523953283
sVIsAssassination
p215
I00
sVIsMelee
p216
I00
sVKiller
p217
(dp218
g41
VnV Mikwen HCS
p219
sg43
NssVKillerWeaponAttachmentIds
p220
(lp221
I1327094800
asVIsGroundPound
p222
I00
sVIsWeapon
p223
I01
sVDeathDisposition
p224
I1
sVVictimStockId
p225
I0
sVVictimAgent
p226
I1
sVKillerWorldLocation
p227
(dp228
Vy
F6.496454
sVx
F-13.988534899999999
sVz
F2.2189638600000001
ssVVictimWorldLocation
p229
(dp230
Vy
F-2.2964193800000001
sVx
F4.5840625800000003
sVz
F2.4045777300000002
ssVIsShoulderBash
p231
I00
sVVictim
p232
(dp233
g41
VOG Str8 SickHCS
p234
sg43
NssVVictimAttachmentIds
p235
(lp236
sVAssistants
p237
(lp238
(dp239
g41
VnV Pistola HCS
p240
sg43
NsasVIsHeadshot
p241
I01
sg35
VPT23.1814464S
p242
sg32
VDeath
p243
sVKillerAgent
p244
I1
sa(dp245
g32
VImpulse
p246
sg39
(dp247
g41
VnV Mikwen HCS
p248
sg43
NssVImpulseId
p249
I2556889090
sg35
VPT23.1824461S
p250
sa(dp251
g32
VMedal
p252
sg39
(dp253
g41
VnV Mikwen HCS
p254
sg43
NssVMedalId
p255
I352859864
sg35
VPT23.1854466S
p256
sa(dp257
g32
VMedal
p258
sg39
(dp259
g41
VnV Mikwen HCS
p260
sg43
Nssg255
I3261908037
sg35
VPT23.1914468S
p261
sa(dp262
g32
VMedal
p263
sg39
(dp264
g41
VnV Mikwen HCS
p265
sg43
Nssg255
I3001183151
sg35
VPT23.1914468S
p266
sa(dp267
g38
I313138863
sg32
VWeaponDrop
p268
sg180
I0
sg44
(lp269
I1095363701
asg35
VPT23.1964467S
p270
sg183
I0
sg184
VP0DT0H0M1.0000S
p271
sg39
(dp272
g41
VOG Str8 SickHCS
p273
sg43
Nssa(dp274
g38
I4096745987
sg32
VWeaponDrop
p275
sg180
I3
sg44
(lp276
I2758383128
asg35
VPT23.1964467S
p277
sg183
I2
sg184
VP0DT0H0M5.2500S
p278
sg39
(dp279
g41
VOG Str8 SickHCS
p280
sg43
Nssa(dp281
g38
I2492868984
sg32
VWeaponDrop
p282
sg180
I0
sg44
(lp283
I2758383128
asg35
VPT23.6134542S
p284
sg183
I0
sg184
VP0DT0H0M1.0000S
p285
sg39
(dp286
g41
VnV RayneHCS
p287
sg43
Nssa(dp288
g214
I4096745987
sg215
I00
sg216
I00
sg217
(dp289
g41
VOG ACE HCS
p290
sg43
Nssg220
(lp291
I2758383128
asg222
I00
sg223
I01
sg224
I1
sg225
I0
sg226
I1
sg227
(dp292
Vy
F9.0722819999999995
sVx
F1.7239786399999999
sVz
F1.6000459199999999
ssg229
(dp293
Vy
F5.9490847599999999
sVx
F-14.0202236
sVz
F2.2639830000000001
ssg231
I00
sg232
(dp294
g41
VnV Mikwen HCS
p295
sg43
Nssg235
(lp296
sg237
(lp297
sg241
I01
sg35
VPT24.3464692S
p298
sg32
VDeath
p299
sg244
I1
sa(dp300
g32
VImpulse
p301
sg39
(dp302
g41
VOG ACE HCS
p303
sg43
Nssg249
I3174430457
sg35
VPT24.3474686S
p304
sa(dp305
g32
VMedal
p306
sg39
(dp307
g41
VOG Maniac HCS
p308
sg43
Nssg255
I824733727
sg35
VPT24.3484682S
p309
sa(dp310
g32
VMedal
p311
sg39
(dp312
g41
VOG ACE HCS
p313
sg43
Nssg255
I3653057799
sg35
VPT24.3484682S
p314
sa(dp315
g38
I313138863
sg32
VWeaponDrop
p316
sg180
I0
sg44
(lp317
I1095363701
asg35
VPT24.3494685S
p318
sg183
I0
sg184
VP0DT0H0M1.0167S
p319
sg39
(dp320
g41
VnV Mikwen HCS
p321
sg43
Nssa(dp322
g38
I523953283
sg32
VWeaponDrop
p323
sg180
I8
sg44
(lp324
I1327094800
asg35
VPT24.3494685S
p325
sg183
I6
sg184
VP0DT0H0M5.5167S
p326
sg39
(dp327
g41
VnV Mikwen HCS
p328
sg43
Nssa(dp329
g214
I313138863
sg215
I00
sg216
I00
sg217
(dp330
g41
VnV RayneHCS
p331
sg43
Nssg220
(lp332
I1095363701
asg222
I00
sg223
I01
sg224
I1
sg225
I0
sg226
I1
sg227
(dp333
Vy
F6.5335619999999999
sVx
F1.3062472300000001
sVz
F1.938458
ssg229
(dp334
Vy
F6.1366069999999997
sVx
F-0.69056516899999998
sVz
F2.21422052
ssg231
I00
sg232
(dp335
g41
VOG ACE HCS
p336
sg43
Nssg235
(lp337
sg237
(lp338
(dp339
g41
VnV eL ToWn
p340
sg43
Nsasg241
I00
sg35
VPT27.8128931S
p341
sg32
VDeath
p342
sg244
I1
sa(dp343
g38
I313138863
sg32
VWeaponDrop
p344
sg180
I6
sg44
(lp345
I1095363701
asg35
VPT27.8155352S
p346
sg183
I6
sg184
VP0DT0H0M2.6167S
p347
sg39
(dp348
g41
VOG ACE HCS
p349
sg43
Nssa(dp350
g38
I4096745987
sg32
VWeaponDrop
p351
sg180
I10
sg44
(lp352
I2758383128
asg35
VPT27.8155352S
p353
sg183
I5
sg184
VP0DT0H0M8.2500S
p354
sg39
(dp355
g41
VOG ACE HCS
p356
sg43
Nssa(dp357
g214
I523953283
sg215
I00
sg216
I00
sg217
(dp358
g41
VOG Maniac HCS
p359
sg43
Nssg220
(lp360
I1327094800
asg222
I00
sg223
I01
sg224
I1
sg225
I0
sg226
I1
sg227
(dp361
Vy
F-2.6807029999999998
sVx
F5.8498625799999999
sVz
F2.4000219999999999
ssg229
(dp362
Vy
F2.8792903399999998
sVx
F-6.7062225299999998
sVz
F2.4173724700000001
ssg231
I00
sg232
(dp363
g41
VnV Pistola HCS
p364
sg43
Nssg235
(lp365
sg237
(lp366
(dp367
g41
VOG Str8 SickHCS
p368
sg43
Nsasg241
I00
sg35
VPT27.9965382S
p369
sg32
VDeath
p370
sg244
I1
sa(dp371
g38
I313138863
sg32
VWeaponDrop
p372
sg180
I0
sg44
(lp373
I1095363701
asg35
VPT27.9975383S
p374
sg183
I0
sg184
VP0DT0H0M1.0667S
p375
sg39
(dp376
g41
VnV Pistola HCS
p377
sg43
Nssa(dp378
g38
I4096745987
sg32
VWeaponDrop
p379
sg180
I4
sg44
(lp380
I2758383128
asg35
VPT27.9975383S
p381
sg183
I1
sg184
VP0DT0H0M9.9333S
p382
sg39
(dp383
g41
VnV Pistola HCS
p384
sg43
Nssa(dp385
g38
I313138863
sg32
VWeaponDrop
p386
sg180
I0
sg44
(lp387
I1095363701
asg35
VPT30.0945771S
p388
sg183
I0
sg184
VP0DT0H0M2.0000S
p389
sg39
(dp390
g41
VOG Maniac HCS
p391
sg43
Nssa(dp392
g38
I723523180
sg39
(dp393
g41
VOG Maniac HCS
p394
sg43
Nssg44
(lp395
I2758383128
asg32
VWeaponPickupPad
p396
sg35
VPT30.0945771S
p397
sa(dp398
g38
I723523180
sg39
(dp399
g41
VOG Maniac HCS
p400
sg43
Nssg44
(lp401
I2758383128
asg32
VWeaponPickup
p402
sg35
VPT30.0965791S
p403
sa(dp404
g38
I313138863
sg39
(dp405
g41
VOG Str8 SickHCS
p406
sg43
Nssg44
(lp407
I1095363701
asg32
VWeaponPickup
p408
sg35
VPT31.1966007S
p409
sa(dp410
g38
I4096745987
sg39
(dp411
g41
VOG Str8 SickHCS
p412
sg43
Nssg44
(lp413
I2758383128
asg32
VWeaponPickup
p414
sg35
VPT31.1966007S
p415
sa(dp416
g32
VPlayerSpawn
p417
sg39
(dp418
g41
VOG Str8 SickHCS
p419
sg43
Nssg35
VPT31.1966007S
p420
sa(dp421
g214
I313138863
sg215
I00
sg216
I00
sg217
(dp422
g41
VnV RayneHCS
p423
sg43
Nssg220
(lp424
I1095363701
asg222
I00
sg223
I01
sg224
I1
sg225
I0
sg226
I1
sg227
(dp425
Vy
F9.3959119999999992
sVx
F3.7890365099999999
sVz
F1.60000527
ssg229
(dp426
Vy
F12.136689199999999
sVx
F1.76445937
sVz
F2.0371224899999998
ssg231
I00
sg232
(dp427
g41
VOG APG HCS
p428
sg43
Nssg235
(lp429
sg237
(lp430
(dp431
g41
VnV eL ToWn
p432
sg43
Nsasg241
I00
sg35
VPT31.5786075S
p433
sg32
VDeath
p434
sg244
I1
sa(dp435
g32
VMedal
p436
sg39
(dp437
g41
VnV RayneHCS
p438
sg43
Nssg255
I2078758684
sg35
VPT31.5806076S
p439
sa(dp440
g38
I313138863
sg32
VWeaponDrop
p441
sg180
I15
sg44
(lp442
I1095363701
asg35
VPT31.5806076S
p443
sg183
I11
sg184
VP0DT0H0M3.2500S
p444
sg39
(dp445
g41
VOG APG HCS
p446
sg43
Nssa(dp447
g38
I4096745987
sg32
VWeaponDrop
p448
sg180
I16
sg44
(lp449
I2758383128
asg35
VPT31.5806076S
p450
sg183
I8
sg184
VP0DT0H0M11.4167S
p451
sg39
(dp452
g41
VOG APG HCS
p453
sg43
Nssa(dp454
g38
I313138863
sg39
(dp455
g41
VnV Mikwen HCS
p456
sg43
Nssg44
(lp457
I1095363701
asg32
VWeaponPickup
p458
sg35
VPT32.3626219S
p459
sa(dp460
g38
I4096745987
sg39
(dp461
g41
VnV Mikwen HCS
p462
sg43
Nssg44
(lp463
I2758383128
asg32
VWeaponPickup
p464
sg35
VPT32.3636232S
p465
sa(dp466
g32
VPlayerSpawn
p467
sg39
(dp468
g41
VnV Mikwen HCS
p469
sg43
Nssg35
VPT32.3636232S
p470
sa(dp471
g214
I723523180
sg215
I00
sg216
I00
sg217
(dp472
g41
VOG Maniac HCS
p473
sg43
Nssg220
(lp474
I2758383128
asg222
I00
sg223
I00
sg224
I2
sg225
I0
sg226
I0
sg227
(dp475
Vy
F4.93469143
sVx
F1.6900608500000001
sVz
F2.40126324
ssg229
(dp476
Vy
F12.085790599999999
sVx
F2.5092759999999998
sVz
F4.2754473700000002
ssg231
I00
sg232
(dp477
S'Gamertag'
p478
S'None'
p479
ssg235
(lp480
sg237
(lp481
sg241
I00
sg35
VPT33.0126352S
p482
sg32
VDeath
p483
sg244
I1
sa(dp484
g214
I723523180
sg215
I00
sg216
I00
sg217
(dp485
g41
VOG Maniac HCS
p486
sg43
Nssg220
(lp487
I2758383128
asg222
I00
sg223
I00
sg224
I2
sg225
I0
sg226
I0
sg227
(dp488
Vy
F4.93469143
sVx
F1.6900608500000001
sVz
F2.40126324
ssg229
(dp489
Vy
F12.23085
sVx
F1.8431682599999999
sVz
F4.2888545999999996
ssg231
I00
sg232
(dp490
g478
g479
ssg235
(lp491
sg237
(lp492
sg241
I00
sg35
VPT33.0126352S
p493
sg32
VDeath
p494
sg244
I1
sa(dp495
g214
I723523180
sg215
I00
sg216
I00
sg217
(dp496
g41
VOG Maniac HCS
p497
sg43
Nssg220
(lp498
I2758383128
asg222
I00
sg223
I00
sg224
I2
sg225
I0
sg226
I0
sg227
(dp499
Vy
F4.93469143
sVx
F1.6900608500000001
sVz
F2.40126324
ssg229
(dp500
Vy
F12.4028177
sVx
F1.6508557800000001
sVz
F4.2749676699999997
ssg231
I00
sg232
(dp501
g478
g479
ssg235
(lp502
sg237
(lp503
sg241
I00
sg35
VPT33.0126352S
p504
sg32
VDeath
p505
sg244
I1
sa(dp506
g214
I723523180
sg215
I00
sg216
I00
sg217
(dp507
g41
VOG Maniac HCS
p508
sg43
Nssg220
(lp509
I2758383128
asg222
I00
sg223
I01
sg224
I1
sg225
I0
sg226
I1
sg227
(dp510
Vy
F4.93469143
sVx
F1.6900608500000001
sVz
F2.40126324
ssg229
(dp511
Vy
F12.2218885
sVx
F1.5525146700000001
sVz
F1.5999140700000001
ssg231
I00
sg232
(dp512
g41
VnV eL ToWn
p513
sg43
Nssg235
(lp514
sg237
(lp515
sg241
I00
sg35
VPT33.0126352S
p516
sg32
VDeath
p517
sg244
I1
sa(dp518
g38
I313138863
sg32
VWeaponDrop
p519
sg180
I12
sg44
(lp520
I1095363701
asg35
VPT33.0146353S
p521
sg183
I8
sg184
VP0DT0H0M3.8500S
p522
sg39
(dp523
g41
VnV eL ToWn
p524
sg43
Nssa(dp525
g38
I313138863
sg32
VWeaponDrop
p526
sg180
I0
sg44
(lp527
I1095363701
asg35
VPT33.0146353S
p528
sg183
I0
sg184
VP0DT0S
p529
sg39
(dp530
g41
VnV eL ToWn
p531
sg43
Nssa(dp532
g38
I4096745987
sg32
VWeaponDrop
p533
sg180
I10
sg44
(lp534
I2758383128
asg35
VPT33.0146353S
p535
sg183
I2
sg184
VP0DT0H0M12.1500S
p536
sg39
(dp537
g41
VnV eL ToWn
p538
sg43
Nssa(dp539
g38
I313138863
sg39
(dp540
g41
VOG ACE HCS
p541
sg43
Nssg44
(lp542
I1095363701
asg32
VWeaponPickup
p543
sg35
VPT35.8296895S
p544
sa(dp545
g38
I4096745987
sg39
(dp546
g41
VOG ACE HCS
p547
sg43
Nssg44
(lp548
I2758383128
asg32
VWeaponPickup
p549
sg35
VPT35.8296895S
p550
sa(dp551
g32
VPlayerSpawn
p552
sg39
(dp553
g41
VOG ACE HCS
p554
sg43
Nssg35
VPT35.8296895S
p555
sa(dp556
g38
I313138863
sg39
(dp557
g41
VnV Pistola HCS
p558
sg43
Nssg44
(lp559
I1095363701
asg32
VWeaponPickup
p560
sg35
VPT36.0126933S
p561
sa(dp562
g38
I4096745987
sg39
(dp563
g41
VnV Pistola HCS
p564
sg43
Nssg44
(lp565
I2758383128
asg32
VWeaponPickup
p566
sg35
VPT36.0136988S
p567
sa(dp568
g32
VPlayerSpawn
p569
sg39
(dp570
g41
VnV Pistola HCS
p571
sg43
Nssg35
VPT36.0136988S
p572
sa(dp573
g38
I313138863
sg32
VWeaponDrop
p574
sg180
I0
sg44
(lp575
I1095363701
asg35
VPT36.3446999S
p576
sg183
I0
sg184
VP0DT0H0M1.4167S
p577
sg39
(dp578
g41
VOG Str8 SickHCS
p579
sg43
Nssa(dp580
g38
I2015271382
sg39
(dp581
g41
VOG Str8 SickHCS
p582
sg43
Nssg44
(lp583
I2758383128
asg32
VWeaponPickup
p584
sg35
VPT36.3446999S
p585
sa(dp586
g38
I4096745987
sg32
VWeaponDrop
p587
sg180
I0
sg44
(lp588
I2758383128
asg35
VPT38.3277351S
p589
sg183
I0
sg184
VP0DT0H0M1.2333S
p590
sg39
(dp591
g41
VnV Pistola HCS
p592
sg43
Nssa(dp593
g38
I523953283
sg39
(dp594
g41
VnV Pistola HCS
p595
sg43
Nssg44
(lp596
I1327094800
asg32
VWeaponPickup
p597
sg35
VPT38.3277351S
p598
sa(dp599
g38
I313138863
sg39
(dp600
g41
VOG APG HCS
p601
sg43
Nssg44
(lp602
I1095363701
asg32
VWeaponPickup
p603
sg35
VPT39.5967618S
p604
sa(dp605
g38
I4096745987
sg39
(dp606
g41
VOG APG HCS
p607
sg43
Nssg44
(lp608
I2758383128
asg32
VWeaponPickup
p609
sg35
VPT39.5967618S
p610
sa(dp611
g32
VPlayerSpawn
p612
sg39
(dp613
g41
VOG APG HCS
p614
sg43
Nssg35
VPT39.5967618S
p615
sa(dp616
g214
I4096745987
sg215
I00
sg216
I00
sg217
(dp617
g41
VOG Str8 SickHCS
p618
sg43
Nssg220
(lp619
I2758383128
asg222
I00
sg223
I01
sg224
I1
sg225
I0
sg226
I1
sg227
(dp620
Vy
F6.1697835899999998
sVx
F11.881729099999999
sVz
F1.60000527
ssg229
(dp621
Vy
F12.0670986
sVx
F7.6351356499999996
sVz
F1.60002756
ssg231
I00
sg232
(dp622
g41
VnV RayneHCS
p623
sg43
Nssg235
(lp624
sg237
(lp625
sg241
I01
sg35
VPT39.5977615S
p626
sg32
VDeath
p627
sg244
I1
sa(dp628
g32
VImpulse
p629
sg39
(dp630
g41
VOG Str8 SickHCS
p631
sg43
Nssg249
I3174430457
sg35
VPT39.599761S
p632
sa(dp633
g32
VMedal
p634
sg39
(dp635
g41
VOG Str8 SickHCS
p636
sg43
Nssg255
I3653057799
sg35
VPT39.599761S
p637
sa(dp638
g38
I313138863
sg32
VWeaponDrop
p639
sg180
I32
sg44
(lp640
I1095363701
asg35
VPT39.6007609S
p641
sg183
I11
sg184
VP0DT0H0M14.1000S
p642
sg39
(dp643
g41
VnV RayneHCS
p644
sg43
Nssa(dp645
g38
I4096745987
sg32
VWeaponDrop
p646
sg180
I6
sg44
(lp647
I2758383128
asg35
VPT39.6007609S
p648
sg183
I2
sg184
VP0DT0H0M7.5167S
p649
sg39
(dp650
g41
VnV RayneHCS
p651
sg43
Nssa(dp652
g38
I313138863
sg39
(dp653
g41
VnV eL ToWn
p654
sg43
Nssg44
(lp655
I1095363701
asg32
VWeaponPickup
p656
sg35
VPT41.0297895S
p657
sa(dp658
g38
I4096745987
sg39
(dp659
g41
VnV eL ToWn
p660
sg43
Nssg44
(lp661
I2758383128
asg32
VWeaponPickup
p662
sg35
VPT41.0313449S
p663
sa(dp664
g32
VPlayerSpawn
p665
sg39
(dp666
g41
VnV eL ToWn
p667
sg43
Nssg35
VPT41.0313449S
p668
sa(dp669
g38
I4096745987
sg32
VWeaponDrop
p670
sg180
I0
sg44
(lp671
I2758383128
asg35
VPT43.2778303S
p672
sg183
I0
sg184
VP0DT0H0M1.2833S
p673
sg39
(dp674
g41
VnV eL ToWn
p675
sg43
Nssa(dp676
g38
I523953283
sg39
(dp677
g41
VnV eL ToWn
p678
sg43
Nssg44
(lp679
I1327094800
asg32
VWeaponPickup
p680
sg35
VPT43.2778303S
p681
sa(dp682
g214
I4106030681
sg215
I00
sg216
I00
sg217
(dp683
g41
VOG ACE HCS
p684
sg43
Nssg220
(lp685
sg222
I00
sg223
I00
sg224
I2
sg225
I0
sg226
I0
sg227
(dp686
Vy
F2.773444
sVx
F2.6017603899999999
sVz
F2.40126324
ssg229
(dp687
Vy
F10.6391945
sVx
F-17.3030586
sVz
F4.2083306299999999
ssg231
I00
sg232
(dp688
g478
g479
ssg235
(lp689
sg237
(lp690
sg241
I00
sg35
VPT45.2618698S
p691
sg32
VDeath
p692
sg244
I1
sa(dp693
g214
I4106030681
sg215
I00
sg216
I00
sg217
(dp694
g41
VOG ACE HCS
p695
sg43
Nssg220
(lp696
sg222
I00
sg223
I00
sg224
I2
sg225
I0
sg226
I0
sg227
(dp697
Vy
F2.773444
sVx
F2.6017603899999999
sVz
F2.40126324
ssg229
(dp698
Vy
F10.779437100000001
sVx
F-16.316757200000001
sVz
F4.2661420000000003
ssg231
I00
sg232
(dp699
g478
g479
ssg235
(lp700
sg237
(lp701
sg241
I00
sg35
VPT45.2618698S
p702
sg32
VDeath
p703
sg244
I1
sa(dp704
g214
I4106030681
sg215
I00
sg216
I00
sg217
(dp705
g41
VOG ACE HCS
p706
sg43
Nssg220
(lp707
sg222
I00
sg223
I00
sg224
I2
sg225
I0
sg226
I0
sg227
(dp708
Vy
F2.773444
sVx
F2.6017603899999999
sVz
F2.40126324
ssg229
(dp709
Vy
F10.074153900000001
sVx
F-15.555494299999999
sVz
F5.0750374799999998
ssg231
I00
sg232
(dp710
g478
g479
ssg235
(lp711
sg237
(lp712
sg241
I00
sg35
VPT45.2618698S
p713
sg32
VDeath
p714
sg244
I1
sa(dp715
g214
I4106030681
sg215
I00
sg216
I00
sg217
(dp716
g41
VOG ACE HCS
p717
sg43
Nssg220
(lp718
sg222
I00
sg223
I00
sg224
I2
sg225
I0
sg226
I0
sg227
(dp719
Vy
F2.773444
sVx
F2.6017603899999999
sVz
F2.40126324
ssg229
(dp720
Vy
F10.096530899999999
sVx
F-14.2675362
sVz
F2.8798963999999998
ssg231
I00
sg232
(dp721
g478
g479
ssg235
(lp722
sg237
(lp723
sg241
I00
sg35
VPT45.2618698S
p724
sg32
VDeath
p725
sg244
I1
sa(dp726
g38
I2015271382
sg32
VWeaponDrop
p727
sg180
I0
sg44
(lp728
I2758383128
asg35
VPT46.144887S
p729
sg183
I0
sg184
VP0DT0H0M1.5000S
p730
sg39
(dp731
g41
VOG Str8 SickHCS
p732
sg43
Nssa(dp733
g38
I3484334713
sg39
(dp734
g41
VOG Str8 SickHCS
p735
sg43
Nssg44
(lp736
I2758383128
asg32
VWeaponPickup
p737
sg35
VPT46.144887S
p738
sa(dp739
g38
I313138863
sg39
(dp740
g41
VnV RayneHCS
p741
sg43
Nssg44
(lp742
I1095363701
asg32
VWeaponPickup
p743
sg35
VPT47.6129149S
p744
sa(dp745
g38
I4096745987
sg39
(dp746
g41
VnV RayneHCS
p747
sg43
Nssg44
(lp748
I2758383128
asg32
VWeaponPickup
p749
sg35
VPT47.6129149S
p750
sa(dp751
g32
VPlayerSpawn
p752
sg39
(dp753
g41
VnV RayneHCS
p754
sg43
Nssg35
VPT47.6129149S
p755
sa(dp756
g214
I4096745987
sg215
I00
sg216
I00
sg217
(dp757
g41
VnV Mikwen HCS
p758
sg43
Nssg220
(lp759
I2758383128
asg222
I00
sg223
I01
sg224
I1
sg225
I0
sg226
I1
sg227
(dp760
Vy
F-1.3260372899999999
sVx
F-7.3545189999999998
sVz
F0.91399395500000002
ssg229
(dp761
Vy
F-10.3294821
sVx
F-13.040558799999999
sVz
F0.82133339999999999
ssg231
I00
sg232
(dp762
g41
VOG APG HCS
p763
sg43
Nssg235
(lp764
sg237
(lp765
(dp766
g41
VnV eL ToWn
p767
sg43
Nsasg241
I01
sg35
VPT48.8119483S
p768
sg32
VDeath
p769
sg244
I1
sa(dp770
g32
VMedal
p771
sg39
(dp772
g41
VnV Mikwen HCS
p773
sg43
Nssg255
I3261908037
sg35
VPT48.8139381S
p774
sa(dp775
g38
I313138863
sg32
VWeaponDrop
p776
sg180
I0
sg44
(lp777
I1095363701
asg35
VPT48.8139381S
p778
sg183
I0
sg184
VP0DT0H0M1.1667S
p779
sg39
(dp780
g41
VOG APG HCS
p781
sg43
Nssa(dp782
g38
I4096745987
sg32
VWeaponDrop
p783
sg180
I5
sg44
(lp784
I2758383128
asg35
VPT48.8139381S
p785
sg183
I3
sg184
VP0DT0H0M8.0500S
p786
sg39
(dp787
g41
VOG APG HCS
p788
sg43
Nssa(dp789
g214
I3484334713
sg215
I00
sg216
I00
sg217
(dp790
g41
VOG Str8 SickHCS
p791
sg43
Nssg220
(lp792
I2758383128
asg222
I00
sg223
I01
sg224
I1
sg225
I0
sg226
I1
sg227
(dp793
Vy
F13.9808874
sVx
F-7.1179556799999997
sVz
F2.3439297699999999
ssg229
(dp794
Vy
F14.6455574
sVx
F-4.5791750000000002
sVz
F2.72705317
ssg231
I00
sg232
(dp795
g41
VnV Pistola HCS
p796
sg43
Nssg235
(lp797
sg237
(lp798
(dp799
g41
VOG ACE HCS
p800
sg43
Nsasg241
I00
sg35
VPT50.3969687S
p801
sg32
VDeath
p802
sg244
I1
sa(dp803
g38
I313138863
sg32
VWeaponDrop
p804
sg180
I4
sg44
(lp805
I1095363701
asg35
VPT50.3979687S
p806
sg183
I4
sg184
VP0DT0H0M2.8500S
p807
sg39
(dp808
g41
VnV Pistola HCS
p809
sg43
Nssa(dp810
g38
I523953283
sg32
VWeaponDrop
p811
sg180
I5
sg44
(lp812
I1327094800
asg35
VPT50.3979687S
p813
sg183
I2
sg184
VP0DT0H0M10.3000S
p814
sg39
(dp815
g41
VnV Pistola HCS
p816
sg43
Nssa(dp817
g32
VMedal
p818
sg39
(dp819
g41
VOG Str8 SickHCS
p820
sg43
Nssg255
I3400287617
sg35
VPT54.6110483S
p821
sa(dp822
g38
I313138863
sg39
(dp823
g41
VOG APG HCS
p824
sg43
Nssg44
(lp825
I1095363701
asg32
VWeaponPickup
p826
sg35
VPT56.8290919S
p827
sa(dp828
g38
I4096745987
sg39
(dp829
g41
VOG APG HCS
p830
sg43
Nssg44
(lp831
I2758383128
asg32
VWeaponPickup
p832
sg35
VPT56.8290919S
p833
sa(dp834
g32
VPlayerSpawn
p835
sg39
(dp836
g41
VOG APG HCS
p837
sg43
Nssg35
VPT56.8290919S
p838
sa(dp839
g214
I723523180
sg215
I00
sg216
I00
sg217
(dp840
g41
VOG Maniac HCS
p841
sg43
Nssg220
(lp842
I2758383128
asg222
I00
sg223
I01
sg224
I1
sg225
I0
sg226
I1
sg227
(dp843
Vy
F7.5502004600000001
sVx
F-6.6233882900000003
sVz
F2.5175197100000002
ssg229
(dp844
Vy
F9.5430250000000001
sVx
F-12.7031536
sVz
F2.1065866899999999
ssg231
I00
sg232
(dp845
g41
VnV Mikwen HCS
p846
sg43
Nssg235
(lp847
sg237
(lp848
(dp849
g41
VOG ACE HCS
p850
sg43
Nsasg241
I00
sg35
VPT58.2281189S
p851
sg32
VDeath
p852
sg244
I1
sa(dp853
g38
I313138863
sg32
VWeaponDrop
p854
sg180
I0
sg44
(lp855
I1095363701
asg35
VPT58.2301193S
p856
sg183
I0
sg184
VP0DT0H0M0.9667S
p857
sg39
(dp858
g41
VnV Mikwen HCS
p859
sg43
Nssa(dp860
g38
I4096745987
sg32
VWeaponDrop
p861
sg180
I12
sg44
(lp862
I2758383128
asg35
VPT58.2301193S
p863
sg183
I8
sg184
VP0DT0H0M24.9000S
p864
sg39
(dp865
g41
VnV Mikwen HCS
p866
sg43
Nssa(dp867
g38
I313138863
sg39
(dp868
g41
VnV Pistola HCS
p869
sg43
Nssg44
(lp870
I1095363701
asg32
VWeaponPickup
p871
sg35
VPT58.4121229S
p872
sa(dp873
g38
I4096745987
sg39
(dp874
g41
VnV Pistola HCS
p875
sg43
Nssg44
(lp876
I2758383128
asg32
VWeaponPickup
p877
sg35
VPT58.4131234S
p878
sa(dp879
g32
VPlayerSpawn
p880
sg39
(dp881
g41
VnV Pistola HCS
p882
sg43
Nssg35
VPT58.4131234S
p883
sa(dp884
g38
I313138863
sg32
VWeaponDrop
p885
sg180
I0
sg44
(lp886
I1095363701
asg35
VPT1M2.7112046S
p887
sg183
I0
sg184
VP0DT0H0M1.9000S
p888
sg39
(dp889
g41
VOG ACE HCS
p890
sg43
Nssa(dp891
g38
I2015271382
sg39
(dp892
g41
VOG ACE HCS
p893
sg43
Nssg44
(lp894
I2758383128
asg32
VWeaponPickup
p895
sg35
VPT1M2.7112046S
p896
sa(dp897
g38
I313138863
sg32
VWeaponDrop
p898
sg180
I0
sg44
(lp899
I1095363701
asg35
VPT1M3.5272194S
p900
sg183
I0
sg184
VP0DT0H0M1.0000S
p901
sg39
(dp902
g41
VOG APG HCS
p903
sg43
Nssa(dp904
g38
I2015271382
sg39
(dp905
g41
VOG APG HCS
p906
sg43
Nssg44
(lp907
I2758383128
asg32
VWeaponPickup
p908
sg35
VPT1M3.5272194S
p909
sa(dp910
g214
I4106030681
sg215
I00
sg216
I00
sg217
(dp911
g41
VOG Str8 SickHCS
p912
sg43
Nssg220
(lp913
sg222
I00
sg223
I00
sg224
I2
sg225
I0
sg226
I0
sg227
(dp914
Vy
F8.5959249999999994
sVx
F-11.70349
sVz
F2.3489103299999998
ssg229
(dp915
Vy
F-3.6610939999999998
sVx
F-17.025602299999999
sVz
F5.2405905700000002
ssg231
I00
sg232
(dp916
g478
g479
ssg235
(lp917
sg237
(lp918
sg241
I00
sg35
VPT1M3.9452293S
p919
sg32
VDeath
p920
sg244
I1
sa(dp921
g214
I4106030681
sg215
I00
sg216
I00
sg217
(dp922
g41
VOG Str8 SickHCS
p923
sg43
Nssg220
(lp924
sg222
I00
sg223
I00
sg224
I2
sg225
I0
sg226
I0
sg227
(dp925
Vy
F8.5959249999999994
sVx
F-11.70349
sVz
F2.3489103299999998
ssg229
(dp926
Vy
F-3.6840815500000001
sVx
F-16.589031200000001
sVz
F5.3283615099999997
ssg231
I00
sg232
(dp927
g478
g479
ssg235
(lp928
sg237
(lp929
sg241
I00
sg35
VPT1M3.9452293S
p930
sg32
VDeath
p931
sg244
I1
sa(dp932
g38
I313138863
sg39
(dp933
g41
VnV Mikwen HCS
p934
sg43
Nssg44
(lp935
I1095363701
asg32
VWeaponPickup
p936
sg35
VPT1M6.2452737S
p937
sa(dp938
g38
I4096745987
sg39
(dp939
g41
VnV Mikwen HCS
p940
sg43
Nssg44
(lp941
I2758383128
asg32
VWeaponPickup
p942
sg35
VPT1M6.2462736S
p943
sa(dp944
g32
VPlayerSpawn
p945
sg39
(dp946
g41
VnV Mikwen HCS
p947
sg43
Nssg35
VPT1M6.2462736S
p948
sa(dp949
g214
I4106030681
sg215
I00
sg216
I00
sg217
(dp950
g41
VnV RayneHCS
p951
sg43
Nssg220
(lp952
sg222
I00
sg223
I00
sg224
I2
sg225
I0
sg226
I0
sg227
(dp953
Vy
F-7.7296314199999996
sVx
F-14.1153183
sVz
F0.17727381
ssg229
(dp954
Vy
F3.3304841500000002
sVx
F-16.45392
sVz
F5.2810899999999998
ssg231
I00
sg232
(dp955
g478
g479
ssg235
(lp956
sg237
(lp957
sg241
I00
sg35
VPT1M9.7783412S
p958
sg32
VDeath
p959
sg244
I1
sa(dp960
g214
I523953283
sg215
I00
sg216
I00
sg217
(dp961
g41
VOG Maniac HCS
p962
sg43
Nssg220
(lp963
I1327094800
asg222
I00
sg223
I01
sg224
I1
sg225
I0
sg226
I1
sg227
(dp964
Vy
F-0.28152006899999998
sVx
F-19.941638900000001
sVz
F2.3022499999999999
ssg229
(dp965
Vy
F-5.8793579999999999
sVx
F-20.154254900000002
sVz
F2.5504751200000002
ssg231
I00
sg232
(dp966
g41
VnV Pistola HCS
p967
sg43
Nssg235
(lp968
sg237
(lp969
(dp970
g41
VOG Str8 SickHCS
p971
sg43
Nsasg241
I01
sg35
VPT1M11.0453656S
p972
sg32
VDeath
p973
sg244
I1
sa(dp974
g32
VMedal
p975
sg39
(dp976
g41
VOG Maniac HCS
p977
sg43
Nssg255
I3261908037
sg35
VPT1M11.0473647S
p978
sa(dp979
g38
I313138863
sg32
VWeaponDrop
p980
sg180
I0
sg44
(lp981
I1095363701
asg35
VPT1M11.0473647S
p982
sg183
I0
sg184
VP0DT0H0M0.7500S
p983
sg39
(dp984
g41
VnV Pistola HCS
p985
sg43
Nssa(dp986
g38
I4096745987
sg32
VWeaponDrop
p987
sg180
I9
sg44
(lp988
I2758383128
asg35
VPT1M11.0473647S
p989
sg183
I6
sg184
VP0DT0H0M11.8833S
p990
sg39
(dp991
g41
VnV Pistola HCS
p992
sg43
Nssa(dp993
g214
I4096745987
sg215
I00
sg216
I00
sg217
(dp994
g41
VnV Pistola HCS
p995
sg43
Nssg220
(lp996
I2758383128
asg222
I00
sg223
I01
sg224
I1
sg225
I0
sg226
I1
sg227
(dp997
Vy
F-5.89548731
sVx
F-20.1542511
sVz
F2.5389077699999998
ssg229
(dp998
Vy
F-0.27451875799999997
sVx
F-19.960570000000001
sVz
F2.30380845
ssg231
I00
sg232
(dp999
g41
VOG Maniac HCS
p1000
sg43
Nssg235
(lp1001
sg237
(lp1002
sg241
I01
sg35
VPT1M11.0623659S
p1003
sg32
VDeath
p1004
sg244
I1
sa(dp1005
g32
VMedal
p1006
sg39
(dp1007
g41
VnV Pistola HCS
p1008
sg43
Nssg255
I164204247
sg35
VPT1M11.0643647S
p1009
sa(dp1010
g32
VMedal
p1011
sg39
(dp1012
g41
VnV Pistola HCS
p1013
sg43
Nssg255
I3261908037
sg35
VPT1M11.0643647S
p1014
sa(dp1015
g38
I723523180
sg32
VWeaponDrop
p1016
sg180
I4
sg44
(lp1017
I2758383128
asg35
VPT1M11.0653658S
p1018
sg183
I4
sg184
VP0DT0H0M20.5833S
p1019
sg39
(dp1020
g41
VOG Maniac HCS
p1021
sg43
Nssa(dp1022
g38
I523953283
sg32
VWeaponDrop
p1023
sg180
I16
sg44
(lp1024
I1327094800
asg35
VPT1M11.0653658S
p1025
sg183
I8
sg184
VP0DT0H0M31.1833S
p1026
sg39
(dp1027
g41
VOG Maniac HCS
p1028
sg43
Nssa(dp1029
g214
I2460880172
sg215
I00
sg216
I00
sg217
(dp1030
g41
VOG Str8 SickHCS
p1031
sg43
Nssg220
(lp1032
sg222
I00
sg223
I00
sg224
I2
sg225
I0
sg226
I0
sg227
(dp1033
Vy
F2.3382565999999998
sVx
F-19.3070354
sVz
F3.055091
ssg229
(dp1034
Vy
F-3.9771411400000001
sVx
F-14.8650494
sVz
F5.439819
ssg231
I00
sg232
(dp1035
g478
g479
ssg235
(lp1036
sg237
(lp1037
sg241
I00
sg35
VPT1M11.3453716S
p1038
sg32
VDeath
p1039
sg244
I1
sa(dp1040
g214
I2015271382
sg215
I00
sg216
I01
sg217
(dp1041
g41
VOG APG HCS
p1042
sg43
Nssg220
(lp1043
I2758383128
asg222
I00
sg223
I00
sg224
I1
sg225
I0
sg226
I1
sg227
(dp1044
Vy
F-8.4107319999999994
sVx
F-1.7120340000000001
sVz
F2.4056508499999998
ssg229
(dp1045
Vy
F-8.5968210000000003
sVx
F-1.99957824
sVz
F2.4012630000000001
ssg231
I00
sg232
(dp1046
g41
VnV Mikwen HCS
p1047
sg43
Nssg235
(lp1048
sg237
(lp1049
sg241
I00
sg35
VPT1M11.4783735S
p1050
sg32
VDeath
p1051
sg244
I1
sa(dp1052
g32
VMedal
p1053
sg39
(dp1054
g41
VOG APG HCS
p1055
sg43
Nssg255
I2287626681
sg35
VPT1M11.4793732S
p1056
sa(dp1057
g38
I4096745987
sg32
VWeaponDrop
p1058
sg180
I1
sg44
(lp1059
I2758383128
asg35
VPT1M11.4803733S
p1060
sg183
I1
sg184
VP0DT0H0M4.5000S
p1061
sg39
(dp1062
g41
VnV Mikwen HCS
p1063
sg43
Nssa(dp1064
g38
I313138863
sg32
VWeaponDrop
p1065
sg180
I0
sg44
(lp1066
I1095363701
asg35
VPT1M11.4815014S
p1067
sg183
I0
sg184
VP0DT0H0M0.7333S
p1068
sg39
(dp1069
g41
VnV Mikwen HCS
p1070
sg43
Nssa(dp1071
g38
I2244200496
sg39
(dp1072
g41
VOG Str8 SickHCS
p1073
sg43
Nssg44
(lp1074
I2758383128
asg32
VWeaponPickup
p1075
sg35
VPT1M13.7444165S
p1076
sa(dp1077
g32
VImpulse
p1078
sg39
(dp1079
g41
VOG Str8 SickHCS
p1080
sg43
Nssg249
I4191318012
sg35
VPT1M13.7684212S
p1081
sa(dp1082
g32
VImpulse
p1083
sg39
(dp1084
g41
VOG Str8 SickHCS
p1085
sg43
Nssg249
I1039658009
sg35
VPT1M13.7684212S
p1086
sa(dp1087
g214
I4106030681
sg215
I00
sg216
I00
sg217
(dp1088
g41
VnV RayneHCS
p1089
sg43
Nssg220
(lp1090
sg222
I00
sg223
I00
sg224
I2
sg225
I0
sg226
I0
sg227
(dp1091
Vy
F-5.0190177
sVx
F-18.385547599999999
sVz
F1.57412577
ssg229
(dp1092
Vy
F0.96706080000000005
sVx
F-19.551042599999999
sVz
F5.7200384099999999
ssg231
I00
sg232
(dp1093
g478
g479
ssg235
(lp1094
sg237
(lp1095
sg241
I00
sg35
VPT1M14.6444339S
p1096
sg32
VDeath
p1097
sg244
I1
sa(dp1098
g214
I4106030681
sg215
I00
sg216
I00
sg217
(dp1099
g41
VnV RayneHCS
p1100
sg43
Nssg220
(lp1101
sg222
I00
sg223
I00
sg224
I2
sg225
I0
sg226
I0
sg227
(dp1102
Vy
F-5.0190177
sVx
F-18.385547599999999
sVz
F1.57412577
ssg229
(dp1103
Vy
F0.44291585700000002
sVx
F-19.8603725
sVz
F5.7200384099999999
ssg231
I00
sg232
(dp1104
g478
g479
ssg235
(lp1105
sg237
(lp1106
sg241
I00
sg35
VPT1M14.6444339S
p1107
sg32
VDeath
p1108
sg244
I1
sa(dp1109
g214
I4106030681
sg215
I00
sg216
I00
sg217
(dp1110
g41
VnV RayneHCS
p1111
sg43
Nssg220
(lp1112
sg222
I00
sg223
I00
sg224
I2
sg225
I0
sg226
I0
sg227
(dp1113
Vy
F-5.0190177
sVx
F-18.385547599999999
sVz
F1.57412577
ssg229
(dp1114
Vy
F3.3714335000000002
sVx
F-17.094694100000002
sVz
F5.2027510000000001
ssg231
I00
sg232
(dp1115
g478
g479
ssg235
(lp1116
sg237
(lp1117
sg241
I00
sg35
VPT1M14.6444339S
p1118
sg32
VDeath
p1119
sg244
I1
sa(dp1120
g214
I4096745987
sg215
I00
sg216
I00
sg217
(dp1121
g41
VnV RayneHCS
p1122
sg43
Nssg220
(lp1123
I2758383128
asg222
I00
sg223
I01
sg224
I1
sg225
I0
sg226
I1
sg227
(dp1124
Vy
F-4.9871749999999997
sVx
F-18.3616581
sVz
F1.5901389100000001
ssg229
(dp1125
Vy
F0.91828346299999997
sVx
F-16.183988599999999
sVz
F2.2646653699999999
ssg231
I00
sg232
(dp1126
g41
VOG Str8 SickHCS
p1127
sg43
Nssg235
(lp1128
sg237
(lp1129
sg241
I01
sg35
VPT1M14.661434S
p1130
sg32
VDeath
p1131
sg244
I1
sa(dp1132
g32
VMedal
p1133
sg39
(dp1134
g41
VnV RayneHCS
p1135
sg43
Nssg255
I2028249938
sg35
VPT1M14.6674352S
p1136
sa(dp1137
g32
VImpulse
p1138
sg39
(dp1139
g41
VnV RayneHCS
p1140
sg43
Nssg249
I2299858338
sg35
VPT1M14.6674352S
p1141
sa(dp1142
g32
VMedal
p1143
sg39
(dp1144
g41
VnV RayneHCS
p1145
sg43
Nssg255
I3261908037
sg35
VPT1M14.6674352S
p1146
sa(dp1147
g38
I3484334713
sg32
VWeaponDrop
p1148
sg180
I1
sg44
(lp1149
I2758383128
asg35
VPT1M14.6704351S
p1150
sg183
I1
sg184
VP0DT0H0M5.6667S
p1151
sg39
(dp1152
g41
VOG Str8 SickHCS
p1153
sg43
Nssa(dp1154
g38
I4096745987
sg32
VWeaponDrop
p1155
sg180
I19
sg44
(lp1156
I2758383128
asg35
VPT1M14.6704351S
p1157
sg183
I9
sg184
VP0DT0H0M34.1167S
p1158
sg39
(dp1159
g41
VOG Str8 SickHCS
p1160
sg43
Nssa(dp1161
g38
I2244200496
sg32
VWeaponDrop
p1162
sg180
I0
sg44
(lp1163
I2758383128
asg35
VPT1M14.6704351S
p1164
sg183
I0
sg184
VP0DT0H0M0.7667S
p1165
sg39
(dp1166
g41
VOG Str8 SickHCS
p1167
sg43
Nssa(dp1168
g32
VImpulse
p1169
sg39
(dp1170
g41
VOG Str8 SickHCS
p1171
sg43
Nssg249
I3435524855
sg35
VPT1M14.686435S
p1172
sa(dp1173
g214
I523953283
sg215
I00
sg216
I00
sg217
(dp1174
g41
VnV eL ToWn
p1175
sg43
Nssg220
(lp1176
I1327094800
asg222
I00
sg223
I01
sg224
I1
sg225
I0
sg226
I1
sg227
(dp1177
Vy
F-8.9520619999999997
sVx
F15.3905964
sVz
F0.80051410000000001
ssg229
(dp1178
Vy
F-10.61069
sVx
F-10.173712699999999
sVz
F0.034173519999999999
ssg231
I00
sg232
(dp1179
g41
VOG APG HCS
p1180
sg43
Nssg235
(lp1181
sg237
(lp1182
(dp1183
g41
VnV Mikwen HCS
p1184
sg43
Nsasg241
I01
sg35
VPT1M15.878458S
p1185
sg32
VDeath
p1186
sg244
I1
sa(dp1187
g32
VMedal
p1188
sg39
(dp1189
g41
VnV eL ToWn
p1190
sg43
Nssg255
I3261908037
sg35
VPT1M15.8794581S
p1191
sa(dp1192
g38
I2015271382
sg32
VWeaponDrop
p1193
sg180
I4
sg44
(lp1194
I2758383128
asg35
VPT1M15.8804688S
p1195
sg183
I4
sg184
VP0DT0H0M3.1167S
p1196
sg39
(dp1197
g41
VOG APG HCS
p1198
sg43
Nssa(dp1199
g38
I2015271382
sg32
VWeaponDrop
p1200
sg180
I0
sg44
(lp1201
I2758383128
asg35
VPT1M15.8804688S
p1202
sg183
I0
sg184
VP0DT0S
p1203
sg39
(dp1204
g41
VOG APG HCS
p1205
sg43
Nssa(dp1206
g38
I4096745987
sg32
VWeaponDrop
p1207
sg180
I1
sg44
(lp1208
I2758383128
asg35
VPT1M15.8804688S
p1209
sg183
I0
sg184
VP0DT0H0M14.9333S
p1210
sg39
(dp1211
g41
VOG APG HCS
p1212
sg43
Nssa(dp1213
g38
I313138863
sg39
(dp1214
g41
VnV Pistola HCS
p1215
sg43
Nssg44
(lp1216
I1095363701
asg32
VWeaponPickup
p1217
sg35
VPT1M19.0615196S
p1218
sa(dp1219
g38
I4096745987
sg39
(dp1220
g41
VnV Pistola HCS
p1221
sg43
Nssg44
(lp1222
I2758383128
asg32
VWeaponPickup
p1223
sg35
VPT1M19.0625197S
p1224
sa(dp1225
g32
VPlayerSpawn
p1226
sg39
(dp1227
g41
VnV Pistola HCS
p1228
sg43
Nssg35
VPT1M19.0625197S
p1229
sa(dp1230
g38
I313138863
sg39
(dp1231
g41
VOG Maniac HCS
p1232
sg43
Nssg44
(lp1233
I1095363701
asg32
VWeaponPickup
p1234
sg35
VPT1M19.081593S
p1235
sa(dp1236
g38
I4096745987
sg39
(dp1237
g41
VOG Maniac HCS
p1238
sg43
Nssg44
(lp1239
I2758383128
asg32
VWeaponPickup
p1240
sg35
VPT1M19.081593S
p1241
sa(dp1242
g32
VPlayerSpawn
p1243
sg39
(dp1244
g41
VOG Maniac HCS
p1245
sg43
Nssg35
VPT1M19.081593S
p1246
sa(dp1247
g38
I313138863
sg39
(dp1248
g41
VnV Mikwen HCS
p1249
sg43
Nssg44
(lp1250
I1095363701
asg32
VWeaponPickup
p1251
sg35
VPT1M19.495528S
p1252
sa(dp1253
g38
I4096745987
sg39
(dp1254
g41
VnV Mikwen HCS
p1255
sg43
Nssg44
(lp1256
I2758383128
asg32
VWeaponPickup
p1257
sg35
VPT1M19.495528S
p1258
sa(dp1259
g32
VPlayerSpawn
p1260
sg39
(dp1261
g41
VnV Mikwen HCS
p1262
sg43
Nssg35
VPT1M19.495528S
p1263
sa(dp1264
g38
I2244200496
sg39
(dp1265
g41
VnV eL ToWn
p1266
sg43
Nssg44
(lp1267
I2758383128
asg32
VWeaponPickup
p1268
sg35
VPT1M20.1935397S
p1269
sa(dp1270
g32
VImpulse
p1271
sg39
(dp1272
g41
VnV eL ToWn
p1273
sg43
Nssg249
I4191318012
sg35
VPT1M20.1945414S
p1274
sa(dp1275
g32
VImpulse
p1276
sg39
(dp1277
g41
VnV eL ToWn
p1278
sg43
Nssg249
I1039658009
sg35
VPT1M20.1945414S
p1279
sa(dp1280
g38
I2244200496
sg32
VWeaponDrop
p1281
sg180
I0
sg44
(lp1282
I2758383128
asg35
VPT1M20.6775496S
p1283
sg183
I0
sg184
VP0DT0H0M0.3167S
p1284
sg39
(dp1285
g41
VnV eL ToWn
p1286
sg43
Nssa(dp1287
g32
VImpulse
p1288
sg39
(dp1289
g41
VnV eL ToWn
p1290
sg43
Nssg249
I3435524855
sg35
VPT1M20.678551S
p1291
sa(dp1292
g214
I313138863
sg215
I00
sg216
I00
sg217
(dp1293
g41
VnV RayneHCS
p1294
sg43
Nssg220
(lp1295
I1095363701
asg222
I00
sg223
I01
sg224
I1
sg225
I0
sg226
I1
sg227
(dp1296
Vy
F-4.8534470000000001
sVx
F-19.111070000000002
sVz
F2.0428187800000002
ssg229
(dp1297
Vy
F-1.99070752
sVx
F-17.529476200000001
sVz
F3.3306872799999998
ssg231
I00
sg232
(dp1298
g41
VOG ACE HCS
p1299
sg43
Nssg235
(lp1300
sg237
(lp1301
sg241
I00
sg35
VPT1M21.0295571S
p1302
sg32
VDeath
p1303
sg244
I1
sa(dp1304
g32
VMedal
p1305
sg39
(dp1306
g41
VnV RayneHCS
p1307
sg43
Nssg255
I2782465081
sg35
VPT1M21.0305564S
p1308
sa(dp1309
g38
I2015271382
sg32
VWeaponDrop
p1310
sg180
I0
sg44
(lp1311
I2758383128
asg35
VPT1M21.0305564S
p1312
sg183
I0
sg184
VP0DT0H0M0.5000S
p1313
sg39
(dp1314
g41
VOG ACE HCS
p1315
sg43
Nssa(dp1316
g38
I4096745987
sg32
VWeaponDrop
p1317
sg180
I46
sg44
(lp1318
I2758383128
asg35
VPT1M21.0305564S
p1319
sg183
I21
sg184
VP0DT0H0M42.8000S
p1320
sg39
(dp1321
g41
VOG ACE HCS
p1322
sg43
Nssa(dp1323
g38
I2244200496
sg39
(dp1324
g41
VnV eL ToWn
p1325
sg43
Nssg44
(lp1326
I2758383128
asg32
VWeaponPickup
p1327
sg35
VPT1M22.0275764S
p1328
sa(dp1329
g32
VImpulse
p1330
sg39
(dp1331
g41
VnV eL ToWn
p1332
sg43
Nssg249
I4191318012
sg35
VPT1M22.0275764S
p1333
sa(dp1334
g38
I313138863
sg39
(dp1335
g41
VOG Str8 SickHCS
p1336
sg43
Nssg44
(lp1337
I1095363701
asg32
VWeaponPickup
p1338
sg35
VPT1M22.678589S
p1339
sa(dp1340
g38
I4096745987
sg39
(dp1341
g41
VOG Str8 SickHCS
p1342
sg43
Nssg44
(lp1343
I2758383128
asg32
VWeaponPickup
p1344
sg35
VPT1M22.678589S
p1345
sa(dp1346
g32
VPlayerSpawn
p1347
sg39
(dp1348
g41
VOG Str8 SickHCS
p1349
sg43
Nssg35
VPT1M22.678589S
p1350
sa(dp1351
g38
I2244200496
sg32
VWeaponDrop
p1352
sg180
I0
sg44
(lp1353
I2758383128
asg35
VPT1M22.7605887S
p1354
sg183
I0
sg184
VP0DT0H0M0.5500S
p1355
sg39
(dp1356
g41
VnV eL ToWn
p1357
sg43
Nssa(dp1358
g32
VImpulse
p1359
sg39
(dp1360
g41
VnV eL ToWn
p1361
sg43
Nssg249
I3435524855
sg35
VPT1M22.7615905S
p1362
sa(dp1363
g38
I313138863
sg39
(dp1364
g41
VOG APG HCS
p1365
sg43
Nssg44
(lp1366
I1095363701
asg32
VWeaponPickup
p1367
sg35
VPT1M23.8976118S
p1368
sa(dp1369
g38
I4096745987
sg39
(dp1370
g41
VOG APG HCS
p1371
sg43
Nssg44
(lp1372
I2758383128
asg32
VWeaponPickup
p1373
sg35
VPT1M23.8986126S
p1374
sa(dp1375
g32
VPlayerSpawn
p1376
sg39
(dp1377
g41
VOG APG HCS
p1378
sg43
Nssg35
VPT1M23.8986126S
p1379
sa(dp1380
g38
I2244200496
sg39
(dp1381
g41
VnV eL ToWn
p1382
sg43
Nssg44
(lp1383
I2758383128
asg32
VWeaponPickup
p1384
sg35
VPT1M24.1606151S
p1385
sa(dp1386
g32
VImpulse
p1387
sg39
(dp1388
g41
VnV eL ToWn
p1389
sg43
Nssg249
I4191318012
sg35
VPT1M24.1616168S
p1390
sa(dp1391
g32
VMedal
p1392
sg39
(dp1393
g41
VnV RayneHCS
p1394
sg43
Nssg255
I3400287617
sg35
VPT1M24.9276317S
p1395
sa(dp1396
g38
I2244200496
sg32
VWeaponDrop
p1397
sg180
I0
sg44
(lp1398
I2758383128
asg35
VPT1M25.2106457S
p1399
sg183
I0
sg184
VP0DT0H0M0.8833S
p1400
sg39
(dp1401
g41
VnV eL ToWn
p1402
sg43
Nssa(dp1403
g32
VImpulse
p1404
sg39
(dp1405
g41
VnV eL ToWn
p1406
sg43
Nssg249
I3435524855
sg35
VPT1M25.2116379S
p1407
sa(dp1408
g38
I4096745987
sg32
VWeaponDrop
p1409
sg180
I22
sg44
(lp1410
I2758383128
asg35
VPT1M26.8436667S
p1411
sg183
I7
sg184
VP0DT0H0M33.3333S
p1412
sg39
(dp1413
g41
VnV RayneHCS
p1414
sg43
Nssa(dp1415
g38
I523953283
sg39
(dp1416
g41
VnV RayneHCS
p1417
sg43
Nssg44
(lp1418
I1327094800
asg32
VWeaponPickup
p1419
sg35
VPT1M26.8436667S
p1420
sa(dp1421
g32
VMedal
p1422
sg39
(dp1423
g41
VnV Pistola HCS
p1424
sg43
Nssg255
I2380717523
sg35
VPT1M28.1636942S
p1425
sa(dp1426
g32
VImpulse
p1427
sg39
(dp1428
g41
VnV Pistola HCS
p1429
sg43
Nssg249
I1063951891
sg35
VPT1M28.1636942S
p1430
sa(dp1431
g38
I313138863
sg32
VWeaponDrop
p1432
sg180
I0
sg44
(lp1433
I1095363701
asg35
VPT1M28.3436955S
p1434
sg183
I0
sg184
VP0DT0H0M1.0167S
p1435
sg39
(dp1436
g41
VnV Pistola HCS
p1437
sg43
Nssa(dp1438
g38
I3484334713
sg39
(dp1439
g41
VnV Pistola HCS
p1440
sg43
Nssg44
(lp1441
I2758383128
asg32
VWeaponPickup
p1442
sg35
VPT1M28.3436955S
p1443
sa(dp1444
g38
I313138863
sg39
(dp1445
g41
VOG ACE HCS
p1446
sg43
Nssg44
(lp1447
I1095363701
asg32
VWeaponPickup
p1448
sg35
VPT1M29.0447107S
p1449
sa(dp1450
g38
I4096745987
sg39
(dp1451
g41
VOG ACE HCS
p1452
sg43
Nssg44
(lp1453
I2758383128
asg32
VWeaponPickup
p1454
sg35
VPT1M29.0457113S
p1455
sa(dp1456
g32
VPlayerSpawn
p1457
sg39
(dp1458
g41
VOG ACE HCS
p1459
sg43
Nssg35
VPT1M29.0457113S
p1460
sa(dp1461
g214
I4106030681
sg215
I00
sg216
I00
sg217
(dp1462
g41
VOG Maniac HCS
p1463
sg43
Nssg220
(lp1464
sg222
I00
sg223
I00
sg224
I2
sg225
I0
sg226
I0
sg227
(dp1465
Vy
F7.6098229999999996
sVx
F-3.8291620000000002
sVz
F2.4690439999999998
ssg229
(dp1466
Vy
F4.1114759999999997
sVx
F-19.5007439
sVz
F5.2472760000000003
ssg231
I00
sg232
(dp1467
g478
g479
ssg235
(lp1468
sg237
(lp1469
sg241
I00
sg35
VPT1M30.7107428S
p1470
sg32
VDeath
p1471
sg244
I1
sa(dp1472
g38
I2244200496
sg39
(dp1473
g41
VnV eL ToWn
p1474
sg43
Nssg44
(lp1475
I2758383128
asg32
VWeaponPickup
p1476
sg35
VPT1M31.06075S
p1477
sa(dp1478
g32
VImpulse
p1479
sg39
(dp1480
g41
VnV eL ToWn
p1481
sg43
Nssg249
I4191318012
sg35
VPT1M31.06075S
p1482
sa(dp1483
g214
I3484334713
sg215
I00
sg216
I00
sg217
(dp1484
g41
VnV Pistola HCS
p1485
sg43
Nssg220
(lp1486
I2758383128
asg222
I00
sg223
I01
sg224
I1
sg225
I0
sg226
I1
sg227
(dp1487
Vy
F6.44821548
sVx
F-5.1810960000000001
sVz
F2.40005851
ssg229
(dp1488
Vy
F7.5459346800000002
sVx
F-3.6737769999999998
sVz
F1.92104173
ssg231
I00
sg232
(dp1489
g41
VOG Maniac HCS
p1490
sg43
Nssg235
(lp1491
sg237
(lp1492
sg241
I00
sg35
VPT1M32.578779S
p1493
sg32
VDeath
p1494
sg244
I1
sa(dp1495
g32
VImpulse
p1496
sg39
(dp1497
g41
VnV Pistola HCS
p1498
sg43
Nssg249
I2556889090
sg35
VPT1M32.578779S
p1499
sa(dp1500
g32
VMedal
p1501
sg39
(dp1502
g41
VnV Pistola HCS
p1503
sg43
Nssg255
I2838259753
sg35
VPT1M32.578779S
p1504
sa(dp1505
g32
VMedal
p1506
sg39
(dp1507
g41
VnV RayneHCS
p1508
sg43
Nssg255
I824733727
sg35
VPT1M32.5797791S
p1509
sa(dp1510
g38
I4096745987
sg32
VWeaponDrop
p1511
sg180
I10
sg44
(lp1512
I2758383128
asg35
VPT1M32.5807789S
p1513
sg183
I8
sg184
VP0DT0H0M12.3167S
p1514
sg39
(dp1515
g41
VOG Maniac HCS
p1516
sg43
Nssa(dp1517
g38
I313138863
sg32
VWeaponDrop
p1518
sg180
I0
sg44
(lp1519
I1095363701
asg35
VPT1M32.5807789S
p1520
sg183
I0
sg184
VP0DT0H0M1.1833S
p1521
sg39
(dp1522
g41
VOG Maniac HCS
p1523
sg43
Nssa(dp1524
g214
I4106030681
sg215
I00
sg216
I00
sg217
(dp1525
g41
VnV RayneHCS
p1526
sg43
Nssg220
(lp1527
sg222
I00
sg223
I00
sg224
I2
sg225
I0
sg226
I0
sg227
(dp1528
Vy
F4.6066102999999998
sVx
F-17.861833600000001
sVz
F2.2190065400000001
ssg229
(dp1529
Vy
F8.0454150000000002
sVx
F-12.9118624
sVz
F5.292967
ssg231
I00
sg232
(dp1530
g478
g479
ssg235
(lp1531
sg237
(lp1532
sg241
I00
sg35
VPT1M33.9788054S
p1533
sg32
VDeath
p1534
sg244
I1
sa(dp1535
g214
I4106030681
sg215
I00
sg216
I00
sg217
(dp1536
g41
VnV RayneHCS
p1537
sg43
Nssg220
(lp1538
sg222
I00
sg223
I00
sg224
I2
sg225
I0
sg226
I0
sg227
(dp1539
Vy
F4.6066102999999998
sVx
F-17.861833600000001
sVz
F2.2190065400000001
ssg229
(dp1540
Vy
F7.0197005299999997
sVx
F-12.421427700000001
sVz
F5.2900039999999997
ssg231
I00
sg232
(dp1541
g478
g479
ssg235
(lp1542
sg237
(lp1543
sg241
I00
sg35
VPT1M33.9788054S
p1544
sg32
VDeath
p1545
sg244
I1
sa(dp1546
g214
I4106030681
sg215
I00
sg216
I00
sg217
(dp1547
g41
VnV RayneHCS
p1548
sg43
Nssg220
(lp1549
sg222
I00
sg223
I01
sg224
I1
sg225
I0
sg226
I1
sg227
(dp1550
Vy
F4.6066102999999998
sVx
F-17.861833600000001
sVz
F2.2190065400000001
ssg229
(dp1551
Vy
F6.6446880000000004
sVx
F-14.050518
sVz
F2.8174333599999999
ssg231
I00
sg232
(dp1552
g41
VOG APG HCS
p1553
sg43
Nssg235
(lp1554
sg237
(lp1555
(dp1556
g41
VnV Pistola HCS
p1557
sg43
Nsasg241
I00
sg35
VPT1M33.9788054S
p1558
sg32
VDeath
p1559
sg244
I1
sa(dp1560
g38
I313138863
sg32
VWeaponDrop
p1561
sg180
I3
sg44
(lp1562
I1095363701
asg35
VPT1M33.9798054S
p1563
sg183
I2
sg184
VP0DT0H0M1.5333S
p1564
sg39
(dp1565
g41
VOG APG HCS
p1566
sg43
Nssa(dp1567
g38
I4096745987
sg32
VWeaponDrop
p1568
sg180
I5
sg44
(lp1569
I2758383128
asg35
VPT1M33.9798054S
p1570
sg183
I1
sg184
VP0DT0H0M8.5500S
p1571
sg39
(dp1572
g41
VOG APG HCS
p1573
sg43
Nssa(dp1574
g214
I4096745987
sg215
I00
sg216
I00
sg217
(dp1575
g41
VOG ACE HCS
p1576
sg43
Nssg220
(lp1577
I2758383128
asg222
I00
sg223
I01
sg224
I1
sg225
I0
sg226
I1
sg227
(dp1578
Vy
F9.0815190000000001
sVx
F-1.94647646
sVz
F1.6000051500000001
ssg229
(dp1579
Vy
F6.7471432699999996
sVx
F-5.5553264599999999
sVz
F2.4001204999999999
ssg231
I00
sg232
(dp1580
g41
VnV Pistola HCS
p1581
sg43
Nssg235
(lp1582
sg237
(lp1583
(dp1584
g41
VOG Maniac HCS
p1585
sg43
Nsasg241
I01
sg35
VPT1M35.3448321S
p1586
sg32
VDeath
p1587
sg244
I1
sa(dp1588
g32
VMedal
p1589
sg39
(dp1590
g41
VOG ACE HCS
p1591
sg43
Nssg255
I3261908037
sg35
VPT1M35.345832S
p1592
sa(dp1593
g38
I3484334713
sg32
VWeaponDrop
p1594
sg180
I1
sg44
(lp1595
I2758383128
asg35
VPT1M35.3468318S
p1596
sg183
I1
sg184
VP0DT0H0M2.8833S
p1597
sg39
(dp1598
g41
VnV Pistola HCS
p1599
sg43
Nssa(dp1600
g38
I4096745987
sg32
VWeaponDrop
p1601
sg180
I3
sg44
(lp1602
I2758383128
asg35
VPT1M35.3468318S
p1603
sg183
I1
sg184
VP0DT0H0M12.3833S
p1604
sg39
(dp1605
g41
VnV Pistola HCS
p1606
sg43
Nssa(dp1607
g214
I4096745987
sg215
I00
sg216
I00
sg217
(dp1608
g41
VnV Mikwen HCS
p1609
sg43
Nssg220
(lp1610
I2758383128
asg222
I00
sg223
I01
sg224
I1
sg225
I0
sg226
I1
sg227
(dp1611
Vy
F-6.4791092900000002
sVx
F1.04233384
sVz
F0.0056810080000000004
ssg229
(dp1612
Vy
F-0.77111554100000002
sVx
F-3.636898
sVz
F0.96068406100000003
ssg231
I00
sg232
(dp1613
g41
VOG Str8 SickHCS
p1614
sg43
Nssg235
(lp1615
sg237
(lp1616
sg241
I00
sg35
VPT1M35.927843S
p1617
sg32
VDeath
p1618
sg244
I1
sa(dp1619
g38
I313138863
sg32
VWeaponDrop
p1620
sg180
I15
sg44
(lp1621
I1095363701
asg35
VPT1M35.9298428S
p1622
sg183
I6
sg184
VP0DT0H0M7.2167S
p1623
sg39
(dp1624
g41
VOG Str8 SickHCS
p1625
sg43
Nssa(dp1626
g38
I4096745987
sg32
VWeaponDrop
p1627
sg180
I0
sg44
(lp1628
I2758383128
asg35
VPT1M35.9298428S
p1629
sg183
I0
sg184
VP0DT0H0M6.0333S
p1630
sg39
(dp1631
g41
VOG Str8 SickHCS
p1632
sg43
Nssa(dp1633
g38
I2244200496
sg32
VWeaponDrop
p1634
sg180
I0
sg44
(lp1635
I2758383128
asg35
VPT1M36.6098543S
p1636
sg183
I0
sg184
VP0DT0H0M5.3833S
p1637
sg39
(dp1638
g41
VnV eL ToWn
p1639
sg43
Nssa(dp1640
g32
VImpulse
p1641
sg39
(dp1642
g41
VnV eL ToWn
p1643
sg43
Nssg249
I3435524855
sg35
VPT1M36.610857S
p1644
sa(dp1645
g38
I2244200496
sg39
(dp1646
g41
VnV eL ToWn
p1647
sg43
Nssg44
(lp1648
I2758383128
asg32
VWeaponPickup
p1649
sg35
VPT1M37.8598782S
p1650
sa(dp1651
g32
VImpulse
p1652
sg39
(dp1653
g41
VnV eL ToWn
p1654
sg43
Nssg249
I4191318012
sg35
VPT1M37.8608805S
p1655
sa(dp1656
g32
VMedal
p1657
sg39
(dp1658
g41
VnV RayneHCS
p1659
sg43
Nssg255
I3400287617
sg35
VPT1M38.0268814S
p1660
sa(dp1661
g214
I4106030681
sg215
I00
sg216
I00
sg217
(dp1662
g41
VOG ACE HCS
p1663
sg43
Nssg220
(lp1664
sg222
I00
sg223
I01
sg224
I1
sg225
I0
sg226
I1
sg227
(dp1665
Vy
F9.7830870000000001
sVx
F-8.8689230000000006
sVz
F1.6000051500000001
ssg229
(dp1666
Vy
F6.7143106499999998
sVx
F-18.204370000000001
sVz
F1.40493858
ssg231
I00
sg232
(dp1667
g41
VnV RayneHCS
p1668
sg43
Nssg235
(lp1669
sg237
(lp1670
(dp1671
g41
VOG APG HCS
p1672
sg43
Nsasg241
I00
sg35
VPT1M38.5108926S
p1673
sg32
VDeath
p1674
sg244
I1
sa(dp1675
g32
VMedal
p1676
sg39
(dp1677
g41
VOG ACE HCS
p1678
sg43
Nssg255
I2078758684
sg35
VPT1M38.5128924S
p1679
sa(dp1680
g38
I313138863
sg32
VWeaponDrop
p1681
sg180
I20
sg44
(lp1682
I1095363701
asg35
VPT1M38.5128924S
p1683
sg183
I15
sg184
VP0DT0H0M5.9000S
p1684
sg39
(dp1685
g41
VnV RayneHCS
p1686
sg43
Nssa(dp1687
g38
I523953283
sg32
VWeaponDrop
p1688
sg180
I4
sg44
(lp1689
I1327094800
asg35
VPT1M38.5128924S
p1690
sg183
I1
sg184
VP0DT0H0M11.6667S
p1691
sg39
(dp1692
g41
VnV RayneHCS
p1693
sg43
Nssa(dp1694
g38
I313138863
sg39
(dp1695
g41
VOG Maniac HCS
p1696
sg43
Nssg44
(lp1697
I1095363701
asg32
VWeaponPickup
p1698
sg35
VPT1M40.5949331S
p1699
sa(dp1700
g38
I4096745987
sg39
(dp1701
g41
VOG Maniac HCS
p1702
sg43
Nssg44
(lp1703
I2758383128
asg32
VWeaponPickup
p1704
sg35
VPT1M40.5949331S
p1705
sa(dp1706
g32
VPlayerSpawn
p1707
sg39
(dp1708
g41
VOG Maniac HCS
p1709
sg43
Nssg35
VPT1M40.5949331S
p1710
sa(dp1711
g214
I2244200496
sg215
I00
sg216
I00
sg217
(dp1712
g41
VnV eL ToWn
p1713
sg43
Nssg220
(lp1714
I2758383128
asg222
I00
sg223
I01
sg224
I1
sg225
I0
sg226
I1
sg227
(dp1715
Vy
F3.4186700000000001
sVx
F-5.5596866599999997
sVz
F2.41748071
ssg229
(dp1716
Vy
F6.8807700000000001
sVx
F-13.7782087
sVz
F2.2474436799999999
ssg231
I00
sg232
(dp1717
g41
VOG ACE HCS
p1718
sg43
Nssg235
(lp1719
sg237
(lp1720
sg241
I01
sg35
VPT1M40.6619336S
p1721
sg32
VDeath
p1722
sg244
I1
sa(dp1723
g32
VImpulse
p1724
sg39
(dp1725
g41
VnV eL ToWn
p1726
sg43
Nssg249
I3514632335
sg35
VPT1M40.6649334S
p1727
sa(dp1728
g32
VMedal
p1729
sg39
(dp1730
g41
VnV eL ToWn
p1731
sg43
Nssg255
I2299864088
sg35
VPT1M40.6649334S
p1732
sa(dp1733
g32
VMedal
p1734
sg39
(dp1735
g41
VnV eL ToWn
p1736
sg43
Nssg255
I3261908037
sg35
VPT1M40.6649334S
p1737
sa(dp1738
g38
I313138863
sg32
VWeaponDrop
p1739
sg180
I0
sg44
(lp1740
I1095363701
asg35
VPT1M40.6649334S
p1741
sg183
I0
sg184
VP0DT0H0M0.8500S
p1742
sg39
(dp1743
g41
VOG ACE HCS
p1744
sg43
Nssa(dp1745
g38
I4096745987
sg32
VWeaponDrop
p1746
sg180
I10
sg44
(lp1747
I2758383128
asg35
VPT1M40.6649334S
p1748
sg183
I4
sg184
VP0DT0H0M10.7667S
p1749
sg39
(dp1750
g41
VOG ACE HCS
p1751
sg43
Nssa(dp1752
g38
I2244200496
sg32
VWeaponDrop
p1753
sg180
I7
sg44
(lp1754
I2758383128
asg35
VPT1M41.7429529S
p1755
sg183
I5
sg184
VP0DT0H0M3.7167S
p1756
sg39
(dp1757
g41
VnV eL ToWn
p1758
sg43
Nssa(dp1759
g32
VImpulse
p1760
sg39
(dp1761
g41
VnV eL ToWn
p1762
sg43
Nssg249
I3435524855
sg35
VPT1M41.7439557S
p1763
sa(dp1764
g38
I313138863
sg39
(dp1765
g41
VOG APG HCS
p1766
sg43
Nssg44
(lp1767
I1095363701
asg32
VWeaponPickup
p1768
sg35
VPT1M41.9949601S
p1769
sa(dp1770
g38
I4096745987
sg39
(dp1771
g41
VOG APG HCS
p1772
sg43
Nssg44
(lp1773
I2758383128
asg32
VWeaponPickup
p1774
sg35
VPT1M41.9949601S
p1775
sa(dp1776
g32
VPlayerSpawn
p1777
sg39
(dp1778
g41
VOG APG HCS
p1779
sg43
Nssg35
VPT1M41.9949601S
p1780
sa(dp1781
g38
I313138863
sg39
(dp1782
g41
VnV Pistola HCS
p1783
sg43
Nssg44
(lp1784
I1095363701
asg32
VWeaponPickup
p1785
sg35
VPT1M43.360986S
p1786
sa(dp1787
g38
I4096745987
sg39
(dp1788
g41
VnV Pistola HCS
p1789
sg43
Nssg44
(lp1790
I2758383128
asg32
VWeaponPickup
p1791
sg35
VPT1M43.3619864S
p1792
sa(dp1793
g32
VPlayerSpawn
p1794
sg39
(dp1795
g41
VnV Pistola HCS
p1796
sg43
Nssg35
VPT1M43.3619864S
p1797
sa(dp1798
g38
I313138863
sg39
(dp1799
g41
VOG Str8 SickHCS
p1800
sg43
Nssg44
(lp1801
I1095363701
asg32
VWeaponPickup
p1802
sg35
VPT1M43.9449973S
p1803
sa(dp1804
g38
I4096745987
sg39
(dp1805
g41
VOG Str8 SickHCS
p1806
sg43
Nssg44
(lp1807
I2758383128
asg32
VWeaponPickup
p1808
sg35
VPT1M43.9449973S
p1809
sa(dp1810
g32
VPlayerSpawn
p1811
sg39
(dp1812
g41
VOG Str8 SickHCS
p1813
sg43
Nssg35
VPT1M43.9449973S
p1814
sa(dp1815
g38
I523953283
sg32
VWeaponDrop
p1816
sg180
I10
sg44
(lp1817
I1327094800
asg35
VPT1M45.8100317S
p1818
sg183
I8
sg184
VP0DT0H0M51.6833S
p1819
sg39
(dp1820
g41
VnV eL ToWn
p1821
sg43
Nssa(dp1822
g38
I4096745987
sg39
(dp1823
g41
VnV eL ToWn
p1824
sg43
Nssg44
(lp1825
I2758383128
asg32
VWeaponPickup
p1826
sg35
VPT1M45.8100317S
p1827
sa(dp1828
g214
I4096745987
sg215
I00
sg216
I00
sg217
(dp1829
g41
VOG Maniac HCS
p1830
sg43
Nssg220
(lp1831
I2758383128
asg222
I00
sg223
I01
sg224
I1
sg225
I0
sg226
I1
sg227
(dp1832
Vy
F9.3279920000000001
sVx
F1.51517236
sVz
F2.6005306199999998
ssg229
(dp1833
Vy
F7.0839614900000001
sVx
F-14.388283700000001
sVz
F2.3134730000000001
ssg231
I00
sg232
(dp1834
g41
VnV eL ToWn
p1835
sg43
Nssg235
(lp1836
sg237
(lp1837
(dp1838
g41
VOG APG HCS
p1839
sg43
Nsasg241
I01
sg35
VPT1M45.8610341S
p1840
sg32
VDeath
p1841
sg244
I1
sa(dp1842
g32
VMedal
p1843
sg39
(dp1844
g41
VOG Maniac HCS
p1845
sg43
Nssg255
I164204247
sg35
VPT1M45.862034S
p1846
sa(dp1847
g32
VMedal
p1848
sg39
(dp1849
g41
VOG Maniac HCS
p1850
sg43
Nssg255
I3261908037
sg35
VPT1M45.862034S
p1851
sa(dp1852
g38
I313138863
sg32
VWeaponDrop
p1853
sg180
I0
sg44
(lp1854
I1095363701
asg35
VPT1M45.8630339S
p1855
sg183
I0
sg184
VP0DT0H0M0.9667S
p1856
sg39
(dp1857
g41
VnV eL ToWn
p1858
sg43
Nssa(dp1859
g38
I4096745987
sg32
VWeaponDrop
p1860
sg180
I0
sg44
(lp1861
I2758383128
asg35
VPT1M45.8630339S
p1862
sg183
I0
sg184
VP0DT0H0M0.0500S
p1863
sg39
(dp1864
g41
VnV eL ToWn
p1865
sg43
Nssa(dp1866
g38
I4096745987
sg32
VWeaponDrop
p1867
sg180
I3
sg44
(lp1868
I2758383128
asg35
VPT1M46.210039S
p1869
sg183
I1
sg184
VP0DT0H0M18.2333S
p1870
sg39
(dp1871
g41
VnV Mikwen HCS
p1872
sg43
Nssa(dp1873
g38
I523953283
sg39
(dp1874
g41
VnV Mikwen HCS
p1875
sg43
Nssg44
(lp1876
I1327094800
asg32
VWeaponPickup
p1877
sg35
VPT1M46.210039S
p1878
sa(dp1879
g38
I313138863
sg39
(dp1880
g41
VnV RayneHCS
p1881
sg43
Nssg44
(lp1882
I1095363701
asg32
VWeaponPickup
p1883
sg35
VPT1M46.5280463S
p1884
sa(dp1885
g38
I4096745987
sg39
(dp1886
g41
VnV RayneHCS
p1887
sg43
Nssg44
(lp1888
I2758383128
asg32
VWeaponPickup
p1889
sg35
VPT1M46.5280463S
p1890
sa(dp1891
g32
VPlayerSpawn
p1892
sg39
(dp1893
g41
VnV RayneHCS
p1894
sg43
Nssg35
VPT1M46.5280463S
p1895
sa(dp1896
g38
I313138863
sg39
(dp1897
g41
VOG ACE HCS
p1898
sg43
Nssg44
(lp1899
I1095363701
asg32
VWeaponPickup
p1900
sg35
VPT1M48.6780882S
p1901
sa(dp1902
g38
I4096745987
sg39
(dp1903
g41
VOG ACE HCS
p1904
sg43
Nssg44
(lp1905
I2758383128
asg32
VWeaponPickup
p1906
sg35
VPT1M48.6780882S
p1907
sa(dp1908
g32
VPlayerSpawn
p1909
sg39
(dp1910
g41
VOG ACE HCS
p1911
sg43
Nssg35
VPT1M48.6780882S
p1912
sa(dp1913
g38
I2244200496
sg39
(dp1914
g41
VnV RayneHCS
p1915
sg43
Nssg44
(lp1916
I2758383128
asg32
VWeaponPickup
p1917
sg35
VPT1M48.727089S
p1918
sa(dp1919
g32
VImpulse
p1920
sg39
(dp1921
g41
VnV RayneHCS
p1922
sg43
Nssg249
I4191318012
sg35
VPT1M48.727089S
p1923
sa(dp1924
g38
I2244200496
sg32
VWeaponDrop
p1925
sg180
I0
sg44
(lp1926
I2758383128
asg35
VPT1M50.1431141S
p1927
sg183
I0
sg184
VP0DT0H0M1.2667S
p1928
sg39
(dp1929
g41
VnV RayneHCS
p1930
sg43
Nssa(dp1931
g32
VImpulse
p1932
sg39
(dp1933
g41
VnV RayneHCS
p1934
sg43
Nssg249
I3435524855
sg35
VPT1M50.1441163S
p1935
sa(dp1936
g214
I523953283
sg215
I00
sg216
I00
sg217
(dp1937
g41
VnV Mikwen HCS
p1938
sg43
Nssg220
(lp1939
I1327094800
asg222
I00
sg223
I01
sg224
I1
sg225
I0
sg226
I1
sg227
(dp1940
Vy
F11.165929999999999
sVx
F6.0031309999999998
sVz
F2.34078169
ssg229
(dp1941
Vy
F7.8221283000000001
sVx
F-3.7682335400000002
sVz
F1.80744433
ssg231
I00
sg232
(dp1942
g41
VOG APG HCS
p1943
sg43
Nssg235
(lp1944
sg237
(lp1945
(dp1946
g41
VnV Pistola HCS
p1947
sg43
Nsasg241
I01
sg35
VPT1M50.8111282S
p1948
sg32
VDeath
p1949
sg244
I1
sa(dp1950
g32
VMedal
p1951
sg39
(dp1952
g41
VnV Mikwen HCS
p1953
sg43
Nssg255
I3261908037
sg35
VPT1M50.8121289S
p1954
sa(dp1955
g38
I4096745987
sg32
VWeaponDrop
p1956
sg180
I10
sg44
(lp1957
I2758383128
asg35
VPT1M50.813129S
p1958
sg183
I3
sg184
VP0DT0H0M8.1000S
p1959
sg39
(dp1960
g41
VOG APG HCS
p1961
sg43
Nssa(dp1962
g38
I313138863
sg32
VWeaponDrop
p1963
sg180
I0
sg44
(lp1964
I1095363701
asg35
VPT1M50.813129S
p1965
sg183
I0
sg184
VP0DT0H0M0.7167S
p1966
sg39
(dp1967
g41
VOG APG HCS
p1968
sg43
Nssa(dp1969
g38
I2244200496
sg39
(dp1970
g41
VnV RayneHCS
p1971
sg43
Nssg44
(lp1972
I2758383128
asg32
VWeaponPickup
p1973
sg35
VPT1M51.2101356S
p1974
sa(dp1975
g32
VImpulse
p1976
sg39
(dp1977
g41
VnV RayneHCS
p1978
sg43
Nssg249
I4191318012
sg35
VPT1M51.2131359S
p1979
sa(dp1980
g32
VMedal
p1981
sg39
(dp1982
g41
VnV RayneHCS
p1983
sg43
Nssg255
I3886151616
sg35
VPT1M51.3271382S
p1984
sa(dp1985
g32
VMedal
p1986
sg39
(dp1987
g41
VnV eL ToWn
p1988
sg43
Nssg255
I1494478183
sg35
VPT1M51.3271382S
p1989
sa(dp1990
g32
VImpulse
p1991
sg39
(dp1992
g41
VnV RayneHCS
p1993
sg43
Nssg249
I2944278681
sg35
VPT1M51.3271382S
p1994
sa(dp1995
g38
I4096745987
sg32
VWeaponDrop
p1996
sg180
I0
sg44
(lp1997
I2758383128
asg35
VPT1M52.3101566S
p1998
sg183
I0
sg184
VP0DT0H0M3.7333S
p1999
sg39
(dp2000
g41
VnV RayneHCS
p2001
sg43
Nssa(dp2002
g38
I523953283
sg39
(dp2003
g41
VnV RayneHCS
p2004
sg43
Nssg44
(lp2005
I1327094800
asg32
VWeaponPickup
p2006
sg35
VPT1M52.3101566S
p2007
sa(dp2008
g214
I4096745987
sg215
I00
sg216
I00
sg217
(dp2009
g41
VOG ACE HCS
p2010
sg43
Nssg220
(lp2011
I2758383128
asg222
I00
sg223
I01
sg224
I1
sg225
I0
sg226
I1
sg227
(dp2012
Vy
F-10.7538328
sVx
F-7.3738946900000002
sVz
F0.013205826299999999
ssg229
(dp2013
Vy
F-0.7722985
sVx
F-15.9821644
sVz
F2.2161355
ssg231
I00
sg232
(dp2014
g41
VnV RayneHCS
p2015
sg43
Nssg235
(lp2016
sg237
(lp2017
(dp2018
g41
VOG Maniac HCS
p2019
sg43
Nsa(dp2020
g41
VOG Str8 SickHCS
p2021
sg43
Nsasg241
I01
sg35
VPT1M53.3111847S
p2022
sg32
VDeath
p2023
sg244
I1
sa(dp2024
g32
VMedal
p2025
sg39
(dp2026
g41
VOG ACE HCS
p2027
sg43
Nssg255
I3261908037
sg35
VPT1M53.3121767S
p2028
sa(dp2029
g38
I523953283
sg32
VWeaponDrop
p2030
sg180
I0
sg44
(lp2031
I1327094800
asg35
VPT1M53.3131761S
p2032
sg183
I0
sg184
VP0DT0H0M1.0000S
p2033
sg39
(dp2034
g41
VnV RayneHCS
p2035
sg43
Nssa(dp2036
g38
I313138863
sg32
VWeaponDrop
p2037
sg180
I0
sg44
(lp2038
I1095363701
asg35
VPT1M53.3141769S
p2039
sg183
I0
sg184
VP0DT0H0M0.7833S
p2040
sg39
(dp2041
g41
VnV RayneHCS
p2042
sg43
Nssa(dp2043
g38
I313138863
sg39
(dp2044
g41
VnV eL ToWn
p2045
sg43
Nssg44
(lp2046
I1095363701
asg32
VWeaponPickup
p2047
sg35
VPT1M53.8781884S
p2048
sa(dp2049
g38
I4096745987
sg39
(dp2050
g41
VnV eL ToWn
p2051
sg43
Nssg44
(lp2052
I2758383128
asg32
VWeaponPickup
p2053
sg35
VPT1M53.8781884S
p2054
sa(dp2055
g32
VPlayerSpawn
p2056
sg39
(dp2057
g41
VnV eL ToWn
p2058
sg43
Nssg35
VPT1M53.8781884S
p2059
sa(dp2060
g214
I523953283
sg215
I00
sg216
I00
sg217
(dp2061
g41
VnV Mikwen HCS
p2062
sg43
Nssg220
(lp2063
I1327094800
asg222
I00
sg223
I01
sg224
I1
sg225
I0
sg226
I1
sg227
(dp2064
Vy
F11.8891735
sVx
F-1.01620519
sVz
F2.0518555599999999
ssg229
(dp2065
Vy
F6.2454032899999996
sVx
F-5.3673944499999999
sVz
F2.70633268
ssg231
I00
sg232
(dp2066
g41
VOG Maniac HCS
p2067
sg43
Nssg235
(lp2068
sg237
(lp2069
(dp2070
g41
VnV Pistola HCS
p2071
sg43
Nsasg241
I01
sg35
VPT1M54.7112037S
p2072
sg32
VDeath
p2073
sg244
I1
sa(dp2074
g32
VMedal
p2075
sg39
(dp2076
g41
VnV Mikwen HCS
p2077
sg43
Nssg255
I3261908037
sg35
VPT1M54.7122038S
p2078
sa(dp2079
g32
VMedal
p2080
sg39
(dp2081
g41
VnV Mikwen HCS
p2082
sg43
Nssg255
I2078758684
sg35
VPT1M54.7122038S
p2083
sa(dp2084
g38
I313138863
sg32
VWeaponDrop
p2085
sg180
I0
sg44
(lp2086
I1095363701
asg35
VPT1M54.7132038S
p2087
sg183
I0
sg184
VP0DT0H0M1.0500S
p2088
sg39
(dp2089
g41
VOG Maniac HCS
p2090
sg43
Nssa(dp2091
g38
I4096745987
sg32
VWeaponDrop
p2092
sg180
I14
sg44
(lp2093
I2758383128
asg35
VPT1M54.7132038S
p2094
sg183
I6
sg184
VP0DT0H0M13.0667S
p2095
sg39
(dp2096
g41
VOG Maniac HCS
p2097
sg43
Nssa(dp2098
g214
I4096745987
sg215
I00
sg216
I00
sg217
(dp2099
g41
VOG Str8 SickHCS
p2100
sg43
Nssg220
(lp2101
I2758383128
asg222
I00
sg223
I01
sg224
I1
sg225
I0
sg226
I1
sg227
(dp2102
Vy
F6.5705660000000004
sVx
F2.2753994500000001
sVz
F3.2946200000000001
ssg229
(dp2103
Vy
F8.0934799999999996
sVx
F-4.2451369999999997
sVz
F1.8053627000000001
ssg231
I00
sg232
(dp2104
g41
VnV Mikwen HCS
p2105
sg43
Nssg235
(lp2106
sg237
(lp2107
sg241
I01
sg35
VPT1M57.7942626S
p2108
sg32
VDeath
p2109
sg244
I1
sa(dp2110
g32
VImpulse
p2111
sg39
(dp2112
g41
VOG Str8 SickHCS
p2113
sg43
Nssg249
I3174430457
sg35
VPT1M57.7952631S
p2114
sa(dp2115
g32
VMedal
p2116
sg39
(dp2117
g41
VOG Str8 SickHCS
p2118
sg43
Nssg255
I3653057799
sg35
VPT1M57.7962623S
p2119
sa(dp2120
g38
I313138863
sg32
VWeaponDrop
p2121
sg180
I27
sg44
(lp2122
I1095363701
asg35
VPT1M57.797263S
p2123
sg183
I12
sg184
VP0DT0H0M8.4833S
p2124
sg39
(dp2125
g41
VnV Mikwen HCS
p2126
sg43
Nssa(dp2127
g38
I523953283
sg32
VWeaponDrop
p2128
sg180
I8
sg44
(lp2129
I1327094800
asg35
VPT1M57.797263S
p2130
sg183
I7
sg184
VP0DT0H0M11.5833S
p2131
sg39
(dp2132
g41
VnV Mikwen HCS
p2133
sg43
Nssa(dp2134
g38
I313138863
sg39
(dp2135
g41
VOG APG HCS
p2136
sg43
Nssg44
(lp2137
I1095363701
asg32
VWeaponPickup
p2138
sg35
VPT1M58.8272826S
p2139
sa(dp2140
g38
I4096745987
sg39
(dp2141
g41
VOG APG HCS
p2142
sg43
Nssg44
(lp2143
I2758383128
asg32
VWeaponPickup
p2144
sg35
VPT1M58.8282831S
p2145
sa(dp2146
g32
VPlayerSpawn
p2147
sg39
(dp2148
g41
VOG APG HCS
p2149
sg43
Nssg35
VPT1M58.8282831S
p2150
sa(dp2151
g38
I2244200496
sg39
(dp2152
g41
VOG ACE HCS
p2153
sg43
Nssg44
(lp2154
I2758383128
asg32
VWeaponPickup
p2155
sg35
VPT2M1.0263232S
p2156
sa(dp2157
g32
VImpulse
p2158
sg39
(dp2159
g41
VOG ACE HCS
p2160
sg43
Nssg249
I4191318012
sg35
VPT2M1.0273334S
p2161
sa(dp2162
g32
VImpulse
p2163
sg39
(dp2164
g41
VOG ACE HCS
p2165
sg43
Nssg249
I1039658009
sg35
VPT2M1.0273334S
p2166
sa(dp2167
g38
I313138863
sg39
(dp2168
g41
VnV RayneHCS
p2169
sg43
Nssg44
(lp2170
I1095363701
asg32
VWeaponPickup
p2171
sg35
VPT2M1.3273311S
p2172
sa(dp2173
g38
I4096745987
sg39
(dp2174
g41
VnV RayneHCS
p2175
sg43
Nssg44
(lp2176
I2758383128
asg32
VWeaponPickup
p2177
sg35
VPT2M1.3283313S
p2178
sa(dp2179
g32
VPlayerSpawn
p2180
sg39
(dp2181
g41
VnV RayneHCS
p2182
sg43
Nssg35
VPT2M1.3283313S
p2183
sa(dp2184
g38
I2244200496
sg32
VWeaponDrop
p2185
sg180
I0
sg44
(lp2186
I2758383128
asg35
VPT2M1.3593299S
p2187
sg183
I0
sg184
VP0DT0H0M0.1833S
p2188
sg39
(dp2189
g41
VOG ACE HCS
p2190
sg43
Nssa(dp2191
g32
VImpulse
p2192
sg39
(dp2193
g41
VOG ACE HCS
p2194
sg43
Nssg249
I3435524855
sg35
VPT2M1.3603317S
p2195
sa(dp2196
g38
I313138863
sg39
(dp2197
g41
VOG Maniac HCS
p2198
sg43
Nssg44
(lp2199
I1095363701
asg32
VWeaponPickup
p2200
sg35
VPT2M2.7273579S
p2201
sa(dp2202
g38
I4096745987
sg39
(dp2203
g41
VOG Maniac HCS
p2204
sg43
Nssg44
(lp2205
I2758383128
asg32
VWeaponPickup
p2206
sg35
VPT2M2.7283581S
p2207
sa(dp2208
g32
VPlayerSpawn
p2209
sg39
(dp2210
g41
VOG Maniac HCS
p2211
sg43
Nssg35
VPT2M2.7283581S
p2212
sa(dp2213
g38
I313138863
sg32
VWeaponDrop
p2214
sg180
I0
sg44
(lp2215
I1095363701
asg35
VPT2M2.8763591S
p2216
sg183
I0
sg184
VP0DT0H0M2.5000S
p2217
sg39
(dp2218
g41
VOG Str8 SickHCS
p2219
sg43
Nssa(dp2220
g38
I3484334713
sg39
(dp2221
g41
VOG Str8 SickHCS
p2222
sg43
Nssg44
(lp2223
I2758383128
asg32
VWeaponPickup
p2224
sg35
VPT2M2.8763591S
p2225
sa(dp2226
g214
I3484334713
sg215
I00
sg216
I00
sg217
(dp2227
g41
VOG Str8 SickHCS
p2228
sg43
Nssg220
(lp2229
I2758383128
asg222
I00
sg223
I01
sg224
I1
sg225
I0
sg226
I1
sg227
(dp2230
Vy
F1.6844955699999999
sVx
F-5.9767055500000001
sVz
F0.028110593600000001
ssg229
(dp2231
Vy
F0.40256160000000002
sVx
F-6.0618343399999999
sVz
F0.0108321309
ssg231
I00
sg232
(dp2232
g41
VnV Pistola HCS
p2233
sg43
Nssg235
(lp2234
sg237
(lp2235
(dp2236
g41
VOG ACE HCS
p2237
sg43
Nsasg241
I00
sg35
VPT2M5.3944086S
p2238
sg32
VDeath
p2239
sg244
I1
sa(dp2240
g38
I313138863
sg32
VWeaponDrop
p2241
sg180
I1
sg44
(lp2242
I1095363701
asg35
VPT2M5.3964087S
p2243
sg183
I0
sg184
VP0DT0H0M3.8333S
p2244
sg39
(dp2245
g41
VnV Pistola HCS
p2246
sg43
Nssa(dp2247
g38
I4096745987
sg32
VWeaponDrop
p2248
sg180
I12
sg44
(lp2249
I2758383128
asg35
VPT2M5.3964087S
p2250
sg183
I7
sg184
VP0DT0H0M18.2000S
p2251
sg39
(dp2252
g41
VnV Pistola HCS
p2253
sg43
Nssa(dp2254
g38
I313138863
sg39
(dp2255
g41
VnV Mikwen HCS
p2256
sg43
Nssg44
(lp2257
I1095363701
asg32
VWeaponPickup
p2258
sg35
VPT2M5.8114174S
p2259
sa(dp2260
g38
I4096745987
sg39
(dp2261
g41
VnV Mikwen HCS
p2262
sg43
Nssg44
(lp2263
I2758383128
asg32
VWeaponPickup
p2264
sg35
VPT2M5.8114174S
p2265
sa(dp2266
g32
VPlayerSpawn
p2267
sg39
(dp2268
g41
VnV Mikwen HCS
p2269
sg43
Nssg35
VPT2M5.8114174S
p2270
sa(dp2271
g38
I2244200496
sg39
(dp2272
g41
VOG ACE HCS
p2273
sg43
Nssg44
(lp2274
I2758383128
asg32
VWeaponPickup
p2275
sg35
VPT2M5.8594156S
p2276
sa(dp2277
g32
VImpulse
p2278
sg39
(dp2279
g41
VOG ACE HCS
p2280
sg43
Nssg249
I4191318012
sg35
VPT2M5.8604184S
p2281
sa(dp2282
g38
I2244200496
sg32
VWeaponDrop
p2283
sg180
I0
sg44
(lp2284
I2758383128
asg35
VPT2M6.4924279S
p2285
sg183
I0
sg184
VP0DT0H0M0.4833S
p2286
sg39
(dp2287
g41
VOG ACE HCS
p2288
sg43
Nssa(dp2289
g32
VImpulse
p2290
sg39
(dp2291
g41
VOG ACE HCS
p2292
sg43
Nssg249
I3435524855
sg35
VPT2M6.4934301S
p2293
sa(dp2294
g38
I2244200496
sg39
(dp2295
g41
VOG ACE HCS
p2296
sg43
Nssg44
(lp2297
I2758383128
asg32
VWeaponPickup
p2298
sg35
VPT2M8.2764578S
p2299
sa(dp2300
g32
VImpulse
p2301
sg39
(dp2302
g41
VOG ACE HCS
p2303
sg43
Nssg249
I4191318012
sg35
VPT2M8.277459S
p2304
sa(dp2305
g38
I2244200496
sg32
VWeaponDrop
p2306
sg180
I0
sg44
(lp2307
I2758383128
asg35
VPT2M8.7094626S
p2308
sg183
I0
sg184
VP0DT0H0M0.2833S
p2309
sg39
(dp2310
g41
VOG ACE HCS
p2311
sg43
Nssa(dp2312
g32
VImpulse
p2313
sg39
(dp2314
g41
VOG ACE HCS
p2315
sg43
Nssg249
I3435524855
sg35
VPT2M8.7104645S
p2316
sa(dp2317
g38
I2244200496
sg39
(dp2318
g41
VOG ACE HCS
p2319
sg43
Nssg44
(lp2320
I2758383128
asg32
VWeaponPickup
p2321
sg35
VPT2M10.8924902S
p2322
sa(dp2323
g32
VImpulse
p2324
sg39
(dp2325
g41
VOG ACE HCS
p2326
sg43
Nssg249
I4191318012
sg35
VPT2M10.8934927S
p2327
sa(dp2328
g214
I4106030681
sg215
I00
sg216
I00
sg217
(dp2329
g41
VnV Mikwen HCS
p2330
sg43
Nssg220
(lp2331
sg222
I00
sg223
I01
sg224
I1
sg225
I0
sg226
I1
sg227
(dp2332
Vy
F-3.0045299999999999
sVx
F-6.6624809999999997
sVz
F0.000592201948
ssg229
(dp2333
Vy
F3.620377
sVx
F-0.76390729999999996
sVz
F-0.0010834038300000001
ssg231
I00
sg232
(dp2334
g41
VOG Str8 SickHCS
p2335
sg43
Nssg235
(lp2336
sg237
(lp2337
sg241
I00
sg35
VPT2M12.0605072S
p2338
sg32
VDeath
p2339
sg244
I1
sa(dp2340
g38
I3484334713
sg32
VWeaponDrop
p2341
sg180
I1
sg44
(lp2342
I2758383128
asg35
VPT2M12.0625066S
p2343
sg183
I1
sg184
VP0DT0H0M5.3500S
p2344
sg39
(dp2345
g41
VOG Str8 SickHCS
p2346
sg43
Nssa(dp2347
g38
I4096745987
sg32
VWeaponDrop
p2348
sg180
I9
sg44
(lp2349
I2758383128
asg35
VPT2M12.0625066S
p2350
sg183
I6
sg184
VP0DT0H0M20.2667S
p2351
sg39
(dp2352
g41
VOG Str8 SickHCS
p2353
sg43
Nssa(dp2354
g38
I2244200496
sg32
VWeaponDrop
p2355
sg180
I1
sg44
(lp2356
I2758383128
asg35
VPT2M12.3425086S
p2357
sg183
I0
sg184
VP0DT0H0M1.3000S
p2358
sg39
(dp2359
g41
VOG ACE HCS
p2360
sg43
Nssa(dp2361
g32
VImpulse
p2362
sg39
(dp2363
g41
VOG ACE HCS
p2364
sg43
Nssg249
I3435524855
sg35
VPT2M12.3435107S
p2365
sa(dp2366
g38
I2244200496
sg39
(dp2367
g41
VOG ACE HCS
p2368
sg43
Nssg44
(lp2369
I2758383128
asg32
VWeaponPickup
p2370
sg35
VPT2M12.7775164S
p2371
sa(dp2372
g32
VImpulse
p2373
sg39
(dp2374
g41
VOG ACE HCS
p2375
sg43
Nssg249
I4191318012
sg35
VPT2M12.7775164S
p2376
sa(dp2377
g38
I313138863
sg39
(dp2378
g41
VnV Pistola HCS
p2379
sg43
Nssg44
(lp2380
I1095363701
asg32
VWeaponPickup
p2381
sg35
VPT2M13.4105244S
p2382
sa(dp2383
g38
I4096745987
sg39
(dp2384
g41
VnV Pistola HCS
p2385
sg43
Nssg44
(lp2386
I2758383128
asg32
VWeaponPickup
p2387
sg35
VPT2M13.4105244S
p2388
sa(dp2389
g32
VPlayerSpawn
p2390
sg39
(dp2391
g41
VnV Pistola HCS
p2392
sg43
Nssg35
VPT2M13.4115247S
p2393
sa(dp2394
g38
I2244200496
sg32
VWeaponDrop
p2395
sg180
I0
sg44
(lp2396
I2758383128
asg35
VPT2M13.6595255S
p2397
sg183
I0
sg184
VP0DT0H0M0.7333S
p2398
sg39
(dp2399
g41
VOG ACE HCS
p2400
sg43
Nssa(dp2401
g32
VImpulse
p2402
sg39
(dp2403
g41
VOG ACE HCS
p2404
sg43
Nssg249
I3435524855
sg35
VPT2M13.6595255S
p2405
sa(dp2406
g38
I4096745987
sg32
VWeaponDrop
p2407
sg180
I0
sg44
(lp2408
I2758383128
asg35
VPT2M15.0255431S
p2409
sg183
I0
sg184
VP0DT0H0M0.9667S
p2410
sg39
(dp2411
g41
VnV Pistola HCS
p2412
sg43
Nssa(dp2413
g38
I523953283
sg39
(dp2414
g41
VnV Pistola HCS
p2415
sg43
Nssg44
(lp2416
I1327094800
asg32
VWeaponPickup
p2417
sg35
VPT2M15.0265467S
p2418
sa(dp2419
g214
I4106030681
sg215
I00
sg216
I00
sg217
(dp2420
g41
VOG Maniac HCS
p2421
sg43
Nssg220
(lp2422
sg222
I00
sg223
I00
sg224
I2
sg225
I0
sg226
I0
sg227
(dp2423
Vy
F-2.2873329999999998
sVx
F5.3469860000000002
sVz
F2.3999881699999999
ssg229
(dp2424
Vy
F3.0374236099999998
sVx
F-5.5538449999999999
sVz
F6.103637
ssg231
I00
sg232
(dp2425
g478
g479
ssg235
(lp2426
sg237
(lp2427
sg241
I00
sg35
VPT2M15.310549S
p2428
sg32
VDeath
p2429
sg244
I1
sa(dp2430
g38
I2244200496
sg39
(dp2431
g41
VOG ACE HCS
p2432
sg43
Nssg44
(lp2433
I2758383128
asg32
VWeaponPickup
p2434
sg35
VPT2M15.3595525S
p2435
sa(dp2436
g32
VImpulse
p2437
sg39
(dp2438
g41
VOG ACE HCS
p2439
sg43
Nssg249
I4191318012
sg35
VPT2M15.3605502S
p2440
sa(dp2441
g38
I2244200496
sg32
VWeaponDrop
p2442
sg180
I0
sg44
(lp2443
I2758383128
asg35
VPT2M15.8925541S
p2444
sg183
I0
sg184
VP0DT0H0M0.3833S
p2445
sg39
(dp2446
g41
VOG ACE HCS
p2447
sg43
Nssa(dp2448
g32
VImpulse
p2449
sg39
(dp2450
g41
VOG ACE HCS
p2451
sg43
Nssg249
I3435524855
sg35
VPT2M15.8935558S
p2452
sa(dp2453
g214
I4096745987
sg215
I00
sg216
I00
sg217
(dp2454
g41
VOG ACE HCS
p2455
sg43
Nssg220
(lp2456
I2758383128
asg222
I00
sg223
I01
sg224
I1
sg225
I0
sg226
I1
sg227
(dp2457
Vy
F11.970138499999999
sVx
F0.40329530000000002
sVz
F2.3530032599999999
ssg229
(dp2458
Vy
F9.7441434900000008
sVx
F-1.0805929999999999
sVz
F1.6000051500000001
ssg231
I00
sg232
(dp2459
g41
VnV RayneHCS
p2460
sg43
Nssg235
(lp2461
sg237
(lp2462
(dp2463
g41
VOG APG HCS
p2464
sg43
Nsasg241
I01
sg35
VPT2M19.1935986S
p2465
sg32
VDeath
p2466
sg244
I1
sa(dp2467
g32
VMedal
p2468
sg39
(dp2469
g41
VOG ACE HCS
p2470
sg43
Nssg255
I3261908037
sg35
VPT2M19.1955978S
p2471
sa(dp2472
g38
I313138863
sg32
VWeaponDrop
p2473
sg180
I4
sg44
(lp2474
I1095363701
asg35
VPT2M19.1955978S
p2475
sg183
I0
sg184
VP0DT0H0M7.4167S
p2476
sg39
(dp2477
g41
VnV RayneHCS
p2478
sg43
Nssa(dp2479
g38
I4096745987
sg32
VWeaponDrop
p2480
sg180
I5
sg44
(lp2481
I2758383128
asg35
VPT2M19.1955978S
p2482
sg183
I2
sg184
VP0DT0H0M10.4500S
p2483
sg39
(dp2484
g41
VnV RayneHCS
p2485
sg43
Nssa(dp2486
g38
I313138863
sg39
(dp2487
g41
VOG Str8 SickHCS
p2488
sg43
Nssg44
(lp2489
I1095363701
asg32
VWeaponPickup
p2490
sg35
VPT2M20.07761S
p2491
sa(dp2492
g38
I4096745987
sg39
(dp2493
g41
VOG Str8 SickHCS
p2494
sg43
Nssg44
(lp2495
I2758383128
asg32
VWeaponPickup
p2496
sg35
VPT2M20.07761S
p2497
sa(dp2498
g32
VPlayerSpawn
p2499
sg39
(dp2500
g41
VOG Str8 SickHCS
p2501
sg43
Nssg35
VPT2M20.07761S
p2502
sa(dp2503
g214
I313138863
sg215
I00
sg216
I00
sg217
(dp2504
g41
VOG Maniac HCS
p2505
sg43
Nssg220
(lp2506
I1095363701
asg222
I00
sg223
I01
sg224
I1
sg225
I0
sg226
I1
sg227
(dp2507
Vy
F-3.8848321399999999
sVx
F-2.4325156200000002
sVz
F2.6855829999999998
ssg229
(dp2508
Vy
F-0.457497716
sVx
F-3.5304613100000002
sVz
F2.4093587400000001
ssg231
I00
sg232
(dp2509
g41
VnV eL ToWn
p2510
sg43
Nssg235
(lp2511
sg237
(lp2512
sg241
I00
sg35
VPT2M20.2947149S
p2513
sg32
VDeath
p2514
sg244
I1
sa(dp2515
g38
I313138863
sg32
VWeaponDrop
p2516
sg180
I34
sg44
(lp2517
I1095363701
asg35
VPT2M20.2966126S
p2518
sg183
I13
sg184
VP0DT0H0M6.9500S
p2519
sg39
(dp2520
g41
VnV eL ToWn
p2521
sg43
Nssa(dp2522
g38
I4096745987
sg32
VWeaponDrop
p2523
sg180
I10
sg44
(lp2524
I2758383128
asg35
VPT2M20.2966126S
p2525
sg183
I6
sg184
VP0DT0H0M19.4667S
p2526
sg39
(dp2527
g41
VnV eL ToWn
p2528
sg43
Nssa(dp2529
g214
I313138863
sg215
I00
sg216
I00
sg217
(dp2530
g41
VnV Pistola HCS
p2531
sg43
Nssg220
(lp2532
I1095363701
asg222
I00
sg223
I01
sg224
I1
sg225
I0
sg226
I1
sg227
(dp2533
Vy
F1.8971128500000001
sVx
F-2.7163840000000001
sVz
F2.4012663399999998
ssg229
(dp2534
Vy
F-3.6004123699999999
sVx
F-3.1477158099999998
sVz
F2.4845702599999999
ssg231
I00
sg232
(dp2535
g41
VOG Maniac HCS
p2536
sg43
Nssg235
(lp2537
sg237
(lp2538
(dp2539
g41
VnV eL ToWn
p2540
sg43
Nsasg241
I00
sg35
VPT2M21.5606291S
p2541
sg32
VDeath
p2542
sg244
I1
sa(dp2543
g38
I313138863
sg32
VWeaponDrop
p2544
sg180
I30
sg44
(lp2545
I1095363701
asg35
VPT2M21.5626341S
p2546
sg183
I13
sg184
VP0DT0H0M8.7500S
p2547
sg39
(dp2548
g41
VOG Maniac HCS
p2549
sg43
Nssa(dp2550
g38
I4096745987
sg32
VWeaponDrop
p2551
sg180
I1
sg44
(lp2552
I2758383128
asg35
VPT2M21.5626341S
p2553
sg183
I0
sg184
VP0DT0H0M10.0833S
p2554
sg39
(dp2555
g41
VOG Maniac HCS
p2556
sg43
Nssa(dp2557
g38
I313138863
sg32
VWeaponDrop
p2558
sg180
I6
sg44
(lp2559
I1095363701
asg35
VPT2M22.8086431S
p2560
sg183
I2
sg184
VP0DT0H0M2.3167S
p2561
sg39
(dp2562
g41
VnV Pistola HCS
p2563
sg43
Nssa(dp2564
g38
I723523180
sg39
(dp2565
g41
VnV Pistola HCS
p2566
sg43
Nssg44
(lp2567
I2758383128
asg32
VWeaponPickupPad
p2568
sg35
VPT2M22.8096448S
p2569
sa(dp2570
g38
I723523180
sg39
(dp2571
g41
VnV Pistola HCS
p2572
sg43
Nssg44
(lp2573
I2758383128
asg32
VWeaponPickup
p2574
sg35
VPT2M22.8096448S
p2575
sa(dp2576
g214
I4106030681
sg215
I00
sg216
I00
sg217
(dp2577
g41
VOG ACE HCS
p2578
sg43
Nssg220
(lp2579
sg222
I00
sg223
I00
sg224
I2
sg225
I0
sg226
I0
sg227
(dp2580
Vy
F8.5231899999999996
sVx
F0.69743114699999997
sVz
F1.600004
ssg229
(dp2581
Vy
F12.0920773
sVx
F2.2145242700000001
sVz
F4.2908379999999999
ssg231
I00
sg232
(dp2582
g478
g479
ssg235
(lp2583
sg237
(lp2584
sg241
I00
sg35
VPT2M23.0266476S
p2585
sg32
VDeath
p2586
sg244
I1
sa(dp2587
g32
VMedal
p2588
sg39
(dp2589
g41
VnV Mikwen HCS
p2590
sg43
Nssg255
I2380717523
sg35
VPT2M25.6596957S
p2591
sa(dp2592
g32
VImpulse
p2593
sg39
(dp2594
g41
VnV Mikwen HCS
p2595
sg43
Nssg249
I1063951891
sg35
VPT2M25.6596957S
p2596
sa(dp2597
g214
I313138863
sg215
I01
sg216
I00
sg217
(dp2598
g41
VnV Mikwen HCS
p2599
sg43
Nssg220
(lp2600
I1095363701
asg222
I00
sg223
I00
sg224
I1
sg225
I0
sg226
I1
sg227
(dp2601
Vy
F16.165040999999999
sVx
F1.70259285
sVz
F1.6921037400000001
ssg229
(dp2602
Vy
F16.0186882
sVx
F2.0428485900000002
sVz
F1.6027860599999999
ssg231
I00
sg232
(dp2603
g41
VOG ACE HCS
p2604
sg43
Nssg235
(lp2605
sg237
(lp2606
(dp2607
g41
VnV Pistola HCS
p2608
sg43
Nsasg241
I00
sg35
VPT2M26.3597086S
p2609
sg32
VDeath
p2610
sg244
I1
sa(dp2611
g32
VMedal
p2612
sg39
(dp2613
g41
VnV Mikwen HCS
p2614
sg43
Nssg255
I3270120991
sg35
VPT2M26.3617084S
p2615
sa(dp2616
g38
I313138863
sg32
VWeaponDrop
p2617
sg180
I8
sg44
(lp2618
I1095363701
asg35
VPT2M26.3617084S
p2619
sg183
I2
sg184
VP0DT0H0M3.7000S
p2620
sg39
(dp2621
g41
VOG ACE HCS
p2622
sg43
Nssa(dp2623
g38
I4096745987
sg32
VWeaponDrop
p2624
sg180
I16
sg44
(lp2625
I2758383128
asg35
VPT2M26.3627092S
p2626
sg183
I10
sg184
VP0DT0H0M30.6167S
p2627
sg39
(dp2628
g41
VOG ACE HCS
p2629
sg43
Nssa(dp2630
g38
I2492868984
sg39
(dp2631
g41
VOG APG HCS
p2632
sg43
Nssg44
(lp2633
I2758383128
asg32
VWeaponPickup
p2634
sg35
VPT2M26.4097098S
p2635
sa(dp2636
g38
I313138863
sg39
(dp2637
g41
VnV RayneHCS
p2638
sg43
Nssg44
(lp2639
I1095363701
asg32
VWeaponPickup
p2640
sg35
VPT2M27.2107259S
p2641
sa(dp2642
g38
I4096745987
sg39
(dp2643
g41
VnV RayneHCS
p2644
sg43
Nssg44
(lp2645
I2758383128
asg32
VWeaponPickup
p2646
sg35
VPT2M27.2107259S
p2647
sa(dp2648
g32
VPlayerSpawn
p2649
sg39
(dp2650
g41
VnV RayneHCS
p2651
sg43
Nssg35
VPT2M27.2107259S
p2652
sa(dp2653
g38
I2492868984
sg32
VWeaponDrop
p2654
sg180
I0
sg44
(lp2655
I2758383128
asg35
VPT2M27.5607319S
p2656
sg183
I0
sg184
VP0DT0H0M0.9833S
p2657
sg39
(dp2658
g41
VOG APG HCS
p2659
sg43
Nssa(dp2660
g214
I4096745987
sg215
I00
sg216
I00
sg217
(dp2661
g41
VOG APG HCS
p2662
sg43
Nssg220
(lp2663
I2758383128
asg222
I00
sg223
I01
sg224
I1
sg225
I0
sg226
I1
sg227
(dp2664
Vy
F-0.15546047700000001
sVx
F2.39838314
sVz
F0.0511934161
ssg229
(dp2665
Vy
F6.9558980000000004
sVx
F0.19716689000000001
sVz
F0.048628002400000002
ssg231
I00
sg232
(dp2666
g41
VnV Pistola HCS
p2667
sg43
Nssg235
(lp2668
sg237
(lp2669
(dp2670
g41
VOG Str8 SickHCS
p2671
sg43
Nsasg241
I01
sg35
VPT2M28.2597446S
p2672
sg32
VDeath
p2673
sg244
I1
sa(dp2674
g32
VMedal
p2675
sg39
(dp2676
g41
VOG APG HCS
p2677
sg43
Nssg255
I3261908037
sg35
VPT2M28.2617449S
p2678
sa(dp2679
g38
I723523180
sg32
VWeaponDrop
p2680
sg180
I2
sg44
(lp2681
I2758383128
asg35
VPT2M28.2617449S
p2682
sg183
I1
sg184
VP0DT0H0M5.4500S
p2683
sg39
(dp2684
g41
VnV Pistola HCS
p2685
sg43
Nssa(dp2686
g38
I523953283
sg32
VWeaponDrop
p2687
sg180
I0
sg44
(lp2688
I1327094800
asg35
VPT2M28.2617449S
p2689
sg183
I0
sg184
VP0DT0H0M6.1167S
p2690
sg39
(dp2691
g41
VnV Pistola HCS
p2692
sg43
Nssa(dp2693
g38
I313138863
sg39
(dp2694
g41
VnV eL ToWn
p2695
sg43
Nssg44
(lp2696
I1095363701
asg32
VWeaponPickup
p2697
sg35
VPT2M28.3107469S
p2698
sa(dp2699
g38
I4096745987
sg39
(dp2700
g41
VnV eL ToWn
p2701
sg43
Nssg44
(lp2702
I2758383128
asg32
VWeaponPickup
p2703
sg35
VPT2M28.3107469S
p2704
sa(dp2705
g32
VPlayerSpawn
p2706
sg39
(dp2707
g41
VnV eL ToWn
p2708
sg43
Nssg35
VPT2M28.3107469S
p2709
sa(dp2710
g38
I313138863
sg39
(dp2711
g41
VOG Maniac HCS
p2712
sg43
Nssg44
(lp2713
I1095363701
asg32
VWeaponPickup
p2714
sg35
VPT2M29.5767716S
p2715
sa(dp2716
g38
I4096745987
sg39
(dp2717
g41
VOG Maniac HCS
p2718
sg43
Nssg44
(lp2719
I2758383128
asg32
VWeaponPickup
p2720
sg35
VPT2M29.5777713S
p2721
sa(dp2722
g32
VPlayerSpawn
p2723
sg39
(dp2724
g41
VOG Maniac HCS
p2725
sg43
Nssg35
VPT2M29.5777713S
p2726
sa(dp2727
g38
I313138863
sg32
VWeaponDrop
p2728
sg180
I0
sg44
(lp2729
I1095363701
asg35
VPT2M32.1758193S
p2730
sg183
I0
sg184
VP0DT0H0M11.3667S
p2731
sg39
(dp2732
g41
VOG APG HCS
p2733
sg43
Nssa(dp2734
g38
I523953283
sg39
(dp2735
g41
VOG APG HCS
p2736
sg43
Nssg44
(lp2737
I1327094800
asg32
VWeaponPickup
p2738
sg35
VPT2M32.1758193S
p2739
sa(dp2740
g38
I313138863
sg39
(dp2741
g41
VOG ACE HCS
p2742
sg43
Nssg44
(lp2743
I1095363701
asg32
VWeaponPickup
p2744
sg35
VPT2M34.3768636S
p2745
sa(dp2746
g38
I4096745987
sg39
(dp2747
g41
VOG ACE HCS
p2748
sg43
Nssg44
(lp2749
I2758383128
asg32
VWeaponPickup
p2750
sg35
VPT2M34.377868S
p2751
sa(dp2752
g32
VPlayerSpawn
p2753
sg39
(dp2754
g41
VOG ACE HCS
p2755
sg43
Nssg35
VPT2M34.377868S
p2756
sa(dp2757
g38
I523953283
sg32
VWeaponDrop
p2758
sg180
I1
sg44
(lp2759
I1327094800
asg35
VPT2M34.9588723S
p2760
sg183
I0
sg184
VP0DT0H0M2.7833S
p2761
sg39
(dp2762
g41
VOG APG HCS
p2763
sg43
Nssa(dp2764
g38
I723523180
sg39
(dp2765
g41
VOG APG HCS
p2766
sg43
Nssg44
(lp2767
I2758383128
asg32
VWeaponPickup
p2768
sg35
VPT2M34.9588723S
p2769
sa(dp2770
g38
I313138863
sg39
(dp2771
g41
VnV Pistola HCS
p2772
sg43
Nssg44
(lp2773
I1095363701
asg32
VWeaponPickup
p2774
sg35
VPT2M36.2769045S
p2775
sa(dp2776
g38
I4096745987
sg39
(dp2777
g41
VnV Pistola HCS
p2778
sg43
Nssg44
(lp2779
I2758383128
asg32
VWeaponPickup
p2780
sg35
VPT2M36.2769045S
p2781
sa(dp2782
g32
VPlayerSpawn
p2783
sg39
(dp2784
g41
VnV Pistola HCS
p2785
sg43
Nssg35
VPT2M36.2769045S
p2786
sa(dp2787
g38
I313138863
sg32
VWeaponDrop
p2788
sg180
I0
sg44
(lp2789
I1095363701
asg35
VPT2M37.1089139S
p2790
sg183
I0
sg184
VP0DT0H0M2.1167S
p2791
sg39
(dp2792
g41
VnV eL ToWn
p2793
sg43
Nssa(dp2794
g38
I3484334713
sg39
(dp2795
g41
VnV eL ToWn
p2796
sg43
Nssg44
(lp2797
I2758383128
asg32
VWeaponPickup
p2798
sg35
VPT2M37.1089139S
p2799
sa(dp2800
g214
I3484334713
sg215
I00
sg216
I00
sg217
(dp2801
g41
VnV eL ToWn
p2802
sg43
Nssg220
(lp2803
I2758383128
asg222
I00
sg223
I01
sg224
I1
sg225
I0
sg226
I1
sg227
(dp2804
Vy
F5.0782156000000001
sVx
F1.4041380000000001
sVz
F0.8533404
ssg229
(dp2805
Vy
F7.1670179999999997
sVx
F1.5712063300000001
sVz
F-0.79571449999999999
ssg231
I00
sg232
(dp2806
g41
VOG APG HCS
p2807
sg43
Nssg235
(lp2808
sg237
(lp2809
(dp2810
g41
VnV RayneHCS
p2811
sg43
Nsa(dp2812
g41
VnV Mikwen HCS
p2813
sg43
Nsasg241
I00
sg35
VPT2M37.9599314S
p2814
sg32
VDeath
p2815
sg244
I1
sa(dp2816
g38
I723523180
sg32
VWeaponDrop
p2817
sg180
I0
sg44
(lp2818
I2758383128
asg35
VPT2M37.9619313S
p2819
sg183
I0
sg184
VP0DT0H0M3.0000S
p2820
sg39
(dp2821
g41
VOG APG HCS
p2822
sg43
Nssa(dp2823
g38
I4096745987
sg32
VWeaponDrop
p2824
sg180
I13
sg44
(lp2825
I2758383128
asg35
VPT2M37.9619313S
p2826
sg183
I5
sg184
VP0DT0H0M20.9833S
p2827
sg39
(dp2828
g41
VOG APG HCS
p2829
sg43
Nssa(dp2830
g38
I313138863
sg32
VWeaponDrop
p2831
sg180
I28
sg44
(lp2832
I1095363701
asg35
VPT2M38.5119412S
p2833
sg183
I7
sg184
VP0DT0H0M15.7667S
p2834
sg39
(dp2835
g41
VnV Mikwen HCS
p2836
sg43
Nssa(dp2837
g38
I313138863
sg32
VWeaponDrop
p2838
sg180
I0
sg44
(lp2839
I1095363701
asg35
VPT2M38.5119412S
p2840
sg183
I0
sg184
VP0DT0S
p2841
sg39
(dp2842
g41
VnV Mikwen HCS
p2843
sg43
Nssa(dp2844
g38
I723523180
sg39
(dp2845
g41
VnV Mikwen HCS
p2846
sg43
Nssg44
(lp2847
I2758383128
asg32
VWeaponPickup
p2848
sg35
VPT2M38.5119412S
p2849
sa(dp2850
g214
I723523180
sg215
I00
sg216
I00
sg217
(dp2851
g41
VnV Mikwen HCS
p2852
sg43
Nssg220
(lp2853
I2758383128
asg222
I00
sg223
I01
sg224
I1
sg225
I0
sg226
I1
sg227
(dp2854
Vy
F5.6061377500000003
sVx
F1.19320834
sVz
F-0.01064384
ssg229
(dp2855
Vy
F8.5284510000000004
sVx
F1.1462336799999999
sVz
F-0.12374474100000001
ssg231
I00
sg232
(dp2856
g41
VOG Str8 SickHCS
p2857
sg43
Nssg235
(lp2858
sg237
(lp2859
sg241
I00
sg35
VPT2M39.6769648S
p2860
sg32
VDeath
p2861
sg244
I1
sa(dp2862
g38
I313138863
sg32
VWeaponDrop
p2863
sg180
I26
sg44
(lp2864
I1095363701
asg35
VPT2M39.6779641S
p2865
sg183
I11
sg184
VP0DT0H0M10.6500S
p2866
sg39
(dp2867
g41
VOG Str8 SickHCS
p2868
sg43
Nssa(dp2869
g38
I4096745987
sg32
VWeaponDrop
p2870
sg180
I8
sg44
(lp2871
I2758383128
asg35
VPT2M39.6779641S
p2872
sg183
I5
sg184
VP0DT0H0M8.9500S
p2873
sg39
(dp2874
g41
VOG Str8 SickHCS
p2875
sg43
Nssa(dp2876
g214
I313138863
sg215
I00
sg216
I00
sg217
(dp2877
g41
VOG Str8 SickHCS
p2878
sg43
Nssg220
(lp2879
I1095363701
asg222
I00
sg223
I01
sg224
I1
sg225
I0
sg226
I1
sg227
(dp2880
Vy
F8.5284510000000004
sVx
F1.1462336799999999
sVz
F-0.05814474
ssg229
(dp2881
Vy
F5.6061377500000003
sVx
F1.19320834
sVz
F-0.01064384
ssg231
I00
sg232
(dp2882
g41
VnV Mikwen HCS
p2883
sg43
Nssg235
(lp2884
sg237
(lp2885
(dp2886
g41
VOG Maniac HCS
p2887
sg43
Nsasg241
I00
sg35
VPT2M39.678965S
p2888
sg32
VDeath
p2889
sg244
I1
sa(dp2890
g38
I723523180
sg32
VWeaponDrop
p2891
sg180
I1
sg44
(lp2892
I2758383128
asg35
VPT2M39.6799648S
p2893
sg183
I1
sg184
VP0DT0H0M1.1667S
p2894
sg39
(dp2895
g41
VnV Mikwen HCS
p2896
sg43
Nssa(dp2897
g38
I4096745987
sg32
VWeaponDrop
p2898
sg180
I6
sg44
(lp2899
I2758383128
asg35
VPT2M39.6799648S
p2900
sg183
I4
sg184
VP0DT0H0M16.9333S
p2901
sg39
(dp2902
g41
VnV Mikwen HCS
p2903
sg43
Nssa(dp2904
g214
I4106030681
sg215
I00
sg216
I00
sg217
(dp2905
g41
VOG ACE HCS
p2906
sg43
Nssg220
(lp2907
sg222
I00
sg223
I00
sg224
I2
sg225
I0
sg226
I0
sg227
(dp2908
Vy
F-3.7877132900000001
sVx
F11.2375317
sVz
F2.2191004799999998
ssg229
(dp2909
Vy
F-10.789844499999999
sVx
F16.322803499999999
sVz
F4.230613
ssg231
I00
sg232
(dp2910
g478
g479
ssg235
(lp2911
sg237
(lp2912
sg241
I00
sg35
VPT2M43.1930323S
p2913
sg32
VDeath
p2914
sg244
I1
sa(dp2915
g214
I4106030681
sg215
I00
sg216
I00
sg217
(dp2916
g41
VOG ACE HCS
p2917
sg43
Nssg220
(lp2918
sg222
I00
sg223
I00
sg224
I2
sg225
I0
sg226
I0
sg227
(dp2919
Vy
F-3.7877132900000001
sVx
F11.2375317
sVz
F2.2191004799999998
ssg229
(dp2920
Vy
F-10.7179632
sVx
F16.609210999999998
sVz
F4.230613
ssg231
I00
sg232
(dp2921
g478
g479
ssg235
(lp2922
sg237
(lp2923
sg241
I00
sg35
VPT2M43.1930323S
p2924
sg32
VDeath
p2925
sg244
I1
sa(dp2926
g214
I4106030681
sg215
I00
sg216
I00
sg217
(dp2927
g41
VOG Maniac HCS
p2928
sg43
Nssg220
(lp2929
sg222
I00
sg223
I01
sg224
I1
sg225
I0
sg226
I1
sg227
(dp2930
Vy
F12.0760212
sVx
F1.5363681300000001
sVz
F1.5998705600000001
ssg229
(dp2931
Vy
F5.1100919999999999
sVx
F0.32818508099999999
sVz
F0.85874519999999999
ssg231
I00
sg232
(dp2932
g41
VnV eL ToWn
p2933
sg43
Nssg235
(lp2934
sg237
(lp2935
sg241
I00
sg35
VPT2M45.1430698S
p2936
sg32
VDeath
p2937
sg244
I1
sa(dp2938
g38
I3484334713
sg32
VWeaponDrop
p2939
sg180
I1
sg44
(lp2940
I2758383128
asg35
VPT2M45.1440698S
p2941
sg183
I1
sg184
VP0DT0H0M8.0333S
p2942
sg39
(dp2943
g41
VnV eL ToWn
p2944
sg43
Nssa(dp2945
g38
I4096745987
sg32
VWeaponDrop
p2946
sg180
I2
sg44
(lp2947
I2758383128
asg35
VPT2M45.1440698S
p2948
sg183
I0
sg184
VP0DT0H0M6.6833S
p2949
sg39
(dp2950
g41
VnV eL ToWn
p2951
sg43
Nssa(dp2952
g38
I313138863
sg39
(dp2953
g41
VOG APG HCS
p2954
sg43
Nssg44
(lp2955
I1095363701
asg32
VWeaponPickup
p2956
sg35
VPT2M45.9770863S
p2957
sa(dp2958
g38
I4096745987
sg39
(dp2959
g41
VOG APG HCS
p2960
sg43
Nssg44
(lp2961
I2758383128
asg32
VWeaponPickup
p2962
sg35
VPT2M45.9770863S
p2963
sa(dp2964
g32
VPlayerSpawn
p2965
sg39
(dp2966
g41
VOG APG HCS
p2967
sg43
Nssg35
VPT2M45.9770863S
p2968
sa(dp2969
g214
I313138863
sg215
I00
sg216
I00
sg217
(dp2970
g41
VnV Pistola HCS
p2971
sg43
Nssg220
(lp2972
I1095363701
asg222
I00
sg223
I01
sg224
I1
sg225
I0
sg226
I1
sg227
(dp2973
Vy
F10.1280413
sVx
F-1.0288575900000001
sVz
F1.6000051500000001
ssg229
(dp2974
Vy
F13.6785221
sVx
F0.67984440000000002
sVz
F1.5749518899999999
ssg231
I00
sg232
(dp2975
g41
VOG Maniac HCS
p2976
sg43
Nssg235
(lp2977
sg237
(lp2978
sg241
I00
sg35
VPT2M46.3780935S
p2979
sg32
VDeath
p2980
sg244
I1
sa(dp2981
g38
I313138863
sg32
VWeaponDrop
p2982
sg180
I11
sg44
(lp2983
I1095363701
asg35
VPT2M46.3800934S
p2984
sg183
I7
sg184
VP0DT0H0M6.5167S
p2985
sg39
(dp2986
g41
VOG Maniac HCS
p2987
sg43
Nssa(dp2988
g38
I4096745987
sg32
VWeaponDrop
p2989
sg180
I3
sg44
(lp2990
I2758383128
asg35
VPT2M46.3800934S
p2991
sg183
I1
sg184
VP0DT0H0M10.2833S
p2992
sg39
(dp2993
g41
VOG Maniac HCS
p2994
sg43
Nssa(dp2995
g38
I313138863
sg39
(dp2996
g41
VOG Str8 SickHCS
p2997
sg43
Nssg44
(lp2998
I1095363701
asg32
VWeaponPickup
p2999
sg35
VPT2M47.6931187S
p3000
sa(dp3001
g38
I4096745987
sg39
(dp3002
g41
VOG Str8 SickHCS
p3003
sg43
Nssg44
(lp3004
I2758383128
asg32
VWeaponPickup
p3005
sg35
VPT2M47.6931187S
p3006
sa(dp3007
g32
VPlayerSpawn
p3008
sg39
(dp3009
g41
VOG Str8 SickHCS
p3010
sg43
Nssg35
VPT2M47.6931187S
p3011
sa(dp3012
g38
I313138863
sg39
(dp3013
g41
VnV Mikwen HCS
p3014
sg43
Nssg44
(lp3015
I1095363701
asg32
VWeaponPickup
p3016
sg35
VPT2M47.726119S
p3017
sa(dp3018
g38
I4096745987
sg39
(dp3019
g41
VnV Mikwen HCS
p3020
sg43
Nssg44
(lp3021
I2758383128
asg32
VWeaponPickup
p3022
sg35
VPT2M47.7271197S
p3023
sa(dp3024
g32
VPlayerSpawn
p3025
sg39
(dp3026
g41
VnV Mikwen HCS
p3027
sg43
Nssg35
VPT2M47.7271197S
p3028
sa(dp3029
g214
I313138863
sg215
I00
sg216
I01
sg217
(dp3030
g41
VnV RayneHCS
p3031
sg43
Nssg220
(lp3032
I1095363701
asg222
I00
sg223
I00
sg224
I1
sg225
I0
sg226
I1
sg227
(dp3033
Vy
F-9.1870150000000006
sVx
F2.52779818
sVz
F0.005199909
ssg229
(dp3034
Vy
F-9.2823049999999991
sVx
F2.084047
sVz
F-0.0010834038300000001
ssg231
I00
sg232
(dp3035
g41
VOG ACE HCS
p3036
sg43
Nssg235
(lp3037
sg237
(lp3038
sg241
I00
sg35
VPT2M50.6601759S
p3039
sg32
VDeath
p3040
sg244
I1
sa(dp3041
g32
VMedal
p3042
sg39
(dp3043
g41
VnV RayneHCS
p3044
sg43
Nssg255
I2782465081
sg35
VPT2M50.6611759S
p3045
sa(dp3046
g32
VMedal
p3047
sg39
(dp3048
g41
VnV RayneHCS
p3049
sg43
Nssg255
I250435527
sg35
VPT2M50.6621754S
p3050
sa(dp3051
g38
I313138863
sg32
VWeaponDrop
p3052
sg180
I18
sg44
(lp3053
I1095363701
asg35
VPT2M50.6621754S
p3054
sg183
I5
sg184
VP0DT0H0M6.5000S
p3055
sg39
(dp3056
g41
VOG ACE HCS
p3057
sg43
Nssa(dp3058
g38
I4096745987
sg32
VWeaponDrop
p3059
sg180
I1
sg44
(lp3060
I2758383128
asg35
VPT2M50.665375S
p3061
sg183
I0
sg184
VP0DT0H0M9.7833S
p3062
sg39
(dp3063
g41
VOG ACE HCS
p3064
sg43
Nssa(dp3065
g38
I313138863
sg39
(dp3066
g41
VnV eL ToWn
p3067
sg43
Nssg44
(lp3068
I1095363701
asg32
VWeaponPickup
p3069
sg35
VPT2M53.1602239S
p3070
sa(dp3071
g38
I4096745987
sg39
(dp3072
g41
VnV eL ToWn
p3073
sg43
Nssg44
(lp3074
I2758383128
asg32
VWeaponPickup
p3075
sg35
VPT2M53.1602239S
p3076
sa(dp3077
g32
VPlayerSpawn
p3078
sg39
(dp3079
g41
VnV eL ToWn
p3080
sg43
Nssg35
VPT2M53.1602239S
p3081
sa(dp3082
g38
I313138863
sg39
(dp3083
g41
VOG Maniac HCS
p3084
sg43
Nssg44
(lp3085
I1095363701
asg32
VWeaponPickup
p3086
sg35
VPT2M54.3932481S
p3087
sa(dp3088
g38
I4096745987
sg39
(dp3089
g41
VOG Maniac HCS
p3090
sg43
Nssg44
(lp3091
I2758383128
asg32
VWeaponPickup
p3092
sg35
VPT2M54.3932481S
p3093
sa(dp3094
g32
VPlayerSpawn
p3095
sg39
(dp3096
g41
VOG Maniac HCS
p3097
sg43
Nssg35
VPT2M54.3932481S
p3098
sa(dp3099
g32
VMedal
p3100
sg39
(dp3101
g41
VnV RayneHCS
p3102
sg43
Nssg255
I3400287617
sg35
VPT2M54.7592632S
p3103
sa(dp3104
g214
I313138863
sg215
I00
sg216
I00
sg217
(dp3105
g41
VnV Pistola HCS
p3106
sg43
Nssg220
(lp3107
I1095363701
asg222
I00
sg223
I01
sg224
I1
sg225
I0
sg226
I1
sg227
(dp3108
Vy
F9.2349969999999999
sVx
F-0.36509934100000002
sVz
F1.6000067
ssg229
(dp3109
Vy
F12.4015436
sVx
F-5.8632989999999996
sVz
F1.6000051500000001
ssg231
I00
sg232
(dp3110
g41
VOG APG HCS
p3111
sg43
Nssg235
(lp3112
sg237
(lp3113
sg241
I00
sg35
VPT2M55.2442637S
p3114
sg32
VDeath
p3115
sg244
I1
sa(dp3116
g32
VImpulse
p3117
sg39
(dp3118
g41
VnV Pistola HCS
p3119
sg43
Nssg249
I2556889090
sg35
VPT2M55.2442637S
p3120
sa(dp3121
g32
VMedal
p3122
sg39
(dp3123
g41
VnV Pistola HCS
p3124
sg43
Nssg255
I2838259753
sg35
VPT2M55.2442637S
p3125
sa(dp3126
g32
VMedal
p3127
sg39
(dp3128
g41
VnV Mikwen HCS
p3129
sg43
Nssg255
I824733727
sg35
VPT2M55.2452632S
p3130
sa(dp3131
g38
I313138863
sg32
VWeaponDrop
p3132
sg180
I0
sg44
(lp3133
I1095363701
asg35
VPT2M55.246263S
p3134
sg183
I0
sg184
VP0DT0H0M5.0667S
p3135
sg39
(dp3136
g41
VOG APG HCS
p3137
sg43
Nssa(dp3138
g38
I4096745987
sg32
VWeaponDrop
p3139
sg180
I4
sg44
(lp3140
I2758383128
asg35
VPT2M55.246263S
p3141
sg183
I3
sg184
VP0DT0H0M4.2000S
p3142
sg39
(dp3143
g41
VOG APG HCS
p3144
sg43
Nssa(dp3145
g38
I4096745987
sg32
VWeaponDrop
p3146
sg180
I0
sg44
(lp3147
I2758383128
asg35
VPT2M55.7912724S
p3148
sg183
I0
sg184
VP0DT0H0M0.2500S
p3149
sg39
(dp3150
g41
VOG Maniac HCS
p3151
sg43
Nssa(dp3152
g38
I523953283
sg39
(dp3153
g41
VOG Maniac HCS
p3154
sg43
Nssg44
(lp3155
I1327094800
asg32
VWeaponPickup
p3156
sg35
VPT2M55.7922861S
p3157
sa(dp3158
g38
I313138863
sg39
(dp3159
g41
VOG ACE HCS
p3160
sg43
Nssg44
(lp3161
I1095363701
asg32
VWeaponPickup
p3162
sg35
VPT2M58.6763301S
p3163
sa(dp3164
g38
I4096745987
sg39
(dp3165
g41
VOG ACE HCS
p3166
sg43
Nssg44
(lp3167
I2758383128
asg32
VWeaponPickup
p3168
sg35
VPT2M58.6763301S
p3169
sa(dp3170
g32
VPlayerSpawn
p3171
sg39
(dp3172
g41
VOG ACE HCS
p3173
sg43
Nssg35
VPT2M58.6763301S
p3174
sa(dp3175
g214
I4106030681
sg215
I00
sg216
I00
sg217
(dp3176
g41
VOG Str8 SickHCS
p3177
sg43
Nssg220
(lp3178
sg222
I00
sg223
I01
sg224
I1
sg225
I0
sg226
I1
sg227
(dp3179
Vy
F16.0066223
sVx
F5.5565442999999997
sVz
F1.84448838
ssg229
(dp3180
Vy
F17.399902300000001
sVx
F-6.7012257599999998
sVz
F2.7364163399999999
ssg231
I00
sg232
(dp3181
g41
VnV Mikwen HCS
p3182
sg43
Nssg235
(lp3183
sg237
(lp3184
sg241
I00
sg35
VPT2M59.5103453S
p3185
sg32
VDeath
p3186
sg244
I1
sa(dp3187
g38
I313138863
sg32
VWeaponDrop
p3188
sg180
I0
sg44
(lp3189
I1095363701
asg35
VPT2M59.5123453S
p3190
sg183
I0
sg184
VP0DT0H0M2.7167S
p3191
sg39
(dp3192
g41
VnV Mikwen HCS
p3193
sg43
Nssa(dp3194
g38
I4096745987
sg32
VWeaponDrop
p3195
sg180
I11
sg44
(lp3196
I2758383128
asg35
VPT2M59.5123453S
p3197
sg183
I5
sg184
VP0DT0H0M9.0667S
p3198
sg39
(dp3199
g41
VnV Mikwen HCS
p3200
sg43
Nssa(dp3201
g38
I313138863
sg32
VWeaponDrop
p3202
sg180
I0
sg44
(lp3203
I1095363701
asg35
VPT3M1.40838S
p3204
sg183
I0
sg184
VP0DT0H0M1.4667S
p3205
sg39
(dp3206
g41
VnV eL ToWn
p3207
sg43
Nssa(dp3208
g38
I723523180
sg39
(dp3209
g41
VnV eL ToWn
p3210
sg43
Nssg44
(lp3211
I2758383128
asg32
VWeaponPickup
p3212
sg35
VPT3M1.40838S
p3213
sa(dp3214
g214
I4096745987
sg215
I00
sg216
I00
sg217
(dp3215
g41
VOG ACE HCS
p3216
sg43
Nssg220
(lp3217
I2758383128
asg222
I00
sg223
I01
sg224
I1
sg225
I0
sg226
I1
sg227
(dp3218
Vy
F13.1030245
sVx
F9.6971869999999996
sVz
F1.60006475
ssg229
(dp3219
Vy
F16.157959000000002
sVx
F5.7269782999999999
sVz
F0.99989223500000002
ssg231
I00
sg232
(dp3220
g41
VnV Pistola HCS
p3221
sg43
Nssg235
(lp3222
sg237
(lp3223
(dp3224
g41
VOG Str8 SickHCS
p3225
sg43
Nsasg241
I01
sg35
VPT3M1.8423947S
p3226
sg32
VDeath
p3227
sg244
I1
sa(dp3228
g32
VImpulse
p3229
sg39
(dp3230
g41
VOG ACE HCS
p3231
sg43
Nssg249
I2556889090
sg35
VPT3M1.8433907S
p3232
sa(dp3233
g32
VMedal
p3234
sg39
(dp3235
g41
VOG ACE HCS
p3236
sg43
Nssg255
I2838259753
sg35
VPT3M1.8433907S
p3237
sa(dp3238
g32
VMedal
p3239
sg39
(dp3240
g41
VOG ACE HCS
p3241
sg43
Nssg255
I3261908037
sg35
VPT3M1.8443899S
p3242
sa(dp3243
g38
I313138863
sg32
VWeaponDrop
p3244
sg180
I55
sg44
(lp3245
I1095363701
asg35
VPT3M1.8443899S
p3246
sg183
I34
sg184
VP0DT0H0M14.9000S
p3247
sg39
(dp3248
g41
VnV Pistola HCS
p3249
sg43
Nssa(dp3250
g38
I4096745987
sg32
VWeaponDrop
p3251
sg180
I2
sg44
(lp3252
I2758383128
asg35
VPT3M1.8443899S
p3253
sg183
I0
sg184
VP0DT0H0M10.6667S
p3254
sg39
(dp3255
g41
VnV Pistola HCS
p3256
sg43
Nssa(dp3257
g38
I313138863
sg39
(dp3258
g41
VOG APG HCS
p3259
sg43
Nssg44
(lp3260
I1095363701
asg32
VWeaponPickup
p3261
sg35
VPT3M3.2594179S
p3262
sa(dp3263
g38
I4096745987
sg39
(dp3264
g41
VOG APG HCS
p3265
sg43
Nssg44
(lp3266
I2758383128
asg32
VWeaponPickup
p3267
sg35
VPT3M3.2594179S
p3268
sa(dp3269
g32
VPlayerSpawn
p3270
sg39
(dp3271
g41
VOG APG HCS
p3272
sg43
Nssg35
VPT3M3.2594179S
p3273
sa(dp3274
g214
I4096745987
sg215
I00
sg216
I00
sg217
(dp3275
g41
VnV RayneHCS
p3276
sg43
Nssg220
(lp3277
I2758383128
asg222
I00
sg223
I01
sg224
I1
sg225
I0
sg226
I1
sg227
(dp3278
Vy
F-6.3768644300000004
sVx
F12.9275074
sVz
F2.3719109999999999
ssg229
(dp3279
Vy
F12.7831125
sVx
F9.4269020000000001
sVz
F1.6000585599999999
ssg231
I00
sg232
(dp3280
g41
VOG ACE HCS
p3281
sg43
Nssg235
(lp3282
sg237
(lp3283
sg241
I00
sg35
VPT3M3.6924248S
p3284
sg32
VDeath
p3285
sg244
I1
sa(dp3286
g38
I313138863
sg32
VWeaponDrop
p3287
sg180
I0
sg44
(lp3288
I1095363701
asg35
VPT3M3.6944257S
p3289
sg183
I0
sg184
VP0DT0H0M0.8500S
p3290
sg39
(dp3291
g41
VOG ACE HCS
p3292
sg43
Nssa(dp3293
g38
I4096745987
sg32
VWeaponDrop
p3294
sg180
I7
sg44
(lp3295
I2758383128
asg35
VPT3M3.6944257S
p3296
sg183
I3
sg184
VP0DT0H0M4.1667S
p3297
sg39
(dp3298
g41
VOG ACE HCS
p3299
sg43
Nssa(dp3300
g32
VMedal
p3301
sg39
(dp3302
g41
VOG Str8 SickHCS
p3303
sg43
Nssg255
I3400287617
sg35
VPT3M5.7584641S
p3304
sa(dp3305
g214
I723523180
sg215
I00
sg216
I00
sg217
(dp3306
g41
VnV eL ToWn
p3307
sg43
Nssg220
(lp3308
I2758383128
asg222
I00
sg223
I00
sg224
I2
sg225
I0
sg226
I0
sg227
(dp3309
Vy
F8.0120869999999993
sVx
F1.75925887
sVz
F1.6471817499999999
ssg229
(dp3310
Vy
F11.4310379
sVx
F6.9935026200000001
sVz
F4.3004800000000003
ssg231
I00
sg232
(dp3311
g478
g479
ssg235
(lp3312
sg237
(lp3313
sg241
I00
sg35
VPT3M7.2944952S
p3314
sg32
VDeath
p3315
sg244
I1
sa(dp3316
g214
I723523180
sg215
I00
sg216
I00
sg217
(dp3317
g41
VnV eL ToWn
p3318
sg43
Nssg220
(lp3319
I2758383128
asg222
I00
sg223
I00
sg224
I2
sg225
I0
sg226
I0
sg227
(dp3320
Vy
F8.0120869999999993
sVx
F1.75925887
sVz
F1.6471817499999999
ssg229
(dp3321
Vy
F11.367141699999999
sVx
F6.7261943799999999
sVz
F4.2533335699999997
ssg231
I00
sg232
(dp3322
g478
g479
ssg235
(lp3323
sg237
(lp3324
sg241
I00
sg35
VPT3M7.2944952S
p3325
sg32
VDeath
p3326
sg244
I1
sa(dp3327
g214
I723523180
sg215
I00
sg216
I00
sg217
(dp3328
g41
VnV eL ToWn
p3329
sg43
Nssg220
(lp3330
I2758383128
asg222
I00
sg223
I01
sg224
I1
sg225
I0
sg226
I1
sg227
(dp3331
Vy
F8.0120869999999993
sVx
F1.75925887
sVz
F1.6471817499999999
ssg229
(dp3332
Vy
F10.8641386
sVx
F5.7785460000000004
sVz
F2.2281002999999999
ssg231
I00
sg232
(dp3333
g41
VOG Str8 SickHCS
p3334
sg43
Nssg235
(lp3335
sg237
(lp3336
(dp3337
g41
VnV Pistola HCS
p3338
sg43
Nsasg241
I00
sg35
VPT3M7.2944952S
p3339
sg32
VDeath
p3340
sg244
I1
sa(dp3341
g38
I313138863
sg32
VWeaponDrop
p3342
sg180
I12
sg44
(lp3343
I1095363701
asg35
VPT3M7.2964945S
p3344
sg183
I8
sg184
VP0DT0H0M3.5333S
p3345
sg39
(dp3346
g41
VOG Str8 SickHCS
p3347
sg43
Nssa(dp3348
g38
I4096745987
sg32
VWeaponDrop
p3349
sg180
I8
sg44
(lp3350
I2758383128
asg35
VPT3M7.2964945S
p3351
sg183
I5
sg184
VP0DT0H0M16.0667S
p3352
sg39
(dp3353
g41
VOG Str8 SickHCS
p3354
sg43
Nssa(dp3355
g38
I313138863
sg39
(dp3356
g41
VnV Mikwen HCS
p3357
sg43
Nssg44
(lp3358
I1095363701
asg32
VWeaponPickup
p3359
sg35
VPT3M7.5264991S
p3360
sa(dp3361
g38
I4096745987
sg39
(dp3362
g41
VnV Mikwen HCS
p3363
sg43
Nssg44
(lp3364
I2758383128
asg32
VWeaponPickup
p3365
sg35
VPT3M7.5264991S
p3366
sa(dp3367
g32
VPlayerSpawn
p3368
sg39
(dp3369
g41
VnV Mikwen HCS
p3370
sg43
Nssg35
VPT3M7.5264991S
p3371
sa(dp3372
g38
I313138863
sg39
(dp3373
g41
VnV Pistola HCS
p3374
sg43
Nssg44
(lp3375
I1095363701
asg32
VWeaponPickup
p3376
sg35
VPT3M9.8595446S
p3377
sa(dp3378
g38
I4096745987
sg39
(dp3379
g41
VnV Pistola HCS
p3380
sg43
Nssg44
(lp3381
I2758383128
asg32
VWeaponPickup
p3382
sg35
VPT3M9.8595446S
p3383
sa(dp3384
g32
VPlayerSpawn
p3385
sg39
(dp3386
g41
VnV Pistola HCS
p3387
sg43
Nssg35
VPT3M9.8595446S
p3388
sa(dp3389
g38
I313138863
sg32
VWeaponDrop
p3390
sg180
I0
sg44
(lp3391
I1095363701
asg35
VPT3M10.7415591S
p3392
sg183
I0
sg184
VP0DT0H0M1.7500S
p3393
sg39
(dp3394
g41
VOG Maniac HCS
p3395
sg43
Nssa(dp3396
g38
I723388907
sg39
(dp3397
g41
VOG Maniac HCS
p3398
sg43
Nssg44
(lp3399
I89283061
asg32
VWeaponPickup
p3400
sg35
VPT3M10.7415591S
p3401
sa(dp3402
g38
I313138863
sg39
(dp3403
g41
VOG ACE HCS
p3404
sg43
Nssg44
(lp3405
I1095363701
asg32
VWeaponPickup
p3406
sg35
VPT3M11.7095802S
p3407
sa(dp3408
g38
I4096745987
sg39
(dp3409
g41
VOG ACE HCS
p3410
sg43
Nssg44
(lp3411
I2758383128
asg32
VWeaponPickup
p3412
sg35
VPT3M11.7105803S
p3413
sa(dp3414
g32
VPlayerSpawn
p3415
sg39
(dp3416
g41
VOG ACE HCS
p3417
sg43
Nssg35
VPT3M11.7105803S
p3418
sa(dp3419
g214
I723388907
sg215
I00
sg216
I00
sg217
(dp3420
g41
VOG Maniac HCS
p3421
sg43
Nssg220
(lp3422
I89283061
asg222
I00
sg223
I01
sg224
I1
sg225
I0
sg226
I1
sg227
(dp3423
Vy
F-7.6202173200000001
sVx
F18.8304653
sVz
F1.6783704800000001
ssg229
(dp3424
Vy
F-10.8983927
sVx
F16.139667500000002
sVz
F1.4881178100000001
ssg231
I00
sg232
(dp3425
g41
VnV RayneHCS
p3426
sg43
Nssg235
(lp3427
sg237
(lp3428
(dp3429
g41
VOG APG HCS
p3430
sg43
Nsasg241
I00
sg35
VPT3M15.0086421S
p3431
sg32
VDeath
p3432
sg244
I1
sa(dp3433
g38
I313138863
sg32
VWeaponDrop
p3434
sg180
I4
sg44
(lp3435
I1095363701
asg35
VPT3M15.0106428S
p3436
sg183
I0
sg184
VP0DT0H0M16.0500S
p3437
sg39
(dp3438
g41
VnV RayneHCS
p3439
sg43
Nssa(dp3440
g38
I4096745987
sg32
VWeaponDrop
p3441
sg180
I22
sg44
(lp3442
I2758383128
asg35
VPT3M15.0106428S
p3443
sg183
I14
sg184
VP0DT0H0M31.7500S
p3444
sg39
(dp3445
g41
VnV RayneHCS
p3446
sg43
Nssa(dp3447
g38
I313138863
sg39
(dp3448
g41
VOG Str8 SickHCS
p3449
sg43
Nssg44
(lp3450
I1095363701
asg32
VWeaponPickup
p3451
sg35
VPT3M15.3096494S
p3452
sa(dp3453
g38
I4096745987
sg39
(dp3454
g41
VOG Str8 SickHCS
p3455
sg43
Nssg44
(lp3456
I2758383128
asg32
VWeaponPickup
p3457
sg35
VPT3M15.3096494S
p3458
sa(dp3459
g32
VPlayerSpawn
p3460
sg39
(dp3461
g41
VOG Str8 SickHCS
p3462
sg43
Nssg35
VPT3M15.3096494S
p3463
sa(dp3464
g38
I313138863
sg32
VWeaponDrop
p3465
sg180
I0
sg44
(lp3466
I1095363701
asg35
VPT3M22.4907847S
p3467
sg183
I0
sg184
VP0DT0H0M0.6333S
p3468
sg39
(dp3469
g41
VOG ACE HCS
p3470
sg43
Nssa(dp3471
g38
I2015271382
sg39
(dp3472
g41
VOG ACE HCS
p3473
sg43
Nssg44
(lp3474
I2758383128
asg32
VWeaponPickup
p3475
sg35
VPT3M22.4917869S
p3476
sa(dp3477
g38
I313138863
sg39
(dp3478
g41
VnV RayneHCS
p3479
sg43
Nssg44
(lp3480
I1095363701
asg32
VWeaponPickup
p3481
sg35
VPT3M23.0267976S
p3482
sa(dp3483
g38
I4096745987
sg39
(dp3484
g41
VnV RayneHCS
p3485
sg43
Nssg44
(lp3486
I2758383128
asg32
VWeaponPickup
p3487
sg35
VPT3M23.0267976S
p3488
sa(dp3489
g32
VPlayerSpawn
p3490
sg39
(dp3491
g41
VnV RayneHCS
p3492
sg43
Nssg35
VPT3M23.0267976S
p3493
sa(dp3494
g214
I4106030681
sg215
I00
sg216
I00
sg217
(dp3495
g41
VnV eL ToWn
p3496
sg43
Nssg220
(lp3497
sg222
I00
sg223
I00
sg224
I2
sg225
I0
sg226
I0
sg227
(dp3498
Vy
F7.5167055100000004
sVx
F9.858625
sVz
F3.1860482700000001
ssg229
(dp3499
Vy
F-8.9014179999999996
sVx
F17.769292799999999
sVz
F3.7814290000000002
ssg231
I00
sg232
(dp3500
g478
g479
ssg235
(lp3501
sg237
(lp3502
sg241
I00
sg35
VPT3M24.75883S
p3503
sg32
VDeath
p3504
sg244
I1
sa(dp3505
g214
I4096745987
sg215
I00
sg216
I00
sg217
(dp3506
g41
VnV Pistola HCS
p3507
sg43
Nssg220
(lp3508
I2758383128
asg222
I00
sg223
I01
sg224
I1
sg225
I0
sg226
I1
sg227
(dp3509
Vy
F-0.81486000000000003
sVx
F0.26074183000000001
sVz
F2.4243011499999998
ssg229
(dp3510
Vy
F-6.2137112600000002
sVx
F14.2710466
sVz
F2.4799821400000002
ssg231
I00
sg232
(dp3511
g41
VOG Maniac HCS
p3512
sg43
Nssg235
(lp3513
sg237
(lp3514
(dp3515
g41
VnV eL ToWn
p3516
sg43
Nsa(dp3517
g41
VnV RayneHCS
p3518
sg43
Nsasg241
I01
sg35
VPT3M29.9249284S
p3519
sg32
VDeath
p3520
sg244
I1
sa(dp3521
g32
VMedal
p3522
sg39
(dp3523
g41
VnV Pistola HCS
p3524
sg43
Nssg255
I3261908037
sg35
VPT3M29.9269287S
p3525
sa(dp3526
g38
I723388907
sg32
VWeaponDrop
p3527
sg180
I12
sg44
(lp3528
I89283061
asg35
VPT3M29.9269287S
p3529
sg183
I2
sg184
VP0DT0H0M5.3333S
p3530
sg39
(dp3531
g41
VOG Maniac HCS
p3532
sg43
Nssa(dp3533
g38
I523953283
sg32
VWeaponDrop
p3534
sg180
I13
sg44
(lp3535
I1327094800
asg35
VPT3M29.9269287S
p3536
sg183
I3
sg184
VP0DT0H0M28.2000S
p3537
sg39
(dp3538
g41
VOG Maniac HCS
p3539
sg43
Nssa(dp3540
g214
I4096745987
sg215
I00
sg216
I00
sg217
(dp3541
g41
VnV eL ToWn
p3542
sg43
Nssg220
(lp3543
I2758383128
asg222
I00
sg223
I01
sg224
I1
sg225
I0
sg226
I1
sg227
(dp3544
Vy
F10.2382212
sVx
F5.6335449999999998
sVz
F2.1388050000000001
ssg229
(dp3545
Vy
F11.8066826
sVx
F14.414441099999999
sVz
F2.0849726199999998
ssg231
I00
sg232
(dp3546
g41
VOG ACE HCS
p3547
sg43
Nssg235
(lp3548
sg237
(lp3549
sg241
I01
sg35
VPT3M32.8919861S
p3550
sg32
VDeath
p3551
sg244
I1
sa(dp3552
g32
VImpulse
p3553
sg39
(dp3554
g41
VnV eL ToWn
p3555
sg43
Nssg249
I2556889090
sg35
VPT3M32.8919861S
p3556
sa(dp3557
g32
VMedal
p3558
sg39
(dp3559
g41
VnV eL ToWn
p3560
sg43
Nssg255
I2838259753
sg35
VPT3M32.8919861S
p3561
sa(dp3562
g32
VMedal
p3563
sg39
(dp3564
g41
VnV eL ToWn
p3565
sg43
Nssg255
I3261908037
sg35
VPT3M32.8949859S
p3566
sa(dp3567
g38
I2015271382
sg32
VWeaponDrop
p3568
sg180
I10
sg44
(lp3569
I2758383128
asg35
VPT3M32.8949859S
p3570
sg183
I5
sg184
VP0DT0H0M5.9333S
p3571
sg39
(dp3572
g41
VOG ACE HCS
p3573
sg43
Nssa(dp3574
g38
I4096745987
sg32
VWeaponDrop
p3575
sg180
I18
sg44
(lp3576
I2758383128
asg35
VPT3M32.8949859S
p3577
sg183
I10
sg184
VP0DT0H0M14.6167S
p3578
sg39
(dp3579
g41
VOG ACE HCS
p3580
sg43
Nssa(dp3581
g214
I313138863
sg215
I00
sg216
I00
sg217
(dp3582
g41
VnV Pistola HCS
p3583
sg43
Nssg220
(lp3584
I1095363701
asg222
I00
sg223
I01
sg224
I1
sg225
I0
sg226
I1
sg227
(dp3585
Vy
F-4.9906334899999996
sVx
F1.1112098699999999
sVz
F3.2775301899999998
ssg229
(dp3586
Vy
F-8.1189319999999991
sVx
F-0.84001785500000004
sVz
F2.5975933100000002
ssg231
I00
sg232
(dp3587
g41
VOG Str8 SickHCS
p3588
sg43
Nssg235
(lp3589
sg237
(lp3590
sg241
I00
sg35
VPT3M34.4930166S
p3591
sg32
VDeath
p3592
sg244
I1
sa(dp3593
g32
VMedal
p3594
sg39
(dp3595
g41
VnV Pistola HCS
p3596
sg43
Nssg255
I2078758684
sg35
VPT3M34.4950165S
p3597
sa(dp3598
g38
I313138863
sg32
VWeaponDrop
p3599
sg180
I9
sg44
(lp3600
I1095363701
asg35
VPT3M34.4960166S
p3601
sg183
I7
sg184
VP0DT0H0M6.5333S
p3602
sg39
(dp3603
g41
VOG Str8 SickHCS
p3604
sg43
Nssa(dp3605
g38
I4096745987
sg32
VWeaponDrop
p3606
sg180
I3
sg44
(lp3607
I2758383128
asg35
VPT3M34.4960166S
p3608
sg183
I1
sg184
VP0DT0H0M12.6500S
p3609
sg39
(dp3610
g41
VOG Str8 SickHCS
p3611
sg43
Nssa(dp3612
g214
I4096745987
sg215
I00
sg216
I00
sg217
(dp3613
g41
VnV Mikwen HCS
p3614
sg43
Nssg220
(lp3615
I2758383128
asg222
I00
sg223
I01
sg224
I1
sg225
I0
sg226
I1
sg227
(dp3616
Vy
F9.6452570000000009
sVx
F15.283576999999999
sVz
F2.8056521399999999
ssg229
(dp3617
Vy
F-6.78922939
sVx
F4.6388826400000003
sVz
F2.0537562399999998
ssg231
I00
sg232
(dp3618
g41
VOG APG HCS
p3619
sg43
Nssg235
(lp3620
sg237
(lp3621
sg241
I01
sg35
VPT3M37.3590724S
p3622
sg32
VDeath
p3623
sg244
I1
sa(dp3624
g32
VMedal
p3625
sg39
(dp3626
g41
VnV Mikwen HCS
p3627
sg43
Nssg255
I3261908037
sg35
VPT3M37.3610718S
p3628
sa(dp3629
g38
I313138863
sg32
VWeaponDrop
p3630
sg180
I4
sg44
(lp3631
I1095363701
asg35
VPT3M37.3610718S
p3632
sg183
I0
sg184
VP0DT0H0M10.1333S
p3633
sg39
(dp3634
g41
VOG APG HCS
p3635
sg43
Nssa(dp3636
g38
I4096745987
sg32
VWeaponDrop
p3637
sg180
I19
sg44
(lp3638
I2758383128
asg35
VPT3M37.3610718S
p3639
sg183
I9
sg184
VP0DT0H0M23.9667S
p3640
sg39
(dp3641
g41
VOG APG HCS
p3642
sg43
Nssa(dp3643
g38
I313138863
sg39
(dp3644
g41
VOG Maniac HCS
p3645
sg43
Nssg44
(lp3646
I1095363701
asg32
VWeaponPickup
p3647
sg35
VPT3M37.9420839S
p3648
sa(dp3649
g38
I4096745987
sg39
(dp3650
g41
VOG Maniac HCS
p3651
sg43
Nssg44
(lp3652
I2758383128
asg32
VWeaponPickup
p3653
sg35
VPT3M37.9430837S
p3654
sa(dp3655
g32
VPlayerSpawn
p3656
sg39
(dp3657
g41
VOG Maniac HCS
p3658
sg43
Nssg35
VPT3M37.9430837S
p3659
sa(dp3660
g38
I2244200496
sg39
(dp3661
g41
VnV RayneHCS
p3662
sg43
Nssg44
(lp3663
I2758383128
asg32
VWeaponPickup
p3664
sg35
VPT3M38.8081002S
p3665
sa(dp3666
g32
VImpulse
p3667
sg39
(dp3668
g41
VnV RayneHCS
p3669
sg43
Nssg249
I4191318012
sg35
VPT3M38.8081002S
p3670
sa(dp3671
g32
VImpulse
p3672
sg39
(dp3673
g41
VnV RayneHCS
p3674
sg43
Nssg249
I1039658009
sg35
VPT3M38.8081002S
p3675
sa(dp3676
g38
I2244200496
sg32
VWeaponDrop
p3677
sg180
I0
sg44
(lp3678
I2758383128
asg35
VPT3M39.6072023S
p3679
sg183
I0
sg184
VP0DT0H0M0.6500S
p3680
sg39
(dp3681
g41
VnV RayneHCS
p3682
sg43
Nssa(dp3683
g32
VImpulse
p3684
sg39
(dp3685
g41
VnV RayneHCS
p3686
sg43
Nssg249
I3435524855
sg35
VPT3M39.609983S
p3687
sa(dp3688
g38
I2244200496
sg39
(dp3689
g41
VnV RayneHCS
p3690
sg43
Nssg44
(lp3691
I2758383128
asg32
VWeaponPickup
p3692
sg35
VPT3M40.7267607S
p3693
sa(dp3694
g32
VImpulse
p3695
sg39
(dp3696
g41
VnV RayneHCS
p3697
sg43
Nssg249
I4191318012
sg35
VPT3M40.7271371S
p3698
sa(dp3699
g38
I313138863
sg39
(dp3700
g41
VOG ACE HCS
p3701
sg43
Nssg44
(lp3702
I1095363701
asg32
VWeaponPickup
p3703
sg35
VPT3M40.9091399S
p3704
sa(dp3705
g38
I4096745987
sg39
(dp3706
g41
VOG ACE HCS
p3707
sg43
Nssg44
(lp3708
I2758383128
asg32
VWeaponPickup
p3709
sg35
VPT3M40.9091399S
p3710
sa(dp3711
g32
VPlayerSpawn
p3712
sg39
(dp3713
g41
VOG ACE HCS
p3714
sg43
Nssg35
VPT3M40.9091399S
p3715
sa(dp3716
g38
I2244200496
sg32
VWeaponDrop
p3717
sg180
I0
sg44
(lp3718
I2758383128
asg35
VPT3M41.8911657S
p3719
sg183
I0
sg184
VP0DT0H0M1.0167S
p3720
sg39
(dp3721
g41
VnV RayneHCS
p3722
sg43
Nssa(dp3723
g32
VImpulse
p3724
sg39
(dp3725
g41
VnV RayneHCS
p3726
sg43
Nssg249
I3435524855
sg35
VPT3M41.8911657S
p3727
sa(dp3728
g38
I313138863
sg39
(dp3729
g41
VOG Str8 SickHCS
p3730
sg43
Nssg44
(lp3731
I1095363701
asg32
VWeaponPickup
p3732
sg35
VPT3M42.5091714S
p3733
sa(dp3734
g38
I4096745987
sg39
(dp3735
g41
VOG Str8 SickHCS
p3736
sg43
Nssg44
(lp3737
I2758383128
asg32
VWeaponPickup
p3738
sg35
VPT3M42.5091714S
p3739
sa(dp3740
g32
VPlayerSpawn
p3741
sg39
(dp3742
g41
VOG Str8 SickHCS
p3743
sg43
Nssg35
VPT3M42.5091714S
p3744
sa(dp3745
g38
I2244200496
sg39
(dp3746
g41
VnV RayneHCS
p3747
sg43
Nssg44
(lp3748
I2758383128
asg32
VWeaponPickup
p3749
sg35
VPT3M43.4071862S
p3750
sa(dp3751
g32
VImpulse
p3752
sg39
(dp3753
g41
VnV RayneHCS
p3754
sg43
Nssg249
I4191318012
sg35
VPT3M43.4081886S
p3755
sa(dp3756
g38
I2244200496
sg32
VWeaponDrop
p3757
sg180
I0
sg44
(lp3758
I2758383128
asg35
VPT3M43.9571934S
p3759
sg183
I0
sg184
VP0DT0H0M0.4000S
p3760
sg39
(dp3761
g41
VnV RayneHCS
p3762
sg43
Nssa(dp3763
g32
VImpulse
p3764
sg39
(dp3765
g41
VnV RayneHCS
p3766
sg43
Nssg249
I3435524855
sg35
VPT3M43.958196S
p3767
sa(dp3768
g38
I313138863
sg39
(dp3769
g41
VOG APG HCS
p3770
sg43
Nssg44
(lp3771
I1095363701
asg32
VWeaponPickup
p3772
sg35
VPT3M45.3762141S
p3773
sa(dp3774
g38
I4096745987
sg39
(dp3775
g41
VOG APG HCS
p3776
sg43
Nssg44
(lp3777
I2758383128
asg32
VWeaponPickup
p3778
sg35
VPT3M45.3762141S
p3779
sa(dp3780
g32
VPlayerSpawn
p3781
sg39
(dp3782
g41
VOG APG HCS
p3783
sg43
Nssg35
VPT3M45.3762141S
p3784
sa(dp3785
g38
I2244200496
sg39
(dp3786
g41
VnV Mikwen HCS
p3787
sg43
Nssg44
(lp3788
I2758383128
asg32
VWeaponPickup
p3789
sg35
VPT3M47.3072362S
p3790
sa(dp3791
g32
VImpulse
p3792
sg39
(dp3793
g41
VnV Mikwen HCS
p3794
sg43
Nssg249
I4191318012
sg35
VPT3M47.3082384S
p3795
sa(dp3796
g38
I2244200496
sg32
VWeaponDrop
p3797
sg180
I0
sg44
(lp3798
I2758383128
asg35
VPT3M47.9902454S
p3799
sg183
I0
sg184
VP0DT0H0M0.5333S
p3800
sg39
(dp3801
g41
VnV Mikwen HCS
p3802
sg43
Nssa(dp3803
g32
VImpulse
p3804
sg39
(dp3805
g41
VnV Mikwen HCS
p3806
sg43
Nssg249
I3435524855
sg35
VPT3M47.9912472S
p3807
sa(dp3808
g38
I2244200496
sg39
(dp3809
g41
VnV Mikwen HCS
p3810
sg43
Nssg44
(lp3811
I2758383128
asg32
VWeaponPickup
p3812
sg35
VPT3M49.3742644S
p3813
sa(dp3814
g32
VImpulse
p3815
sg39
(dp3816
g41
VnV Mikwen HCS
p3817
sg43
Nssg249
I4191318012
sg35
VPT3M49.3742644S
p3818
sa(dp3819
g214
I4096745987
sg215
I00
sg216
I00
sg217
(dp3820
g41
VOG APG HCS
p3821
sg43
Nssg220
(lp3822
I2758383128
asg222
I00
sg223
I01
sg224
I1
sg225
I0
sg226
I1
sg227
(dp3823
Vy
F5.4210209999999996
sVx
F9.174925
sVz
F0.11914187699999999
ssg229
(dp3824
Vy
F-2.9833858000000002
sVx
F7.6778009999999997
sVz
F-0.0010834038300000001
ssg231
I00
sg232
(dp3825
g41
VnV Pistola HCS
p3826
sg43
Nssg235
(lp3827
sg237
(lp3828
(dp3829
g41
VOG ACE HCS
p3830
sg43
Nsa(dp3831
g41
VOG Maniac HCS
p3832
sg43
Nsasg241
I01
sg35
VPT3M49.5582672S
p3833
sg32
VDeath
p3834
sg244
I1
sa(dp3835
g32
VMedal
p3836
sg39
(dp3837
g41
VOG APG HCS
p3838
sg43
Nssg255
I3261908037
sg35
VPT3M49.5602707S
p3839
sa(dp3840
g38
I313138863
sg32
VWeaponDrop
p3841
sg180
I23
sg44
(lp3842
I1095363701
asg35
VPT3M49.5602707S
p3843
sg183
I15
sg184
VP0DT0H0M15.1500S
p3844
sg39
(dp3845
g41
VnV Pistola HCS
p3846
sg43
Nssa(dp3847
g38
I4096745987
sg32
VWeaponDrop
p3848
sg180
I15
sg44
(lp3849
I2758383128
asg35
VPT3M49.5602707S
p3850
sg183
I9
sg184
VP0DT0H0M24.5500S
p3851
sg39
(dp3852
g41
VnV Pistola HCS
p3853
sg43
Nssa(dp3854
g38
I2244200496
sg32
VWeaponDrop
p3855
sg180
I0
sg44
(lp3856
I2758383128
asg35
VPT3M49.8402725S
p3857
sg183
I0
sg184
VP0DT0H0M0.3167S
p3858
sg39
(dp3859
g41
VnV Mikwen HCS
p3860
sg43
Nssa(dp3861
g32
VImpulse
p3862
sg39
(dp3863
g41
VnV Mikwen HCS
p3864
sg43
Nssg249
I3435524855
sg35
VPT3M49.8412711S
p3865
sa(dp3866
g214
I4096745987
sg215
I00
sg216
I00
sg217
(dp3867
g41
VOG ACE HCS
p3868
sg43
Nssg220
(lp3869
I2758383128
asg222
I00
sg223
I01
sg224
I1
sg225
I0
sg226
I1
sg227
(dp3870
Vy
F-11.299250600000001
sVx
F5.6765730000000003
sVz
F1.05067325
ssg229
(dp3871
Vy
F-11.067433400000001
sVx
F-0.46033617900000001
sVz
F3.4887108800000002
ssg231
I00
sg232
(dp3872
g41
VnV eL ToWn
p3873
sg43
Nssg235
(lp3874
sg237
(lp3875
(dp3876
g41
VOG Str8 SickHCS
p3877
sg43
Nsasg241
I01
sg35
VPT3M50.9582846S
p3878
sg32
VDeath
p3879
sg244
I1
sa(dp3880
g32
VMedal
p3881
sg39
(dp3882
g41
VOG ACE HCS
p3883
sg43
Nssg255
I3261908037
sg35
VPT3M50.959285S
p3884
sa(dp3885
g38
I723523180
sg32
VWeaponDrop
p3886
sg180
I1
sg44
(lp3887
I2758383128
asg35
VPT3M50.9602851S
p3888
sg183
I1
sg184
VP0DT0H0M6.9667S
p3889
sg39
(dp3890
g41
VnV eL ToWn
p3891
sg43
Nssa(dp3892
g38
I4096745987
sg32
VWeaponDrop
p3893
sg180
I22
sg44
(lp3894
I2758383128
asg35
VPT3M50.9602851S
p3895
sg183
I16
sg184
VP0DT0H0M49.3667S
p3896
sg39
(dp3897
g41
VnV eL ToWn
p3898
sg43
Nssa(dp3899
g214
I4096745987
sg215
I00
sg216
I00
sg217
(dp3900
g41
VnV eL ToWn
p3901
sg43
Nssg220
(lp3902
I2758383128
asg222
I00
sg223
I01
sg224
I1
sg225
I0
sg226
I1
sg227
(dp3903
Vy
F-11.074283599999999
sVx
F-0.58793705699999999
sVz
F3.2571446900000001
ssg229
(dp3904
Vy
F-11.493449999999999
sVx
F5.6990449999999999
sVz
F0.98535394700000001
ssg231
I00
sg232
(dp3905
g41
VOG ACE HCS
p3906
sg43
Nssg235
(lp3907
sg237
(lp3908
sg241
I01
sg35
VPT3M51.0412854S
p3909
sg32
VDeath
p3910
sg244
I1
sa(dp3911
g32
VMedal
p3912
sg39
(dp3913
g41
VnV eL ToWn
p3914
sg43
Nssg255
I3261908037
sg35
VPT3M51.0432853S
p3915
sa(dp3916
g38
I313138863
sg32
VWeaponDrop
p3917
sg180
I0
sg44
(lp3918
I1095363701
asg35
VPT3M51.0432853S
p3919
sg183
I0
sg184
VP0DT0H0M0.9500S
p3920
sg39
(dp3921
g41
VOG ACE HCS
p3922
sg43
Nssa(dp3923
g38
I4096745987
sg32
VWeaponDrop
p3924
sg180
I15
sg44
(lp3925
I2758383128
asg35
VPT3M51.0432853S
p3926
sg183
I8
sg184
VP0DT0H0M9.1833S
p3927
sg39
(dp3928
g41
VOG ACE HCS
p3929
sg43
Nssa(dp3930
g38
I2244200496
sg39
(dp3931
g41
VnV Mikwen HCS
p3932
sg43
Nssg44
(lp3933
I2758383128
asg32
VWeaponPickup
p3934
sg35
VPT3M51.4572895S
p3935
sa(dp3936
g32
VImpulse
p3937
sg39
(dp3938
g41
VnV Mikwen HCS
p3939
sg43
Nssg249
I4191318012
sg35
VPT3M51.4582924S
p3940
sa(dp3941
g38
I2244200496
sg32
VWeaponDrop
p3942
sg180
I0
sg44
(lp3943
I2758383128
asg35
VPT3M52.0244579S
p3944
sg183
I0
sg184
VP0DT0H0M0.4167S
p3945
sg39
(dp3946
g41
VnV Mikwen HCS
p3947
sg43
Nssa(dp3948
g32
VImpulse
p3949
sg39
(dp3950
g41
VnV Mikwen HCS
p3951
sg43
Nssg249
I3435524855
sg35
VPT3M52.0252991S
p3952
sa(dp3953
g38
I2244200496
sg39
(dp3954
g41
VnV Mikwen HCS
p3955
sg43
Nssg44
(lp3956
I2758383128
asg32
VWeaponPickup
p3957
sg35
VPT3M53.0403102S
p3958
sa(dp3959
g32
VImpulse
p3960
sg39
(dp3961
g41
VnV Mikwen HCS
p3962
sg43
Nssg249
I4191318012
sg35
VPT3M53.0413113S
p3963
sa(dp3964
g38
I2244200496
sg32
VWeaponDrop
p3965
sg180
I0
sg44
(lp3966
I2758383128
asg35
VPT3M53.9073212S
p3967
sg183
I0
sg184
VP0DT0H0M0.7167S
p3968
sg39
(dp3969
g41
VnV Mikwen HCS
p3970
sg43
Nssa(dp3971
g32
VImpulse
p3972
sg39
(dp3973
g41
VnV Mikwen HCS
p3974
sg43
Nssg249
I3435524855
sg35
VPT3M53.908323S
p3975
sa(dp3976
g38
I2244200496
sg39
(dp3977
g41
VnV Mikwen HCS
p3978
sg43
Nssg44
(lp3979
I2758383128
asg32
VWeaponPickup
p3980
sg35
VPT3M54.8403334S
p3981
sa(dp3982
g32
VImpulse
p3983
sg39
(dp3984
g41
VnV Mikwen HCS
p3985
sg43
Nssg249
I4191318012
sg35
VPT3M54.8413352S
p3986
sa(dp3987
g32
VMedal
p3988
sg39
(dp3989
g41
VnV Mikwen HCS
p3990
sg43
Nssg255
I3886151616
sg35
VPT3M54.9913369S
p3991
sa(dp3992
g32
VMedal
p3993
sg39
(dp3994
g41
VnV RayneHCS
p3995
sg43
Nssg255
I1494478183
sg35
VPT3M54.9913369S
p3996
sa(dp3997
g32
VImpulse
p3998
sg39
(dp3999
g41
VnV Mikwen HCS
p4000
sg43
Nssg249
I2944278681
sg35
VPT3M54.9913369S
p4001
sa(dp4002
g38
I4096745987
sg32
VWeaponDrop
p4003
sg180
I18
sg44
(lp4004
I2758383128
asg35
VPT3M55.9403469S
p4005
sg183
I8
sg184
VP0DT0H0M40.8500S
p4006
sg39
(dp4007
g41
VnV Mikwen HCS
p4008
sg43
Nssa(dp4009
g38
I523953283
sg39
(dp4010
g41
VnV Mikwen HCS
p4011
sg43
Nssg44
(lp4012
I1327094800
asg32
VWeaponPickup
p4013
sg35
VPT3M55.9403469S
p4014
sa(dp4015
g38
I313138863
sg39
(dp4016
g41
VnV Pistola HCS
p4017
sg43
Nssg44
(lp4018
I1095363701
asg32
VWeaponPickup
p4019
sg35
VPT3M57.5753698S
p4020
sa(dp4021
g38
I4096745987
sg39
(dp4022
g41
VnV Pistola HCS
p4023
sg43
Nssg44
(lp4024
I2758383128
asg32
VWeaponPickup
p4025
sg35
VPT3M57.5753698S
p4026
sa(dp4027
g32
VPlayerSpawn
p4028
sg39
(dp4029
g41
VnV Pistola HCS
p4030
sg43
Nssg35
VPT3M57.5753698S
p4031
sa(dp4032
g214
I4096745987
sg215
I00
sg216
I00
sg217
(dp4033
g41
VnV RayneHCS
p4034
sg43
Nssg220
(lp4035
I2758383128
asg222
I00
sg223
I01
sg224
I1
sg225
I0
sg226
I1
sg227
(dp4036
Vy
F-5.831353
sVx
F-17.063436500000002
sVz
F1.16598153
ssg229
(dp4037
Vy
F-8.5092390000000009
sVx
F-16.685617400000002
sVz
F1.7073437
ssg231
I00
sg232
(dp4038
g41
VOG Str8 SickHCS
p4039
sg43
Nssg235
(lp4040
sg237
(lp4041
sg241
I00
sg35
VPT3M57.9743739S
p4042
sg32
VDeath
p4043
sg244
I1
sa(dp4044
g38
I313138863
sg32
VWeaponDrop
p4045
sg180
I0
sg44
(lp4046
I1095363701
asg35
VPT3M57.9763742S
p4047
sg183
I0
sg184
VP0DT0H0M0.8833S
p4048
sg39
(dp4049
g41
VOG Str8 SickHCS
p4050
sg43
Nssa(dp4051
g38
I4096745987
sg32
VWeaponDrop
p4052
sg180
I11
sg44
(lp4053
I2758383128
asg35
VPT3M57.9763742S
p4054
sg183
I2
sg184
VP0DT0H0M14.5833S
p4055
sg39
(dp4056
g41
VOG Str8 SickHCS
p4057
sg43
Nssa(dp4058
g38
I313138863
sg39
(dp4059
g41
VnV eL ToWn
p4060
sg43
Nssg44
(lp4061
I1095363701
asg32
VWeaponPickup
p4062
sg35
VPT3M58.9753878S
p4063
sa(dp4064
g38
I4096745987
sg39
(dp4065
g41
VnV eL ToWn
p4066
sg43
Nssg44
(lp4067
I2758383128
asg32
VWeaponPickup
p4068
sg35
VPT3M58.9753878S
p4069
sa(dp4070
g32
VPlayerSpawn
p4071
sg39
(dp4072
g41
VnV eL ToWn
p4073
sg43
Nssg35
VPT3M58.9753878S
p4074
sa(dp4075
g38
I313138863
sg39
(dp4076
g41
VOG ACE HCS
p4077
sg43
Nssg44
(lp4078
I1095363701
asg32
VWeaponPickup
p4079
sg35
VPT3M59.0583888S
p4080
sa(dp4081
g38
I4096745987
sg39
(dp4082
g41
VOG ACE HCS
p4083
sg43
Nssg44
(lp4084
I2758383128
asg32
VWeaponPickup
p4085
sg35
VPT3M59.0583888S
p4086
sa(dp4087
g32
VPlayerSpawn
p4088
sg39
(dp4089
g41
VOG ACE HCS
p4090
sg43
Nssg35
VPT3M59.0583888S
p4091
sa(dp4092
g38
I523953283
sg32
VWeaponDrop
p4093
sg180
I5
sg44
(lp4094
I1327094800
asg35
VPT4M0.3734096S
p4095
sg183
I3
sg184
VP0DT0H0M4.4333S
p4096
sg39
(dp4097
g41
VnV Mikwen HCS
p4098
sg43
Nssa(dp4099
g38
I4096745987
sg39
(dp4100
g41
VnV Mikwen HCS
p4101
sg43
Nssg44
(lp4102
I2758383128
asg32
VWeaponPickup
p4103
sg35
VPT4M0.3744117S
p4104
sa(dp4105
g32
VMedal
p4106
sg39
(dp4107
g41
VnV RayneHCS
p4108
sg43
Nssg255
I3400287617
sg35
VPT4M0.6244162S
p4109
sa(dp4110
g38
I4096745987
sg32
VWeaponDrop
p4111
sg180
I0
sg44
(lp4112
I2758383128
asg35
VPT4M1.2574285S
p4113
sg183
I0
sg184
VP0DT0H0M0.8833S
p4114
sg39
(dp4115
g41
VnV Mikwen HCS
p4116
sg43
Nssa(dp4117
g38
I523953283
sg39
(dp4118
g41
VnV Mikwen HCS
p4119
sg43
Nssg44
(lp4120
I1327094800
asg32
VWeaponPickup
p4121
sg35
VPT4M1.2574285S
p4122
sa(dp4123
g214
I4096745987
sg215
I00
sg216
I00
sg217
(dp4124
g41
VnV Pistola HCS
p4125
sg43
Nssg220
(lp4126
I2758383128
asg222
I00
sg223
I01
sg224
I1
sg225
I0
sg226
I1
sg227
(dp4127
Vy
F-8.4960240000000002
sVx
F-9.1072849999999992
sVz
F0.99814885900000005
ssg229
(dp4128
Vy
F7.0518636700000004
sVx
F-12.448415799999999
sVz
F2.4000240000000002
ssg231
I00
sg232
(dp4129
g41
VOG Maniac HCS
p4130
sg43
Nssg235
(lp4131
sg237
(lp4132
(dp4133
g41
VnV RayneHCS
p4134
sg43
Nsasg241
I01
sg35
VPT4M2.1244493S
p4135
sg32
VDeath
p4136
sg244
I1
sa(dp4137
g32
VImpulse
p4138
sg39
(dp4139
g41
VnV Pistola HCS
p4140
sg43
Nssg249
I2556889090
sg35
VPT4M2.1254452S
p4141
sa(dp4142
g32
VMedal
p4143
sg39
(dp4144
g41
VnV Pistola HCS
p4145
sg43
Nssg255
I352859864
sg35
VPT4M2.1254452S
p4146
sa(dp4147
g32
VMedal
p4148
sg39
(dp4149
g41
VnV Mikwen HCS
p4150
sg43
Nssg255
I824733727
sg35
VPT4M2.1264446S
p4151
sa(dp4152
g32
VMedal
p4153
sg39
(dp4154
g41
VnV Pistola HCS
p4155
sg43
Nssg255
I3261908037
sg35
VPT4M2.1264446S
p4156
sa(dp4157
g38
I313138863
sg32
VWeaponDrop
p4158
sg180
I11
sg44
(lp4159
I1095363701
asg35
VPT4M2.1274456S
p4160
sg183
I2
sg184
VP0DT0H0M6.4833S
p4161
sg39
(dp4162
g41
VOG Maniac HCS
p4163
sg43
Nssa(dp4164
g38
I4096745987
sg32
VWeaponDrop
p4165
sg180
I16
sg44
(lp4166
I2758383128
asg35
VPT4M2.1274456S
p4167
sg183
I8
sg184
VP0DT0H0M17.7000S
p4168
sg39
(dp4169
g41
VOG Maniac HCS
p4170
sg43
Nssa(dp4171
g32
VMedal
p4172
sg39
(dp4173
g41
VnV RayneHCS
p4174
sg43
Nssg255
I3400287617
sg35
VPT4M5.8905166S
p4175
sa(dp4176
g38
I313138863
sg39
(dp4177
g41
VOG Str8 SickHCS
p4178
sg43
Nssg44
(lp4179
I1095363701
asg32
VWeaponPickup
p4180
sg35
VPT4M5.9915484S
p4181
sa(dp4182
g38
I4096745987
sg39
(dp4183
g41
VOG Str8 SickHCS
p4184
sg43
Nssg44
(lp4185
I2758383128
asg32
VWeaponPickup
p4186
sg35
VPT4M5.9925198S
p4187
sa(dp4188
g32
VPlayerSpawn
p4189
sg39
(dp4190
g41
VOG Str8 SickHCS
p4191
sg43
Nssg35
VPT4M5.9925198S
p4192
sa(dp4193
g214
I4096745987
sg215
I00
sg216
I00
sg217
(dp4194
g41
VOG ACE HCS
p4195
sg43
Nssg220
(lp4196
I2758383128
asg222
I00
sg223
I01
sg224
I1
sg225
I0
sg226
I1
sg227
(dp4197
Vy
F-6.6339969999999999
sVx
F5.7644567499999999
sVz
F2.4000756700000001
ssg229
(dp4198
Vy
F-10.598697700000001
sVx
F1.58176363
sVz
F-0.0010834038300000001
ssg231
I00
sg232
(dp4199
g41
VnV eL ToWn
p4200
sg43
Nssg235
(lp4201
sg237
(lp4202
(dp4203
g41
VOG APG HCS
p4204
sg43
Nsasg241
I01
sg35
VPT4M7.3915465S
p4205
sg32
VDeath
p4206
sg244
I1
sa(dp4207
g32
VMedal
p4208
sg39
(dp4209
g41
VOG ACE HCS
p4210
sg43
Nssg255
I3261908037
sg35
VPT4M7.3925465S
p4211
sa(dp4212
g38
I313138863
sg32
VWeaponDrop
p4213
sg180
I0
sg44
(lp4214
I1095363701
asg35
VPT4M7.3925465S
p4215
sg183
I0
sg184
VP0DT0H0M0.7167S
p4216
sg39
(dp4217
g41
VnV eL ToWn
p4218
sg43
Nssa(dp4219
g38
I4096745987
sg32
VWeaponDrop
p4220
sg180
I4
sg44
(lp4221
I2758383128
asg35
VPT4M7.3925465S
p4222
sg183
I2
sg184
VP0DT0H0M7.7000S
p4223
sg39
(dp4224
g41
VnV eL ToWn
p4225
sg43
Nssa(dp4226
g38
I313138863
sg39
(dp4227
g41
VOG Maniac HCS
p4228
sg43
Nssg44
(lp4229
I1095363701
asg32
VWeaponPickup
p4230
sg35
VPT4M10.1416S
p4231
sa(dp4232
g38
I4096745987
sg39
(dp4233
g41
VOG Maniac HCS
p4234
sg43
Nssg44
(lp4235
I2758383128
asg32
VWeaponPickup
p4236
sg35
VPT4M10.1425997S
p4237
sa(dp4238
g32
VPlayerSpawn
p4239
sg39
(dp4240
g41
VOG Maniac HCS
p4241
sg43
Nssg35
VPT4M10.1425997S
p4242
sa(dp4243
g214
I4096745987
sg215
I00
sg216
I00
sg217
(dp4244
g41
VnV Pistola HCS
p4245
sg43
Nssg220
(lp4246
I2758383128
asg222
I00
sg223
I01
sg224
I1
sg225
I0
sg226
I1
sg227
(dp4247
Vy
F-4.6398186700000004
sVx
F-0.74802780000000002
sVz
F-0.0010834038300000001
ssg229
(dp4248
Vy
F-8.5326710000000006
sVx
F-2.3535879999999998
sVz
F1.0453498400000001
ssg231
I00
sg232
(dp4249
g41
VOG APG HCS
p4250
sg43
Nssg235
(lp4251
sg237
(lp4252
(dp4253
g41
VnV eL ToWn
p4254
sg43
Nsasg241
I00
sg35
VPT4M10.5576078S
p4255
sg32
VDeath
p4256
sg244
I1
sa(dp4257
g38
I313138863
sg32
VWeaponDrop
p4258
sg180
I0
sg44
(lp4259
I1095363701
asg35
VPT4M10.5596071S
p4260
sg183
I0
sg184
VP0DT0H0M5.4500S
p4261
sg39
(dp4262
g41
VOG APG HCS
p4263
sg43
Nssa(dp4264
g38
I4096745987
sg32
VWeaponDrop
p4265
sg180
I18
sg44
(lp4266
I2758383128
asg35
VPT4M10.5596071S
p4267
sg183
I9
sg184
VP0DT0H0M19.7333S
p4268
sg39
(dp4269
g41
VOG APG HCS
p4270
sg43
Nssa(dp4271
g38
I4096745987
sg32
VWeaponDrop
p4272
sg180
I0
sg44
(lp4273
I2758383128
asg35
VPT4M10.5596071S
p4274
sg183
I0
sg184
VP0DT0S
p4275
sg39
(dp4276
g41
VOG APG HCS
p4277
sg43
Nssa(dp4278
g38
I313138863
sg32
VWeaponDrop
p4279
sg180
I0
sg44
(lp4280
I1095363701
asg35
VPT4M13.0896541S
p4281
sg183
I0
sg184
VP0DT0H0M2.9500S
p4282
sg39
(dp4283
g41
VOG Maniac HCS
p4284
sg43
Nssa(dp4285
g38
I3484334713
sg39
(dp4286
g41
VOG Maniac HCS
p4287
sg43
Nssg44
(lp4288
I2758383128
asg32
VWeaponPickup
p4289
sg35
VPT4M13.0896541S
p4290
sa(dp4291
g38
I313138863
sg39
(dp4292
g41
VnV eL ToWn
p4293
sg43
Nssg44
(lp4294
I1095363701
asg32
VWeaponPickup
p4295
sg35
VPT4M15.4077004S
p4296
sa(dp4297
g38
I4096745987
sg39
(dp4298
g41
VnV eL ToWn
p4299
sg43
Nssg44
(lp4300
I2758383128
asg32
VWeaponPickup
p4301
sg35
VPT4M15.4087008S
p4302
sa(dp4303
g32
VPlayerSpawn
p4304
sg39
(dp4305
g41
VnV eL ToWn
p4306
sg43
Nssg35
VPT4M15.4087008S
p4307
sa(dp4308
g32
VMedal
p4309
sg39
(dp4310
g41
VnV Pistola HCS
p4311
sg43
Nssg255
I3400287617
sg35
VPT4M17.7567287S
p4312
sa(dp4313
g214
I4096745987
sg215
I00
sg216
I00
sg217
(dp4314
g41
VnV RayneHCS
p4315
sg43
Nssg220
(lp4316
I2758383128
asg222
I00
sg223
I01
sg224
I1
sg225
I0
sg226
I1
sg227
(dp4317
Vy
F-12.293297799999999
sVx
F-5.6249485000000004
sVz
F2.9792347000000001
ssg229
(dp4318
Vy
F-3.0537092700000001
sVx
F-0.55765070000000005
sVz
F3.3639359999999998
ssg231
I00
sg232
(dp4319
g41
VOG ACE HCS
p4320
sg43
Nssg235
(lp4321
sg237
(lp4322
sg241
I01
sg35
VPT4M17.8907319S
p4323
sg32
VDeath
p4324
sg244
I1
sa(dp4325
g32
VMedal
p4326
sg39
(dp4327
g41
VnV RayneHCS
p4328
sg43
Nssg255
I3261908037
sg35
VPT4M17.8927419S
p4329
sa(dp4330
g38
I313138863
sg32
VWeaponDrop
p4331
sg180
I0
sg44
(lp4332
I1095363701
asg35
VPT4M17.8937318S
p4333
sg183
I0
sg184
VP0DT0H0M1.7833S
p4334
sg39
(dp4335
g41
VOG ACE HCS
p4336
sg43
Nssa(dp4337
g38
I4096745987
sg32
VWeaponDrop
p4338
sg180
I12
sg44
(lp4339
I2758383128
asg35
VPT4M17.8937318S
p4340
sg183
I7
sg184
VP0DT0H0M17.0500S
p4341
sg39
(dp4342
g41
VOG ACE HCS
p4343
sg43
Nssa(dp4344
g38
I313138863
sg39
(dp4345
g41
VOG APG HCS
p4346
sg43
Nssg44
(lp4347
I1095363701
asg32
VWeaponPickup
p4348
sg35
VPT4M18.5747414S
p4349
sa(dp4350
g38
I4096745987
sg39
(dp4351
g41
VOG APG HCS
p4352
sg43
Nssg44
(lp4353
I2758383128
asg32
VWeaponPickup
p4354
sg35
VPT4M18.5747414S
p4355
sa(dp4356
g32
VPlayerSpawn
p4357
sg39
(dp4358
g41
VOG APG HCS
p4359
sg43
Nssg35
VPT4M18.5747414S
p4360
sa(dp4361
g38
I313138863
sg32
VWeaponDrop
p4362
sg180
I0
sg44
(lp4363
I1095363701
asg35
VPT4M19.5067509S
p4364
sg183
I0
sg184
VP0DT0H0M4.3333S
p4365
sg39
(dp4366
g41
VOG Str8 SickHCS
p4367
sg43
Nssa(dp4368
g38
I723523180
sg39
(dp4369
g41
VOG Str8 SickHCS
p4370
sg43
Nssg44
(lp4371
I2758383128
asg32
VWeaponPickupPad
p4372
sg35
VPT4M19.5067509S
p4373
sa(dp4374
g38
I723523180
sg39
(dp4375
g41
VOG Str8 SickHCS
p4376
sg43
Nssg44
(lp4377
I2758383128
asg32
VWeaponPickup
p4378
sg35
VPT4M19.5067509S
p4379
sa(dp4380
g214
I4096745987
sg215
I00
sg216
I00
sg217
(dp4381
g41
VOG Maniac HCS
p4382
sg43
Nssg220
(lp4383
I2758383128
asg222
I00
sg223
I01
sg224
I1
sg225
I0
sg226
I1
sg227
(dp4384
Vy
F5.7802230000000003
sVx
F-6.9643382999999996
sVz
F3.2591974700000002
ssg229
(dp4385
Vy
F3.4192974600000001
sVx
F-13.701003999999999
sVz
F0.24245572100000001
ssg231
I00
sg232
(dp4386
g41
VnV eL ToWn
p4387
sg43
Nssg235
(lp4388
sg237
(lp4389
sg241
I01
sg35
VPT4M24.0428112S
p4390
sg32
VDeath
p4391
sg244
I1
sa(dp4392
g32
VMedal
p4393
sg39
(dp4394
g41
VOG Maniac HCS
p4395
sg43
Nssg255
I3261908037
sg35
VPT4M24.0448106S
p4396
sa(dp4397
g38
I313138863
sg32
VWeaponDrop
p4398
sg180
I16
sg44
(lp4399
I1095363701
asg35
VPT4M24.0448106S
p4400
sg183
I1
sg184
VP0DT0H0M2.6000S
p4401
sg39
(dp4402
g41
VnV eL ToWn
p4403
sg43
Nssa(dp4404
g38
I4096745987
sg32
VWeaponDrop
p4405
sg180
I3
sg44
(lp4406
I2758383128
asg35
VPT4M24.0448106S
p4407
sg183
I1
sg184
VP0DT0H0M6.0333S
p4408
sg39
(dp4409
g41
VnV eL ToWn
p4410
sg43
Nssa(dp4411
g214
I523953283
sg215
I00
sg216
I00
sg217
(dp4412
g41
VnV Mikwen HCS
p4413
sg43
Nssg220
(lp4414
I1327094800
asg222
I00
sg223
I01
sg224
I1
sg225
I0
sg226
I1
sg227
(dp4415
Vy
F3.0295176499999998
sVx
F-4.9743237499999999
sVz
F3.09170079
ssg229
(dp4416
Vy
F2.8274457499999999
sVx
F-5.8119087199999999
sVz
F3.0673550000000001
ssg231
I00
sg232
(dp4417
g41
VOG Maniac HCS
p4418
sg43
Nssg235
(lp4419
sg237
(lp4420
(dp4421
g41
VnV eL ToWn
p4422
sg43
Nsasg241
I01
sg35
VPT4M25.1578249S
p4423
sg32
VDeath
p4424
sg244
I1
sa(dp4425
g32
VMedal
p4426
sg39
(dp4427
g41
VnV Mikwen HCS
p4428
sg43
Nssg255
I3261908037
sg35
VPT4M25.1588249S
p4429
sa(dp4430
g38
I3484334713
sg32
VWeaponDrop
p4431
sg180
I1
sg44
(lp4432
I2758383128
asg35
VPT4M25.1598248S
p4433
sg183
I1
sg184
VP0DT0H0M2.1000S
p4434
sg39
(dp4435
g41
VOG Maniac HCS
p4436
sg43
Nssa(dp4437
g38
I4096745987
sg32
VWeaponDrop
p4438
sg180
I6
sg44
(lp4439
I2758383128
asg35
VPT4M25.1598248S
p4440
sg183
I6
sg184
VP0DT0H0M9.9667S
p4441
sg39
(dp4442
g41
VOG Maniac HCS
p4443
sg43
Nssa(dp4444
g214
I723523180
sg215
I00
sg216
I00
sg217
(dp4445
g41
VOG Str8 SickHCS
p4446
sg43
Nssg220
(lp4447
I2758383128
asg222
I00
sg223
I01
sg224
I1
sg225
I0
sg226
I1
sg227
(dp4448
Vy
F8.8655489999999997
sVx
F-5.9174480000000003
sVz
F2.43365717
ssg229
(dp4449
Vy
F2.597661
sVx
F-4.9630713499999999
sVz
F2.69800138
ssg231
I00
sg232
(dp4450
g41
VnV Mikwen HCS
p4451
sg43
Nssg235
(lp4452
sg237
(lp4453
sg241
I00
sg35
VPT4M25.3738276S
p4454
sg32
VDeath
p4455
sg244
I1
sa(dp4456
g38
I313138863
sg32
VWeaponDrop
p4457
sg180
I0
sg44
(lp4458
I1095363701
asg35
VPT4M25.3758281S
p4459
sg183
I0
sg184
VP0DT0H0M9.7500S
p4460
sg39
(dp4461
g41
VnV Mikwen HCS
p4462
sg43
Nssa(dp4463
g38
I523953283
sg32
VWeaponDrop
p4464
sg180
I9
sg44
(lp4465
I1327094800
asg35
VPT4M25.3758281S
p4466
sg183
I6
sg184
VP0DT0H0M19.9500S
p4467
sg39
(dp4468
g41
VnV Mikwen HCS
p4469
sg43
Nssa(dp4470
g38
I313138863
sg39
(dp4471
g41
VOG ACE HCS
p4472
sg43
Nssg44
(lp4473
I1095363701
asg32
VWeaponPickup
p4474
sg35
VPT4M25.9078383S
p4475
sa(dp4476
g38
I4096745987
sg39
(dp4477
g41
VOG ACE HCS
p4478
sg43
Nssg44
(lp4479
I2758383128
asg32
VWeaponPickup
p4480
sg35
VPT4M25.9078383S
p4481
sa(dp4482
g32
VPlayerSpawn
p4483
sg39
(dp4484
g41
VOG ACE HCS
p4485
sg43
Nssg35
VPT4M25.9078383S
p4486
sa(dp4487
g32
VMedal
p4488
sg39
(dp4489
g41
VnV RayneHCS
p4490
sg43
Nssg255
I3400287617
sg35
VPT4M28.6398739S
p4491
sa(dp4492
g214
I723523180
sg215
I00
sg216
I00
sg217
(dp4493
g41
VOG Str8 SickHCS
p4494
sg43
Nssg220
(lp4495
I2758383128
asg222
I00
sg223
I01
sg224
I1
sg225
I0
sg226
I1
sg227
(dp4496
Vy
F0.93070512999999999
sVx
F2.0308875999999998
sVz
F2.8043437
ssg229
(dp4497
Vy
F-1.3961044499999999
sVx
F4.7290434799999996
sVz
F2.5169472700000002
ssg231
I00
sg232
(dp4498
g41
VnV RayneHCS
p4499
sg43
Nssg235
(lp4500
sg237
(lp4501
sg241
I00
sg35
VPT4M29.6078828S
p4502
sg32
VDeath
p4503
sg244
I1
sa(dp4504
g32
VMedal
p4505
sg39
(dp4506
g41
VOG Str8 SickHCS
p4507
sg43
Nssg255
I2078758684
sg35
VPT4M29.6088825S
p4508
sa(dp4509
g38
I313138863
sg32
VWeaponDrop
p4510
sg180
I0
sg44
(lp4511
I1095363701
asg35
VPT4M29.6098823S
p4512
sg183
I0
sg184
VP0DT0H0M7.8500S
p4513
sg39
(dp4514
g41
VnV RayneHCS
p4515
sg43
Nssa(dp4516
g38
I4096745987
sg32
VWeaponDrop
p4517
sg180
I24
sg44
(lp4518
I2758383128
asg35
VPT4M29.6098823S
p4519
sg183
I18
sg184
VP0DT0H0M56.6667S
p4520
sg39
(dp4521
g41
VnV RayneHCS
p4522
sg43
Nssa(dp4523
g214
I313138863
sg215
I00
sg216
I00
sg217
(dp4524
g41
VnV Pistola HCS
p4525
sg43
Nssg220
(lp4526
I1095363701
asg222
I00
sg223
I01
sg224
I1
sg225
I0
sg226
I1
sg227
(dp4527
Vy
F-3.40796375
sVx
F-0.207014009
sVz
F0.55416370000000004
ssg229
(dp4528
Vy
F-0.65713775200000002
sVx
F-0.041819479999999999
sVz
F0.41653478100000002
ssg231
I00
sg232
(dp4529
g41
VOG APG HCS
p4530
sg43
Nssg235
(lp4531
sg237
(lp4532
sg241
I00
sg35
VPT4M31.0919241S
p4533
sg32
VDeath
p4534
sg244
I1
sa(dp4535
g38
I313138863
sg32
VWeaponDrop
p4536
sg180
I4
sg44
(lp4537
I1095363701
asg35
VPT4M31.0942281S
p4538
sg183
I0
sg184
VP0DT0H0M6.5833S
p4539
sg39
(dp4540
g41
VOG APG HCS
p4541
sg43
Nssa(dp4542
g38
I4096745987
sg32
VWeaponDrop
p4543
sg180
I6
sg44
(lp4544
I2758383128
asg35
VPT4M31.0942281S
p4545
sg183
I3
sg184
VP0DT0H0M5.9333S
p4546
sg39
(dp4547
g41
VOG APG HCS
p4548
sg43
Nssa(dp4549
g38
I313138863
sg39
(dp4550
g41
VnV eL ToWn
p4551
sg43
Nssg44
(lp4552
I1095363701
asg32
VWeaponPickup
p4553
sg35
VPT4M32.0579142S
p4554
sa(dp4555
g38
I4096745987
sg39
(dp4556
g41
VnV eL ToWn
p4557
sg43
Nssg44
(lp4558
I2758383128
asg32
VWeaponPickup
p4559
sg35
VPT4M32.0579142S
p4560
sa(dp4561
g32
VPlayerSpawn
p4562
sg39
(dp4563
g41
VnV eL ToWn
p4564
sg43
Nssg35
VPT4M32.0579142S
p4565
sa(dp4566
g38
I313138863
sg39
(dp4567
g41
VOG Maniac HCS
p4568
sg43
Nssg44
(lp4569
I1095363701
asg32
VWeaponPickup
p4570
sg35
VPT4M33.173928S
p4571
sa(dp4572
g38
I4096745987
sg39
(dp4573
g41
VOG Maniac HCS
p4574
sg43
Nssg44
(lp4575
I2758383128
asg32
VWeaponPickup
p4576
sg35
VPT4M33.1749286S
p4577
sa(dp4578
g32
VPlayerSpawn
p4579
sg39
(dp4580
g41
VOG Maniac HCS
p4581
sg43
Nssg35
VPT4M33.1749286S
p4582
sa(dp4583
g38
I313138863
sg39
(dp4584
g41
VnV Mikwen HCS
p4585
sg43
Nssg44
(lp4586
I1095363701
asg32
VWeaponPickup
p4587
sg35
VPT4M33.3909311S
p4588
sa(dp4589
g38
I4096745987
sg39
(dp4590
g41
VnV Mikwen HCS
p4591
sg43
Nssg44
(lp4592
I2758383128
asg32
VWeaponPickup
p4593
sg35
VPT4M33.3909311S
p4594
sa(dp4595
g32
VPlayerSpawn
p4596
sg39
(dp4597
g41
VnV Mikwen HCS
p4598
sg43
Nssg35
VPT4M33.3909311S
p4599
sa(dp4600
g38
I4096745987
sg32
VWeaponDrop
p4601
sg180
I0
sg44
(lp4602
I2758383128
asg35
VPT4M34.0561479S
p4603
sg183
I0
sg184
VP0DT0H0M1.1500S
p4604
sg39
(dp4605
g41
VnV eL ToWn
p4606
sg43
Nssa(dp4607
g38
I523953283
sg39
(dp4608
g41
VnV eL ToWn
p4609
sg43
Nssg44
(lp4610
I1327094800
asg32
VWeaponPickup
p4611
sg35
VPT4M34.0561479S
p4612
sa(dp4613
g214
I4096745987
sg215
I00
sg216
I00
sg217
(dp4614
g41
VOG Str8 SickHCS
p4615
sg43
Nssg220
(lp4616
I2758383128
asg222
I00
sg223
I01
sg224
I1
sg225
I0
sg226
I1
sg227
(dp4617
Vy
F-5.3125470000000004
sVx
F-0.9495692
sVz
F-0.0010834038300000001
ssg229
(dp4618
Vy
F2.8769335699999998
sVx
F-1.89847934
sVz
F0.478520632
ssg231
I00
sg232
(dp4619
g41
VnV Pistola HCS
p4620
sg43
Nssg235
(lp4621
sg237
(lp4622
(dp4623
g41
VOG ACE HCS
p4624
sg43
Nsasg241
I01
sg35
VPT4M34.0909393S
p4625
sg32
VDeath
p4626
sg244
I1
sa(dp4627
g32
VMedal
p4628
sg39
(dp4629
g41
VOG Str8 SickHCS
p4630
sg43
Nssg255
I3261908037
sg35
VPT4M34.0929393S
p4631
sa(dp4632
g32
VMedal
p4633
sg39
(dp4634
g41
VOG Str8 SickHCS
p4635
sg43
Nssg255
I2763748638
sg35
VPT4M34.0929393S
p4636
sa(dp4637
g38
I313138863
sg32
VWeaponDrop
p4638
sg180
I22
sg44
(lp4639
I1095363701
asg35
VPT4M34.0929393S
p4640
sg183
I19
sg184
VP0DT0H0M13.3333S
p4641
sg39
(dp4642
g41
VnV Pistola HCS
p4643
sg43
Nssa(dp4644
g38
I4096745987
sg32
VWeaponDrop
p4645
sg180
I9
sg44
(lp4646
I2758383128
asg35
VPT4M34.0929393S
p4647
sg183
I7
sg184
VP0DT0H0M23.1833S
p4648
sg39
(dp4649
g41
VnV Pistola HCS
p4650
sg43
Nssa(dp4651
g38
I313138863
sg39
(dp4652
g41
VnV RayneHCS
p4653
sg43
Nssg44
(lp4654
I1095363701
asg32
VWeaponPickup
p4655
sg35
VPT4M37.6239849S
p4656
sa(dp4657
g38
I4096745987
sg39
(dp4658
g41
VnV RayneHCS
p4659
sg43
Nssg44
(lp4660
I2758383128
asg32
VWeaponPickup
p4661
sg35
VPT4M37.624985S
p4662
sa(dp4663
g32
VPlayerSpawn
p4664
sg39
(dp4665
g41
VnV RayneHCS
p4666
sg43
Nssg35
VPT4M37.624985S
p4667
sa(dp4668
g38
I313138863
sg39
(dp4669
g41
VOG APG HCS
p4670
sg43
Nssg44
(lp4671
I1095363701
asg32
VWeaponPickup
p4672
sg35
VPT4M39.1080046S
p4673
sa(dp4674
g38
I4096745987
sg39
(dp4675
g41
VOG APG HCS
p4676
sg43
Nssg44
(lp4677
I2758383128
asg32
VWeaponPickup
p4678
sg35
VPT4M39.1080046S
p4679
sa(dp4680
g32
VPlayerSpawn
p4681
sg39
(dp4682
g41
VOG APG HCS
p4683
sg43
Nssg35
VPT4M39.1080046S
p4684
sa(dp4685
g214
I4096745987
sg215
I00
sg216
I00
sg217
(dp4686
g41
VOG Maniac HCS
p4687
sg43
Nssg220
(lp4688
I2758383128
asg222
I00
sg223
I01
sg224
I1
sg225
I0
sg226
I1
sg227
(dp4689
Vy
F11.9142694
sVx
F4.0066459999999999
sVz
F1.6405909999999999
ssg229
(dp4690
Vy
F8.9011720000000008
sVx
F-12.1597586
sVz
F1.6000049999999999
ssg231
I00
sg232
(dp4691
g41
VnV Mikwen HCS
p4692
sg43
Nssg235
(lp4693
sg237
(lp4694
(dp4695
g41
VOG ACE HCS
p4696
sg43
Nsasg241
I01
sg35
VPT4M40.1570172S
p4697
sg32
VDeath
p4698
sg244
I1
sa(dp4699
g32
VMedal
p4700
sg39
(dp4701
g41
VOG Maniac HCS
p4702
sg43
Nssg255
I3261908037
sg35
VPT4M40.1580176S
p4703
sa(dp4704
g38
I313138863
sg32
VWeaponDrop
p4705
sg180
I0
sg44
(lp4706
I1095363701
asg35
VPT4M40.1590173S
p4707
sg183
I0
sg184
VP0DT0H0M0.8667S
p4708
sg39
(dp4709
g41
VnV Mikwen HCS
p4710
sg43
Nssa(dp4711
g38
I4096745987
sg32
VWeaponDrop
p4712
sg180
I5
sg44
(lp4713
I2758383128
asg35
VPT4M40.1590173S
p4714
sg183
I1
sg184
VP0DT0H0M5.9000S
p4715
sg39
(dp4716
g41
VnV Mikwen HCS
p4717
sg43
Nssa(dp4718
g214
I723523180
sg215
I00
sg216
I00
sg217
(dp4719
g41
VOG Str8 SickHCS
p4720
sg43
Nssg220
(lp4721
I2758383128
asg222
I00
sg223
I01
sg224
I1
sg225
I0
sg226
I1
sg227
(dp4722
Vy
F-2.0362513099999999
sVx
F-17.871849999999998
sVz
F2.7269649999999999
ssg229
(dp4723
Vy
F0.33899414500000002
sVx
F-16.127323199999999
sVz
F2.3187150000000001
ssg231
I00
sg232
(dp4724
g41
VnV RayneHCS
p4725
sg43
Nssg235
(lp4726
sg237
(lp4727
sg241
I00
sg35
VPT4M41.9570399S
p4728
sg32
VDeath
p4729
sg244
I1
sa(dp4730
g38
I313138863
sg32
VWeaponDrop
p4731
sg180
I0
sg44
(lp4732
I1095363701
asg35
VPT4M41.9580404S
p4733
sg183
I0
sg184
VP0DT0H0M1.0000S
p4734
sg39
(dp4735
g41
VnV RayneHCS
p4736
sg43
Nssa(dp4737
g38
I4096745987
sg32
VWeaponDrop
p4738
sg180
I0
sg44
(lp4739
I2758383128
asg35
VPT4M41.9580404S
p4740
sg183
I0
sg184
VP0DT0H0M3.3333S
p4741
sg39
(dp4742
g41
VnV RayneHCS
p4743
sg43
Nssa(dp4744
g38
I313138863
sg39
(dp4745
g41
VnV Pistola HCS
p4746
sg43
Nssg44
(lp4747
I1095363701
asg32
VWeaponPickup
p4748
sg35
VPT4M42.1070428S
p4749
sa(dp4750
g38
I4096745987
sg39
(dp4751
g41
VnV Pistola HCS
p4752
sg43
Nssg44
(lp4753
I2758383128
asg32
VWeaponPickup
p4754
sg35
VPT4M42.1080425S
p4755
sa(dp4756
g32
VPlayerSpawn
p4757
sg39
(dp4758
g41
VnV Pistola HCS
p4759
sg43
Nssg35
VPT4M42.1080425S
p4760
sa(dp4761
g38
I2244200496
sg39
(dp4762
g41
VOG Str8 SickHCS
p4763
sg43
Nssg44
(lp4764
I2758383128
asg32
VWeaponPickup
p4765
sg35
VPT4M42.5390456S
p4766
sa(dp4767
g32
VImpulse
p4768
sg39
(dp4769
g41
VOG Str8 SickHCS
p4770
sg43
Nssg249
I4191318012
sg35
VPT4M42.5400477S
p4771
sa(dp4772
g32
VImpulse
p4773
sg39
(dp4774
g41
VOG Str8 SickHCS
p4775
sg43
Nssg249
I1039658009
sg35
VPT4M42.5400477S
p4776
sa(dp4777
g38
I2244200496
sg32
VWeaponDrop
p4778
sg180
I0
sg44
(lp4779
I2758383128
asg35
VPT4M43.4060567S
p4780
sg183
I0
sg184
VP0DT0H0M0.7167S
p4781
sg39
(dp4782
g41
VOG Str8 SickHCS
p4783
sg43
Nssa(dp4784
g32
VImpulse
p4785
sg39
(dp4786
g41
VOG Str8 SickHCS
p4787
sg43
Nssg249
I3435524855
sg35
VPT4M43.4070591S
p4788
sa(dp4789
g38
I2244200496
sg39
(dp4790
g41
VOG Str8 SickHCS
p4791
sg43
Nssg44
(lp4792
I2758383128
asg32
VWeaponPickup
p4793
sg35
VPT4M44.8230771S
p4794
sa(dp4795
g32
VImpulse
p4796
sg39
(dp4797
g41
VOG Str8 SickHCS
p4798
sg43
Nssg249
I4191318012
sg35
VPT4M44.8230771S
p4799
sa(dp4800
g38
I2244200496
sg32
VWeaponDrop
p4801
sg180
I0
sg44
(lp4802
I2758383128
asg35
VPT4M45.7890875S
p4803
sg183
I0
sg184
VP0DT0H0M0.8167S
p4804
sg39
(dp4805
g41
VOG Str8 SickHCS
p4806
sg43
Nssa(dp4807
g32
VImpulse
p4808
sg39
(dp4809
g41
VOG Str8 SickHCS
p4810
sg43
Nssg249
I3435524855
sg35
VPT4M45.7900891S
p4811
sa(dp4812
g38
I2244200496
sg39
(dp4813
g41
VOG Str8 SickHCS
p4814
sg43
Nssg44
(lp4815
I2758383128
asg32
VWeaponPickup
p4816
sg35
VPT4M47.489109S
p4817
sa(dp4818
g32
VImpulse
p4819
sg39
(dp4820
g41
VOG Str8 SickHCS
p4821
sg43
Nssg249
I4191318012
sg35
VPT4M47.490111S
p4822
sa(dp4823
g38
I313138863
sg39
(dp4824
g41
VnV Mikwen HCS
p4825
sg43
Nssg44
(lp4826
I1095363701
asg32
VWeaponPickup
p4827
sg35
VPT4M48.1741202S
p4828
sa(dp4829
g38
I4096745987
sg39
(dp4830
g41
VnV Mikwen HCS
p4831
sg43
Nssg44
(lp4832
I2758383128
asg32
VWeaponPickup
p4833
sg35
VPT4M48.1741202S
p4834
sa(dp4835
g32
VPlayerSpawn
p4836
sg39
(dp4837
g41
VnV Mikwen HCS
p4838
sg43
Nssg35
VPT4M48.1741202S
p4839
sa(dp4840
g38
I2244200496
sg32
VWeaponDrop
p4841
sg180
I0
sg44
(lp4842
I2758383128
asg35
VPT4M48.2061198S
p4843
sg183
I0
sg184
VP0DT0H0M0.5667S
p4844
sg39
(dp4845
g41
VOG Str8 SickHCS
p4846
sg43
Nssa(dp4847
g32
VImpulse
p4848
sg39
(dp4849
g41
VOG Str8 SickHCS
p4850
sg43
Nssg249
I3435524855
sg35
VPT4M48.2061198S
p4851
sa(dp4852
g38
I2244200496
sg39
(dp4853
g41
VOG Str8 SickHCS
p4854
sg43
Nssg44
(lp4855
I2758383128
asg32
VWeaponPickup
p4856
sg35
VPT4M49.7391378S
p4857
sa(dp4858
g32
VImpulse
p4859
sg39
(dp4860
g41
VOG Str8 SickHCS
p4861
sg43
Nssg249
I4191318012
sg35
VPT4M49.7401404S
p4862
sa(dp4863
g38
I313138863
sg39
(dp4864
g41
VnV RayneHCS
p4865
sg43
Nssg44
(lp4866
I1095363701
asg32
VWeaponPickup
p4867
sg35
VPT4M49.9741432S
p4868
sa(dp4869
g38
I4096745987
sg39
(dp4870
g41
VnV RayneHCS
p4871
sg43
Nssg44
(lp4872
I2758383128
asg32
VWeaponPickup
p4873
sg35
VPT4M49.9741432S
p4874
sa(dp4875
g32
VPlayerSpawn
p4876
sg39
(dp4877
g41
VnV RayneHCS
p4878
sg43
Nssg35
VPT4M49.9741432S
p4879
sa(dp4880
g38
I2244200496
sg32
VWeaponDrop
p4881
sg180
I0
sg44
(lp4882
I2758383128
asg35
VPT4M50.1221428S
p4883
sg183
I0
sg184
VP0DT0H0M0.2333S
p4884
sg39
(dp4885
g41
VOG Str8 SickHCS
p4886
sg43
Nssa(dp4887
g32
VImpulse
p4888
sg39
(dp4889
g41
VOG Str8 SickHCS
p4890
sg43
Nssg249
I3435524855
sg35
VPT4M50.123145S
p4891
sa(dp4892
g38
I313138863
sg32
VWeaponDrop
p4893
sg180
I0
sg44
(lp4894
I1095363701
asg35
VPT4M50.7224429S
p4895
sg183
I0
sg184
VP0DT0H0M1.5333S
p4896
sg39
(dp4897
g41
VnV Mikwen HCS
p4898
sg43
Nssa(dp4899
g38
I1579758889
sg39
(dp4900
g41
VnV Mikwen HCS
p4901
sg43
Nssg44
(lp4902
I2758383128
asg32
VWeaponPickup
p4903
sg35
VPT4M50.7224429S
p4904
sa(dp4905
g38
I2244200496
sg39
(dp4906
g41
VOG Str8 SickHCS
p4907
sg43
Nssg44
(lp4908
I2758383128
asg32
VWeaponPickup
p4909
sg35
VPT4M52.0061691S
p4910
sa(dp4911
g32
VImpulse
p4912
sg39
(dp4913
g41
VOG Str8 SickHCS
p4914
sg43
Nssg249
I4191318012
sg35
VPT4M52.0061691S
p4915
sa(dp4916
g38
I2244200496
sg32
VWeaponDrop
p4917
sg180
I0
sg44
(lp4918
I2758383128
asg35
VPT4M52.6721753S
p4919
sg183
I0
sg184
VP0DT0H0M0.5167S
p4920
sg39
(dp4921
g41
VOG Str8 SickHCS
p4922
sg43
Nssa(dp4923
g32
VImpulse
p4924
sg39
(dp4925
g41
VOG Str8 SickHCS
p4926
sg43
Nssg249
I3435524855
sg35
VPT4M52.6731767S
p4927
sa(dp4928
g214
I4106030681
sg215
I00
sg216
I00
sg217
(dp4929
g41
VOG ACE HCS
p4930
sg43
Nssg220
(lp4931
sg222
I00
sg223
I01
sg224
I1
sg225
I0
sg226
I1
sg227
(dp4932
Vy
F5.44549561
sVx
F-12.05203
sVz
F2.4460213199999998
ssg229
(dp4933
Vy
F-0.60179470000000002
sVx
F-6.1731286000000001
sVz
F0.00176927447
ssg231
I00
sg232
(dp4934
g41
VnV eL ToWn
p4935
sg43
Nssg235
(lp4936
sg237
(lp4937
sg241
I00
sg35
VPT4M53.4401872S
p4938
sg32
VDeath
p4939
sg244
I1
sa(dp4940
g38
I313138863
sg32
VWeaponDrop
p4941
sg180
I0
sg44
(lp4942
I1095363701
asg35
VPT4M53.4411868S
p4943
sg183
I0
sg184
VP0DT0H0M0.8500S
p4944
sg39
(dp4945
g41
VnV eL ToWn
p4946
sg43
Nssa(dp4947
g38
I523953283
sg32
VWeaponDrop
p4948
sg180
I11
sg44
(lp4949
I1327094800
asg35
VPT4M53.4411868S
p4950
sg183
I5
sg184
VP0DT0H0M19.3833S
p4951
sg39
(dp4952
g41
VnV eL ToWn
p4953
sg43
Nssa(dp4954
g38
I2244200496
sg39
(dp4955
g41
VOG Str8 SickHCS
p4956
sg43
Nssg44
(lp4957
I2758383128
asg32
VWeaponPickup
p4958
sg35
VPT4M54.139205S
p4959
sa(dp4960
g32
VImpulse
p4961
sg39
(dp4962
g41
VOG Str8 SickHCS
p4963
sg43
Nssg249
I4191318012
sg35
VPT4M54.139205S
p4964
sa(dp4965
g38
I2244200496
sg32
VWeaponDrop
p4966
sg180
I0
sg44
(lp4967
I2758383128
asg35
VPT4M54.6222008S
p4968
sg183
I0
sg184
VP0DT0H0M0.3333S
p4969
sg39
(dp4970
g41
VOG Str8 SickHCS
p4971
sg43
Nssa(dp4972
g32
VImpulse
p4973
sg39
(dp4974
g41
VOG Str8 SickHCS
p4975
sg43
Nssg249
I3435524855
sg35
VPT4M54.6232021S
p4976
sa(dp4977
g38
I2244200496
sg39
(dp4978
g41
VOG Str8 SickHCS
p4979
sg43
Nssg44
(lp4980
I2758383128
asg32
VWeaponPickup
p4981
sg35
VPT4M56.5552255S
p4982
sa(dp4983
g32
VImpulse
p4984
sg39
(dp4985
g41
VOG Str8 SickHCS
p4986
sg43
Nssg249
I4191318012
sg35
VPT4M56.5562276S
p4987
sa(dp4988
g214
I4106030681
sg215
I00
sg216
I00
sg217
(dp4989
g41
VOG APG HCS
p4990
sg43
Nssg220
(lp4991
sg222
I00
sg223
I01
sg224
I1
sg225
I0
sg226
I1
sg227
(dp4992
Vy
F-8.2890510000000006
sVx
F17.526924099999999
sVz
F0.79995859999999996
ssg229
(dp4993
Vy
F-8.2843809999999998
sVx
F5.0351896299999996
sVz
F0.03443852
ssg231
I00
sg232
(dp4994
g41
VnV Pistola HCS
p4995
sg43
Nssg235
(lp4996
sg237
(lp4997
(dp4998
g41
VOG Maniac HCS
p4999
sg43
Nsasg241
I00
sg35
VPT4M56.6892283S
p5000
sg32
VDeath
p5001
sg244
I1
sa(dp5002
g38
I313138863
sg32
VWeaponDrop
p5003
sg180
I0
sg44
(lp5004
I1095363701
asg35
VPT4M56.6922284S
p5005
sg183
I0
sg184
VP0DT0H0M0.6667S
p5006
sg39
(dp5007
g41
VnV Pistola HCS
p5008
sg43
Nssa(dp5009
g38
I4096745987
sg32
VWeaponDrop
p5010
sg180
I3
sg44
(lp5011
I2758383128
asg35
VPT4M56.6922284S
p5012
sg183
I2
sg184
VP0DT0H0M13.9167S
p5013
sg39
(dp5014
g41
VnV Pistola HCS
p5015
sg43
Nssa(dp5016
g38
I2244200496
sg32
VWeaponDrop
p5017
sg180
I0
sg44
(lp5018
I2758383128
asg35
VPT4M57.3552352S
p5019
sg183
I0
sg184
VP0DT0H0M0.6500S
p5020
sg39
(dp5021
g41
VOG Str8 SickHCS
p5022
sg43
Nssa(dp5023
g32
VImpulse
p5024
sg39
(dp5025
g41
VOG Str8 SickHCS
p5026
sg43
Nssg249
I3435524855
sg35
VPT4M57.3562371S
p5027
sa(dp5028
g214
I4096745987
sg215
I01
sg216
I00
sg217
(dp5029
g41
VOG ACE HCS
p5030
sg43
Nssg220
(lp5031
I2758383128
asg222
I00
sg223
I00
sg224
I1
sg225
I0
sg226
I1
sg227
(dp5032
Vy
F-0.53502970000000005
sVx
F-2.7812662100000001
sVz
F2.4020834
ssg229
(dp5033
Vy
F-1.0315238200000001
sVx
F-2.3305993100000002
sVz
F2.4012627599999998
ssg231
I00
sg232
(dp5034
g41
VnV RayneHCS
p5035
sg43
Nssg235
(lp5036
sg237
(lp5037
(dp5038
g41
VOG Maniac HCS
p5039
sg43
Nsasg241
I00
sg35
VPT4M57.8402447S
p5040
sg32
VDeath
p5041
sg244
I1
sa(dp5042
g32
VMedal
p5043
sg39
(dp5044
g41
VOG ACE HCS
p5045
sg43
Nssg255
I3270120991
sg35
VPT4M57.8412436S
p5046
sa(dp5047
g32
VMedal
p5048
sg39
(dp5049
g41
VOG ACE HCS
p5050
sg43
Nssg255
I2078758684
sg35
VPT4M57.8412436S
p5051
sa(dp5052
g38
I4096745987
sg32
VWeaponDrop
p5053
sg180
I3
sg44
(lp5054
I2758383128
asg35
VPT4M57.8422435S
p5055
sg183
I3
sg184
VP0DT0H0M7.0667S
p5056
sg39
(dp5057
g41
VnV RayneHCS
p5058
sg43
Nssa(dp5059
g38
I313138863
sg32
VWeaponDrop
p5060
sg180
I0
sg44
(lp5061
I1095363701
asg35
VPT4M57.8432431S
p5062
sg183
I0
sg184
VP0DT0H0M0.8000S
p5063
sg39
(dp5064
g41
VnV RayneHCS
p5065
sg43
Nssa(dp5066
g38
I2244200496
sg39
(dp5067
g41
VOG Str8 SickHCS
p5068
sg43
Nssg44
(lp5069
I2758383128
asg32
VWeaponPickup
p5070
sg35
VPT4M58.6052519S
p5071
sa(dp5072
g32
VImpulse
p5073
sg39
(dp5074
g41
VOG Str8 SickHCS
p5075
sg43
Nssg249
I4191318012
sg35
VPT4M58.6062539S
p5076
sa(dp5077
g32
VMedal
p5078
sg39
(dp5079
g41
VOG Str8 SickHCS
p5080
sg43
Nssg255
I3894006667
sg35
VPT4M59.1892603S
p5081
sa(dp5082
g32
VImpulse
p5083
sg39
(dp5084
g41
VOG Str8 SickHCS
p5085
sg43
Nssg249
I2944278681
sg35
VPT4M59.1892603S
p5086
sa(dp5087
g38
I2244200496
sg32
VWeaponDrop
p5088
sg180
I0
sg44
(lp5089
I2758383128
asg35
VPT4M59.1902609S
p5090
sg183
I0
sg184
VP0DT0H0M0.4333S
p5091
sg39
(dp5092
g41
VOG Str8 SickHCS
p5093
sg43
Nssa(dp5094
g38
I723523180
sg32
VWeaponDrop
p5095
sg180
I4
sg44
(lp5096
I2758383128
asg35
VPT5M0.8382889S
p5097
sg183
I4
sg184
VP0DT0H0M21.6167S
p5098
sg39
(dp5099
g41
VOG Str8 SickHCS
p5100
sg43
Nssa(dp5101
g38
I523953283
sg39
(dp5102
g41
VOG Str8 SickHCS
p5103
sg43
Nssg44
(lp5104
I1327094800
asg32
VWeaponPickup
p5105
sg35
VPT5M0.839282S
p5106
sa(dp5107
g38
I313138863
sg39
(dp5108
g41
VnV eL ToWn
p5109
sg43
Nssg44
(lp5110
I1095363701
asg32
VWeaponPickup
p5111
sg35
VPT5M1.4572903S
p5112
sa(dp5113
g38
I4096745987
sg39
(dp5114
g41
VnV eL ToWn
p5115
sg43
Nssg44
(lp5116
I2758383128
asg32
VWeaponPickup
p5117
sg35
VPT5M1.4572903S
p5118
sa(dp5119
g32
VPlayerSpawn
p5120
sg39
(dp5121
g41
VnV eL ToWn
p5122
sg43
Nssg35
VPT5M1.4572903S
p5123
sa(dp5124
g38
I2244200496
sg39
(dp5125
g41
VOG ACE HCS
p5126
sg43
Nssg44
(lp5127
I2758383128
asg32
VWeaponPickup
p5128
sg35
VPT5M4.4883271S
p5129
sa(dp5130
g32
VImpulse
p5131
sg39
(dp5132
g41
VOG ACE HCS
p5133
sg43
Nssg249
I4191318012
sg35
VPT5M4.4893284S
p5134
sa(dp5135
g32
VImpulse
p5136
sg39
(dp5137
g41
VOG ACE HCS
p5138
sg43
Nssg249
I1039658009
sg35
VPT5M4.4893284S
p5139
sa(dp5140
g38
I313138863
sg39
(dp5141
g41
VnV Pistola HCS
p5142
sg43
Nssg44
(lp5143
I1095363701
asg32
VWeaponPickup
p5144
sg35
VPT5M4.7063317S
p5145
sa(dp5146
g38
I4096745987
sg39
(dp5147
g41
VnV Pistola HCS
p5148
sg43
Nssg44
(lp5149
I2758383128
asg32
VWeaponPickup
p5150
sg35
VPT5M4.7073318S
p5151
sa(dp5152
g32
VPlayerSpawn
p5153
sg39
(dp5154
g41
VnV Pistola HCS
p5155
sg43
Nssg35
VPT5M4.7073318S
p5156
sa(dp5157
g38
I2244200496
sg32
VWeaponDrop
p5158
sg180
I0
sg44
(lp5159
I2758383128
asg35
VPT5M5.2883371S
p5160
sg183
I0
sg184
VP0DT0H0M0.6500S
p5161
sg39
(dp5162
g41
VOG ACE HCS
p5163
sg43
Nssa(dp5164
g32
VImpulse
p5165
sg39
(dp5166
g41
VOG ACE HCS
p5167
sg43
Nssg249
I3435524855
sg35
VPT5M5.2893388S
p5168
sa(dp5169
g38
I313138863
sg39
(dp5170
g41
VnV RayneHCS
p5171
sg43
Nssg44
(lp5172
I1095363701
asg32
VWeaponPickup
p5173
sg35
VPT5M5.8563459S
p5174
sa(dp5175
g38
I4096745987
sg39
(dp5176
g41
VnV RayneHCS
p5177
sg43
Nssg44
(lp5178
I2758383128
asg32
VWeaponPickup
p5179
sg35
VPT5M5.8573466S
p5180
sa(dp5181
g32
VPlayerSpawn
p5182
sg39
(dp5183
g41
VnV RayneHCS
p5184
sg43
Nssg35
VPT5M5.8573466S
p5185
sa(dp5186
g38
I2244200496
sg39
(dp5187
g41
VOG ACE HCS
p5188
sg43
Nssg44
(lp5189
I2758383128
asg32
VWeaponPickup
p5190
sg35
VPT5M6.5383528S
p5191
sa(dp5192
g32
VImpulse
p5193
sg39
(dp5194
g41
VOG ACE HCS
p5195
sg43
Nssg249
I4191318012
sg35
VPT5M6.5393549S
p5196
sa(dp5197
g38
I313138863
sg32
VWeaponDrop
p5198
sg180
I0
sg44
(lp5199
I1095363701
asg35
VPT5M7.1553607S
p5200
sg183
I0
sg184
VP0DT0H0M2.6833S
p5201
sg39
(dp5202
g41
VOG Maniac HCS
p5203
sg43
Nssa(dp5204
g38
I2015271382
sg39
(dp5205
g41
VOG Maniac HCS
p5206
sg43
Nssg44
(lp5207
I2758383128
asg32
VWeaponPickup
p5208
sg35
VPT5M7.1553607S
p5209
sa(dp5210
g38
I2244200496
sg32
VWeaponDrop
p5211
sg180
I0
sg44
(lp5212
I2758383128
asg35
VPT5M7.7555279S
p5213
sg183
I0
sg184
VP0DT0H0M1.0667S
p5214
sg39
(dp5215
g41
VOG ACE HCS
p5216
sg43
Nssa(dp5217
g32
VImpulse
p5218
sg39
(dp5219
g41
VOG ACE HCS
p5220
sg43
Nssg249
I3435524855
sg35
VPT5M7.7563706S
p5221
sa(dp5222
g38
I2244200496
sg39
(dp5223
g41
VOG ACE HCS
p5224
sg43
Nssg44
(lp5225
I2758383128
asg32
VWeaponPickup
p5226
sg35
VPT5M9.3553889S
p5227
sa(dp5228
g32
VImpulse
p5229
sg39
(dp5230
g41
VOG ACE HCS
p5231
sg43
Nssg249
I4191318012
sg35
VPT5M9.3564667S
p5232
sa(dp5233
g214
I4106030681
sg215
I00
sg216
I00
sg217
(dp5234
g41
VnV eL ToWn
p5235
sg43
Nssg220
(lp5236
sg222
I00
sg223
I00
sg224
I2
sg225
I0
sg226
I0
sg227
(dp5237
Vy
F3.10572553
sVx
F-17.128978700000001
sVz
F3.2302408200000001
ssg229
(dp5238
Vy
F11.3704681
sVx
F-8.4531229999999997
sVz
F4.9006905600000001
ssg231
I00
sg232
(dp5239
g478
g479
ssg235
(lp5240
sg237
(lp5241
sg241
I00
sg35
VPT5M9.7223957S
p5242
sg32
VDeath
p5243
sg244
I1
sa(dp5244
g38
I2244200496
sg32
VWeaponDrop
p5245
sg180
I0
sg44
(lp5246
I2758383128
asg35
VPT5M9.8053997S
p5247
sg183
I0
sg184
VP0DT0H0M0.3000S
p5248
sg39
(dp5249
g41
VOG ACE HCS
p5250
sg43
Nssa(dp5251
g32
VImpulse
p5252
sg39
(dp5253
g41
VOG ACE HCS
p5254
sg43
Nssg249
I3435524855
sg35
VPT5M9.806397S
p5255
sa(dp5256
g38
I4096745987
sg32
VWeaponDrop
p5257
sg180
I3
sg44
(lp5258
I2758383128
asg35
VPT5M9.8883964S
p5259
sg183
I1
sg184
VP0DT0H0M26.2167S
p5260
sg39
(dp5261
g41
VOG Str8 SickHCS
p5262
sg43
Nssa(dp5263
g38
I3484334713
sg39
(dp5264
g41
VOG Str8 SickHCS
p5265
sg43
Nssg44
(lp5266
I2758383128
asg32
VWeaponPickup
p5267
sg35
VPT5M9.8883964S
p5268
sa(dp5269
g214
I2015271382
sg215
I00
sg216
I01
sg217
(dp5270
g41
VOG Maniac HCS
p5271
sg43
Nssg220
(lp5272
I2758383128
asg222
I00
sg223
I00
sg224
I1
sg225
I0
sg226
I1
sg227
(dp5273
Vy
F-2.2616422200000001
sVx
F-8.1398410000000005
sVz
F0.0020147438599999999
ssg229
(dp5274
Vy
F-1.8939304400000001
sVx
F-8.3401160000000001
sVz
F0.0040927530000000002
ssg231
I00
sg232
(dp5275
g41
VnV RayneHCS
p5276
sg43
Nssg235
(lp5277
sg237
(lp5278
sg241
I00
sg35
VPT5M11.0064121S
p5279
sg32
VDeath
p5280
sg244
I1
sa(dp5281
g32
VMedal
p5282
sg39
(dp5283
g41
VOG Maniac HCS
p5284
sg43
Nssg255
I250435527
sg35
VPT5M11.0125264S
p5285
sa(dp5286
g38
I313138863
sg32
VWeaponDrop
p5287
sg180
I1
sg44
(lp5288
I1095363701
asg35
VPT5M11.0125264S
p5289
sg183
I1
sg184
VP0DT0H0M1.4833S
p5290
sg39
(dp5291
g41
VnV RayneHCS
p5292
sg43
Nssa(dp5293
g38
I313138863
sg32
VWeaponDrop
p5294
sg180
I0
sg44
(lp5295
I1095363701
asg35
VPT5M11.0125264S
p5296
sg183
I0
sg184
VP0DT0S
p5297
sg39
(dp5298
g41
VnV RayneHCS
p5299
sg43
Nssa(dp5300
g38
I4096745987
sg32
VWeaponDrop
p5301
sg180
I2
sg44
(lp5302
I2758383128
asg35
VPT5M11.0134126S
p5303
sg183
I0
sg184
VP0DT0H0M3.6667S
p5304
sg39
(dp5305
g41
VnV RayneHCS
p5306
sg43
Nssa(dp5307
g38
I2244200496
sg39
(dp5308
g41
VOG ACE HCS
p5309
sg43
Nssg44
(lp5310
I2758383128
asg32
VWeaponPickup
p5311
sg35
VPT5M11.3384143S
p5312
sa(dp5313
g32
VImpulse
p5314
sg39
(dp5315
g41
VOG ACE HCS
p5316
sg43
Nssg249
I4191318012
sg35
VPT5M11.3394161S
p5317
sa(dp5318
g38
I2244200496
sg32
VWeaponDrop
p5319
sg180
I0
sg44
(lp5320
I2758383128
asg35
VPT5M12.2714266S
p5321
sg183
I0
sg184
VP0DT0H0M0.7833S
p5322
sg39
(dp5323
g41
VOG ACE HCS
p5324
sg43
Nssa(dp5325
g32
VImpulse
p5326
sg39
(dp5327
g41
VOG ACE HCS
p5328
sg43
Nssg249
I3435524855
sg35
VPT5M12.2724284S
p5329
sa(dp5330
g214
I1579758889
sg215
I00
sg216
I00
sg217
(dp5331
g41
VnV Mikwen HCS
p5332
sg43
Nssg220
(lp5333
I2758383128
asg222
I00
sg223
I01
sg224
I1
sg225
I0
sg226
I1
sg227
(dp5334
Vy
F0.40275356200000001
sVx
F2.94908357
sVz
F2.4012634799999999
ssg229
(dp5335
Vy
F9.7860220000000009
sVx
F-0.023461997500000002
sVz
F2.5249109999999999
ssg231
I00
sg232
(dp5336
g41
VOG Str8 SickHCS
p5337
sg43
Nssg235
(lp5338
sg237
(lp5339
(dp5340
g41
VnV eL ToWn
p5341
sg43
Nsasg241
I00
sg35
VPT5M12.9404364S
p5342
sg32
VDeath
p5343
sg244
I1
sa(dp5344
g38
I523953283
sg32
VWeaponDrop
p5345
sg180
I2
sg44
(lp5346
I1327094800
asg35
VPT5M12.9414367S
p5347
sg183
I2
sg184
VP0DT0H0M9.8667S
p5348
sg39
(dp5349
g41
VOG Str8 SickHCS
p5350
sg43
Nssa(dp5351
g38
I3484334713
sg32
VWeaponDrop
p5352
sg180
I0
sg44
(lp5353
I2758383128
asg35
VPT5M12.9414367S
p5354
sg183
I0
sg184
VP0DT0H0M0.6500S
p5355
sg39
(dp5356
g41
VOG Str8 SickHCS
p5357
sg43
Nssa(dp5358
g214
I313138863
sg215
I01
sg216
I00
sg217
(dp5359
g41
VOG APG HCS
p5360
sg43
Nssg220
(lp5361
I1095363701
asg222
I00
sg223
I00
sg224
I1
sg225
I0
sg226
I1
sg227
(dp5362
Vy
F-2.2773086999999999
sVx
F3.5455701400000001
sVz
F2.3965365900000002
ssg229
(dp5363
Vy
F-2.0601715999999999
sVx
F3.2635846100000001
sVz
F2.4012634799999999
ssg231
I00
sg232
(dp5364
g41
VnV Mikwen HCS
p5365
sg43
Nssg235
(lp5366
sg237
(lp5367
sg241
I00
sg35
VPT5M15.3394676S
p5368
sg32
VDeath
p5369
sg244
I1
sa(dp5370
g32
VMedal
p5371
sg39
(dp5372
g41
VOG APG HCS
p5373
sg43
Nssg255
I3270120991
sg35
VPT5M15.3414669S
p5374
sa(dp5375
g38
I4096745987
sg32
VWeaponDrop
p5376
sg180
I3
sg44
(lp5377
I2758383128
asg35
VPT5M15.3414669S
p5378
sg183
I0
sg184
VP0DT0H0M3.5833S
p5379
sg39
(dp5380
g41
VnV Mikwen HCS
p5381
sg43
Nssa(dp5382
g38
I1579758889
sg32
VWeaponDrop
p5383
sg180
I8
sg44
(lp5384
I2758383128
asg35
VPT5M15.3414669S
p5385
sg183
I2
sg184
VP0DT0H0M22.0500S
p5386
sg39
(dp5387
g41
VnV Mikwen HCS
p5388
sg43
Nssa(dp5389
g38
I313138863
sg39
(dp5390
g41
VnV RayneHCS
p5391
sg43
Nssg44
(lp5392
I1095363701
asg32
VWeaponPickup
p5393
sg35
VPT5M19.0245147S
p5394
sa(dp5395
g38
I4096745987
sg39
(dp5396
g41
VnV RayneHCS
p5397
sg43
Nssg44
(lp5398
I2758383128
asg32
VWeaponPickup
p5399
sg35
VPT5M19.0245147S
p5400
sa(dp5401
g32
VPlayerSpawn
p5402
sg39
(dp5403
g41
VnV RayneHCS
p5404
sg43
Nssg35
VPT5M19.0245147S
p5405
sa(dp5406
g32
VMedal
p5407
sg39
(dp5408
g41
VOG ACE HCS
p5409
sg43
Nssg255
I3400287617
sg35
VPT5M20.5385333S
p5410
sa(dp5411
g214
I313138863
sg215
I01
sg216
I00
sg217
(dp5412
g41
VnV Pistola HCS
p5413
sg43
Nssg220
(lp5414
I1095363701
asg222
I00
sg223
I00
sg224
I1
sg225
I0
sg226
I1
sg227
(dp5415
Vy
F9.3111540000000002
sVx
F0.71893010000000002
sVz
F1.8824991
ssg229
(dp5416
Vy
F9.2015159999999998
sVx
F0.40365535000000002
sVz
F1.6046260000000001
ssg231
I00
sg232
(dp5417
g41
VOG Maniac HCS
p5418
sg43
Nssg235
(lp5419
sg237
(lp5420
(dp5421
g41
VnV eL ToWn
p5422
sg43
Nsasg241
I00
sg35
VPT5M20.8055373S
p5423
sg32
VDeath
p5424
sg244
I1
sa(dp5425
g32
VImpulse
p5426
sg39
(dp5427
g41
VnV Pistola HCS
p5428
sg43
Nssg249
I2556889090
sg35
VPT5M20.8065378S
p5429
sa(dp5430
g32
VMedal
p5431
sg39
(dp5432
g41
VnV Pistola HCS
p5433
sg43
Nssg255
I2838259753
sg35
VPT5M20.8065378S
p5434
sa(dp5435
g32
VMedal
p5436
sg39
(dp5437
g41
VnV Pistola HCS
p5438
sg43
Nssg255
I164204247
sg35
VPT5M20.8075369S
p5439
sa(dp5440
g32
VMedal
p5441
sg39
(dp5442
g41
VnV Pistola HCS
p5443
sg43
Nssg255
I3270120991
sg35
VPT5M20.8075369S
p5444
sa(dp5445
g38
I4096745987
sg32
VWeaponDrop
p5446
sg180
I16
sg44
(lp5447
I2758383128
asg35
VPT5M20.8075369S
p5448
sg183
I9
sg184
VP0DT0H0M37.1000S
p5449
sg39
(dp5450
g41
VOG Maniac HCS
p5451
sg43
Nssa(dp5452
g38
I2015271382
sg32
VWeaponDrop
p5453
sg180
I13
sg44
(lp5454
I2758383128
asg35
VPT5M20.8085378S
p5455
sg183
I10
sg184
VP0DT0H0M7.8500S
p5456
sg39
(dp5457
g41
VOG Maniac HCS
p5458
sg43
Nssa(dp5459
g38
I2015271382
sg32
VWeaponDrop
p5460
sg180
I0
sg44
(lp5461
I2758383128
asg35
VPT5M20.8085378S
p5462
sg183
I0
sg184
VP0DT0S
p5463
sg39
(dp5464
g41
VOG Maniac HCS
p5465
sg43
Nssa(dp5466
g38
I313138863
sg39
(dp5467
g41
VOG Str8 SickHCS
p5468
sg43
Nssg44
(lp5469
I1095363701
asg32
VWeaponPickup
p5470
sg35
VPT5M20.9565393S
p5471
sa(dp5472
g38
I4096745987
sg39
(dp5473
g41
VOG Str8 SickHCS
p5474
sg43
Nssg44
(lp5475
I2758383128
asg32
VWeaponPickup
p5476
sg35
VPT5M20.9565393S
p5477
sa(dp5478
g32
VPlayerSpawn
p5479
sg39
(dp5480
g41
VOG Str8 SickHCS
p5481
sg43
Nssg35
VPT5M20.9565393S
p5482
sa(dp5483
g214
I313138863
sg215
I00
sg216
I00
sg217
(dp5484
g41
VOG APG HCS
p5485
sg43
Nssg220
(lp5486
I1095363701
asg222
I00
sg223
I01
sg224
I1
sg225
I0
sg226
I1
sg227
(dp5487
Vy
F5.7310049999999997
sVx
F2.6070122699999998
sVz
F2.40126324
ssg229
(dp5488
Vy
F9.3367159999999991
sVx
F1.0510889299999999
sVz
F1.3951773599999999
ssg231
I00
sg232
(dp5489
g41
VnV Pistola HCS
p5490
sg43
Nssg235
(lp5491
sg237
(lp5492
(dp5493
g41
VOG ACE HCS
p5494
sg43
Nsasg241
I00
sg35
VPT5M21.273543S
p5495
sg32
VDeath
p5496
sg244
I1
sa(dp5497
g38
I313138863
sg32
VWeaponDrop
p5498
sg180
I7
sg44
(lp5499
I1095363701
asg35
VPT5M21.2745436S
p5500
sg183
I3
sg184
VP0DT0H0M5.3000S
p5501
sg39
(dp5502
g41
VnV Pistola HCS
p5503
sg43
Nssa(dp5504
g38
I313138863
sg32
VWeaponDrop
p5505
sg180
I0
sg44
(lp5506
I1095363701
asg35
VPT5M21.2745436S
p5507
sg183
I0
sg184
VP0DT0S
p5508
sg39
(dp5509
g41
VnV Pistola HCS
p5510
sg43
Nssa(dp5511
g38
I4096745987
sg32
VWeaponDrop
p5512
sg180
I0
sg44
(lp5513
I2758383128
asg35
VPT5M21.2745436S
p5514
sg183
I0
sg184
VP0DT0H0M11.2667S
p5515
sg39
(dp5516
g41
VnV Pistola HCS
p5517
sg43
Nssa(dp5518
g214
I4106030681
sg215
I00
sg216
I00
sg217
(dp5519
g41
VOG Maniac HCS
p5520
sg43
Nssg220
(lp5521
sg222
I00
sg223
I01
sg224
I1
sg225
I0
sg226
I1
sg227
(dp5522
Vy
F9.307048
sVx
F-0.0104818642
sVz
F-0.20263999999999999
ssg229
(dp5523
Vy
F8.0116309999999995
sVx
F-7.2660365100000002
sVz
F1.6000051500000001
ssg231
I00
sg232
(dp5524
g41
VnV eL ToWn
p5525
sg43
Nssg235
(lp5526
sg237
(lp5527
sg241
I00
sg35
VPT5M21.9745613S
p5528
sg32
VDeath
p5529
sg244
I1
sa(dp5530
g32
VMedal
p5531
sg39
(dp5532
g41
VOG Maniac HCS
p5533
sg43
Nssg255
I285057226
sg35
VPT5M21.9755526S
p5534
sa(dp5535
g38
I313138863
sg32
VWeaponDrop
p5536
sg180
I3
sg44
(lp5537
I1095363701
asg35
VPT5M21.9765525S
p5538
sg183
I1
sg184
VP0DT0H0M1.7667S
p5539
sg39
(dp5540
g41
VnV eL ToWn
p5541
sg43
Nssa(dp5542
g38
I4096745987
sg32
VWeaponDrop
p5543
sg180
I13
sg44
(lp5544
I2758383128
asg35
VPT5M21.9765525S
p5545
sg183
I5
sg184
VP0DT0H0M18.7500S
p5546
sg39
(dp5547
g41
VnV eL ToWn
p5548
sg43
Nssa(dp5549
g38
I2244200496
sg39
(dp5550
g41
VOG APG HCS
p5551
sg43
Nssg44
(lp5552
I2758383128
asg32
VWeaponPickup
p5553
sg35
VPT5M22.1215528S
p5554
sa(dp5555
g32
VImpulse
p5556
sg39
(dp5557
g41
VOG APG HCS
p5558
sg43
Nssg249
I4191318012
sg35
VPT5M22.1225548S
p5559
sa(dp5560
g38
I313138863
sg39
(dp5561
g41
VnV Mikwen HCS
p5562
sg43
Nssg44
(lp5563
I1095363701
asg32
VWeaponPickup
p5564
sg35
VPT5M23.3565705S
p5565
sa(dp5566
g38
I4096745987
sg39
(dp5567
g41
VnV Mikwen HCS
p5568
sg43
Nssg44
(lp5569
I2758383128
asg32
VWeaponPickup
p5570
sg35
VPT5M23.3565705S
p5571
sa(dp5572
g32
VPlayerSpawn
p5573
sg39
(dp5574
g41
VnV Mikwen HCS
p5575
sg43
Nssg35
VPT5M23.3565705S
p5576
sa(dp5577
g38
I2244200496
sg32
VWeaponDrop
p5578
sg180
I0
sg44
(lp5579
I2758383128
asg35
VPT5M24.1375784S
p5580
sg183
I0
sg184
VP0DT0H0M1.8500S
p5581
sg39
(dp5582
g41
VOG APG HCS
p5583
sg43
Nssa(dp5584
g32
VImpulse
p5585
sg39
(dp5586
g41
VOG APG HCS
p5587
sg43
Nssg249
I3435524855
sg35
VPT5M24.1385802S
p5588
sa(dp5589
g32
VMedal
p5590
sg39
(dp5591
g41
VOG ACE HCS
p5592
sg43
Nssg255
I3400287617
sg35
VPT5M24.8555889S
p5593
sa(dp5594
g38
I2244200496
sg39
(dp5595
g41
VOG APG HCS
p5596
sg43
Nssg44
(lp5597
I2758383128
asg32
VWeaponPickup
p5598
sg35
VPT5M26.3716169S
p5599
sa(dp5600
g32
VImpulse
p5601
sg39
(dp5602
g41
VOG APG HCS
p5603
sg43
Nssg249
I4191318012
sg35
VPT5M26.3726091S
p5604
sa(dp5605
g38
I313138863
sg39
(dp5606
g41
VOG Maniac HCS
p5607
sg43
Nssg44
(lp5608
I1095363701
asg32
VWeaponPickup
p5609
sg35
VPT5M28.8226402S
p5610
sa(dp5611
g38
I4096745987
sg39
(dp5612
g41
VOG Maniac HCS
p5613
sg43
Nssg44
(lp5614
I2758383128
asg32
VWeaponPickup
p5615
sg35
VPT5M28.8236464S
p5616
sa(dp5617
g32
VPlayerSpawn
p5618
sg39
(dp5619
g41
VOG Maniac HCS
p5620
sg43
Nssg35
VPT5M28.8236464S
p5621
sa(dp5622
g38
I313138863
sg39
(dp5623
g41
VnV Pistola HCS
p5624
sg43
Nssg44
(lp5625
I1095363701
asg32
VWeaponPickup
p5626
sg35
VPT5M29.2896465S
p5627
sa(dp5628
g38
I4096745987
sg39
(dp5629
g41
VnV Pistola HCS
p5630
sg43
Nssg44
(lp5631
I2758383128
asg32
VWeaponPickup
p5632
sg35
VPT5M29.2896465S
p5633
sa(dp5634
g32
VPlayerSpawn
p5635
sg39
(dp5636
g41
VnV Pistola HCS
p5637
sg43
Nssg35
VPT5M29.2896465S
p5638
sa(dp5639
g38
I2244200496
sg32
VWeaponDrop
p5640
sg180
I0
sg44
(lp5641
I2758383128
asg35
VPT5M29.9876532S
p5642
sg183
I0
sg184
VP0DT0H0M3.4333S
p5643
sg39
(dp5644
g41
VOG APG HCS
p5645
sg43
Nssa(dp5646
g38
I313138863
sg39
(dp5647
g41
VnV eL ToWn
p5648
sg43
Nssg44
(lp5649
I1095363701
asg32
VWeaponPickup
p5650
sg35
VPT5M29.9896554S
p5651
sa(dp5652
g38
I4096745987
sg39
(dp5653
g41
VnV eL ToWn
p5654
sg43
Nssg44
(lp5655
I2758383128
asg32
VWeaponPickup
p5656
sg35
VPT5M29.9906558S
p5657
sa(dp5658
g32
VPlayerSpawn
p5659
sg39
(dp5660
g41
VnV eL ToWn
p5661
sg43
Nssg35
VPT5M29.9906558S
p5662
sa(dp5663
g32
VImpulse
p5664
sg39
(dp5665
g41
VOG APG HCS
p5666
sg43
Nssg249
I3435524855
sg35
VPT5M29.9906558S
p5667
sa(dp5668
g38
I313138863
sg32
VWeaponDrop
p5669
sg180
I0
sg44
(lp5670
I1095363701
asg35
VPT5M30.0876543S
p5671
sg183
I0
sg184
VP0DT0H0M1.2667S
p5672
sg39
(dp5673
g41
VOG Str8 SickHCS
p5674
sg43
Nssa(dp5675
g38
I2015271382
sg39
(dp5676
g41
VOG Str8 SickHCS
p5677
sg43
Nssg44
(lp5678
I2758383128
asg32
VWeaponPickup
p5679
sg35
VPT5M30.0886565S
p5680
sa(dp5681
g38
I2244200496
sg39
(dp5682
g41
VOG APG HCS
p5683
sg43
Nssg44
(lp5684
I2758383128
asg32
VWeaponPickup
p5685
sg35
VPT5M31.1738244S
p5686
sa(dp5687
g32
VImpulse
p5688
sg39
(dp5689
g41
VOG APG HCS
p5690
sg43
Nssg249
I4191318012
sg35
VPT5M31.1756703S
p5691
sa(dp5692
g38
I4096745987
sg32
VWeaponDrop
p5693
sg180
I0
sg44
(lp5694
I2758383128
asg35
VPT5M31.8546772S
p5695
sg183
I0
sg184
VP0DT0H0M7.3667S
p5696
sg39
(dp5697
g41
VnV Mikwen HCS
p5698
sg43
Nssa(dp5699
g38
I523953283
sg39
(dp5700
g41
VnV Mikwen HCS
p5701
sg43
Nssg44
(lp5702
I1327094800
asg32
VWeaponPickup
p5703
sg35
VPT5M31.8546772S
p5704
sa(dp5705
g32
VMedal
p5706
sg39
(dp5707
g41
VOG APG HCS
p5708
sg43
Nssg255
I3886151616
sg35
VPT5M32.0546801S
p5709
sa(dp5710
g32
VMedal
p5711
sg39
(dp5712
g41
VOG ACE HCS
p5713
sg43
Nssg255
I1494478183
sg35
VPT5M32.0546801S
p5714
sa(dp5715
g32
VImpulse
p5716
sg39
(dp5717
g41
VOG APG HCS
p5718
sg43
Nssg249
I2944278681
sg35
VPT5M32.0546801S
p5719
sa(dp5720
g38
I2244200496
sg32
VWeaponDrop
p5721
sg180
I0
sg44
(lp5722
I2758383128
asg35
VPT5M32.0556816S
p5723
sg183
I0
sg184
VP0DT0H0M0.7000S
p5724
sg39
(dp5725
g41
VOG APG HCS
p5726
sg43
Nssa(dp5727
g38
I313138863
sg32
VWeaponDrop
p5728
sg180
I0
sg44
(lp5729
I1095363701
asg35
VPT5M32.8546909S
p5730
sg183
I0
sg184
VP0DT0H0M0.7500S
p5731
sg39
(dp5732
g41
VnV Pistola HCS
p5733
sg43
Nssa(dp5734
g38
I3484334713
sg39
(dp5735
g41
VnV Pistola HCS
p5736
sg43
Nssg44
(lp5737
I2758383128
asg32
VWeaponPickup
p5738
sg35
VPT5M32.8546909S
p5739
sa(dp5740
g38
I4096745987
sg32
VWeaponDrop
p5741
sg180
I0
sg44
(lp5742
I2758383128
asg35
VPT5M33.4876978S
p5743
sg183
I0
sg184
VP0DT0H0M3.0500S
p5744
sg39
(dp5745
g41
VnV Pistola HCS
p5746
sg43
Nssa(dp5747
g38
I523953283
sg39
(dp5748
g41
VnV Pistola HCS
p5749
sg43
Nssg44
(lp5750
I1327094800
asg32
VWeaponPickup
p5751
sg35
VPT5M33.4876978S
p5752
sa(dp5753
g214
I4096745987
sg215
I00
sg216
I00
sg217
(dp5754
g41
VnV eL ToWn
p5755
sg43
Nssg220
(lp5756
I2758383128
asg222
I00
sg223
I01
sg224
I1
sg225
I0
sg226
I1
sg227
(dp5757
Vy
F15.522687899999999
sVx
F6.8595876699999998
sVz
F0.99987210000000004
ssg229
(dp5758
Vy
F7.6411930000000003
sVx
F12.609211
sVz
F2.4620838200000001
ssg231
I00
sg232
(dp5759
g41
VOG Str8 SickHCS
p5760
sg43
Nssg235
(lp5761
sg237
(lp5762
(dp5763
g41
VnV Pistola HCS
p5764
sg43
Nsa(dp5765
g41
VnV RayneHCS
p5766
sg43
Nsasg241
I01
sg35
VPT5M35.9057308S
p5767
sg32
VDeath
p5768
sg244
I1
sa(dp5769
g32
VMedal
p5770
sg39
(dp5771
g41
VnV eL ToWn
p5772
sg43
Nssg255
I3261908037
sg35
VPT5M35.9067308S
p5773
sa(dp5774
g38
I4096745987
sg32
VWeaponDrop
p5775
sg180
I7
sg44
(lp5776
I2758383128
asg35
VPT5M35.9077312S
p5777
sg183
I6
sg184
VP0DT0H0M12.4667S
p5778
sg39
(dp5779
g41
VOG Str8 SickHCS
p5780
sg43
Nssa(dp5781
g38
I2015271382
sg32
VWeaponDrop
p5782
sg180
I0
sg44
(lp5783
I2758383128
asg35
VPT5M35.9077312S
p5784
sg183
I0
sg184
VP0DT0H0M1.2167S
p5785
sg39
(dp5786
g41
VOG Str8 SickHCS
p5787
sg43
Nssa(dp5788
g214
I4096745987
sg215
I00
sg216
I00
sg217
(dp5789
g41
VOG ACE HCS
p5790
sg43
Nssg220
(lp5791
I2758383128
asg222
I00
sg223
I01
sg224
I1
sg225
I0
sg226
I1
sg227
(dp5792
Vy
F0.73385959999999995
sVx
F-2.8671586499999999
sVz
F3.4290820000000002
ssg229
(dp5793
Vy
F6.9805210000000004
sVx
F1.5184336899999999
sVz
F1.63131928
ssg231
I00
sg232
(dp5794
g41
VnV Pistola HCS
p5795
sg43
Nssg235
(lp5796
sg237
(lp5797
(dp5798
g41
VOG Str8 SickHCS
p5799
sg43
Nsasg241
I01
sg35
VPT5M37.6557526S
p5800
sg32
VDeath
p5801
sg244
I1
sa(dp5802
g32
VMedal
p5803
sg39
(dp5804
g41
VOG ACE HCS
p5805
sg43
Nssg255
I3261908037
sg35
VPT5M37.6567531S
p5806
sa(dp5807
g38
I3484334713
sg32
VWeaponDrop
p5808
sg180
I0
sg44
(lp5809
I2758383128
asg35
VPT5M37.6577529S
p5810
sg183
I0
sg184
VP0DT0H0M0.6333S
p5811
sg39
(dp5812
g41
VnV Pistola HCS
p5813
sg43
Nssa(dp5814
g38
I523953283
sg32
VWeaponDrop
p5815
sg180
I2
sg44
(lp5816
I1327094800
asg35
VPT5M37.6577529S
p5817
sg183
I1
sg184
VP0DT0H0M3.9333S
p5818
sg39
(dp5819
g41
VnV Pistola HCS
p5820
sg43
Nssa(dp5821
g214
I4106030681
sg215
I00
sg216
I00
sg217
(dp5822
g41
VnV Mikwen HCS
p5823
sg43
Nssg220
(lp5824
sg222
I00
sg223
I00
sg224
I2
sg225
I0
sg226
I0
sg227
(dp5825
Vy
F7.1869630000000004
sVx
F-11.438280000000001
sVz
F2.4000318100000002
ssg229
(dp5826
Vy
F1.32826591
sVx
F-1.98368967
sVz
F6.6236295700000003
ssg231
I00
sg232
(dp5827
g478
g479
ssg235
(lp5828
sg237
(lp5829
sg241
I00
sg35
VPT5M40.2897867S
p5830
sg32
VDeath
p5831
sg244
I1
sa(dp5832
g214
I4106030681
sg215
I00
sg216
I00
sg217
(dp5833
g41
VnV Mikwen HCS
p5834
sg43
Nssg220
(lp5835
sg222
I00
sg223
I00
sg224
I2
sg225
I0
sg226
I0
sg227
(dp5836
Vy
F7.1869630000000004
sVx
F-11.438280000000001
sVz
F2.4000318100000002
ssg229
(dp5837
Vy
F1.9784523199999999
sVx
F-1.9991889
sVz
F6.7109040000000002
ssg231
I00
sg232
(dp5838
g478
g479
ssg235
(lp5839
sg237
(lp5840
sg241
I00
sg35
VPT5M40.2897867S
p5841
sg32
VDeath
p5842
sg244
I1
sa(dp5843
g214
I4096745987
sg215
I00
sg216
I00
sg217
(dp5844
g41
VnV RayneHCS
p5845
sg43
Nssg220
(lp5846
I2758383128
asg222
I00
sg223
I01
sg224
I1
sg225
I0
sg226
I1
sg227
(dp5847
Vy
F10.79799
sVx
F-0.71243226500000001
sVz
F1.6000051500000001
ssg229
(dp5848
Vy
F4.7864365600000003
sVx
F-1.08314943
sVz
F3.8295881700000001
ssg231
I00
sg232
(dp5849
g41
VOG ACE HCS
p5850
sg43
Nssg235
(lp5851
sg237
(lp5852
sg241
I00
sg35
VPT5M40.6887919S
p5853
sg32
VDeath
p5854
sg244
I1
sa(dp5855
g38
I313138863
sg32
VWeaponDrop
p5856
sg180
I21
sg44
(lp5857
I1095363701
asg35
VPT5M40.6907916S
p5858
sg183
I8
sg184
VP0DT0H0M9.9833S
p5859
sg39
(dp5860
g41
VOG ACE HCS
p5861
sg43
Nssa(dp5862
g38
I4096745987
sg32
VWeaponDrop
p5863
sg180
I31
sg44
(lp5864
I2758383128
asg35
VPT5M40.6907916S
p5865
sg183
I15
sg184
VP0DT0H1M2.0000S
p5866
sg39
(dp5867
g41
VOG ACE HCS
p5868
sg43
Nssa(dp5869
g38
I4096745987
sg32
VWeaponDrop
p5870
sg180
I0
sg44
(lp5871
I2758383128
asg35
VPT5M40.6907916S
p5872
sg183
I0
sg184
VP0DT0S
p5873
sg39
(dp5874
g41
VOG ACE HCS
p5875
sg43
Nssa(dp5876
g214
I313138863
sg215
I00
sg216
I00
sg217
(dp5877
g41
VnV eL ToWn
p5878
sg43
Nssg220
(lp5879
I1095363701
asg222
I00
sg223
I01
sg224
I1
sg225
I0
sg226
I1
sg227
(dp5880
Vy
F4.0152564000000002
sVx
F13.0412865
sVz
F0.159514129
ssg229
(dp5881
Vy
F1.6688782
sVx
F12.3265247
sVz
F0.038365632300000001
ssg231
I00
sg232
(dp5882
g41
VOG APG HCS
p5883
sg43
Nssg235
(lp5884
sg237
(lp5885
sg241
I00
sg35
VPT5M42.8558192S
p5886
sg32
VDeath
p5887
sg244
I1
sa(dp5888
g38
I313138863
sg32
VWeaponDrop
p5889
sg180
I36
sg44
(lp5890
I1095363701
asg35
VPT5M42.8578196S
p5891
sg183
I17
sg184
VP0DT0H0M22.4667S
p5892
sg39
(dp5893
g41
VOG APG HCS
p5894
sg43
Nssa(dp5895
g38
I313138863
sg32
VWeaponDrop
p5896
sg180
I0
sg44
(lp5897
I1095363701
asg35
VPT5M42.8578196S
p5898
sg183
I0
sg184
VP0DT0S
p5899
sg39
(dp5900
g41
VOG APG HCS
p5901
sg43
Nssa(dp5902
g38
I4096745987
sg32
VWeaponDrop
p5903
sg180
I22
sg44
(lp5904
I2758383128
asg35
VPT5M42.8578196S
p5905
sg183
I11
sg184
VP0DT0H0M35.3000S
p5906
sg39
(dp5907
g41
VOG APG HCS
p5908
sg43
Nssa(dp5909
g38
I313138863
sg32
VWeaponDrop
p5910
sg180
I0
sg44
(lp5911
I1095363701
asg35
VPT5M43.7038286S
p5912
sg183
I0
sg184
VP0DT0H0M8.4667S
p5913
sg39
(dp5914
g41
VnV RayneHCS
p5915
sg43
Nssa(dp5916
g38
I3484334713
sg39
(dp5917
g41
VnV RayneHCS
p5918
sg43
Nssg44
(lp5919
I2758383128
asg32
VWeaponPickup
p5920
sg35
VPT5M43.7048322S
p5921
sa(dp5922
g38
I313138863
sg39
(dp5923
g41
VOG Str8 SickHCS
p5924
sg43
Nssg44
(lp5925
I1095363701
asg32
VWeaponPickup
p5926
sg35
VPT5M43.922834S
p5927
sa(dp5928
g38
I4096745987
sg39
(dp5929
g41
VOG Str8 SickHCS
p5930
sg43
Nssg44
(lp5931
I2758383128
asg32
VWeaponPickup
p5932
sg35
VPT5M43.922834S
p5933
sa(dp5934
g32
VPlayerSpawn
p5935
sg39
(dp5936
g41
VOG Str8 SickHCS
p5937
sg43
Nssg35
VPT5M43.922834S
p5938
sa(dp5939
g38
I313138863
sg39
(dp5940
g41
VnV Pistola HCS
p5941
sg43
Nssg44
(lp5942
I1095363701
asg32
VWeaponPickup
p5943
sg35
VPT5M45.6718559S
p5944
sa(dp5945
g38
I4096745987
sg39
(dp5946
g41
VnV Pistola HCS
p5947
sg43
Nssg44
(lp5948
I2758383128
asg32
VWeaponPickup
p5949
sg35
VPT5M45.6728561S
p5950
sa(dp5951
g32
VPlayerSpawn
p5952
sg39
(dp5953
g41
VnV Pistola HCS
p5954
sg43
Nssg35
VPT5M45.6728561S
p5955
sa(dp5956
g38
I313138863
sg39
(dp5957
g41
VOG ACE HCS
p5958
sg43
Nssg44
(lp5959
I1095363701
asg32
VWeaponPickup
p5960
sg35
VPT5M48.7058952S
p5961
sa(dp5962
g38
I4096745987
sg39
(dp5963
g41
VOG ACE HCS
p5964
sg43
Nssg44
(lp5965
I2758383128
asg32
VWeaponPickup
p5966
sg35
VPT5M48.7058952S
p5967
sa(dp5968
g32
VPlayerSpawn
p5969
sg39
(dp5970
g41
VOG ACE HCS
p5971
sg43
Nssg35
VPT5M48.7058952S
p5972
sa(dp5973
g38
I4096745987
sg32
VWeaponDrop
p5974
sg180
I10
sg44
(lp5975
I2758383128
asg35
VPT5M48.9208957S
p5976
sg183
I5
sg184
VP0DT0H0M11.7500S
p5977
sg39
(dp5978
g41
VnV eL ToWn
p5979
sg43
Nssa(dp5980
g38
I523953283
sg39
(dp5981
g41
VnV eL ToWn
p5982
sg43
Nssg44
(lp5983
I1327094800
asg32
VWeaponPickup
p5984
sg35
VPT5M48.9208957S
p5985
sa(dp5986
g38
I313138863
sg39
(dp5987
g41
VOG APG HCS
p5988
sg43
Nssg44
(lp5989
I1095363701
asg32
VWeaponPickup
p5990
sg35
VPT5M50.871923S
p5991
sa(dp5992
g38
I4096745987
sg39
(dp5993
g41
VOG APG HCS
p5994
sg43
Nssg44
(lp5995
I2758383128
asg32
VWeaponPickup
p5996
sg35
VPT5M50.872923S
p5997
sa(dp5998
g32
VPlayerSpawn
p5999
sg39
(dp6000
g41
VOG APG HCS
p6001
sg43
Nssg35
VPT5M50.872923S
p6002
sa(dp6003
g38
I313138863
sg32
VWeaponDrop
p6004
sg180
I0
sg44
(lp6005
I1095363701
asg35
VPT5M51.2709255S
p6006
sg183
I0
sg184
VP0DT0H0M1.6333S
p6007
sg39
(dp6008
g41
VOG ACE HCS
p6009
sg43
Nssa(dp6010
g38
I723388907
sg39
(dp6011
g41
VOG ACE HCS
p6012
sg43
Nssg44
(lp6013
I89283061
asg32
VWeaponPickup
p6014
sg35
VPT5M51.2709255S
p6015
sa(dp6016
g214
I4096745987
sg215
I00
sg216
I00
sg217
(dp6017
g41
VOG Str8 SickHCS
p6018
sg43
Nssg220
(lp6019
I2758383128
asg222
I00
sg223
I01
sg224
I1
sg225
I0
sg226
I1
sg227
(dp6020
Vy
F-5.8097915599999999
sVx
F16.321760000000001
sVz
F2.89512444
ssg229
(dp6021
Vy
F5.1135169999999999
sVx
F18.004304900000001
sVz
F1.5264381199999999
ssg231
I00
sg232
(dp6022
g41
VnV eL ToWn
p6023
sg43
Nssg235
(lp6024
sg237
(lp6025
sg241
I00
sg35
VPT5M51.8219345S
p6026
sg32
VDeath
p6027
sg244
I1
sa(dp6028
g38
I523953283
sg32
VWeaponDrop
p6029
sg180
I0
sg44
(lp6030
I1327094800
asg35
VPT5M51.8239344S
p6031
sg183
I0
sg184
VP0DT0H0M2.9000S
p6032
sg39
(dp6033
g41
VnV eL ToWn
p6034
sg43
Nssa(dp6035
g38
I313138863
sg32
VWeaponDrop
p6036
sg180
I24
sg44
(lp6037
I1095363701
asg35
VPT5M51.8239344S
p6038
sg183
I8
sg184
VP0DT0H0M7.1833S
p6039
sg39
(dp6040
g41
VnV eL ToWn
p6041
sg43
Nssa(dp6042
g214
I4096745987
sg215
I00
sg216
I00
sg217
(dp6043
g41
VnV Pistola HCS
p6044
sg43
Nssg220
(lp6045
I2758383128
asg222
I00
sg223
I01
sg224
I1
sg225
I0
sg226
I1
sg227
(dp6046
Vy
F7.11700058
sVx
F2.51105833
sVz
F1.67805
ssg229
(dp6047
Vy
F4.386679
sVx
F-0.31710946600000001
sVz
F2.55823541
ssg231
I00
sg232
(dp6048
g41
VOG Maniac HCS
p6049
sg43
Nssg235
(lp6050
sg237
(lp6051
(dp6052
g41
VnV Mikwen HCS
p6053
sg43
Nsasg241
I00
sg35
VPT5M53.0219511S
p6054
sg32
VDeath
p6055
sg244
I1
sa(dp6056
g38
I313138863
sg32
VWeaponDrop
p6057
sg180
I4
sg44
(lp6058
I1095363701
asg35
VPT5M53.0229503S
p6059
sg183
I1
sg184
VP0DT0H0M6.1333S
p6060
sg39
(dp6061
g41
VOG Maniac HCS
p6062
sg43
Nssa(dp6063
g38
I4096745987
sg32
VWeaponDrop
p6064
sg180
I4
sg44
(lp6065
I2758383128
asg35
VPT5M53.0229503S
p6066
sg183
I4
sg184
VP0DT0H0M18.0667S
p6067
sg39
(dp6068
g41
VOG Maniac HCS
p6069
sg43
Nssa(dp6070
g214
I313138863
sg215
I00
sg216
I01
sg217
(dp6071
g41
VOG APG HCS
p6072
sg43
Nssg220
(lp6073
I1095363701
asg222
I00
sg223
I00
sg224
I1
sg225
I0
sg226
I1
sg227
(dp6074
Vy
F-2.7726042299999998
sVx
F5.2946066900000002
sVz
F2.3649392100000002
ssg229
(dp6075
Vy
F-2.3878893899999998
sVx
F5.1344323200000002
sVz
F2.3736932300000002
ssg231
I00
sg232
(dp6076
g41
VnV Mikwen HCS
p6077
sg43
Nssg235
(lp6078
sg237
(lp6079
sg241
I00
sg35
VPT5M57.4550063S
p6080
sg32
VDeath
p6081
sg244
I1
sa(dp6082
g32
VMedal
p6083
sg39
(dp6084
g41
VOG APG HCS
p6085
sg43
Nssg255
I2287626681
sg35
VPT5M57.4560068S
p6086
sa(dp6087
g38
I313138863
sg32
VWeaponDrop
p6088
sg180
I14
sg44
(lp6089
I1095363701
asg35
VPT5M57.4570067S
p6090
sg183
I7
sg184
VP0DT0H0M5.8333S
p6091
sg39
(dp6092
g41
VnV Mikwen HCS
p6093
sg43
Nssa(dp6094
g38
I313138863
sg32
VWeaponDrop
p6095
sg180
I0
sg44
(lp6096
I1095363701
asg35
VPT5M57.4570067S
p6097
sg183
I0
sg184
VP0DT0S
p6098
sg39
(dp6099
g41
VnV Mikwen HCS
p6100
sg43
Nssa(dp6101
g38
I523953283
sg32
VWeaponDrop
p6102
sg180
I5
sg44
(lp6103
I1327094800
asg35
VPT5M57.4570067S
p6104
sg183
I3
sg184
VP0DT0H0M20.9000S
p6105
sg39
(dp6106
g41
VnV Mikwen HCS
p6107
sg43
Nssa(dp6108
g214
I313138863
sg215
I00
sg216
I01
sg217
(dp6109
g41
VnV Mikwen HCS
p6110
sg43
Nssg220
(lp6111
I1095363701
asg222
I00
sg223
I00
sg224
I1
sg225
I0
sg226
I1
sg227
(dp6112
Vy
F-2.3878893899999998
sVx
F5.1344323200000002
sVz
F2.59869313
ssg229
(dp6113
Vy
F-2.7726042299999998
sVx
F5.2946066900000002
sVz
F2.3649392100000002
ssg231
I00
sg232
(dp6114
g41
VOG APG HCS
p6115
sg43
Nssg235
(lp6116
sg237
(lp6117
sg241
I00
sg35
VPT5M57.4570067S
p6118
sg32
VDeath
p6119
sg244
I1
sa(dp6120
g32
VMedal
p6121
sg39
(dp6122
g41
VnV Mikwen HCS
p6123
sg43
Nssg255
I250435527
sg35
VPT5M57.4580068S
p6124
sa(dp6125
g38
I313138863
sg32
VWeaponDrop
p6126
sg180
I7
sg44
(lp6127
I1095363701
asg35
VPT5M57.4580068S
p6128
sg183
I7
sg184
VP0DT0H0M2.6000S
p6129
sg39
(dp6130
g41
VOG APG HCS
p6131
sg43
Nssa(dp6132
g38
I313138863
sg32
VWeaponDrop
p6133
sg180
I0
sg44
(lp6134
I1095363701
asg35
VPT5M57.4580068S
p6135
sg183
I0
sg184
VP0DT0S
p6136
sg39
(dp6137
g41
VOG APG HCS
p6138
sg43
Nssa(dp6139
g38
I4096745987
sg32
VWeaponDrop
p6140
sg180
I0
sg44
(lp6141
I2758383128
asg35
VPT5M57.4600065S
p6142
sg183
I0
sg184
VP0DT0H0M3.9833S
p6143
sg39
(dp6144
g41
VOG APG HCS
p6145
sg43
Nssa(dp6146
g38
I313138863
sg39
(dp6147
g41
VnV eL ToWn
p6148
sg43
Nssg44
(lp6149
I1095363701
asg32
VWeaponPickup
p6150
sg35
VPT5M59.8390374S
p6151
sa(dp6152
g38
I4096745987
sg39
(dp6153
g41
VnV eL ToWn
p6154
sg43
Nssg44
(lp6155
I2758383128
asg32
VWeaponPickup
p6156
sg35
VPT5M59.8390374S
p6157
sa(dp6158
g32
VPlayerSpawn
p6159
sg39
(dp6160
g41
VnV eL ToWn
p6161
sg43
Nssg35
VPT5M59.8390374S
p6162
sa(dp6163
g38
I313138863
sg39
(dp6164
g41
VOG Maniac HCS
p6165
sg43
Nssg44
(lp6166
I1095363701
asg32
VWeaponPickup
p6167
sg35
VPT6M1.0390528S
p6168
sa(dp6169
g38
I4096745987
sg39
(dp6170
g41
VOG Maniac HCS
p6171
sg43
Nssg44
(lp6172
I2758383128
asg32
VWeaponPickup
p6173
sg35
VPT6M1.0390528S
p6174
sa(dp6175
g32
VPlayerSpawn
p6176
sg39
(dp6177
g41
VOG Maniac HCS
p6178
sg43
Nssg35
VPT6M1.0390528S
p6179
sa(dp6180
g214
I313138863
sg215
I00
sg216
I00
sg217
(dp6181
g41
VnV Pistola HCS
p6182
sg43
Nssg220
(lp6183
I1095363701
asg222
I00
sg223
I01
sg224
I1
sg225
I0
sg226
I1
sg227
(dp6184
Vy
F11.9044209
sVx
F14.732075699999999
sVz
F0.61369556199999997
ssg229
(dp6185
Vy
F8.2995140000000003
sVx
F14.598247499999999
sVz
F0.66222745199999999
ssg231
I00
sg232
(dp6186
g41
VOG ACE HCS
p6187
sg43
Nssg235
(lp6188
sg237
(lp6189
sg241
I00
sg35
VPT6M1.6900617S
p6190
sg32
VDeath
p6191
sg244
I1
sa(dp6192
g38
I723388907
sg32
VWeaponDrop
p6193
sg180
I9
sg44
(lp6194
I89283061
asg35
VPT6M1.6910611S
p6195
sg183
I0
sg184
VP0DT0H0M4.0833S
p6196
sg39
(dp6197
g41
VOG ACE HCS
p6198
sg43
Nssa(dp6199
g38
I4096745987
sg32
VWeaponDrop
p6200
sg180
I3
sg44
(lp6201
I2758383128
asg35
VPT6M1.6910611S
p6202
sg183
I1
sg184
VP0DT0H0M7.2667S
p6203
sg39
(dp6204
g41
VOG ACE HCS
p6205
sg43
Nssa(dp6206
g214
I4096745987
sg215
I00
sg216
I00
sg217
(dp6207
g41
VnV RayneHCS
p6208
sg43
Nssg220
(lp6209
I2758383128
asg222
I00
sg223
I01
sg224
I1
sg225
I0
sg226
I1
sg227
(dp6210
Vy
F7.6808314299999996
sVx
F10.682954799999999
sVz
F1.60000527
ssg229
(dp6211
Vy
F0.74768820000000003
sVx
F12.3484535
sVz
F1.7029578700000001
ssg231
I00
sg232
(dp6212
g41
VOG Str8 SickHCS
p6213
sg43
Nssg235
(lp6214
sg237
(lp6215
(dp6216
g41
VnV Pistola HCS
p6217
sg43
Nsasg241
I01
sg35
VPT6M4.2550939S
p6218
sg32
VDeath
p6219
sg244
I1
sa(dp6220
g32
VMedal
p6221
sg39
(dp6222
g41
VnV RayneHCS
p6223
sg43
Nssg255
I3261908037
sg35
VPT6M4.2560934S
p6224
sa(dp6225
g38
I313138863
sg32
VWeaponDrop
p6226
sg180
I0
sg44
(lp6227
I1095363701
asg35
VPT6M4.2560934S
p6228
sg183
I0
sg184
VP0DT0H0M0.6000S
p6229
sg39
(dp6230
g41
VOG Str8 SickHCS
p6231
sg43
Nssa(dp6232
g38
I4096745987
sg32
VWeaponDrop
p6233
sg180
I19
sg44
(lp6234
I2758383128
asg35
VPT6M4.2560934S
p6235
sg183
I8
sg184
VP0DT0H0M19.7333S
p6236
sg39
(dp6237
g41
VOG Str8 SickHCS
p6238
sg43
Nssa(dp6239
g38
I313138863
sg39
(dp6240
g41
VnV Mikwen HCS
p6241
sg43
Nssg44
(lp6242
I1095363701
asg32
VWeaponPickup
p6243
sg35
VPT6M5.4721099S
p6244
sa(dp6245
g38
I4096745987
sg39
(dp6246
g41
VnV Mikwen HCS
p6247
sg43
Nssg44
(lp6248
I2758383128
asg32
VWeaponPickup
p6249
sg35
VPT6M5.4721099S
p6250
sa(dp6251
g32
VPlayerSpawn
p6252
sg39
(dp6253
g41
VnV Mikwen HCS
p6254
sg43
Nssg35
VPT6M5.4721099S
p6255
sa(dp6256
g38
I313138863
sg39
(dp6257
g41
VOG APG HCS
p6258
sg43
Nssg44
(lp6259
I1095363701
asg32
VWeaponPickup
p6260
sg35
VPT6M5.50511S
p6261
sa(dp6262
g38
I4096745987
sg39
(dp6263
g41
VOG APG HCS
p6264
sg43
Nssg44
(lp6265
I2758383128
asg32
VWeaponPickup
p6266
sg35
VPT6M5.5061102S
p6267
sa(dp6268
g32
VPlayerSpawn
p6269
sg39
(dp6270
g41
VOG APG HCS
p6271
sg43
Nssg35
VPT6M5.5061102S
p6272
sa(dp6273
g214
I4106030681
sg215
I00
sg216
I00
sg217
(dp6274
g41
VnV RayneHCS
p6275
sg43
Nssg220
(lp6276
sg222
I00
sg223
I01
sg224
I1
sg225
I0
sg226
I1
sg227
(dp6277
Vy
F4.9758195900000004
sVx
F14.746320000000001
sVz
F-0.0011124014900000001
ssg229
(dp6278
Vy
F-7.5724453900000004
sVx
F18.868493999999998
sVz
F0.97351056300000005
ssg231
I00
sg232
(dp6279
g41
VOG APG HCS
p6280
sg43
Nssg235
(lp6281
sg237
(lp6282
(dp6283
g41
VnV Pistola HCS
p6284
sg43
Nsasg241
I00
sg35
VPT6M8.9041528S
p6285
sg32
VDeath
p6286
sg244
I1
sa(dp6287
g32
VMedal
p6288
sg39
(dp6289
g41
VnV RayneHCS
p6290
sg43
Nssg255
I2078758684
sg35
VPT6M8.9061531S
p6291
sa(dp6292
g38
I4096745987
sg32
VWeaponDrop
p6293
sg180
I0
sg44
(lp6294
I2758383128
asg35
VPT6M8.9061531S
p6295
sg183
I0
sg184
VP0DT0H0M2.4667S
p6296
sg39
(dp6297
g41
VOG APG HCS
p6298
sg43
Nssa(dp6299
g38
I313138863
sg32
VWeaponDrop
p6300
sg180
I0
sg44
(lp6301
I1095363701
asg35
VPT6M8.9071536S
p6302
sg183
I0
sg184
VP0DT0H0M0.9333S
p6303
sg39
(dp6304
g41
VOG APG HCS
p6305
sg43
Nssa(dp6306
g38
I313138863
sg39
(dp6307
g41
VOG ACE HCS
p6308
sg43
Nssg44
(lp6309
I1095363701
asg32
VWeaponPickup
p6310
sg35
VPT6M9.7051643S
p6311
sa(dp6312
g38
I4096745987
sg39
(dp6313
g41
VOG ACE HCS
p6314
sg43
Nssg44
(lp6315
I2758383128
asg32
VWeaponPickup
p6316
sg35
VPT6M9.7051643S
p6317
sa(dp6318
g32
VPlayerSpawn
p6319
sg39
(dp6320
g41
VOG ACE HCS
p6321
sg43
Nssg35
VPT6M9.7051643S
p6322
sa(dp6323
g38
I4096745987
sg32
VWeaponDrop
p6324
sg180
I20
sg44
(lp6325
I2758383128
asg35
VPT6M11.3701833S
p6326
sg183
I9
sg184
VP0DT0H0M41.3000S
p6327
sg39
(dp6328
g41
VnV RayneHCS
p6329
sg43
Nssa(dp6330
g38
I523953283
sg39
(dp6331
g41
VnV RayneHCS
p6332
sg43
Nssg44
(lp6333
I1327094800
asg32
VWeaponPickup
p6334
sg35
VPT6M11.3701833S
p6335
sa(dp6336
g38
I313138863
sg39
(dp6337
g41
VOG Str8 SickHCS
p6338
sg43
Nssg44
(lp6339
I1095363701
asg32
VWeaponPickup
p6340
sg35
VPT6M12.2711967S
p6341
sa(dp6342
g38
I4096745987
sg39
(dp6343
g41
VOG Str8 SickHCS
p6344
sg43
Nssg44
(lp6345
I2758383128
asg32
VWeaponPickup
p6346
sg35
VPT6M12.2721964S
p6347
sa(dp6348
g32
VPlayerSpawn
p6349
sg39
(dp6350
g41
VOG Str8 SickHCS
p6351
sg43
Nssg35
VPT6M12.2721964S
p6352
sa(dp6353
g214
I313138863
sg215
I00
sg216
I00
sg217
(dp6354
g41
VnV eL ToWn
p6355
sg43
Nssg220
(lp6356
I1095363701
asg222
I00
sg223
I01
sg224
I1
sg225
I0
sg226
I1
sg227
(dp6357
Vy
F-8.1246270000000003
sVx
F14.2888708
sVz
F0.264162958
ssg229
(dp6358
Vy
F-10.7097006
sVx
F17.764240000000001
sVz
F1.5157327700000001
ssg231
I00
sg232
(dp6359
g41
VOG Maniac HCS
p6360
sg43
Nssg235
(lp6361
sg237
(lp6362
sg241
I00
sg35
VPT6M12.4051979S
p6363
sg32
VDeath
p6364
sg244
I1
sa(dp6365
g38
I313138863
sg32
VWeaponDrop
p6366
sg180
I12
sg44
(lp6367
I1095363701
asg35
VPT6M12.4071977S
p6368
sg183
I9
sg184
VP0DT0H0M3.0333S
p6369
sg39
(dp6370
g41
VOG Maniac HCS
p6371
sg43
Nssa(dp6372
g38
I4096745987
sg32
VWeaponDrop
p6373
sg180
I2
sg44
(lp6374
I2758383128
asg35
VPT6M12.4071977S
p6375
sg183
I0
sg184
VP0DT0H0M8.3333S
p6376
sg39
(dp6377
g41
VOG Maniac HCS
p6378
sg43
Nssa(dp6379
g38
I2244200496
sg39
(dp6380
g41
VnV Pistola HCS
p6381
sg43
Nssg44
(lp6382
I2758383128
asg32
VWeaponPickup
p6383
sg35
VPT6M12.8372032S
p6384
sa(dp6385
g32
VImpulse
p6386
sg39
(dp6387
g41
VnV Pistola HCS
p6388
sg43
Nssg249
I4191318012
sg35
VPT6M12.8372032S
p6389
sa(dp6390
g32
VImpulse
p6391
sg39
(dp6392
g41
VnV Pistola HCS
p6393
sg43
Nssg249
I1039658009
sg35
VPT6M12.8382036S
p6394
sa(dp6395
g38
I2244200496
sg32
VWeaponDrop
p6396
sg180
I0
sg44
(lp6397
I2758383128
asg35
VPT6M13.586211S
p6398
sg183
I0
sg184
VP0DT0H0M0.6000S
p6399
sg39
(dp6400
g41
VnV Pistola HCS
p6401
sg43
Nssa(dp6402
g32
VImpulse
p6403
sg39
(dp6404
g41
VnV Pistola HCS
p6405
sg43
Nssg249
I3435524855
sg35
VPT6M13.5872208S
p6406
sa(dp6407
g214
I4096745987
sg215
I00
sg216
I00
sg217
(dp6408
g41
VOG ACE HCS
p6409
sg43
Nssg220
(lp6410
I2758383128
asg222
I00
sg223
I01
sg224
I1
sg225
I0
sg226
I1
sg227
(dp6411
Vy
F8.8737349999999999
sVx
F13.602971999999999
sVz
F2.70456648
ssg229
(dp6412
Vy
F-4.2036829999999998
sVx
F18.1577473
sVz
F2.21913362
ssg231
I00
sg232
(dp6413
g41
VnV Pistola HCS
p6414
sg43
Nssg235
(lp6415
sg237
(lp6416
sg241
I00
sg35
VPT6M13.7212146S
p6417
sg32
VDeath
p6418
sg244
I1
sa(dp6419
g32
VMedal
p6420
sg39
(dp6421
g41
VOG ACE HCS
p6422
sg43
Nssg255
I164204247
sg35
VPT6M13.7222144S
p6423
sa(dp6424
g38
I313138863
sg32
VWeaponDrop
p6425
sg180
I16
sg44
(lp6426
I1095363701
asg35
VPT6M13.7232224S
p6427
sg183
I8
sg184
VP0DT0H0M3.7333S
p6428
sg39
(dp6429
g41
VnV Pistola HCS
p6430
sg43
Nssa(dp6431
g38
I4096745987
sg32
VWeaponDrop
p6432
sg180
I12
sg44
(lp6433
I2758383128
asg35
VPT6M13.7232224S
p6434
sg183
I9
sg184
VP0DT0H0M23.7167S
p6435
sg39
(dp6436
g41
VnV Pistola HCS
p6437
sg43
Nssa(dp6438
g38
I2244200496
sg39
(dp6439
g41
VnV eL ToWn
p6440
sg43
Nssg44
(lp6441
I2758383128
asg32
VWeaponPickup
p6442
sg35
VPT6M14.9372306S
p6443
sa(dp6444
g32
VImpulse
p6445
sg39
(dp6446
g41
VnV eL ToWn
p6447
sg43
Nssg249
I4191318012
sg35
VPT6M14.9372306S
p6448
sa(dp6449
g38
I2244200496
sg32
VWeaponDrop
p6450
sg180
I0
sg44
(lp6451
I2758383128
asg35
VPT6M15.5702365S
p6452
sg183
I0
sg184
VP0DT0H0M0.4833S
p6453
sg39
(dp6454
g41
VnV eL ToWn
p6455
sg43
Nssa(dp6456
g32
VImpulse
p6457
sg39
(dp6458
g41
VnV eL ToWn
p6459
sg43
Nssg249
I3435524855
sg35
VPT6M15.5712398S
p6460
sa(dp6461
g214
I3484334713
sg215
I00
sg216
I00
sg217
(dp6462
g41
VnV RayneHCS
p6463
sg43
Nssg220
(lp6464
I2758383128
asg222
I00
sg223
I01
sg224
I1
sg225
I0
sg226
I1
sg227
(dp6465
Vy
F5.7310549999999996
sVx
F17.93665
sVz
F1.2161061799999999
ssg229
(dp6466
Vy
F7.7348840000000001
sVx
F18.145036699999999
sVz
F0.69941249999999999
ssg231
I00
sg232
(dp6467
g41
VOG ACE HCS
p6468
sg43
Nssg235
(lp6469
sg237
(lp6470
sg241
I00
sg35
VPT6M16.8212545S
p6471
sg32
VDeath
p6472
sg244
I1
sa(dp6473
g38
I313138863
sg32
VWeaponDrop
p6474
sg180
I0
sg44
(lp6475
I1095363701
asg35
VPT6M16.8232831S
p6476
sg183
I0
sg184
VP0DT0H0M0.4667S
p6477
sg39
(dp6478
g41
VOG ACE HCS
p6479
sg43
Nssa(dp6480
g38
I4096745987
sg32
VWeaponDrop
p6481
sg180
I10
sg44
(lp6482
I2758383128
asg35
VPT6M16.8232831S
p6483
sg183
I6
sg184
VP0DT0H0M6.6500S
p6484
sg39
(dp6485
g41
VOG ACE HCS
p6486
sg43
Nssa(dp6487
g38
I313138863
sg39
(dp6488
g41
VOG APG HCS
p6489
sg43
Nssg44
(lp6490
I1095363701
asg32
VWeaponPickup
p6491
sg35
VPT6M16.9212564S
p6492
sa(dp6493
g38
I4096745987
sg39
(dp6494
g41
VOG APG HCS
p6495
sg43
Nssg44
(lp6496
I2758383128
asg32
VWeaponPickup
p6497
sg35
VPT6M16.9222562S
p6498
sa(dp6499
g32
VPlayerSpawn
p6500
sg39
(dp6501
g41
VOG APG HCS
p6502
sg43
Nssg35
VPT6M16.9222562S
p6503
sa(dp6504
g214
I4106030681
sg215
I00
sg216
I00
sg217
(dp6505
g41
VOG Str8 SickHCS
p6506
sg43
Nssg220
(lp6507
sg222
I00
sg223
I00
sg224
I2
sg225
I0
sg226
I0
sg227
(dp6508
Vy
F4.3928284599999996
sVx
F9.4873890000000003
sVz
F0.37980955799999999
ssg229
(dp6509
Vy
F-10.6301346
sVx
F19.349340000000002
sVz
F4.2684090000000001
ssg231
I00
sg232
(dp6510
g478
g479
ssg235
(lp6511
sg237
(lp6512
sg241
I00
sg35
VPT6M16.9712565S
p6513
sg32
VDeath
p6514
sg244
I1
sa(dp6515
g214
I4106030681
sg215
I00
sg216
I00
sg217
(dp6516
g41
VOG Str8 SickHCS
p6517
sg43
Nssg220
(lp6518
sg222
I00
sg223
I00
sg224
I2
sg225
I0
sg226
I0
sg227
(dp6519
Vy
F4.3928284599999996
sVx
F9.4873890000000003
sVz
F0.37980955799999999
ssg229
(dp6520
Vy
F-10.626348500000001
sVx
F19.106725699999998
sVz
F4.230728
ssg231
I00
sg232
(dp6521
g478
g479
ssg235
(lp6522
sg237
(lp6523
sg241
I00
sg35
VPT6M16.9712565S
p6524
sg32
VDeath
p6525
sg244
I1
sa(dp6526
g214
I4106030681
sg215
I00
sg216
I00
sg217
(dp6527
g41
VOG Str8 SickHCS
p6528
sg43
Nssg220
(lp6529
sg222
I00
sg223
I00
sg224
I2
sg225
I0
sg226
I0
sg227
(dp6530
Vy
F4.3928284599999996
sVx
F9.4873890000000003
sVz
F0.37980955799999999
ssg229
(dp6531
Vy
F-10.644636200000001
sVx
F18.894065900000001
sVz
F4.2223372499999998
ssg231
I00
sg232
(dp6532
g478
g479
ssg235
(lp6533
sg237
(lp6534
sg241
I00
sg35
VPT6M16.9712565S
p6535
sg32
VDeath
p6536
sg244
I1
sa(dp6537
g38
I2244200496
sg39
(dp6538
g41
VnV eL ToWn
p6539
sg43
Nssg44
(lp6540
I2758383128
asg32
VWeaponPickup
p6541
sg35
VPT6M17.4032612S
p6542
sa(dp6543
g32
VImpulse
p6544
sg39
(dp6545
g41
VnV eL ToWn
p6546
sg43
Nssg249
I4191318012
sg35
VPT6M17.4042708S
p6547
sa(dp6548
g38
I2244200496
sg32
VWeaponDrop
p6549
sg180
I0
sg44
(lp6550
I2758383128
asg35
VPT6M18.2202716S
p6551
sg183
I0
sg184
VP0DT0H0M0.6667S
p6552
sg39
(dp6553
g41
VnV eL ToWn
p6554
sg43
Nssa(dp6555
g32
VImpulse
p6556
sg39
(dp6557
g41
VnV eL ToWn
p6558
sg43
Nssg249
I3435524855
sg35
VPT6M18.2202716S
p6559
sa(dp6560
g214
I4096745987
sg215
I00
sg216
I00
sg217
(dp6561
g41
VOG APG HCS
p6562
sg43
Nssg220
(lp6563
I2758383128
asg222
I00
sg223
I01
sg224
I1
sg225
I0
sg226
I1
sg227
(dp6564
Vy
F10.008816700000001
sVx
F8.9430700000000005
sVz
F1.8898613500000001
ssg229
(dp6565
Vy
F3.4867083999999999
sVx
F16.813993499999999
sVz
F2.2189617199999998
ssg231
I00
sg232
(dp6566
g41
VnV RayneHCS
p6567
sg43
Nssg235
(lp6568
sg237
(lp6569
(dp6570
g41
VOG ACE HCS
p6571
sg43
Nsasg241
I01
sg35
VPT6M19.204285S
p6572
sg32
VDeath
p6573
sg244
I1
sa(dp6574
g32
VMedal
p6575
sg39
(dp6576
g41
VOG APG HCS
p6577
sg43
Nssg255
I3261908037
sg35
VPT6M19.2062845S
p6578
sa(dp6579
g38
I3484334713
sg32
VWeaponDrop
p6580
sg180
I2
sg44
(lp6581
I2758383128
asg35
VPT6M19.2062845S
p6582
sg183
I2
sg184
VP0DT0H0M4.6833S
p6583
sg39
(dp6584
g41
VnV RayneHCS
p6585
sg43
Nssa(dp6586
g38
I523953283
sg32
VWeaponDrop
p6587
sg180
I5
sg44
(lp6588
I1327094800
asg35
VPT6M19.2062845S
p6589
sg183
I3
sg184
VP0DT0H0M5.7333S
p6590
sg39
(dp6591
g41
VnV RayneHCS
p6592
sg43
Nssa(dp6593
g38
I2244200496
sg39
(dp6594
g41
VnV eL ToWn
p6595
sg43
Nssg44
(lp6596
I2758383128
asg32
VWeaponPickup
p6597
sg35
VPT6M19.5202884S
p6598
sa(dp6599
g32
VImpulse
p6600
sg39
(dp6601
g41
VnV eL ToWn
p6602
sg43
Nssg249
I4191318012
sg35
VPT6M19.5202884S
p6603
sa(dp6604
g38
I313138863
sg39
(dp6605
g41
VOG Maniac HCS
p6606
sg43
Nssg44
(lp6607
I1095363701
asg32
VWeaponPickup
p6608
sg35
VPT6M20.4213014S
p6609
sa(dp6610
g38
I4096745987
sg39
(dp6611
g41
VOG Maniac HCS
p6612
sg43
Nssg44
(lp6613
I2758383128
asg32
VWeaponPickup
p6614
sg35
VPT6M20.4213014S
p6615
sa(dp6616
g32
VPlayerSpawn
p6617
sg39
(dp6618
g41
VOG Maniac HCS
p6619
sg43
Nssg35
VPT6M20.4213014S
p6620
sa(dp6621
g38
I313138863
sg32
VWeaponDrop
p6622
sg180
I0
sg44
(lp6623
I1095363701
asg35
VPT6M20.4532996S
p6624
sg183
I0
sg184
VP0DT0H0M3.0667S
p6625
sg39
(dp6626
g41
VnV Mikwen HCS
p6627
sg43
Nssa(dp6628
g38
I723523180
sg39
(dp6629
g41
VnV Mikwen HCS
p6630
sg43
Nssg44
(lp6631
I2758383128
asg32
VWeaponPickupPad
p6632
sg35
VPT6M20.4532996S
p6633
sa(dp6634
g38
I723523180
sg39
(dp6635
g41
VnV Mikwen HCS
p6636
sg43
Nssg44
(lp6637
I2758383128
asg32
VWeaponPickup
p6638
sg35
VPT6M20.4532996S
p6639
sa(dp6640
g214
I4106030681
sg215
I00
sg216
I00
sg217
(dp6641
g41
VnV Mikwen HCS
p6642
sg43
Nssg220
(lp6643
sg222
I00
sg223
I00
sg224
I2
sg225
I0
sg226
I0
sg227
(dp6644
Vy
F0.05791466
sVx
F-0.17889413200000001
sVz
F2.4267384999999999
ssg229
(dp6645
Vy
F11.6252718
sVx
F3.3516812300000001
sVz
F4.2409386600000003
ssg231
I00
sg232
(dp6646
g478
g479
ssg235
(lp6647
sg237
(lp6648
sg241
I00
sg35
VPT6M20.7383041S
p6649
sg32
VDeath
p6650
sg244
I1
sa(dp6651
g214
I4106030681
sg215
I00
sg216
I00
sg217
(dp6652
g41
VnV Mikwen HCS
p6653
sg43
Nssg220
(lp6654
sg222
I00
sg223
I00
sg224
I2
sg225
I0
sg226
I0
sg227
(dp6655
Vy
F0.05791466
sVx
F-0.17889413200000001
sVz
F2.4267384999999999
ssg229
(dp6656
Vy
F11.351675999999999
sVx
F3.95599151
sVz
F4.2711560000000004
ssg231
I00
sg232
(dp6657
g478
g479
ssg235
(lp6658
sg237
(lp6659
sg241
I00
sg35
VPT6M20.7393049S
p6660
sg32
VDeath
p6661
sg244
I1
sa(dp6662
g214
I4106030681
sg215
I00
sg216
I00
sg217
(dp6663
g41
VnV Mikwen HCS
p6664
sg43
Nssg220
(lp6665
sg222
I00
sg223
I00
sg224
I2
sg225
I0
sg226
I0
sg227
(dp6666
Vy
F0.05791466
sVx
F-0.17889413200000001
sVz
F2.4267384999999999
ssg229
(dp6667
Vy
F11.347341500000001
sVx
F4.2698330000000002
sVz
F4.2711560000000004
ssg231
I00
sg232
(dp6668
g478
g479
ssg235
(lp6669
sg237
(lp6670
sg241
I00
sg35
VPT6M20.7393049S
p6671
sg32
VDeath
p6672
sg244
I1
sa(dp6673
g38
I313138863
sg39
(dp6674
g41
VnV Pistola HCS
p6675
sg43
Nssg44
(lp6676
I1095363701
asg32
VWeaponPickup
p6677
sg35
VPT6M21.7383218S
p6678
sa(dp6679
g38
I4096745987
sg39
(dp6680
g41
VnV Pistola HCS
p6681
sg43
Nssg44
(lp6682
I2758383128
asg32
VWeaponPickup
p6683
sg35
VPT6M21.7383218S
p6684
sa(dp6685
g32
VPlayerSpawn
p6686
sg39
(dp6687
g41
VnV Pistola HCS
p6688
sg43
Nssg35
VPT6M21.7383218S
p6689
sa(dp6690
g38
I4096745987
sg32
VWeaponDrop
p6691
sg180
I0
sg44
(lp6692
I2758383128
asg35
VPT6M21.9863185S
p6693
sg183
I0
sg184
VP0DT0H0M0.4167S
p6694
sg39
(dp6695
g41
VOG Maniac HCS
p6696
sg43
Nssa(dp6697
g38
I523953283
sg39
(dp6698
g41
VOG Maniac HCS
p6699
sg43
Nssg44
(lp6700
I1327094800
asg32
VWeaponPickup
p6701
sg35
VPT6M21.9863185S
p6702
sa(dp6703
g214
I4096745987
sg215
I00
sg216
I00
sg217
(dp6704
g41
VOG Str8 SickHCS
p6705
sg43
Nssg220
(lp6706
I2758383128
asg222
I00
sg223
I01
sg224
I1
sg225
I0
sg226
I1
sg227
(dp6707
Vy
F-10.301789299999999
sVx
F1.73833883
sVz
F0.62760280000000002
ssg229
(dp6708
Vy
F-7.1467275600000004
sVx
F1.1112716199999999
sVz
F0.012271940699999999
ssg231
I00
sg232
(dp6709
g41
VnV eL ToWn
p6710
sg43
Nssg235
(lp6711
sg237
(lp6712
sg241
I01
sg35
VPT6M22.9213329S
p6713
sg32
VDeath
p6714
sg244
I1
sa(dp6715
g32
VMedal
p6716
sg39
(dp6717
g41
VOG Str8 SickHCS
p6718
sg43
Nssg255
I2028249938
sg35
VPT6M22.922332S
p6719
sa(dp6720
g32
VImpulse
p6721
sg39
(dp6722
g41
VOG Str8 SickHCS
p6723
sg43
Nssg249
I2299858338
sg35
VPT6M22.922332S
p6724
sa(dp6725
g32
VMedal
p6726
sg39
(dp6727
g41
VOG Str8 SickHCS
p6728
sg43
Nssg255
I3261908037
sg35
VPT6M22.923332S
p6729
sa(dp6730
g38
I313138863
sg32
VWeaponDrop
p6731
sg180
I27
sg44
(lp6732
I1095363701
asg35
VPT6M22.923332S
p6733
sg183
I14
sg184
VP0DT0H0M5.6667S
p6734
sg39
(dp6735
g41
VnV eL ToWn
p6736
sg43
Nssa(dp6737
g38
I4096745987
sg32
VWeaponDrop
p6738
sg180
I0
sg44
(lp6739
I2758383128
asg35
VPT6M22.923332S
p6740
sg183
I0
sg184
VP0DT0H0M13.0167S
p6741
sg39
(dp6742
g41
VnV eL ToWn
p6743
sg43
Nssa(dp6744
g38
I2244200496
sg32
VWeaponDrop
p6745
sg180
I0
sg44
(lp6746
I2758383128
asg35
VPT6M22.923332S
p6747
sg183
I0
sg184
VP0DT0H0M3.2500S
p6748
sg39
(dp6749
g41
VnV eL ToWn
p6750
sg43
Nssa(dp6751
g32
VImpulse
p6752
sg39
(dp6753
g41
VnV eL ToWn
p6754
sg43
Nssg249
I3435524855
sg35
VPT6M22.9363308S
p6755
sa(dp6756
g38
I313138863
sg39
(dp6757
g41
VOG ACE HCS
p6758
sg43
Nssg44
(lp6759
I1095363701
asg32
VWeaponPickup
p6760
sg35
VPT6M24.8373569S
p6761
sa(dp6762
g38
I4096745987
sg39
(dp6763
g41
VOG ACE HCS
p6764
sg43
Nssg44
(lp6765
I2758383128
asg32
VWeaponPickup
p6766
sg35
VPT6M24.8383575S
p6767
sa(dp6768
g32
VPlayerSpawn
p6769
sg39
(dp6770
g41
VOG ACE HCS
p6771
sg43
Nssg35
VPT6M24.8383575S
p6772
sa(dp6773
g214
I723523180
sg215
I00
sg216
I00
sg217
(dp6774
g41
VnV Mikwen HCS
p6775
sg43
Nssg220
(lp6776
I2758383128
asg222
I00
sg223
I01
sg224
I1
sg225
I0
sg226
I1
sg227
(dp6777
Vy
F-6.3873670000000002
sVx
F0.37376722699999998
sVz
F2.40126324
ssg229
(dp6778
Vy
F-9.574783
sVx
F2.4387631399999998
sVz
F-0.0010834038300000001
ssg231
I00
sg232
(dp6779
g41
VOG Str8 SickHCS
p6780
sg43
Nssg235
(lp6781
sg237
(lp6782
sg241
I00
sg35
VPT6M25.2043621S
p6783
sg32
VDeath
p6784
sg244
I1
sa(dp6785
g38
I313138863
sg32
VWeaponDrop
p6786
sg180
I9
sg44
(lp6787
I1095363701
asg35
VPT6M25.2053616S
p6788
sg183
I4
sg184
VP0DT0H0M5.9333S
p6789
sg39
(dp6790
g41
VOG Str8 SickHCS
p6791
sg43
Nssa(dp6792
g38
I4096745987
sg32
VWeaponDrop
p6793
sg180
I5
sg44
(lp6794
I2758383128
asg35
VPT6M25.2053616S
p6795
sg183
I4
sg184
VP0DT0H0M7.0000S
p6796
sg39
(dp6797
g41
VOG Str8 SickHCS
p6798
sg43
Nssa(dp6799
g214
I723523180
sg215
I00
sg216
I00
sg217
(dp6800
g41
VnV Mikwen HCS
p6801
sg43
Nssg220
(lp6802
I2758383128
asg222
I00
sg223
I01
sg224
I1
sg225
I0
sg226
I1
sg227
(dp6803
Vy
F-6.4555492399999999
sVx
F0.288710684
sVz
F2.40126324
ssg229
(dp6804
Vy
F-9.0161870000000004
sVx
F2.3977499999999998
sVz
F-0.001083374
ssg231
I00
sg232
(dp6805
g41
VOG Maniac HCS
p6806
sg43
Nssg235
(lp6807
sg237
(lp6808
sg241
I00
sg35
VPT6M26.9703841S
p6809
sg32
VDeath
p6810
sg244
I1
sa(dp6811
g32
VMedal
p6812
sg39
(dp6813
g41
VnV Mikwen HCS
p6814
sg43
Nssg255
I2078758684
sg35
VPT6M26.9713845S
p6815
sa(dp6816
g38
I313138863
sg32
VWeaponDrop
p6817
sg180
I0
sg44
(lp6818
I1095363701
asg35
VPT6M26.9723847S
p6819
sg183
I0
sg184
VP0DT0H0M1.1500S
p6820
sg39
(dp6821
g41
VOG Maniac HCS
p6822
sg43
Nssa(dp6823
g38
I523953283
sg32
VWeaponDrop
p6824
sg180
I0
sg44
(lp6825
I1327094800
asg35
VPT6M26.9723847S
p6826
sg183
I0
sg184
VP0DT0H0M4.9833S
p6827
sg39
(dp6828
g41
VOG Maniac HCS
p6829
sg43
Nssa(dp6830
g214
I313138863
sg215
I00
sg216
I00
sg217
(dp6831
g41
VnV Pistola HCS
p6832
sg43
Nssg220
(lp6833
I1095363701
asg222
I00
sg223
I01
sg224
I1
sg225
I0
sg226
I1
sg227
(dp6834
Vy
F0.63450890000000004
sVx
F-2.5497124200000001
sVz
F0.27984774099999998
ssg229
(dp6835
Vy
F0.104751609
sVx
F0.261965
sVz
F0.416342139
ssg231
I00
sg232
(dp6836
g41
VOG APG HCS
p6837
sg43
Nssg235
(lp6838
sg237
(lp6839
sg241
I00
sg35
VPT6M27.0873854S
p6840
sg32
VDeath
p6841
sg244
I1
sa(dp6842
g38
I313138863
sg32
VWeaponDrop
p6843
sg180
I0
sg44
(lp6844
I1095363701
asg35
VPT6M27.0893861S
p6845
sg183
I0
sg184
VP0DT0H0M2.9667S
p6846
sg39
(dp6847
g41
VOG APG HCS
p6848
sg43
Nssa(dp6849
g38
I4096745987
sg32
VWeaponDrop
p6850
sg180
I3
sg44
(lp6851
I2758383128
asg35
VPT6M27.0893861S
p6852
sg183
I3
sg184
VP0DT0H0M7.2000S
p6853
sg39
(dp6854
g41
VOG APG HCS
p6855
sg43
Nssa(dp6856
g38
I313138863
sg39
(dp6857
g41
VnV RayneHCS
p6858
sg43
Nssg44
(lp6859
I1095363701
asg32
VWeaponPickup
p6860
sg35
VPT6M27.2213879S
p6861
sa(dp6862
g38
I4096745987
sg39
(dp6863
g41
VnV RayneHCS
p6864
sg43
Nssg44
(lp6865
I2758383128
asg32
VWeaponPickup
p6866
sg35
VPT6M27.2213879S
p6867
sa(dp6868
g32
VPlayerSpawn
p6869
sg39
(dp6870
g41
VnV RayneHCS
p6871
sg43
Nssg35
VPT6M27.2213879S
p6872
sa(dp6873
g38
I2244200496
sg39
(dp6874
g41
VnV Mikwen HCS
p6875
sg43
Nssg44
(lp6876
I2758383128
asg32
VWeaponPickup
p6877
sg35
VPT6M28.3363998S
p6878
sa(dp6879
g32
VImpulse
p6880
sg39
(dp6881
g41
VnV Mikwen HCS
p6882
sg43
Nssg249
I4191318012
sg35
VPT6M28.3374019S
p6883
sa(dp6884
g38
I2244200496
sg32
VWeaponDrop
p6885
sg180
I0
sg44
(lp6886
I2758383128
asg35
VPT6M28.9864081S
p6887
sg183
I0
sg184
VP0DT0H0M0.5000S
p6888
sg39
(dp6889
g41
VnV Mikwen HCS
p6890
sg43
Nssa(dp6891
g32
VImpulse
p6892
sg39
(dp6893
g41
VnV Mikwen HCS
p6894
sg43
Nssg249
I3435524855
sg35
VPT6M28.9874101S
p6895
sa(dp6896
g38
I2244200496
sg39
(dp6897
g41
VnV Mikwen HCS
p6898
sg43
Nssg44
(lp6899
I2758383128
asg32
VWeaponPickup
p6900
sg35
VPT6M30.0534241S
p6901
sa(dp6902
g32
VImpulse
p6903
sg39
(dp6904
g41
VnV Mikwen HCS
p6905
sg43
Nssg249
I4191318012
sg35
VPT6M30.0534241S
p6906
sa(dp6907
g38
I2244200496
sg32
VWeaponDrop
p6908
sg180
I0
sg44
(lp6909
I2758383128
asg35
VPT6M30.6694298S
p6910
sg183
I0
sg184
VP0DT0H0M0.4667S
p6911
sg39
(dp6912
g41
VnV Mikwen HCS
p6913
sg43
Nssa(dp6914
g32
VImpulse
p6915
sg39
(dp6916
g41
VnV Mikwen HCS
p6917
sg43
Nssg249
I3435524855
sg35
VPT6M30.670432S
p6918
sa(dp6919
g38
I313138863
sg39
(dp6920
g41
VnV eL ToWn
p6921
sg43
Nssg44
(lp6922
I1095363701
asg32
VWeaponPickup
p6923
sg35
VPT6M30.9374355S
p6924
sa(dp6925
g38
I4096745987
sg39
(dp6926
g41
VnV eL ToWn
p6927
sg43
Nssg44
(lp6928
I2758383128
asg32
VWeaponPickup
p6929
sg35
VPT6M30.938436S
p6930
sa(dp6931
g32
VPlayerSpawn
p6932
sg39
(dp6933
g41
VnV eL ToWn
p6934
sg43
Nssg35
VPT6M30.938436S
p6935
sa(dp6936
g38
I2244200496
sg39
(dp6937
g41
VnV Mikwen HCS
p6938
sg43
Nssg44
(lp6939
I2758383128
asg32
VWeaponPickup
p6940
sg35
VPT6M32.05345S
p6941
sa(dp6942
g32
VImpulse
p6943
sg39
(dp6944
g41
VnV Mikwen HCS
p6945
sg43
Nssg249
I4191318012
sg35
VPT6M32.05345S
p6946
sa(dp6947
g38
I2492868984
sg39
(dp6948
g41
VOG ACE HCS
p6949
sg43
Nssg44
(lp6950
I2758383128
asg32
VWeaponPickup
p6951
sg35
VPT6M32.1374511S
p6952
sa(dp6953
g38
I2244200496
sg32
VWeaponDrop
p6954
sg180
I0
sg44
(lp6955
I2758383128
asg35
VPT6M32.602455S
p6956
sg183
I0
sg184
VP0DT0H0M0.4000S
p6957
sg39
(dp6958
g41
VnV Mikwen HCS
p6959
sg43
Nssa(dp6960
g32
VImpulse
p6961
sg39
(dp6962
g41
VnV Mikwen HCS
p6963
sg43
Nssg249
I3435524855
sg35
VPT6M32.6034568S
p6964
sa(dp6965
g38
I313138863
sg39
(dp6966
g41
VOG Str8 SickHCS
p6967
sg43
Nssg44
(lp6968
I1095363701
asg32
VWeaponPickup
p6969
sg35
VPT6M33.2214648S
p6970
sa(dp6971
g38
I4096745987
sg39
(dp6972
g41
VOG Str8 SickHCS
p6973
sg43
Nssg44
(lp6974
I2758383128
asg32
VWeaponPickup
p6975
sg35
VPT6M33.2214648S
p6976
sa(dp6977
g32
VPlayerSpawn
p6978
sg39
(dp6979
g41
VOG Str8 SickHCS
p6980
sg43
Nssg35
VPT6M33.2214648S
p6981
sa(dp6982
g38
I2492868984
sg32
VWeaponDrop
p6983
sg180
I0
sg44
(lp6984
I2758383128
asg35
VPT6M33.2874655S
p6985
sg183
I0
sg184
VP0DT0H0M0.9833S
p6986
sg39
(dp6987
g41
VOG ACE HCS
p6988
sg43
Nssa(dp6989
g38
I2244200496
sg39
(dp6990
g41
VnV Mikwen HCS
p6991
sg43
Nssg44
(lp6992
I2758383128
asg32
VWeaponPickup
p6993
sg35
VPT6M34.0034747S
p6994
sa(dp6995
g32
VImpulse
p6996
sg39
(dp6997
g41
VnV Mikwen HCS
p6998
sg43
Nssg249
I4191318012
sg35
VPT6M34.0034747S
p6999
sa(dp7000
g38
I313138863
sg39
(dp7001
g41
VOG Maniac HCS
p7002
sg43
Nssg44
(lp7003
I1095363701
asg32
VWeaponPickup
p7004
sg35
VPT6M34.9874874S
p7005
sa(dp7006
g38
I4096745987
sg39
(dp7007
g41
VOG Maniac HCS
p7008
sg43
Nssg44
(lp7009
I2758383128
asg32
VWeaponPickup
p7010
sg35
VPT6M34.9884874S
p7011
sa(dp7012
g32
VPlayerSpawn
p7013
sg39
(dp7014
g41
VOG Maniac HCS
p7015
sg43
Nssg35
VPT6M34.9884874S
p7016
sa(dp7017
g38
I313138863
sg39
(dp7018
g41
VOG APG HCS
p7019
sg43
Nssg44
(lp7020
I1095363701
asg32
VWeaponPickup
p7021
sg35
VPT6M35.1044887S
p7022
sa(dp7023
g38
I4096745987
sg39
(dp7024
g41
VOG APG HCS
p7025
sg43
Nssg44
(lp7026
I2758383128
asg32
VWeaponPickup
p7027
sg35
VPT6M35.1044887S
p7028
sa(dp7029
g32
VPlayerSpawn
p7030
sg39
(dp7031
g41
VOG APG HCS
p7032
sg43
Nssg35
VPT6M35.1044887S
p7033
sa(dp7034
g38
I2244200496
sg32
VWeaponDrop
p7035
sg180
I0
sg44
(lp7036
I2758383128
asg35
VPT6M35.1745586S
p7037
sg183
I0
sg184
VP0DT0H0M1.0167S
p7038
sg39
(dp7039
g41
VnV Mikwen HCS
p7040
sg43
Nssa(dp7041
g32
VImpulse
p7042
sg39
(dp7043
g41
VnV Mikwen HCS
p7044
sg43
Nssg249
I3435524855
sg35
VPT6M35.1745586S
p7045
sa(dp7046
g38
I2244200496
sg39
(dp7047
g41
VnV Mikwen HCS
p7048
sg43
Nssg44
(lp7049
I2758383128
asg32
VWeaponPickup
p7050
sg35
VPT6M35.936499S
p7051
sa(dp7052
g32
VImpulse
p7053
sg39
(dp7054
g41
VnV Mikwen HCS
p7055
sg43
Nssg249
I4191318012
sg35
VPT6M35.936499S
p7056
sa(dp7057
g214
I313138863
sg215
I00
sg216
I00
sg217
(dp7058
g41
VnV RayneHCS
p7059
sg43
Nssg220
(lp7060
I1095363701
asg222
I00
sg223
I01
sg224
I1
sg225
I0
sg226
I1
sg227
(dp7061
Vy
F0.50658303500000001
sVx
F-3.3244447699999999
sVz
F-0.0010834038300000001
ssg229
(dp7062
Vy
F-3.1262683899999999
sVx
F-3.7412481299999998
sVz
F0.043233662800000003
ssg231
I00
sg232
(dp7063
g41
VOG ACE HCS
p7064
sg43
Nssg235
(lp7065
sg237
(lp7066
(dp7067
g41
VnV Pistola HCS
p7068
sg43
Nsasg241
I00
sg35
VPT6M36.1395026S
p7069
sg32
VDeath
p7070
sg244
I1
sa(dp7071
g32
VImpulse
p7072
sg39
(dp7073
g41
VnV RayneHCS
p7074
sg43
Nssg249
I2556889090
sg35
VPT6M36.1395026S
p7075
sa(dp7076
g32
VMedal
p7077
sg39
(dp7078
g41
VnV RayneHCS
p7079
sg43
Nssg255
I2838259753
sg35
VPT6M36.1395026S
p7080
sa(dp7081
g38
I313138863
sg32
VWeaponDrop
p7082
sg180
I20
sg44
(lp7083
I1095363701
asg35
VPT6M36.140502S
p7084
sg183
I12
sg184
VP0DT0H0M6.4500S
p7085
sg39
(dp7086
g41
VOG ACE HCS
p7087
sg43
Nssa(dp7088
g38
I4096745987
sg32
VWeaponDrop
p7089
sg180
I0
sg44
(lp7090
I2758383128
asg35
VPT6M36.140502S
p7091
sg183
I0
sg184
VP0DT0H0M3.8500S
p7092
sg39
(dp7093
g41
VOG ACE HCS
p7094
sg43
Nssa(dp7095
g38
I2244200496
sg32
VWeaponDrop
p7096
sg180
I0
sg44
(lp7097
I2758383128
asg35
VPT6M36.2525013S
p7098
sg183
I0
sg184
VP0DT0H0M0.1667S
p7099
sg39
(dp7100
g41
VnV Mikwen HCS
p7101
sg43
Nssa(dp7102
g32
VImpulse
p7103
sg39
(dp7104
g41
VnV Mikwen HCS
p7105
sg43
Nssg249
I3435524855
sg35
VPT6M36.2535034S
p7106
sa(dp7107
g38
I2244200496
sg39
(dp7108
g41
VnV Mikwen HCS
p7109
sg43
Nssg44
(lp7110
I2758383128
asg32
VWeaponPickup
p7111
sg35
VPT6M37.1525131S
p7112
sa(dp7113
g32
VImpulse
p7114
sg39
(dp7115
g41
VnV Mikwen HCS
p7116
sg43
Nssg249
I4191318012
sg35
VPT6M37.1535153S
p7117
sa(dp7118
g32
VMedal
p7119
sg39
(dp7120
g41
VnV Mikwen HCS
p7121
sg43
Nssg255
I3886151616
sg35
VPT6M37.1535153S
p7122
sa(dp7123
g32
VMedal
p7124
sg39
(dp7125
g41
VnV Pistola HCS
p7126
sg43
Nssg255
I1494478183
sg35
VPT6M37.1535153S
p7127
sa(dp7128
g32
VMedal
p7129
sg39
(dp7130
g41
VnV eL ToWn
p7131
sg43
Nssg255
I1494478183
sg35
VPT6M37.1535153S
p7132
sa(dp7133
g32
VMedal
p7134
sg39
(dp7135
g41
VnV Mikwen HCS
p7136
sg43
Nssg255
I2137994204
sg35
VPT6M37.1535153S
p7137
sa(dp7138
g32
VImpulse
p7139
sg39
(dp7140
g41
VnV Mikwen HCS
p7141
sg43
Nssg249
I2944278681
sg35
VPT6M37.1545149S
p7142
sa(dp7143
g32
VRoundEnd
p7144
sg34
I0
sg35
VPT6M37.1545149S
p7145
sassb.