ccopy_reg
_reconstructor
p1
(c__main__
match_breakdown
p2
c__builtin__
object
p3
NtRp4
(dp5
S'details'
p6
(dp7
VIsCompleteSetOfEvents
p8
I01
sVLinks
p9
(dp10
VUgcFilmManifest
p11
(dp12
VAuthenticationLifetimeExtensionSupported
p13
I00
sVQueryString
p14
V?view=film-manifest
p15
sVRetryPolicyId
p16
Vexponentialretry
p17
sVPath
p18
V/h5/films/70877819-690e-4e02-954b-09a3f2e0ca9c
p19
sVAcknowledgementTypeId
p20
I0
sVAuthorityId
p21
Vugc
p22
sVTopicName
p23
V
ssVStatsMatchDetails
p24
(dp25
g13
I00
sg14
Nsg16
Vexponentialretry
p26
sg18
Vh5/custom/matches/70877819-690e-4e02-954b-09a3f2e0ca9c
p27
sg20
I0
sg21
Vspartanstats
p28
sg23
V
sssVGameEvents
p29
(lp30
(dp31
VEventName
p32
VRoundStart
p33
sVRoundIndex
p34
I0
sVTimeSinceStart
p35
VPT0.058S
p36
sa(dp37
VWeaponStockId
p38
I313138863
sVPlayer
p39
(dp40
VGamertag
p41
VE6 bubu dubu
p42
sVXuid
p43
NssVWeaponAttachmentIds
p44
(lp45
I1095363701
asg32
VWeaponPickup
p46
sg35
VPT17.9570004S
p47
sa(dp48
g38
I4096745987
sg39
(dp49
g41
VE6 bubu dubu
p50
sg43
Nssg44
(lp51
I2758383128
asg32
VWeaponPickup
p52
sg35
VPT17.9580004S
p53
sa(dp54
g32
VPlayerSpawn
p55
sg39
(dp56
g41
VE6 bubu dubu
p57
sg43
Nssg35
VPT17.9580004S
p58
sa(dp59
g38
I313138863
sg39
(dp60
g41
VCLG LethuL HCS
p61
sg43
Nssg44
(lp62
I1095363701
asg32
VWeaponPickup
p63
sg35
VPT17.9740001S
p64
sa(dp65
g38
I4096745987
sg39
(dp66
g41
VCLG LethuL HCS
p67
sg43
Nssg44
(lp68
I2758383128
asg32
VWeaponPickup
p69
sg35
VPT17.9740001S
p70
sa(dp71
g32
VPlayerSpawn
p72
sg39
(dp73
g41
VCLG LethuL HCS
p74
sg43
Nssg35
VPT17.9740001S
p75
sa(dp76
g38
I313138863
sg39
(dp77
g41
VCLG Snake Bite
p78
sg43
Nssg44
(lp79
I1095363701
asg32
VWeaponPickup
p80
sg35
VPT17.9900003S
p81
sa(dp82
g38
I4096745987
sg39
(dp83
g41
VCLG Snake Bite
p84
sg43
Nssg44
(lp85
I2758383128
asg32
VWeaponPickup
p86
sg35
VPT17.9900003S
p87
sa(dp88
g32
VPlayerSpawn
p89
sg39
(dp90
g41
VCLG Snake Bite
p91
sg43
Nssg35
VPT17.9900003S
p92
sa(dp93
g38
I313138863
sg39
(dp94
g41
VE6 Huke HCS
p95
sg43
Nssg44
(lp96
I1095363701
asg32
VWeaponPickup
p97
sg35
VPT18.0070011S
p98
sa(dp99
g38
I4096745987
sg39
(dp100
g41
VE6 Huke HCS
p101
sg43
Nssg44
(lp102
I2758383128
asg32
VWeaponPickup
p103
sg35
VPT18.0070011S
p104
sa(dp105
g32
VPlayerSpawn
p106
sg39
(dp107
g41
VE6 Huke HCS
p108
sg43
Nssg35
VPT18.0070011S
p109
sa(dp110
g38
I313138863
sg39
(dp111
g41
VCLG Royal 2
p112
sg43
Nssg44
(lp113
I1095363701
asg32
VWeaponPickup
p114
sg35
VPT18.0240008S
p115
sa(dp116
g38
I4096745987
sg39
(dp117
g41
VCLG Royal 2
p118
sg43
Nssg44
(lp119
I2758383128
asg32
VWeaponPickup
p120
sg35
VPT18.0240008S
p121
sa(dp122
g32
VPlayerSpawn
p123
sg39
(dp124
g41
VCLG Royal 2
p125
sg43
Nssg35
VPT18.0240008S
p126
sa(dp127
g38
I313138863
sg39
(dp128
g41
VCLG Frosty HCS
p129
sg43
Nssg44
(lp130
I1095363701
asg32
VWeaponPickup
p131
sg35
VPT18.0400001S
p132
sa(dp133
g38
I4096745987
sg39
(dp134
g41
VCLG Frosty HCS
p135
sg43
Nssg44
(lp136
I2758383128
asg32
VWeaponPickup
p137
sg35
VPT18.0410012S
p138
sa(dp139
g32
VPlayerSpawn
p140
sg39
(dp141
g41
VCLG Frosty HCS
p142
sg43
Nssg35
VPT18.0410012S
p143
sa(dp144
g38
I313138863
sg39
(dp145
g41
VE6 Shooter
p146
sg43
Nssg44
(lp147
I1095363701
asg32
VWeaponPickup
p148
sg35
VPT18.0570007S
p149
sa(dp150
g38
I4096745987
sg39
(dp151
g41
VE6 Shooter
p152
sg43
Nssg44
(lp153
I2758383128
asg32
VWeaponPickup
p154
sg35
VPT18.0570007S
p155
sa(dp156
g32
VPlayerSpawn
p157
sg39
(dp158
g41
VE6 Shooter
p159
sg43
Nssg35
VPT18.0570007S
p160
sa(dp161
g38
I313138863
sg39
(dp162
g41
VE6 Cratos HCS
p163
sg43
Nssg44
(lp164
I1095363701
asg32
VWeaponPickup
p165
sg35
VPT18.0740007S
p166
sa(dp167
g38
I4096745987
sg39
(dp168
g41
VE6 Cratos HCS
p169
sg43
Nssg44
(lp170
I2758383128
asg32
VWeaponPickup
p171
sg35
VPT18.0740007S
p172
sa(dp173
g32
VPlayerSpawn
p174
sg39
(dp175
g41
VE6 Cratos HCS
p176
sg43
Nssg35
VPT18.0740007S
p177
sa(dp178
g38
I4096745987
sg32
VWeaponDrop
p179
sVShotsFired
p180
I0
sg44
(lp181
I2758383128
asg35
VPT20.2879984S
p182
sVShotsLanded
p183
I0
sVTimeWeaponActiveAsPrimary
p184
VP0DT0H0M1.3167S
p185
sg39
(dp186
g41
VCLG LethuL HCS
p187
sg43
Nssa(dp188
g38
I4108759423
sg39
(dp189
g41
VCLG LethuL HCS
p190
sg43
Nssg44
(lp191
I2758383128
asg32
VWeaponPickup
p192
sg35
VPT20.2889998S
p193
sa(dp194
g38
I4096745987
sg32
VWeaponDrop
p195
sg180
I0
sg44
(lp196
I2758383128
asg35
VPT20.8559994S
p197
sg183
I0
sg184
VP0DT0H0M1.5500S
p198
sg39
(dp199
g41
VE6 Huke HCS
p200
sg43
Nssa(dp201
g38
I424645655
sg39
(dp202
g41
VE6 Huke HCS
p203
sg43
Nssg44
(lp204
I1327094800
asg32
VWeaponPickup
p205
sg35
VPT20.8559994S
p206
sa(dp207
g38
I313138863
sg32
VWeaponDrop
p208
sg180
I0
sg44
(lp209
I1095363701
asg35
VPT21.8220096S
p210
sg183
I0
sg184
VP0DT0H0M3.8333S
p211
sg39
(dp212
g41
VCLG Snake Bite
p213
sg43
Nssa(dp214
g38
I3808094875
sg39
(dp215
g41
VCLG Snake Bite
p216
sg43
Nssg44
(lp217
I2758383128
asg32
VWeaponPickup
p218
sg35
VPT21.8220096S
p219
sa(dp220
g38
I313138863
sg32
VWeaponDrop
p221
sg180
I0
sg44
(lp222
I1095363701
asg35
VPT23.0879985S
p223
sg183
I0
sg184
VP0DT0H0M2.5833S
p224
sg39
(dp225
g41
VE6 Shooter
p226
sg43
Nssa(dp227
g38
I3682788176
sg39
(dp228
g41
VE6 Shooter
p229
sg43
Nssg44
(lp230
I2758383128
asg32
VWeaponPickupPad
p231
sg35
VPT23.0879985S
p232
sa(dp233
g38
I3682788176
sg39
(dp234
g41
VE6 Shooter
p235
sg43
Nssg44
(lp236
I2758383128
asg32
VWeaponPickup
p237
sg35
VPT23.0900006S
p238
sa(dp239
VKillerWeaponStockId
p240
I313138863
sVIsAssassination
p241
I00
sVIsMelee
p242
I00
sVKiller
p243
(dp244
g41
VCLG Royal 2
p245
sg43
NssVKillerWeaponAttachmentIds
p246
(lp247
I1095363701
asVIsGroundPound
p248
I00
sVIsWeapon
p249
I00
sVDeathDisposition
p250
I2
sVVictimStockId
p251
I0
sVVictimAgent
p252
I0
sVKillerWorldLocation
p253
(dp254
Vy
F25.655654899999998
sVx
F-9.3179800000000004
sVz
F1.503374
ssVVictimWorldLocation
p255
(dp256
Vy
F27.5284519
sVx
F-11.616913800000001
sVz
F1.50311935
ssVIsShoulderBash
p257
I00
sVVictim
p258
(dp259
S'Gamertag'
p260
S'None'
p261
ssVVictimAttachmentIds
p262
(lp263
sVAssistants
p264
(lp265
sVIsHeadshot
p266
I00
sg35
VPT25.3250002S
p267
sg32
VDeath
p268
sVKillerAgent
p269
I1
sa(dp270
g32
VMedal
p271
sg39
(dp272
g41
VCLG Snake Bite
p273
sg43
NssVMedalId
p274
I3565443938
sg35
VPT28.4150006S
p275
sa(dp276
g32
VMedal
p277
sg39
(dp278
g41
VCLG LethuL HCS
p279
sg43
Nssg274
I3565443938
sg35
VPT28.4150006S
p280
sa(dp281
g32
VMedal
p282
sg39
(dp283
g41
VE6 Huke HCS
p284
sg43
Nssg274
I3565443938
sg35
VPT29.1719995S
p285
sa(dp286
g32
VMedal
p287
sg39
(dp288
g41
VE6 bubu dubu
p289
sg43
Nssg274
I1637841390
sg35
VPT29.1719995S
p290
sa(dp291
g240
I4096745987
sg241
I00
sg242
I00
sg243
(dp292
g41
VCLG Frosty HCS
p293
sg43
Nssg246
(lp294
I2758383128
asg248
I00
sg249
I01
sg250
I1
sg251
I0
sg252
I1
sg253
(dp295
Vy
F9.8357729999999997
sVx
F-10.098334299999999
sVz
F4.2367109999999997
ssg255
(dp296
Vy
F7.1931430000000001
sVx
F-0.69726969999999999
sVz
F1.49783266
ssg257
I00
sg258
(dp297
g41
VE6 Cratos HCS
p298
sg43
Nssg262
(lp299
sg264
(lp300
(dp301
g41
VCLG LethuL HCS
p302
sg43
Nsasg266
I01
sg35
VPT32.1390006S
p303
sg32
VDeath
p304
sg269
I1
sa(dp305
g32
VMedal
p306
sg39
(dp307
g41
VCLG Royal 2
p308
sg43
Nssg274
I824733727
sg35
VPT32.1390006S
p309
sa(dp310
g32
VMedal
p311
sg39
(dp312
g41
VCLG Frosty HCS
p313
sg43
Nssg274
I3261908037
sg35
VPT32.1420001S
p314
sa(dp315
g32
VMedal
p316
sg39
(dp317
g41
VCLG Frosty HCS
p318
sg43
Nssg274
I3001183151
sg35
VPT32.1420001S
p319
sa(dp320
g38
I313138863
sg32
VWeaponDrop
p321
sg180
I0
sg44
(lp322
I1095363701
asg35
VPT32.143001S
p323
sg183
I0
sg184
VP0DT0H0M0.9333S
p324
sg39
(dp325
g41
VE6 Cratos HCS
p326
sg43
Nssa(dp327
g38
I4096745987
sg32
VWeaponDrop
p328
sg180
I9
sg44
(lp329
I2758383128
asg35
VPT32.143001S
p330
sg183
I2
sg184
VP0DT0H0M13.1333S
p331
sg39
(dp332
g41
VE6 Cratos HCS
p333
sg43
Nssa(dp334
g240
I3808094875
sg241
I00
sg242
I00
sg243
(dp335
g41
VCLG Snake Bite
p336
sg43
Nssg246
(lp337
I2758383128
asg248
I00
sg249
I01
sg250
I1
sg251
I0
sg252
I1
sg253
(dp338
Vy
F5.9959309999999997
sVx
F8.0193370000000002
sVz
F1.49938035
ssg255
(dp339
Vy
F8.8744289999999992
sVx
F9.1277939999999997
sVz
F1.49979591
ssg257
I00
sg258
(dp340
g41
VE6 bubu dubu
p341
sg43
Nssg262
(lp342
sg264
(lp343
(dp344
g41
VCLG LethuL HCS
p345
sg43
Nsasg266
I00
sg35
VPT32.8549996S
p346
sg32
VDeath
p347
sg269
I1
sa(dp348
g32
VMedal
p349
sg39
(dp350
g41
VCLG Snake Bite
p351
sg43
Nssg274
I2838259753
sg35
VPT32.8560007S
p352
sa(dp353
g32
VImpulse
p354
sg39
(dp355
g41
VCLG Snake Bite
p356
sg43
NssVImpulseId
p357
I2556889090
sg35
VPT32.8560007S
p358
sa(dp359
g38
I313138863
sg32
VWeaponDrop
p360
sg180
I30
sg44
(lp361
I1095363701
asg35
VPT32.8570004S
p362
sg183
I15
sg184
VP0DT0H0M7.9333S
p363
sg39
(dp364
g41
VE6 bubu dubu
p365
sg43
Nssa(dp366
g38
I4096745987
sg32
VWeaponDrop
p367
sg180
I0
sg44
(lp368
I2758383128
asg35
VPT32.8570004S
p369
sg183
I0
sg184
VP0DT0H0M6.9667S
p370
sg39
(dp371
g41
VE6 bubu dubu
p372
sg43
Nssa(dp373
g32
VMedal
p374
sg39
(dp375
g41
VCLG Royal 2
p376
sg43
Nssg274
I3565443938
sg35
VPT34.2550005S
p377
sa(dp378
g240
I4096745987
sg241
I00
sg242
I00
sg243
(dp379
g41
VCLG Snake Bite
p380
sg43
Nssg246
(lp381
I2758383128
asg248
I00
sg249
I00
sg250
I2
sg251
I0
sg252
I0
sg253
(dp382
Vy
F7.7543063200000004
sVx
F9.4314710000000002
sVz
F1.49979591
ssg255
(dp383
Vy
F0.099736270000000002
sVx
F8.0057399999999994
sVz
F0.71309334000000002
ssg257
I00
sg258
(dp384
g260
g261
ssg262
(lp385
sg264
(lp386
sg266
I00
sg35
VPT37.1890005S
p387
sg32
VDeath
p388
sg269
I1
sa(dp389
g240
I47178948
sg241
I00
sg242
I00
sg243
(dp390
g41
VCLG Snake Bite
p391
sg43
Nssg246
(lp392
sg248
I00
sg249
I00
sg250
I2
sg251
I0
sg252
I0
sg253
(dp393
Vy
F7.7543063200000004
sVx
F9.4314710000000002
sVz
F1.49979591
ssg255
(dp394
Vy
F0.109241828
sVx
F8.005274
sVz
F0.30517369999999999
ssg257
I00
sg258
(dp395
g260
g261
ssg262
(lp396
sg264
(lp397
sg266
I00
sg35
VPT37.1890005S
p398
sg32
VDeath
p399
sg269
I1
sa(dp400
g240
I424645655
sg241
I00
sg242
I00
sg243
(dp401
g41
VE6 Huke HCS
p402
sg43
Nssg246
(lp403
I1327094800
asg248
I00
sg249
I01
sg250
I1
sg251
I0
sg252
I1
sg253
(dp404
Vy
F4.44416046
sVx
F-4.1061680000000003
sVz
F-0.89683420000000003
ssg255
(dp405
Vy
F9.6705489999999994
sVx
F-9.9061690000000002
sVz
F4.0946619999999996
ssg257
I00
sg258
(dp406
g41
VCLG Frosty HCS
p407
sg43
Nssg262
(lp408
sg264
(lp409
sg266
I01
sg35
VPT39.0890003S
p410
sg32
VDeath
p411
sg269
I1
sa(dp412
g32
VMedal
p413
sg39
(dp414
g41
VE6 Huke HCS
p415
sg43
Nssg274
I3261908037
sg35
VPT39.0899998S
p416
sa(dp417
g38
I313138863
sg32
VWeaponDrop
p418
sg180
I0
sg44
(lp419
I1095363701
asg35
VPT39.0899998S
p420
sg183
I0
sg184
VP0DT0H0M4.7833S
p421
sg39
(dp422
g41
VCLG Frosty HCS
p423
sg43
Nssa(dp424
g38
I4096745987
sg32
VWeaponDrop
p425
sg180
I11
sg44
(lp426
I2758383128
asg35
VPT39.0899998S
p427
sg183
I7
sg184
VP0DT0H0M16.2667S
p428
sg39
(dp429
g41
VCLG Frosty HCS
p430
sg43
Nssa(dp431
g38
I2492868984
sg39
(dp432
g41
VCLG LethuL HCS
p433
sg43
Nssg44
(lp434
I2758383128
asg32
VWeaponPickup
p435
sg35
VPT39.5720003S
p436
sa(dp437
g38
I313138863
sg39
(dp438
g41
VE6 Cratos HCS
p439
sg43
Nssg44
(lp440
I1095363701
asg32
VWeaponPickup
p441
sg35
VPT40.156001S
p442
sa(dp443
g38
I4096745987
sg39
(dp444
g41
VE6 Cratos HCS
p445
sg43
Nssg44
(lp446
I2758383128
asg32
VWeaponPickup
p447
sg35
VPT40.156001S
p448
sa(dp449
g32
VPlayerSpawn
p450
sg39
(dp451
g41
VE6 Cratos HCS
p452
sg43
Nssg35
VPT40.156001S
p453
sa(dp454
g38
I2492868984
sg32
VWeaponDrop
p455
sg180
I0
sg44
(lp456
I2758383128
asg35
VPT40.7220007S
p457
sg183
I0
sg184
VP0DT0H0M0.9833S
p458
sg39
(dp459
g41
VCLG LethuL HCS
p460
sg43
Nssa(dp461
g38
I313138863
sg39
(dp462
g41
VE6 bubu dubu
p463
sg43
Nssg44
(lp464
I1095363701
asg32
VWeaponPickup
p465
sg35
VPT40.8720003S
p466
sa(dp467
g38
I4096745987
sg39
(dp468
g41
VE6 bubu dubu
p469
sg43
Nssg44
(lp470
I2758383128
asg32
VWeaponPickup
p471
sg35
VPT40.8730007S
p472
sa(dp473
g32
VPlayerSpawn
p474
sg39
(dp475
g41
VE6 bubu dubu
p476
sg43
Nssg35
VPT40.8730007S
p477
sa(dp478
g240
I4096745987
sg241
I00
sg242
I00
sg243
(dp479
g41
VE6 Cratos HCS
p480
sg43
Nssg246
(lp481
I2758383128
asg248
I00
sg249
I01
sg250
I1
sg251
I0
sg252
I1
sg253
(dp482
Vy
F4.28001451
sVx
F-17.005621000000001
sVz
F1.5012302399999999
ssg255
(dp483
Vy
F13.6946707
sVx
F-2.4874084000000001
sVz
F1.4995212600000001
ssg257
I00
sg258
(dp484
g41
VCLG Royal 2
p485
sg43
Nssg262
(lp486
sg264
(lp487
(dp488
g41
VE6 Huke HCS
p489
sg43
Nsasg266
I01
sg35
VPT44.8879994S
p490
sg32
VDeath
p491
sg269
I1
sa(dp492
g32
VMedal
p493
sg39
(dp494
g41
VE6 Cratos HCS
p495
sg43
Nssg274
I352859864
sg35
VPT44.8890004S
p496
sa(dp497
g32
VImpulse
p498
sg39
(dp499
g41
VE6 Cratos HCS
p500
sg43
Nssg357
I2556889090
sg35
VPT44.8890004S
p501
sa(dp502
g32
VMedal
p503
sg39
(dp504
g41
VE6 bubu dubu
p505
sg43
Nssg274
I824733727
sg35
VPT44.8890004S
p506
sa(dp507
g32
VMedal
p508
sg39
(dp509
g41
VE6 Cratos HCS
p510
sg43
Nssg274
I3261908037
sg35
VPT44.89S
p511
sa(dp512
g38
I313138863
sg32
VWeaponDrop
p513
sg180
I7
sg44
(lp514
I1095363701
asg35
VPT44.89S
p515
sg183
I4
sg184
VP0DT0H0M6.9667S
p516
sg39
(dp517
g41
VCLG Royal 2
p518
sg43
Nssa(dp519
g38
I313138863
sg32
VWeaponDrop
p520
sg180
I0
sg44
(lp521
I1095363701
asg35
VPT44.89S
p522
sg183
I0
sg184
VP0DT0S
p523
sg39
(dp524
g41
VCLG Royal 2
p525
sg43
Nssa(dp526
g38
I4096745987
sg32
VWeaponDrop
p527
sg180
I4
sg44
(lp528
I2758383128
asg35
VPT44.89S
p529
sg183
I4
sg184
VP0DT0H0M19.9000S
p530
sg39
(dp531
g41
VCLG Royal 2
p532
sg43
Nssa(dp533
g38
I4096745987
sg32
VWeaponDrop
p534
sg180
I3
sg44
(lp535
I2758383128
asg35
VPT46.0539986S
p536
sg183
I0
sg184
VP0DT0H0M4.5000S
p537
sg39
(dp538
g41
VE6 bubu dubu
p539
sg43
Nssa(dp540
g38
I424645655
sg39
(dp541
g41
VE6 bubu dubu
p542
sg43
Nssg44
(lp543
I1327094800
asg32
VWeaponPickup
p544
sg35
VPT46.0539986S
p545
sa(dp546
g38
I313138863
sg39
(dp547
g41
VCLG Frosty HCS
p548
sg43
Nssg44
(lp549
I1095363701
asg32
VWeaponPickup
p550
sg35
VPT47.1060005S
p551
sa(dp552
g38
I4096745987
sg39
(dp553
g41
VCLG Frosty HCS
p554
sg43
Nssg44
(lp555
I2758383128
asg32
VWeaponPickup
p556
sg35
VPT47.1060005S
p557
sa(dp558
g32
VPlayerSpawn
p559
sg39
(dp560
g41
VCLG Frosty HCS
p561
sg43
Nssg35
VPT47.1060005S
p562
sa(dp563
g38
I313138863
sg39
(dp564
g41
VCLG Royal 2
p565
sg43
Nssg44
(lp566
I1095363701
asg32
VWeaponPickup
p567
sg35
VPT52.9050006S
p568
sa(dp569
g38
I4096745987
sg39
(dp570
g41
VCLG Royal 2
p571
sg43
Nssg44
(lp572
I2758383128
asg32
VWeaponPickup
p573
sg35
VPT52.9060005S
p574
sa(dp575
g32
VPlayerSpawn
p576
sg39
(dp577
g41
VCLG Royal 2
p578
sg43
Nssg35
VPT52.9060005S
p579
sa(dp580
g240
I3682788176
sg241
I00
sg242
I00
sg243
(dp581
g41
VE6 Shooter
p582
sg43
Nssg246
(lp583
I2758383128
asg248
I00
sg249
I01
sg250
I1
sg251
I0
sg252
I1
sg253
(dp584
Vy
F7.4131464999999999
sVx
F-2.2807529999999998
sVz
F1.86599326
ssg255
(dp585
Vy
F-0.19316697099999999
sVx
F-16.081907300000001
sVz
F1.49932277
ssg257
I00
sg258
(dp586
g41
VCLG Royal 2
p587
sg43
Nssg262
(lp588
sg264
(lp589
sg266
I00
sg35
VPT58.7720002S
p590
sg32
VDeath
p591
sg269
I1
sa(dp592
g38
I313138863
sg32
VWeaponDrop
p593
sg180
I0
sg44
(lp594
I1095363701
asg35
VPT58.773S
p595
sg183
I0
sg184
VP0DT0H0M0.7667S
p596
sg39
(dp597
g41
VCLG Royal 2
p598
sg43
Nssa(dp599
g38
I4096745987
sg32
VWeaponDrop
p600
sg180
I7
sg44
(lp601
I2758383128
asg35
VPT58.773S
p602
sg183
I5
sg184
VP0DT0H0M5.1000S
p603
sg39
(dp604
g41
VCLG Royal 2
p605
sg43
Nssa(dp606
g38
I313138863
sg39
(dp607
g41
VCLG Royal 2
p608
sg43
Nssg44
(lp609
I1095363701
asg32
VWeaponPickup
p610
sg35
VPT1M6.7880005S
p611
sa(dp612
g38
I4096745987
sg39
(dp613
g41
VCLG Royal 2
p614
sg43
Nssg44
(lp615
I2758383128
asg32
VWeaponPickup
p616
sg35
VPT1M6.7880005S
p617
sa(dp618
g32
VPlayerSpawn
p619
sg39
(dp620
g41
VCLG Royal 2
p621
sg43
Nssg35
VPT1M6.7880005S
p622
sa(dp623
g240
I4108759423
sg241
I00
sg242
I00
sg243
(dp624
g41
VCLG LethuL HCS
p625
sg43
Nssg246
(lp626
I2758383128
asg248
I00
sg249
I01
sg250
I1
sg251
I0
sg252
I1
sg253
(dp627
Vy
F16.255043000000001
sVx
F-12.3051472
sVz
F2.2941708599999999
ssg255
(dp628
Vy
F21.737691900000002
sVx
F6.35769129
sVz
F1.23352909
ssg257
I00
sg258
(dp629
g41
VE6 Huke HCS
p630
sg43
Nssg262
(lp631
sg264
(lp632
(dp633
g41
VCLG Snake Bite
p634
sg43
Nsasg266
I01
sg35
VPT1M6.8040018S
p635
sg32
VDeath
p636
sg269
I1
sa(dp637
g32
VMedal
p638
sg39
(dp639
g41
VCLG LethuL HCS
p640
sg43
Nssg274
I3261908037
sg35
VPT1M6.8060005S
p641
sa(dp642
g38
I313138863
sg32
VWeaponDrop
p643
sg180
I0
sg44
(lp644
I1095363701
asg35
VPT1M6.8060005S
p645
sg183
I0
sg184
VP0DT0H0M1.3000S
p646
sg39
(dp647
g41
VE6 Huke HCS
p648
sg43
Nssa(dp649
g38
I424645655
sg32
VWeaponDrop
p650
sg180
I40
sg44
(lp651
I1327094800
asg35
VPT1M6.8060005S
p652
sg183
I20
sg184
VP0DT0H0M45.9500S
p653
sg39
(dp654
g41
VE6 Huke HCS
p655
sg43
Nssa(dp656
g240
I424645655
sg241
I00
sg242
I00
sg243
(dp657
g41
VE6 bubu dubu
p658
sg43
Nssg246
(lp659
I1327094800
asg248
I00
sg249
I01
sg250
I1
sg251
I0
sg252
I1
sg253
(dp660
Vy
F14.084838899999999
sVx
F3.6569283000000001
sVz
F1.4982568000000001
ssg255
(dp661
Vy
F13.482355099999999
sVx
F6.6271467199999998
sVz
F1.4982566799999999
ssg257
I00
sg258
(dp662
g41
VCLG Snake Bite
p663
sg43
Nssg262
(lp664
sg264
(lp665
(dp666
g41
VE6 Huke HCS
p667
sg43
Nsa(dp668
g41
VE6 Shooter
p669
sg43
Nsasg266
I01
sg35
VPT1M7.8710001S
p670
sg32
VDeath
p671
sg269
I1
sa(dp672
g32
VMedal
p673
sg39
(dp674
g41
VE6 bubu dubu
p675
sg43
Nssg274
I3261908037
sg35
VPT1M7.8720004S
p676
sa(dp677
g38
I3808094875
sg32
VWeaponDrop
p678
sg180
I24
sg44
(lp679
I2758383128
asg35
VPT1M7.8729998S
p680
sg183
I7
sg184
VP0DT0H0M24.2333S
p681
sg39
(dp682
g41
VCLG Snake Bite
p683
sg43
Nssa(dp684
g38
I4096745987
sg32
VWeaponDrop
p685
sg180
I10
sg44
(lp686
I2758383128
asg35
VPT1M7.8729998S
p687
sg183
I5
sg184
VP0DT0H0M21.8167S
p688
sg39
(dp689
g41
VCLG Snake Bite
p690
sg43
Nssa(dp691
g38
I4096745987
sg32
VWeaponDrop
p692
sg180
I0
sg44
(lp693
I2758383128
asg35
VPT1M7.8729998S
p694
sg183
I0
sg184
VP0DT0S
p695
sg39
(dp696
g41
VCLG Snake Bite
p697
sg43
Nssa(dp698
g38
I313138863
sg32
VWeaponDrop
p699
sg180
I0
sg44
(lp700
I1095363701
asg35
VPT1M8.452999S
p701
sg183
I0
sg184
VP0DT0H0M1.0167S
p702
sg39
(dp703
g41
VCLG Royal 2
p704
sg43
Nssa(dp705
g38
I723388907
sg39
(dp706
g41
VCLG Royal 2
p707
sg43
Nssg44
(lp708
I89283061
asg32
VWeaponPickup
p709
sg35
VPT1M8.452999S
p710
sa(dp711
g38
I313138863
sg32
VWeaponDrop
p712
sg180
I0
sg44
(lp713
I1095363701
asg35
VPT1M9.0859989S
p714
sg183
I0
sg184
VP0DT0H0M0.8500S
p715
sg39
(dp716
g41
VE6 bubu dubu
p717
sg43
Nssa(dp718
g38
I4096745987
sg39
(dp719
g41
VE6 bubu dubu
p720
sg43
Nssg44
(lp721
I2758383128
asg32
VWeaponPickup
p722
sg35
VPT1M9.0870002S
p723
sa(dp724
g240
I4108759423
sg241
I00
sg242
I00
sg243
(dp725
g41
VCLG LethuL HCS
p726
sg43
Nssg246
(lp727
I2758383128
asg248
I00
sg249
I01
sg250
I1
sg251
I0
sg252
I1
sg253
(dp728
Vy
F19.640689999999999
sVx
F-10.53909
sVz
F1.50307667
ssg255
(dp729
Vy
F13.227766000000001
sVx
F-10.972989999999999
sVz
F1.499968
ssg257
I00
sg258
(dp730
g41
VE6 Cratos HCS
p731
sg43
Nssg262
(lp732
sg264
(lp733
(dp734
g41
VCLG Frosty HCS
p735
sg43
Nsasg266
I01
sg35
VPT1M9.1040028S
p736
sg32
VDeath
p737
sg269
I1
sa(dp738
g32
VMedal
p739
sg39
(dp740
g41
VCLG LethuL HCS
p741
sg43
Nssg274
I3261908037
sg35
VPT1M9.1050003S
p742
sa(dp743
g32
VMedal
p744
sg39
(dp745
g41
VCLG LethuL HCS
p746
sg43
Nssg274
I2078758684
sg35
VPT1M9.1050003S
p747
sa(dp748
g38
I313138863
sg32
VWeaponDrop
p749
sg180
I23
sg44
(lp750
I1095363701
asg35
VPT1M9.1060006S
p751
sg183
I13
sg184
VP0DT0H0M10.8667S
p752
sg39
(dp753
g41
VE6 Cratos HCS
p754
sg43
Nssa(dp755
g38
I4096745987
sg32
VWeaponDrop
p756
sg180
I6
sg44
(lp757
I2758383128
asg35
VPT1M9.1060006S
p758
sg183
I3
sg184
VP0DT0H0M18.0833S
p759
sg39
(dp760
g41
VE6 Cratos HCS
p761
sg43
Nssa(dp762
g38
I4096745987
sg32
VWeaponDrop
p763
sg180
I0
sg44
(lp764
I2758383128
asg35
VPT1M11.1529983S
p765
sg183
I0
sg184
VP0DT0H0M2.0667S
p766
sg39
(dp767
g41
VE6 bubu dubu
p768
sg43
Nssa(dp769
g38
I3808094875
sg39
(dp770
g41
VE6 bubu dubu
p771
sg43
Nssg44
(lp772
I2758383128
asg32
VWeaponPickup
p773
sg35
VPT1M11.1529983S
p774
sa(dp775
g240
I3682788176
sg241
I00
sg242
I00
sg243
(dp776
g41
VE6 Shooter
p777
sg43
Nssg246
(lp778
I2758383128
asg248
I00
sg249
I01
sg250
I1
sg251
I0
sg252
I1
sg253
(dp779
Vy
F13.414695699999999
sVx
F-0.98460990000000004
sVz
F1.4995212600000001
ssg255
(dp780
Vy
F11.63302
sVx
F-2.6687129999999999
sVz
F2.5678026699999998
ssg257
I00
sg258
(dp781
g41
VCLG LethuL HCS
p782
sg43
Nssg262
(lp783
sg264
(lp784
sg266
I00
sg35
VPT1M14.5710006S
p785
sg32
VDeath
p786
sg269
I1
sa(dp787
g38
I313138863
sg32
VWeaponDrop
p788
sg180
I7
sg44
(lp789
I1095363701
asg35
VPT1M14.5720008S
p790
sg183
I7
sg184
VP0DT0H0M18.7333S
p791
sg39
(dp792
g41
VCLG LethuL HCS
p793
sg43
Nssa(dp794
g38
I4108759423
sg32
VWeaponDrop
p795
sg180
I30
sg44
(lp796
I2758383128
asg35
VPT1M14.5720008S
p797
sg183
I12
sg184
VP0DT0H0M35.5500S
p798
sg39
(dp799
g41
VCLG LethuL HCS
p800
sg43
Nssa(dp801
g38
I313138863
sg39
(dp802
g41
VE6 Huke HCS
p803
sg43
Nssg44
(lp804
I1095363701
asg32
VWeaponPickup
p805
sg35
VPT1M14.8210008S
p806
sa(dp807
g38
I4096745987
sg39
(dp808
g41
VE6 Huke HCS
p809
sg43
Nssg44
(lp810
I2758383128
asg32
VWeaponPickup
p811
sg35
VPT1M14.8220119S
p812
sa(dp813
g32
VPlayerSpawn
p814
sg39
(dp815
g41
VE6 Huke HCS
p816
sg43
Nssg35
VPT1M14.8220119S
p817
sa(dp818
g38
I313138863
sg39
(dp819
g41
VCLG Snake Bite
p820
sg43
Nssg44
(lp821
I1095363701
asg32
VWeaponPickup
p822
sg35
VPT1M15.8880011S
p823
sa(dp824
g38
I4096745987
sg39
(dp825
g41
VCLG Snake Bite
p826
sg43
Nssg44
(lp827
I2758383128
asg32
VWeaponPickup
p828
sg35
VPT1M15.8880011S
p829
sa(dp830
g32
VPlayerSpawn
p831
sg39
(dp832
g41
VCLG Snake Bite
p833
sg43
Nssg35
VPT1M15.8880011S
p834
sa(dp835
g38
I313138863
sg39
(dp836
g41
VE6 Cratos HCS
p837
sg43
Nssg44
(lp838
I1095363701
asg32
VWeaponPickup
p839
sg35
VPT1M17.1210007S
p840
sa(dp841
g38
I4096745987
sg39
(dp842
g41
VE6 Cratos HCS
p843
sg43
Nssg44
(lp844
I2758383128
asg32
VWeaponPickup
p845
sg35
VPT1M17.1210007S
p846
sa(dp847
g32
VPlayerSpawn
p848
sg39
(dp849
g41
VE6 Cratos HCS
p850
sg43
Nssg35
VPT1M17.1210007S
p851
sa(dp852
g32
VMedal
p853
sg39
(dp854
g41
VCLG Royal 2
p855
sg43
Nssg274
I3565443938
sg35
VPT1M19.3859983S
p856
sa(dp857
g32
VMedal
p858
sg39
(dp859
g41
VCLG Frosty HCS
p860
sg43
Nssg274
I3565443938
sg35
VPT1M19.3859983S
p861
sa(dp862
g32
VMedal
p863
sg39
(dp864
g41
VCLG Frosty HCS
p865
sg43
Nssg274
I2105198095
sg35
VPT1M19.3870003S
p866
sa(dp867
g32
VMedal
p868
sg39
(dp869
g41
VCLG Royal 2
p870
sg43
Nssg274
I2105198095
sg35
VPT1M19.3870003S
p871
sa(dp872
g32
VMedal
p873
sg39
(dp874
g41
VCLG LethuL HCS
p875
sg43
Nssg274
I2105198095
sg35
VPT1M19.3870003S
p876
sa(dp877
g32
VMedal
p878
sg39
(dp879
g41
VCLG Snake Bite
p880
sg43
Nssg274
I2105198095
sg35
VPT1M19.3870003S
p881
sa(dp882
g38
I313138863
sg32
VWeaponDrop
p883
sg180
I13
sg44
(lp884
I1095363701
asg35
VPT1M20.4359985S
p885
sg183
I9
sg184
VP0DT0H0M6.5000S
p886
sg39
(dp887
g41
VCLG Frosty HCS
p888
sg43
Nssa(dp889
g38
I424645655
sg39
(dp890
g41
VCLG Frosty HCS
p891
sg43
Nssg44
(lp892
I1327094800
asg32
VWeaponPickup
p893
sg35
VPT1M20.4359985S
p894
sa(dp895
g38
I313138863
sg39
(dp896
g41
VCLG LethuL HCS
p897
sg43
Nssg44
(lp898
I1095363701
asg32
VWeaponPickup
p899
sg35
VPT1M22.5880068S
p900
sa(dp901
g38
I4096745987
sg39
(dp902
g41
VCLG LethuL HCS
p903
sg43
Nssg44
(lp904
I2758383128
asg32
VWeaponPickup
p905
sg35
VPT1M22.5880068S
p906
sa(dp907
g32
VPlayerSpawn
p908
sg39
(dp909
g41
VCLG LethuL HCS
p910
sg43
Nssg35
VPT1M22.5880068S
p911
sa(dp912
g32
VMedal
p913
sg39
(dp914
g41
VE6 Huke HCS
p915
sg43
Nssg274
I3565443938
sg35
VPT1M24.9359985S
p916
sa(dp917
g32
VMedal
p918
sg39
(dp919
g41
VE6 Cratos HCS
p920
sg43
Nssg274
I3565443938
sg35
VPT1M24.9359985S
p921
sa(dp922
g32
VMedal
p923
sg39
(dp924
g41
VE6 Shooter
p925
sg43
Nssg274
I1637841390
sg35
VPT1M24.9370002S
p926
sa(dp927
g32
VMedal
p928
sg39
(dp929
g41
VE6 Shooter
p930
sg43
Nssg274
I2916014239
sg35
VPT1M29.8880003S
p931
sa(dp932
g240
I3682788176
sg241
I00
sg242
I00
sg243
(dp933
g41
VE6 Shooter
p934
sg43
Nssg246
(lp935
I2758383128
asg248
I00
sg249
I01
sg250
I1
sg251
I0
sg252
I1
sg253
(dp936
Vy
F6.0409774799999996
sVx
F5.7058540000000004
sVz
F-0.89673250000000004
ssg255
(dp937
Vy
F9.6285869999999996
sVx
F1.5356576399999999
sVz
F-0.89673040000000004
ssg257
I00
sg258
(dp938
g41
VCLG Snake Bite
p939
sg43
Nssg262
(lp940
sg264
(lp941
(dp942
g41
VE6 bubu dubu
p943
sg43
Nsa(dp944
g41
VE6 Huke HCS
p945
sg43
Nsasg266
I00
sg35
VPT1M30.4200002S
p946
sg32
VDeath
p947
sg269
I1
sa(dp948
g38
I313138863
sg32
VWeaponDrop
p949
sg180
I10
sg44
(lp950
I1095363701
asg35
VPT1M30.4220002S
p951
sg183
I1
sg184
VP0DT0H0M6.0833S
p952
sg39
(dp953
g41
VCLG Snake Bite
p954
sg43
Nssa(dp955
g38
I4096745987
sg32
VWeaponDrop
p956
sg180
I0
sg44
(lp957
I2758383128
asg35
VPT1M30.4230004S
p958
sg183
I0
sg184
VP0DT0H0M8.4500S
p959
sg39
(dp960
g41
VCLG Snake Bite
p961
sg43
Nssa(dp962
g38
I3682788176
sg32
VWeaponDrop
p963
sg180
I6
sg44
(lp964
I2758383128
asg35
VPT1M32.06902S
p965
sg183
I6
sg184
VP0DT0H1M0.1167S
p966
sg39
(dp967
g41
VE6 Shooter
p968
sg43
Nssa(dp969
g38
I3682788176
sg32
VWeaponDrop
p970
sg180
I0
sg44
(lp971
I2758383128
asg35
VPT1M32.06902S
p972
sg183
I0
sg184
VP0DT0S
p973
sg39
(dp974
g41
VE6 Shooter
p975
sg43
Nssa(dp976
g38
I313138863
sg39
(dp977
g41
VE6 Shooter
p978
sg43
Nssg44
(lp979
I1095363701
asg32
VWeaponPickup
p980
sg35
VPT1M32.06902S
p981
sa(dp982
g240
I4096745987
sg241
I00
sg242
I00
sg243
(dp983
g41
VCLG Royal 2
p984
sg43
Nssg246
(lp985
I2758383128
asg248
I00
sg249
I01
sg250
I1
sg251
I0
sg252
I1
sg253
(dp986
Vy
F16.569103200000001
sVx
F-3.2913382100000002
sVz
F1.87126243
ssg255
(dp987
Vy
F16.247869999999999
sVx
F0.84137535100000005
sVz
F0.068483470000000005
ssg257
I00
sg258
(dp988
g41
VE6 Huke HCS
p989
sg43
Nssg262
(lp990
sg264
(lp991
sg266
I01
sg35
VPT1M36.4200001S
p992
sg32
VDeath
p993
sg269
I1
sa(dp994
g32
VMedal
p995
sg39
(dp996
g41
VCLG Royal 2
p997
sg43
Nssg274
I3261908037
sg35
VPT1M36.4219999S
p998
sa(dp999
g38
I313138863
sg32
VWeaponDrop
p1000
sg180
I0
sg44
(lp1001
I1095363701
asg35
VPT1M36.4219999S
p1002
sg183
I0
sg184
VP0DT0H0M1.7833S
p1003
sg39
(dp1004
g41
VE6 Huke HCS
p1005
sg43
Nssa(dp1006
g38
I4096745987
sg32
VWeaponDrop
p1007
sg180
I7
sg44
(lp1008
I2758383128
asg35
VPT1M36.4219999S
p1009
sg183
I4
sg184
VP0DT0H0M19.8167S
p1010
sg39
(dp1011
g41
VE6 Huke HCS
p1012
sg43
Nssa(dp1013
g240
I424645655
sg241
I00
sg242
I00
sg243
(dp1014
g41
VE6 bubu dubu
p1015
sg43
Nssg246
(lp1016
I1327094800
asg248
I00
sg249
I01
sg250
I1
sg251
I0
sg252
I1
sg253
(dp1017
Vy
F24.2746
sVx
F-11.2152891
sVz
F1.503374
ssg255
(dp1018
Vy
F16.678873100000001
sVx
F-3.0322365800000002
sVz
F1.4996273499999999
ssg257
I00
sg258
(dp1019
g41
VCLG Royal 2
p1020
sg43
Nssg262
(lp1021
sg264
(lp1022
(dp1023
g41
VE6 Huke HCS
p1024
sg43
Nsasg266
I01
sg35
VPT1M37.5859996S
p1025
sg32
VDeath
p1026
sg269
I1
sa(dp1027
g32
VMedal
p1028
sg39
(dp1029
g41
VE6 bubu dubu
p1030
sg43
Nssg274
I3261908037
sg35
VPT1M37.5880099S
p1031
sa(dp1032
g38
I4096745987
sg32
VWeaponDrop
p1033
sg180
I14
sg44
(lp1034
I2758383128
asg35
VPT1M37.5880099S
p1035
sg183
I8
sg184
VP0DT0H0M29.2000S
p1036
sg39
(dp1037
g41
VCLG Royal 2
p1038
sg43
Nssa(dp1039
g38
I723388907
sg32
VWeaponDrop
p1040
sg180
I0
sg44
(lp1041
I89283061
asg35
VPT1M37.5890124S
p1042
sg183
I0
sg184
VP0DT0H0M0.5833S
p1043
sg39
(dp1044
g41
VCLG Royal 2
p1045
sg43
Nssa(dp1046
g38
I313138863
sg39
(dp1047
g41
VCLG Snake Bite
p1048
sg43
Nssg44
(lp1049
I1095363701
asg32
VWeaponPickup
p1050
sg35
VPT1M38.4370005S
p1051
sa(dp1052
g38
I4096745987
sg39
(dp1053
g41
VCLG Snake Bite
p1054
sg43
Nssg44
(lp1055
I2758383128
asg32
VWeaponPickup
p1056
sg35
VPT1M38.4370005S
p1057
sa(dp1058
g32
VPlayerSpawn
p1059
sg39
(dp1060
g41
VCLG Snake Bite
p1061
sg43
Nssg35
VPT1M38.4370005S
p1062
sa(dp1063
g240
I4096745987
sg241
I00
sg242
I00
sg243
(dp1064
g41
VE6 Shooter
p1065
sg43
Nssg246
(lp1066
I2758383128
asg248
I00
sg249
I01
sg250
I1
sg251
I0
sg252
I1
sg253
(dp1067
Vy
F0.232154533
sVx
F6.1509720000000003
sVz
F1.1909412100000001
ssg255
(dp1068
Vy
F1.24513841
sVx
F1.2508043099999999
sVz
F1.1239399999999999
ssg257
I00
sg258
(dp1069
g41
VCLG LethuL HCS
p1070
sg43
Nssg262
(lp1071
sg264
(lp1072
sg266
I01
sg35
VPT1M40.5030002S
p1073
sg32
VDeath
p1074
sg269
I1
sa(dp1075
g32
VMedal
p1076
sg39
(dp1077
g41
VE6 Shooter
p1078
sg43
Nssg274
I2782465081
sg35
VPT1M40.5030002S
p1079
sa(dp1080
g32
VMedal
p1081
sg39
(dp1082
g41
VE6 Shooter
p1083
sg43
Nssg274
I3261908037
sg35
VPT1M40.5049996S
p1084
sa(dp1085
g38
I313138863
sg32
VWeaponDrop
p1086
sg180
I8
sg44
(lp1087
I1095363701
asg35
VPT1M40.5060106S
p1088
sg183
I5
sg184
VP0DT0H0M1.9667S
p1089
sg39
(dp1090
g41
VCLG LethuL HCS
p1091
sg43
Nssa(dp1092
g38
I4096745987
sg32
VWeaponDrop
p1093
sg180
I10
sg44
(lp1094
I2758383128
asg35
VPT1M40.5060106S
p1095
sg183
I4
sg184
VP0DT0H0M15.9500S
p1096
sg39
(dp1097
g41
VCLG LethuL HCS
p1098
sg43
Nssa(dp1099
g32
VMedal
p1100
sg39
(dp1101
g41
VE6 bubu dubu
p1102
sg43
Nssg274
I3565443938
sg35
VPT1M43.0519984S
p1103
sa(dp1104
g32
VMedal
p1105
sg39
(dp1106
g41
VE6 Cratos HCS
p1107
sg43
Nssg274
I3565443938
sg35
VPT1M43.0519984S
p1108
sa(dp1109
g32
VMedal
p1110
sg39
(dp1111
g41
VE6 Shooter
p1112
sg43
Nssg274
I3400287617
sg35
VPT1M44.4189997S
p1113
sa(dp1114
g38
I313138863
sg39
(dp1115
g41
VE6 Huke HCS
p1116
sg43
Nssg44
(lp1117
I1095363701
asg32
VWeaponPickup
p1118
sg35
VPT1M44.4370013S
p1119
sa(dp1120
g38
I4096745987
sg39
(dp1121
g41
VE6 Huke HCS
p1122
sg43
Nssg44
(lp1123
I2758383128
asg32
VWeaponPickup
p1124
sg35
VPT1M44.4370013S
p1125
sa(dp1126
g32
VPlayerSpawn
p1127
sg39
(dp1128
g41
VE6 Huke HCS
p1129
sg43
Nssg35
VPT1M44.4370013S
p1130
sa(dp1131
g38
I313138863
sg39
(dp1132
g41
VCLG Royal 2
p1133
sg43
Nssg44
(lp1134
I1095363701
asg32
VWeaponPickup
p1135
sg35
VPT1M45.6030006S
p1136
sa(dp1137
g38
I4096745987
sg39
(dp1138
g41
VCLG Royal 2
p1139
sg43
Nssg44
(lp1140
I2758383128
asg32
VWeaponPickup
p1141
sg35
VPT1M45.6040007S
p1142
sa(dp1143
g32
VPlayerSpawn
p1144
sg39
(dp1145
g41
VCLG Royal 2
p1146
sg43
Nssg35
VPT1M45.6040007S
p1147
sa(dp1148
g240
I424645655
sg241
I00
sg242
I00
sg243
(dp1149
g41
VCLG Frosty HCS
p1150
sg43
Nssg246
(lp1151
I1327094800
asg248
I00
sg249
I01
sg250
I1
sg251
I0
sg252
I1
sg253
(dp1152
Vy
F14.489212
sVx
F-2.88285613
sVz
F1.4995212600000001
ssg255
(dp1153
Vy
F25.613288900000001
sVx
F-8.0307289999999991
sVz
F0.037378550000000003
ssg257
I00
sg258
(dp1154
g41
VE6 bubu dubu
p1155
sg43
Nssg262
(lp1156
sg264
(lp1157
sg266
I01
sg35
VPT1M46.8189999S
p1158
sg32
VDeath
p1159
sg269
I1
sa(dp1160
g32
VMedal
p1161
sg39
(dp1162
g41
VCLG Frosty HCS
p1163
sg43
Nssg274
I2782465081
sg35
VPT1M46.8200006S
p1164
sa(dp1165
g32
VMedal
p1166
sg39
(dp1167
g41
VCLG Frosty HCS
p1168
sg43
Nssg274
I3261908037
sg35
VPT1M46.8219998S
p1169
sa(dp1170
g38
I3808094875
sg32
VWeaponDrop
p1171
sg180
I16
sg44
(lp1172
I2758383128
asg35
VPT1M46.8219998S
p1173
sg183
I7
sg184
VP0DT0H0M6.0667S
p1174
sg39
(dp1175
g41
VE6 bubu dubu
p1176
sg43
Nssa(dp1177
g38
I424645655
sg32
VWeaponDrop
p1178
sg180
I54
sg44
(lp1179
I1327094800
asg35
VPT1M46.8219998S
p1180
sg183
I24
sg184
VP0DT0H0M52.4667S
p1181
sg39
(dp1182
g41
VE6 bubu dubu
p1183
sg43
Nssa(dp1184
g38
I4096745987
sg32
VWeaponDrop
p1185
sg180
I0
sg44
(lp1186
I2758383128
asg35
VPT1M47.6350275S
p1187
sg183
I0
sg184
VP0DT0H0M1.1333S
p1188
sg39
(dp1189
g41
VCLG Royal 2
p1190
sg43
Nssa(dp1191
g38
I424645655
sg39
(dp1192
g41
VCLG Royal 2
p1193
sg43
Nssg44
(lp1194
I1327094800
asg32
VWeaponPickup
p1195
sg35
VPT1M47.6350275S
p1196
sa(dp1197
g38
I313138863
sg39
(dp1198
g41
VCLG LethuL HCS
p1199
sg43
Nssg44
(lp1200
I1095363701
asg32
VWeaponPickup
p1201
sg35
VPT1M48.5200013S
p1202
sa(dp1203
g38
I4096745987
sg39
(dp1204
g41
VCLG LethuL HCS
p1205
sg43
Nssg44
(lp1206
I2758383128
asg32
VWeaponPickup
p1207
sg35
VPT1M48.5200013S
p1208
sa(dp1209
g32
VPlayerSpawn
p1210
sg39
(dp1211
g41
VCLG LethuL HCS
p1212
sg43
Nssg35
VPT1M48.5200013S
p1213
sa(dp1214
g38
I313138863
sg32
VWeaponDrop
p1215
sg180
I0
sg44
(lp1216
I1095363701
asg35
VPT1M50.3520001S
p1217
sg183
I0
sg184
VP0DT0H0M4.3000S
p1218
sg39
(dp1219
g41
VE6 Cratos HCS
p1220
sg43
Nssa(dp1221
g38
I3808094875
sg39
(dp1222
g41
VE6 Cratos HCS
p1223
sg43
Nssg44
(lp1224
I2758383128
asg32
VWeaponPickup
p1225
sg35
VPT1M50.3520001S
p1226
sa(dp1227
g32
VMedal
p1228
sg39
(dp1229
g41
VCLG Frosty HCS
p1230
sg43
Nssg274
I3400287617
sg35
VPT1M50.7520002S
p1231
sa(dp1232
g240
I424645655
sg241
I00
sg242
I00
sg243
(dp1233
g41
VCLG Frosty HCS
p1234
sg43
Nssg246
(lp1235
I1327094800
asg248
I00
sg249
I01
sg250
I1
sg251
I0
sg252
I1
sg253
(dp1236
Vy
F9.6833105100000001
sVx
F4.3553410000000001
sVz
F1.4982424999999999
ssg255
(dp1237
Vy
F11.130295800000001
sVx
F4.0394509999999997
sVz
F1.498237
ssg257
I00
sg258
(dp1238
g41
VE6 Shooter
p1239
sg43
Nssg262
(lp1240
sg264
(lp1241
sg266
I01
sg35
VPT1M53.56901S
p1242
sg32
VDeath
p1243
sg269
I1
sa(dp1244
g32
VMedal
p1245
sg39
(dp1246
g41
VCLG Frosty HCS
p1247
sg43
Nssg274
I685960231
sg35
VPT1M53.5700004S
p1248
sa(dp1249
g38
I313138863
sg32
VWeaponDrop
p1250
sg180
I1
sg44
(lp1251
I1095363701
asg35
VPT1M53.5710003S
p1252
sg183
I0
sg184
VP0DT0H0M3.9167S
p1253
sg39
(dp1254
g41
VE6 Shooter
p1255
sg43
Nssa(dp1256
g38
I4096745987
sg32
VWeaponDrop
p1257
sg180
I10
sg44
(lp1258
I2758383128
asg35
VPT1M53.5710003S
p1259
sg183
I6
sg184
VP0DT0H0M28.8833S
p1260
sg39
(dp1261
g41
VE6 Shooter
p1262
sg43
Nssa(dp1263
g38
I313138863
sg39
(dp1264
g41
VE6 bubu dubu
p1265
sg43
Nssg44
(lp1266
I1095363701
asg32
VWeaponPickup
p1267
sg35
VPT1M54.8530004S
p1268
sa(dp1269
g38
I4096745987
sg39
(dp1270
g41
VE6 bubu dubu
p1271
sg43
Nssg44
(lp1272
I2758383128
asg32
VWeaponPickup
p1273
sg35
VPT1M54.8530004S
p1274
sa(dp1275
g32
VPlayerSpawn
p1276
sg39
(dp1277
g41
VE6 bubu dubu
p1278
sg43
Nssg35
VPT1M54.8530004S
p1279
sa(dp1280
g240
I3190813201
sg241
I00
sg242
I00
sg243
(dp1281
g41
VE6 Cratos HCS
p1282
sg43
Nssg246
(lp1283
sg248
I00
sg249
I01
sg250
I1
sg251
I0
sg252
I1
sg253
(dp1284
Vy
F21.7126713
sVx
F-8.8752999999999993
sVz
F1.50337422
ssg255
(dp1285
Vy
F10.2374372
sVx
F-0.69544714699999999
sVz
F1.6388185
ssg257
I00
sg258
(dp1286
g41
VCLG Frosty HCS
p1287
sg43
Nssg262
(lp1288
sg264
(lp1289
(dp1290
g41
VE6 Shooter
p1291
sg43
Nsasg266
I00
sg35
VPT1M58.7350001S
p1292
sg32
VDeath
p1293
sg269
I1
sa(dp1294
g38
I424645655
sg32
VWeaponDrop
p1295
sg180
I45
sg44
(lp1296
I1327094800
asg35
VPT1M58.7369999S
p1297
sg183
I26
sg184
VP0DT0H0M38.2833S
p1298
sg39
(dp1299
g41
VCLG Frosty HCS
p1300
sg43
Nssa(dp1301
g38
I424645655
sg32
VWeaponDrop
p1302
sg180
I0
sg44
(lp1303
I1327094800
asg35
VPT1M58.7369999S
p1304
sg183
I0
sg184
VP0DT0S
p1305
sg39
(dp1306
g41
VCLG Frosty HCS
p1307
sg43
Nssa(dp1308
g38
I4096745987
sg32
VWeaponDrop
p1309
sg180
I10
sg44
(lp1310
I2758383128
asg35
VPT1M58.7369999S
p1311
sg183
I4
sg184
VP0DT0H0M26.8333S
p1312
sg39
(dp1313
g41
VCLG Frosty HCS
p1314
sg43
Nssa(dp1315
g38
I313138863
sg39
(dp1316
g41
VE6 Shooter
p1317
sg43
Nssg44
(lp1318
I1095363701
asg32
VWeaponPickup
p1319
sg35
VPT2M1.5880006S
p1320
sa(dp1321
g38
I4096745987
sg39
(dp1322
g41
VE6 Shooter
p1323
sg43
Nssg44
(lp1324
I2758383128
asg32
VWeaponPickup
p1325
sg35
VPT2M1.5880006S
p1326
sa(dp1327
g32
VPlayerSpawn
p1328
sg39
(dp1329
g41
VE6 Shooter
p1330
sg43
Nssg35
VPT2M1.5880006S
p1331
sa(dp1332
g38
I313138863
sg39
(dp1333
g41
VCLG Frosty HCS
p1334
sg43
Nssg44
(lp1335
I1095363701
asg32
VWeaponPickup
p1336
sg35
VPT2M6.7530006S
p1337
sa(dp1338
g38
I4096745987
sg39
(dp1339
g41
VCLG Frosty HCS
p1340
sg43
Nssg44
(lp1341
I2758383128
asg32
VWeaponPickup
p1342
sg35
VPT2M6.7530006S
p1343
sa(dp1344
g32
VPlayerSpawn
p1345
sg39
(dp1346
g41
VCLG Frosty HCS
p1347
sg43
Nssg35
VPT2M6.7530006S
p1348
sa(dp1349
g240
I313138863
sg241
I00
sg242
I00
sg243
(dp1350
g41
VE6 Huke HCS
p1351
sg43
Nssg246
(lp1352
I1095363701
asg248
I00
sg249
I01
sg250
I1
sg251
I0
sg252
I1
sg253
(dp1353
Vy
F9.6166110000000007
sVx
F3.9257905499999999
sVz
F0.21566537
ssg255
(dp1354
Vy
F5.6296739999999996
sVx
F6.6931424100000001
sVz
F-0.053295105699999998
ssg257
I00
sg258
(dp1355
g41
VCLG Royal 2
p1356
sg43
Nssg262
(lp1357
sg264
(lp1358
sg266
I00
sg35
VPT2M6.7550007S
p1359
sg32
VDeath
p1360
sg269
I1
sa(dp1361
g32
VMedal
p1362
sg39
(dp1363
g41
VE6 Huke HCS
p1364
sg43
Nssg274
I1351381581
sg35
VPT2M6.7570009S
p1365
sa(dp1366
g38
I313138863
sg32
VWeaponDrop
p1367
sg180
I0
sg44
(lp1368
I1095363701
asg35
VPT2M6.7580007S
p1369
sg183
I0
sg184
VP0DT0H0M0.9000S
p1370
sg39
(dp1371
g41
VCLG Royal 2
p1372
sg43
Nssa(dp1373
g38
I424645655
sg32
VWeaponDrop
p1374
sg180
I33
sg44
(lp1375
I1327094800
asg35
VPT2M6.7580007S
p1376
sg183
I20
sg184
VP0DT0H0M19.1000S
p1377
sg39
(dp1378
g41
VCLG Royal 2
p1379
sg43
Nssa(dp1380
g240
I4096745987
sg241
I00
sg242
I00
sg243
(dp1381
g41
VCLG LethuL HCS
p1382
sg43
Nssg246
(lp1383
I2758383128
asg248
I00
sg249
I01
sg250
I1
sg251
I0
sg252
I1
sg253
(dp1384
Vy
F5.7670019999999997
sVx
F6.8872733100000003
sVz
F-0.89622765800000004
ssg255
(dp1385
Vy
F10.183579999999999
sVx
F4.3172206900000001
sVz
F0.077675939999999999
ssg257
I00
sg258
(dp1386
g41
VE6 Huke HCS
p1387
sg43
Nssg262
(lp1388
sg264
(lp1389
(dp1390
g41
VCLG Royal 2
p1391
sg43
Nsasg266
I01
sg35
VPT2M7.0690005S
p1392
sg32
VDeath
p1393
sg269
I1
sa(dp1394
g32
VMedal
p1395
sg39
(dp1396
g41
VCLG LethuL HCS
p1397
sg43
Nssg274
I3261908037
sg35
VPT2M7.0700043S
p1398
sa(dp1399
g38
I313138863
sg32
VWeaponDrop
p1400
sg180
I24
sg44
(lp1401
I1095363701
asg35
VPT2M7.0700043S
p1402
sg183
I13
sg184
VP0DT0H0M8.2500S
p1403
sg39
(dp1404
g41
VE6 Huke HCS
p1405
sg43
Nssa(dp1406
g38
I4096745987
sg32
VWeaponDrop
p1407
sg180
I7
sg44
(lp1408
I2758383128
asg35
VPT2M7.0700043S
p1409
sg183
I4
sg184
VP0DT0H0M14.3667S
p1410
sg39
(dp1411
g41
VE6 Huke HCS
p1412
sg43
Nssa(dp1413
g32
VMedal
p1414
sg39
(dp1415
g41
VCLG LethuL HCS
p1416
sg43
Nssg274
I3565443938
sg35
VPT2M9.2839987S
p1417
sa(dp1418
g32
VMedal
p1419
sg39
(dp1420
g41
VCLG Snake Bite
p1421
sg43
Nssg274
I1637841390
sg35
VPT2M9.2850122S
p1422
sa(dp1423
g32
VMedal
p1424
sg39
(dp1425
g41
VCLG Royal 2
p1426
sg43
Nssg274
I1637841390
sg35
VPT2M9.2850122S
p1427
sa(dp1428
g38
I4096745987
sg32
VWeaponDrop
p1429
sg180
I11
sg44
(lp1430
I2758383128
asg35
VPT2M10.5510052S
p1431
sg183
I2
sg184
VP0DT0H0M45.3167S
p1432
sg39
(dp1433
g41
VE6 Cratos HCS
p1434
sg43
Nssa(dp1435
g38
I424645655
sg39
(dp1436
g41
VE6 Cratos HCS
p1437
sg43
Nssg44
(lp1438
I1327094800
asg32
VWeaponPickup
p1439
sg35
VPT2M10.5510052S
p1440
sa(dp1441
g240
I4096745987
sg241
I00
sg242
I00
sg243
(dp1442
g41
VCLG Frosty HCS
p1443
sg43
Nssg246
(lp1444
I2758383128
asg248
I00
sg249
I01
sg250
I1
sg251
I0
sg252
I1
sg253
(dp1445
Vy
F18.047773400000001
sVx
F1.27479911
sVz
F-0.89672464100000004
ssg255
(dp1446
Vy
F17.171043399999999
sVx
F8.1473849999999999
sVz
F-0.60327976900000002
ssg257
I00
sg258
(dp1447
g41
VE6 bubu dubu
p1448
sg43
Nssg262
(lp1449
sg264
(lp1450
(dp1451
g41
VCLG Snake Bite
p1452
sg43
Nsasg266
I01
sg35
VPT2M11.1520004S
p1453
sg32
VDeath
p1454
sg269
I1
sa(dp1455
g32
VMedal
p1456
sg39
(dp1457
g41
VCLG LethuL HCS
p1458
sg43
Nssg274
I824733727
sg35
VPT2M11.1520004S
p1459
sa(dp1460
g32
VMedal
p1461
sg39
(dp1462
g41
VCLG Frosty HCS
p1463
sg43
Nssg274
I3261908037
sg35
VPT2M11.1540029S
p1464
sa(dp1465
g38
I313138863
sg32
VWeaponDrop
p1466
sg180
I21
sg44
(lp1467
I1095363701
asg35
VPT2M11.1540029S
p1468
sg183
I10
sg184
VP0DT0H0M9.0500S
p1469
sg39
(dp1470
g41
VE6 bubu dubu
p1471
sg43
Nssa(dp1472
g38
I4096745987
sg32
VWeaponDrop
p1473
sg180
I0
sg44
(lp1474
I2758383128
asg35
VPT2M11.1550006S
p1475
sg183
I0
sg184
VP0DT0H0M7.2500S
p1476
sg39
(dp1477
g41
VE6 bubu dubu
p1478
sg43
Nssa(dp1479
g240
I4096745987
sg241
I00
sg242
I00
sg243
(dp1480
g41
VE6 Shooter
p1481
sg43
Nssg246
(lp1482
I2758383128
asg248
I00
sg249
I01
sg250
I1
sg251
I0
sg252
I1
sg253
(dp1483
Vy
F2.6143872699999999
sVx
F6.1329116800000003
sVz
F0.36381000000000002
ssg255
(dp1484
Vy
F9.2589810000000003
sVx
F7.1839750000000002
sVz
F-0.89673020000000003
ssg257
I00
sg258
(dp1485
g41
VCLG Snake Bite
p1486
sg43
Nssg262
(lp1487
sg264
(lp1488
sg266
I01
sg35
VPT2M12.4850002S
p1489
sg32
VDeath
p1490
sg269
I1
sa(dp1491
g32
VImpulse
p1492
sg39
(dp1493
g41
VE6 Shooter
p1494
sg43
Nssg357
I3174430457
sg35
VPT2M12.4869995S
p1495
sa(dp1496
g32
VMedal
p1497
sg39
(dp1498
g41
VE6 Shooter
p1499
sg43
Nssg274
I3653057799
sg35
VPT2M12.4869995S
p1500
sa(dp1501
g38
I313138863
sg32
VWeaponDrop
p1502
sg180
I31
sg44
(lp1503
I1095363701
asg35
VPT2M12.4879997S
p1504
sg183
I12
sg184
VP0DT0H0M14.9000S
p1505
sg39
(dp1506
g41
VCLG Snake Bite
p1507
sg43
Nssa(dp1508
g38
I4096745987
sg32
VWeaponDrop
p1509
sg180
I12
sg44
(lp1510
I2758383128
asg35
VPT2M12.4879997S
p1511
sg183
I8
sg184
VP0DT0H0M19.1333S
p1512
sg39
(dp1513
g41
VCLG Snake Bite
p1514
sg43
Nssa(dp1515
g32
VMedal
p1516
sg39
(dp1517
g41
VE6 Cratos HCS
p1518
sg43
Nssg274
I3565443938
sg35
VPT2M14.7180002S
p1519
sa(dp1520
g32
VMedal
p1521
sg39
(dp1522
g41
VE6 Shooter
p1523
sg43
Nssg274
I1637841390
sg35
VPT2M14.7180002S
p1524
sa(dp1525
g32
VMedal
p1526
sg39
(dp1527
g41
VE6 Cratos HCS
p1528
sg43
Nssg274
I3354395650
sg35
VPT2M14.7180002S
p1529
sa(dp1530
g38
I313138863
sg39
(dp1531
g41
VCLG Royal 2
p1532
sg43
Nssg44
(lp1533
I1095363701
asg32
VWeaponPickup
p1534
sg35
VPT2M14.7690051S
p1535
sa(dp1536
g38
I4096745987
sg39
(dp1537
g41
VCLG Royal 2
p1538
sg43
Nssg44
(lp1539
I2758383128
asg32
VWeaponPickup
p1540
sg35
VPT2M14.7690051S
p1541
sa(dp1542
g32
VPlayerSpawn
p1543
sg39
(dp1544
g41
VCLG Royal 2
p1545
sg43
Nssg35
VPT2M14.7690051S
p1546
sa(dp1547
g38
I313138863
sg39
(dp1548
g41
VE6 Huke HCS
p1549
sg43
Nssg44
(lp1550
I1095363701
asg32
VWeaponPickup
p1551
sg35
VPT2M15.0850007S
p1552
sa(dp1553
g38
I4096745987
sg39
(dp1554
g41
VE6 Huke HCS
p1555
sg43
Nssg44
(lp1556
I2758383128
asg32
VWeaponPickup
p1557
sg35
VPT2M15.0860005S
p1558
sa(dp1559
g32
VPlayerSpawn
p1560
sg39
(dp1561
g41
VE6 Huke HCS
p1562
sg43
Nssg35
VPT2M15.0860005S
p1563
sa(dp1564
g38
I313138863
sg39
(dp1565
g41
VE6 bubu dubu
p1566
sg43
Nssg44
(lp1567
I1095363701
asg32
VWeaponPickup
p1568
sg35
VPT2M19.169001S
p1569
sa(dp1570
g38
I4096745987
sg39
(dp1571
g41
VE6 bubu dubu
p1572
sg43
Nssg44
(lp1573
I2758383128
asg32
VWeaponPickup
p1574
sg35
VPT2M19.169001S
p1575
sa(dp1576
g32
VPlayerSpawn
p1577
sg39
(dp1578
g41
VE6 bubu dubu
p1579
sg43
Nssg35
VPT2M19.169001S
p1580
sa(dp1581
g38
I313138863
sg32
VWeaponDrop
p1582
sg180
I0
sg44
(lp1583
I1095363701
asg35
VPT2M19.8169986S
p1584
sg183
I0
sg184
VP0DT0H0M1.5833S
p1585
sg39
(dp1586
g41
VE6 Huke HCS
p1587
sg43
Nssa(dp1588
g38
I3682788176
sg39
(dp1589
g41
VE6 Huke HCS
p1590
sg43
Nssg44
(lp1591
I2758383128
asg32
VWeaponPickupPad
p1592
sg35
VPT2M19.8169986S
p1593
sa(dp1594
g38
I3682788176
sg39
(dp1595
g41
VE6 Huke HCS
p1596
sg43
Nssg44
(lp1597
I2758383128
asg32
VWeaponPickup
p1598
sg35
VPT2M19.8169986S
p1599
sa(dp1600
g240
I313138863
sg241
I00
sg242
I00
sg243
(dp1601
g41
VCLG LethuL HCS
p1602
sg43
Nssg246
(lp1603
I1095363701
asg248
I00
sg249
I01
sg250
I1
sg251
I0
sg252
I1
sg253
(dp1604
Vy
F7.3350220000000004
sVx
F5.4314929999999997
sVz
F-0.029587656300000001
ssg255
(dp1605
Vy
F10.0827312
sVx
F6.7480583200000002
sVz
F0.32837694899999997
ssg257
I00
sg258
(dp1606
g41
VE6 Shooter
p1607
sg43
Nssg262
(lp1608
sg264
(lp1609
(dp1610
g41
VCLG Frosty HCS
p1611
sg43
Nsasg266
I00
sg35
VPT2M20.0350005S
p1612
sg32
VDeath
p1613
sg269
I1
sa(dp1614
g32
VMedal
p1615
sg39
(dp1616
g41
VCLG LethuL HCS
p1617
sg43
Nssg274
I3698887726
sg35
VPT2M20.0350005S
p1618
sa(dp1619
g32
VMedal
p1620
sg39
(dp1621
g41
VCLG LethuL HCS
p1622
sg43
Nssg274
I1351381581
sg35
VPT2M20.0360005S
p1623
sa(dp1624
g32
VMedal
p1625
sg39
(dp1626
g41
VCLG LethuL HCS
p1627
sg43
Nssg274
I2916014239
sg35
VPT2M20.0360005S
p1628
sa(dp1629
g38
I4096745987
sg32
VWeaponDrop
p1630
sg180
I14
sg44
(lp1631
I2758383128
asg35
VPT2M20.0370008S
p1632
sg183
I9
sg184
VP0DT0H0M13.0333S
p1633
sg39
(dp1634
g41
VE6 Shooter
p1635
sg43
Nssa(dp1636
g38
I313138863
sg32
VWeaponDrop
p1637
sg180
I0
sg44
(lp1638
I1095363701
asg35
VPT2M20.0370008S
p1639
sg183
I0
sg184
VP0DT0H0M5.4167S
p1640
sg39
(dp1641
g41
VE6 Shooter
p1642
sg43
Nssa(dp1643
g38
I313138863
sg39
(dp1644
g41
VCLG Snake Bite
p1645
sg43
Nssg44
(lp1646
I1095363701
asg32
VWeaponPickup
p1647
sg35
VPT2M20.5020012S
p1648
sa(dp1649
g38
I4096745987
sg39
(dp1650
g41
VCLG Snake Bite
p1651
sg43
Nssg44
(lp1652
I2758383128
asg32
VWeaponPickup
p1653
sg35
VPT2M20.5020012S
p1654
sa(dp1655
g32
VPlayerSpawn
p1656
sg39
(dp1657
g41
VCLG Snake Bite
p1658
sg43
Nssg35
VPT2M20.5020012S
p1659
sa(dp1660
g240
I3808094875
sg241
I00
sg242
I00
sg243
(dp1661
g41
VE6 Cratos HCS
p1662
sg43
Nssg246
(lp1663
I2758383128
asg248
I00
sg249
I01
sg250
I1
sg251
I0
sg252
I1
sg253
(dp1664
Vy
F1.4334751400000001
sVx
F5.4883337000000001
sVz
F0.30554962200000002
ssg255
(dp1665
Vy
F2.0831813800000001
sVx
F6.5085134499999997
sVz
F0.30518269999999997
ssg257
I00
sg258
(dp1666
g41
VCLG LethuL HCS
p1667
sg43
Nssg262
(lp1668
sg264
(lp1669
sg266
I00
sg35
VPT2M25.8520001S
p1670
sg32
VDeath
p1671
sg269
I1
sa(dp1672
g38
I313138863
sg32
VWeaponDrop
p1673
sg180
I8
sg44
(lp1674
I1095363701
asg35
VPT2M25.854005S
p1675
sg183
I3
sg184
VP0DT0H0M8.8500S
p1676
sg39
(dp1677
g41
VCLG LethuL HCS
p1678
sg43
Nssa(dp1679
g38
I4096745987
sg32
VWeaponDrop
p1680
sg180
I14
sg44
(lp1681
I2758383128
asg35
VPT2M25.854005S
p1682
sg183
I8
sg184
VP0DT0H0M28.4667S
p1683
sg39
(dp1684
g41
VCLG LethuL HCS
p1685
sg43
Nssa(dp1686
g240
I4106030681
sg241
I00
sg242
I00
sg243
(dp1687
g41
VE6 bubu dubu
p1688
sg43
Nssg246
(lp1689
sg248
I00
sg249
I00
sg250
I2
sg251
I0
sg252
I0
sg253
(dp1690
Vy
F10.8235531
sVx
F-9.8307289999999998
sVz
F3.2293605799999998
ssg255
(dp1691
Vy
F27.5284519
sVx
F-11.616913800000001
sVz
F1.50311935
ssg257
I00
sg258
(dp1692
g260
g261
ssg262
(lp1693
sg264
(lp1694
sg266
I00
sg35
VPT2M27.7180007S
p1695
sg32
VDeath
p1696
sg269
I1
sa(dp1697
g240
I3682788176
sg241
I00
sg242
I00
sg243
(dp1698
g41
VE6 Huke HCS
p1699
sg43
Nssg246
(lp1700
I2758383128
asg248
I00
sg249
I01
sg250
I1
sg251
I0
sg252
I1
sg253
(dp1701
Vy
F14.5466318
sVx
F-3.55399537
sVz
F2.3103365899999999
ssg255
(dp1702
Vy
F27.021364200000001
sVx
F-6.6375339999999996
sVz
F0.44993537700000003
ssg257
I00
sg258
(dp1703
g41
VCLG Snake Bite
p1704
sg43
Nssg262
(lp1705
sg264
(lp1706
sg266
I00
sg35
VPT2M27.9680005S
p1707
sg32
VDeath
p1708
sg269
I1
sa(dp1709
g38
I4096745987
sg32
VWeaponDrop
p1710
sg180
I2
sg44
(lp1711
I2758383128
asg35
VPT2M27.9690006S
p1712
sg183
I1
sg184
VP0DT0H0M6.7833S
p1713
sg39
(dp1714
g41
VCLG Snake Bite
p1715
sg43
Nssa(dp1716
g38
I313138863
sg32
VWeaponDrop
p1717
sg180
I0
sg44
(lp1718
I1095363701
asg35
VPT2M27.9700011S
p1719
sg183
I0
sg184
VP0DT0H0M0.6833S
p1720
sg39
(dp1721
g41
VCLG Snake Bite
p1722
sg43
Nssa(dp1723
g38
I313138863
sg39
(dp1724
g41
VE6 Shooter
p1725
sg43
Nssg44
(lp1726
I1095363701
asg32
VWeaponPickup
p1727
sg35
VPT2M28.0520011S
p1728
sa(dp1729
g38
I4096745987
sg39
(dp1730
g41
VE6 Shooter
p1731
sg43
Nssg44
(lp1732
I2758383128
asg32
VWeaponPickup
p1733
sg35
VPT2M28.0520011S
p1734
sa(dp1735
g32
VPlayerSpawn
p1736
sg39
(dp1737
g41
VE6 Shooter
p1738
sg43
Nssg35
VPT2M28.0520011S
p1739
sa(dp1740
g240
I3682788176
sg241
I00
sg242
I00
sg243
(dp1741
g41
VE6 Huke HCS
p1742
sg43
Nssg246
(lp1743
I2758383128
asg248
I00
sg249
I01
sg250
I1
sg251
I0
sg252
I1
sg253
(dp1744
Vy
F17.540174499999999
sVx
F-3.0328826900000001
sVz
F1.4995048
ssg255
(dp1745
Vy
F19.8594151
sVx
F4.2944620000000002
sVz
F-0.86325249999999998
ssg257
I00
sg258
(dp1746
g41
VCLG Royal 2
p1747
sg43
Nssg262
(lp1748
sg264
(lp1749
(dp1750
g41
VE6 Cratos HCS
p1751
sg43
Nsasg266
I00
sg35
VPT2M31.4180004S
p1752
sg32
VDeath
p1753
sg269
I1
sa(dp1754
g32
VMedal
p1755
sg39
(dp1756
g41
VE6 Huke HCS
p1757
sg43
Nssg274
I2078758684
sg35
VPT2M31.4190002S
p1758
sa(dp1759
g38
I4096745987
sg32
VWeaponDrop
p1760
sg180
I7
sg44
(lp1761
I2758383128
asg35
VPT2M31.4190002S
p1762
sg183
I1
sg184
VP0DT0H0M15.8167S
p1763
sg39
(dp1764
g41
VCLG Royal 2
p1765
sg43
Nssa(dp1766
g38
I313138863
sg32
VWeaponDrop
p1767
sg180
I0
sg44
(lp1768
I1095363701
asg35
VPT2M31.4200008S
p1769
sg183
I0
sg184
VP0DT0H0M0.8333S
p1770
sg39
(dp1771
g41
VCLG Royal 2
p1772
sg43
Nssa(dp1773
g32
VMedal
p1774
sg39
(dp1775
g41
VE6 bubu dubu
p1776
sg43
Nssg274
I2916014239
sg35
VPT2M31.7499989S
p1777
sa(dp1778
g38
I313138863
sg39
(dp1779
g41
VCLG LethuL HCS
p1780
sg43
Nssg44
(lp1781
I1095363701
asg32
VWeaponPickup
p1782
sg35
VPT2M33.8680009S
p1783
sa(dp1784
g38
I4096745987
sg39
(dp1785
g41
VCLG LethuL HCS
p1786
sg43
Nssg44
(lp1787
I2758383128
asg32
VWeaponPickup
p1788
sg35
VPT2M33.8680009S
p1789
sa(dp1790
g32
VPlayerSpawn
p1791
sg39
(dp1792
g41
VCLG LethuL HCS
p1793
sg43
Nssg35
VPT2M33.8680009S
p1794
sa(dp1795
g38
I313138863
sg39
(dp1796
g41
VCLG Snake Bite
p1797
sg43
Nssg44
(lp1798
I1095363701
asg32
VWeaponPickup
p1799
sg35
VPT2M35.9839999S
p1800
sa(dp1801
g38
I4096745987
sg39
(dp1802
g41
VCLG Snake Bite
p1803
sg43
Nssg44
(lp1804
I2758383128
asg32
VWeaponPickup
p1805
sg35
VPT2M35.985006S
p1806
sa(dp1807
g32
VPlayerSpawn
p1808
sg39
(dp1809
g41
VCLG Snake Bite
p1810
sg43
Nssg35
VPT2M35.985006S
p1811
sa(dp1812
g240
I4096745987
sg241
I00
sg242
I01
sg243
(dp1813
g41
VE6 Huke HCS
p1814
sg43
Nssg246
(lp1815
I2758383128
asg248
I00
sg249
I00
sg250
I1
sg251
I0
sg252
I1
sg253
(dp1816
Vy
F12.4107409
sVx
F-0.048956923200000002
sVz
F2.172615
ssg255
(dp1817
Vy
F12.256466899999999
sVx
F0.27398684600000001
sVz
F2.3786396999999999
ssg257
I00
sg258
(dp1818
g41
VCLG Frosty HCS
p1819
sg43
Nssg262
(lp1820
sg264
(lp1821
sg266
I00
sg35
VPT2M38.1679999S
p1822
sg32
VDeath
p1823
sg269
I1
sa(dp1824
g32
VMedal
p1825
sg39
(dp1826
g41
VE6 Huke HCS
p1827
sg43
Nssg274
I2287626681
sg35
VPT2M38.1690006S
p1828
sa(dp1829
g38
I4096745987
sg32
VWeaponDrop
p1830
sg180
I14
sg44
(lp1831
I2758383128
asg35
VPT2M38.1690006S
p1832
sg183
I8
sg184
VP0DT0H0M24.1500S
p1833
sg39
(dp1834
g41
VCLG Frosty HCS
p1835
sg43
Nssa(dp1836
g38
I313138863
sg32
VWeaponDrop
p1837
sg180
I0
sg44
(lp1838
I1095363701
asg35
VPT2M38.1700008S
p1839
sg183
I0
sg184
VP0DT0H0M7.2667S
p1840
sg39
(dp1841
g41
VCLG Frosty HCS
p1842
sg43
Nssa(dp1843
g38
I313138863
sg32
VWeaponDrop
p1844
sg180
I0
sg44
(lp1845
I1095363701
asg35
VPT2M38.5329993S
p1846
sg183
I0
sg184
VP0DT0H0M3.3167S
p1847
sg39
(dp1848
g41
VE6 bubu dubu
p1849
sg43
Nssa(dp1850
g38
I723388907
sg39
(dp1851
g41
VE6 bubu dubu
p1852
sg43
Nssg44
(lp1853
I89283061
asg32
VWeaponPickup
p1854
sg35
VPT2M38.5329993S
p1855
sa(dp1856
g240
I4096745987
sg241
I00
sg242
I00
sg243
(dp1857
g41
VCLG LethuL HCS
p1858
sg43
Nssg246
(lp1859
I2758383128
asg248
I00
sg249
I01
sg250
I1
sg251
I0
sg252
I1
sg253
(dp1860
Vy
F3.46367884
sVx
F-14.305262600000001
sVz
F-0.89674145000000005
ssg255
(dp1861
Vy
F12.7027178
sVx
F0.75538885600000005
sVz
F1.80540967
ssg257
I00
sg258
(dp1862
g41
VE6 Huke HCS
p1863
sg43
Nssg262
(lp1864
sg264
(lp1865
(dp1866
g41
VCLG Frosty HCS
p1867
sg43
Nsasg266
I01
sg35
VPT2M38.6510001S
p1868
sg32
VDeath
p1869
sg269
I1
sa(dp1870
g32
VMedal
p1871
sg39
(dp1872
g41
VCLG LethuL HCS
p1873
sg43
Nssg274
I3261908037
sg35
VPT2M38.6520001S
p1874
sa(dp1875
g38
I3682788176
sg32
VWeaponDrop
p1876
sg180
I2
sg44
(lp1877
I2758383128
asg35
VPT2M38.6520001S
p1878
sg183
I2
sg184
VP0DT0H0M13.8167S
p1879
sg39
(dp1880
g41
VE6 Huke HCS
p1881
sg43
Nssa(dp1882
g38
I3682788176
sg32
VWeaponDrop
p1883
sg180
I0
sg44
(lp1884
I2758383128
asg35
VPT2M38.6520001S
p1885
sg183
I0
sg184
VP0DT0S
p1886
sg39
(dp1887
g41
VE6 Huke HCS
p1888
sg43
Nssa(dp1889
g38
I4096745987
sg32
VWeaponDrop
p1890
sg180
I6
sg44
(lp1891
I2758383128
asg35
VPT2M38.6520001S
p1892
sg183
I3
sg184
VP0DT0H0M8.1667S
p1893
sg39
(dp1894
g41
VE6 Huke HCS
p1895
sg43
Nssa(dp1896
g38
I4096745987
sg32
VWeaponDrop
p1897
sg180
I0
sg44
(lp1898
I2758383128
asg35
VPT2M38.6520001S
p1899
sg183
I0
sg184
VP0DT0S
p1900
sg39
(dp1901
g41
VE6 Huke HCS
p1902
sg43
Nssa(dp1903
g32
VMedal
p1904
sg39
(dp1905
g41
VE6 Cratos HCS
p1906
sg43
Nssg274
I3565443938
sg35
VPT2M39.2670007S
p1907
sa(dp1908
g32
VMedal
p1909
sg39
(dp1910
g41
VE6 Cratos HCS
p1911
sg43
Nssg274
I2105198095
sg35
VPT2M39.2670007S
p1912
sa(dp1913
g32
VMedal
p1914
sg39
(dp1915
g41
VE6 Shooter
p1916
sg43
Nssg274
I2105198095
sg35
VPT2M39.2670007S
p1917
sa(dp1918
g32
VMedal
p1919
sg39
(dp1920
g41
VE6 bubu dubu
p1921
sg43
Nssg274
I2105198095
sg35
VPT2M39.2670007S
p1922
sa(dp1923
g32
VMedal
p1924
sg39
(dp1925
g41
VE6 Huke HCS
p1926
sg43
Nssg274
I2105198095
sg35
VPT2M39.2670007S
p1927
sa(dp1928
g38
I313138863
sg39
(dp1929
g41
VCLG Royal 2
p1930
sg43
Nssg44
(lp1931
I1095363701
asg32
VWeaponPickup
p1932
sg35
VPT2M39.4340003S
p1933
sa(dp1934
g38
I4096745987
sg39
(dp1935
g41
VCLG Royal 2
p1936
sg43
Nssg44
(lp1937
I2758383128
asg32
VWeaponPickup
p1938
sg35
VPT2M39.4350006S
p1939
sa(dp1940
g32
VPlayerSpawn
p1941
sg39
(dp1942
g41
VCLG Royal 2
p1943
sg43
Nssg35
VPT2M39.4350006S
p1944
sa(dp1945
g240
I4096745987
sg241
I00
sg242
I00
sg243
(dp1946
g41
VE6 Shooter
p1947
sg43
Nssg246
(lp1948
I2758383128
asg248
I00
sg249
I01
sg250
I1
sg251
I0
sg252
I1
sg253
(dp1949
Vy
F12.629060000000001
sVx
F-1.7634635000000001
sVz
F1.4982091200000001
ssg255
(dp1950
Vy
F5.0522026999999996
sVx
F-7.1448090000000004
sVz
F-0.0061190130000000004
ssg257
I00
sg258
(dp1951
g41
VCLG LethuL HCS
p1952
sg43
Nssg262
(lp1953
sg264
(lp1954
sg266
I01
sg35
VPT2M43.3340004S
p1955
sg32
VDeath
p1956
sg269
I1
sa(dp1957
g32
VMedal
p1958
sg39
(dp1959
g41
VE6 Cratos HCS
p1960
sg43
Nssg274
I824733727
sg35
VPT2M43.3350003S
p1961
sa(dp1962
g32
VMedal
p1963
sg39
(dp1964
g41
VE6 Shooter
p1965
sg43
Nssg274
I1618319591
sg35
VPT2M43.3350003S
p1966
sa(dp1967
g38
I313138863
sg32
VWeaponDrop
p1968
sg180
I0
sg44
(lp1969
I1095363701
asg35
VPT2M43.3360107S
p1970
sg183
I0
sg184
VP0DT0H0M0.8000S
p1971
sg39
(dp1972
g41
VCLG LethuL HCS
p1973
sg43
Nssa(dp1974
g38
I4096745987
sg32
VWeaponDrop
p1975
sg180
I8
sg44
(lp1976
I2758383128
asg35
VPT2M43.3360107S
p1977
sg183
I4
sg184
VP0DT0H0M8.6667S
p1978
sg39
(dp1979
g41
VCLG LethuL HCS
p1980
sg43
Nssa(dp1981
g240
I723388907
sg241
I00
sg242
I00
sg243
(dp1982
g41
VE6 bubu dubu
p1983
sg43
Nssg246
(lp1984
I89283061
asg248
I00
sg249
I01
sg250
I1
sg251
I0
sg252
I1
sg253
(dp1985
Vy
F2.6181621599999998
sVx
F-13.589165700000001
sVz
F-0.89675170000000004
ssg255
(dp1986
Vy
F2.4405030000000001
sVx
F-10.5206976
sVz
F-0.89676849999999997
ssg257
I00
sg258
(dp1987
g41
VCLG Snake Bite
p1988
sg43
Nssg262
(lp1989
sg264
(lp1990
(dp1991
g41
VE6 Shooter
p1992
sg43
Nsasg266
I00
sg35
VPT2M45.4010006S
p1993
sg32
VDeath
p1994
sg269
I1
sa(dp1995
g32
VMedal
p1996
sg39
(dp1997
g41
VE6 bubu dubu
p1998
sg43
Nssg274
I1351381581
sg35
VPT2M45.4020005S
p1999
sa(dp2000
g32
VMedal
p2001
sg39
(dp2002
g41
VE6 bubu dubu
p2003
sg43
Nssg274
I2916014239
sg35
VPT2M45.4020005S
p2004
sa(dp2005
g38
I313138863
sg32
VWeaponDrop
p2006
sg180
I0
sg44
(lp2007
I1095363701
asg35
VPT2M45.4020005S
p2008
sg183
I0
sg184
VP0DT0H0M0.6833S
p2009
sg39
(dp2010
g41
VCLG Snake Bite
p2011
sg43
Nssa(dp2012
g38
I4096745987
sg32
VWeaponDrop
p2013
sg180
I7
sg44
(lp2014
I2758383128
asg35
VPT2M45.4020005S
p2015
sg183
I1
sg184
VP0DT0H0M8.7333S
p2016
sg39
(dp2017
g41
VCLG Snake Bite
p2018
sg43
Nssa(dp2019
g38
I313138863
sg39
(dp2020
g41
VCLG Frosty HCS
p2021
sg43
Nssg44
(lp2022
I1095363701
asg32
VWeaponPickup
p2023
sg35
VPT2M46.1840006S
p2024
sa(dp2025
g38
I4096745987
sg39
(dp2026
g41
VCLG Frosty HCS
p2027
sg43
Nssg44
(lp2028
I2758383128
asg32
VWeaponPickup
p2029
sg35
VPT2M46.1840006S
p2030
sa(dp2031
g32
VPlayerSpawn
p2032
sg39
(dp2033
g41
VCLG Frosty HCS
p2034
sg43
Nssg35
VPT2M46.1850006S
p2035
sa(dp2036
g38
I4096745987
sg32
VWeaponDrop
p2037
sg180
I0
sg44
(lp2038
I2758383128
asg35
VPT2M46.3159989S
p2039
sg183
I0
sg184
VP0DT0H0M16.2333S
p2040
sg39
(dp2041
g41
VE6 bubu dubu
p2042
sg43
Nssa(dp2043
g38
I424645655
sg39
(dp2044
g41
VE6 bubu dubu
p2045
sg43
Nssg44
(lp2046
I1327094800
asg32
VWeaponPickup
p2047
sg35
VPT2M46.3159989S
p2048
sa(dp2049
g38
I313138863
sg39
(dp2050
g41
VE6 Huke HCS
p2051
sg43
Nssg44
(lp2052
I1095363701
asg32
VWeaponPickup
p2053
sg35
VPT2M46.668001S
p2054
sa(dp2055
g38
I4096745987
sg39
(dp2056
g41
VE6 Huke HCS
p2057
sg43
Nssg44
(lp2058
I2758383128
asg32
VWeaponPickup
p2059
sg35
VPT2M46.668001S
p2060
sa(dp2061
g32
VPlayerSpawn
p2062
sg39
(dp2063
g41
VE6 Huke HCS
p2064
sg43
Nssg35
VPT2M46.668001S
p2065
sa(dp2066
g240
I4106030681
sg241
I00
sg242
I00
sg243
(dp2067
g41
VCLG Royal 2
p2068
sg43
Nssg246
(lp2069
sg248
I00
sg249
I01
sg250
I1
sg251
I0
sg252
I1
sg253
(dp2070
Vy
F12.71006
sVx
F-10.84445
sVz
F1.4999657900000001
ssg255
(dp2071
Vy
F12.5062227
sVx
F-1.67335141
sVz
F1.4982091200000001
ssg257
I00
sg258
(dp2072
g41
VE6 Shooter
p2073
sg43
Nssg262
(lp2074
sg264
(lp2075
sg266
I00
sg35
VPT2M49.1170004S
p2076
sg32
VDeath
p2077
sg269
I1
sa(dp2078
g38
I313138863
sg32
VWeaponDrop
p2079
sg180
I0
sg44
(lp2080
I1095363701
asg35
VPT2M49.1179998S
p2081
sg183
I0
sg184
VP0DT0H0M7.5667S
p2082
sg39
(dp2083
g41
VE6 Shooter
p2084
sg43
Nssa(dp2085
g38
I4096745987
sg32
VWeaponDrop
p2086
sg180
I6
sg44
(lp2087
I2758383128
asg35
VPT2M49.1179998S
p2088
sg183
I5
sg184
VP0DT0H0M13.5000S
p2089
sg39
(dp2090
g41
VE6 Shooter
p2091
sg43
Nssa(dp2092
g38
I2492868984
sg39
(dp2093
g41
VE6 Cratos HCS
p2094
sg43
Nssg44
(lp2095
I2758383128
asg32
VWeaponPickup
p2096
sg35
VPT2M50.267001S
p2097
sa(dp2098
g38
I313138863
sg32
VWeaponDrop
p2099
sg180
I0
sg44
(lp2100
I1095363701
asg35
VPT2M51.1489987S
p2101
sg183
I0
sg184
VP0DT0H0M2.4667S
p2102
sg39
(dp2103
g41
VE6 Huke HCS
p2104
sg43
Nssa(dp2105
g38
I3682788176
sg39
(dp2106
g41
VE6 Huke HCS
p2107
sg43
Nssg44
(lp2108
I2758383128
asg32
VWeaponPickup
p2109
sg35
VPT2M51.1489987S
p2110
sa(dp2111
g38
I313138863
sg39
(dp2112
g41
VCLG LethuL HCS
p2113
sg43
Nssg44
(lp2114
I1095363701
asg32
VWeaponPickup
p2115
sg35
VPT2M51.3510003S
p2116
sa(dp2117
g38
I4096745987
sg39
(dp2118
g41
VCLG LethuL HCS
p2119
sg43
Nssg44
(lp2120
I2758383128
asg32
VWeaponPickup
p2121
sg35
VPT2M51.3510003S
p2122
sa(dp2123
g32
VPlayerSpawn
p2124
sg39
(dp2125
g41
VCLG LethuL HCS
p2126
sg43
Nssg35
VPT2M51.3510003S
p2127
sa(dp2128
g38
I2492868984
sg32
VWeaponDrop
p2129
sg180
I0
sg44
(lp2130
I2758383128
asg35
VPT2M51.4339999S
p2131
sg183
I0
sg184
VP0DT0H0M1.0000S
p2132
sg39
(dp2133
g41
VE6 Cratos HCS
p2134
sg43
Nssa(dp2135
g240
I723388907
sg241
I00
sg242
I00
sg243
(dp2136
g41
VE6 bubu dubu
p2137
sg43
Nssg246
(lp2138
I89283061
asg248
I00
sg249
I01
sg250
I1
sg251
I0
sg252
I1
sg253
(dp2139
Vy
F15.3456993
sVx
F-9.6262749999999997
sVz
F1.4995212600000001
ssg255
(dp2140
Vy
F15.3331537
sVx
F-6.1216835999999999
sVz
F2.3516752699999999
ssg257
I00
sg258
(dp2141
g41
VCLG Royal 2
p2142
sg43
Nssg262
(lp2143
sg264
(lp2144
(dp2145
g41
VE6 Shooter
p2146
sg43
Nsasg266
I00
sg35
VPT2M53.401S
p2147
sg32
VDeath
p2148
sg269
I1
sa(dp2149
g38
I313138863
sg32
VWeaponDrop
p2150
sg180
I4
sg44
(lp2151
I1095363701
asg35
VPT2M53.403S
p2152
sg183
I2
sg184
VP0DT0H0M2.6667S
p2153
sg39
(dp2154
g41
VCLG Royal 2
p2155
sg43
Nssa(dp2156
g38
I4096745987
sg32
VWeaponDrop
p2157
sg180
I10
sg44
(lp2158
I2758383128
asg35
VPT2M53.403S
p2159
sg183
I5
sg184
VP0DT0H0M11.3000S
p2160
sg39
(dp2161
g41
VCLG Royal 2
p2162
sg43
Nssa(dp2163
g38
I313138863
sg39
(dp2164
g41
VCLG Snake Bite
p2165
sg43
Nssg44
(lp2166
I1095363701
asg32
VWeaponPickup
p2167
sg35
VPT2M53.4170002S
p2168
sa(dp2169
g38
I4096745987
sg39
(dp2170
g41
VCLG Snake Bite
p2171
sg43
Nssg44
(lp2172
I2758383128
asg32
VWeaponPickup
p2173
sg35
VPT2M53.4170002S
p2174
sa(dp2175
g32
VPlayerSpawn
p2176
sg39
(dp2177
g41
VCLG Snake Bite
p2178
sg43
Nssg35
VPT2M53.4170002S
p2179
sa(dp2180
g240
I424645655
sg241
I00
sg242
I00
sg243
(dp2181
g41
VE6 bubu dubu
p2182
sg43
Nssg246
(lp2183
I1327094800
asg248
I00
sg249
I01
sg250
I1
sg251
I0
sg252
I1
sg253
(dp2184
Vy
F14.868103
sVx
F-10.457800000000001
sVz
F1.4995212600000001
ssg255
(dp2185
Vy
F25.552510000000002
sVx
F-9.3393130000000006
sVz
F1.503374
ssg257
I00
sg258
(dp2186
g41
VCLG Frosty HCS
p2187
sg43
Nssg262
(lp2188
sg264
(lp2189
sg266
I01
sg35
VPT2M56.0670004S
p2190
sg32
VDeath
p2191
sg269
I1
sa(dp2192
g32
VImpulse
p2193
sg39
(dp2194
g41
VE6 bubu dubu
p2195
sg43
Nssg357
I3174430457
sg35
VPT2M56.0680003S
p2196
sa(dp2197
g32
VMedal
p2198
sg39
(dp2199
g41
VE6 bubu dubu
p2200
sg43
Nssg274
I1351381581
sg35
VPT2M56.0680003S
p2201
sa(dp2202
g32
VMedal
p2203
sg39
(dp2204
g41
VE6 bubu dubu
p2205
sg43
Nssg274
I1080468863
sg35
VPT2M56.0689998S
p2206
sa(dp2207
g32
VMedal
p2208
sg39
(dp2209
g41
VE6 bubu dubu
p2210
sg43
Nssg274
I2078758684
sg35
VPT2M56.0689998S
p2211
sa(dp2212
g38
I313138863
sg32
VWeaponDrop
p2213
sg180
I0
sg44
(lp2214
I1095363701
asg35
VPT2M56.0700002S
p2215
sg183
I0
sg184
VP0DT0H0M0.7000S
p2216
sg39
(dp2217
g41
VCLG Frosty HCS
p2218
sg43
Nssa(dp2219
g38
I4096745987
sg32
VWeaponDrop
p2220
sg180
I0
sg44
(lp2221
I2758383128
asg35
VPT2M56.0700002S
p2222
sg183
I0
sg184
VP0DT0H0M9.1833S
p2223
sg39
(dp2224
g41
VCLG Frosty HCS
p2225
sg43
Nssa(dp2226
g38
I313138863
sg39
(dp2227
g41
VE6 Shooter
p2228
sg43
Nssg44
(lp2229
I1095363701
asg32
VWeaponPickup
p2230
sg35
VPT2M57.1340008S
p2231
sa(dp2232
g38
I4096745987
sg39
(dp2233
g41
VE6 Shooter
p2234
sg43
Nssg44
(lp2235
I2758383128
asg32
VWeaponPickup
p2236
sg35
VPT2M57.1340008S
p2237
sa(dp2238
g32
VPlayerSpawn
p2239
sg39
(dp2240
g41
VE6 Shooter
p2241
sg43
Nssg35
VPT2M57.1340008S
p2242
sa(dp2243
g32
VMedal
p2244
sg39
(dp2245
g41
VCLG LethuL HCS
p2246
sg43
Nssg274
I3565443938
sg35
VPT3M1.1330001S
p2247
sa(dp2248
g32
VMedal
p2249
sg39
(dp2250
g41
VCLG Snake Bite
p2251
sg43
Nssg274
I3565443938
sg35
VPT3M1.1330001S
p2252
sa(dp2253
g38
I313138863
sg39
(dp2254
g41
VCLG Royal 2
p2255
sg43
Nssg44
(lp2256
I1095363701
asg32
VWeaponPickup
p2257
sg35
VPT3M1.4170006S
p2258
sa(dp2259
g38
I4096745987
sg39
(dp2260
g41
VCLG Royal 2
p2261
sg43
Nssg44
(lp2262
I2758383128
asg32
VWeaponPickup
p2263
sg35
VPT3M1.4170006S
p2264
sa(dp2265
g32
VPlayerSpawn
p2266
sg39
(dp2267
g41
VCLG Royal 2
p2268
sg43
Nssg35
VPT3M1.4170006S
p2269
sa(dp2270
g32
VMedal
p2271
sg39
(dp2272
g41
VE6 Huke HCS
p2273
sg43
Nssg274
I2916014239
sg35
VPT3M2.8819986S
p2274
sa(dp2275
g38
I313138863
sg39
(dp2276
g41
VCLG Frosty HCS
p2277
sg43
Nssg44
(lp2278
I1095363701
asg32
VWeaponPickup
p2279
sg35
VPT3M4.0840005S
p2280
sa(dp2281
g38
I4096745987
sg39
(dp2282
g41
VCLG Frosty HCS
p2283
sg43
Nssg44
(lp2284
I2758383128
asg32
VWeaponPickup
p2285
sg35
VPT3M4.0840005S
p2286
sa(dp2287
g32
VPlayerSpawn
p2288
sg39
(dp2289
g41
VCLG Frosty HCS
p2290
sg43
Nssg35
VPT3M4.0840005S
p2291
sa(dp2292
g240
I313138863
sg241
I00
sg242
I01
sg243
(dp2293
g41
VE6 Shooter
p2294
sg43
Nssg246
(lp2295
I1095363701
asg248
I00
sg249
I00
sg250
I1
sg251
I0
sg252
I1
sg253
(dp2296
Vy
F-0.96454640000000003
sVx
F-1.8715921600000001
sVz
F0.30537545700000002
ssg255
(dp2297
Vy
F-1.0564626500000001
sVx
F-2.0188496100000002
sVz
F0.31145709999999999
ssg257
I00
sg258
(dp2298
g41
VCLG LethuL HCS
p2299
sg43
Nssg262
(lp2300
sg264
(lp2301
sg266
I00
sg35
VPT3M7.9670001S
p2302
sg32
VDeath
p2303
sg269
I1
sa(dp2304
g32
VMedal
p2305
sg39
(dp2306
g41
VE6 Shooter
p2307
sg43
Nssg274
I250435527
sg35
VPT3M7.9670001S
p2308
sa(dp2309
g38
I4096745987
sg32
VWeaponDrop
p2310
sg180
I4
sg44
(lp2311
I2758383128
asg35
VPT3M7.9680004S
p2312
sg183
I2
sg184
VP0DT0H0M15.9000S
p2313
sg39
(dp2314
g41
VCLG LethuL HCS
p2315
sg43
Nssa(dp2316
g38
I4096745987
sg32
VWeaponDrop
p2317
sg180
I0
sg44
(lp2318
I2758383128
asg35
VPT3M7.9680004S
p2319
sg183
I0
sg184
VP0DT0S
p2320
sg39
(dp2321
g41
VCLG LethuL HCS
p2322
sg43
Nssa(dp2323
g38
I313138863
sg32
VWeaponDrop
p2324
sg180
I0
sg44
(lp2325
I1095363701
asg35
VPT3M7.9680004S
p2326
sg183
I0
sg184
VP0DT0H0M0.7167S
p2327
sg39
(dp2328
g41
VCLG LethuL HCS
p2329
sg43
Nssa(dp2330
g240
I313138863
sg241
I00
sg242
I00
sg243
(dp2331
g41
VCLG Royal 2
p2332
sg43
Nssg246
(lp2333
I1095363701
asg248
I00
sg249
I01
sg250
I1
sg251
I0
sg252
I1
sg253
(dp2334
Vy
F-0.86729889999999998
sVx
F-1.8817577400000001
sVz
F2.7016856699999998
ssg255
(dp2335
Vy
F2.9646003200000002
sVx
F2.2592654200000002
sVz
F1.31860518
ssg257
I00
sg258
(dp2336
g41
VE6 Shooter
p2337
sg43
Nssg262
(lp2338
sg264
(lp2339
(dp2340
g41
VCLG LethuL HCS
p2341
sg43
Nsasg266
I00
sg35
VPT3M10.1330007S
p2342
sg32
VDeath
p2343
sg269
I1
sa(dp2344
g38
I313138863
sg32
VWeaponDrop
p2345
sg180
I14
sg44
(lp2346
I1095363701
asg35
VPT3M10.1340005S
p2347
sg183
I8
sg184
VP0DT0H0M8.3833S
p2348
sg39
(dp2349
g41
VE6 Shooter
p2350
sg43
Nssa(dp2351
g38
I313138863
sg32
VWeaponDrop
p2352
sg180
I0
sg44
(lp2353
I1095363701
asg35
VPT3M10.1340005S
p2354
sg183
I0
sg184
VP0DT0S
p2355
sg39
(dp2356
g41
VE6 Shooter
p2357
sg43
Nssa(dp2358
g38
I4096745987
sg32
VWeaponDrop
p2359
sg180
I0
sg44
(lp2360
I2758383128
asg35
VPT3M10.1340005S
p2361
sg183
I0
sg184
VP0DT0H0M4.6167S
p2362
sg39
(dp2363
g41
VE6 Shooter
p2364
sg43
Nssa(dp2365
g240
I4096745987
sg241
I00
sg242
I00
sg243
(dp2366
g41
VCLG Frosty HCS
p2367
sg43
Nssg246
(lp2368
I2758383128
asg248
I00
sg249
I01
sg250
I1
sg251
I0
sg252
I1
sg253
(dp2369
Vy
F21.972940000000001
sVx
F5.0394019999999999
sVz
F2.2355432500000001
ssg255
(dp2370
Vy
F16.802997600000001
sVx
F5.5226480000000002
sVz
F2.3919739999999998
ssg257
I00
sg258
(dp2371
g41
VE6 Huke HCS
p2372
sg43
Nssg262
(lp2373
sg264
(lp2374
sg266
I01
sg35
VPT3M10.1989994S
p2375
sg32
VDeath
p2376
sg269
I1
sa(dp2377
g32
VImpulse
p2378
sg39
(dp2379
g41
VCLG Frosty HCS
p2380
sg43
Nssg357
I3174430457
sg35
VPT3M10.2009999S
p2381
sa(dp2382
g32
VMedal
p2383
sg39
(dp2384
g41
VCLG Frosty HCS
p2385
sg43
Nssg274
I3653057799
sg35
VPT3M10.2009999S
p2386
sa(dp2387
g38
I3682788176
sg32
VWeaponDrop
p2388
sg180
I1
sg44
(lp2389
I2758383128
asg35
VPT3M10.2019999S
p2390
sg183
I0
sg184
VP0DT0H0M15.7167S
p2391
sg39
(dp2392
g41
VE6 Huke HCS
p2393
sg43
Nssa(dp2394
g38
I4096745987
sg32
VWeaponDrop
p2395
sg180
I0
sg44
(lp2396
I2758383128
asg35
VPT3M10.2019999S
p2397
sg183
I0
sg184
VP0DT0H0M5.3500S
p2398
sg39
(dp2399
g41
VE6 Huke HCS
p2400
sg43
Nssa(dp2401
g240
I3682788176
sg241
I00
sg242
I00
sg243
(dp2402
g41
VE6 Huke HCS
p2403
sg43
Nssg246
(lp2404
I2758383128
asg248
I00
sg249
I01
sg250
I1
sg251
I0
sg252
I1
sg253
(dp2405
Vy
F16.9049187
sVx
F5.53002167
sVz
F2.4683568500000002
ssg255
(dp2406
Vy
F21.917165799999999
sVx
F5.2206044199999999
sVz
F2.27525735
ssg257
I00
sg258
(dp2407
g41
VCLG Frosty HCS
p2408
sg43
Nssg262
(lp2409
sg264
(lp2410
sg266
I00
sg35
VPT3M10.2490006S
p2411
sg32
VDeath
p2412
sg269
I1
sa(dp2413
g38
I313138863
sg32
VWeaponDrop
p2414
sg180
I0
sg44
(lp2415
I1095363701
asg35
VPT3M10.2500009S
p2416
sg183
I0
sg184
VP0DT0H0M0.9833S
p2417
sg39
(dp2418
g41
VCLG Frosty HCS
p2419
sg43
Nssa(dp2420
g38
I4096745987
sg32
VWeaponDrop
p2421
sg180
I6
sg44
(lp2422
I2758383128
asg35
VPT3M10.2500009S
p2423
sg183
I5
sg184
VP0DT0H0M5.1833S
p2424
sg39
(dp2425
g41
VCLG Frosty HCS
p2426
sg43
Nssa(dp2427
g240
I424645655
sg241
I00
sg242
I00
sg243
(dp2428
g41
VE6 bubu dubu
p2429
sg43
Nssg246
(lp2430
I1327094800
asg248
I00
sg249
I01
sg250
I1
sg251
I0
sg252
I1
sg253
(dp2431
Vy
F15.6488686
sVx
F-9.6964039999999994
sVz
F1.4995212600000001
ssg255
(dp2432
Vy
F23.36673
sVx
F-9.0546120000000005
sVz
F1.5033741
ssg257
I00
sg258
(dp2433
g41
VCLG Snake Bite
p2434
sg43
Nssg262
(lp2435
sg264
(lp2436
sg266
I01
sg35
VPT3M13.5660005S
p2437
sg32
VDeath
p2438
sg269
I1
sa(dp2439
g32
VImpulse
p2440
sg39
(dp2441
g41
VE6 bubu dubu
p2442
sg43
Nssg357
I3174430457
sg35
VPT3M13.5670005S
p2443
sa(dp2444
g32
VMedal
p2445
sg39
(dp2446
g41
VE6 bubu dubu
p2447
sg43
Nssg274
I1080468863
sg35
VPT3M13.5680001S
p2448
sa(dp2449
g38
I313138863
sg32
VWeaponDrop
p2450
sg180
I0
sg44
(lp2451
I1095363701
asg35
VPT3M13.5689998S
p2452
sg183
I0
sg184
VP0DT0H0M10.8833S
p2453
sg39
(dp2454
g41
VCLG Snake Bite
p2455
sg43
Nssa(dp2456
g38
I4096745987
sg32
VWeaponDrop
p2457
sg180
I0
sg44
(lp2458
I2758383128
asg35
VPT3M13.5689998S
p2459
sg183
I0
sg184
VP0DT0H0M9.2667S
p2460
sg39
(dp2461
g41
VCLG Snake Bite
p2462
sg43
Nssa(dp2463
g38
I313138863
sg39
(dp2464
g41
VCLG LethuL HCS
p2465
sg43
Nssg44
(lp2466
I1095363701
asg32
VWeaponPickup
p2467
sg35
VPT3M15.9830011S
p2468
sa(dp2469
g38
I4096745987
sg39
(dp2470
g41
VCLG LethuL HCS
p2471
sg43
Nssg44
(lp2472
I2758383128
asg32
VWeaponPickup
p2473
sg35
VPT3M15.9830011S
p2474
sa(dp2475
g32
VPlayerSpawn
p2476
sg39
(dp2477
g41
VCLG LethuL HCS
p2478
sg43
Nssg35
VPT3M15.9830011S
p2479
sa(dp2480
g240
I424645655
sg241
I00
sg242
I00
sg243
(dp2481
g41
VE6 Cratos HCS
p2482
sg43
Nssg246
(lp2483
I1327094800
asg248
I00
sg249
I01
sg250
I1
sg251
I0
sg252
I1
sg253
(dp2484
Vy
F4.0921692800000002
sVx
F7.017353
sVz
F-0.22209526600000001
ssg255
(dp2485
Vy
F10.7549829
sVx
F3.3318059999999998
sVz
F-0.89672946899999995
ssg257
I00
sg258
(dp2486
g41
VCLG Royal 2
p2487
sg43
Nssg262
(lp2488
sg264
(lp2489
sg266
I01
sg35
VPT3M17.5160005S
p2490
sg32
VDeath
p2491
sg269
I1
sa(dp2492
g32
VMedal
p2493
sg39
(dp2494
g41
VE6 Cratos HCS
p2495
sg43
Nssg274
I1351381581
sg35
VPT3M17.5170001S
p2496
sa(dp2497
g32
VMedal
p2498
sg39
(dp2499
g41
VE6 Cratos HCS
p2500
sg43
Nssg274
I3261908037
sg35
VPT3M17.5170001S
p2501
sa(dp2502
g38
I313138863
sg32
VWeaponDrop
p2503
sg180
I7
sg44
(lp2504
I1095363701
asg35
VPT3M17.5180008S
p2505
sg183
I3
sg184
VP0DT0H0M4.4000S
p2506
sg39
(dp2507
g41
VCLG Royal 2
p2508
sg43
Nssa(dp2509
g38
I4096745987
sg32
VWeaponDrop
p2510
sg180
I1
sg44
(lp2511
I2758383128
asg35
VPT3M17.5180008S
p2512
sg183
I0
sg184
VP0DT0H0M11.7000S
p2513
sg39
(dp2514
g41
VCLG Royal 2
p2515
sg43
Nssa(dp2516
g38
I313138863
sg39
(dp2517
g41
VE6 Shooter
p2518
sg43
Nssg44
(lp2519
I1095363701
asg32
VWeaponPickup
p2520
sg35
VPT3M18.1500067S
p2521
sa(dp2522
g38
I4096745987
sg39
(dp2523
g41
VE6 Shooter
p2524
sg43
Nssg44
(lp2525
I2758383128
asg32
VWeaponPickup
p2526
sg35
VPT3M18.1500067S
p2527
sa(dp2528
g32
VPlayerSpawn
p2529
sg39
(dp2530
g41
VE6 Shooter
p2531
sg43
Nssg35
VPT3M18.1500067S
p2532
sa(dp2533
g38
I313138863
sg39
(dp2534
g41
VE6 Huke HCS
p2535
sg43
Nssg44
(lp2536
I1095363701
asg32
VWeaponPickup
p2537
sg35
VPT3M18.2160008S
p2538
sa(dp2539
g38
I4096745987
sg39
(dp2540
g41
VE6 Huke HCS
p2541
sg43
Nssg44
(lp2542
I2758383128
asg32
VWeaponPickup
p2543
sg35
VPT3M18.2160008S
p2544
sa(dp2545
g32
VPlayerSpawn
p2546
sg39
(dp2547
g41
VE6 Huke HCS
p2548
sg43
Nssg35
VPT3M18.2160008S
p2549
sa(dp2550
g38
I313138863
sg39
(dp2551
g41
VCLG Frosty HCS
p2552
sg43
Nssg44
(lp2553
I1095363701
asg32
VWeaponPickup
p2554
sg35
VPT3M18.2660008S
p2555
sa(dp2556
g38
I4096745987
sg39
(dp2557
g41
VCLG Frosty HCS
p2558
sg43
Nssg44
(lp2559
I2758383128
asg32
VWeaponPickup
p2560
sg35
VPT3M18.2660008S
p2561
sa(dp2562
g32
VPlayerSpawn
p2563
sg39
(dp2564
g41
VCLG Frosty HCS
p2565
sg43
Nssg35
VPT3M18.2660008S
p2566
sa(dp2567
g38
I313138863
sg39
(dp2568
g41
VCLG Snake Bite
p2569
sg43
Nssg44
(lp2570
I1095363701
asg32
VWeaponPickup
p2571
sg35
VPT3M21.5830004S
p2572
sa(dp2573
g38
I4096745987
sg39
(dp2574
g41
VCLG Snake Bite
p2575
sg43
Nssg44
(lp2576
I2758383128
asg32
VWeaponPickup
p2577
sg35
VPT3M21.5840004S
p2578
sa(dp2579
g32
VPlayerSpawn
p2580
sg39
(dp2581
g41
VCLG Snake Bite
p2582
sg43
Nssg35
VPT3M21.5840004S
p2583
sa(dp2584
g38
I313138863
sg39
(dp2585
g41
VCLG Royal 2
p2586
sg43
Nssg44
(lp2587
I1095363701
asg32
VWeaponPickup
p2588
sg35
VPT3M25.5330006S
p2589
sa(dp2590
g38
I4096745987
sg39
(dp2591
g41
VCLG Royal 2
p2592
sg43
Nssg44
(lp2593
I2758383128
asg32
VWeaponPickup
p2594
sg35
VPT3M25.5330006S
p2595
sa(dp2596
g32
VPlayerSpawn
p2597
sg39
(dp2598
g41
VCLG Royal 2
p2599
sg43
Nssg35
VPT3M25.5330006S
p2600
sa(dp2601
g38
I313138863
sg32
VWeaponDrop
p2602
sg180
I11
sg44
(lp2603
I1095363701
asg35
VPT3M26.3809984S
p2604
sg183
I4
sg184
VP0DT0H0M4.2667S
p2605
sg39
(dp2606
g41
VE6 Huke HCS
p2607
sg43
Nssa(dp2608
g38
I3682788176
sg39
(dp2609
g41
VE6 Huke HCS
p2610
sg43
Nssg44
(lp2611
I2758383128
asg32
VWeaponPickup
p2612
sg35
VPT3M26.3809984S
p2613
sa(dp2614
g240
I3682788176
sg241
I00
sg242
I00
sg243
(dp2615
g41
VE6 Huke HCS
p2616
sg43
Nssg246
(lp2617
I2758383128
asg248
I00
sg249
I01
sg250
I1
sg251
I0
sg252
I1
sg253
(dp2618
Vy
F19.192754699999998
sVx
F4.1041083299999999
sVz
F2.35093117
ssg255
(dp2619
Vy
F22.8836212
sVx
F7.7461120000000001
sVz
F1.2539499999999999
ssg257
I00
sg258
(dp2620
g41
VCLG LethuL HCS
p2621
sg43
Nssg262
(lp2622
sg264
(lp2623
sg266
I00
sg35
VPT3M28.2990006S
p2624
sg32
VDeath
p2625
sg269
I1
sa(dp2626
g38
I313138863
sg32
VWeaponDrop
p2627
sg180
I15
sg44
(lp2628
I1095363701
asg35
VPT3M28.3000005S
p2629
sg183
I4
sg184
VP0DT0H0M3.9833S
p2630
sg39
(dp2631
g41
VCLG LethuL HCS
p2632
sg43
Nssa(dp2633
g38
I4096745987
sg32
VWeaponDrop
p2634
sg180
I6
sg44
(lp2635
I2758383128
asg35
VPT3M28.3000005S
p2636
sg183
I2
sg184
VP0DT0H0M8.3333S
p2637
sg39
(dp2638
g41
VCLG LethuL HCS
p2639
sg43
Nssa(dp2640
g240
I313138863
sg241
I00
sg242
I00
sg243
(dp2641
g41
VCLG Frosty HCS
p2642
sg43
Nssg246
(lp2643
I1095363701
asg248
I00
sg249
I01
sg250
I1
sg251
I0
sg252
I1
sg253
(dp2644
Vy
F15.425486599999999
sVx
F4.2065763499999997
sVz
F2.2305681700000002
ssg255
(dp2645
Vy
F20.9370689
sVx
F2.6201095599999999
sVz
F-0.89672255499999998
ssg257
I00
sg258
(dp2646
g41
VE6 Huke HCS
p2647
sg43
Nssg262
(lp2648
sg264
(lp2649
(dp2650
g41
VCLG LethuL HCS
p2651
sg43
Nsasg266
I00
sg35
VPT3M30.0650006S
p2652
sg32
VDeath
p2653
sg269
I1
sa(dp2654
g38
I3682788176
sg32
VWeaponDrop
p2655
sg180
I1
sg44
(lp2656
I2758383128
asg35
VPT3M30.067S
p2657
sg183
I1
sg184
VP0DT0H0M3.6833S
p2658
sg39
(dp2659
g41
VE6 Huke HCS
p2660
sg43
Nssa(dp2661
g38
I3682788176
sg32
VWeaponDrop
p2662
sg180
I0
sg44
(lp2663
I2758383128
asg35
VPT3M30.067S
p2664
sg183
I0
sg184
VP0DT0S
p2665
sg39
(dp2666
g41
VE6 Huke HCS
p2667
sg43
Nssa(dp2668
g38
I4096745987
sg32
VWeaponDrop
p2669
sg180
I4
sg44
(lp2670
I2758383128
asg35
VPT3M30.067S
p2671
sg183
I3
sg184
VP0DT0H0M3.9000S
p2672
sg39
(dp2673
g41
VE6 Huke HCS
p2674
sg43
Nssa(dp2675
g240
I313138863
sg241
I00
sg242
I00
sg243
(dp2676
g41
VCLG Royal 2
p2677
sg43
Nssg246
(lp2678
I1095363701
asg248
I00
sg249
I01
sg250
I1
sg251
I0
sg252
I1
sg253
(dp2679
Vy
F4.8128204300000004
sVx
F-17.15795
sVz
F1.5012302399999999
ssg255
(dp2680
Vy
F2.1483864800000001
sVx
F-13.497795099999999
sVz
F-0.89675593399999998
ssg257
I00
sg258
(dp2681
g41
VE6 bubu dubu
p2682
sg43
Nssg262
(lp2683
sg264
(lp2684
sg266
I00
sg35
VPT3M30.3330009S
p2685
sg32
VDeath
p2686
sg269
I1
sa(dp2687
g32
VMedal
p2688
sg39
(dp2689
g41
VCLG Royal 2
p2690
sg43
Nssg274
I1351381581
sg35
VPT3M30.3340001S
p2691
sa(dp2692
g38
I723388907
sg32
VWeaponDrop
p2693
sg180
I53
sg44
(lp2694
I89283061
asg35
VPT3M30.3350104S
p2695
sg183
I19
sg184
VP0DT0H0M22.7833S
p2696
sg39
(dp2697
g41
VE6 bubu dubu
p2698
sg43
Nssa(dp2699
g38
I424645655
sg32
VWeaponDrop
p2700
sg180
I30
sg44
(lp2701
I1327094800
asg35
VPT3M30.3350104S
p2702
sg183
I22
sg184
VP0DT0H0M28.8333S
p2703
sg39
(dp2704
g41
VE6 bubu dubu
p2705
sg43
Nssa(dp2706
g240
I424645655
sg241
I00
sg242
I00
sg243
(dp2707
g41
VE6 Cratos HCS
p2708
sg43
Nssg246
(lp2709
I1327094800
asg248
I00
sg249
I01
sg250
I1
sg251
I0
sg252
I1
sg253
(dp2710
Vy
F4.3410450000000003
sVx
F-12.8756447
sVz
F-0.89674160000000003
ssg255
(dp2711
Vy
F4.9060726199999998
sVx
F-17.7427387
sVz
F2.466844
ssg257
I00
sg258
(dp2712
g41
VCLG Royal 2
p2713
sg43
Nssg262
(lp2714
sg264
(lp2715
(dp2716
g41
VE6 bubu dubu
p2717
sg43
Nsasg266
I00
sg35
VPT3M30.9320006S
p2718
sg32
VDeath
p2719
sg269
I1
sa(dp2720
g38
I313138863
sg32
VWeaponDrop
p2721
sg180
I22
sg44
(lp2722
I1095363701
asg35
VPT3M30.9340002S
p2723
sg183
I15
sg184
VP0DT0H0M3.0667S
p2724
sg39
(dp2725
g41
VCLG Royal 2
p2726
sg43
Nssa(dp2727
g38
I4096745987
sg32
VWeaponDrop
p2728
sg180
I0
sg44
(lp2729
I2758383128
asg35
VPT3M30.9340002S
p2730
sg183
I0
sg184
VP0DT0H0M2.3333S
p2731
sg39
(dp2732
g41
VCLG Royal 2
p2733
sg43
Nssa(dp2734
g32
VMedal
p2735
sg39
(dp2736
g41
VE6 Cratos HCS
p2737
sg43
Nssg274
I3565443938
sg35
VPT3M33.6310089S
p2738
sa(dp2739
g32
VMedal
p2740
sg39
(dp2741
g41
VE6 Cratos HCS
p2742
sg43
Nssg274
I2105198095
sg35
VPT3M33.6310089S
p2743
sa(dp2744
g32
VMedal
p2745
sg39
(dp2746
g41
VE6 Shooter
p2747
sg43
Nssg274
I2105198095
sg35
VPT3M33.6310089S
p2748
sa(dp2749
g32
VMedal
p2750
sg39
(dp2751
g41
VE6 bubu dubu
p2752
sg43
Nssg274
I2105198095
sg35
VPT3M33.6310089S
p2753
sa(dp2754
g32
VMedal
p2755
sg39
(dp2756
g41
VE6 Huke HCS
p2757
sg43
Nssg274
I2105198095
sg35
VPT3M33.6310089S
p2758
sa(dp2759
g32
VMedal
p2760
sg39
(dp2761
g41
VE6 bubu dubu
p2762
sg43
Nssg274
I1637841390
sg35
VPT3M33.6310089S
p2763
sa(dp2764
g32
VMedal
p2765
sg39
(dp2766
g41
VCLG Snake Bite
p2767
sg43
Nssg274
I3565443938
sg35
VPT3M33.7479999S
p2768
sa(dp2769
g32
VMedal
p2770
sg39
(dp2771
g41
VCLG Royal 2
p2772
sg43
Nssg274
I1637841390
sg35
VPT3M33.7479999S
p2773
sa(dp2774
g38
I313138863
sg39
(dp2775
g41
VCLG LethuL HCS
p2776
sg43
Nssg44
(lp2777
I1095363701
asg32
VWeaponPickup
p2778
sg35
VPT3M36.3160005S
p2779
sa(dp2780
g38
I4096745987
sg39
(dp2781
g41
VCLG LethuL HCS
p2782
sg43
Nssg44
(lp2783
I2758383128
asg32
VWeaponPickup
p2784
sg35
VPT3M36.3160005S
p2785
sa(dp2786
g32
VPlayerSpawn
p2787
sg39
(dp2788
g41
VCLG LethuL HCS
p2789
sg43
Nssg35
VPT3M36.3160005S
p2790
sa(dp2791
g38
I313138863
sg39
(dp2792
g41
VE6 Huke HCS
p2793
sg43
Nssg44
(lp2794
I1095363701
asg32
VWeaponPickup
p2795
sg35
VPT3M38.0820008S
p2796
sa(dp2797
g38
I4096745987
sg39
(dp2798
g41
VE6 Huke HCS
p2799
sg43
Nssg44
(lp2800
I2758383128
asg32
VWeaponPickup
p2801
sg35
VPT3M38.0820008S
p2802
sa(dp2803
g32
VPlayerSpawn
p2804
sg39
(dp2805
g41
VE6 Huke HCS
p2806
sg43
Nssg35
VPT3M38.0820008S
p2807
sa(dp2808
g38
I313138863
sg39
(dp2809
g41
VE6 bubu dubu
p2810
sg43
Nssg44
(lp2811
I1095363701
asg32
VWeaponPickup
p2812
sg35
VPT3M38.3490007S
p2813
sa(dp2814
g38
I4096745987
sg39
(dp2815
g41
VE6 bubu dubu
p2816
sg43
Nssg44
(lp2817
I2758383128
asg32
VWeaponPickup
p2818
sg35
VPT3M38.3490007S
p2819
sa(dp2820
g32
VPlayerSpawn
p2821
sg39
(dp2822
g41
VE6 bubu dubu
p2823
sg43
Nssg35
VPT3M38.3490007S
p2824
sa(dp2825
g38
I313138863
sg39
(dp2826
g41
VCLG Royal 2
p2827
sg43
Nssg44
(lp2828
I1095363701
asg32
VWeaponPickup
p2829
sg35
VPT3M38.9490009S
p2830
sa(dp2831
g38
I4096745987
sg39
(dp2832
g41
VCLG Royal 2
p2833
sg43
Nssg44
(lp2834
I2758383128
asg32
VWeaponPickup
p2835
sg35
VPT3M38.9490009S
p2836
sa(dp2837
g32
VPlayerSpawn
p2838
sg39
(dp2839
g41
VCLG Royal 2
p2840
sg43
Nssg35
VPT3M38.9490009S
p2841
sa(dp2842
g38
I4096745987
sg32
VWeaponDrop
p2843
sg180
I0
sg44
(lp2844
I2758383128
asg35
VPT3M39.7639988S
p2845
sg183
I0
sg184
VP0DT0H0M0.6167S
p2846
sg39
(dp2847
g41
VE6 bubu dubu
p2848
sg43
Nssa(dp2849
g38
I424645655
sg39
(dp2850
g41
VE6 bubu dubu
p2851
sg43
Nssg44
(lp2852
I1327094800
asg32
VWeaponPickup
p2853
sg35
VPT3M39.7639988S
p2854
sa(dp2855
g240
I313138863
sg241
I00
sg242
I00
sg243
(dp2856
g41
VE6 Shooter
p2857
sg43
Nssg246
(lp2858
I1095363701
asg248
I00
sg249
I01
sg250
I1
sg251
I0
sg252
I1
sg253
(dp2859
Vy
F0.94079136799999996
sVx
F5.94604731
sVz
F0.30555713200000001
ssg255
(dp2860
Vy
F5.9066634200000001
sVx
F6.3075094199999997
sVz
F-0.89673256899999998
ssg257
I00
sg258
(dp2861
g41
VCLG Frosty HCS
p2862
sg43
Nssg262
(lp2863
sg264
(lp2864
sg266
I00
sg35
VPT3M44.8980004S
p2865
sg32
VDeath
p2866
sg269
I1
sa(dp2867
g38
I313138863
sg32
VWeaponDrop
p2868
sg180
I36
sg44
(lp2869
I1095363701
asg35
VPT3M44.8999998S
p2870
sg183
I11
sg184
VP0DT0H0M13.1000S
p2871
sg39
(dp2872
g41
VCLG Frosty HCS
p2873
sg43
Nssa(dp2874
g38
I4096745987
sg32
VWeaponDrop
p2875
sg180
I6
sg44
(lp2876
I2758383128
asg35
VPT3M44.8999998S
p2877
sg183
I3
sg184
VP0DT0H0M13.5333S
p2878
sg39
(dp2879
g41
VCLG Frosty HCS
p2880
sg43
Nssa(dp2881
g240
I4106030681
sg241
I00
sg242
I00
sg243
(dp2882
g41
VE6 Cratos HCS
p2883
sg43
Nssg246
(lp2884
sg248
I00
sg249
I01
sg250
I1
sg251
I0
sg252
I1
sg253
(dp2885
Vy
F14.0207157
sVx
F-2.5682344399999999
sVz
F1.4995212600000001
ssg255
(dp2886
Vy
F27.334589999999999
sVx
F-11.466074000000001
sVz
F1.5034242900000001
ssg257
I00
sg258
(dp2887
g41
VCLG LethuL HCS
p2888
sg43
Nssg262
(lp2889
sg264
(lp2890
(dp2891
g41
VE6 bubu dubu
p2892
sg43
Nsasg266
I00
sg35
VPT3M46.3661301S
p2893
sg32
VDeath
p2894
sg269
I1
sa(dp2895
g32
VMedal
p2896
sg39
(dp2897
g41
VE6 Cratos HCS
p2898
sg43
Nssg274
I1351381581
sg35
VPT3M46.367003S
p2899
sa(dp2900
g32
VMedal
p2901
sg39
(dp2902
g41
VE6 Cratos HCS
p2903
sg43
Nssg274
I3491849182
sg35
VPT3M46.367003S
p2904
sa(dp2905
g32
VMedal
p2906
sg39
(dp2907
g41
VE6 Cratos HCS
p2908
sg43
Nssg274
I2430242797
sg35
VPT3M46.367003S
p2909
sa(dp2910
g38
I313138863
sg32
VWeaponDrop
p2911
sg180
I0
sg44
(lp2912
I1095363701
asg35
VPT3M46.3680005S
p2913
sg183
I0
sg184
VP0DT0H0M0.6667S
p2914
sg39
(dp2915
g41
VCLG LethuL HCS
p2916
sg43
Nssa(dp2917
g38
I4096745987
sg32
VWeaponDrop
p2918
sg180
I4
sg44
(lp2919
I2758383128
asg35
VPT3M46.3680005S
p2920
sg183
I1
sg184
VP0DT0H0M9.3833S
p2921
sg39
(dp2922
g41
VCLG LethuL HCS
p2923
sg43
Nssa(dp2924
g240
I424645655
sg241
I00
sg242
I00
sg243
(dp2925
g41
VE6 Cratos HCS
p2926
sg43
Nssg246
(lp2927
I1327094800
asg248
I00
sg249
I01
sg250
I1
sg251
I0
sg252
I1
sg253
(dp2928
Vy
F14.5770664
sVx
F-2.9980030000000002
sVz
F1.4995212600000001
ssg255
(dp2929
Vy
F23.5772057
sVx
F-10.0360336
sVz
F2.0848503100000002
ssg257
I00
sg258
(dp2930
g41
VCLG Snake Bite
p2931
sg43
Nssg262
(lp2932
sg264
(lp2933
(dp2934
g41
VE6 Huke HCS
p2935
sg43
Nsasg266
I01
sg35
VPT3M46.8810003S
p2936
sg32
VDeath
p2937
sg269
I1
sa(dp2938
g32
VMedal
p2939
sg39
(dp2940
g41
VE6 bubu dubu
p2941
sg43
Nssg274
I824733727
sg35
VPT3M46.8820007S
p2942
sa(dp2943
g32
VMedal
p2944
sg39
(dp2945
g41
VE6 Cratos HCS
p2946
sg43
Nssg274
I3261908037
sg35
VPT3M46.8829999S
p2947
sa(dp2948
g32
VMedal
p2949
sg39
(dp2950
g41
VE6 Cratos HCS
p2951
sg43
Nssg274
I2078758684
sg35
VPT3M46.8829999S
p2952
sa(dp2953
g38
I313138863
sg32
VWeaponDrop
p2954
sg180
I8
sg44
(lp2955
I1095363701
asg35
VPT3M46.8829999S
p2956
sg183
I5
sg184
VP0DT0H0M4.6833S
p2957
sg39
(dp2958
g41
VCLG Snake Bite
p2959
sg43
Nssa(dp2960
g38
I4096745987
sg32
VWeaponDrop
p2961
sg180
I6
sg44
(lp2962
I2758383128
asg35
VPT3M46.8829999S
p2963
sg183
I3
sg184
VP0DT0H0M20.6167S
p2964
sg39
(dp2965
g41
VCLG Snake Bite
p2966
sg43
Nssa(dp2967
g240
I424645655
sg241
I00
sg242
I00
sg243
(dp2968
g41
VE6 bubu dubu
p2969
sg43
Nssg246
(lp2970
I1327094800
asg248
I00
sg249
I01
sg250
I1
sg251
I0
sg252
I1
sg253
(dp2971
Vy
F14.0046854
sVx
F-10.2557507
sVz
F1.4995212600000001
ssg255
(dp2972
Vy
F14.9487162
sVx
F-5.5080657000000004
sVz
F1.81106663
ssg257
I00
sg258
(dp2973
g41
VCLG Royal 2
p2974
sg43
Nssg262
(lp2975
sg264
(lp2976
(dp2977
g41
VE6 Cratos HCS
p2978
sg43
Nsasg266
I01
sg35
VPT3M49.648S
p2979
sg32
VDeath
p2980
sg269
I1
sa(dp2981
g32
VMedal
p2982
sg39
(dp2983
g41
VE6 bubu dubu
p2984
sg43
Nssg274
I2838259753
sg35
VPT3M49.648S
p2985
sa(dp2986
g32
VImpulse
p2987
sg39
(dp2988
g41
VE6 bubu dubu
p2989
sg43
Nssg357
I2556889090
sg35
VPT3M49.648S
p2990
sa(dp2991
g32
VMedal
p2992
sg39
(dp2993
g41
VE6 Huke HCS
p2994
sg43
Nssg274
I824733727
sg35
VPT3M49.648S
p2995
sa(dp2996
g32
VMedal
p2997
sg39
(dp2998
g41
VE6 bubu dubu
p2999
sg43
Nssg274
I3261908037
sg35
VPT3M49.6490005S
p3000
sa(dp3001
g38
I313138863
sg32
VWeaponDrop
p3002
sg180
I20
sg44
(lp3003
I1095363701
asg35
VPT3M49.65S
p3004
sg183
I9
sg184
VP0DT0H0M4.5833S
p3005
sg39
(dp3006
g41
VCLG Royal 2
p3007
sg43
Nssa(dp3008
g38
I4096745987
sg32
VWeaponDrop
p3009
sg180
I3
sg44
(lp3010
I2758383128
asg35
VPT3M49.65S
p3011
sg183
I1
sg184
VP0DT0H0M6.1167S
p3012
sg39
(dp3013
g41
VCLG Royal 2
p3014
sg43
Nssa(dp3015
g32
VMedal
p3016
sg39
(dp3017
g41
VE6 Huke HCS
p3018
sg43
Nssg274
I2916014239
sg35
VPT3M51.3799983S
p3019
sa(dp3020
g38
I313138863
sg39
(dp3021
g41
VCLG Frosty HCS
p3022
sg43
Nssg44
(lp3023
I1095363701
asg32
VWeaponPickup
p3024
sg35
VPT3M52.9150006S
p3025
sa(dp3026
g38
I4096745987
sg39
(dp3027
g41
VCLG Frosty HCS
p3028
sg43
Nssg44
(lp3029
I2758383128
asg32
VWeaponPickup
p3030
sg35
VPT3M52.9150006S
p3031
sa(dp3032
g32
VPlayerSpawn
p3033
sg39
(dp3034
g41
VCLG Frosty HCS
p3035
sg43
Nssg35
VPT3M52.9150006S
p3036
sa(dp3037
g38
I313138863
sg39
(dp3038
g41
VCLG LethuL HCS
p3039
sg43
Nssg44
(lp3040
I1095363701
asg32
VWeaponPickup
p3041
sg35
VPT3M54.3810007S
p3042
sa(dp3043
g38
I4096745987
sg39
(dp3044
g41
VCLG LethuL HCS
p3045
sg43
Nssg44
(lp3046
I2758383128
asg32
VWeaponPickup
p3047
sg35
VPT3M54.3820009S
p3048
sa(dp3049
g32
VPlayerSpawn
p3050
sg39
(dp3051
g41
VCLG LethuL HCS
p3052
sg43
Nssg35
VPT3M54.3820009S
p3053
sa(dp3054
g38
I313138863
sg39
(dp3055
g41
VCLG Snake Bite
p3056
sg43
Nssg44
(lp3057
I1095363701
asg32
VWeaponPickup
p3058
sg35
VPT3M54.8980011S
p3059
sa(dp3060
g38
I4096745987
sg39
(dp3061
g41
VCLG Snake Bite
p3062
sg43
Nssg44
(lp3063
I2758383128
asg32
VWeaponPickup
p3064
sg35
VPT3M54.8980011S
p3065
sa(dp3066
g32
VPlayerSpawn
p3067
sg39
(dp3068
g41
VCLG Snake Bite
p3069
sg43
Nssg35
VPT3M54.8980011S
p3070
sa(dp3071
g38
I313138863
sg32
VWeaponDrop
p3072
sg180
I0
sg44
(lp3073
I1095363701
asg35
VPT3M56.5969997S
p3074
sg183
I0
sg184
VP0DT0H0M4.5333S
p3075
sg39
(dp3076
g41
VE6 bubu dubu
p3077
sg43
Nssa(dp3078
g38
I723388907
sg39
(dp3079
g41
VE6 bubu dubu
p3080
sg43
Nssg44
(lp3081
I89283061
asg32
VWeaponPickup
p3082
sg35
VPT3M56.5969997S
p3083
sa(dp3084
g38
I313138863
sg39
(dp3085
g41
VCLG Royal 2
p3086
sg43
Nssg44
(lp3087
I1095363701
asg32
VWeaponPickup
p3088
sg35
VPT3M57.6650011S
p3089
sa(dp3090
g38
I4096745987
sg39
(dp3091
g41
VCLG Royal 2
p3092
sg43
Nssg44
(lp3093
I2758383128
asg32
VWeaponPickup
p3094
sg35
VPT3M57.6650011S
p3095
sa(dp3096
g32
VPlayerSpawn
p3097
sg39
(dp3098
g41
VCLG Royal 2
p3099
sg43
Nssg35
VPT3M57.6650011S
p3100
sa(dp3101
g32
VMedal
p3102
sg39
(dp3103
g41
VE6 Shooter
p3104
sg43
Nssg274
I3565443938
sg35
VPT3M59.8799991S
p3105
sa(dp3106
g32
VMedal
p3107
sg39
(dp3108
g41
VE6 Cratos HCS
p3109
sg43
Nssg274
I3565443938
sg35
VPT3M59.8799991S
p3110
sa(dp3111
g32
VMedal
p3112
sg39
(dp3113
g41
VE6 Cratos HCS
p3114
sg43
Nssg274
I2105198095
sg35
VPT3M59.8799991S
p3115
sa(dp3116
g32
VMedal
p3117
sg39
(dp3118
g41
VE6 Shooter
p3119
sg43
Nssg274
I2105198095
sg35
VPT3M59.8799991S
p3120
sa(dp3121
g32
VMedal
p3122
sg39
(dp3123
g41
VE6 bubu dubu
p3124
sg43
Nssg274
I2105198095
sg35
VPT3M59.8799991S
p3125
sa(dp3126
g32
VMedal
p3127
sg39
(dp3128
g41
VE6 Huke HCS
p3129
sg43
Nssg274
I2105198095
sg35
VPT3M59.8799991S
p3130
sa(dp3131
g32
VMedal
p3132
sg39
(dp3133
g41
VE6 Cratos HCS
p3134
sg43
Nssg274
I3354395650
sg35
VPT3M59.8799991S
p3135
sa(dp3136
g38
I3808094875
sg32
VWeaponDrop
p3137
sg180
I40
sg44
(lp3138
I2758383128
asg35
VPT4M1.6299997S
p3139
sg183
I18
sg184
VP0DT0H0M50.8667S
p3140
sg39
(dp3141
g41
VE6 Cratos HCS
p3142
sg43
Nssa(dp3143
g38
I313138863
sg39
(dp3144
g41
VE6 Cratos HCS
p3145
sg43
Nssg44
(lp3146
I1095363701
asg32
VWeaponPickup
p3147
sg35
VPT4M1.6299997S
p3148
sa(dp3149
g240
I723388907
sg241
I00
sg242
I00
sg243
(dp3150
g41
VE6 bubu dubu
p3151
sg43
Nssg246
(lp3152
I89283061
asg248
I00
sg249
I01
sg250
I1
sg251
I0
sg252
I1
sg253
(dp3153
Vy
F8.2186699999999995
sVx
F-18.16272
sVz
F-0.15453459999999999
ssg255
(dp3154
Vy
F3.42926836
sVx
F-15.945252399999999
sVz
F-0.89673346300000001
ssg257
I00
sg258
(dp3155
g41
VCLG Royal 2
p3156
sg43
Nssg262
(lp3157
sg264
(lp3158
(dp3159
g41
VE6 Shooter
p3160
sg43
Nsasg266
I00
sg35
VPT4M3.8150007S
p3161
sg32
VDeath
p3162
sg269
I1
sa(dp3163
g32
VMedal
p3164
sg39
(dp3165
g41
VE6 bubu dubu
p3166
sg43
Nssg274
I2838259753
sg35
VPT4M3.8150007S
p3167
sa(dp3168
g32
VImpulse
p3169
sg39
(dp3170
g41
VE6 bubu dubu
p3171
sg43
Nssg357
I2556889090
sg35
VPT4M3.8150007S
p3172
sa(dp3173
g38
I313138863
sg32
VWeaponDrop
p3174
sg180
I0
sg44
(lp3175
I1095363701
asg35
VPT4M3.8170004S
p3176
sg183
I0
sg184
VP0DT0H0M0.8000S
p3177
sg39
(dp3178
g41
VCLG Royal 2
p3179
sg43
Nssa(dp3180
g38
I4096745987
sg32
VWeaponDrop
p3181
sg180
I7
sg44
(lp3182
I2758383128
asg35
VPT4M3.8170004S
p3183
sg183
I4
sg184
VP0DT0H0M5.3500S
p3184
sg39
(dp3185
g41
VCLG Royal 2
p3186
sg43
Nssa(dp3187
g240
I4106030681
sg241
I00
sg242
I00
sg243
(dp3188
g41
VCLG LethuL HCS
p3189
sg43
Nssg246
(lp3190
sg248
I00
sg249
I01
sg250
I1
sg251
I0
sg252
I1
sg253
(dp3191
Vy
F1.98610234
sVx
F-8.4039490000000008
sVz
F-0.89678290000000005
ssg255
(dp3192
Vy
F12.740668299999999
sVx
F0.14366668499999999
sVz
F-0.89672839999999998
ssg257
I00
sg258
(dp3193
g41
VE6 Shooter
p3194
sg43
Nssg262
(lp3195
sg264
(lp3196
(dp3197
g41
VCLG Royal 2
p3198
sg43
Nsasg266
I00
sg35
VPT4M5.7640005S
p3199
sg32
VDeath
p3200
sg269
I1
sa(dp3201
g38
I313138863
sg32
VWeaponDrop
p3202
sg180
I19
sg44
(lp3203
I1095363701
asg35
VPT4M5.7650004S
p3204
sg183
I13
sg184
VP0DT0H0M15.3167S
p3205
sg39
(dp3206
g41
VE6 Shooter
p3207
sg43
Nssa(dp3208
g38
I4096745987
sg32
VWeaponDrop
p3209
sg180
I18
sg44
(lp3210
I2758383128
asg35
VPT4M5.7650004S
p3211
sg183
I10
sg184
VP0DT0H0M32.3000S
p3212
sg39
(dp3213
g41
VE6 Shooter
p3214
sg43
Nssa(dp3215
g240
I4106030681
sg241
I00
sg242
I00
sg243
(dp3216
g41
VCLG LethuL HCS
p3217
sg43
Nssg246
(lp3218
sg248
I00
sg249
I01
sg250
I1
sg251
I0
sg252
I1
sg253
(dp3219
Vy
F2.0341399999999998
sVx
F-9.0683880000000006
sVz
F-0.61319553900000001
ssg255
(dp3220
Vy
F16.306964900000001
sVx
F-10.8514395
sVz
F-0.89672320000000005
ssg257
I00
sg258
(dp3221
g41
VE6 Huke HCS
p3222
sg43
Nssg262
(lp3223
sg264
(lp3224
(dp3225
g41
VCLG Frosty HCS
p3226
sg43
Nsasg266
I00
sg35
VPT4M6.6310006S
p3227
sg32
VDeath
p3228
sg269
I1
sa(dp3229
g32
VMedal
p3230
sg39
(dp3231
g41
VCLG LethuL HCS
p3232
sg43
Nssg274
I352859864
sg35
VPT4M6.6310006S
p3233
sa(dp3234
g32
VImpulse
p3235
sg39
(dp3236
g41
VCLG LethuL HCS
p3237
sg43
Nssg357
I2556889090
sg35
VPT4M6.6310006S
p3238
sa(dp3239
g32
VMedal
p3240
sg39
(dp3241
g41
VCLG LethuL HCS
p3242
sg43
Nssg274
I2078758684
sg35
VPT4M6.6320005S
p3243
sa(dp3244
g38
I313138863
sg32
VWeaponDrop
p3245
sg180
I0
sg44
(lp3246
I1095363701
asg35
VPT4M6.6330006S
p3247
sg183
I0
sg184
VP0DT0H0M1.5500S
p3248
sg39
(dp3249
g41
VE6 Huke HCS
p3250
sg43
Nssa(dp3251
g38
I4096745987
sg32
VWeaponDrop
p3252
sg180
I8
sg44
(lp3253
I2758383128
asg35
VPT4M6.6330006S
p3254
sg183
I4
sg184
VP0DT0H0M27.0000S
p3255
sg39
(dp3256
g41
VE6 Huke HCS
p3257
sg43
Nssa(dp3258
g240
I4096745987
sg241
I00
sg242
I00
sg243
(dp3259
g41
VCLG Snake Bite
p3260
sg43
Nssg246
(lp3261
I2758383128
asg248
I00
sg249
I01
sg250
I1
sg251
I0
sg252
I1
sg253
(dp3262
Vy
F1.2639091
sVx
F-12.7928143
sVz
F-0.36023402199999999
ssg255
(dp3263
Vy
F5.7794747400000004
sVx
F-15.178345699999999
sVz
F-0.89673000000000003
ssg257
I00
sg258
(dp3264
g41
VE6 bubu dubu
p3265
sg43
Nssg262
(lp3266
sg264
(lp3267
(dp3268
g41
VCLG Frosty HCS
p3269
sg43
Nsasg266
I01
sg35
VPT4M6.9299996S
p3270
sg32
VDeath
p3271
sg269
I1
sa(dp3272
g32
VMedal
p3273
sg39
(dp3274
g41
VCLG Snake Bite
p3275
sg43
Nssg274
I3261908037
sg35
VPT4M6.9320003S
p3276
sa(dp3277
g38
I723388907
sg32
VWeaponDrop
p3278
sg180
I39
sg44
(lp3279
I89283061
asg35
VPT4M6.9320003S
p3280
sg183
I9
sg184
VP0DT0H0M5.8000S
p3281
sg39
(dp3282
g41
VE6 bubu dubu
p3283
sg43
Nssa(dp3284
g38
I424645655
sg32
VWeaponDrop
p3285
sg180
I12
sg44
(lp3286
I1327094800
asg35
VPT4M6.9330015S
p3287
sg183
I6
sg184
VP0DT0H0M17.6333S
p3288
sg39
(dp3289
g41
VE6 bubu dubu
p3290
sg43
Nssa(dp3291
g32
VMedal
p3292
sg39
(dp3293
g41
VCLG Snake Bite
p3294
sg43
Nssg274
I3565443938
sg35
VPT4M7.4959986S
p3295
sa(dp3296
g32
VMedal
p3297
sg39
(dp3298
g41
VCLG LethuL HCS
p3299
sg43
Nssg274
I3565443938
sg35
VPT4M7.4959986S
p3300
sa(dp3301
g32
VMedal
p3302
sg39
(dp3303
g41
VCLG Frosty HCS
p3304
sg43
Nssg274
I1637841390
sg35
VPT4M7.4970005S
p3305
sa(dp3306
g32
VMedal
p3307
sg39
(dp3308
g41
VCLG Royal 2
p3309
sg43
Nssg274
I1637841390
sg35
VPT4M7.4970005S
p3310
sa(dp3311
g240
I424645655
sg241
I00
sg242
I01
sg243
(dp3312
g41
VE6 Cratos HCS
p3313
sg43
Nssg246
(lp3314
I1327094800
asg248
I00
sg249
I00
sg250
I1
sg251
I0
sg252
I1
sg253
(dp3315
Vy
F2.0946410000000002
sVx
F-6.4548199999999998
sVz
F0.28787289999999999
ssg255
(dp3316
Vy
F2.3823692799999998
sVx
F-6.7280745499999997
sVz
F0.28781699999999999
ssg257
I00
sg258
(dp3317
g41
VCLG LethuL HCS
p3318
sg43
Nssg262
(lp3319
sg264
(lp3320
sg266
I00
sg35
VPT4M9.4140042S
p3321
sg32
VDeath
p3322
sg269
I1
sa(dp3323
g32
VMedal
p3324
sg39
(dp3325
g41
VE6 Cratos HCS
p3326
sg43
Nssg274
I2287626681
sg35
VPT4M9.4149999S
p3327
sa(dp3328
g38
I4096745987
sg32
VWeaponDrop
p3329
sg180
I0
sg44
(lp3330
I2758383128
asg35
VPT4M9.4149999S
p3331
sg183
I0
sg184
VP0DT0H0M12.6167S
p3332
sg39
(dp3333
g41
VCLG LethuL HCS
p3334
sg43
Nssa(dp3335
g38
I313138863
sg32
VWeaponDrop
p3336
sg180
I0
sg44
(lp3337
I1095363701
asg35
VPT4M9.4160012S
p3338
sg183
I0
sg184
VP0DT0H0M2.4167S
p3339
sg39
(dp3340
g41
VCLG LethuL HCS
p3341
sg43
Nssa(dp3342
g38
I313138863
sg39
(dp3343
g41
VCLG Royal 2
p3344
sg43
Nssg44
(lp3345
I1095363701
asg32
VWeaponPickup
p3346
sg35
VPT4M11.8310011S
p3347
sa(dp3348
g38
I4096745987
sg39
(dp3349
g41
VCLG Royal 2
p3350
sg43
Nssg44
(lp3351
I2758383128
asg32
VWeaponPickup
p3352
sg35
VPT4M11.8310011S
p3353
sa(dp3354
g32
VPlayerSpawn
p3355
sg39
(dp3356
g41
VCLG Royal 2
p3357
sg43
Nssg35
VPT4M11.8310011S
p3358
sa(dp3359
g240
I313138863
sg241
I00
sg242
I00
sg243
(dp3360
g41
VE6 Cratos HCS
p3361
sg43
Nssg246
(lp3362
I1095363701
asg248
I00
sg249
I01
sg250
I1
sg251
I0
sg252
I1
sg253
(dp3363
Vy
F-1.0485721800000001
sVx
F-1.3157460000000001
sVz
F0.60282760000000002
ssg255
(dp3364
Vy
F1.36909926
sVx
F0.4442662
sVz
F0.305549562
ssg257
I00
sg258
(dp3365
g41
VCLG Frosty HCS
p3366
sg43
Nssg262
(lp3367
sg264
(lp3368
sg266
I00
sg35
VPT4M13.2629993S
p3369
sg32
VDeath
p3370
sg269
I1
sa(dp3371
g32
VMedal
p3372
sg39
(dp3373
g41
VE6 Cratos HCS
p3374
sg43
Nssg274
I2078758684
sg35
VPT4M13.2640006S
p3375
sa(dp3376
g38
I313138863
sg32
VWeaponDrop
p3377
sg180
I0
sg44
(lp3378
I1095363701
asg35
VPT4M13.2650003S
p3379
sg183
I0
sg184
VP0DT0H0M2.3500S
p3380
sg39
(dp3381
g41
VCLG Frosty HCS
p3382
sg43
Nssa(dp3383
g38
I4096745987
sg32
VWeaponDrop
p3384
sg180
I15
sg44
(lp3385
I2758383128
asg35
VPT4M13.2650003S
p3386
sg183
I9
sg184
VP0DT0H0M18.0000S
p3387
sg39
(dp3388
g41
VCLG Frosty HCS
p3389
sg43
Nssa(dp3390
g38
I313138863
sg39
(dp3391
g41
VE6 Shooter
p3392
sg43
Nssg44
(lp3393
I1095363701
asg32
VWeaponPickup
p3394
sg35
VPT4M13.7810008S
p3395
sa(dp3396
g38
I4096745987
sg39
(dp3397
g41
VE6 Shooter
p3398
sg43
Nssg44
(lp3399
I2758383128
asg32
VWeaponPickup
p3400
sg35
VPT4M13.7810008S
p3401
sa(dp3402
g32
VPlayerSpawn
p3403
sg39
(dp3404
g41
VE6 Shooter
p3405
sg43
Nssg35
VPT4M13.7810008S
p3406
sa(dp3407
g38
I313138863
sg39
(dp3408
g41
VE6 Huke HCS
p3409
sg43
Nssg44
(lp3410
I1095363701
asg32
VWeaponPickup
p3411
sg35
VPT4M14.6470006S
p3412
sa(dp3413
g38
I4096745987
sg39
(dp3414
g41
VE6 Huke HCS
p3415
sg43
Nssg44
(lp3416
I2758383128
asg32
VWeaponPickup
p3417
sg35
VPT4M14.6480009S
p3418
sa(dp3419
g32
VPlayerSpawn
p3420
sg39
(dp3421
g41
VE6 Huke HCS
p3422
sg43
Nssg35
VPT4M14.6480009S
p3423
sa(dp3424
g38
I313138863
sg39
(dp3425
g41
VE6 bubu dubu
p3426
sg43
Nssg44
(lp3427
I1095363701
asg32
VWeaponPickup
p3428
sg35
VPT4M14.9470007S
p3429
sa(dp3430
g38
I4096745987
sg39
(dp3431
g41
VE6 bubu dubu
p3432
sg43
Nssg44
(lp3433
I2758383128
asg32
VWeaponPickup
p3434
sg35
VPT4M14.9470007S
p3435
sa(dp3436
g32
VPlayerSpawn
p3437
sg39
(dp3438
g41
VE6 bubu dubu
p3439
sg43
Nssg35
VPT4M14.9480008S
p3440
sa(dp3441
g38
I313138863
sg39
(dp3442
g41
VCLG LethuL HCS
p3443
sg43
Nssg44
(lp3444
I1095363701
asg32
VWeaponPickup
p3445
sg35
VPT4M17.4300003S
p3446
sa(dp3447
g38
I4096745987
sg39
(dp3448
g41
VCLG LethuL HCS
p3449
sg43
Nssg44
(lp3450
I2758383128
asg32
VWeaponPickup
p3451
sg35
VPT4M17.4310011S
p3452
sa(dp3453
g32
VPlayerSpawn
p3454
sg39
(dp3455
g41
VCLG LethuL HCS
p3456
sg43
Nssg35
VPT4M17.4310011S
p3457
sa(dp3458
g38
I313138863
sg32
VWeaponDrop
p3459
sg180
I0
sg44
(lp3460
I1095363701
asg35
VPT4M18.3460003S
p3461
sg183
I0
sg184
VP0DT0H0M6.3333S
p3462
sg39
(dp3463
g41
VCLG Snake Bite
p3464
sg43
Nssa(dp3465
g38
I3682788176
sg39
(dp3466
g41
VCLG Snake Bite
p3467
sg43
Nssg44
(lp3468
I2758383128
asg32
VWeaponPickupPad
p3469
sg35
VPT4M18.3460003S
p3470
sa(dp3471
g38
I3682788176
sg39
(dp3472
g41
VCLG Snake Bite
p3473
sg43
Nssg44
(lp3474
I2758383128
asg32
VWeaponPickup
p3475
sg35
VPT4M18.3460003S
p3476
sa(dp3477
g240
I4096745987
sg241
I00
sg242
I00
sg243
(dp3478
g41
VCLG LethuL HCS
p3479
sg43
Nssg246
(lp3480
I2758383128
asg248
I00
sg249
I01
sg250
I1
sg251
I0
sg252
I1
sg253
(dp3481
Vy
F15.999867399999999
sVx
F-12.2290449
sVz
F-0.88267649999999998
ssg255
(dp3482
Vy
F18.487106300000001
sVx
F-1.48610675
sVz
F2.2777626500000001
ssg257
I00
sg258
(dp3483
g41
VE6 Shooter
p3484
sg43
Nssg262
(lp3485
sg264
(lp3486
(dp3487
g41
VCLG Royal 2
p3488
sg43
Nsasg266
I01
sg35
VPT4M20.5129998S
p3489
sg32
VDeath
p3490
sg269
I1
sa(dp3491
g32
VMedal
p3492
sg39
(dp3493
g41
VCLG LethuL HCS
p3494
sg43
Nssg274
I2838259753
sg35
VPT4M20.5129998S
p3495
sa(dp3496
g32
VImpulse
p3497
sg39
(dp3498
g41
VCLG LethuL HCS
p3499
sg43
Nssg357
I2556889090
sg35
VPT4M20.5129998S
p3500
sa(dp3501
g32
VMedal
p3502
sg39
(dp3503
g41
VCLG LethuL HCS
p3504
sg43
Nssg274
I3261908037
sg35
VPT4M20.515S
p3505
sa(dp3506
g38
I313138863
sg32
VWeaponDrop
p3507
sg180
I0
sg44
(lp3508
I1095363701
asg35
VPT4M20.515S
p3509
sg183
I0
sg184
VP0DT0H0M1.3167S
p3510
sg39
(dp3511
g41
VE6 Shooter
p3512
sg43
Nssa(dp3513
g38
I4096745987
sg32
VWeaponDrop
p3514
sg180
I5
sg44
(lp3515
I2758383128
asg35
VPT4M20.515S
p3516
sg183
I3
sg184
VP0DT0H0M5.4167S
p3517
sg39
(dp3518
g41
VE6 Shooter
p3519
sg43
Nssa(dp3520
g38
I313138863
sg39
(dp3521
g41
VCLG Frosty HCS
p3522
sg43
Nssg44
(lp3523
I1095363701
asg32
VWeaponPickup
p3524
sg35
VPT4M21.2800009S
p3525
sa(dp3526
g38
I4096745987
sg39
(dp3527
g41
VCLG Frosty HCS
p3528
sg43
Nssg44
(lp3529
I2758383128
asg32
VWeaponPickup
p3530
sg35
VPT4M21.2810003S
p3531
sa(dp3532
g32
VPlayerSpawn
p3533
sg39
(dp3534
g41
VCLG Frosty HCS
p3535
sg43
Nssg35
VPT4M21.2810003S
p3536
sa(dp3537
g38
I313138863
sg32
VWeaponDrop
p3538
sg180
I0
sg44
(lp3539
I1095363701
asg35
VPT4M21.9119984S
p3540
sg183
I0
sg184
VP0DT0H0M3.4500S
p3541
sg39
(dp3542
g41
VE6 bubu dubu
p3543
sg43
Nssa(dp3544
g38
I3808094875
sg39
(dp3545
g41
VE6 bubu dubu
p3546
sg43
Nssg44
(lp3547
I2758383128
asg32
VWeaponPickup
p3548
sg35
VPT4M21.9119984S
p3549
sa(dp3550
g240
I3682788176
sg241
I00
sg242
I00
sg243
(dp3551
g41
VCLG Snake Bite
p3552
sg43
Nssg246
(lp3553
I2758383128
asg248
I00
sg249
I01
sg250
I1
sg251
I0
sg252
I1
sg253
(dp3554
Vy
F4.4332404099999998
sVx
F-2.8436806200000002
sVz
F3.5034754299999999
ssg255
(dp3555
Vy
F5.0831080000000002
sVx
F-6.4824614499999997
sVz
F-0.89639849999999999
ssg257
I00
sg258
(dp3556
g41
VE6 Cratos HCS
p3557
sg43
Nssg262
(lp3558
sg264
(lp3559
(dp3560
g41
VCLG Frosty HCS
p3561
sg43
Nsasg266
I00
sg35
VPT4M23.5459999S
p3562
sg32
VDeath
p3563
sg269
I1
sa(dp3564
g38
I313138863
sg32
VWeaponDrop
p3565
sg180
I18
sg44
(lp3566
I1095363701
asg35
VPT4M23.5479998S
p3567
sg183
I9
sg184
VP0DT0H0M10.6833S
p3568
sg39
(dp3569
g41
VE6 Cratos HCS
p3570
sg43
Nssa(dp3571
g38
I424645655
sg32
VWeaponDrop
p3572
sg180
I84
sg44
(lp3573
I1327094800
asg35
VPT4M23.5479998S
p3574
sg183
I40
sg184
VP0DT0H1M14.2333S
p3575
sg39
(dp3576
g41
VE6 Cratos HCS
p3577
sg43
Nssa(dp3578
g38
I424645655
sg32
VWeaponDrop
p3579
sg180
I0
sg44
(lp3580
I1327094800
asg35
VPT4M23.5479998S
p3581
sg183
I0
sg184
VP0DT0S
p3582
sg39
(dp3583
g41
VE6 Cratos HCS
p3584
sg43
Nssa(dp3585
g240
I3682788176
sg241
I00
sg242
I00
sg243
(dp3586
g41
VCLG Snake Bite
p3587
sg43
Nssg246
(lp3588
I2758383128
asg248
I00
sg249
I01
sg250
I1
sg251
I0
sg252
I1
sg253
(dp3589
Vy
F14.423209999999999
sVx
F-3.5233218700000002
sVz
F1.4995212600000001
ssg255
(dp3590
Vy
F26.7613564
sVx
F-7.8245372800000004
sVz
F1.2401982499999999
ssg257
I00
sg258
(dp3591
g41
VE6 Huke HCS
p3592
sg43
Nssg262
(lp3593
sg264
(lp3594
(dp3595
g41
VCLG Royal 2
p3596
sg43
Nsasg266
I00
sg35
VPT4M27.3960004S
p3597
sg32
VDeath
p3598
sg269
I1
sa(dp3599
g32
VMedal
p3600
sg39
(dp3601
g41
VCLG Snake Bite
p3602
sg43
Nssg274
I2078758684
sg35
VPT4M27.3970002S
p3603
sa(dp3604
g38
I4096745987
sg32
VWeaponDrop
p3605
sg180
I7
sg44
(lp3606
I2758383128
asg35
VPT4M27.3980001S
p3607
sg183
I6
sg184
VP0DT0H0M8.6167S
p3608
sg39
(dp3609
g41
VE6 Huke HCS
p3610
sg43
Nssa(dp3611
g38
I313138863
sg32
VWeaponDrop
p3612
sg180
I0
sg44
(lp3613
I1095363701
asg35
VPT4M27.3980001S
p3614
sg183
I0
sg184
VP0DT0H0M4.1333S
p3615
sg39
(dp3616
g41
VE6 Huke HCS
p3617
sg43
Nssa(dp3618
g38
I313138863
sg39
(dp3619
g41
VE6 Shooter
p3620
sg43
Nssg44
(lp3621
I1095363701
asg32
VWeaponPickup
p3622
sg35
VPT4M28.5300183S
p3623
sa(dp3624
g38
I4096745987
sg39
(dp3625
g41
VE6 Shooter
p3626
sg43
Nssg44
(lp3627
I2758383128
asg32
VWeaponPickup
p3628
sg35
VPT4M28.5300183S
p3629
sa(dp3630
g32
VPlayerSpawn
p3631
sg39
(dp3632
g41
VE6 Shooter
p3633
sg43
Nssg35
VPT4M28.5300183S
p3634
sa(dp3635
g38
I313138863
sg39
(dp3636
g41
VE6 Cratos HCS
p3637
sg43
Nssg44
(lp3638
I1095363701
asg32
VWeaponPickup
p3639
sg35
VPT4M31.5630007S
p3640
sa(dp3641
g38
I4096745987
sg39
(dp3642
g41
VE6 Cratos HCS
p3643
sg43
Nssg44
(lp3644
I2758383128
asg32
VWeaponPickup
p3645
sg35
VPT4M31.5640009S
p3646
sa(dp3647
g32
VPlayerSpawn
p3648
sg39
(dp3649
g41
VE6 Cratos HCS
p3650
sg43
Nssg35
VPT4M31.5640009S
p3651
sa(dp3652
g240
I4096745987
sg241
I00
sg242
I00
sg243
(dp3653
g41
VCLG Snake Bite
p3654
sg43
Nssg246
(lp3655
I2758383128
asg248
I00
sg249
I00
sg250
I2
sg251
I0
sg252
I0
sg253
(dp3656
Vy
F20.888950000000001
sVx
F-10.934866899999999
sVz
F1.9419884700000001
ssg255
(dp3657
Vy
F27.5284519
sVx
F-11.616913800000001
sVz
F1.50311935
ssg257
I00
sg258
(dp3658
g260
g261
ssg262
(lp3659
sg264
(lp3660
sg266
I00
sg35
VPT4M32.3789999S
p3661
sg32
VDeath
p3662
sg269
I1
sa(dp3663
g38
I313138863
sg39
(dp3664
g41
VE6 Huke HCS
p3665
sg43
Nssg44
(lp3666
I1095363701
asg32
VWeaponPickup
p3667
sg35
VPT4M35.4130009S
p3668
sa(dp3669
g38
I4096745987
sg39
(dp3670
g41
VE6 Huke HCS
p3671
sg43
Nssg44
(lp3672
I2758383128
asg32
VWeaponPickup
p3673
sg35
VPT4M35.4130009S
p3674
sa(dp3675
g32
VPlayerSpawn
p3676
sg39
(dp3677
g41
VE6 Huke HCS
p3678
sg43
Nssg35
VPT4M35.4140008S
p3679
sa(dp3680
g240
I3808094875
sg241
I00
sg242
I00
sg243
(dp3681
g41
VE6 bubu dubu
p3682
sg43
Nssg246
(lp3683
I2758383128
asg248
I00
sg249
I01
sg250
I1
sg251
I0
sg252
I1
sg253
(dp3684
Vy
F9.8793780000000009
sVx
F4.0072975199999998
sVz
F1.49823642
ssg255
(dp3685
Vy
F6.5953564599999996
sVx
F5.1149449999999996
sVz
F2.0404174300000002
ssg257
I00
sg258
(dp3686
g41
VCLG Royal 2
p3687
sg43
Nssg262
(lp3688
sg264
(lp3689
sg266
I00
sg35
VPT4M36.5960003S
p3690
sg32
VDeath
p3691
sg269
I1
sa(dp3692
g38
I313138863
sg32
VWeaponDrop
p3693
sg180
I27
sg44
(lp3694
I1095363701
asg35
VPT4M36.5970002S
p3695
sg183
I16
sg184
VP0DT0H0M11.9167S
p3696
sg39
(dp3697
g41
VCLG Royal 2
p3698
sg43
Nssa(dp3699
g38
I4096745987
sg32
VWeaponDrop
p3700
sg180
I7
sg44
(lp3701
I2758383128
asg35
VPT4M36.5970002S
p3702
sg183
I2
sg184
VP0DT0H0M12.8500S
p3703
sg39
(dp3704
g41
VCLG Royal 2
p3705
sg43
Nssa(dp3706
g32
VMedal
p3707
sg39
(dp3708
g41
VCLG LethuL HCS
p3709
sg43
Nssg274
I3565443938
sg35
VPT4M38.1790004S
p3710
sa(dp3711
g32
VMedal
p3712
sg39
(dp3713
g41
VCLG Snake Bite
p3714
sg43
Nssg274
I3565443938
sg35
VPT4M38.1790004S
p3715
sa(dp3716
g38
I4096745987
sg32
VWeaponDrop
p3717
sg180
I4
sg44
(lp3718
I2758383128
asg35
VPT4M38.3109986S
p3719
sg183
I1
sg184
VP0DT0H0M6.0167S
p3720
sg39
(dp3721
g41
VE6 Cratos HCS
p3722
sg43
Nssa(dp3723
g38
I424645655
sg39
(dp3724
g41
VE6 Cratos HCS
p3725
sg43
Nssg44
(lp3726
I1327094800
asg32
VWeaponPickup
p3727
sg35
VPT4M38.3120005S
p3728
sa(dp3729
g38
I313138863
sg32
VWeaponDrop
p3730
sg180
I0
sg44
(lp3731
I1095363701
asg35
VPT4M40.3109985S
p3732
sg183
I0
sg184
VP0DT0H0M4.9000S
p3733
sg39
(dp3734
g41
VE6 Huke HCS
p3735
sg43
Nssa(dp3736
g38
I424645655
sg39
(dp3737
g41
VE6 Huke HCS
p3738
sg43
Nssg44
(lp3739
I1327094800
asg32
VWeaponPickup
p3740
sg35
VPT4M40.3120007S
p3741
sa(dp3742
g240
I3682788176
sg241
I00
sg242
I00
sg243
(dp3743
g41
VCLG Snake Bite
p3744
sg43
Nssg246
(lp3745
I2758383128
asg248
I00
sg249
I01
sg250
I1
sg251
I0
sg252
I1
sg253
(dp3746
Vy
F21.184660000000001
sVx
F-10.1534262
sVz
F2.3564727300000001
ssg255
(dp3747
Vy
F14.61571
sVx
F-1.8750182399999999
sVz
F1.4995212600000001
ssg257
I00
sg258
(dp3748
g41
VE6 Shooter
p3749
sg43
Nssg262
(lp3750
sg264
(lp3751
(dp3752
g41
VCLG LethuL HCS
p3753
sg43
Nsasg266
I00
sg35
VPT4M40.4300005S
p3754
sg32
VDeath
p3755
sg269
I1
sa(dp3756
g32
VMedal
p3757
sg39
(dp3758
g41
VCLG Snake Bite
p3759
sg43
Nssg274
I2838259753
sg35
VPT4M40.4300005S
p3760
sa(dp3761
g32
VImpulse
p3762
sg39
(dp3763
g41
VCLG Snake Bite
p3764
sg43
Nssg357
I2556889090
sg35
VPT4M40.4300005S
p3765
sa(dp3766
g32
VMedal
p3767
sg39
(dp3768
g41
VCLG Frosty HCS
p3769
sg43
Nssg274
I824733727
sg35
VPT4M40.4300005S
p3770
sa(dp3771
g38
I313138863
sg32
VWeaponDrop
p3772
sg180
I0
sg44
(lp3773
I1095363701
asg35
VPT4M40.4310027S
p3774
sg183
I0
sg184
VP0DT0H0M0.4500S
p3775
sg39
(dp3776
g41
VE6 Shooter
p3777
sg43
Nssa(dp3778
g38
I4096745987
sg32
VWeaponDrop
p3779
sg180
I3
sg44
(lp3780
I2758383128
asg35
VPT4M40.4310027S
p3781
sg183
I0
sg184
VP0DT0H0M11.4500S
p3782
sg39
(dp3783
g41
VE6 Shooter
p3784
sg43
Nssa(dp3785
g38
I4096745987
sg32
VWeaponDrop
p3786
sg180
I0
sg44
(lp3787
I2758383128
asg35
VPT4M41.8280098S
p3788
sg183
I0
sg184
VP0DT0H0M0.1167S
p3789
sg39
(dp3790
g41
VE6 Huke HCS
p3791
sg43
Nssa(dp3792
g38
I723388907
sg39
(dp3793
g41
VE6 Huke HCS
p3794
sg43
Nssg44
(lp3795
I89283061
asg32
VWeaponPickup
p3796
sg35
VPT4M41.8280098S
p3797
sa(dp3798
g32
VMedal
p3799
sg39
(dp3800
g41
VE6 Cratos HCS
p3801
sg43
Nssg274
I3565443938
sg35
VPT4M42.7120005S
p3802
sa(dp3803
g32
VMedal
p3804
sg39
(dp3805
g41
VE6 Huke HCS
p3806
sg43
Nssg274
I3565443938
sg35
VPT4M42.7120005S
p3807
sa(dp3808
g38
I313138863
sg39
(dp3809
g41
VCLG Royal 2
p3810
sg43
Nssg44
(lp3811
I1095363701
asg32
VWeaponPickup
p3812
sg35
VPT4M44.6130007S
p3813
sa(dp3814
g38
I4096745987
sg39
(dp3815
g41
VCLG Royal 2
p3816
sg43
Nssg44
(lp3817
I2758383128
asg32
VWeaponPickup
p3818
sg35
VPT4M44.6130007S
p3819
sa(dp3820
g32
VPlayerSpawn
p3821
sg39
(dp3822
g41
VCLG Royal 2
p3823
sg43
Nssg35
VPT4M44.6130007S
p3824
sa(dp3825
g240
I4096745987
sg241
I00
sg242
I00
sg243
(dp3826
g41
VE6 bubu dubu
p3827
sg43
Nssg246
(lp3828
I2758383128
asg248
I00
sg249
I01
sg250
I1
sg251
I0
sg252
I1
sg253
(dp3829
Vy
F4.3509903000000003
sVx
F-1.0357559999999999
sVz
F-0.33046379999999997
ssg255
(dp3830
Vy
F6.8167014100000003
sVx
F-11.2477751
sVz
F-0.896731257
ssg257
I00
sg258
(dp3831
g41
VCLG Frosty HCS
p3832
sg43
Nssg262
(lp3833
sg264
(lp3834
(dp3835
g41
VE6 Cratos HCS
p3836
sg43
Nsasg266
I01
sg35
VPT4M47.0960005S
p3837
sg32
VDeath
p3838
sg269
I1
sa(dp3839
g32
VMedal
p3840
sg39
(dp3841
g41
VE6 bubu dubu
p3842
sg43
Nssg274
I2838259753
sg35
VPT4M47.0960005S
p3843
sa(dp3844
g32
VImpulse
p3845
sg39
(dp3846
g41
VE6 bubu dubu
p3847
sg43
Nssg357
I2556889090
sg35
VPT4M47.0960005S
p3848
sa(dp3849
g32
VMedal
p3850
sg39
(dp3851
g41
VE6 bubu dubu
p3852
sg43
Nssg274
I3261908037
sg35
VPT4M47.0970004S
p3853
sa(dp3854
g38
I313138863
sg32
VWeaponDrop
p3855
sg180
I12
sg44
(lp3856
I1095363701
asg35
VPT4M47.0979999S
p3857
sg183
I7
sg184
VP0DT0H0M5.9333S
p3858
sg39
(dp3859
g41
VCLG Frosty HCS
p3860
sg43
Nssa(dp3861
g38
I4096745987
sg32
VWeaponDrop
p3862
sg180
I10
sg44
(lp3863
I2758383128
asg35
VPT4M47.0979999S
p3864
sg183
I5
sg184
VP0DT0H0M19.8833S
p3865
sg39
(dp3866
g41
VCLG Frosty HCS
p3867
sg43
Nssa(dp3868
g38
I313138863
sg39
(dp3869
g41
VE6 Shooter
p3870
sg43
Nssg44
(lp3871
I1095363701
asg32
VWeaponPickup
p3872
sg35
VPT4M48.4460009S
p3873
sa(dp3874
g38
I4096745987
sg39
(dp3875
g41
VE6 Shooter
p3876
sg43
Nssg44
(lp3877
I2758383128
asg32
VWeaponPickup
p3878
sg35
VPT4M48.4460009S
p3879
sa(dp3880
g32
VPlayerSpawn
p3881
sg39
(dp3882
g41
VE6 Shooter
p3883
sg43
Nssg35
VPT4M48.4460009S
p3884
sa(dp3885
g240
I424645655
sg241
I00
sg242
I00
sg243
(dp3886
g41
VE6 Cratos HCS
p3887
sg43
Nssg246
(lp3888
I1327094800
asg248
I00
sg249
I00
sg250
I2
sg251
I0
sg252
I0
sg253
(dp3889
Vy
F0.36391449999999997
sVx
F0.48893251999999998
sVz
F0.305549562
ssg255
(dp3890
Vy
F0.099739579999999994
sVx
F8.0057419999999997
sVz
F0.7130978
ssg257
I00
sg258
(dp3891
g260
g261
ssg262
(lp3892
sg264
(lp3893
sg266
I00
sg35
VPT4M52.1460004S
p3894
sg32
VDeath
p3895
sg269
I1
sa(dp3896
g240
I47178948
sg241
I00
sg242
I00
sg243
(dp3897
g41
VE6 Cratos HCS
p3898
sg43
Nssg246
(lp3899
sg248
I00
sg249
I00
sg250
I2
sg251
I0
sg252
I0
sg253
(dp3900
Vy
F0.36391449999999997
sVx
F0.48893251999999998
sVz
F0.305549562
ssg255
(dp3901
Vy
F0.10923453399999999
sVx
F8.0052830000000004
sVz
F0.30517453
ssg257
I00
sg258
(dp3902
g260
g261
ssg262
(lp3903
sg264
(lp3904
sg266
I00
sg35
VPT4M52.1460004S
p3905
sg32
VDeath
p3906
sg269
I1
sa(dp3907
g240
I3808094875
sg241
I00
sg242
I00
sg243
(dp3908
g41
VE6 bubu dubu
p3909
sg43
Nssg246
(lp3910
I2758383128
asg248
I00
sg249
I01
sg250
I1
sg251
I0
sg252
I1
sg253
(dp3911
Vy
F6.55877161
sVx
F5.1734366400000003
sVz
F1.8047277900000001
ssg255
(dp3912
Vy
F8.2612070000000006
sVx
F4.9480750000000002
sVz
F2.2127723700000002
ssg257
I00
sg258
(dp3913
g41
VCLG LethuL HCS
p3914
sg43
Nssg262
(lp3915
sg264
(lp3916
sg266
I00
sg35
VPT4M52.9969999S
p3917
sg32
VDeath
p3918
sg269
I1
sa(dp3919
g38
I313138863
sg32
VWeaponDrop
p3920
sg180
I5
sg44
(lp3921
I1095363701
asg35
VPT4M52.9980003S
p3922
sg183
I4
sg184
VP0DT0H0M4.5500S
p3923
sg39
(dp3924
g41
VCLG LethuL HCS
p3925
sg43
Nssa(dp3926
g38
I4096745987
sg32
VWeaponDrop
p3927
sg180
I9
sg44
(lp3928
I2758383128
asg35
VPT4M52.9980003S
p3929
sg183
I4
sg184
VP0DT0H0M31.0167S
p3930
sg39
(dp3931
g41
VCLG LethuL HCS
p3932
sg43
Nssa(dp3933
g38
I2492868984
sg39
(dp3934
g41
VCLG Snake Bite
p3935
sg43
Nssg44
(lp3936
I2758383128
asg32
VWeaponPickup
p3937
sg35
VPT4M54.2280002S
p3938
sa(dp3939
g38
I313138863
sg39
(dp3940
g41
VCLG Frosty HCS
p3941
sg43
Nssg44
(lp3942
I1095363701
asg32
VWeaponPickup
p3943
sg35
VPT4M55.1120006S
p3944
sa(dp3945
g38
I4096745987
sg39
(dp3946
g41
VCLG Frosty HCS
p3947
sg43
Nssg44
(lp3948
I2758383128
asg32
VWeaponPickup
p3949
sg35
VPT4M55.1130011S
p3950
sa(dp3951
g32
VPlayerSpawn
p3952
sg39
(dp3953
g41
VCLG Frosty HCS
p3954
sg43
Nssg35
VPT4M55.1130011S
p3955
sa(dp3956
g38
I2492868984
sg32
VWeaponDrop
p3957
sg180
I0
sg44
(lp3958
I2758383128
asg35
VPT4M55.3789999S
p3959
sg183
I0
sg184
VP0DT0H0M0.9833S
p3960
sg39
(dp3961
g41
VCLG Snake Bite
p3962
sg43
Nssa(dp3963
g240
I3682788176
sg241
I00
sg242
I00
sg243
(dp3964
g41
VCLG Snake Bite
p3965
sg43
Nssg246
(lp3966
I2758383128
asg248
I00
sg249
I01
sg250
I1
sg251
I0
sg252
I1
sg253
(dp3967
Vy
F10.636563300000001
sVx
F1.5058524600000001
sVz
F0.21686900000000001
ssg255
(dp3968
Vy
F7.2746579999999996
sVx
F6.3629420000000003
sVz
F-0.89673170000000002
ssg257
I00
sg258
(dp3969
g41
VE6 Cratos HCS
p3970
sg43
Nssg262
(lp3971
sg264
(lp3972
(dp3973
g41
VCLG Royal 2
p3974
sg43
Nsasg266
I00
sg35
VPT4M57.1790013S
p3975
sg32
VDeath
p3976
sg269
I1
sa(dp3977
g32
VMedal
p3978
sg39
(dp3979
g41
VCLG Snake Bite
p3980
sg43
Nssg274
I2430242797
sg35
VPT4M57.1800002S
p3981
sa(dp3982
g38
I313138863
sg32
VWeaponDrop
p3983
sg180
I17
sg44
(lp3984
I1095363701
asg35
VPT4M57.1800002S
p3985
sg183
I3
sg184
VP0DT0H0M4.3333S
p3986
sg39
(dp3987
g41
VE6 Cratos HCS
p3988
sg43
Nssa(dp3989
g38
I424645655
sg32
VWeaponDrop
p3990
sg180
I13
sg44
(lp3991
I1327094800
asg35
VPT4M57.1800002S
p3992
sg183
I8
sg184
VP0DT0H0M15.2667S
p3993
sg39
(dp3994
g41
VE6 Cratos HCS
p3995
sg43
Nssa(dp3996
g240
I3808094875
sg241
I00
sg242
I00
sg243
(dp3997
g41
VE6 bubu dubu
p3998
sg43
Nssg246
(lp3999
I2758383128
asg248
I00
sg249
I01
sg250
I1
sg251
I0
sg252
I1
sg253
(dp4000
Vy
F9.4613270000000007
sVx
F6.7763609999999996
sVz
F-0.89673009999999997
ssg255
(dp4001
Vy
F8.7178540000000009
sVx
F2.6019190000000001
sVz
F-0.89673099999999994
ssg257
I00
sg258
(dp4002
g41
VCLG Snake Bite
p4003
sg43
Nssg262
(lp4004
sg264
(lp4005
(dp4006
g41
VE6 Shooter
p4007
sg43
Nsa(dp4008
g41
VE6 Cratos HCS
p4009
sg43
Nsasg266
I00
sg35
VPT4M58.6950005S
p4010
sg32
VDeath
p4011
sg269
I1
sa(dp4012
g32
VMedal
p4013
sg39
(dp4014
g41
VE6 bubu dubu
p4015
sg43
Nssg274
I1351381581
sg35
VPT4M58.696S
p4016
sa(dp4017
g38
I3682788176
sg32
VWeaponDrop
p4018
sg180
I4
sg44
(lp4019
I2758383128
asg35
VPT4M58.6970103S
p4020
sg183
I4
sg184
VP0DT0H0M34.3167S
p4021
sg39
(dp4022
g41
VCLG Snake Bite
p4023
sg43
Nssa(dp4024
g38
I3682788176
sg32
VWeaponDrop
p4025
sg180
I0
sg44
(lp4026
I2758383128
asg35
VPT4M58.6970103S
p4027
sg183
I0
sg184
VP0DT0S
p4028
sg39
(dp4029
g41
VCLG Snake Bite
p4030
sg43
Nssa(dp4031
g38
I4096745987
sg32
VWeaponDrop
p4032
sg180
I11
sg44
(lp4033
I2758383128
asg35
VPT4M58.6970103S
p4034
sg183
I6
sg184
VP0DT0H0M22.1500S
p4035
sg39
(dp4036
g41
VCLG Snake Bite
p4037
sg43
Nssa(dp4038
g38
I4096745987
sg32
VWeaponDrop
p4039
sg180
I0
sg44
(lp4040
I2758383128
asg35
VPT4M58.6970103S
p4041
sg183
I0
sg184
VP0DT0S
p4042
sg39
(dp4043
g41
VCLG Snake Bite
p4044
sg43
Nssa(dp4045
g240
I4096745987
sg241
I00
sg242
I00
sg243
(dp4046
g41
VCLG Frosty HCS
p4047
sg43
Nssg246
(lp4048
I2758383128
asg248
I00
sg249
I01
sg250
I1
sg251
I0
sg252
I1
sg253
(dp4049
Vy
F21.321535099999998
sVx
F7.6045090000000002
sVz
F0.72289110000000001
ssg255
(dp4050
Vy
F10.4388027
sVx
F8.0289649999999995
sVz
F-0.89672929999999995
ssg257
I00
sg258
(dp4051
g41
VE6 bubu dubu
p4052
sg43
Nssg262
(lp4053
sg264
(lp4054
(dp4055
g41
VCLG Royal 2
p4056
sg43
Nsasg266
I01
sg35
VPT4M59.9950001S
p4057
sg32
VDeath
p4058
sg269
I1
sa(dp4059
g32
VMedal
p4060
sg39
(dp4061
g41
VCLG Frosty HCS
p4062
sg43
Nssg274
I3261908037
sg35
VPT4M59.9960122S
p4063
sa(dp4064
g38
I3808094875
sg32
VWeaponDrop
p4065
sg180
I48
sg44
(lp4066
I2758383128
asg35
VPT4M59.9970003S
p4067
sg183
I19
sg184
VP0DT0H0M25.6667S
p4068
sg39
(dp4069
g41
VE6 bubu dubu
p4070
sg43
Nssa(dp4071
g38
I4096745987
sg32
VWeaponDrop
p4072
sg180
I7
sg44
(lp4073
I2758383128
asg35
VPT4M59.9970003S
p4074
sg183
I2
sg184
VP0DT0H0M15.9333S
p4075
sg39
(dp4076
g41
VE6 bubu dubu
p4077
sg43
Nssa(dp4078
g38
I313138863
sg39
(dp4079
g41
VCLG LethuL HCS
p4080
sg43
Nssg44
(lp4081
I1095363701
asg32
VWeaponPickup
p4082
sg35
VPT5M1.0120007S
p4083
sa(dp4084
g38
I4096745987
sg39
(dp4085
g41
VCLG LethuL HCS
p4086
sg43
Nssg44
(lp4087
I2758383128
asg32
VWeaponPickup
p4088
sg35
VPT5M1.0120007S
p4089
sa(dp4090
g32
VPlayerSpawn
p4091
sg39
(dp4092
g41
VCLG LethuL HCS
p4093
sg43
Nssg35
VPT5M1.0120007S
p4094
sa(dp4095
g32
VMedal
p4096
sg39
(dp4097
g41
VE6 Huke HCS
p4098
sg43
Nssg274
I3565443938
sg35
VPT5M3.826999S
p4099
sa(dp4100
g32
VMedal
p4101
sg39
(dp4102
g41
VE6 Cratos HCS
p4103
sg43
Nssg274
I2105198095
sg35
VPT5M3.8280005S
p4104
sa(dp4105
g32
VMedal
p4106
sg39
(dp4107
g41
VE6 Shooter
p4108
sg43
Nssg274
I2105198095
sg35
VPT5M3.8280005S
p4109
sa(dp4110
g32
VMedal
p4111
sg39
(dp4112
g41
VE6 bubu dubu
p4113
sg43
Nssg274
I2105198095
sg35
VPT5M3.8280005S
p4114
sa(dp4115
g32
VMedal
p4116
sg39
(dp4117
g41
VE6 Huke HCS
p4118
sg43
Nssg274
I2105198095
sg35
VPT5M3.8280005S
p4119
sa(dp4120
g240
I4106030681
sg241
I00
sg242
I00
sg243
(dp4121
g41
VE6 Shooter
p4122
sg43
Nssg246
(lp4123
sg248
I00
sg249
I01
sg250
I1
sg251
I0
sg252
I1
sg253
(dp4124
Vy
F12.9038649
sVx
F-1.12920928
sVz
F1.49790227
ssg255
(dp4125
Vy
F5.7377459999999996
sVx
F3.41353822
sVz
F0.31168925800000002
ssg257
I00
sg258
(dp4126
g41
VCLG Royal 2
p4127
sg43
Nssg262
(lp4128
sg264
(lp4129
sg266
I00
sg35
VPT5M4.2609998S
p4130
sg32
VDeath
p4131
sg269
I1
sa(dp4132
g32
VMedal
p4133
sg39
(dp4134
g41
VE6 Shooter
p4135
sg43
Nssg274
I1351381581
sg35
VPT5M4.2620004S
p4136
sa(dp4137
g38
I313138863
sg32
VWeaponDrop
p4138
sg180
I22
sg44
(lp4139
I1095363701
asg35
VPT5M4.2630003S
p4140
sg183
I8
sg184
VP0DT0H0M13.5833S
p4141
sg39
(dp4142
g41
VCLG Royal 2
p4143
sg43
Nssa(dp4144
g38
I313138863
sg32
VWeaponDrop
p4145
sg180
I0
sg44
(lp4146
I1095363701
asg35
VPT5M4.2630003S
p4147
sg183
I0
sg184
VP0DT0S
p4148
sg39
(dp4149
g41
VCLG Royal 2
p4150
sg43
Nssa(dp4151
g38
I4096745987
sg32
VWeaponDrop
p4152
sg180
I0
sg44
(lp4153
I2758383128
asg35
VPT5M4.2630003S
p4154
sg183
I0
sg184
VP0DT0H0M6.0667S
p4155
sg39
(dp4156
g41
VCLG Royal 2
p4157
sg43
Nssa(dp4158
g38
I313138863
sg39
(dp4159
g41
VE6 Cratos HCS
p4160
sg43
Nssg44
(lp4161
I1095363701
asg32
VWeaponPickup
p4162
sg35
VPT5M5.1950012S
p4163
sa(dp4164
g38
I4096745987
sg39
(dp4165
g41
VE6 Cratos HCS
p4166
sg43
Nssg44
(lp4167
I2758383128
asg32
VWeaponPickup
p4168
sg35
VPT5M5.1950012S
p4169
sa(dp4170
g32
VPlayerSpawn
p4171
sg39
(dp4172
g41
VE6 Cratos HCS
p4173
sg43
Nssg35
VPT5M5.1950012S
p4174
sa(dp4175
g32
VMedal
p4176
sg39
(dp4177
g41
VE6 Shooter
p4178
sg43
Nssg274
I2916014239
sg35
VPT5M6.3110005S
p4179
sa(dp4180
g38
I313138863
sg39
(dp4181
g41
VCLG Snake Bite
p4182
sg43
Nssg44
(lp4183
I1095363701
asg32
VWeaponPickup
p4184
sg35
VPT5M6.7120009S
p4185
sa(dp4186
g38
I4096745987
sg39
(dp4187
g41
VCLG Snake Bite
p4188
sg43
Nssg44
(lp4189
I2758383128
asg32
VWeaponPickup
p4190
sg35
VPT5M6.7120009S
p4191
sa(dp4192
g32
VPlayerSpawn
p4193
sg39
(dp4194
g41
VCLG Snake Bite
p4195
sg43
Nssg35
VPT5M6.7120009S
p4196
sa(dp4197
g240
I313138863
sg241
I00
sg242
I01
sg243
(dp4198
g41
VCLG Frosty HCS
p4199
sg43
Nssg246
(lp4200
I1095363701
asg248
I00
sg249
I00
sg250
I1
sg251
I0
sg252
I1
sg253
(dp4201
Vy
F9.7441089999999999
sVx
F4.4325804700000004
sVz
F-0.61191815100000002
ssg255
(dp4202
Vy
F9.5205144900000001
sVx
F4.167872
sVz
F-0.56521666000000004
ssg257
I00
sg258
(dp4203
g41
VE6 Shooter
p4204
sg43
Nssg262
(lp4205
sg264
(lp4206
sg266
I00
sg35
VPT5M7.3450007S
p4207
sg32
VDeath
p4208
sg269
I1
sa(dp4209
g32
VMedal
p4210
sg39
(dp4211
g41
VCLG Frosty HCS
p4212
sg43
Nssg274
I250435527
sg35
VPT5M7.3460004S
p4213
sa(dp4214
g38
I4096745987
sg32
VWeaponDrop
p4215
sg180
I7
sg44
(lp4216
I2758383128
asg35
VPT5M7.3470006S
p4217
sg183
I5
sg184
VP0DT0H0M15.1167S
p4218
sg39
(dp4219
g41
VE6 Shooter
p4220
sg43
Nssa(dp4221
g38
I4096745987
sg32
VWeaponDrop
p4222
sg180
I0
sg44
(lp4223
I2758383128
asg35
VPT5M7.3470006S
p4224
sg183
I0
sg184
VP0DT0S
p4225
sg39
(dp4226
g41
VE6 Shooter
p4227
sg43
Nssa(dp4228
g38
I313138863
sg32
VWeaponDrop
p4229
sg180
I16
sg44
(lp4230
I1095363701
asg35
VPT5M7.3470006S
p4231
sg183
I9
sg184
VP0DT0H0M3.7833S
p4232
sg39
(dp4233
g41
VE6 Shooter
p4234
sg43
Nssa(dp4235
g38
I313138863
sg39
(dp4236
g41
VE6 bubu dubu
p4237
sg43
Nssg44
(lp4238
I1095363701
asg32
VWeaponPickup
p4239
sg35
VPT5M8.0120005S
p4240
sa(dp4241
g38
I4096745987
sg39
(dp4242
g41
VE6 bubu dubu
p4243
sg43
Nssg44
(lp4244
I2758383128
asg32
VWeaponPickup
p4245
sg35
VPT5M8.0120005S
p4246
sa(dp4247
g32
VPlayerSpawn
p4248
sg39
(dp4249
g41
VE6 bubu dubu
p4250
sg43
Nssg35
VPT5M8.0120005S
p4251
sa(dp4252
g38
I313138863
sg32
VWeaponDrop
p4253
sg180
I10
sg44
(lp4254
I1095363701
asg35
VPT5M8.3769984S
p4255
sg183
I8
sg184
VP0DT0H0M3.9667S
p4256
sg39
(dp4257
g41
VCLG Frosty HCS
p4258
sg43
Nssa(dp4259
g38
I313138863
sg32
VWeaponDrop
p4260
sg180
I0
sg44
(lp4261
I1095363701
asg35
VPT5M8.3769984S
p4262
sg183
I0
sg184
VP0DT0S
p4263
sg39
(dp4264
g41
VCLG Frosty HCS
p4265
sg43
Nssa(dp4266
g38
I3682788176
sg39
(dp4267
g41
VCLG Frosty HCS
p4268
sg43
Nssg44
(lp4269
I2758383128
asg32
VWeaponPickup
p4270
sg35
VPT5M8.3769984S
p4271
sa(dp4272
g240
I313138863
sg241
I00
sg242
I00
sg243
(dp4273
g41
VE6 Cratos HCS
p4274
sg43
Nssg246
(lp4275
I1095363701
asg248
I00
sg249
I01
sg250
I1
sg251
I0
sg252
I1
sg253
(dp4276
Vy
F4.5110864599999996
sVx
F-9.6825369999999999
sVz
F-0.89675640000000001
ssg255
(dp4277
Vy
F1.59336162
sVx
F-9.7533110000000001
sVz
F-0.8967792
ssg257
I00
sg258
(dp4278
g41
VCLG LethuL HCS
p4279
sg43
Nssg262
(lp4280
sg264
(lp4281
(dp4282
g41
VE6 Huke HCS
p4283
sg43
Nsasg266
I00
sg35
VPT5M12.1620079S
p4284
sg32
VDeath
p4285
sg269
I1
sa(dp4286
g32
VMedal
p4287
sg39
(dp4288
g41
VE6 Cratos HCS
p4289
sg43
Nssg274
I1351381581
sg35
VPT5M12.1629996S
p4290
sa(dp4291
g38
I313138863
sg32
VWeaponDrop
p4292
sg180
I0
sg44
(lp4293
I1095363701
asg35
VPT5M12.164001S
p4294
sg183
I0
sg184
VP0DT0H0M0.7167S
p4295
sg39
(dp4296
g41
VCLG LethuL HCS
p4297
sg43
Nssa(dp4298
g38
I4096745987
sg32
VWeaponDrop
p4299
sg180
I4
sg44
(lp4300
I2758383128
asg35
VPT5M12.164001S
p4301
sg183
I2
sg184
VP0DT0H0M10.4333S
p4302
sg39
(dp4303
g41
VCLG LethuL HCS
p4304
sg43
Nssa(dp4305
g38
I313138863
sg39
(dp4306
g41
VCLG Royal 2
p4307
sg43
Nssg44
(lp4308
I1095363701
asg32
VWeaponPickup
p4309
sg35
VPT5M12.2780003S
p4310
sa(dp4311
g38
I4096745987
sg39
(dp4312
g41
VCLG Royal 2
p4313
sg43
Nssg44
(lp4314
I2758383128
asg32
VWeaponPickup
p4315
sg35
VPT5M12.2790008S
p4316
sa(dp4317
g32
VPlayerSpawn
p4318
sg39
(dp4319
g41
VCLG Royal 2
p4320
sg43
Nssg35
VPT5M12.2790008S
p4321
sa(dp4322
g38
I313138863
sg32
VWeaponDrop
p4323
sg180
I0
sg44
(lp4324
I1095363701
asg35
VPT5M12.6929983S
p4325
sg183
I0
sg184
VP0DT0H0M2.1833S
p4326
sg39
(dp4327
g41
VE6 bubu dubu
p4328
sg43
Nssa(dp4329
g38
I723388907
sg39
(dp4330
g41
VE6 bubu dubu
p4331
sg43
Nssg44
(lp4332
I89283061
asg32
VWeaponPickup
p4333
sg35
VPT5M12.6940007S
p4334
sa(dp4335
g38
I4096745987
sg32
VWeaponDrop
p4336
sg180
I0
sg44
(lp4337
I2758383128
asg35
VPT5M13.6099988S
p4338
sg183
I0
sg184
VP0DT0H0M0.4167S
p4339
sg39
(dp4340
g41
VCLG Royal 2
p4341
sg43
Nssa(dp4342
g38
I4108759423
sg39
(dp4343
g41
VCLG Royal 2
p4344
sg43
Nssg44
(lp4345
I2758383128
asg32
VWeaponPickup
p4346
sg35
VPT5M13.6099988S
p4347
sa(dp4348
g240
I424645655
sg241
I00
sg242
I00
sg243
(dp4349
g41
VE6 Huke HCS
p4350
sg43
Nssg246
(lp4351
I1327094800
asg248
I00
sg249
I01
sg250
I1
sg251
I0
sg252
I1
sg253
(dp4352
Vy
F13.73424
sVx
F-2.7156605699999998
sVz
F1.4995212600000001
ssg255
(dp4353
Vy
F2.2380557099999998
sVx
F-14.647410000000001
sVz
F-0.52623534199999999
ssg257
I00
sg258
(dp4354
g41
VCLG Snake Bite
p4355
sg43
Nssg262
(lp4356
sg264
(lp4357
(dp4358
g41
VE6 Cratos HCS
p4359
sg43
Nsa(dp4360
g41
VE6 bubu dubu
p4361
sg43
Nsasg266
I01
sg35
VPT5M14.8610001S
p4362
sg32
VDeath
p4363
sg269
I1
sa(dp4364
g32
VMedal
p4365
sg39
(dp4366
g41
VE6 Huke HCS
p4367
sg43
Nssg274
I1351381581
sg35
VPT5M14.862S
p4368
sa(dp4369
g32
VMedal
p4370
sg39
(dp4371
g41
VE6 Huke HCS
p4372
sg43
Nssg274
I3261908037
sg35
VPT5M14.862S
p4373
sa(dp4374
g32
VMedal
p4375
sg39
(dp4376
g41
VE6 Cratos HCS
p4377
sg43
Nssg274
I2916014239
sg35
VPT5M14.8629997S
p4378
sa(dp4379
g38
I313138863
sg32
VWeaponDrop
p4380
sg180
I0
sg44
(lp4381
I1095363701
asg35
VPT5M14.8629997S
p4382
sg183
I0
sg184
VP0DT0H0M0.7333S
p4383
sg39
(dp4384
g41
VCLG Snake Bite
p4385
sg43
Nssa(dp4386
g38
I4096745987
sg32
VWeaponDrop
p4387
sg180
I12
sg44
(lp4388
I2758383128
asg35
VPT5M14.8629997S
p4389
sg183
I3
sg184
VP0DT0H0M7.4167S
p4390
sg39
(dp4391
g41
VCLG Snake Bite
p4392
sg43
Nssa(dp4393
g38
I313138863
sg39
(dp4394
g41
VE6 Shooter
p4395
sg43
Nssg44
(lp4396
I1095363701
asg32
VWeaponPickup
p4397
sg35
VPT5M15.3620007S
p4398
sa(dp4399
g38
I4096745987
sg39
(dp4400
g41
VE6 Shooter
p4401
sg43
Nssg44
(lp4402
I2758383128
asg32
VWeaponPickup
p4403
sg35
VPT5M15.3620007S
p4404
sa(dp4405
g32
VPlayerSpawn
p4406
sg39
(dp4407
g41
VE6 Shooter
p4408
sg43
Nssg35
VPT5M15.3620007S
p4409
sa(dp4410
g38
I4096745987
sg32
VWeaponDrop
p4411
sg180
I0
sg44
(lp4412
I2758383128
asg35
VPT5M16.6769995S
p4413
sg183
I0
sg184
VP0DT0H0M2.9167S
p4414
sg39
(dp4415
g41
VE6 bubu dubu
p4416
sg43
Nssa(dp4417
g38
I424645655
sg39
(dp4418
g41
VE6 bubu dubu
p4419
sg43
Nssg44
(lp4420
I1327094800
asg32
VWeaponPickup
p4421
sg35
VPT5M16.6769995S
p4422
sa(dp4423
g32
VMedal
p4424
sg39
(dp4425
g41
VCLG Frosty HCS
p4426
sg43
Nssg274
I3565443938
sg35
VPT5M16.8770002S
p4427
sa(dp4428
g32
VMedal
p4429
sg39
(dp4430
g41
VCLG Royal 2
p4431
sg43
Nssg274
I3565443938
sg35
VPT5M16.8770002S
p4432
sa(dp4433
g32
VMedal
p4434
sg39
(dp4435
g41
VE6 Cratos HCS
p4436
sg43
Nssg274
I3400287617
sg35
VPT5M17.6440001S
p4437
sa(dp4438
g38
I313138863
sg39
(dp4439
g41
VCLG LethuL HCS
p4440
sg43
Nssg44
(lp4441
I1095363701
asg32
VWeaponPickup
p4442
sg35
VPT5M20.1780008S
p4443
sa(dp4444
g38
I4096745987
sg39
(dp4445
g41
VCLG LethuL HCS
p4446
sg43
Nssg44
(lp4447
I2758383128
asg32
VWeaponPickup
p4448
sg35
VPT5M20.1780008S
p4449
sa(dp4450
g32
VPlayerSpawn
p4451
sg39
(dp4452
g41
VCLG LethuL HCS
p4453
sg43
Nssg35
VPT5M20.1780008S
p4454
sa(dp4455
g240
I723388907
sg241
I00
sg242
I00
sg243
(dp4456
g41
VE6 Huke HCS
p4457
sg43
Nssg246
(lp4458
I89283061
asg248
I00
sg249
I01
sg250
I1
sg251
I0
sg252
I1
sg253
(dp4459
Vy
F6.0920033499999997
sVx
F4.2274346400000002
sVz
F1.49824023
ssg255
(dp4460
Vy
F8.1512049999999991
sVx
F6.6084065399999998
sVz
F1.9851255400000001
ssg257
I00
sg258
(dp4461
g41
VCLG Frosty HCS
p4462
sg43
Nssg262
(lp4463
sg264
(lp4464
sg266
I00
sg35
VPT5M21.2280002S
p4465
sg32
VDeath
p4466
sg269
I1
sa(dp4467
g38
I3682788176
sg32
VWeaponDrop
p4468
sg180
I1
sg44
(lp4469
I2758383128
asg35
VPT5M21.2290003S
p4470
sg183
I1
sg184
VP0DT0H0M12.8500S
p4471
sg39
(dp4472
g41
VCLG Frosty HCS
p4473
sg43
Nssa(dp4474
g38
I4096745987
sg32
VWeaponDrop
p4475
sg180
I8
sg44
(lp4476
I2758383128
asg35
VPT5M21.2290003S
p4477
sg183
I4
sg184
VP0DT0H0M9.3000S
p4478
sg39
(dp4479
g41
VCLG Frosty HCS
p4480
sg43
Nssa(dp4481
g240
I4096745987
sg241
I00
sg242
I00
sg243
(dp4482
g41
VE6 Shooter
p4483
sg43
Nssg246
(lp4484
I2758383128
asg248
I00
sg249
I01
sg250
I1
sg251
I0
sg252
I1
sg253
(dp4485
Vy
F22.1905155
sVx
F2.163122
sVz
F-0.89669529999999997
ssg255
(dp4486
Vy
F3.709565
sVx
F6.8087916399999999
sVz
F-0.065398600000000001
ssg257
I00
sg258
(dp4487
g41
VCLG Royal 2
p4488
sg43
Nssg262
(lp4489
sg264
(lp4490
(dp4491
g41
VE6 Cratos HCS
p4492
sg43
Nsasg266
I01
sg35
VPT5M22.4269994S
p4493
sg32
VDeath
p4494
sg269
I1
sa(dp4495
g32
VMedal
p4496
sg39
(dp4497
g41
VE6 Shooter
p4498
sg43
Nssg274
I3261908037
sg35
VPT5M22.4290001S
p4499
sa(dp4500
g38
I4108759423
sg32
VWeaponDrop
p4501
sg180
I0
sg44
(lp4502
I2758383128
asg35
VPT5M22.4290001S
p4503
sg183
I0
sg184
VP0DT0H0M7.3167S
p4504
sg39
(dp4505
g41
VCLG Royal 2
p4506
sg43
Nssa(dp4507
g38
I313138863
sg32
VWeaponDrop
p4508
sg180
I0
sg44
(lp4509
I1095363701
asg35
VPT5M22.4300008S
p4510
sg183
I0
sg184
VP0DT0H0M2.4167S
p4511
sg39
(dp4512
g41
VCLG Royal 2
p4513
sg43
Nssa(dp4514
g38
I313138863
sg39
(dp4515
g41
VCLG Snake Bite
p4516
sg43
Nssg44
(lp4517
I1095363701
asg32
VWeaponPickup
p4518
sg35
VPT5M22.8780007S
p4519
sa(dp4520
g38
I4096745987
sg39
(dp4521
g41
VCLG Snake Bite
p4522
sg43
Nssg44
(lp4523
I2758383128
asg32
VWeaponPickup
p4524
sg35
VPT5M22.8780007S
p4525
sa(dp4526
g32
VPlayerSpawn
p4527
sg39
(dp4528
g41
VCLG Snake Bite
p4529
sg43
Nssg35
VPT5M22.8780007S
p4530
sa(dp4531
g38
I313138863
sg32
VWeaponDrop
p4532
sg180
I34
sg44
(lp4533
I1095363701
asg35
VPT5M26.26S
p4534
sg183
I14
sg184
VP0DT0H0M13.3667S
p4535
sg39
(dp4536
g41
VE6 Cratos HCS
p4537
sg43
Nssa(dp4538
g38
I3682788176
sg39
(dp4539
g41
VE6 Cratos HCS
p4540
sg43
Nssg44
(lp4541
I2758383128
asg32
VWeaponPickup
p4542
sg35
VPT5M26.26S
p4543
sa(dp4544
g240
I4106030681
sg241
I00
sg242
I00
sg243
(dp4545
g41
VCLG Snake Bite
p4546
sg43
Nssg246
(lp4547
sg248
I00
sg249
I01
sg250
I1
sg251
I0
sg252
I1
sg253
(dp4548
Vy
F5.7930970000000004
sVx
F-13.1970844
sVz
F-0.8967311
ssg255
(dp4549
Vy
F8.0002879999999994
sVx
F2.4959988599999998
sVz
F1.4982144799999999
ssg257
I00
sg258
(dp4550
g41
VE6 Huke HCS
p4551
sg43
Nssg262
(lp4552
sg264
(lp4553
(dp4554
g41
VCLG Frosty HCS
p4555
sg43
Nsasg266
I00
sg35
VPT5M27.1100002S
p4556
sg32
VDeath
p4557
sg269
I1
sa(dp4558
g32
VMedal
p4559
sg39
(dp4560
g41
VCLG Snake Bite
p4561
sg43
Nssg274
I3491849182
sg35
VPT5M27.1120005S
p4562
sa(dp4563
g38
I424645655
sg32
VWeaponDrop
p4564
sg180
I27
sg44
(lp4565
I1327094800
asg35
VPT5M27.1120005S
p4566
sg183
I12
sg184
VP0DT0H0M32.9833S
p4567
sg39
(dp4568
g41
VE6 Huke HCS
p4569
sg43
Nssa(dp4570
g38
I723388907
sg32
VWeaponDrop
p4571
sg180
I25
sg44
(lp4572
I89283061
asg35
VPT5M27.1130006S
p4573
sg183
I15
sg184
VP0DT0H0M13.7000S
p4574
sg39
(dp4575
g41
VE6 Huke HCS
p4576
sg43
Nssa(dp4577
g38
I313138863
sg39
(dp4578
g41
VCLG Frosty HCS
p4579
sg43
Nssg44
(lp4580
I1095363701
asg32
VWeaponPickup
p4581
sg35
VPT5M29.2440014S
p4582
sa(dp4583
g38
I4096745987
sg39
(dp4584
g41
VCLG Frosty HCS
p4585
sg43
Nssg44
(lp4586
I2758383128
asg32
VWeaponPickup
p4587
sg35
VPT5M29.2450006S
p4588
sa(dp4589
g32
VPlayerSpawn
p4590
sg39
(dp4591
g41
VCLG Frosty HCS
p4592
sg43
Nssg35
VPT5M29.2450006S
p4593
sa(dp4594
g38
I313138863
sg39
(dp4595
g41
VCLG Royal 2
p4596
sg43
Nssg44
(lp4597
I1095363701
asg32
VWeaponPickup
p4598
sg35
VPT5M30.4440006S
p4599
sa(dp4600
g38
I4096745987
sg39
(dp4601
g41
VCLG Royal 2
p4602
sg43
Nssg44
(lp4603
I2758383128
asg32
VWeaponPickup
p4604
sg35
VPT5M30.4440006S
p4605
sa(dp4606
g32
VPlayerSpawn
p4607
sg39
(dp4608
g41
VCLG Royal 2
p4609
sg43
Nssg35
VPT5M30.4440006S
p4610
sa(dp4611
g32
VMedal
p4612
sg39
(dp4613
g41
VCLG LethuL HCS
p4614
sg43
Nssg274
I3565443938
sg35
VPT5M30.4450008S
p4615
sa(dp4616
g32
VMedal
p4617
sg39
(dp4618
g41
VCLG Snake Bite
p4619
sg43
Nssg274
I3565443938
sg35
VPT5M30.4450008S
p4620
sa(dp4621
g32
VMedal
p4622
sg39
(dp4623
g41
VE6 Cratos HCS
p4624
sg43
Nssg274
I3565443938
sg35
VPT5M34.6600005S
p4625
sa(dp4626
g32
VMedal
p4627
sg39
(dp4628
g41
VE6 Shooter
p4629
sg43
Nssg274
I3565443938
sg35
VPT5M34.6600005S
p4630
sa(dp4631
g38
I313138863
sg39
(dp4632
g41
VE6 Huke HCS
p4633
sg43
Nssg44
(lp4634
I1095363701
asg32
VWeaponPickup
p4635
sg35
VPT5M35.1280008S
p4636
sa(dp4637
g38
I4096745987
sg39
(dp4638
g41
VE6 Huke HCS
p4639
sg43
Nssg44
(lp4640
I2758383128
asg32
VWeaponPickup
p4641
sg35
VPT5M35.1280008S
p4642
sa(dp4643
g32
VPlayerSpawn
p4644
sg39
(dp4645
g41
VE6 Huke HCS
p4646
sg43
Nssg35
VPT5M35.1280008S
p4647
sa(dp4648
g38
I4096745987
sg32
VWeaponDrop
p4649
sg180
I0
sg44
(lp4650
I2758383128
asg35
VPT5M37.1759985S
p4651
sg183
I0
sg184
VP0DT0H0M1.0667S
p4652
sg39
(dp4653
g41
VE6 Huke HCS
p4654
sg43
Nssa(dp4655
g38
I4108759423
sg39
(dp4656
g41
VE6 Huke HCS
p4657
sg43
Nssg44
(lp4658
I2758383128
asg32
VWeaponPickup
p4659
sg35
VPT5M37.1759985S
p4660
sa(dp4661
g240
I4108759423
sg241
I00
sg242
I00
sg243
(dp4662
g41
VE6 Huke HCS
p4663
sg43
Nssg246
(lp4664
I2758383128
asg248
I00
sg249
I01
sg250
I1
sg251
I0
sg252
I1
sg253
(dp4665
Vy
F21.171205499999999
sVx
F5.2295230000000004
sVz
F1.5000038099999999
ssg255
(dp4666
Vy
F16.727025999999999
sVx
F-10.127471
sVz
F2.3450669999999998
ssg257
I00
sg258
(dp4667
g41
VCLG Snake Bite
p4668
sg43
Nssg262
(lp4669
sg264
(lp4670
sg266
I01
sg35
VPT5M40.6770009S
p4671
sg32
VDeath
p4672
sg269
I1
sa(dp4673
g32
VImpulse
p4674
sg39
(dp4675
g41
VE6 Huke HCS
p4676
sg43
Nssg357
I3174430457
sg35
VPT5M40.6780002S
p4677
sa(dp4678
g32
VMedal
p4679
sg39
(dp4680
g41
VE6 Huke HCS
p4681
sg43
Nssg274
I3098362934
sg35
VPT5M40.6790021S
p4682
sa(dp4683
g38
I313138863
sg32
VWeaponDrop
p4684
sg180
I6
sg44
(lp4685
I1095363701
asg35
VPT5M40.6790021S
p4686
sg183
I0
sg184
VP0DT0H0M4.4333S
p4687
sg39
(dp4688
g41
VCLG Snake Bite
p4689
sg43
Nssa(dp4690
g38
I4096745987
sg32
VWeaponDrop
p4691
sg180
I5
sg44
(lp4692
I2758383128
asg35
VPT5M40.6790021S
p4693
sg183
I0
sg184
VP0DT0H0M13.3667S
p4694
sg39
(dp4695
g41
VCLG Snake Bite
p4696
sg43
Nssa(dp4697
g240
I4096745987
sg241
I00
sg242
I00
sg243
(dp4698
g41
VCLG LethuL HCS
p4699
sg43
Nssg246
(lp4700
I2758383128
asg248
I00
sg249
I01
sg250
I1
sg251
I0
sg252
I1
sg253
(dp4701
Vy
F8.4170829999999999
sVx
F-6.1696270000000002
sVz
F0.33777225
ssg255
(dp4702
Vy
F14.56453
sVx
F-7.8798193899999998
sVz
F-2.94999981
ssg257
I00
sg258
(dp4703
g41
VE6 bubu dubu
p4704
sg43
Nssg262
(lp4705
sg264
(lp4706
(dp4707
g41
VCLG Frosty HCS
p4708
sg43
Nsasg266
I01
sg35
VPT5M44.4600001S
p4709
sg32
VDeath
p4710
sg269
I1
sa(dp4711
g32
VMedal
p4712
sg39
(dp4713
g41
VCLG LethuL HCS
p4714
sg43
Nssg274
I3261908037
sg35
VPT5M44.4610007S
p4715
sa(dp4716
g38
I723388907
sg32
VWeaponDrop
p4717
sg180
I30
sg44
(lp4718
I89283061
asg35
VPT5M44.4620003S
p4719
sg183
I15
sg184
VP0DT0H0M14.0667S
p4720
sg39
(dp4721
g41
VE6 bubu dubu
p4722
sg43
Nssa(dp4723
g38
I424645655
sg32
VWeaponDrop
p4724
sg180
I0
sg44
(lp4725
I1327094800
asg35
VPT5M44.4620003S
p4726
sg183
I0
sg184
VP0DT0H0M17.2833S
p4727
sg39
(dp4728
g41
VE6 bubu dubu
p4729
sg43
Nssa(dp4730
g38
I313138863
sg39
(dp4731
g41
VCLG Snake Bite
p4732
sg43
Nssg44
(lp4733
I1095363701
asg32
VWeaponPickup
p4734
sg35
VPT5M48.6929999S
p4735
sa(dp4736
g38
I4096745987
sg39
(dp4737
g41
VCLG Snake Bite
p4738
sg43
Nssg44
(lp4739
I2758383128
asg32
VWeaponPickup
p4740
sg35
VPT5M48.6940005S
p4741
sa(dp4742
g32
VPlayerSpawn
p4743
sg39
(dp4744
g41
VCLG Snake Bite
p4745
sg43
Nssg35
VPT5M48.6940005S
p4746
sa(dp4747
g240
I4096745987
sg241
I00
sg242
I00
sg243
(dp4748
g41
VCLG Frosty HCS
p4749
sg43
Nssg246
(lp4750
I2758383128
asg248
I00
sg249
I01
sg250
I1
sg251
I0
sg252
I1
sg253
(dp4751
Vy
F22.1398163
sVx
F-8.9205760000000005
sVz
F1.69997311
ssg255
(dp4752
Vy
F19.995737099999999
sVx
F4.4359903300000001
sVz
F1.50029886
ssg257
I00
sg258
(dp4753
g41
VE6 Huke HCS
p4754
sg43
Nssg262
(lp4755
sg264
(lp4756
(dp4757
g41
VCLG Royal 2
p4758
sg43
Nsasg266
I01
sg35
VPT5M51.8760007S
p4759
sg32
VDeath
p4760
sg269
I1
sa(dp4761
g32
VMedal
p4762
sg39
(dp4763
g41
VCLG Frosty HCS
p4764
sg43
Nssg274
I2838259753
sg35
VPT5M51.8760007S
p4765
sa(dp4766
g32
VImpulse
p4767
sg39
(dp4768
g41
VCLG Frosty HCS
p4769
sg43
Nssg357
I2556889090
sg35
VPT5M51.8760007S
p4770
sa(dp4771
g32
VMedal
p4772
sg39
(dp4773
g41
VCLG LethuL HCS
p4774
sg43
Nssg274
I824733727
sg35
VPT5M51.8760007S
p4775
sa(dp4776
g32
VMedal
p4777
sg39
(dp4778
g41
VCLG Frosty HCS
p4779
sg43
Nssg274
I3261908037
sg35
VPT5M51.877001S
p4780
sa(dp4781
g38
I313138863
sg32
VWeaponDrop
p4782
sg180
I0
sg44
(lp4783
I1095363701
asg35
VPT5M51.8780001S
p4784
sg183
I0
sg184
VP0DT0H0M0.9833S
p4785
sg39
(dp4786
g41
VE6 Huke HCS
p4787
sg43
Nssa(dp4788
g38
I4108759423
sg32
VWeaponDrop
p4789
sg180
I31
sg44
(lp4790
I2758383128
asg35
VPT5M51.8780001S
p4791
sg183
I18
sg184
VP0DT0H0M14.7000S
p4792
sg39
(dp4793
g41
VE6 Huke HCS
p4794
sg43
Nssa(dp4795
g38
I313138863
sg39
(dp4796
g41
VE6 bubu dubu
p4797
sg43
Nssg44
(lp4798
I1095363701
asg32
VWeaponPickup
p4799
sg35
VPT5M52.4770007S
p4800
sa(dp4801
g38
I4096745987
sg39
(dp4802
g41
VE6 bubu dubu
p4803
sg43
Nssg44
(lp4804
I2758383128
asg32
VWeaponPickup
p4805
sg35
VPT5M52.4770007S
p4806
sa(dp4807
g32
VPlayerSpawn
p4808
sg39
(dp4809
g41
VE6 bubu dubu
p4810
sg43
Nssg35
VPT5M52.4770007S
p4811
sa(dp4812
g240
I4106030681
sg241
I00
sg242
I00
sg243
(dp4813
g41
VE6 Shooter
p4814
sg43
Nssg246
(lp4815
sg248
I00
sg249
I01
sg250
I1
sg251
I0
sg252
I1
sg253
(dp4816
Vy
F9.7050889999999992
sVx
F1.78673923
sVz
F1.4982089999999999
ssg255
(dp4817
Vy
F27.772729999999999
sVx
F-10.7639952
sVz
F1.503374
ssg257
I00
sg258
(dp4818
g41
VCLG LethuL HCS
p4819
sg43
Nssg262
(lp4820
sg264
(lp4821
(dp4822
g41
VE6 Cratos HCS
p4823
sg43
Nsasg266
I00
sg35
VPT5M57.7280005S
p4824
sg32
VDeath
p4825
sg269
I1
sa(dp4826
g32
VMedal
p4827
sg39
(dp4828
g41
VE6 Shooter
p4829
sg43
Nssg274
I1351381581
sg35
VPT5M57.729S
p4830
sa(dp4831
g32
VMedal
p4832
sg39
(dp4833
g41
VE6 Shooter
p4834
sg43
Nssg274
I3491849182
sg35
VPT5M57.729S
p4835
sa(dp4836
g38
I4096745987
sg32
VWeaponDrop
p4837
sg180
I14
sg44
(lp4838
I2758383128
asg35
VPT5M57.7300005S
p4839
sg183
I4
sg184
VP0DT0H0M36.8500S
p4840
sg39
(dp4841
g41
VCLG LethuL HCS
p4842
sg43
Nssa(dp4843
g38
I313138863
sg32
VWeaponDrop
p4844
sg180
I0
sg44
(lp4845
I1095363701
asg35
VPT5M57.7310007S
p4846
sg183
I0
sg184
VP0DT0H0M0.7000S
p4847
sg39
(dp4848
g41
VCLG LethuL HCS
p4849
sg43
Nssa(dp4850
g240
I4096745987
sg241
I00
sg242
I00
sg243
(dp4851
g41
VE6 Cratos HCS
p4852
sg43
Nssg246
(lp4853
I2758383128
asg248
I00
sg249
I01
sg250
I1
sg251
I0
sg252
I1
sg253
(dp4854
Vy
F16.240469000000001
sVx
F0.13672490000000001
sVz
F-0.84457380000000004
ssg255
(dp4855
Vy
F27.798923500000001
sVx
F-3.0008606900000001
sVz
F-0.10599455200000001
ssg257
I00
sg258
(dp4856
g41
VCLG Frosty HCS
p4857
sg43
Nssg262
(lp4858
sg264
(lp4859
(dp4860
g41
VE6 Shooter
p4861
sg43
Nsasg266
I00
sg35
VPT5M58.1089997S
p4862
sg32
VDeath
p4863
sg269
I1
sa(dp4864
g38
I313138863
sg32
VWeaponDrop
p4865
sg180
I0
sg44
(lp4866
I1095363701
asg35
VPT5M58.1110002S
p4867
sg183
I0
sg184
VP0DT0H0M1.7000S
p4868
sg39
(dp4869
g41
VCLG Frosty HCS
p4870
sg43
Nssa(dp4871
g38
I4096745987
sg32
VWeaponDrop
p4872
sg180
I17
sg44
(lp4873
I2758383128
asg35
VPT5M58.1110002S
p4874
sg183
I6
sg184
VP0DT0H0M27.1667S
p4875
sg39
(dp4876
g41
VCLG Frosty HCS
p4877
sg43
Nssa(dp4878
g38
I313138863
sg39
(dp4879
g41
VE6 Huke HCS
p4880
sg43
Nssg44
(lp4881
I1095363701
asg32
VWeaponPickup
p4882
sg35
VPT5M59.8930004S
p4883
sa(dp4884
g38
I4096745987
sg39
(dp4885
g41
VE6 Huke HCS
p4886
sg43
Nssg44
(lp4887
I2758383128
asg32
VWeaponPickup
p4888
sg35
VPT5M59.8940007S
p4889
sa(dp4890
g32
VPlayerSpawn
p4891
sg39
(dp4892
g41
VE6 Huke HCS
p4893
sg43
Nssg35
VPT5M59.8940007S
p4894
sa(dp4895
g240
I313138863
sg241
I00
sg242
I00
sg243
(dp4896
g41
VCLG Royal 2
p4897
sg43
Nssg246
(lp4898
I1095363701
asg248
I00
sg249
I01
sg250
I1
sg251
I0
sg252
I1
sg253
(dp4899
Vy
F15.5946
sVx
F3.51092
sVz
F-0.70556759999999996
ssg255
(dp4900
Vy
F20.9575672
sVx
F2.8033425799999998
sVz
F-0.044478178
ssg257
I00
sg258
(dp4901
g41
VE6 Cratos HCS
p4902
sg43
Nssg262
(lp4903
sg264
(lp4904
(dp4905
g41
VCLG Frosty HCS
p4906
sg43
Nsasg266
I00
sg35
VPT6M0.2770007S
p4907
sg32
VDeath
p4908
sg269
I1
sa(dp4909
g38
I3682788176
sg32
VWeaponDrop
p4910
sg180
I1
sg44
(lp4911
I2758383128
asg35
VPT6M0.2780002S
p4912
sg183
I0
sg184
VP0DT0H0M21.8333S
p4913
sg39
(dp4914
g41
VE6 Cratos HCS
p4915
sg43
Nssa(dp4916
g38
I4096745987
sg32
VWeaponDrop
p4917
sg180
I12
sg44
(lp4918
I2758383128
asg35
VPT6M0.2780002S
p4919
sg183
I3
sg184
VP0DT0H0M19.8833S
p4920
sg39
(dp4921
g41
VE6 Cratos HCS
p4922
sg43
Nssa(dp4923
g240
I313138863
sg241
I00
sg242
I00
sg243
(dp4924
g41
VE6 Shooter
p4925
sg43
Nssg246
(lp4926
I1095363701
asg248
I00
sg249
I01
sg250
I1
sg251
I0
sg252
I1
sg253
(dp4927
Vy
F13.437382700000001
sVx
F0.96305909999999995
sVz
F-0.89672786000000004
ssg255
(dp4928
Vy
F15.811757999999999
sVx
F4.2024699999999999
sVz
F0.0132515728
ssg257
I00
sg258
(dp4929
g41
VCLG Royal 2
p4930
sg43
Nssg262
(lp4931
sg264
(lp4932
(dp4933
g41
VE6 Cratos HCS
p4934
sg43
Nsasg266
I00
sg35
VPT6M0.776001S
p4935
sg32
VDeath
p4936
sg269
I1
sa(dp4937
g32
VMedal
p4938
sg39
(dp4939
g41
VE6 Shooter
p4940
sg43
Nssg274
I2078758684
sg35
VPT6M0.7779999S
p4941
sa(dp4942
g38
I313138863
sg32
VWeaponDrop
p4943
sg180
I28
sg44
(lp4944
I1095363701
asg35
VPT6M0.7779999S
p4945
sg183
I12
sg184
VP0DT0H0M6.4667S
p4946
sg39
(dp4947
g41
VCLG Royal 2
p4948
sg43
Nssa(dp4949
g38
I4096745987
sg32
VWeaponDrop
p4950
sg180
I21
sg44
(lp4951
I2758383128
asg35
VPT6M0.7779999S
p4952
sg183
I11
sg184
VP0DT0H0M23.8667S
p4953
sg39
(dp4954
g41
VCLG Royal 2
p4955
sg43
Nssa(dp4956
g32
VMedal
p4957
sg39
(dp4958
g41
VCLG Snake Bite
p4959
sg43
Nssg274
I3565443938
sg35
VPT6M0.8920001S
p4960
sa(dp4961
g32
VMedal
p4962
sg39
(dp4963
g41
VCLG Frosty HCS
p4964
sg43
Nssg274
I1637841390
sg35
VPT6M0.8920001S
p4965
sa(dp4966
g32
VMedal
p4967
sg39
(dp4968
g41
VCLG LethuL HCS
p4969
sg43
Nssg274
I1637841390
sg35
VPT6M0.8920001S
p4970
sa(dp4971
g38
I4096745987
sg32
VWeaponDrop
p4972
sg180
I0
sg44
(lp4973
I2758383128
asg35
VPT6M2.7579988S
p4974
sg183
I0
sg184
VP0DT0H0M5.0833S
p4975
sg39
(dp4976
g41
VE6 bubu dubu
p4977
sg43
Nssa(dp4978
g38
I424645655
sg39
(dp4979
g41
VE6 bubu dubu
p4980
sg43
Nssg44
(lp4981
I1327094800
asg32
VWeaponPickup
p4982
sg35
VPT6M2.7579988S
p4983
sa(dp4984
g32
VMedal
p4985
sg39
(dp4986
g41
VE6 bubu dubu
p4987
sg43
Nssg274
I3565443938
sg35
VPT6M5.3920008S
p4988
sa(dp4989
g32
VMedal
p4990
sg39
(dp4991
g41
VE6 Huke HCS
p4992
sg43
Nssg274
I3565443938
sg35
VPT6M5.3920008S
p4993
sa(dp4994
g38
I313138863
sg39
(dp4995
g41
VCLG LethuL HCS
p4996
sg43
Nssg44
(lp4997
I1095363701
asg32
VWeaponPickup
p4998
sg35
VPT6M5.7430014S
p4999
sa(dp5000
g38
I4096745987
sg39
(dp5001
g41
VCLG LethuL HCS
p5002
sg43
Nssg44
(lp5003
I2758383128
asg32
VWeaponPickup
p5004
sg35
VPT6M5.7430014S
p5005
sa(dp5006
g32
VPlayerSpawn
p5007
sg39
(dp5008
g41
VCLG LethuL HCS
p5009
sg43
Nssg35
VPT6M5.7430014S
p5010
sa(dp5011
g38
I313138863
sg39
(dp5012
g41
VCLG Frosty HCS
p5013
sg43
Nssg44
(lp5014
I1095363701
asg32
VWeaponPickup
p5015
sg35
VPT6M6.1260006S
p5016
sa(dp5017
g38
I4096745987
sg39
(dp5018
g41
VCLG Frosty HCS
p5019
sg43
Nssg44
(lp5020
I2758383128
asg32
VWeaponPickup
p5021
sg35
VPT6M6.1260006S
p5022
sa(dp5023
g32
VPlayerSpawn
p5024
sg39
(dp5025
g41
VCLG Frosty HCS
p5026
sg43
Nssg35
VPT6M6.1270005S
p5027
sa(dp5028
g38
I313138863
sg32
VWeaponDrop
p5029
sg180
I18
sg44
(lp5030
I1095363701
asg35
VPT6M7.3250003S
p5031
sg183
I9
sg184
VP0DT0H0M14.0500S
p5032
sg39
(dp5033
g41
VE6 Shooter
p5034
sg43
Nssa(dp5035
g38
I3808094875
sg39
(dp5036
g41
VE6 Shooter
p5037
sg43
Nssg44
(lp5038
I2758383128
asg32
VWeaponPickup
p5039
sg35
VPT6M7.3250003S
p5040
sa(dp5041
g38
I313138863
sg39
(dp5042
g41
VE6 Cratos HCS
p5043
sg43
Nssg44
(lp5044
I1095363701
asg32
VWeaponPickup
p5045
sg35
VPT6M8.2930009S
p5046
sa(dp5047
g38
I4096745987
sg39
(dp5048
g41
VE6 Cratos HCS
p5049
sg43
Nssg44
(lp5050
I2758383128
asg32
VWeaponPickup
p5051
sg35
VPT6M8.2930009S
p5052
sa(dp5053
g32
VPlayerSpawn
p5054
sg39
(dp5055
g41
VE6 Cratos HCS
p5056
sg43
Nssg35
VPT6M8.2930009S
p5057
sa(dp5058
g38
I313138863
sg32
VWeaponDrop
p5059
sg180
I0
sg44
(lp5060
I1095363701
asg35
VPT6M8.3079986S
p5061
sg183
I0
sg184
VP0DT0H0M4.4667S
p5062
sg39
(dp5063
g41
VCLG Snake Bite
p5064
sg43
Nssa(dp5065
g38
I723388907
sg39
(dp5066
g41
VCLG Snake Bite
p5067
sg43
Nssg44
(lp5068
I89283061
asg32
VWeaponPickup
p5069
sg35
VPT6M8.3079986S
p5070
sa(dp5071
g38
I313138863
sg39
(dp5072
g41
VCLG Royal 2
p5073
sg43
Nssg44
(lp5074
I1095363701
asg32
VWeaponPickup
p5075
sg35
VPT6M8.7930006S
p5076
sa(dp5077
g38
I4096745987
sg39
(dp5078
g41
VCLG Royal 2
p5079
sg43
Nssg44
(lp5080
I2758383128
asg32
VWeaponPickup
p5081
sg35
VPT6M8.7930006S
p5082
sa(dp5083
g32
VPlayerSpawn
p5084
sg39
(dp5085
g41
VCLG Royal 2
p5086
sg43
Nssg35
VPT6M8.7930006S
p5087
sa(dp5088
g240
I4096745987
sg241
I00
sg242
I00
sg243
(dp5089
g41
VE6 Cratos HCS
p5090
sg43
Nssg246
(lp5091
I2758383128
asg248
I00
sg249
I01
sg250
I1
sg251
I0
sg252
I1
sg253
(dp5092
Vy
F19.72382
sVx
F9.5615989999999993
sVz
F0.68680430000000003
ssg255
(dp5093
Vy
F19.815829999999998
sVx
F4.4128280000000002
sVz
F-0.68594940000000004
ssg257
I00
sg258
(dp5094
g41
VCLG LethuL HCS
p5095
sg43
Nssg262
(lp5096
sg264
(lp5097
sg266
I01
sg35
VPT6M14.0090004S
p5098
sg32
VDeath
p5099
sg269
I1
sa(dp5100
g32
VMedal
p5101
sg39
(dp5102
g41
VE6 Cratos HCS
p5103
sg43
Nssg274
I3261908037
sg35
VPT6M14.0110001S
p5104
sa(dp5105
g38
I313138863
sg32
VWeaponDrop
p5106
sg180
I0
sg44
(lp5107
I1095363701
asg35
VPT6M14.0110001S
p5108
sg183
I0
sg184
VP0DT0H0M0.7833S
p5109
sg39
(dp5110
g41
VCLG LethuL HCS
p5111
sg43
Nssa(dp5112
g38
I4096745987
sg32
VWeaponDrop
p5113
sg180
I6
sg44
(lp5114
I2758383128
asg35
VPT6M14.0110001S
p5115
sg183
I4
sg184
VP0DT0H0M7.4833S
p5116
sg39
(dp5117
g41
VCLG LethuL HCS
p5118
sg43
Nssa(dp5119
g240
I4106030681
sg241
I00
sg242
I00
sg243
(dp5120
g41
VCLG Frosty HCS
p5121
sg43
Nssg246
(lp5122
sg248
I00
sg249
I01
sg250
I1
sg251
I0
sg252
I1
sg253
(dp5123
Vy
F4.9086294199999996
sVx
F-10.852388400000001
sVz
F-0.89674735100000003
ssg255
(dp5124
Vy
F5.7732159999999997
sVx
F-17.925550000000001
sVz
F0.080135464700000006
ssg257
I00
sg258
(dp5125
g41
VE6 Huke HCS
p5126
sg43
Nssg262
(lp5127
sg264
(lp5128
(dp5129
g41
VCLG Snake Bite
p5130
sg43
Nsasg266
I00
sg35
VPT6M16.6250001S
p5131
sg32
VDeath
p5132
sg269
I1
sa(dp5133
g32
VMedal
p5134
sg39
(dp5135
g41
VCLG Frosty HCS
p5136
sg43
Nssg274
I2838259753
sg35
VPT6M16.626S
p5137
sa(dp5138
g32
VImpulse
p5139
sg39
(dp5140
g41
VCLG Frosty HCS
p5141
sg43
Nssg357
I2556889090
sg35
VPT6M16.626S
p5142
sa(dp5143
g38
I313138863
sg32
VWeaponDrop
p5144
sg180
I15
sg44
(lp5145
I1095363701
asg35
VPT6M16.6279999S
p5146
sg183
I11
sg184
VP0DT0H0M10.4833S
p5147
sg39
(dp5148
g41
VE6 Huke HCS
p5149
sg43
Nssa(dp5150
g38
I4096745987
sg32
VWeaponDrop
p5151
sg180
I4
sg44
(lp5152
I2758383128
asg35
VPT6M16.6279999S
p5153
sg183
I3
sg184
VP0DT0H0M6.2500S
p5154
sg39
(dp5155
g41
VE6 Huke HCS
p5156
sg43
Nssa(dp5157
g240
I4096745987
sg241
I00
sg242
I00
sg243
(dp5158
g41
VE6 Huke HCS
p5159
sg43
Nssg246
(lp5160
I2758383128
asg248
I00
sg249
I01
sg250
I1
sg251
I0
sg252
I1
sg253
(dp5161
Vy
F5.5489654499999999
sVx
F-18.1901665
sVz
F0.22599351400000001
ssg255
(dp5162
Vy
F1.30131745
sVx
F-7.8993450000000003
sVz
F-0.0027628539999999999
ssg257
I00
sg258
(dp5163
g41
VCLG Snake Bite
p5164
sg43
Nssg262
(lp5165
sg264
(lp5166
sg266
I01
sg35
VPT6M16.7090006S
p5167
sg32
VDeath
p5168
sg269
I1
sa(dp5169
g32
VMedal
p5170
sg39
(dp5171
g41
VE6 Huke HCS
p5172
sg43
Nssg274
I1351381581
sg35
VPT6M16.7100001S
p5173
sa(dp5174
g32
VMedal
p5175
sg39
(dp5176
g41
VE6 Huke HCS
p5177
sg43
Nssg274
I3261908037
sg35
VPT6M16.7110003S
p5178
sa(dp5179
g38
I723388907
sg32
VWeaponDrop
p5180
sg180
I0
sg44
(lp5181
I89283061
asg35
VPT6M16.7110003S
p5182
sg183
I0
sg184
VP0DT0H0M0.4667S
p5183
sg39
(dp5184
g41
VCLG Snake Bite
p5185
sg43
Nssa(dp5186
g38
I4096745987
sg32
VWeaponDrop
p5187
sg180
I10
sg44
(lp5188
I2758383128
asg35
VPT6M16.7110003S
p5189
sg183
I4
sg184
VP0DT0H0M23.0833S
p5190
sg39
(dp5191
g41
VCLG Snake Bite
p5192
sg43
Nssa(dp5193
g240
I4096745987
sg241
I00
sg242
I00
sg243
(dp5194
g41
VE6 Shooter
p5195
sg43
Nssg246
(lp5196
I2758383128
asg248
I00
sg249
I01
sg250
I1
sg251
I0
sg252
I1
sg253
(dp5197
Vy
F11.5596008
sVx
F-1.6343541100000001
sVz
F-0.86872059999999995
ssg255
(dp5198
Vy
F5.0910215399999998
sVx
F-12.0122938
sVz
F-0.89674010000000004
ssg257
I00
sg258
(dp5199
g41
VCLG Frosty HCS
p5200
sg43
Nssg262
(lp5201
sg264
(lp5202
(dp5203
g41
VE6 Huke HCS
p5204
sg43
Nsasg266
I01
sg35
VPT6M17.0920002S
p5205
sg32
VDeath
p5206
sg269
I1
sa(dp5207
g32
VMedal
p5208
sg39
(dp5209
g41
VE6 Shooter
p5210
sg43
Nssg274
I1351381581
sg35
VPT6M17.0930007S
p5211
sa(dp5212
g32
VMedal
p5213
sg39
(dp5214
g41
VE6 Shooter
p5215
sg43
Nssg274
I3261908037
sg35
VPT6M17.0930007S
p5216
sa(dp5217
g38
I313138863
sg32
VWeaponDrop
p5218
sg180
I8
sg44
(lp5219
I1095363701
asg35
VPT6M17.0939996S
p5220
sg183
I1
sg184
VP0DT0H0M9.3000S
p5221
sg39
(dp5222
g41
VCLG Frosty HCS
p5223
sg43
Nssa(dp5224
g38
I4096745987
sg32
VWeaponDrop
p5225
sg180
I0
sg44
(lp5226
I2758383128
asg35
VPT6M17.0939996S
p5227
sg183
I0
sg184
VP0DT0H0M1.6667S
p5228
sg39
(dp5229
g41
VCLG Frosty HCS
p5230
sg43
Nssa(dp5231
g32
VMedal
p5232
sg39
(dp5233
g41
VE6 bubu dubu
p5234
sg43
Nssg274
I2916014239
sg35
VPT6M17.6080003S
p5235
sa(dp5236
g240
I313138863
sg241
I00
sg242
I00
sg243
(dp5237
g41
VE6 bubu dubu
p5238
sg43
Nssg246
(lp5239
I1095363701
asg248
I00
sg249
I01
sg250
I1
sg251
I0
sg252
I1
sg253
(dp5240
Vy
F2.31409574
sVx
F-14.867965699999999
sVz
F-0.89674770000000004
ssg255
(dp5241
Vy
F8.0215060000000005
sVx
F-18.144371
sVz
F0.096900135299999995
ssg257
I00
sg258
(dp5242
g41
VCLG Royal 2
p5243
sg43
Nssg262
(lp5244
sg264
(lp5245
(dp5246
g41
VE6 Shooter
p5247
sg43
Nsasg266
I00
sg35
VPT6M18.9590002S
p5248
sg32
VDeath
p5249
sg269
I1
sa(dp5250
g38
I313138863
sg32
VWeaponDrop
p5251
sg180
I0
sg44
(lp5252
I1095363701
asg35
VPT6M18.9609997S
p5253
sg183
I0
sg184
VP0DT0H0M1.0333S
p5254
sg39
(dp5255
g41
VCLG Royal 2
p5256
sg43
Nssa(dp5257
g38
I4096745987
sg32
VWeaponDrop
p5258
sg180
I5
sg44
(lp5259
I2758383128
asg35
VPT6M18.9609997S
p5260
sg183
I2
sg184
VP0DT0H0M9.1333S
p5261
sg39
(dp5262
g41
VCLG Royal 2
p5263
sg43
Nssa(dp5264
g38
I313138863
sg39
(dp5265
g41
VCLG LethuL HCS
p5266
sg43
Nssg44
(lp5267
I1095363701
asg32
VWeaponPickup
p5268
sg35
VPT6M22.0260006S
p5269
sa(dp5270
g38
I4096745987
sg39
(dp5271
g41
VCLG LethuL HCS
p5272
sg43
Nssg44
(lp5273
I2758383128
asg32
VWeaponPickup
p5274
sg35
VPT6M22.0260006S
p5275
sa(dp5276
g32
VPlayerSpawn
p5277
sg39
(dp5278
g41
VCLG LethuL HCS
p5279
sg43
Nssg35
VPT6M22.0260006S
p5280
sa(dp5281
g32
VRoundEnd
p5282
sg34
I0
sg35
VPT6M23.3080004S
p5283
sassb.