ccopy_reg
_reconstructor
p1
(c__main__
match_breakdown
p2
c__builtin__
object
p3
NtRp4
(dp5
S'details'
p6
(dp7
VIsCompleteSetOfEvents
p8
I01
sVLinks
p9
(dp10
VUgcFilmManifest
p11
(dp12
VAuthenticationLifetimeExtensionSupported
p13
I00
sVQueryString
p14
V?view=film-manifest
p15
sVRetryPolicyId
p16
Vexponentialretry
p17
sVPath
p18
V/h5/films/0b7c17e5-2050-470e-a29f-36a610c9da78
p19
sVAcknowledgementTypeId
p20
I0
sVAuthorityId
p21
Vugc
p22
sVTopicName
p23
V
ssVStatsMatchDetails
p24
(dp25
g13
I00
sg14
Nsg16
Vexponentialretry
p26
sg18
Vh5/custom/matches/0b7c17e5-2050-470e-a29f-36a610c9da78
p27
sg20
I0
sg21
Vspartanstats
p28
sg23
V
sssVGameEvents
p29
(lp30
(dp31
VEventName
p32
VRoundStart
p33
sVRoundIndex
p34
I0
sVTimeSinceStart
p35
VPT0.0270246S
p36
sa(dp37
VWeaponStockId
p38
I313138863
sVPlayer
p39
(dp40
VGamertag
p41
VOG ACE HCS
p42
sVXuid
p43
NssVWeaponAttachmentIds
p44
(lp45
I1095363701
asg32
VWeaponPickup
p46
sg35
VPT17.5949084S
p47
sa(dp48
g38
I4096745987
sg39
(dp49
g41
VOG ACE HCS
p50
sg43
Nssg44
(lp51
I2758383128
asg32
VWeaponPickup
p52
sg35
VPT17.5949084S
p53
sa(dp54
g32
VPlayerSpawn
p55
sg39
(dp56
g41
VOG ACE HCS
p57
sg43
Nssg35
VPT17.5949084S
p58
sa(dp59
g38
I313138863
sg39
(dp60
g41
VOG Maniac HCS
p61
sg43
Nssg44
(lp62
I1095363701
asg32
VWeaponPickup
p63
sg35
VPT17.6108892S
p64
sa(dp65
g38
I4096745987
sg39
(dp66
g41
VOG Maniac HCS
p67
sg43
Nssg44
(lp68
I2758383128
asg32
VWeaponPickup
p69
sg35
VPT17.6108892S
p70
sa(dp71
g32
VPlayerSpawn
p72
sg39
(dp73
g41
VOG Maniac HCS
p74
sg43
Nssg35
VPT17.6108892S
p75
sa(dp76
g38
I313138863
sg39
(dp77
g41
VOG Str8 SickHCS
p78
sg43
Nssg44
(lp79
I1095363701
asg32
VWeaponPickup
p80
sg35
VPT17.6279109S
p81
sa(dp82
g38
I4096745987
sg39
(dp83
g41
VOG Str8 SickHCS
p84
sg43
Nssg44
(lp85
I2758383128
asg32
VWeaponPickup
p86
sg35
VPT17.6279109S
p87
sa(dp88
g32
VPlayerSpawn
p89
sg39
(dp90
g41
VOG Str8 SickHCS
p91
sg43
Nssg35
VPT17.6279109S
p92
sa(dp93
g38
I313138863
sg39
(dp94
g41
VOG APG HCS
p95
sg43
Nssg44
(lp96
I1095363701
asg32
VWeaponPickup
p97
sg35
VPT17.6449106S
p98
sa(dp99
g38
I4096745987
sg39
(dp100
g41
VOG APG HCS
p101
sg43
Nssg44
(lp102
I2758383128
asg32
VWeaponPickup
p103
sg35
VPT17.6449106S
p104
sa(dp105
g32
VPlayerSpawn
p106
sg39
(dp107
g41
VOG APG HCS
p108
sg43
Nssg35
VPT17.6449106S
p109
sa(dp110
g38
I313138863
sg39
(dp111
g41
VRNG Penguin HCS
p112
sg43
Nssg44
(lp113
I1095363701
asg32
VWeaponPickup
p114
sg35
VPT17.6608891S
p115
sa(dp116
g38
I4096745987
sg39
(dp117
g41
VRNG Penguin HCS
p118
sg43
Nssg44
(lp119
I2758383128
asg32
VWeaponPickup
p120
sg35
VPT17.6619118S
p121
sa(dp122
g32
VPlayerSpawn
p123
sg39
(dp124
g41
VRNG Penguin HCS
p125
sg43
Nssg35
VPT17.6619118S
p126
sa(dp127
g38
I313138863
sg39
(dp128
g41
VRNG Commonly
p129
sg43
Nssg44
(lp130
I1095363701
asg32
VWeaponPickup
p131
sg35
VPT17.6779121S
p132
sa(dp133
g38
I4096745987
sg39
(dp134
g41
VRNG Commonly
p135
sg43
Nssg44
(lp136
I2758383128
asg32
VWeaponPickup
p137
sg35
VPT17.6779121S
p138
sa(dp139
g32
VPlayerSpawn
p140
sg39
(dp141
g41
VRNG Commonly
p142
sg43
Nssg35
VPT17.6779121S
p143
sa(dp144
g38
I313138863
sg39
(dp145
g41
VRNG Ninja HCS
p146
sg43
Nssg44
(lp147
I1095363701
asg32
VWeaponPickup
p148
sg35
VPT17.6949055S
p149
sa(dp150
g38
I4096745987
sg39
(dp151
g41
VRNG Ninja HCS
p152
sg43
Nssg44
(lp153
I2758383128
asg32
VWeaponPickup
p154
sg35
VPT17.6949055S
p155
sa(dp156
g32
VPlayerSpawn
p157
sg39
(dp158
g41
VRNG Ninja HCS
p159
sg43
Nssg35
VPT17.6949055S
p160
sa(dp161
g38
I313138863
sg39
(dp162
g41
VRNG Victory X
p163
sg43
Nssg44
(lp164
I1095363701
asg32
VWeaponPickup
p165
sg35
VPT17.7108881S
p166
sa(dp167
g38
I4096745987
sg39
(dp168
g41
VRNG Victory X
p169
sg43
Nssg44
(lp170
I2758383128
asg32
VWeaponPickup
p171
sg35
VPT17.7119132S
p172
sa(dp173
g32
VPlayerSpawn
p174
sg39
(dp175
g41
VRNG Victory X
p176
sg43
Nssg35
VPT17.7119132S
p177
sa(dp178
g38
I4096745987
sg32
VWeaponDrop
p179
sVShotsFired
p180
I0
sg44
(lp181
I2758383128
asg35
VPT20.9928861S
p182
sVShotsLanded
p183
I0
sVTimeWeaponActiveAsPrimary
p184
VP0DT0H0M2.3333S
p185
sg39
(dp186
g41
VRNG Victory X
p187
sg43
Nssa(dp188
g38
I424645655
sg39
(dp189
g41
VRNG Victory X
p190
sg43
Nssg44
(lp191
I1327094800
asg32
VWeaponPickup
p192
sg35
VPT20.9928861S
p193
sa(dp194
g38
I4096745987
sg32
VWeaponDrop
p195
sg180
I0
sg44
(lp196
I2758383128
asg35
VPT21.4428844S
p197
sg183
I0
sg184
VP0DT0H0M1.2500S
p198
sg39
(dp199
g41
VOG ACE HCS
p200
sg43
Nssa(dp201
g38
I424645655
sg39
(dp202
g41
VOG ACE HCS
p203
sg43
Nssg44
(lp204
I1327094800
asg32
VWeaponPickup
p205
sg35
VPT21.4428844S
p206
sa(dp207
VKillerWeaponStockId
p208
I4096745987
sVIsAssassination
p209
I00
sVIsMelee
p210
I00
sVKiller
p211
(dp212
g41
VRNG Ninja HCS
p213
sg43
NssVKillerWeaponAttachmentIds
p214
(lp215
I2758383128
asVIsGroundPound
p216
I00
sVIsWeapon
p217
I01
sVDeathDisposition
p218
I1
sVVictimStockId
p219
I0
sVVictimAgent
p220
I1
sVKillerWorldLocation
p221
(dp222
Vy
F5.7663510000000002
sVx
F-3.18512678
sVz
F4.3608856200000004
ssVVictimWorldLocation
p223
(dp224
Vy
F-6.4944160000000002
sVx
F9.3431130000000007
sVz
F4.5443470000000001
ssVIsShoulderBash
p225
I00
sVVictim
p226
(dp227
g41
VOG APG HCS
p228
sg43
NssVVictimAttachmentIds
p229
(lp230
sVAssistants
p231
(lp232
(dp233
g41
VRNG Penguin HCS
p234
sg43
NsasVIsHeadshot
p235
I01
sg35
VPT23.4458733S
p236
sg32
VDeath
p237
sVKillerAgent
p238
I1
sa(dp239
g32
VMedal
p240
sg39
(dp241
g41
VRNG Ninja HCS
p242
sg43
NssVMedalId
p243
I3261908037
sg35
VPT23.4488745S
p244
sa(dp245
g32
VMedal
p246
sg39
(dp247
g41
VRNG Ninja HCS
p248
sg43
Nssg243
I3001183151
sg35
VPT23.4488745S
p249
sa(dp250
g38
I313138863
sg32
VWeaponDrop
p251
sg180
I0
sg44
(lp252
I1095363701
asg35
VPT23.4718528S
p253
sg183
I0
sg184
VP0DT0H0M1.0167S
p254
sg39
(dp255
g41
VOG APG HCS
p256
sg43
Nssa(dp257
g38
I4096745987
sg32
VWeaponDrop
p258
sg180
I0
sg44
(lp259
I2758383128
asg35
VPT23.4718528S
p260
sg183
I0
sg184
VP0DT0H0M4.7833S
p261
sg39
(dp262
g41
VOG APG HCS
p263
sg43
Nssa(dp264
g38
I2492868984
sg39
(dp265
g41
VOG Str8 SickHCS
p266
sg43
Nssg44
(lp267
I2758383128
asg32
VWeaponPickup
p268
sg35
VPT25.6768372S
p269
sa(dp270
g208
I4106030681
sg209
I00
sg210
I00
sg211
(dp271
g41
VRNG Ninja HCS
p272
sg43
Nssg214
(lp273
sg216
I00
sg217
I01
sg218
I1
sg219
I0
sg220
I1
sg221
(dp274
Vy
F0.102368534
sVx
F-2.03120923
sVz
F4.3816323300000004
ssg223
(dp275
Vy
F3.8932235199999998
sVx
F5.9307556200000002
sVz
F3.2007184
ssg225
I00
sg226
(dp276
g41
VOG Str8 SickHCS
p277
sg43
Nssg229
(lp278
sg231
(lp279
sg235
I00
sg35
VPT26.1598346S
p280
sg32
VDeath
p281
sg238
I1
sa(dp282
g32
VMedal
p283
sg39
(dp284
g41
VRNG Ninja HCS
p285
sg43
Nssg243
I2078758684
sg35
VPT26.160858S
p286
sa(dp287
g38
I313138863
sg32
VWeaponDrop
p288
sg180
I0
sg44
(lp289
I1095363701
asg35
VPT26.1618561S
p290
sg183
I0
sg184
VP0DT0H0M0.9167S
p291
sg39
(dp292
g41
VOG Str8 SickHCS
p293
sg43
Nssa(dp294
g38
I4096745987
sg32
VWeaponDrop
p295
sg180
I0
sg44
(lp296
I2758383128
asg35
VPT26.1618561S
p297
sg183
I0
sg184
VP0DT0H0M7.2833S
p298
sg39
(dp299
g41
VOG Str8 SickHCS
p300
sg43
Nssa(dp301
g38
I2492868984
sg32
VWeaponDrop
p302
sg180
I0
sg44
(lp303
I2758383128
asg35
VPT26.1618561S
p304
sg183
I0
sg184
VP0DT0H0M0.3333S
p305
sg39
(dp306
g41
VOG Str8 SickHCS
p307
sg43
Nssa(dp308
g208
I4096745987
sg209
I00
sg210
I00
sg211
(dp309
g41
VOG Maniac HCS
p310
sg43
Nssg214
(lp311
I2758383128
asg216
I00
sg217
I01
sg218
I1
sg219
I0
sg220
I1
sg221
(dp312
Vy
F-3.7630615199999999
sVx
F5.8373850000000003
sVz
F0.80006384799999997
ssg223
(dp313
Vy
F2.6083343000000001
sVx
F-2.0348568
sVz
F3.2008185400000002
ssg225
I00
sg226
(dp314
g41
VRNG Ninja HCS
p315
sg43
Nssg229
(lp316
sg231
(lp317
sg235
I01
sg35
VPT27.4438263S
p318
sg32
VDeath
p319
sg238
I1
sa(dp320
g32
VMedal
p321
sg39
(dp322
g41
VOG Maniac HCS
p323
sg43
Nssg243
I3261908037
sg35
VPT27.445851S
p324
sa(dp325
g38
I313138863
sg32
VWeaponDrop
p326
sg180
I0
sg44
(lp327
I1095363701
asg35
VPT27.4468532S
p328
sg183
I0
sg184
VP0DT0H0M0.9333S
p329
sg39
(dp330
g41
VRNG Ninja HCS
p331
sg43
Nssa(dp332
g38
I4096745987
sg32
VWeaponDrop
p333
sg180
I10
sg44
(lp334
I2758383128
asg35
VPT27.4468532S
p335
sg183
I5
sg184
VP0DT0H0M8.8167S
p336
sg39
(dp337
g41
VRNG Ninja HCS
p338
sg43
Nssa(dp339
g208
I4106030681
sg209
I00
sg210
I00
sg211
(dp340
g41
VRNG Victory X
p341
sg43
Nssg214
(lp342
sg216
I00
sg217
I01
sg218
I1
sg219
I0
sg220
I1
sg221
(dp343
Vy
F-4.2632732400000002
sVx
F4.9658730000000002
sVz
F0.80003654999999996
ssg223
(dp344
Vy
F-5.1957545300000003
sVx
F9.3755469999999992
sVz
F0.81080509999999995
ssg225
I00
sg226
(dp345
g41
VOG Maniac HCS
p346
sg43
Nssg229
(lp347
sg231
(lp348
(dp349
g41
VRNG Penguin HCS
p350
sg43
Nsasg235
I00
sg35
VPT29.8438103S
p351
sg32
VDeath
p352
sg238
I1
sa(dp353
g38
I313138863
sg32
VWeaponDrop
p354
sg180
I3
sg44
(lp355
I1095363701
asg35
VPT29.8458112S
p356
sg183
I0
sg184
VP0DT0H0M2.0500S
p357
sg39
(dp358
g41
VOG Maniac HCS
p359
sg43
Nssa(dp360
g38
I4096745987
sg32
VWeaponDrop
p361
sg180
I9
sg44
(lp362
I2758383128
asg35
VPT29.8458112S
p363
sg183
I5
sg184
VP0DT0H0M10.1833S
p364
sg39
(dp365
g41
VOG Maniac HCS
p366
sg43
Nssa(dp367
g38
I313138863
sg39
(dp368
g41
VOG APG HCS
p369
sg43
Nssg44
(lp370
I1095363701
asg32
VWeaponPickup
p371
sg35
VPT31.4597993S
p372
sa(dp373
g38
I4096745987
sg39
(dp374
g41
VOG APG HCS
p375
sg43
Nssg44
(lp376
I2758383128
asg32
VWeaponPickup
p377
sg35
VPT31.4608195S
p378
sa(dp379
g32
VPlayerSpawn
p380
sg39
(dp381
g41
VOG APG HCS
p382
sg43
Nssg35
VPT31.4608195S
p383
sa(dp384
g38
I313138863
sg32
VWeaponDrop
p385
sg180
I0
sg44
(lp386
I1095363701
asg35
VPT31.6088184S
p387
sg183
I0
sg184
VP0DT0H0M2.1833S
p388
sg39
(dp389
g41
VRNG Penguin HCS
p390
sg43
Nssa(dp391
g38
I2511447508
sg39
(dp392
g41
VRNG Penguin HCS
p393
sg43
Nssg44
(lp394
I2758383128
asg32
VWeaponPickup
p395
sg35
VPT31.6088184S
p396
sa(dp397
g38
I313138863
sg32
VWeaponDrop
p398
sg180
I0
sg44
(lp399
I1095363701
asg35
VPT33.3588114S
p400
sg183
I0
sg184
VP0DT0H0M1.9667S
p401
sg39
(dp402
g41
VRNG Victory X
p403
sg43
Nssa(dp404
g38
I2133511419
sg39
(dp405
g41
VRNG Victory X
p406
sg43
Nssg44
(lp407
I2758383128
asg32
VWeaponPickup
p408
sg35
VPT33.3588114S
p409
sa(dp410
g38
I313138863
sg39
(dp411
g41
VOG Str8 SickHCS
p412
sg43
Nssg44
(lp413
I1095363701
asg32
VWeaponPickup
p414
sg35
VPT34.1767835S
p415
sa(dp416
g38
I4096745987
sg39
(dp417
g41
VOG Str8 SickHCS
p418
sg43
Nssg44
(lp419
I2758383128
asg32
VWeaponPickup
p420
sg35
VPT34.177814S
p421
sa(dp422
g32
VPlayerSpawn
p423
sg39
(dp424
g41
VOG Str8 SickHCS
p425
sg43
Nssg35
VPT34.177814S
p426
sa(dp427
g38
I313138863
sg39
(dp428
g41
VRNG Ninja HCS
p429
sg43
Nssg44
(lp430
I1095363701
asg32
VWeaponPickup
p431
sg35
VPT35.460794S
p432
sa(dp433
g38
I4096745987
sg39
(dp434
g41
VRNG Ninja HCS
p435
sg43
Nssg44
(lp436
I2758383128
asg32
VWeaponPickup
p437
sg35
VPT35.460794S
p438
sa(dp439
g32
VPlayerSpawn
p440
sg39
(dp441
g41
VRNG Ninja HCS
p442
sg43
Nssg35
VPT35.460794S
p443
sa(dp444
g38
I313138863
sg32
VWeaponDrop
p445
sg180
I0
sg44
(lp446
I1095363701
asg35
VPT35.6417999S
p447
sg183
I0
sg184
VP0DT0H0M1.1167S
p448
sg39
(dp449
g41
VOG Str8 SickHCS
p450
sg43
Nssa(dp451
g38
I524558978
sg39
(dp452
g41
VOG Str8 SickHCS
p453
sg43
Nssg44
(lp454
I2758383128
asg32
VWeaponPickup
p455
sg35
VPT35.6427966S
p456
sa(dp457
g38
I313138863
sg39
(dp458
g41
VOG Maniac HCS
p459
sg43
Nssg44
(lp460
I1095363701
asg32
VWeaponPickup
p461
sg35
VPT37.859759S
p462
sa(dp463
g38
I4096745987
sg39
(dp464
g41
VOG Maniac HCS
p465
sg43
Nssg44
(lp466
I2758383128
asg32
VWeaponPickup
p467
sg35
VPT37.8607787S
p468
sa(dp469
g32
VPlayerSpawn
p470
sg39
(dp471
g41
VOG Maniac HCS
p472
sg43
Nssg35
VPT37.8607787S
p473
sa(dp474
g208
I313138863
sg209
I00
sg210
I00
sg211
(dp475
g41
VRNG Commonly
p476
sg43
Nssg214
(lp477
I1095363701
asg216
I00
sg217
I01
sg218
I1
sg219
I0
sg220
I1
sg221
(dp478
Vy
F10.810175900000001
sVx
F21.982885400000001
sVz
F-0.0019527077700000001
ssg223
(dp479
Vy
F12.8240786
sVx
F22.346363100000001
sVz
F-0.00312867761
ssg225
I00
sg226
(dp480
g41
VOG ACE HCS
p481
sg43
Nssg229
(lp482
sg231
(lp483
(dp484
g41
VRNG Penguin HCS
p485
sg43
Nsa(dp486
g41
VRNG Victory X
p487
sg43
Nsasg235
I00
sg35
VPT38.5597541S
p488
sg32
VDeath
p489
sg238
I1
sa(dp490
g32
VMedal
p491
sg39
(dp492
g41
VRNG Commonly
p493
sg43
Nssg243
I3148489433
sg35
VPT38.5597541S
p494
sa(dp495
g38
I313138863
sg32
VWeaponDrop
p496
sg180
I0
sg44
(lp497
I1095363701
asg35
VPT38.5617739S
p498
sg183
I0
sg184
VP0DT0H0M2.6000S
p499
sg39
(dp500
g41
VOG ACE HCS
p501
sg43
Nssa(dp502
g38
I424645655
sg32
VWeaponDrop
p503
sg180
I30
sg44
(lp504
I1327094800
asg35
VPT38.5617739S
p505
sg183
I9
sg184
VP0DT0H0M17.1167S
p506
sg39
(dp507
g41
VOG ACE HCS
p508
sg43
Nssa(dp509
g38
I313138863
sg32
VWeaponDrop
p510
sg180
I16
sg44
(lp511
I1095363701
asg35
VPT42.7747536S
p512
sg183
I4
sg184
VP0DT0H0M20.7833S
p513
sg39
(dp514
g41
VRNG Commonly
p515
sg43
Nssa(dp516
g38
I669296699
sg39
(dp517
g41
VRNG Commonly
p518
sg43
Nssg44
(lp519
I2758383128
asg32
VWeaponPickupPad
p520
sg35
VPT42.7757485S
p521
sa(dp522
g38
I669296699
sg39
(dp523
g41
VRNG Commonly
p524
sg43
Nssg44
(lp525
I2758383128
asg32
VWeaponPickup
p526
sg35
VPT42.7767467S
p527
sa(dp528
g208
I4106030681
sg209
I00
sg210
I00
sg211
(dp529
g41
VOG Maniac HCS
p530
sg43
Nssg214
(lp531
sg216
I00
sg217
I01
sg218
I1
sg219
I0
sg220
I1
sg221
(dp532
Vy
F-5.4467907000000002
sVx
F2.2897734600000001
sVz
F5.1541040000000002
ssg223
(dp533
Vy
F-3.8614679999999999
sVx
F14.325282100000001
sVz
F1.6750004300000001
ssg225
I00
sg226
(dp534
g41
VRNG Ninja HCS
p535
sg43
Nssg229
(lp536
sg231
(lp537
(dp538
g41
VOG APG HCS
p539
sg43
Nsasg235
I00
sg35
VPT45.4757103S
p540
sg32
VDeath
p541
sg238
I1
sa(dp542
g38
I313138863
sg32
VWeaponDrop
p543
sg180
I0
sg44
(lp544
I1095363701
asg35
VPT45.4777332S
p545
sg183
I0
sg184
VP0DT0H0M0.9000S
p546
sg39
(dp547
g41
VRNG Ninja HCS
p548
sg43
Nssa(dp549
g38
I4096745987
sg32
VWeaponDrop
p550
sg180
I7
sg44
(lp551
I2758383128
asg35
VPT45.4777332S
p552
sg183
I2
sg184
VP0DT0H0M9.1167S
p553
sg39
(dp554
g41
VRNG Ninja HCS
p555
sg43
Nssa(dp556
g38
I313138863
sg39
(dp557
g41
VOG ACE HCS
p558
sg43
Nssg44
(lp559
I1095363701
asg32
VWeaponPickup
p560
sg35
VPT46.5767227S
p561
sa(dp562
g38
I4096745987
sg39
(dp563
g41
VOG ACE HCS
p564
sg43
Nssg44
(lp565
I2758383128
asg32
VWeaponPickup
p566
sg35
VPT46.5767227S
p567
sa(dp568
g32
VPlayerSpawn
p569
sg39
(dp570
g41
VOG ACE HCS
p571
sg43
Nssg35
VPT46.5767227S
p572
sa(dp573
g38
I313138863
sg32
VWeaponDrop
p574
sg180
I0
sg44
(lp575
I1095363701
asg35
VPT49.4577078S
p576
sg183
I0
sg184
VP0DT0H0M1.6667S
p577
sg39
(dp578
g41
VOG Maniac HCS
p579
sg43
Nssa(dp580
g38
I723388907
sg39
(dp581
g41
VOG Maniac HCS
p582
sg43
Nssg44
(lp583
I89283061
asg32
VWeaponPickup
p584
sg35
VPT49.458685S
p585
sa(dp586
g208
I424645655
sg209
I00
sg210
I00
sg211
(dp587
g41
VRNG Victory X
p588
sg43
Nssg214
(lp589
I1327094800
asg216
I00
sg217
I01
sg218
I1
sg219
I0
sg220
I1
sg221
(dp590
Vy
F11.6394682
sVx
F8.0608229999999992
sVz
F3.7951121300000001
ssg223
(dp591
Vy
F7.2002639999999998
sVx
F3.1394672400000001
sVz
F2.7158653699999999
ssg225
I00
sg226
(dp592
g41
VOG Str8 SickHCS
p593
sg43
Nssg229
(lp594
sg231
(lp595
sg235
I01
sg35
VPT50.1256809S
p596
sg32
VDeath
p597
sg238
I1
sa(dp598
g32
VMedal
p599
sg39
(dp600
g41
VRNG Victory X
p601
sg43
Nssg243
I3261908037
sg35
VPT50.1277027S
p602
sa(dp603
g38
I524558978
sg32
VWeaponDrop
p604
sg180
I0
sg44
(lp605
I2758383128
asg35
VPT50.1277027S
p606
sg183
I0
sg184
VP0DT0H0M4.0000S
p607
sg39
(dp608
g41
VOG Str8 SickHCS
p609
sg43
Nssa(dp610
g38
I4096745987
sg32
VWeaponDrop
p611
sg180
I6
sg44
(lp612
I2758383128
asg35
VPT50.1277027S
p613
sg183
I1
sg184
VP0DT0H0M10.8333S
p614
sg39
(dp615
g41
VOG Str8 SickHCS
p616
sg43
Nssa(dp617
g38
I313138863
sg39
(dp618
g41
VRNG Ninja HCS
p619
sg43
Nssg44
(lp620
I1095363701
asg32
VWeaponPickup
p621
sg35
VPT53.4936824S
p622
sa(dp623
g38
I4096745987
sg39
(dp624
g41
VRNG Ninja HCS
p625
sg43
Nssg44
(lp626
I2758383128
asg32
VWeaponPickup
p627
sg35
VPT53.4936824S
p628
sa(dp629
g32
VPlayerSpawn
p630
sg39
(dp631
g41
VRNG Ninja HCS
p632
sg43
Nssg35
VPT53.4936824S
p633
sa(dp634
g208
I4096745987
sg209
I00
sg210
I00
sg211
(dp635
g41
VRNG Penguin HCS
p636
sg43
Nssg214
(lp637
I2758383128
asg216
I00
sg217
I01
sg218
I1
sg219
I0
sg220
I1
sg221
(dp638
Vy
F7.8747992499999997
sVx
F-3.765984
sVz
F2.3554618399999998
ssg223
(dp639
Vy
F-1.68797529
sVx
F-3.4722240000000002
sVz
F3.5503300000000002
ssg225
I00
sg226
(dp640
g41
VOG Maniac HCS
p641
sg43
Nssg229
(lp642
sg231
(lp643
sg235
I01
sg35
VPT55.6926447S
p644
sg32
VDeath
p645
sg238
I1
sa(dp646
g32
VMedal
p647
sg39
(dp648
g41
VRNG Penguin HCS
p649
sg43
Nssg243
I3261908037
sg35
VPT55.6946699S
p650
sa(dp651
g38
I723388907
sg32
VWeaponDrop
p652
sg180
I0
sg44
(lp653
I89283061
asg35
VPT55.6946699S
p654
sg183
I0
sg184
VP0DT0H0M0.5500S
p655
sg39
(dp656
g41
VOG Maniac HCS
p657
sg43
Nssa(dp658
g38
I4096745987
sg32
VWeaponDrop
p659
sg180
I7
sg44
(lp660
I2758383128
asg35
VPT55.6946699S
p661
sg183
I4
sg184
VP0DT0H0M15.6167S
p662
sg39
(dp663
g41
VOG Maniac HCS
p664
sg43
Nssa(dp665
g38
I313138863
sg39
(dp666
g41
VOG Str8 SickHCS
p667
sg43
Nssg44
(lp668
I1095363701
asg32
VWeaponPickup
p669
sg35
VPT58.1426545S
p670
sa(dp671
g38
I4096745987
sg39
(dp672
g41
VOG Str8 SickHCS
p673
sg43
Nssg44
(lp674
I2758383128
asg32
VWeaponPickup
p675
sg35
VPT58.1426545S
p676
sa(dp677
g32
VPlayerSpawn
p678
sg39
(dp679
g41
VOG Str8 SickHCS
p680
sg43
Nssg35
VPT58.1426545S
p681
sa(dp682
g38
I4096745987
sg32
VWeaponDrop
p683
sg180
I0
sg44
(lp684
I2758383128
asg35
VPT1M2.3246028S
p685
sg183
I0
sg184
VP0DT0H0M3.5833S
p686
sg39
(dp687
g41
VOG Str8 SickHCS
p688
sg43
Nssa(dp689
g38
I424645655
sg39
(dp690
g41
VOG Str8 SickHCS
p691
sg43
Nssg44
(lp692
I1327094800
asg32
VWeaponPickup
p693
sg35
VPT1M2.3246028S
p694
sa(dp695
g208
I4096745987
sg209
I00
sg210
I00
sg211
(dp696
g41
VRNG Ninja HCS
p697
sg43
Nssg214
(lp698
I2758383128
asg216
I00
sg217
I01
sg218
I1
sg219
I0
sg220
I1
sg221
(dp699
Vy
F13.4770346
sVx
F12.342517900000001
sVz
F3.3681230000000002
ssg223
(dp700
Vy
F7.7324799999999998
sVx
F17.552534099999999
sVz
F3.766953
ssg225
I00
sg226
(dp701
g41
VOG APG HCS
p702
sg43
Nssg229
(lp703
sg231
(lp704
(dp705
g41
VRNG Victory X
p706
sg43
Nsa(dp707
g41
VRNG Commonly
p708
sg43
Nsasg235
I00
sg35
VPT1M2.8915997S
p709
sg32
VDeath
p710
sg238
I1
sa(dp711
g32
VMedal
p712
sg39
(dp713
g41
VRNG Ninja HCS
p714
sg43
Nssg243
I2838259753
sg35
VPT1M2.8915997S
p715
sa(dp716
g32
VImpulse
p717
sg39
(dp718
g41
VRNG Ninja HCS
p719
sg43
NssVImpulseId
p720
I2556889090
sg35
VPT1M2.8915997S
p721
sa(dp722
g38
I313138863
sg32
VWeaponDrop
p723
sg180
I22
sg44
(lp724
I1095363701
asg35
VPT1M2.8946178S
p725
sg183
I10
sg184
VP0DT0H0M6.4000S
p726
sg39
(dp727
g41
VOG APG HCS
p728
sg43
Nssa(dp729
g38
I4096745987
sg32
VWeaponDrop
p730
sg180
I19
sg44
(lp731
I2758383128
asg35
VPT1M2.8946178S
p732
sg183
I7
sg184
VP0DT0H0M25.0333S
p733
sg39
(dp734
g41
VOG APG HCS
p735
sg43
Nssa(dp736
g38
I313138863
sg39
(dp737
g41
VOG Maniac HCS
p738
sg43
Nssg44
(lp739
I1095363701
asg32
VWeaponPickup
p740
sg35
VPT1M3.7085934S
p741
sa(dp742
g38
I4096745987
sg39
(dp743
g41
VOG Maniac HCS
p744
sg43
Nssg44
(lp745
I2758383128
asg32
VWeaponPickup
p746
sg35
VPT1M3.7095959S
p747
sa(dp748
g32
VPlayerSpawn
p749
sg39
(dp750
g41
VOG Maniac HCS
p751
sg43
Nssg35
VPT1M3.7095959S
p752
sa(dp753
g32
VMedal
p754
sg39
(dp755
g41
VRNG Victory X
p756
sg43
Nssg243
I3400287617
sg35
VPT1M4.9745957S
p757
sa(dp758
g38
I313138863
sg32
VWeaponDrop
p759
sg180
I0
sg44
(lp760
I1095363701
asg35
VPT1M5.4076083S
p761
sg183
I0
sg184
VP0DT0H0M1.1333S
p762
sg39
(dp763
g41
VOG ACE HCS
p764
sg43
Nssa(dp765
g38
I723388907
sg39
(dp766
g41
VOG ACE HCS
p767
sg43
Nssg44
(lp768
I89283061
asg32
VWeaponPickup
p769
sg35
VPT1M5.4076083S
p770
sa(dp771
g38
I313138863
sg39
(dp772
g41
VOG APG HCS
p773
sg43
Nssg44
(lp774
I1095363701
asg32
VWeaponPickup
p775
sg35
VPT1M10.9085491S
p776
sa(dp777
g38
I4096745987
sg39
(dp778
g41
VOG APG HCS
p779
sg43
Nssg44
(lp780
I2758383128
asg32
VWeaponPickup
p781
sg35
VPT1M10.9095482S
p782
sa(dp783
g32
VPlayerSpawn
p784
sg39
(dp785
g41
VOG APG HCS
p786
sg43
Nssg35
VPT1M10.9095482S
p787
sa(dp788
g208
I424645655
sg209
I00
sg210
I00
sg211
(dp789
g41
VOG Str8 SickHCS
p790
sg43
Nssg214
(lp791
I1327094800
asg216
I00
sg217
I01
sg218
I1
sg219
I0
sg220
I1
sg221
(dp792
Vy
F4.5920610000000002
sVx
F14.375636099999999
sVz
F0.75560396900000004
ssg223
(dp793
Vy
F1.7594325500000001
sVx
F17.519945100000001
sVz
F0.61424889999999999
ssg225
I00
sg226
(dp794
g41
VRNG Victory X
p795
sg43
Nssg229
(lp796
sg231
(lp797
(dp798
g41
VOG Maniac HCS
p799
sg43
Nsasg235
I01
sg35
VPT1M11.2585465S
p800
sg32
VDeath
p801
sg238
I1
sa(dp802
g32
VMedal
p803
sg39
(dp804
g41
VOG Str8 SickHCS
p805
sg43
Nssg243
I3261908037
sg35
VPT1M11.2595545S
p806
sa(dp807
g38
I2133511419
sg32
VWeaponDrop
p808
sg180
I0
sg44
(lp809
I2758383128
asg35
VPT1M11.2605579S
p810
sg183
I0
sg184
VP0DT0H0M3.6167S
p811
sg39
(dp812
g41
VRNG Victory X
p813
sg43
Nssa(dp814
g38
I424645655
sg32
VWeaponDrop
p815
sg180
I78
sg44
(lp816
I1327094800
asg35
VPT1M11.2605579S
p817
sg183
I32
sg184
VP0DT0H0M45.6333S
p818
sg39
(dp819
g41
VRNG Victory X
p820
sg43
Nssa(dp821
g38
I424645655
sg32
VWeaponDrop
p822
sg180
I0
sg44
(lp823
I1327094800
asg35
VPT1M11.2605579S
p824
sg183
I0
sg184
VP0DT0S
p825
sg39
(dp826
g41
VRNG Victory X
p827
sg43
Nssa(dp828
g208
I3190813201
sg209
I00
sg210
I00
sg211
(dp829
g41
VRNG Commonly
p830
sg43
Nssg214
(lp831
sg216
I00
sg217
I01
sg218
I1
sg219
I0
sg220
I1
sg221
(dp832
Vy
F7.2610960000000002
sVx
F21.578861199999999
sVz
F1.0811566100000001
ssg223
(dp833
Vy
F2.8616743100000002
sVx
F17.0395641
sVz
F0.46546209999999999
ssg225
I00
sg226
(dp834
g41
VOG Str8 SickHCS
p835
sg43
Nssg229
(lp836
sg231
(lp837
(dp838
g41
VRNG Victory X
p839
sg43
Nsasg235
I00
sg35
VPT1M13.0245566S
p840
sg32
VDeath
p841
sg238
I1
sa(dp842
g38
I313138863
sg32
VWeaponDrop
p843
sg180
I0
sg44
(lp844
I1095363701
asg35
VPT1M13.0265535S
p845
sg183
I0
sg184
VP0DT0H0M0.6000S
p846
sg39
(dp847
g41
VOG Str8 SickHCS
p848
sg43
Nssa(dp849
g38
I424645655
sg32
VWeaponDrop
p850
sg180
I13
sg44
(lp851
I1327094800
asg35
VPT1M13.0265535S
p852
sg183
I4
sg184
VP0DT0H0M10.7000S
p853
sg39
(dp854
g41
VOG Str8 SickHCS
p855
sg43
Nssa(dp856
g38
I424645655
sg32
VWeaponDrop
p857
sg180
I0
sg44
(lp858
I1327094800
asg35
VPT1M13.0265535S
p859
sg183
I0
sg184
VP0DT0S
p860
sg39
(dp861
g41
VOG Str8 SickHCS
p862
sg43
Nssa(dp863
g208
I313138863
sg209
I00
sg210
I00
sg211
(dp864
g41
VRNG Ninja HCS
p865
sg43
Nssg214
(lp866
I1095363701
asg216
I00
sg217
I01
sg218
I1
sg219
I0
sg220
I1
sg221
(dp867
Vy
F11.5268707
sVx
F-2.0250868799999999
sVz
F2.5299510000000001
ssg223
(dp868
Vy
F6.6764392900000002
sVx
F-3.0661723599999999
sVz
F2.45025659
ssg225
I00
sg226
(dp869
g41
VOG ACE HCS
p870
sg43
Nssg229
(lp871
sg231
(lp872
(dp873
g41
VRNG Penguin HCS
p874
sg43
Nsasg235
I00
sg35
VPT1M14.0755283S
p875
sg32
VDeath
p876
sg238
I1
sa(dp877
g38
I723388907
sg32
VWeaponDrop
p878
sg180
I0
sg44
(lp879
I89283061
asg35
VPT1M14.076549S
p880
sg183
I0
sg184
VP0DT0H0M4.3667S
p881
sg39
(dp882
g41
VOG ACE HCS
p883
sg43
Nssa(dp884
g38
I4096745987
sg32
VWeaponDrop
p885
sg180
I12
sg44
(lp886
I2758383128
asg35
VPT1M14.076549S
p887
sg183
I3
sg184
VP0DT0H0M22.0000S
p888
sg39
(dp889
g41
VOG ACE HCS
p890
sg43
Nssa(dp891
g38
I313138863
sg39
(dp892
g41
VRNG Victory X
p893
sg43
Nssg44
(lp894
I1095363701
asg32
VWeaponPickup
p895
sg35
VPT1M19.2744948S
p896
sa(dp897
g38
I4096745987
sg39
(dp898
g41
VRNG Victory X
p899
sg43
Nssg44
(lp900
I2758383128
asg32
VWeaponPickup
p901
sg35
VPT1M19.2755174S
p902
sa(dp903
g32
VPlayerSpawn
p904
sg39
(dp905
g41
VRNG Victory X
p906
sg43
Nssg35
VPT1M19.2755174S
p907
sa(dp908
g38
I313138863
sg39
(dp909
g41
VOG Str8 SickHCS
p910
sg43
Nssg44
(lp911
I1095363701
asg32
VWeaponPickup
p912
sg35
VPT1M21.0414834S
p913
sa(dp914
g38
I4096745987
sg39
(dp915
g41
VOG Str8 SickHCS
p916
sg43
Nssg44
(lp917
I2758383128
asg32
VWeaponPickup
p918
sg35
VPT1M21.0425087S
p919
sa(dp920
g32
VPlayerSpawn
p921
sg39
(dp922
g41
VOG Str8 SickHCS
p923
sg43
Nssg35
VPT1M21.0425087S
p924
sa(dp925
g38
I313138863
sg39
(dp926
g41
VOG ACE HCS
p927
sg43
Nssg44
(lp928
I1095363701
asg32
VWeaponPickup
p929
sg35
VPT1M22.0915S
p930
sa(dp931
g38
I4096745987
sg39
(dp932
g41
VOG ACE HCS
p933
sg43
Nssg44
(lp934
I2758383128
asg32
VWeaponPickup
p935
sg35
VPT1M22.0915S
p936
sa(dp937
g32
VPlayerSpawn
p938
sg39
(dp939
g41
VOG ACE HCS
p940
sg43
Nssg35
VPT1M22.0915S
p941
sa(dp942
g38
I4096745987
sg32
VWeaponDrop
p943
sg180
I0
sg44
(lp944
I2758383128
asg35
VPT1M22.6904726S
p945
sg183
I0
sg184
VP0DT0H0M3.0833S
p946
sg39
(dp947
g41
VRNG Victory X
p948
sg43
Nssa(dp949
g38
I424645655
sg39
(dp950
g41
VRNG Victory X
p951
sg43
Nssg44
(lp952
I1327094800
asg32
VWeaponPickup
p953
sg35
VPT1M22.6904726S
p954
sa(dp955
g208
I4096745987
sg209
I00
sg210
I00
sg211
(dp956
g41
VOG ACE HCS
p957
sg43
Nssg214
(lp958
I2758383128
asg216
I00
sg217
I01
sg218
I1
sg219
I0
sg220
I1
sg221
(dp959
Vy
F-10.4037428
sVx
F3.4466457400000001
sVz
F3.2007098200000001
ssg223
(dp960
Vy
F-5.7607629999999999
sVx
F-6.2185269999999999
sVz
F3.2013957500000001
ssg225
I00
sg226
(dp961
g41
VRNG Victory X
p962
sg43
Nssg229
(lp963
sg231
(lp964
(dp965
g41
VOG APG HCS
p966
sg43
Nsasg235
I01
sg35
VPT1M27.5744688S
p967
sg32
VDeath
p968
sg238
I1
sa(dp969
g32
VMedal
p970
sg39
(dp971
g41
VOG ACE HCS
p972
sg43
Nssg243
I3261908037
sg35
VPT1M27.5754671S
p973
sa(dp974
g38
I313138863
sg32
VWeaponDrop
p975
sg180
I0
sg44
(lp976
I1095363701
asg35
VPT1M27.5764648S
p977
sg183
I0
sg184
VP0DT0H0M0.3333S
p978
sg39
(dp979
g41
VRNG Victory X
p980
sg43
Nssa(dp981
g38
I424645655
sg32
VWeaponDrop
p982
sg180
I6
sg44
(lp983
I1327094800
asg35
VPT1M27.5764648S
p984
sg183
I1
sg184
VP0DT0H0M4.8833S
p985
sg39
(dp986
g41
VRNG Victory X
p987
sg43
Nssa(dp988
g208
I2511447508
sg209
I00
sg210
I00
sg211
(dp989
g41
VRNG Penguin HCS
p990
sg43
Nssg214
(lp991
I2758383128
asg216
I00
sg217
I01
sg218
I1
sg219
I0
sg220
I1
sg221
(dp992
Vy
F-4.12875748
sVx
F1.2892445299999999
sVz
F5.2003199999999996
ssg223
(dp993
Vy
F-7.7145266499999998
sVx
F-7.0379395499999999
sVz
F4.3081464799999996
ssg225
I00
sg226
(dp994
g41
VOG Str8 SickHCS
p995
sg43
Nssg229
(lp996
sg231
(lp997
(dp998
g41
VRNG Victory X
p999
sg43
Nsasg235
I01
sg35
VPT1M30.9234197S
p1000
sg32
VDeath
p1001
sg238
I1
sa(dp1002
g32
VMedal
p1003
sg39
(dp1004
g41
VRNG Penguin HCS
p1005
sg43
Nssg243
I3261908037
sg35
VPT1M30.9254382S
p1006
sa(dp1007
g38
I313138863
sg32
VWeaponDrop
p1008
sg180
I0
sg44
(lp1009
I1095363701
asg35
VPT1M30.9254382S
p1010
sg183
I0
sg184
VP0DT0H0M0.7667S
p1011
sg39
(dp1012
g41
VOG Str8 SickHCS
p1013
sg43
Nssa(dp1014
g38
I4096745987
sg32
VWeaponDrop
p1015
sg180
I0
sg44
(lp1016
I2758383128
asg35
VPT1M30.9254382S
p1017
sg183
I0
sg184
VP0DT0H0M9.1167S
p1018
sg39
(dp1019
g41
VOG Str8 SickHCS
p1020
sg43
Nssa(dp1021
g38
I313138863
sg32
VWeaponDrop
p1022
sg180
I11
sg44
(lp1023
I1095363701
asg35
VPT1M31.3394399S
p1024
sg183
I6
sg184
VP0DT0H0M6.2500S
p1025
sg39
(dp1026
g41
VRNG Ninja HCS
p1027
sg43
Nssa(dp1028
g38
I723388907
sg39
(dp1029
g41
VRNG Ninja HCS
p1030
sg43
Nssg44
(lp1031
I89283061
asg32
VWeaponPickup
p1032
sg35
VPT1M31.3394399S
p1033
sa(dp1034
g208
I2511447508
sg209
I00
sg210
I00
sg211
(dp1035
g41
VRNG Penguin HCS
p1036
sg43
Nssg214
(lp1037
I2758383128
asg216
I00
sg217
I01
sg218
I1
sg219
I0
sg220
I1
sg221
(dp1038
Vy
F-4.6463594400000003
sVx
F-0.966326833
sVz
F3.4435145899999999
ssg223
(dp1039
Vy
F-9.9013960000000001
sVx
F-3.18560314
sVz
F3.2022390000000001
ssg225
I00
sg226
(dp1040
g41
VOG ACE HCS
p1041
sg43
Nssg229
(lp1042
sg231
(lp1043
(dp1044
g41
VRNG Victory X
p1045
sg43
Nsasg235
I01
sg35
VPT1M32.0404124S
p1046
sg32
VDeath
p1047
sg238
I1
sa(dp1048
g32
VMedal
p1049
sg39
(dp1050
g41
VRNG Penguin HCS
p1051
sg43
Nssg243
I3261908037
sg35
VPT1M32.0414322S
p1052
sa(dp1053
g32
VMedal
p1054
sg39
(dp1055
g41
VRNG Penguin HCS
p1056
sg43
Nssg243
I2078758684
sg35
VPT1M32.0414322S
p1057
sa(dp1058
g38
I313138863
sg32
VWeaponDrop
p1059
sg180
I0
sg44
(lp1060
I1095363701
asg35
VPT1M32.0424303S
p1061
sg183
I0
sg184
VP0DT0H0M0.7500S
p1062
sg39
(dp1063
g41
VOG ACE HCS
p1064
sg43
Nssa(dp1065
g38
I4096745987
sg32
VWeaponDrop
p1066
sg180
I8
sg44
(lp1067
I2758383128
asg35
VPT1M32.0424303S
p1068
sg183
I5
sg184
VP0DT0H0M9.2000S
p1069
sg39
(dp1070
g41
VOG ACE HCS
p1071
sg43
Nssa(dp1072
g38
I313138863
sg39
(dp1073
g41
VRNG Victory X
p1074
sg43
Nssg44
(lp1075
I1095363701
asg32
VWeaponPickup
p1076
sg35
VPT1M35.5903901S
p1077
sa(dp1078
g38
I4096745987
sg39
(dp1079
g41
VRNG Victory X
p1080
sg43
Nssg44
(lp1081
I2758383128
asg32
VWeaponPickup
p1082
sg35
VPT1M35.5913917S
p1083
sa(dp1084
g32
VPlayerSpawn
p1085
sg39
(dp1086
g41
VRNG Victory X
p1087
sg43
Nssg35
VPT1M35.5913917S
p1088
sa(dp1089
g208
I669296699
sg209
I00
sg210
I00
sg211
(dp1090
g41
VRNG Commonly
p1091
sg43
Nssg214
(lp1092
I2758383128
asg216
I00
sg217
I01
sg218
I1
sg219
I0
sg220
I1
sg221
(dp1093
Vy
F-2.4875788700000001
sVx
F-8.4961900000000004
sVz
F3.2016365499999999
ssg223
(dp1094
Vy
F-9.5454790000000003
sVx
F0.33229345100000002
sVz
F3.94744253
ssg225
I00
sg226
(dp1095
g41
VOG APG HCS
p1096
sg43
Nssg229
(lp1097
sg231
(lp1098
(dp1099
g41
VRNG Penguin HCS
p1100
sg43
Nsasg235
I00
sg35
VPT1M37.3913778S
p1101
sg32
VDeath
p1102
sg238
I1
sa(dp1103
g32
VMedal
p1104
sg39
(dp1105
g41
VRNG Commonly
p1106
sg43
Nssg243
I2838259753
sg35
VPT1M37.3913778S
p1107
sa(dp1108
g32
VImpulse
p1109
sg39
(dp1110
g41
VRNG Commonly
p1111
sg43
Nssg720
I2556889090
sg35
VPT1M37.3913778S
p1112
sa(dp1113
g32
VMedal
p1114
sg39
(dp1115
g41
VRNG Penguin HCS
p1116
sg43
Nssg243
I3744028405
sg35
VPT1M37.3913778S
p1117
sa(dp1118
g38
I313138863
sg32
VWeaponDrop
p1119
sg180
I14
sg44
(lp1120
I1095363701
asg35
VPT1M37.3933798S
p1121
sg183
I8
sg184
VP0DT0H0M4.0667S
p1122
sg39
(dp1123
g41
VOG APG HCS
p1124
sg43
Nssa(dp1125
g38
I4096745987
sg32
VWeaponDrop
p1126
sg180
I8
sg44
(lp1127
I2758383128
asg35
VPT1M37.3933798S
p1128
sg183
I4
sg184
VP0DT0H0M22.4167S
p1129
sg39
(dp1130
g41
VOG APG HCS
p1131
sg43
Nssa(dp1132
g38
I723388907
sg32
VWeaponDrop
p1133
sg180
I0
sg44
(lp1134
I89283061
asg35
VPT1M37.6223956S
p1135
sg183
I0
sg184
VP0DT0H0M4.9667S
p1136
sg39
(dp1137
g41
VRNG Ninja HCS
p1138
sg43
Nssa(dp1139
g38
I1579758889
sg39
(dp1140
g41
VRNG Ninja HCS
p1141
sg43
Nssg44
(lp1142
I2758383128
asg32
VWeaponPickup
p1143
sg35
VPT1M37.6223956S
p1144
sa(dp1145
g38
I313138863
sg39
(dp1146
g41
VOG Str8 SickHCS
p1147
sg43
Nssg44
(lp1148
I1095363701
asg32
VWeaponPickup
p1149
sg35
VPT1M38.940369S
p1150
sa(dp1151
g38
I4096745987
sg39
(dp1152
g41
VOG Str8 SickHCS
p1153
sg43
Nssg44
(lp1154
I2758383128
asg32
VWeaponPickup
p1155
sg35
VPT1M38.9413859S
p1156
sa(dp1157
g32
VPlayerSpawn
p1158
sg39
(dp1159
g41
VOG Str8 SickHCS
p1160
sg43
Nssg35
VPT1M38.9413859S
p1161
sa(dp1162
g32
VMedal
p1163
sg39
(dp1164
g41
VRNG Penguin HCS
p1165
sg43
Nssg243
I3400287617
sg35
VPT1M39.9723635S
p1166
sa(dp1167
g38
I313138863
sg39
(dp1168
g41
VOG ACE HCS
p1169
sg43
Nssg44
(lp1170
I1095363701
asg32
VWeaponPickup
p1171
sg35
VPT1M40.0573805S
p1172
sa(dp1173
g38
I4096745987
sg39
(dp1174
g41
VOG ACE HCS
p1175
sg43
Nssg44
(lp1176
I2758383128
asg32
VWeaponPickup
p1177
sg35
VPT1M40.0573805S
p1178
sa(dp1179
g32
VPlayerSpawn
p1180
sg39
(dp1181
g41
VOG ACE HCS
p1182
sg43
Nssg35
VPT1M40.0573805S
p1183
sa(dp1184
g38
I313138863
sg39
(dp1185
g41
VOG APG HCS
p1186
sg43
Nssg44
(lp1187
I1095363701
asg32
VWeaponPickup
p1188
sg35
VPT1M45.4073493S
p1189
sa(dp1190
g38
I4096745987
sg39
(dp1191
g41
VOG APG HCS
p1192
sg43
Nssg44
(lp1193
I2758383128
asg32
VWeaponPickup
p1194
sg35
VPT1M45.4073493S
p1195
sa(dp1196
g32
VPlayerSpawn
p1197
sg39
(dp1198
g41
VOG APG HCS
p1199
sg43
Nssg35
VPT1M45.4073493S
p1200
sa(dp1201
g38
I4096745987
sg32
VWeaponDrop
p1202
sg180
I20
sg44
(lp1203
I2758383128
asg35
VPT1M46.4553428S
p1204
sg183
I12
sg184
VP0DT0H0M33.7000S
p1205
sg39
(dp1206
g41
VRNG Penguin HCS
p1207
sg43
Nssa(dp1208
g38
I313138863
sg39
(dp1209
g41
VRNG Penguin HCS
p1210
sg43
Nssg44
(lp1211
I1095363701
asg32
VWeaponPickup
p1212
sg35
VPT1M46.4553428S
p1213
sa(dp1214
g208
I4096745987
sg209
I00
sg210
I00
sg211
(dp1215
g41
VRNG Commonly
p1216
sg43
Nssg214
(lp1217
I2758383128
asg216
I00
sg217
I00
sg218
I2
sg219
I0
sg220
I0
sg221
(dp1218
Vy
F2.2506182199999998
sVx
F-4.4155150000000001
sVz
F3.1999986200000001
ssg223
(dp1219
Vy
F3.6524624800000001
sVx
F-2.4600274600000001
sVz
F3.2003424200000001
ssg225
I00
sg226
(dp1220
S'Gamertag'
p1221
S'None'
p1222
ssg229
(lp1223
sg231
(lp1224
sg235
I00
sg35
VPT1M47.2893148S
p1225
sg32
VDeath
p1226
sg238
I1
sa(dp1227
g38
I4096745987
sg32
VWeaponDrop
p1228
sg180
I0
sg44
(lp1229
I2758383128
asg35
VPT1M50.5052992S
p1230
sg183
I0
sg184
VP0DT0H0M4.3500S
p1231
sg39
(dp1232
g41
VOG APG HCS
p1233
sg43
Nssa(dp1234
g38
I424645655
sg39
(dp1235
g41
VOG APG HCS
p1236
sg43
Nssg44
(lp1237
I1327094800
asg32
VWeaponPickup
p1238
sg35
VPT1M50.5052992S
p1239
sa(dp1240
g208
I1579758889
sg209
I00
sg210
I00
sg211
(dp1241
g41
VRNG Ninja HCS
p1242
sg43
Nssg214
(lp1243
I2758383128
asg216
I00
sg217
I01
sg218
I1
sg219
I0
sg220
I1
sg221
(dp1244
Vy
F9.8908280000000008
sVx
F1.867872
sVz
F1.5927541300000001
ssg223
(dp1245
Vy
F9.4655079999999998
sVx
F14.316824
sVz
F3.1995619999999998
ssg225
I00
sg226
(dp1246
g41
VOG ACE HCS
p1247
sg43
Nssg229
(lp1248
sg231
(lp1249
(dp1250
g41
VRNG Victory X
p1251
sg43
Nsasg235
I00
sg35
VPT1M51.0232926S
p1252
sg32
VDeath
p1253
sg238
I1
sa(dp1254
g32
VMedal
p1255
sg39
(dp1256
g41
VRNG Ninja HCS
p1257
sg43
Nssg243
I2838259753
sg35
VPT1M51.0232926S
p1258
sa(dp1259
g32
VImpulse
p1260
sg39
(dp1261
g41
VRNG Ninja HCS
p1262
sg43
Nssg720
I2556889090
sg35
VPT1M51.0232926S
p1263
sa(dp1264
g38
I313138863
sg32
VWeaponDrop
p1265
sg180
I0
sg44
(lp1266
I1095363701
asg35
VPT1M51.0243091S
p1267
sg183
I0
sg184
VP0DT0H0M0.9167S
p1268
sg39
(dp1269
g41
VOG ACE HCS
p1270
sg43
Nssa(dp1271
g38
I4096745987
sg32
VWeaponDrop
p1272
sg180
I9
sg44
(lp1273
I2758383128
asg35
VPT1M51.0243091S
p1274
sg183
I5
sg184
VP0DT0H0M10.0500S
p1275
sg39
(dp1276
g41
VOG ACE HCS
p1277
sg43
Nssa(dp1278
g38
I4096745987
sg32
VWeaponDrop
p1279
sg180
I6
sg44
(lp1280
I2758383128
asg35
VPT1M54.2552911S
p1281
sg183
I3
sg184
VP0DT0H0M14.4000S
p1282
sg39
(dp1283
g41
VRNG Victory X
p1284
sg43
Nssa(dp1285
g38
I424645655
sg39
(dp1286
g41
VRNG Victory X
p1287
sg43
Nssg44
(lp1288
I1327094800
asg32
VWeaponPickup
p1289
sg35
VPT1M54.2552911S
p1290
sa(dp1291
g38
I313138863
sg39
(dp1292
g41
VOG ACE HCS
p1293
sg43
Nssg44
(lp1294
I1095363701
asg32
VWeaponPickup
p1295
sg35
VPT1M59.0392399S
p1296
sa(dp1297
g38
I4096745987
sg39
(dp1298
g41
VOG ACE HCS
p1299
sg43
Nssg44
(lp1300
I2758383128
asg32
VWeaponPickup
p1301
sg35
VPT1M59.0402591S
p1302
sa(dp1303
g32
VPlayerSpawn
p1304
sg39
(dp1305
g41
VOG ACE HCS
p1306
sg43
Nssg35
VPT1M59.0402591S
p1307
sa(dp1308
g38
I313138863
sg32
VWeaponDrop
p1309
sg180
I0
sg44
(lp1310
I1095363701
asg35
VPT1M59.4212602S
p1311
sg183
I0
sg184
VP0DT0H0M5.1833S
p1312
sg39
(dp1313
g41
VRNG Victory X
p1314
sg43
Nssa(dp1315
g38
I723388907
sg39
(dp1316
g41
VRNG Victory X
p1317
sg43
Nssg44
(lp1318
I89283061
asg32
VWeaponPickup
p1319
sg35
VPT1M59.4222631S
p1320
sa(dp1321
g208
I2511447508
sg209
I00
sg210
I00
sg211
(dp1322
g41
VRNG Penguin HCS
p1323
sg43
Nssg214
(lp1324
I2758383128
asg216
I00
sg217
I01
sg218
I1
sg219
I0
sg220
I1
sg221
(dp1325
Vy
F-1.1947225299999999
sVx
F1.81016278
sVz
F-0.0060759782799999999
ssg223
(dp1326
Vy
F6.7206710000000003
sVx
F1.8233211
sVz
F0.75154759999999998
ssg225
I00
sg226
(dp1327
g41
VOG Str8 SickHCS
p1328
sg43
Nssg229
(lp1329
sg231
(lp1330
sg235
I01
sg35
VPT2M0.0722586S
p1331
sg32
VDeath
p1332
sg238
I1
sa(dp1333
g32
VMedal
p1334
sg39
(dp1335
g41
VRNG Penguin HCS
p1336
sg43
Nssg243
I3261908037
sg35
VPT2M0.0742557S
p1337
sa(dp1338
g38
I313138863
sg32
VWeaponDrop
p1339
sg180
I0
sg44
(lp1340
I1095363701
asg35
VPT2M0.0742557S
p1341
sg183
I0
sg184
VP0DT0H0M3.0667S
p1342
sg39
(dp1343
g41
VOG Str8 SickHCS
p1344
sg43
Nssa(dp1345
g38
I4096745987
sg32
VWeaponDrop
p1346
sg180
I7
sg44
(lp1347
I2758383128
asg35
VPT2M0.0742557S
p1348
sg183
I3
sg184
VP0DT0H0M18.0667S
p1349
sg39
(dp1350
g41
VOG Str8 SickHCS
p1351
sg43
Nssa(dp1352
g208
I424645655
sg209
I00
sg210
I00
sg211
(dp1353
g41
VOG APG HCS
p1354
sg43
Nssg214
(lp1355
I1327094800
asg216
I00
sg217
I01
sg218
I1
sg219
I0
sg220
I1
sg221
(dp1356
Vy
F1.3381521700000001
sVx
F20.91743
sVz
F0.5156271
ssg223
(dp1357
Vy
F5.7401049999999998
sVx
F15.960036300000001
sVz
F3.2151071999999998
ssg225
I00
sg226
(dp1358
g41
VRNG Ninja HCS
p1359
sg43
Nssg229
(lp1360
sg231
(lp1361
sg235
I01
sg35
VPT2M0.6722507S
p1362
sg32
VDeath
p1363
sg238
I1
sa(dp1364
g32
VMedal
p1365
sg39
(dp1366
g41
VOG APG HCS
p1367
sg43
Nssg243
I3261908037
sg35
VPT2M0.6742472S
p1368
sa(dp1369
g38
I1579758889
sg32
VWeaponDrop
p1370
sg180
I6
sg44
(lp1371
I2758383128
asg35
VPT2M0.6752488S
p1372
sg183
I2
sg184
VP0DT0H0M20.9500S
p1373
sg39
(dp1374
g41
VRNG Ninja HCS
p1375
sg43
Nssa(dp1376
g38
I4096745987
sg32
VWeaponDrop
p1377
sg180
I19
sg44
(lp1378
I2758383128
asg35
VPT2M0.6752488S
p1379
sg183
I6
sg184
VP0DT0H0M35.0167S
p1380
sg39
(dp1381
g41
VRNG Ninja HCS
p1382
sg43
Nssa(dp1383
g208
I4096745987
sg209
I00
sg210
I00
sg211
(dp1384
g41
VOG Maniac HCS
p1385
sg43
Nssg214
(lp1386
I2758383128
asg216
I00
sg217
I01
sg218
I1
sg219
I0
sg220
I1
sg221
(dp1387
Vy
F6.0272536299999997
sVx
F9.3387270000000004
sVz
F0.26427102099999999
ssg223
(dp1388
Vy
F8.2220960000000005
sVx
F-0.73677870000000001
sVz
F1.6516012
ssg225
I00
sg226
(dp1389
g41
VRNG Penguin HCS
p1390
sg43
Nssg229
(lp1391
sg231
(lp1392
(dp1393
g41
VOG Str8 SickHCS
p1394
sg43
Nsasg235
I01
sg35
VPT2M3.2062141S
p1395
sg32
VDeath
p1396
sg238
I1
sa(dp1397
g32
VMedal
p1398
sg39
(dp1399
g41
VOG Maniac HCS
p1400
sg43
Nssg243
I3261908037
sg35
VPT2M3.2072358S
p1401
sa(dp1402
g38
I2511447508
sg32
VWeaponDrop
p1403
sg180
I26
sg44
(lp1404
I2758383128
asg35
VPT2M3.2072358S
p1405
sg183
I15
sg184
VP0DT0H1M7.2333S
p1406
sg39
(dp1407
g41
VRNG Penguin HCS
p1408
sg43
Nssa(dp1409
g38
I313138863
sg32
VWeaponDrop
p1410
sg180
I0
sg44
(lp1411
I1095363701
asg35
VPT2M3.2072358S
p1412
sg183
I0
sg184
VP0DT0H0M2.4333S
p1413
sg39
(dp1414
g41
VRNG Penguin HCS
p1415
sg43
Nssa(dp1416
g208
I669296699
sg209
I00
sg210
I00
sg211
(dp1417
g41
VRNG Commonly
p1418
sg43
Nssg214
(lp1419
I2758383128
asg216
I00
sg217
I01
sg218
I1
sg219
I0
sg220
I1
sg221
(dp1420
Vy
F-4.258705
sVx
F1.1916998599999999
sVz
F5.2003199999999996
ssg223
(dp1421
Vy
F4.9799113300000002
sVx
F19.39367
sVz
F1.0495363499999999
ssg225
I00
sg226
(dp1422
g41
VOG APG HCS
p1423
sg43
Nssg229
(lp1424
sg231
(lp1425
(dp1426
g41
VRNG Ninja HCS
p1427
sg43
Nsasg235
I01
sg35
VPT2M5.3722032S
p1428
sg32
VDeath
p1429
sg238
I1
sa(dp1430
g32
VMedal
p1431
sg39
(dp1432
g41
VRNG Commonly
p1433
sg43
Nssg243
I848240062
sg35
VPT2M5.3732276S
p1434
sa(dp1435
g38
I313138863
sg32
VWeaponDrop
p1436
sg180
I0
sg44
(lp1437
I1095363701
asg35
VPT2M5.3742228S
p1438
sg183
I0
sg184
VP0DT0H0M0.7500S
p1439
sg39
(dp1440
g41
VOG APG HCS
p1441
sg43
Nssa(dp1442
g38
I424645655
sg32
VWeaponDrop
p1443
sg180
I18
sg44
(lp1444
I1327094800
asg35
VPT2M5.3742228S
p1445
sg183
I11
sg184
VP0DT0H0M14.8667S
p1446
sg39
(dp1447
g41
VOG APG HCS
p1448
sg43
Nssa(dp1449
g38
I313138863
sg39
(dp1450
g41
VOG Str8 SickHCS
p1451
sg43
Nssg44
(lp1452
I1095363701
asg32
VWeaponPickup
p1453
sg35
VPT2M8.0891839S
p1454
sa(dp1455
g38
I4096745987
sg39
(dp1456
g41
VOG Str8 SickHCS
p1457
sg43
Nssg44
(lp1458
I2758383128
asg32
VWeaponPickup
p1459
sg35
VPT2M8.0901993S
p1460
sa(dp1461
g32
VPlayerSpawn
p1462
sg39
(dp1463
g41
VOG Str8 SickHCS
p1464
sg43
Nssg35
VPT2M8.0901993S
p1465
sa(dp1466
g38
I313138863
sg39
(dp1467
g41
VRNG Ninja HCS
p1468
sg43
Nssg44
(lp1469
I1095363701
asg32
VWeaponPickup
p1470
sg35
VPT2M8.6891991S
p1471
sa(dp1472
g38
I4096745987
sg39
(dp1473
g41
VRNG Ninja HCS
p1474
sg43
Nssg44
(lp1475
I2758383128
asg32
VWeaponPickup
p1476
sg35
VPT2M8.6891991S
p1477
sa(dp1478
g32
VPlayerSpawn
p1479
sg39
(dp1480
g41
VRNG Ninja HCS
p1481
sg43
Nssg35
VPT2M8.6902017S
p1482
sa(dp1483
g38
I313138863
sg39
(dp1484
g41
VRNG Penguin HCS
p1485
sg43
Nssg44
(lp1486
I1095363701
asg32
VWeaponPickup
p1487
sg35
VPT2M11.2221612S
p1488
sa(dp1489
g38
I4096745987
sg39
(dp1490
g41
VRNG Penguin HCS
p1491
sg43
Nssg44
(lp1492
I2758383128
asg32
VWeaponPickup
p1493
sg35
VPT2M11.223184S
p1494
sa(dp1495
g32
VPlayerSpawn
p1496
sg39
(dp1497
g41
VRNG Penguin HCS
p1498
sg43
Nssg35
VPT2M11.223184S
p1499
sa(dp1500
g38
I313138863
sg32
VWeaponDrop
p1501
sg180
I0
sg44
(lp1502
I1095363701
asg35
VPT2M13.2371714S
p1503
sg183
I0
sg184
VP0DT0H0M0.8833S
p1504
sg39
(dp1505
g41
VOG ACE HCS
p1506
sg43
Nssa(dp1507
g38
I524558978
sg39
(dp1508
g41
VOG ACE HCS
p1509
sg43
Nssg44
(lp1510
I2758383128
asg32
VWeaponPickup
p1511
sg35
VPT2M13.2381501S
p1512
sa(dp1513
g38
I313138863
sg39
(dp1514
g41
VOG APG HCS
p1515
sg43
Nssg44
(lp1516
I1095363701
asg32
VWeaponPickup
p1517
sg35
VPT2M13.3891724S
p1518
sa(dp1519
g38
I4096745987
sg39
(dp1520
g41
VOG APG HCS
p1521
sg43
Nssg44
(lp1522
I2758383128
asg32
VWeaponPickup
p1523
sg35
VPT2M13.3891724S
p1524
sa(dp1525
g32
VPlayerSpawn
p1526
sg39
(dp1527
g41
VOG APG HCS
p1528
sg43
Nssg35
VPT2M13.3891724S
p1529
sa(dp1530
g208
I4096745987
sg209
I00
sg210
I00
sg211
(dp1531
g41
VRNG Ninja HCS
p1532
sg43
Nssg214
(lp1533
I2758383128
asg216
I00
sg217
I01
sg218
I1
sg219
I0
sg220
I1
sg221
(dp1534
Vy
F5.0273870000000001
sVx
F8.4561320000000002
sVz
F4.8572480000000002
ssg223
(dp1535
Vy
F-6.1218019999999997
sVx
F7.59147835
sVz
F3.7767357800000001
ssg225
I00
sg226
(dp1536
g41
VOG Str8 SickHCS
p1537
sg43
Nssg229
(lp1538
sg231
(lp1539
sg235
I01
sg35
VPT2M15.7051325S
p1540
sg32
VDeath
p1541
sg238
I1
sa(dp1542
g32
VMedal
p1543
sg39
(dp1544
g41
VRNG Ninja HCS
p1545
sg43
Nssg243
I3261908037
sg35
VPT2M15.707151S
p1546
sa(dp1547
g38
I313138863
sg32
VWeaponDrop
p1548
sg180
I0
sg44
(lp1549
I1095363701
asg35
VPT2M15.707151S
p1550
sg183
I0
sg184
VP0DT0H0M0.8500S
p1551
sg39
(dp1552
g41
VOG Str8 SickHCS
p1553
sg43
Nssa(dp1554
g38
I4096745987
sg32
VWeaponDrop
p1555
sg180
I0
sg44
(lp1556
I2758383128
asg35
VPT2M15.707151S
p1557
sg183
I0
sg184
VP0DT0H0M6.7667S
p1558
sg39
(dp1559
g41
VOG Str8 SickHCS
p1560
sg43
Nssa(dp1561
g38
I4096745987
sg32
VWeaponDrop
p1562
sg180
I5
sg44
(lp1563
I2758383128
asg35
VPT2M18.9041316S
p1564
sg183
I3
sg184
VP0DT0H0M4.8000S
p1565
sg39
(dp1566
g41
VOG APG HCS
p1567
sg43
Nssa(dp1568
g38
I424645655
sg39
(dp1569
g41
VOG APG HCS
p1570
sg43
Nssg44
(lp1571
I1327094800
asg32
VWeaponPickup
p1572
sg35
VPT2M18.9041316S
p1573
sa(dp1574
g208
I669296699
sg209
I00
sg210
I00
sg211
(dp1575
g41
VRNG Commonly
p1576
sg43
Nssg214
(lp1577
I2758383128
asg216
I00
sg217
I01
sg218
I1
sg219
I0
sg220
I1
sg221
(dp1578
Vy
F12.769982300000001
sVx
F-6.8221616699999998
sVz
F1.5994852799999999
ssg223
(dp1579
Vy
F6.5308909999999996
sVx
F-10.072339100000001
sVz
F1.6007041900000001
ssg225
I00
sg226
(dp1580
g41
VOG Maniac HCS
p1581
sg43
Nssg229
(lp1582
sg231
(lp1583
(dp1584
g41
VRNG Ninja HCS
p1585
sg43
Nsasg235
I01
sg35
VPT2M21.6880946S
p1586
sg32
VDeath
p1587
sg238
I1
sa(dp1588
g32
VMedal
p1589
sg39
(dp1590
g41
VRNG Commonly
p1591
sg43
Nssg243
I1986137636
sg35
VPT2M21.6891158S
p1592
sa(dp1593
g32
VMedal
p1594
sg39
(dp1595
g41
VRNG Commonly
p1596
sg43
Nssg243
I2430242797
sg35
VPT2M21.6891158S
p1597
sa(dp1598
g38
I313138863
sg32
VWeaponDrop
p1599
sg180
I0
sg44
(lp1600
I1095363701
asg35
VPT2M21.690119S
p1601
sg183
I0
sg184
VP0DT0H0M5.7167S
p1602
sg39
(dp1603
g41
VOG Maniac HCS
p1604
sg43
Nssa(dp1605
g38
I4096745987
sg32
VWeaponDrop
p1606
sg180
I20
sg44
(lp1607
I2758383128
asg35
VPT2M21.690119S
p1608
sg183
I11
sg184
VP0DT0H1M12.2667S
p1609
sg39
(dp1610
g41
VOG Maniac HCS
p1611
sg43
Nssa(dp1612
g38
I313138863
sg39
(dp1613
g41
VOG Str8 SickHCS
p1614
sg43
Nssg44
(lp1615
I1095363701
asg32
VWeaponPickup
p1616
sg35
VPT2M23.7221004S
p1617
sa(dp1618
g38
I4096745987
sg39
(dp1619
g41
VOG Str8 SickHCS
p1620
sg43
Nssg44
(lp1621
I2758383128
asg32
VWeaponPickup
p1622
sg35
VPT2M23.7221004S
p1623
sa(dp1624
g32
VPlayerSpawn
p1625
sg39
(dp1626
g41
VOG Str8 SickHCS
p1627
sg43
Nssg35
VPT2M23.7221004S
p1628
sa(dp1629
g208
I4096745987
sg209
I00
sg210
I00
sg211
(dp1630
g41
VOG ACE HCS
p1631
sg43
Nssg214
(lp1632
I2758383128
asg216
I00
sg217
I01
sg218
I1
sg219
I0
sg220
I1
sg221
(dp1633
Vy
F5.9584270000000004
sVx
F-1.5045963499999999
sVz
F3.6205759999999998
ssg223
(dp1634
Vy
F11.316388099999999
sVx
F4.5968390000000001
sVz
F3.0697886900000002
ssg225
I00
sg226
(dp1635
g41
VRNG Penguin HCS
p1636
sg43
Nssg229
(lp1637
sg231
(lp1638
(dp1639
g41
VOG APG HCS
p1640
sg43
Nsasg235
I01
sg35
VPT2M24.4050769S
p1641
sg32
VDeath
p1642
sg238
I1
sa(dp1643
g32
VMedal
p1644
sg39
(dp1645
g41
VOG ACE HCS
p1646
sg43
Nssg243
I3261908037
sg35
VPT2M24.4061003S
p1647
sa(dp1648
g38
I313138863
sg32
VWeaponDrop
p1649
sg180
I0
sg44
(lp1650
I1095363701
asg35
VPT2M24.4070793S
p1651
sg183
I0
sg184
VP0DT0H0M1.3333S
p1652
sg39
(dp1653
g41
VRNG Penguin HCS
p1654
sg43
Nssa(dp1655
g38
I4096745987
sg32
VWeaponDrop
p1656
sg180
I2
sg44
(lp1657
I2758383128
asg35
VPT2M24.4070793S
p1658
sg183
I1
sg184
VP0DT0H0M11.8500S
p1659
sg39
(dp1660
g41
VRNG Penguin HCS
p1661
sg43
Nssa(dp1662
g208
I4096745987
sg209
I00
sg210
I00
sg211
(dp1663
g41
VRNG Commonly
p1664
sg43
Nssg214
(lp1665
I2758383128
asg216
I00
sg217
I01
sg218
I1
sg219
I0
sg220
I1
sg221
(dp1666
Vy
F13.172867800000001
sVx
F-3.8417940000000002
sVz
F2.6975784300000001
ssg223
(dp1667
Vy
F6.6644899999999998
sVx
F-0.61240079999999997
sVz
F1.5900363900000001
ssg225
I00
sg226
(dp1668
g41
VOG ACE HCS
p1669
sg43
Nssg229
(lp1670
sg231
(lp1671
(dp1672
g41
VRNG Victory X
p1673
sg43
Nsasg235
I01
sg35
VPT2M26.5880626S
p1674
sg32
VDeath
p1675
sg238
I1
sa(dp1676
g32
VMedal
p1677
sg39
(dp1678
g41
VRNG Commonly
p1679
sg43
Nssg243
I3261908037
sg35
VPT2M26.5890634S
p1680
sa(dp1681
g32
VMedal
p1682
sg39
(dp1683
g41
VRNG Commonly
p1684
sg43
Nssg243
I2078758684
sg35
VPT2M26.5890634S
p1685
sa(dp1686
g38
I524558978
sg32
VWeaponDrop
p1687
sg180
I2
sg44
(lp1688
I2758383128
asg35
VPT2M26.5900864S
p1689
sg183
I0
sg184
VP0DT0H0M8.3500S
p1690
sg39
(dp1691
g41
VOG ACE HCS
p1692
sg43
Nssa(dp1693
g38
I4096745987
sg32
VWeaponDrop
p1694
sg180
I16
sg44
(lp1695
I2758383128
asg35
VPT2M26.5900864S
p1696
sg183
I8
sg184
VP0DT0H0M18.3167S
p1697
sg39
(dp1698
g41
VOG ACE HCS
p1699
sg43
Nssa(dp1700
g38
I313138863
sg39
(dp1701
g41
VOG Maniac HCS
p1702
sg43
Nssg44
(lp1703
I1095363701
asg32
VWeaponPickup
p1704
sg35
VPT2M29.7050655S
p1705
sa(dp1706
g38
I4096745987
sg39
(dp1707
g41
VOG Maniac HCS
p1708
sg43
Nssg44
(lp1709
I2758383128
asg32
VWeaponPickup
p1710
sg35
VPT2M29.7050655S
p1711
sa(dp1712
g32
VPlayerSpawn
p1713
sg39
(dp1714
g41
VOG Maniac HCS
p1715
sg43
Nssg35
VPT2M29.7050655S
p1716
sa(dp1717
g208
I4106030681
sg209
I00
sg210
I00
sg211
(dp1718
g41
VOG Str8 SickHCS
p1719
sg43
Nssg214
(lp1720
sg216
I00
sg217
I01
sg218
I1
sg219
I0
sg220
I1
sg221
(dp1721
Vy
F-8.2707090000000001
sVx
F6.8774550000000003
sVz
F3.2011766399999999
ssg223
(dp1722
Vy
F5.7413263299999997
sVx
F8.3202189999999998
sVz
F3.2005543699999999
ssg225
I00
sg226
(dp1723
g41
VRNG Ninja HCS
p1724
sg43
Nssg229
(lp1725
sg231
(lp1726
(dp1727
g41
VOG APG HCS
p1728
sg43
Nsasg235
I00
sg35
VPT2M29.8210423S
p1729
sg32
VDeath
p1730
sg238
I1
sa(dp1731
g38
I313138863
sg32
VWeaponDrop
p1732
sg180
I0
sg44
(lp1733
I1095363701
asg35
VPT2M29.8220625S
p1734
sg183
I0
sg184
VP0DT0H0M0.3333S
p1735
sg39
(dp1736
g41
VRNG Ninja HCS
p1737
sg43
Nssa(dp1738
g38
I4096745987
sg32
VWeaponDrop
p1739
sg180
I17
sg44
(lp1740
I2758383128
asg35
VPT2M29.8220625S
p1741
sg183
I8
sg184
VP0DT0H0M20.8000S
p1742
sg39
(dp1743
g41
VRNG Ninja HCS
p1744
sg43
Nssa(dp1745
g208
I723388907
sg209
I00
sg210
I00
sg211
(dp1746
g41
VRNG Victory X
p1747
sg43
Nssg214
(lp1748
I89283061
asg216
I00
sg217
I01
sg218
I1
sg219
I0
sg220
I1
sg221
(dp1749
Vy
F1.3455327699999999
sVx
F3.4980289999999998
sVz
F0.43619477699999998
ssg223
(dp1750
Vy
F-3.5639859999999999
sVx
F2.01909852
sVz
F0.79995550000000004
ssg225
I00
sg226
(dp1751
g41
VOG APG HCS
p1752
sg43
Nssg229
(lp1753
sg231
(lp1754
(dp1755
g41
VRNG Ninja HCS
p1756
sg43
Nsasg235
I00
sg35
VPT2M31.2550445S
p1757
sg32
VDeath
p1758
sg238
I1
sa(dp1759
g38
I313138863
sg32
VWeaponDrop
p1760
sg180
I0
sg44
(lp1761
I1095363701
asg35
VPT2M31.2560356S
p1762
sg183
I0
sg184
VP0DT0H0M0.7167S
p1763
sg39
(dp1764
g41
VOG APG HCS
p1765
sg43
Nssa(dp1766
g38
I424645655
sg32
VWeaponDrop
p1767
sg180
I28
sg44
(lp1768
I1327094800
asg35
VPT2M31.2560356S
p1769
sg183
I10
sg184
VP0DT0H0M12.3500S
p1770
sg39
(dp1771
g41
VOG APG HCS
p1772
sg43
Nssa(dp1773
g38
I313138863
sg39
(dp1774
g41
VRNG Penguin HCS
p1775
sg43
Nssg44
(lp1776
I1095363701
asg32
VWeaponPickup
p1777
sg35
VPT2M32.4210264S
p1778
sa(dp1779
g38
I4096745987
sg39
(dp1780
g41
VRNG Penguin HCS
p1781
sg43
Nssg44
(lp1782
I2758383128
asg32
VWeaponPickup
p1783
sg35
VPT2M32.4220449S
p1784
sa(dp1785
g32
VPlayerSpawn
p1786
sg39
(dp1787
g41
VRNG Penguin HCS
p1788
sg43
Nssg35
VPT2M32.4220449S
p1789
sa(dp1790
g38
I2492868984
sg39
(dp1791
g41
VOG Str8 SickHCS
p1792
sg43
Nssg44
(lp1793
I2758383128
asg32
VWeaponPickup
p1794
sg35
VPT2M34.0710281S
p1795
sa(dp1796
g208
I4096745987
sg209
I00
sg210
I00
sg211
(dp1797
g41
VRNG Penguin HCS
p1798
sg43
Nssg214
(lp1799
I2758383128
asg216
I00
sg217
I01
sg218
I1
sg219
I0
sg220
I1
sg221
(dp1800
Vy
F11.400155099999999
sVx
F-3.39522433
sVz
F1.60634911
ssg223
(dp1801
Vy
F3.4592051499999998
sVx
F6.9636040000000001
sVz
F3.2007184
ssg225
I00
sg226
(dp1802
g41
VOG Str8 SickHCS
p1803
sg43
Nssg229
(lp1804
sg231
(lp1805
(dp1806
g41
VRNG Commonly
p1807
sg43
Nsasg235
I01
sg35
VPT2M34.204014S
p1808
sg32
VDeath
p1809
sg238
I1
sa(dp1810
g32
VMedal
p1811
sg39
(dp1812
g41
VRNG Penguin HCS
p1813
sg43
Nssg243
I3261908037
sg35
VPT2M34.2060353S
p1814
sa(dp1815
g38
I313138863
sg32
VWeaponDrop
p1816
sg180
I0
sg44
(lp1817
I1095363701
asg35
VPT2M34.2060353S
p1818
sg183
I0
sg184
VP0DT0H0M0.8167S
p1819
sg39
(dp1820
g41
VOG Str8 SickHCS
p1821
sg43
Nssa(dp1822
g38
I4096745987
sg32
VWeaponDrop
p1823
sg180
I2
sg44
(lp1824
I2758383128
asg35
VPT2M34.2060353S
p1825
sg183
I1
sg184
VP0DT0H0M9.6667S
p1826
sg39
(dp1827
g41
VOG Str8 SickHCS
p1828
sg43
Nssa(dp1829
g38
I313138863
sg39
(dp1830
g41
VOG ACE HCS
p1831
sg43
Nssg44
(lp1832
I1095363701
asg32
VWeaponPickup
p1833
sg35
VPT2M34.6050367S
p1834
sa(dp1835
g38
I4096745987
sg39
(dp1836
g41
VOG ACE HCS
p1837
sg43
Nssg44
(lp1838
I2758383128
asg32
VWeaponPickup
p1839
sg35
VPT2M34.6050367S
p1840
sa(dp1841
g32
VPlayerSpawn
p1842
sg39
(dp1843
g41
VOG ACE HCS
p1844
sg43
Nssg35
VPT2M34.6050367S
p1845
sa(dp1846
g38
I313138863
sg39
(dp1847
g41
VRNG Ninja HCS
p1848
sg43
Nssg44
(lp1849
I1095363701
asg32
VWeaponPickup
p1850
sg35
VPT2M37.8379916S
p1851
sa(dp1852
g38
I4096745987
sg39
(dp1853
g41
VRNG Ninja HCS
p1854
sg43
Nssg44
(lp1855
I2758383128
asg32
VWeaponPickup
p1856
sg35
VPT2M37.8379916S
p1857
sa(dp1858
g32
VPlayerSpawn
p1859
sg39
(dp1860
g41
VRNG Ninja HCS
p1861
sg43
Nssg35
VPT2M37.8379916S
p1862
sa(dp1863
g38
I313138863
sg39
(dp1864
g41
VOG APG HCS
p1865
sg43
Nssg44
(lp1866
I1095363701
asg32
VWeaponPickup
p1867
sg35
VPT2M39.2709827S
p1868
sa(dp1869
g38
I4096745987
sg39
(dp1870
g41
VOG APG HCS
p1871
sg43
Nssg44
(lp1872
I2758383128
asg32
VWeaponPickup
p1873
sg35
VPT2M39.2720002S
p1874
sa(dp1875
g32
VPlayerSpawn
p1876
sg39
(dp1877
g41
VOG APG HCS
p1878
sg43
Nssg35
VPT2M39.2720002S
p1879
sa(dp1880
g38
I313138863
sg32
VWeaponDrop
p1881
sg180
I0
sg44
(lp1882
I1095363701
asg35
VPT2M39.386004S
p1883
sg183
I0
sg184
VP0DT0H0M2.0833S
p1884
sg39
(dp1885
g41
VRNG Penguin HCS
p1886
sg43
Nssa(dp1887
g38
I2511447508
sg39
(dp1888
g41
VRNG Penguin HCS
p1889
sg43
Nssg44
(lp1890
I2758383128
asg32
VWeaponPickup
p1891
sg35
VPT2M39.3870022S
p1892
sa(dp1893
g38
I4096745987
sg32
VWeaponDrop
p1894
sg180
I0
sg44
(lp1895
I2758383128
asg35
VPT2M39.6359987S
p1896
sg183
I0
sg184
VP0DT0H0M1.0167S
p1897
sg39
(dp1898
g41
VRNG Ninja HCS
p1899
sg43
Nssa(dp1900
g38
I424645655
sg39
(dp1901
g41
VRNG Ninja HCS
p1902
sg43
Nssg44
(lp1903
I1327094800
asg32
VWeaponPickup
p1904
sg35
VPT2M39.6369983S
p1905
sa(dp1906
g38
I313138863
sg39
(dp1907
g41
VOG Str8 SickHCS
p1908
sg43
Nssg44
(lp1909
I1095363701
asg32
VWeaponPickup
p1910
sg35
VPT2M42.2209692S
p1911
sa(dp1912
g38
I4096745987
sg39
(dp1913
g41
VOG Str8 SickHCS
p1914
sg43
Nssg44
(lp1915
I2758383128
asg32
VWeaponPickup
p1916
sg35
VPT2M42.2209692S
p1917
sa(dp1918
g32
VPlayerSpawn
p1919
sg39
(dp1920
g41
VOG Str8 SickHCS
p1921
sg43
Nssg35
VPT2M42.2209692S
p1922
sa(dp1923
g38
I313138863
sg32
VWeaponDrop
p1924
sg180
I0
sg44
(lp1925
I1095363701
asg35
VPT2M42.6199609S
p1926
sg183
I0
sg184
VP0DT0H0M1.5333S
p1927
sg39
(dp1928
g41
VOG ACE HCS
p1929
sg43
Nssa(dp1930
g38
I723388907
sg39
(dp1931
g41
VOG ACE HCS
p1932
sg43
Nssg44
(lp1933
I89283061
asg32
VWeaponPickup
p1934
sg35
VPT2M42.6199609S
p1935
sa(dp1936
g208
I2511447508
sg209
I00
sg210
I00
sg211
(dp1937
g41
VRNG Penguin HCS
p1938
sg43
Nssg214
(lp1939
I2758383128
asg216
I00
sg217
I01
sg218
I1
sg219
I0
sg220
I1
sg221
(dp1940
Vy
F-1.702334
sVx
F-4.0813975300000003
sVz
F3.3962461899999998
ssg223
(dp1941
Vy
F-4.54178047
sVx
F-0.12129525100000001
sVz
F3.2022400000000002
ssg225
I00
sg226
(dp1942
g41
VOG ACE HCS
p1943
sg43
Nssg229
(lp1944
sg231
(lp1945
(dp1946
g41
VRNG Ninja HCS
p1947
sg43
Nsasg235
I01
sg35
VPT2M42.8869599S
p1948
sg32
VDeath
p1949
sg238
I1
sa(dp1950
g32
VMedal
p1951
sg39
(dp1952
g41
VRNG Penguin HCS
p1953
sg43
Nssg243
I3261908037
sg35
VPT2M42.8889857S
p1954
sa(dp1955
g38
I723388907
sg32
VWeaponDrop
p1956
sg180
I0
sg44
(lp1957
I89283061
asg35
VPT2M42.8889857S
p1958
sg183
I0
sg184
VP0DT0H0M0.2667S
p1959
sg39
(dp1960
g41
VOG ACE HCS
p1961
sg43
Nssa(dp1962
g38
I4096745987
sg32
VWeaponDrop
p1963
sg180
I0
sg44
(lp1964
I2758383128
asg35
VPT2M42.8889857S
p1965
sg183
I0
sg184
VP0DT0H0M6.4833S
p1966
sg39
(dp1967
g41
VOG ACE HCS
p1968
sg43
Nssa(dp1969
g208
I669296699
sg209
I00
sg210
I00
sg211
(dp1970
g41
VRNG Commonly
p1971
sg43
Nssg214
(lp1972
I2758383128
asg216
I00
sg217
I01
sg218
I1
sg219
I0
sg220
I1
sg221
(dp1973
Vy
F8.3497924799999996
sVx
F-6.50105047
sVz
F3.5690276600000002
ssg223
(dp1974
Vy
F11.6197891
sVx
F18.680969999999999
sVz
F3.1995637399999999
ssg225
I00
sg226
(dp1975
g41
VOG Str8 SickHCS
p1976
sg43
Nssg229
(lp1977
sg231
(lp1978
sg235
I01
sg35
VPT2M43.0709575S
p1979
sg32
VDeath
p1980
sg238
I1
sa(dp1981
g32
VMedal
p1982
sg39
(dp1983
g41
VRNG Commonly
p1984
sg43
Nssg243
I848240062
sg35
VPT2M43.071958S
p1985
sa(dp1986
g38
I313138863
sg32
VWeaponDrop
p1987
sg180
I0
sg44
(lp1988
I1095363701
asg35
VPT2M43.0729664S
p1989
sg183
I0
sg184
VP0DT0H0M0.7667S
p1990
sg39
(dp1991
g41
VOG Str8 SickHCS
p1992
sg43
Nssa(dp1993
g38
I4096745987
sg32
VWeaponDrop
p1994
sg180
I0
sg44
(lp1995
I2758383128
asg35
VPT2M43.0729664S
p1996
sg183
I0
sg184
VP0DT0H0M0.0833S
p1997
sg39
(dp1998
g41
VOG Str8 SickHCS
p1999
sg43
Nssa(dp2000
g38
I4096745987
sg32
VWeaponDrop
p2001
sg180
I3
sg44
(lp2002
I2758383128
asg35
VPT2M45.1529637S
p2003
sg183
I2
sg184
VP0DT0H0M5.3167S
p2004
sg39
(dp2005
g41
VRNG Penguin HCS
p2006
sg43
Nssa(dp2007
g38
I723388907
sg39
(dp2008
g41
VRNG Penguin HCS
p2009
sg43
Nssg44
(lp2010
I89283061
asg32
VWeaponPickup
p2011
sg35
VPT2M45.1529637S
p2012
sa(dp2013
g208
I424645655
sg209
I00
sg210
I00
sg211
(dp2014
g41
VRNG Victory X
p2015
sg43
Nssg214
(lp2016
I1327094800
asg216
I00
sg217
I01
sg218
I1
sg219
I0
sg220
I1
sg221
(dp2017
Vy
F-14.6807661
sVx
F13.4284248
sVz
F3.9354010000000001
ssg223
(dp2018
Vy
F-12.1460791
sVx
F11.3257475
sVz
F3.9065690000000002
ssg225
I00
sg226
(dp2019
g41
VOG Maniac HCS
p2020
sg43
Nssg229
(lp2021
sg231
(lp2022
sg235
I01
sg35
VPT2M45.5539419S
p2023
sg32
VDeath
p2024
sg238
I1
sa(dp2025
g32
VMedal
p2026
sg39
(dp2027
g41
VRNG Victory X
p2028
sg43
Nssg243
I3261908037
sg35
VPT2M45.5559822S
p2029
sa(dp2030
g38
I313138863
sg32
VWeaponDrop
p2031
sg180
I15
sg44
(lp2032
I1095363701
asg35
VPT2M45.5569817S
p2033
sg183
I11
sg184
VP0DT0H0M8.2500S
p2034
sg39
(dp2035
g41
VOG Maniac HCS
p2036
sg43
Nssa(dp2037
g38
I4096745987
sg32
VWeaponDrop
p2038
sg180
I3
sg44
(lp2039
I2758383128
asg35
VPT2M45.5569817S
p2040
sg183
I0
sg184
VP0DT0H0M7.6000S
p2041
sg39
(dp2042
g41
VOG Maniac HCS
p2043
sg43
Nssa(dp2044
g38
I313138863
sg39
(dp2045
g41
VOG ACE HCS
p2046
sg43
Nssg44
(lp2047
I1095363701
asg32
VWeaponPickup
p2048
sg35
VPT2M50.9039298S
p2049
sa(dp2050
g38
I4096745987
sg39
(dp2051
g41
VOG ACE HCS
p2052
sg43
Nssg44
(lp2053
I2758383128
asg32
VWeaponPickup
p2054
sg35
VPT2M50.9039298S
p2055
sa(dp2056
g32
VPlayerSpawn
p2057
sg39
(dp2058
g41
VOG ACE HCS
p2059
sg43
Nssg35
VPT2M50.9039298S
p2060
sa(dp2061
g38
I313138863
sg39
(dp2062
g41
VOG Str8 SickHCS
p2063
sg43
Nssg44
(lp2064
I1095363701
asg32
VWeaponPickup
p2065
sg35
VPT2M51.0879313S
p2066
sa(dp2067
g38
I4096745987
sg39
(dp2068
g41
VOG Str8 SickHCS
p2069
sg43
Nssg44
(lp2070
I2758383128
asg32
VWeaponPickup
p2071
sg35
VPT2M51.0879313S
p2072
sa(dp2073
g32
VPlayerSpawn
p2074
sg39
(dp2075
g41
VOG Str8 SickHCS
p2076
sg43
Nssg35
VPT2M51.0879313S
p2077
sa(dp2078
g38
I313138863
sg39
(dp2079
g41
VOG Maniac HCS
p2080
sg43
Nssg44
(lp2081
I1095363701
asg32
VWeaponPickup
p2082
sg35
VPT2M53.5718915S
p2083
sa(dp2084
g38
I4096745987
sg39
(dp2085
g41
VOG Maniac HCS
p2086
sg43
Nssg44
(lp2087
I2758383128
asg32
VWeaponPickup
p2088
sg35
VPT2M53.5728925S
p2089
sa(dp2090
g32
VPlayerSpawn
p2091
sg39
(dp2092
g41
VOG Maniac HCS
p2093
sg43
Nssg35
VPT2M53.5728925S
p2094
sa(dp2095
g208
I3168248199
sg209
I00
sg210
I00
sg211
(dp2096
g41
VOG Maniac HCS
p2097
sg43
Nssg214
(lp2098
sg216
I00
sg217
I00
sg218
I1
sg219
I0
sg220
I1
sg221
(dp2099
Vy
F-7.4147806200000002
sVx
F16.919071200000001
sVz
F1.9501605
ssg223
(dp2100
Vy
F-7.8479857400000004
sVx
F16.911991100000002
sVz
F2.2100954100000001
ssg225
I01
sg226
(dp2101
g41
VRNG Victory X
p2102
sg43
Nssg229
(lp2103
sg231
(lp2104
(dp2105
g41
VOG APG HCS
p2106
sg43
Nsasg235
I00
sg35
VPT2M57.2698665S
p2107
sg32
VDeath
p2108
sg238
I1
sa(dp2109
g32
VMedal
p2110
sg39
(dp2111
g41
VOG Maniac HCS
p2112
sg43
Nssg243
I298813630
sg35
VPT2M57.2708856S
p2113
sa(dp2114
g38
I424645655
sg32
VWeaponDrop
p2115
sg180
I39
sg44
(lp2116
I1327094800
asg35
VPT2M57.2708856S
p2117
sg183
I19
sg184
VP0DT0H0M45.3667S
p2118
sg39
(dp2119
g41
VRNG Victory X
p2120
sg43
Nssa(dp2121
g38
I723388907
sg32
VWeaponDrop
p2122
sg180
I55
sg44
(lp2123
I89283061
asg35
VPT2M57.2718932S
p2124
sg183
I16
sg184
VP0DT0H0M16.7333S
p2125
sg39
(dp2126
g41
VRNG Victory X
p2127
sg43
Nssa(dp2128
g208
I424645655
sg209
I00
sg210
I00
sg211
(dp2129
g41
VRNG Ninja HCS
p2130
sg43
Nssg214
(lp2131
I1327094800
asg216
I00
sg217
I01
sg218
I1
sg219
I0
sg220
I1
sg221
(dp2132
Vy
F2.5467555499999999
sVx
F9.2393280000000004
sVz
F4.0896673200000002
ssg223
(dp2133
Vy
F-1.0990344299999999
sVx
F17.642353100000001
sVz
F-0.0057445466499999997
ssg225
I00
sg226
(dp2134
g41
VOG APG HCS
p2135
sg43
Nssg229
(lp2136
sg231
(lp2137
(dp2138
g41
VRNG Victory X
p2139
sg43
Nsasg235
I01
sg35
VPT2M58.2868606S
p2140
sg32
VDeath
p2141
sg238
I1
sa(dp2142
g32
VMedal
p2143
sg39
(dp2144
g41
VRNG Ninja HCS
p2145
sg43
Nssg243
I3261908037
sg35
VPT2M58.2878786S
p2146
sa(dp2147
g38
I313138863
sg32
VWeaponDrop
p2148
sg180
I0
sg44
(lp2149
I1095363701
asg35
VPT2M58.2888828S
p2150
sg183
I0
sg184
VP0DT0H0M1.3667S
p2151
sg39
(dp2152
g41
VOG APG HCS
p2153
sg43
Nssa(dp2154
g38
I4096745987
sg32
VWeaponDrop
p2155
sg180
I5
sg44
(lp2156
I2758383128
asg35
VPT2M58.2888828S
p2157
sg183
I2
sg184
VP0DT0H0M17.6500S
p2158
sg39
(dp2159
g41
VOG APG HCS
p2160
sg43
Nssa(dp2161
g208
I424645655
sg209
I00
sg210
I00
sg211
(dp2162
g41
VRNG Ninja HCS
p2163
sg43
Nssg214
(lp2164
I1327094800
asg216
I00
sg217
I01
sg218
I1
sg219
I0
sg220
I1
sg221
(dp2165
Vy
F0.36232632399999998
sVx
F14.9373121
sVz
F0.66655039999999999
ssg223
(dp2166
Vy
F-9.8664330000000007
sVx
F14.798470500000001
sVz
F3.5874745799999999
ssg225
I00
sg226
(dp2167
g41
VOG Maniac HCS
p2168
sg43
Nssg229
(lp2169
sg231
(lp2170
sg235
I01
sg35
VPT3M1.9028373S
p2171
sg32
VDeath
p2172
sg238
I1
sa(dp2173
g32
VImpulse
p2174
sg39
(dp2175
g41
VRNG Ninja HCS
p2176
sg43
Nssg720
I3174430457
sg35
VPT3M1.9048376S
p2177
sa(dp2178
g32
VMedal
p2179
sg39
(dp2180
g41
VRNG Ninja HCS
p2181
sg43
Nssg243
I1080468863
sg35
VPT3M1.9058625S
p2182
sa(dp2183
g32
VMedal
p2184
sg39
(dp2185
g41
VRNG Ninja HCS
p2186
sg43
Nssg243
I2078758684
sg35
VPT3M1.9058625S
p2187
sa(dp2188
g38
I313138863
sg32
VWeaponDrop
p2189
sg180
I0
sg44
(lp2190
I1095363701
asg35
VPT3M1.9068653S
p2191
sg183
I0
sg184
VP0DT0H0M4.9500S
p2192
sg39
(dp2193
g41
VOG Maniac HCS
p2194
sg43
Nssa(dp2195
g38
I4096745987
sg32
VWeaponDrop
p2196
sg180
I3
sg44
(lp2197
I2758383128
asg35
VPT3M1.9068653S
p2198
sg183
I3
sg184
VP0DT0H0M3.3833S
p2199
sg39
(dp2200
g41
VOG Maniac HCS
p2201
sg43
Nssa(dp2202
g208
I4106030681
sg209
I00
sg210
I00
sg211
(dp2203
g41
VOG Str8 SickHCS
p2204
sg43
Nssg214
(lp2205
sg216
I00
sg217
I01
sg218
I1
sg219
I0
sg220
I1
sg221
(dp2206
Vy
F7.2866020000000002
sVx
F22.037645300000001
sVz
F-0.00312867761
ssg223
(dp2207
Vy
F0.55193729999999996
sVx
F14.6798611
sVz
F-0.054920136899999999
ssg225
I00
sg226
(dp2208
g41
VRNG Ninja HCS
p2209
sg43
Nssg229
(lp2210
sg231
(lp2211
(dp2212
g41
VOG Maniac HCS
p2213
sg43
Nsasg235
I00
sg35
VPT3M2.7858319S
p2214
sg32
VDeath
p2215
sg238
I1
sa(dp2216
g38
I313138863
sg32
VWeaponDrop
p2217
sg180
I0
sg44
(lp2218
I1095363701
asg35
VPT3M2.7878586S
p2219
sg183
I0
sg184
VP0DT0H0M0.7833S
p2220
sg39
(dp2221
g41
VRNG Ninja HCS
p2222
sg43
Nssa(dp2223
g38
I424645655
sg32
VWeaponDrop
p2224
sg180
I39
sg44
(lp2225
I1327094800
asg35
VPT3M2.7878586S
p2226
sg183
I23
sg184
VP0DT0H0M23.1500S
p2227
sg39
(dp2228
g41
VRNG Ninja HCS
p2229
sg43
Nssa(dp2230
g38
I313138863
sg39
(dp2231
g41
VRNG Victory X
p2232
sg43
Nssg44
(lp2233
I1095363701
asg32
VWeaponPickup
p2234
sg35
VPT3M5.2868339S
p2235
sa(dp2236
g38
I4096745987
sg39
(dp2237
g41
VRNG Victory X
p2238
sg43
Nssg44
(lp2239
I2758383128
asg32
VWeaponPickup
p2240
sg35
VPT3M5.2868339S
p2241
sa(dp2242
g32
VPlayerSpawn
p2243
sg39
(dp2244
g41
VRNG Victory X
p2245
sg43
Nssg35
VPT3M5.2868339S
p2246
sa(dp2247
g208
I669296699
sg209
I00
sg210
I00
sg211
(dp2248
g41
VRNG Commonly
p2249
sg43
Nssg214
(lp2250
I2758383128
asg216
I00
sg217
I01
sg218
I1
sg219
I0
sg220
I1
sg221
(dp2251
Vy
F-3.7109484699999999
sVx
F1.86182034
sVz
F5.16332054
ssg223
(dp2252
Vy
F-5.0736212700000003
sVx
F22.620311699999998
sVz
F0.79821324299999996
ssg225
I00
sg226
(dp2253
g41
VOG ACE HCS
p2254
sg43
Nssg229
(lp2255
sg231
(lp2256
sg235
I01
sg35
VPT3M5.7698137S
p2257
sg32
VDeath
p2258
sg238
I1
sa(dp2259
g32
VMedal
p2260
sg39
(dp2261
g41
VRNG Commonly
p2262
sg43
Nssg243
I1986137636
sg35
VPT3M5.7698137S
p2263
sa(dp2264
g38
I313138863
sg32
VWeaponDrop
p2265
sg180
I0
sg44
(lp2266
I1095363701
asg35
VPT3M5.770831S
p2267
sg183
I0
sg184
VP0DT0H0M1.7500S
p2268
sg39
(dp2269
g41
VOG ACE HCS
p2270
sg43
Nssa(dp2271
g38
I4096745987
sg32
VWeaponDrop
p2272
sg180
I4
sg44
(lp2273
I2758383128
asg35
VPT3M5.770831S
p2274
sg183
I2
sg184
VP0DT0H0M13.1167S
p2275
sg39
(dp2276
g41
VOG ACE HCS
p2277
sg43
Nssa(dp2278
g38
I313138863
sg39
(dp2279
g41
VOG APG HCS
p2280
sg43
Nssg44
(lp2281
I1095363701
asg32
VWeaponPickup
p2282
sg35
VPT3M6.3028096S
p2283
sa(dp2284
g38
I4096745987
sg39
(dp2285
g41
VOG APG HCS
p2286
sg43
Nssg44
(lp2287
I2758383128
asg32
VWeaponPickup
p2288
sg35
VPT3M6.3038291S
p2289
sa(dp2290
g32
VPlayerSpawn
p2291
sg39
(dp2292
g41
VOG APG HCS
p2293
sg43
Nssg35
VPT3M6.3038291S
p2294
sa(dp2295
g38
I669296699
sg32
VWeaponDrop
p2296
sg180
I12
sg44
(lp2297
I2758383128
asg35
VPT3M8.6178153S
p2298
sg183
I7
sg184
VP0DT0H1M55.6333S
p2299
sg39
(dp2300
g41
VRNG Commonly
p2301
sg43
Nssa(dp2302
g38
I723388907
sg39
(dp2303
g41
VRNG Commonly
p2304
sg43
Nssg44
(lp2305
I89283061
asg32
VWeaponPickup
p2306
sg35
VPT3M8.6187946S
p2307
sa(dp2308
g38
I313138863
sg32
VWeaponDrop
p2309
sg180
I0
sg44
(lp2310
I1095363701
asg35
VPT3M8.634819S
p2311
sg183
I0
sg184
VP0DT0H0M1.9333S
p2312
sg39
(dp2313
g41
VRNG Victory X
p2314
sg43
Nssa(dp2315
g38
I1579758889
sg39
(dp2316
g41
VRNG Victory X
p2317
sg43
Nssg44
(lp2318
I2758383128
asg32
VWeaponPickup
p2319
sg35
VPT3M8.634819S
p2320
sa(dp2321
g38
I313138863
sg39
(dp2322
g41
VOG Maniac HCS
p2323
sg43
Nssg44
(lp2324
I1095363701
asg32
VWeaponPickup
p2325
sg35
VPT3M9.9197862S
p2326
sa(dp2327
g38
I4096745987
sg39
(dp2328
g41
VOG Maniac HCS
p2329
sg43
Nssg44
(lp2330
I2758383128
asg32
VWeaponPickup
p2331
sg35
VPT3M9.9208065S
p2332
sa(dp2333
g32
VPlayerSpawn
p2334
sg39
(dp2335
g41
VOG Maniac HCS
p2336
sg43
Nssg35
VPT3M9.9208065S
p2337
sa(dp2338
g38
I313138863
sg39
(dp2339
g41
VRNG Ninja HCS
p2340
sg43
Nssg44
(lp2341
I1095363701
asg32
VWeaponPickup
p2342
sg35
VPT3M10.8027809S
p2343
sa(dp2344
g38
I4096745987
sg39
(dp2345
g41
VRNG Ninja HCS
p2346
sg43
Nssg44
(lp2347
I2758383128
asg32
VWeaponPickup
p2348
sg35
VPT3M10.8038003S
p2349
sa(dp2350
g32
VPlayerSpawn
p2351
sg39
(dp2352
g41
VRNG Ninja HCS
p2353
sg43
Nssg35
VPT3M10.8038003S
p2354
sa(dp2355
g208
I4096745987
sg209
I00
sg210
I00
sg211
(dp2356
g41
VOG Str8 SickHCS
p2357
sg43
Nssg214
(lp2358
I2758383128
asg216
I00
sg217
I00
sg218
I2
sg219
I0
sg220
I0
sg221
(dp2359
Vy
F9.8343799999999995
sVx
F15.9759951
sVz
F3.1995618299999999
ssg223
(dp2360
Vy
F9.3494270000000004
sVx
F12.289108300000001
sVz
F5.504264
ssg225
I00
sg226
(dp2361
g1221
g1222
ssg229
(lp2362
sg231
(lp2363
sg235
I00
sg35
VPT3M12.3187713S
p2364
sg32
VDeath
p2365
sg238
I1
sa(dp2366
g38
I4096745987
sg32
VWeaponDrop
p2367
sg180
I0
sg44
(lp2368
I2758383128
asg35
VPT3M12.6017778S
p2369
sg183
I0
sg184
VP0DT0H0M3.3833S
p2370
sg39
(dp2371
g41
VRNG Victory X
p2372
sg43
Nssa(dp2373
g38
I424645655
sg39
(dp2374
g41
VRNG Victory X
p2375
sg43
Nssg44
(lp2376
I1327094800
asg32
VWeaponPickup
p2377
sg35
VPT3M12.6017778S
p2378
sa(dp2379
g38
I313138863
sg39
(dp2380
g41
VOG ACE HCS
p2381
sg43
Nssg44
(lp2382
I1095363701
asg32
VWeaponPickup
p2383
sg35
VPT3M13.7867838S
p2384
sa(dp2385
g38
I4096745987
sg39
(dp2386
g41
VOG ACE HCS
p2387
sg43
Nssg44
(lp2388
I2758383128
asg32
VWeaponPickup
p2389
sg35
VPT3M13.7867838S
p2390
sa(dp2391
g32
VPlayerSpawn
p2392
sg39
(dp2393
g41
VOG ACE HCS
p2394
sg43
Nssg35
VPT3M13.7867838S
p2395
sa(dp2396
g208
I4096745987
sg209
I00
sg210
I00
sg211
(dp2397
g41
VOG Str8 SickHCS
p2398
sg43
Nssg214
(lp2399
I2758383128
asg216
I00
sg217
I01
sg218
I1
sg219
I0
sg220
I1
sg221
(dp2400
Vy
F4.8085155500000001
sVx
F14.252306000000001
sVz
F1.7769389200000001
ssg223
(dp2401
Vy
F0.026260498899999998
sVx
F6.6361299999999996
sVz
F0.23169451999999999
ssg225
I00
sg226
(dp2402
g41
VRNG Commonly
p2403
sg43
Nssg229
(lp2404
sg231
(lp2405
(dp2406
g41
VOG APG HCS
p2407
sg43
Nsasg235
I01
sg35
VPT3M15.4687796S
p2408
sg32
VDeath
p2409
sg238
I1
sa(dp2410
g32
VMedal
p2411
sg39
(dp2412
g41
VOG Str8 SickHCS
p2413
sg43
Nssg243
I3261908037
sg35
VPT3M15.4707529S
p2414
sa(dp2415
g38
I723388907
sg32
VWeaponDrop
p2416
sg180
I6
sg44
(lp2417
I89283061
asg35
VPT3M15.4717515S
p2418
sg183
I3
sg184
VP0DT0H0M3.4167S
p2419
sg39
(dp2420
g41
VRNG Commonly
p2421
sg43
Nssa(dp2422
g38
I4096745987
sg32
VWeaponDrop
p2423
sg180
I17
sg44
(lp2424
I2758383128
asg35
VPT3M15.4717515S
p2425
sg183
I6
sg184
VP0DT0H0M37.9667S
p2426
sg39
(dp2427
g41
VRNG Commonly
p2428
sg43
Nssa(dp2429
g38
I313138863
sg32
VWeaponDrop
p2430
sg180
I0
sg44
(lp2431
I1095363701
asg35
VPT3M17.2177592S
p2432
sg183
I0
sg184
VP0DT0H0M1.3833S
p2433
sg39
(dp2434
g41
VOG Str8 SickHCS
p2435
sg43
Nssa(dp2436
g38
I2133511419
sg39
(dp2437
g41
VOG Str8 SickHCS
p2438
sg43
Nssg44
(lp2439
I2758383128
asg32
VWeaponPickup
p2440
sg35
VPT3M17.2177592S
p2441
sa(dp2442
g38
I313138863
sg32
VWeaponDrop
p2443
sg180
I0
sg44
(lp2444
I1095363701
asg35
VPT3M19.4007491S
p2445
sg183
I0
sg184
VP0DT0H0M0.7833S
p2446
sg39
(dp2447
g41
VOG ACE HCS
p2448
sg43
Nssa(dp2449
g38
I669296699
sg39
(dp2450
g41
VOG ACE HCS
p2451
sg43
Nssg44
(lp2452
I2758383128
asg32
VWeaponPickupPad
p2453
sg35
VPT3M19.4017265S
p2454
sa(dp2455
g38
I669296699
sg39
(dp2456
g41
VOG ACE HCS
p2457
sg43
Nssg44
(lp2458
I2758383128
asg32
VWeaponPickup
p2459
sg35
VPT3M19.4017265S
p2460
sa(dp2461
g208
I4106030681
sg209
I00
sg210
I00
sg211
(dp2462
g41
VRNG Ninja HCS
p2463
sg43
Nssg214
(lp2464
sg216
I00
sg217
I01
sg218
I1
sg219
I0
sg220
I1
sg221
(dp2465
Vy
F7.9519440000000001
sVx
F-2.4847139999999999
sVz
F3.2000000000000002
ssg223
(dp2466
Vy
F10.044971500000001
sVx
F16.512765900000002
sVz
F3.1995618299999999
ssg225
I00
sg226
(dp2467
g41
VOG ACE HCS
p2468
sg43
Nssg229
(lp2469
sg231
(lp2470
(dp2471
g41
VRNG Victory X
p2472
sg43
Nsasg235
I00
sg35
VPT3M19.8517229S
p2473
sg32
VDeath
p2474
sg238
I1
sa(dp2475
g32
VMedal
p2476
sg39
(dp2477
g41
VRNG Ninja HCS
p2478
sg43
Nssg243
I352859864
sg35
VPT3M19.8517229S
p2479
sa(dp2480
g32
VImpulse
p2481
sg39
(dp2482
g41
VRNG Ninja HCS
p2483
sg43
Nssg720
I2556889090
sg35
VPT3M19.8517229S
p2484
sa(dp2485
g32
VMedal
p2486
sg39
(dp2487
g41
VRNG Ninja HCS
p2488
sg43
Nssg243
I3491849182
sg35
VPT3M19.8527416S
p2489
sa(dp2490
g38
I669296699
sg32
VWeaponDrop
p2491
sg180
I0
sg44
(lp2492
I2758383128
asg35
VPT3M19.8537416S
p2493
sg183
I0
sg184
VP0DT0H0M0.4500S
p2494
sg39
(dp2495
g41
VOG ACE HCS
p2496
sg43
Nssa(dp2497
g38
I4096745987
sg32
VWeaponDrop
p2498
sg180
I7
sg44
(lp2499
I2758383128
asg35
VPT3M19.8537416S
p2500
sg183
I3
sg184
VP0DT0H0M4.8333S
p2501
sg39
(dp2502
g41
VOG ACE HCS
p2503
sg43
Nssa(dp2504
g38
I4096745987
sg32
VWeaponDrop
p2505
sg180
I5
sg44
(lp2506
I2758383128
asg35
VPT3M21.3677295S
p2507
sg183
I2
sg184
VP0DT0H0M9.7833S
p2508
sg39
(dp2509
g41
VRNG Ninja HCS
p2510
sg43
Nssa(dp2511
g38
I2511447508
sg39
(dp2512
g41
VRNG Ninja HCS
p2513
sg43
Nssg44
(lp2514
I2758383128
asg32
VWeaponPickup
p2515
sg35
VPT3M21.3677295S
p2516
sa(dp2517
g208
I2511447508
sg209
I00
sg210
I00
sg211
(dp2518
g41
VRNG Penguin HCS
p2519
sg43
Nssg214
(lp2520
I2758383128
asg216
I00
sg217
I01
sg218
I1
sg219
I0
sg220
I1
sg221
(dp2521
Vy
F-6.8898615799999998
sVx
F7.69435263
sVz
F3.2373044499999999
ssg223
(dp2522
Vy
F-3.4586298499999999
sVx
F5.0781289999999997
sVz
F4.1976399999999998
ssg225
I00
sg226
(dp2523
g41
VOG APG HCS
p2524
sg43
Nssg229
(lp2525
sg231
(lp2526
(dp2527
g41
VRNG Ninja HCS
p2528
sg43
Nsasg235
I00
sg35
VPT3M22.3187065S
p2529
sg32
VDeath
p2530
sg238
I1
sa(dp2531
g32
VMedal
p2532
sg39
(dp2533
g41
VRNG Penguin HCS
p2534
sg43
Nssg243
I2838259753
sg35
VPT3M22.3187065S
p2535
sa(dp2536
g32
VImpulse
p2537
sg39
(dp2538
g41
VRNG Penguin HCS
p2539
sg43
Nssg720
I2556889090
sg35
VPT3M22.3187065S
p2540
sa(dp2541
g32
VMedal
p2542
sg39
(dp2543
g41
VRNG Victory X
p2544
sg43
Nssg243
I824733727
sg35
VPT3M22.3187065S
p2545
sa(dp2546
g38
I313138863
sg32
VWeaponDrop
p2547
sg180
I0
sg44
(lp2548
I1095363701
asg35
VPT3M22.3207259S
p2549
sg183
I0
sg184
VP0DT0H0M0.7167S
p2550
sg39
(dp2551
g41
VOG APG HCS
p2552
sg43
Nssa(dp2553
g38
I4096745987
sg32
VWeaponDrop
p2554
sg180
I10
sg44
(lp2555
I2758383128
asg35
VPT3M22.3207259S
p2556
sg183
I7
sg184
VP0DT0H0M15.3000S
p2557
sg39
(dp2558
g41
VOG APG HCS
p2559
sg43
Nssa(dp2560
g38
I313138863
sg32
VWeaponDrop
p2561
sg180
I0
sg44
(lp2562
I1095363701
asg35
VPT3M22.6177226S
p2563
sg183
I0
sg184
VP0DT0H0M1.3333S
p2564
sg39
(dp2565
g41
VOG Maniac HCS
p2566
sg43
Nssa(dp2567
g38
I669296699
sg39
(dp2568
g41
VOG Maniac HCS
p2569
sg43
Nssg44
(lp2570
I2758383128
asg32
VWeaponPickup
p2571
sg35
VPT3M22.6177226S
p2572
sa(dp2573
g38
I313138863
sg39
(dp2574
g41
VRNG Commonly
p2575
sg43
Nssg44
(lp2576
I1095363701
asg32
VWeaponPickup
p2577
sg35
VPT3M23.4856993S
p2578
sa(dp2579
g38
I4096745987
sg39
(dp2580
g41
VRNG Commonly
p2581
sg43
Nssg44
(lp2582
I2758383128
asg32
VWeaponPickup
p2583
sg35
VPT3M23.4867176S
p2584
sa(dp2585
g32
VPlayerSpawn
p2586
sg39
(dp2587
g41
VRNG Commonly
p2588
sg43
Nssg35
VPT3M23.4867176S
p2589
sa(dp2590
g208
I669296699
sg209
I00
sg210
I00
sg211
(dp2591
g41
VOG Maniac HCS
p2592
sg43
Nssg214
(lp2593
I2758383128
asg216
I00
sg217
I01
sg218
I1
sg219
I0
sg220
I1
sg221
(dp2594
Vy
F11.2585335
sVx
F13.11205
sVz
F3.1995619999999998
ssg223
(dp2595
Vy
F6.862533
sVx
F-1.16924345
sVz
F4.06235838
ssg225
I00
sg226
(dp2596
g41
VRNG Ninja HCS
p2597
sg43
Nssg229
(lp2598
sg231
(lp2599
(dp2600
g41
VOG APG HCS
p2601
sg43
Nsa(dp2602
g41
VOG Str8 SickHCS
p2603
sg43
Nsasg235
I00
sg35
VPT3M25.2017102S
p2604
sg32
VDeath
p2605
sg238
I1
sa(dp2606
g38
I313138863
sg32
VWeaponDrop
p2607
sg180
I0
sg44
(lp2608
I1095363701
asg35
VPT3M25.2037119S
p2609
sg183
I0
sg184
VP0DT0H0M0.7833S
p2610
sg39
(dp2611
g41
VRNG Ninja HCS
p2612
sg43
Nssa(dp2613
g38
I2511447508
sg32
VWeaponDrop
p2614
sg180
I3
sg44
(lp2615
I2758383128
asg35
VPT3M25.2037119S
p2616
sg183
I1
sg184
VP0DT0H0M3.8333S
p2617
sg39
(dp2618
g41
VRNG Ninja HCS
p2619
sg43
Nssa(dp2620
g208
I424645655
sg209
I00
sg210
I00
sg211
(dp2621
g41
VRNG Victory X
p2622
sg43
Nssg214
(lp2623
I1327094800
asg216
I00
sg217
I01
sg218
I1
sg219
I0
sg220
I1
sg221
(dp2624
Vy
F12.08051
sVx
F-1.4139170000000001
sVz
F1.5998760000000001
ssg223
(dp2625
Vy
F5.3885490000000003
sVx
F-0.300014377
sVz
F0.89069330000000002
ssg225
I00
sg226
(dp2626
g41
VOG Str8 SickHCS
p2627
sg43
Nssg229
(lp2628
sg231
(lp2629
(dp2630
g41
VRNG Penguin HCS
p2631
sg43
Nsasg235
I01
sg35
VPT3M25.9186842S
p2632
sg32
VDeath
p2633
sg238
I1
sa(dp2634
g32
VMedal
p2635
sg39
(dp2636
g41
VRNG Victory X
p2637
sg43
Nssg243
I3261908037
sg35
VPT3M25.9206883S
p2638
sa(dp2639
g38
I2133511419
sg32
VWeaponDrop
p2640
sg180
I19
sg44
(lp2641
I2758383128
asg35
VPT3M25.9206883S
p2642
sg183
I2
sg184
VP0DT0H0M6.6333S
p2643
sg39
(dp2644
g41
VOG Str8 SickHCS
p2645
sg43
Nssa(dp2646
g38
I4096745987
sg32
VWeaponDrop
p2647
sg180
I6
sg44
(lp2648
I2758383128
asg35
VPT3M25.9206883S
p2649
sg183
I2
sg184
VP0DT0H0M26.8167S
p2650
sg39
(dp2651
g41
VOG Str8 SickHCS
p2652
sg43
Nssa(dp2653
g208
I669296699
sg209
I00
sg210
I00
sg211
(dp2654
g41
VOG Maniac HCS
p2655
sg43
Nssg214
(lp2656
I2758383128
asg216
I00
sg217
I01
sg218
I1
sg219
I0
sg220
I1
sg221
(dp2657
Vy
F10.2411709
sVx
F13.141727400000001
sVz
F4.0525274299999996
ssg223
(dp2658
Vy
F11.1834469
sVx
F1.4625239999999999
sVz
F1.592754
ssg225
I00
sg226
(dp2659
g41
VRNG Victory X
p2660
sg43
Nssg229
(lp2661
sg231
(lp2662
sg235
I01
sg35
VPT3M27.05169S
p2663
sg32
VDeath
p2664
sg238
I1
sa(dp2665
g32
VMedal
p2666
sg39
(dp2667
g41
VOG Maniac HCS
p2668
sg43
Nssg243
I848240062
sg35
VPT3M27.0526785S
p2669
sa(dp2670
g32
VMedal
p2671
sg39
(dp2672
g41
VOG Maniac HCS
p2673
sg43
Nssg243
I2078758684
sg35
VPT3M27.0526785S
p2674
sa(dp2675
g38
I1579758889
sg32
VWeaponDrop
p2676
sg180
I0
sg44
(lp2677
I2758383128
asg35
VPT3M27.0526785S
p2678
sg183
I0
sg184
VP0DT0H0M2.0000S
p2679
sg39
(dp2680
g41
VRNG Victory X
p2681
sg43
Nssa(dp2682
g38
I424645655
sg32
VWeaponDrop
p2683
sg180
I21
sg44
(lp2684
I1327094800
asg35
VPT3M27.0526785S
p2685
sg183
I9
sg184
VP0DT0H0M14.4500S
p2686
sg39
(dp2687
g41
VRNG Victory X
p2688
sg43
Nssa(dp2689
g38
I313138863
sg39
(dp2690
g41
VOG ACE HCS
p2691
sg43
Nssg44
(lp2692
I1095363701
asg32
VWeaponPickup
p2693
sg35
VPT3M27.8686787S
p2694
sa(dp2695
g38
I4096745987
sg39
(dp2696
g41
VOG ACE HCS
p2697
sg43
Nssg44
(lp2698
I2758383128
asg32
VWeaponPickup
p2699
sg35
VPT3M27.8686787S
p2700
sa(dp2701
g32
VPlayerSpawn
p2702
sg39
(dp2703
g41
VOG ACE HCS
p2704
sg43
Nssg35
VPT3M27.8686787S
p2705
sa(dp2706
g38
I313138863
sg39
(dp2707
g41
VOG APG HCS
p2708
sg43
Nssg44
(lp2709
I1095363701
asg32
VWeaponPickup
p2710
sg35
VPT3M30.3366572S
p2711
sa(dp2712
g38
I4096745987
sg39
(dp2713
g41
VOG APG HCS
p2714
sg43
Nssg44
(lp2715
I2758383128
asg32
VWeaponPickup
p2716
sg35
VPT3M30.3366572S
p2717
sa(dp2718
g32
VPlayerSpawn
p2719
sg39
(dp2720
g41
VOG APG HCS
p2721
sg43
Nssg35
VPT3M30.3366572S
p2722
sa(dp2723
g208
I4096745987
sg209
I00
sg210
I00
sg211
(dp2724
g41
VRNG Commonly
p2725
sg43
Nssg214
(lp2726
I2758383128
asg216
I00
sg217
I01
sg218
I1
sg219
I0
sg220
I1
sg221
(dp2727
Vy
F1.5397179999999999
sVx
F21.742730000000002
sVz
F0.83980049999999995
ssg223
(dp2728
Vy
F8.1904070000000004
sVx
F13.582812300000001
sVz
F3.3961057700000001
ssg225
I00
sg226
(dp2729
g41
VOG Maniac HCS
p2730
sg43
Nssg229
(lp2731
sg231
(lp2732
sg235
I01
sg35
VPT3M31.8356464S
p2733
sg32
VDeath
p2734
sg238
I1
sa(dp2735
g32
VMedal
p2736
sg39
(dp2737
g41
VRNG Commonly
p2738
sg43
Nssg243
I3261908037
sg35
VPT3M31.8366692S
p2739
sa(dp2740
g38
I669296699
sg32
VWeaponDrop
p2741
sg180
I3
sg44
(lp2742
I2758383128
asg35
VPT3M31.837664S
p2743
sg183
I2
sg184
VP0DT0H0M9.0333S
p2744
sg39
(dp2745
g41
VOG Maniac HCS
p2746
sg43
Nssa(dp2747
g38
I4096745987
sg32
VWeaponDrop
p2748
sg180
I1
sg44
(lp2749
I2758383128
asg35
VPT3M31.837664S
p2750
sg183
I0
sg184
VP0DT0H0M11.5500S
p2751
sg39
(dp2752
g41
VOG Maniac HCS
p2753
sg43
Nssa(dp2754
g208
I4096745987
sg209
I00
sg210
I01
sg211
(dp2755
g41
VOG ACE HCS
p2756
sg43
Nssg214
(lp2757
I2758383128
asg216
I00
sg217
I00
sg218
I1
sg219
I0
sg220
I1
sg221
(dp2758
Vy
F1.8526672099999999
sVx
F22.212932599999998
sVz
F0.055970510000000001
ssg223
(dp2759
Vy
F1.4316743599999999
sVx
F22.451484700000002
sVz
F0.072970270000000004
ssg225
I00
sg226
(dp2760
g41
VRNG Commonly
p2761
sg43
Nssg229
(lp2762
sg231
(lp2763
sg235
I00
sg35
VPT3M32.1516614S
p2764
sg32
VDeath
p2765
sg238
I1
sa(dp2766
g32
VMedal
p2767
sg39
(dp2768
g41
VOG ACE HCS
p2769
sg43
Nssg243
I2287626681
sg35
VPT3M32.1526633S
p2770
sa(dp2771
g38
I4096745987
sg32
VWeaponDrop
p2772
sg180
I8
sg44
(lp2773
I2758383128
asg35
VPT3M32.1526633S
p2774
sg183
I5
sg184
VP0DT0H0M7.8500S
p2775
sg39
(dp2776
g41
VRNG Commonly
p2777
sg43
Nssa(dp2778
g38
I313138863
sg32
VWeaponDrop
p2779
sg180
I0
sg44
(lp2780
I1095363701
asg35
VPT3M32.1536628S
p2781
sg183
I0
sg184
VP0DT0H0M0.8167S
p2782
sg39
(dp2783
g41
VRNG Commonly
p2784
sg43
Nssa(dp2785
g38
I313138863
sg39
(dp2786
g41
VRNG Ninja HCS
p2787
sg43
Nssg44
(lp2788
I1095363701
asg32
VWeaponPickup
p2789
sg35
VPT3M33.2186547S
p2790
sa(dp2791
g38
I4096745987
sg39
(dp2792
g41
VRNG Ninja HCS
p2793
sg43
Nssg44
(lp2794
I2758383128
asg32
VWeaponPickup
p2795
sg35
VPT3M33.2186547S
p2796
sa(dp2797
g32
VPlayerSpawn
p2798
sg39
(dp2799
g41
VRNG Ninja HCS
p2800
sg43
Nssg35
VPT3M33.2186547S
p2801
sa(dp2802
g38
I313138863
sg39
(dp2803
g41
VOG Str8 SickHCS
p2804
sg43
Nssg44
(lp2805
I1095363701
asg32
VWeaponPickup
p2806
sg35
VPT3M33.9356576S
p2807
sa(dp2808
g38
I4096745987
sg39
(dp2809
g41
VOG Str8 SickHCS
p2810
sg43
Nssg44
(lp2811
I2758383128
asg32
VWeaponPickup
p2812
sg35
VPT3M33.9356576S
p2813
sa(dp2814
g32
VPlayerSpawn
p2815
sg39
(dp2816
g41
VOG Str8 SickHCS
p2817
sg43
Nssg35
VPT3M33.9356576S
p2818
sa(dp2819
g38
I313138863
sg39
(dp2820
g41
VRNG Victory X
p2821
sg43
Nssg44
(lp2822
I1095363701
asg32
VWeaponPickup
p2823
sg35
VPT3M35.0686428S
p2824
sa(dp2825
g38
I4096745987
sg39
(dp2826
g41
VRNG Victory X
p2827
sg43
Nssg44
(lp2828
I2758383128
asg32
VWeaponPickup
p2829
sg35
VPT3M35.0686428S
p2830
sa(dp2831
g32
VPlayerSpawn
p2832
sg39
(dp2833
g41
VRNG Victory X
p2834
sg43
Nssg35
VPT3M35.0686428S
p2835
sa(dp2836
g208
I4096745987
sg209
I00
sg210
I00
sg211
(dp2837
g41
VRNG Ninja HCS
p2838
sg43
Nssg214
(lp2839
I2758383128
asg216
I00
sg217
I01
sg218
I1
sg219
I0
sg220
I1
sg221
(dp2840
Vy
F-4.69670963
sVx
F15.6933908
sVz
F1.6750004300000001
ssg223
(dp2841
Vy
F4.89882755
sVx
F20.3993912
sVz
F-0.005942732
ssg225
I00
sg226
(dp2842
g41
VOG ACE HCS
p2843
sg43
Nssg229
(lp2844
sg231
(lp2845
(dp2846
g41
VRNG Penguin HCS
p2847
sg43
Nsasg235
I01
sg35
VPT3M38.2176095S
p2848
sg32
VDeath
p2849
sg238
I1
sa(dp2850
g32
VMedal
p2851
sg39
(dp2852
g41
VRNG Ninja HCS
p2853
sg43
Nssg243
I2838259753
sg35
VPT3M38.2176095S
p2854
sa(dp2855
g32
VImpulse
p2856
sg39
(dp2857
g41
VRNG Ninja HCS
p2858
sg43
Nssg720
I2556889090
sg35
VPT3M38.2176095S
p2859
sa(dp2860
g32
VMedal
p2861
sg39
(dp2862
g41
VRNG Ninja HCS
p2863
sg43
Nssg243
I466059351
sg35
VPT3M38.2196275S
p2864
sa(dp2865
g32
VMedal
p2866
sg39
(dp2867
g41
VRNG Ninja HCS
p2868
sg43
Nssg243
I3261908037
sg35
VPT3M38.2196275S
p2869
sa(dp2870
g38
I313138863
sg32
VWeaponDrop
p2871
sg180
I0
sg44
(lp2872
I1095363701
asg35
VPT3M38.2196275S
p2873
sg183
I0
sg184
VP0DT0H0M0.9500S
p2874
sg39
(dp2875
g41
VOG ACE HCS
p2876
sg43
Nssa(dp2877
g38
I4096745987
sg32
VWeaponDrop
p2878
sg180
I9
sg44
(lp2879
I2758383128
asg35
VPT3M38.2196275S
p2880
sg183
I7
sg184
VP0DT0H0M9.4000S
p2881
sg39
(dp2882
g41
VOG ACE HCS
p2883
sg43
Nssa(dp2884
g38
I4096745987
sg32
VWeaponDrop
p2885
sg180
I0
sg44
(lp2886
I2758383128
asg35
VPT3M38.2196275S
p2887
sg183
I0
sg184
VP0DT0S
p2888
sg39
(dp2889
g41
VOG ACE HCS
p2890
sg43
Nssa(dp2891
g38
I4096745987
sg32
VWeaponDrop
p2892
sg180
I7
sg44
(lp2893
I2758383128
asg35
VPT3M39.3336417S
p2894
sg183
I5
sg184
VP0DT0H0M5.2833S
p2895
sg39
(dp2896
g41
VRNG Ninja HCS
p2897
sg43
Nssa(dp2898
g38
I424645655
sg39
(dp2899
g41
VRNG Ninja HCS
p2900
sg43
Nssg44
(lp2901
I1327094800
asg32
VWeaponPickup
p2902
sg35
VPT3M39.3336417S
p2903
sa(dp2904
g38
I313138863
sg39
(dp2905
g41
VOG Maniac HCS
p2906
sg43
Nssg44
(lp2907
I1095363701
asg32
VWeaponPickup
p2908
sg35
VPT3M39.8516256S
p2909
sa(dp2910
g38
I4096745987
sg39
(dp2911
g41
VOG Maniac HCS
p2912
sg43
Nssg44
(lp2913
I2758383128
asg32
VWeaponPickup
p2914
sg35
VPT3M39.8516256S
p2915
sa(dp2916
g32
VPlayerSpawn
p2917
sg39
(dp2918
g41
VOG Maniac HCS
p2919
sg43
Nssg35
VPT3M39.8526137S
p2920
sa(dp2921
g38
I313138863
sg39
(dp2922
g41
VRNG Commonly
p2923
sg43
Nssg44
(lp2924
I1095363701
asg32
VWeaponPickup
p2925
sg35
VPT3M40.168616S
p2926
sa(dp2927
g38
I4096745987
sg39
(dp2928
g41
VRNG Commonly
p2929
sg43
Nssg44
(lp2930
I2758383128
asg32
VWeaponPickup
p2931
sg35
VPT3M40.168616S
p2932
sa(dp2933
g32
VPlayerSpawn
p2934
sg39
(dp2935
g41
VRNG Commonly
p2936
sg43
Nssg35
VPT3M40.168616S
p2937
sa(dp2938
g38
I313138863
sg32
VWeaponDrop
p2939
sg180
I0
sg44
(lp2940
I1095363701
asg35
VPT3M40.7836123S
p2941
sg183
I0
sg184
VP0DT0H0M1.2000S
p2942
sg39
(dp2943
g41
VRNG Victory X
p2944
sg43
Nssa(dp2945
g38
I723388907
sg39
(dp2946
g41
VRNG Victory X
p2947
sg43
Nssg44
(lp2948
I89283061
asg32
VWeaponPickup
p2949
sg35
VPT3M40.7836123S
p2950
sa(dp2951
g38
I313138863
sg32
VWeaponDrop
p2952
sg180
I0
sg44
(lp2953
I1095363701
asg35
VPT3M41.8665834S
p2954
sg183
I0
sg184
VP0DT0H0M1.0333S
p2955
sg39
(dp2956
g41
VRNG Commonly
p2957
sg43
Nssa(dp2958
g38
I524558978
sg39
(dp2959
g41
VRNG Commonly
p2960
sg43
Nssg44
(lp2961
I2758383128
asg32
VWeaponPickup
p2962
sg35
VPT3M41.8665834S
p2963
sa(dp2964
g38
I4096745987
sg32
VWeaponDrop
p2965
sg180
I0
sg44
(lp2966
I2758383128
asg35
VPT3M44.8665854S
p2967
sg183
I0
sg184
VP0DT0H0M10.2167S
p2968
sg39
(dp2969
g41
VOG Str8 SickHCS
p2970
sg43
Nssa(dp2971
g38
I1579758889
sg39
(dp2972
g41
VOG Str8 SickHCS
p2973
sg43
Nssg44
(lp2974
I2758383128
asg32
VWeaponPickup
p2975
sg35
VPT3M44.8665854S
p2976
sa(dp2977
g208
I2511447508
sg209
I00
sg210
I00
sg211
(dp2978
g41
VRNG Penguin HCS
p2979
sg43
Nssg214
(lp2980
I2758383128
asg216
I00
sg217
I01
sg218
I1
sg219
I0
sg220
I1
sg221
(dp2981
Vy
F12.830964099999999
sVx
F19.504682500000001
sVz
F3.01356745
ssg223
(dp2982
Vy
F13.1384706
sVx
F9.0304739999999999
sVz
F3.8738391399999998
ssg225
I00
sg226
(dp2983
g41
VOG APG HCS
p2984
sg43
Nssg229
(lp2985
sg231
(lp2986
(dp2987
g41
VRNG Ninja HCS
p2988
sg43
Nsasg235
I00
sg35
VPT3M45.4845579S
p2989
sg32
VDeath
p2990
sg238
I1
sa(dp2991
g38
I313138863
sg32
VWeaponDrop
p2992
sg180
I0
sg44
(lp2993
I1095363701
asg35
VPT3M45.4865779S
p2994
sg183
I0
sg184
VP0DT0H0M0.7500S
p2995
sg39
(dp2996
g41
VOG APG HCS
p2997
sg43
Nssa(dp2998
g38
I4096745987
sg32
VWeaponDrop
p2999
sg180
I2
sg44
(lp3000
I2758383128
asg35
VPT3M45.4865779S
p3001
sg183
I2
sg184
VP0DT0H0M14.4000S
p3002
sg39
(dp3003
g41
VOG APG HCS
p3004
sg43
Nssa(dp3005
g38
I1579758889
sg32
VWeaponDrop
p3006
sg180
I0
sg44
(lp3007
I2758383128
asg35
VPT3M45.4995795S
p3008
sg183
I0
sg184
VP0DT0H0M0.6333S
p3009
sg39
(dp3010
g41
VOG Str8 SickHCS
p3011
sg43
Nssa(dp3012
g38
I4096745987
sg39
(dp3013
g41
VOG Str8 SickHCS
p3014
sg43
Nssg44
(lp3015
I2758383128
asg32
VWeaponPickup
p3016
sg35
VPT3M45.5005596S
p3017
sa(dp3018
g38
I4096745987
sg32
VWeaponDrop
p3019
sg180
I0
sg44
(lp3020
I2758383128
asg35
VPT3M46.1165735S
p3021
sg183
I0
sg184
VP0DT0H0M0.6167S
p3022
sg39
(dp3023
g41
VOG Str8 SickHCS
p3024
sg43
Nssa(dp3025
g38
I1579758889
sg39
(dp3026
g41
VOG Str8 SickHCS
p3027
sg43
Nssg44
(lp3028
I2758383128
asg32
VWeaponPickup
p3029
sg35
VPT3M46.1165735S
p3030
sa(dp3031
g38
I313138863
sg39
(dp3032
g41
VOG ACE HCS
p3033
sg43
Nssg44
(lp3034
I1095363701
asg32
VWeaponPickup
p3035
sg35
VPT3M46.2345543S
p3036
sa(dp3037
g38
I4096745987
sg39
(dp3038
g41
VOG ACE HCS
p3039
sg43
Nssg44
(lp3040
I2758383128
asg32
VWeaponPickup
p3041
sg35
VPT3M46.2345543S
p3042
sa(dp3043
g32
VPlayerSpawn
p3044
sg39
(dp3045
g41
VOG ACE HCS
p3046
sg43
Nssg35
VPT3M46.2345543S
p3047
sa(dp3048
g38
I1579758889
sg32
VWeaponDrop
p3049
sg180
I0
sg44
(lp3050
I2758383128
asg35
VPT3M46.7835502S
p3051
sg183
I0
sg184
VP0DT0H0M0.6667S
p3052
sg39
(dp3053
g41
VOG Str8 SickHCS
p3054
sg43
Nssa(dp3055
g38
I424645655
sg39
(dp3056
g41
VOG Str8 SickHCS
p3057
sg43
Nssg44
(lp3058
I1327094800
asg32
VWeaponPickup
p3059
sg35
VPT3M46.7835502S
p3060
sa(dp3061
g208
I4106030681
sg209
I00
sg210
I00
sg211
(dp3062
g41
VRNG Commonly
p3063
sg43
Nssg214
(lp3064
sg216
I00
sg217
I01
sg218
I1
sg219
I0
sg220
I1
sg221
(dp3065
Vy
F-2.2103602900000001
sVx
F2.0996415599999998
sVz
F4.7845930000000001
ssg223
(dp3066
Vy
F10.21651
sVx
F10.374753
sVz
F3.7625742
ssg225
I00
sg226
(dp3067
g41
VOG Maniac HCS
p3068
sg43
Nssg229
(lp3069
sg231
(lp3070
(dp3071
g41
VRNG Ninja HCS
p3072
sg43
Nsa(dp3073
g41
VRNG Penguin HCS
p3074
sg43
Nsasg235
I00
sg35
VPT3M48.6175391S
p3075
sg32
VDeath
p3076
sg238
I1
sa(dp3077
g38
I313138863
sg32
VWeaponDrop
p3078
sg180
I0
sg44
(lp3079
I1095363701
asg35
VPT3M48.6185629S
p3080
sg183
I0
sg184
VP0DT0H0M1.1167S
p3081
sg39
(dp3082
g41
VOG Maniac HCS
p3083
sg43
Nssa(dp3084
g38
I4096745987
sg32
VWeaponDrop
p3085
sg180
I5
sg44
(lp3086
I2758383128
asg35
VPT3M48.6185629S
p3087
sg183
I3
sg184
VP0DT0H0M7.6500S
p3088
sg39
(dp3089
g41
VOG Maniac HCS
p3090
sg43
Nssa(dp3091
g38
I313138863
sg32
VWeaponDrop
p3092
sg180
I0
sg44
(lp3093
I1095363701
asg35
VPT3M49.5665532S
p3094
sg183
I0
sg184
VP0DT0H0M1.7833S
p3095
sg39
(dp3096
g41
VRNG Ninja HCS
p3097
sg43
Nssa(dp3098
g38
I669296699
sg39
(dp3099
g41
VRNG Ninja HCS
p3100
sg43
Nssg44
(lp3101
I2758383128
asg32
VWeaponPickup
p3102
sg35
VPT3M49.5665532S
p3103
sa(dp3104
g208
I4096745987
sg209
I00
sg210
I00
sg211
(dp3105
g41
VRNG Commonly
p3106
sg43
Nssg214
(lp3107
I2758383128
asg216
I00
sg217
I01
sg218
I1
sg219
I0
sg220
I1
sg221
(dp3108
Vy
F-4.4511070000000004
sVx
F6.9965205199999998
sVz
F3.5770034800000001
ssg223
(dp3109
Vy
F-4.5860779999999997
sVx
F18.048584000000002
sVz
F2.1209383000000002
ssg225
I00
sg226
(dp3110
g41
VOG ACE HCS
p3111
sg43
Nssg229
(lp3112
sg231
(lp3113
(dp3114
g41
VRNG Penguin HCS
p3115
sg43
Nsasg235
I01
sg35
VPT3M52.1845214S
p3116
sg32
VDeath
p3117
sg238
I1
sa(dp3118
g32
VMedal
p3119
sg39
(dp3120
g41
VRNG Commonly
p3121
sg43
Nssg243
I2838259753
sg35
VPT3M52.1845214S
p3122
sa(dp3123
g32
VImpulse
p3124
sg39
(dp3125
g41
VRNG Commonly
p3126
sg43
Nssg720
I2556889090
sg35
VPT3M52.1845214S
p3127
sa(dp3128
g32
VMedal
p3129
sg39
(dp3130
g41
VRNG Ninja HCS
p3131
sg43
Nssg243
I824733727
sg35
VPT3M52.1845214S
p3132
sa(dp3133
g32
VMedal
p3134
sg39
(dp3135
g41
VRNG Commonly
p3136
sg43
Nssg243
I3261908037
sg35
VPT3M52.185541S
p3137
sa(dp3138
g32
VMedal
p3139
sg39
(dp3140
g41
VRNG Commonly
p3141
sg43
Nssg243
I2078758684
sg35
VPT3M52.185541S
p3142
sa(dp3143
g38
I313138863
sg32
VWeaponDrop
p3144
sg180
I0
sg44
(lp3145
I1095363701
asg35
VPT3M52.1865393S
p3146
sg183
I0
sg184
VP0DT0H0M0.9333S
p3147
sg39
(dp3148
g41
VOG ACE HCS
p3149
sg43
Nssa(dp3150
g38
I4096745987
sg32
VWeaponDrop
p3151
sg180
I7
sg44
(lp3152
I2758383128
asg35
VPT3M52.1865393S
p3153
sg183
I3
sg184
VP0DT0H0M5.0167S
p3154
sg39
(dp3155
g41
VOG ACE HCS
p3156
sg43
Nssa(dp3157
g208
I424645655
sg209
I00
sg210
I01
sg211
(dp3158
g41
VOG Str8 SickHCS
p3159
sg43
Nssg214
(lp3160
I1327094800
asg216
I00
sg217
I00
sg218
I1
sg219
I0
sg220
I1
sg221
(dp3161
Vy
F10.104269
sVx
F11.7608356
sVz
F3.1982877300000001
ssg223
(dp3162
Vy
F9.7841319999999996
sVx
F12.068761800000001
sVz
F3.1995623100000001
ssg225
I00
sg226
(dp3163
g41
VRNG Ninja HCS
p3164
sg43
Nssg229
(lp3165
sg231
(lp3166
(dp3167
g41
VOG Maniac HCS
p3168
sg43
Nsa(dp3169
g41
VOG ACE HCS
p3170
sg43
Nsasg235
I00
sg35
VPT3M52.6175124S
p3171
sg32
VDeath
p3172
sg238
I1
sa(dp3173
g32
VMedal
p3174
sg39
(dp3175
g41
VOG Str8 SickHCS
p3176
sg43
Nssg243
I2287626681
sg35
VPT3M52.6185321S
p3177
sa(dp3178
g38
I669296699
sg32
VWeaponDrop
p3179
sg180
I1
sg44
(lp3180
I2758383128
asg35
VPT3M52.6185321S
p3181
sg183
I0
sg184
VP0DT0H0M3.0500S
p3182
sg39
(dp3183
g41
VRNG Ninja HCS
p3184
sg43
Nssa(dp3185
g38
I424645655
sg32
VWeaponDrop
p3186
sg180
I30
sg44
(lp3187
I1327094800
asg35
VPT3M52.619536S
p3188
sg183
I14
sg184
VP0DT0H0M9.2833S
p3189
sg39
(dp3190
g41
VRNG Ninja HCS
p3191
sg43
Nssa(dp3192
g38
I313138863
sg39
(dp3193
g41
VOG APG HCS
p3194
sg43
Nssg44
(lp3195
I1095363701
asg32
VWeaponPickup
p3196
sg35
VPT3M53.5015316S
p3197
sa(dp3198
g38
I4096745987
sg39
(dp3199
g41
VOG APG HCS
p3200
sg43
Nssg44
(lp3201
I2758383128
asg32
VWeaponPickup
p3202
sg35
VPT3M53.5015316S
p3203
sa(dp3204
g32
VPlayerSpawn
p3205
sg39
(dp3206
g41
VOG APG HCS
p3207
sg43
Nssg35
VPT3M53.5015316S
p3208
sa(dp3209
g32
VMedal
p3210
sg39
(dp3211
g41
VRNG Penguin HCS
p3212
sg43
Nssg243
I3400287617
sg35
VPT3M55.8164925S
p3213
sa(dp3214
g38
I313138863
sg39
(dp3215
g41
VOG Maniac HCS
p3216
sg43
Nssg44
(lp3217
I1095363701
asg32
VWeaponPickup
p3218
sg35
VPT3M56.6345047S
p3219
sa(dp3220
g38
I4096745987
sg39
(dp3221
g41
VOG Maniac HCS
p3222
sg43
Nssg44
(lp3223
I2758383128
asg32
VWeaponPickup
p3224
sg35
VPT3M56.6345047S
p3225
sa(dp3226
g32
VPlayerSpawn
p3227
sg39
(dp3228
g41
VOG Maniac HCS
p3229
sg43
Nssg35
VPT3M56.6345047S
p3230
sa(dp3231
g208
I723388907
sg209
I00
sg210
I00
sg211
(dp3232
g41
VRNG Penguin HCS
p3233
sg43
Nssg214
(lp3234
I89283061
asg216
I00
sg217
I01
sg218
I1
sg219
I0
sg220
I1
sg221
(dp3235
Vy
F7.41168928
sVx
F16.869846299999999
sVz
F2.83639288
ssg223
(dp3236
Vy
F10.143993399999999
sVx
F13.523711199999999
sVz
F3.1780676799999998
ssg225
I00
sg226
(dp3237
g41
VOG Str8 SickHCS
p3238
sg43
Nssg229
(lp3239
sg231
(lp3240
(dp3241
g41
VRNG Victory X
p3242
sg43
Nsasg235
I00
sg35
VPT3M58.5684742S
p3243
sg32
VDeath
p3244
sg238
I1
sa(dp3245
g32
VMedal
p3246
sg39
(dp3247
g41
VRNG Penguin HCS
p3248
sg43
Nssg243
I2838259753
sg35
VPT3M58.5684742S
p3249
sa(dp3250
g32
VImpulse
p3251
sg39
(dp3252
g41
VRNG Penguin HCS
p3253
sg43
Nssg720
I2556889090
sg35
VPT3M58.5684742S
p3254
sa(dp3255
g32
VMedal
p3256
sg39
(dp3257
g41
VRNG Penguin HCS
p3258
sg43
Nssg243
I2430242797
sg35
VPT3M58.56948S
p3259
sa(dp3260
g38
I313138863
sg32
VWeaponDrop
p3261
sg180
I0
sg44
(lp3262
I1095363701
asg35
VPT3M58.5704968S
p3263
sg183
I0
sg184
VP0DT0H0M0.7167S
p3264
sg39
(dp3265
g41
VOG Str8 SickHCS
p3266
sg43
Nssa(dp3267
g38
I424645655
sg32
VWeaponDrop
p3268
sg180
I18
sg44
(lp3269
I1327094800
asg35
VPT3M58.5704968S
p3270
sg183
I13
sg184
VP0DT0H0M11.7833S
p3271
sg39
(dp3272
g41
VOG Str8 SickHCS
p3273
sg43
Nssa(dp3274
g38
I424645655
sg32
VWeaponDrop
p3275
sg180
I0
sg44
(lp3276
I1327094800
asg35
VPT3M58.5704968S
p3277
sg183
I0
sg184
VP0DT0S
p3278
sg39
(dp3279
g41
VOG Str8 SickHCS
p3280
sg43
Nssa(dp3281
g38
I4096745987
sg32
VWeaponDrop
p3282
sg180
I4
sg44
(lp3283
I2758383128
asg35
VPT3M59.9324692S
p3284
sg183
I2
sg184
VP0DT0H0M18.3333S
p3285
sg39
(dp3286
g41
VRNG Victory X
p3287
sg43
Nssa(dp3288
g38
I669296699
sg39
(dp3289
g41
VRNG Victory X
p3290
sg43
Nssg44
(lp3291
I2758383128
asg32
VWeaponPickup
p3292
sg35
VPT3M59.9324692S
p3293
sa(dp3294
g38
I313138863
sg39
(dp3295
g41
VOG ACE HCS
p3296
sg43
Nssg44
(lp3297
I1095363701
asg32
VWeaponPickup
p3298
sg35
VPT4M0.2004648S
p3299
sa(dp3300
g38
I4096745987
sg39
(dp3301
g41
VOG ACE HCS
p3302
sg43
Nssg44
(lp3303
I2758383128
asg32
VWeaponPickup
p3304
sg35
VPT4M0.2014834S
p3305
sa(dp3306
g32
VPlayerSpawn
p3307
sg39
(dp3308
g41
VOG ACE HCS
p3309
sg43
Nssg35
VPT4M0.2014834S
p3310
sa(dp3311
g38
I313138863
sg39
(dp3312
g41
VRNG Ninja HCS
p3313
sg43
Nssg44
(lp3314
I1095363701
asg32
VWeaponPickup
p3315
sg35
VPT4M0.6344617S
p3316
sa(dp3317
g38
I4096745987
sg39
(dp3318
g41
VRNG Ninja HCS
p3319
sg43
Nssg44
(lp3320
I2758383128
asg32
VWeaponPickup
p3321
sg35
VPT4M0.6344617S
p3322
sa(dp3323
g32
VPlayerSpawn
p3324
sg39
(dp3325
g41
VRNG Ninja HCS
p3326
sg43
Nssg35
VPT4M0.6344617S
p3327
sa(dp3328
g208
I4106030681
sg209
I00
sg210
I00
sg211
(dp3329
g41
VOG APG HCS
p3330
sg43
Nssg214
(lp3331
sg216
I00
sg217
I00
sg218
I2
sg219
I0
sg220
I0
sg221
(dp3332
Vy
F5.5784450000000003
sVx
F19.53482
sVz
F-0.0059929789999999998
ssg223
(dp3333
Vy
F-4.2828470000000003
sVx
F21.1420174
sVz
F1.20812583
ssg225
I00
sg226
(dp3334
g1221
g1222
ssg229
(lp3335
sg231
(lp3336
sg235
I00
sg35
VPT4M2.3664509S
p3337
sg32
VDeath
p3338
sg238
I1
sa(dp3339
g32
VMedal
p3340
sg39
(dp3341
g41
VRNG Commonly
p3342
sg43
Nssg243
I3400287617
sg35
VPT4M2.4324675S
p3343
sa(dp3344
g38
I723388907
sg32
VWeaponDrop
p3345
sg180
I8
sg44
(lp3346
I89283061
asg35
VPT4M3.0994459S
p3347
sg183
I1
sg184
VP0DT0H0M5.7167S
p3348
sg39
(dp3349
g41
VRNG Victory X
p3350
sg43
Nssa(dp3351
g38
I723388907
sg32
VWeaponDrop
p3352
sg180
I0
sg44
(lp3353
I89283061
asg35
VPT4M3.0994459S
p3354
sg183
I0
sg184
VP0DT0S
p3355
sg39
(dp3356
g41
VRNG Victory X
p3357
sg43
Nssa(dp3358
g38
I313138863
sg39
(dp3359
g41
VRNG Victory X
p3360
sg43
Nssg44
(lp3361
I1095363701
asg32
VWeaponPickup
p3362
sg35
VPT4M3.0994459S
p3363
sa(dp3364
g38
I313138863
sg32
VWeaponDrop
p3365
sg180
I0
sg44
(lp3366
I1095363701
asg35
VPT4M3.8824645S
p3367
sg183
I0
sg184
VP0DT0H0M0.7833S
p3368
sg39
(dp3369
g41
VRNG Victory X
p3370
sg43
Nssa(dp3371
g38
I723388907
sg39
(dp3372
g41
VRNG Victory X
p3373
sg43
Nssg44
(lp3374
I89283061
asg32
VWeaponPickup
p3375
sg35
VPT4M3.8824645S
p3376
sa(dp3377
g38
I723388907
sg32
VWeaponDrop
p3378
sg180
I0
sg44
(lp3379
I89283061
asg35
VPT4M4.5654733S
p3380
sg183
I0
sg184
VP0DT0H0M0.6833S
p3381
sg39
(dp3382
g41
VRNG Victory X
p3383
sg43
Nssa(dp3384
g38
I4096745987
sg39
(dp3385
g41
VRNG Victory X
p3386
sg43
Nssg44
(lp3387
I2758383128
asg32
VWeaponPickup
p3388
sg35
VPT4M4.5664601S
p3389
sa(dp3390
g38
I4096745987
sg32
VWeaponDrop
p3391
sg180
I0
sg44
(lp3392
I2758383128
asg35
VPT4M6.0324273S
p3393
sg183
I0
sg184
VP0DT0H0M1.4667S
p3394
sg39
(dp3395
g41
VRNG Victory X
p3396
sg43
Nssa(dp3397
g38
I313138863
sg39
(dp3398
g41
VRNG Victory X
p3399
sg43
Nssg44
(lp3400
I1095363701
asg32
VWeaponPickup
p3401
sg35
VPT4M6.0324273S
p3402
sa(dp3403
g38
I4096745987
sg32
VWeaponDrop
p3404
sg180
I0
sg44
(lp3405
I2758383128
asg35
VPT4M6.5494239S
p3406
sg183
I0
sg184
VP0DT0H0M5.1667S
p3407
sg39
(dp3408
g41
VOG ACE HCS
p3409
sg43
Nssa(dp3410
g38
I2511447508
sg39
(dp3411
g41
VOG ACE HCS
p3412
sg43
Nssg44
(lp3413
I2758383128
asg32
VWeaponPickup
p3414
sg35
VPT4M6.5494239S
p3415
sa(dp3416
g38
I313138863
sg39
(dp3417
g41
VOG Str8 SickHCS
p3418
sg43
Nssg44
(lp3419
I1095363701
asg32
VWeaponPickup
p3420
sg35
VPT4M6.5834238S
p3421
sa(dp3422
g38
I4096745987
sg39
(dp3423
g41
VOG Str8 SickHCS
p3424
sg43
Nssg44
(lp3425
I2758383128
asg32
VWeaponPickup
p3426
sg35
VPT4M6.5844429S
p3427
sa(dp3428
g32
VPlayerSpawn
p3429
sg39
(dp3430
g41
VOG Str8 SickHCS
p3431
sg43
Nssg35
VPT4M6.5844429S
p3432
sa(dp3433
g38
I313138863
sg32
VWeaponDrop
p3434
sg180
I0
sg44
(lp3435
I1095363701
asg35
VPT4M7.2984465S
p3436
sg183
I0
sg184
VP0DT0H0M1.2667S
p3437
sg39
(dp3438
g41
VRNG Victory X
p3439
sg43
Nssa(dp3440
g38
I424645655
sg39
(dp3441
g41
VRNG Victory X
p3442
sg43
Nssg44
(lp3443
I1327094800
asg32
VWeaponPickup
p3444
sg35
VPT4M7.2994191S
p3445
sa(dp3446
g208
I4106030681
sg209
I00
sg210
I00
sg211
(dp3447
g41
VRNG Commonly
p3448
sg43
Nssg214
(lp3449
sg216
I00
sg217
I01
sg218
I1
sg219
I0
sg220
I1
sg221
(dp3450
Vy
F0.16055148799999999
sVx
F11.259680700000001
sVz
F-0.054920107099999997
ssg223
(dp3451
Vy
F-5.1723732900000003
sVx
F12.269216500000001
sVz
F2.71655917
ssg225
I00
sg226
(dp3452
g41
VOG Maniac HCS
p3453
sg43
Nssg229
(lp3454
sg231
(lp3455
(dp3456
g41
VRNG Ninja HCS
p3457
sg43
Nsasg235
I00
sg35
VPT4M7.5664174S
p3458
sg32
VDeath
p3459
sg238
I1
sa(dp3460
g38
I313138863
sg32
VWeaponDrop
p3461
sg180
I1
sg44
(lp3462
I1095363701
asg35
VPT4M7.5684383S
p3463
sg183
I0
sg184
VP0DT0H0M2.3000S
p3464
sg39
(dp3465
g41
VOG Maniac HCS
p3466
sg43
Nssa(dp3467
g38
I4096745987
sg32
VWeaponDrop
p3468
sg180
I5
sg44
(lp3469
I2758383128
asg35
VPT4M7.5684383S
p3470
sg183
I2
sg184
VP0DT0H0M8.6333S
p3471
sg39
(dp3472
g41
VOG Maniac HCS
p3473
sg43
Nssa(dp3474
g208
I4096745987
sg209
I00
sg210
I00
sg211
(dp3475
g41
VOG Str8 SickHCS
p3476
sg43
Nssg214
(lp3477
I2758383128
asg216
I00
sg217
I00
sg218
I2
sg219
I0
sg220
I0
sg221
(dp3478
Vy
F6.2274384500000002
sVx
F-3.8904204400000002
sVz
F2.2098436399999999
ssg223
(dp3479
Vy
F3.6524624800000001
sVx
F-2.4600274600000001
sVz
F3.2003424200000001
ssg225
I00
sg226
(dp3480
g1221
g1222
ssg229
(lp3481
sg231
(lp3482
sg235
I00
sg35
VPT4M11.933389S
p3483
sg32
VDeath
p3484
sg238
I1
sa(dp3485
g38
I4096745987
sg32
VWeaponDrop
p3486
sg180
I0
sg44
(lp3487
I2758383128
asg35
VPT4M13.3654111S
p3488
sg183
I0
sg184
VP0DT0H0M9.0167S
p3489
sg39
(dp3490
g41
VRNG Ninja HCS
p3491
sg43
Nssa(dp3492
g38
I424645655
sg39
(dp3493
g41
VRNG Ninja HCS
p3494
sg43
Nssg44
(lp3495
I1327094800
asg32
VWeaponPickup
p3496
sg35
VPT4M13.3654111S
p3497
sa(dp3498
g208
I723388907
sg209
I00
sg210
I00
sg211
(dp3499
g41
VRNG Penguin HCS
p3500
sg43
Nssg214
(lp3501
I89283061
asg216
I00
sg217
I01
sg218
I1
sg219
I0
sg220
I1
sg221
(dp3502
Vy
F10.969235400000001
sVx
F21.875434899999998
sVz
F0.75135459999999998
ssg223
(dp3503
Vy
F13.3325634
sVx
F20.451049999999999
sVz
F-0.0030030310000000002
ssg225
I00
sg226
(dp3504
g41
VOG APG HCS
p3505
sg43
Nssg229
(lp3506
sg231
(lp3507
sg235
I00
sg35
VPT4M14.250374S
p3508
sg32
VDeath
p3509
sg238
I1
sa(dp3510
g38
I313138863
sg32
VWeaponDrop
p3511
sg180
I18
sg44
(lp3512
I1095363701
asg35
VPT4M14.2513944S
p3513
sg183
I9
sg184
VP0DT0H0M8.9833S
p3514
sg39
(dp3515
g41
VOG APG HCS
p3516
sg43
Nssa(dp3517
g38
I4096745987
sg32
VWeaponDrop
p3518
sg180
I6
sg44
(lp3519
I2758383128
asg35
VPT4M14.2513944S
p3520
sg183
I6
sg184
VP0DT0H0M11.7667S
p3521
sg39
(dp3522
g41
VOG APG HCS
p3523
sg43
Nssa(dp3524
g208
I2511447508
sg209
I00
sg210
I00
sg211
(dp3525
g41
VOG ACE HCS
p3526
sg43
Nssg214
(lp3527
I2758383128
asg216
I00
sg217
I01
sg218
I1
sg219
I0
sg220
I1
sg221
(dp3528
Vy
F10.243201300000001
sVx
F15.5817595
sVz
F4.2424140000000001
ssg223
(dp3529
Vy
F5.0821843099999997
sVx
F18.222270999999999
sVz
F1.8917017
ssg225
I00
sg226
(dp3530
g41
VRNG Victory X
p3531
sg43
Nssg229
(lp3532
sg231
(lp3533
sg235
I01
sg35
VPT4M15.4333673S
p3534
sg32
VDeath
p3535
sg238
I1
sa(dp3536
g32
VMedal
p3537
sg39
(dp3538
g41
VOG ACE HCS
p3539
sg43
Nssg243
I3261908037
sg35
VPT4M15.4343673S
p3540
sa(dp3541
g38
I424645655
sg32
VWeaponDrop
p3542
sg180
I0
sg44
(lp3543
I1327094800
asg35
VPT4M15.4353743S
p3544
sg183
I0
sg184
VP0DT0H0M6.2000S
p3545
sg39
(dp3546
g41
VRNG Victory X
p3547
sg43
Nssa(dp3548
g38
I669296699
sg32
VWeaponDrop
p3549
sg180
I0
sg44
(lp3550
I2758383128
asg35
VPT4M15.4353743S
p3551
sg183
I0
sg184
VP0DT0H0M4.7167S
p3552
sg39
(dp3553
g41
VRNG Victory X
p3554
sg43
Nssa(dp3555
g38
I313138863
sg39
(dp3556
g41
VOG Maniac HCS
p3557
sg43
Nssg44
(lp3558
I1095363701
asg32
VWeaponPickup
p3559
sg35
VPT4M15.5833664S
p3560
sa(dp3561
g38
I4096745987
sg39
(dp3562
g41
VOG Maniac HCS
p3563
sg43
Nssg44
(lp3564
I2758383128
asg32
VWeaponPickup
p3565
sg35
VPT4M15.5843901S
p3566
sa(dp3567
g32
VPlayerSpawn
p3568
sg39
(dp3569
g41
VOG Maniac HCS
p3570
sg43
Nssg35
VPT4M15.5843901S
p3571
sa(dp3572
g32
VMedal
p3573
sg39
(dp3574
g41
VRNG Penguin HCS
p3575
sg43
Nssg243
I3400287617
sg35
VPT4M17.2323658S
p3576
sa(dp3577
g208
I2511447508
sg209
I00
sg210
I00
sg211
(dp3578
g41
VRNG Penguin HCS
p3579
sg43
Nssg214
(lp3580
I2758383128
asg216
I00
sg217
I01
sg218
I1
sg219
I0
sg220
I1
sg221
(dp3581
Vy
F9.0461819999999999
sVx
F22.4226761
sVz
F1.0833567399999999
ssg223
(dp3582
Vy
F13.221859
sVx
F22.424455600000002
sVz
F1.01075447
ssg225
I00
sg226
(dp3583
g41
VOG ACE HCS
p3584
sg43
Nssg229
(lp3585
sg231
(lp3586
sg235
I01
sg35
VPT4M19.0493828S
p3587
sg32
VDeath
p3588
sg238
I1
sa(dp3589
g32
VMedal
p3590
sg39
(dp3591
g41
VRNG Penguin HCS
p3592
sg43
Nssg243
I3261908037
sg35
VPT4M19.0513613S
p3593
sa(dp3594
g32
VMedal
p3595
sg39
(dp3596
g41
VRNG Penguin HCS
p3597
sg43
Nssg243
I2078758684
sg35
VPT4M19.0513613S
p3598
sa(dp3599
g38
I313138863
sg32
VWeaponDrop
p3600
sg180
I0
sg44
(lp3601
I1095363701
asg35
VPT4M19.0513613S
p3602
sg183
I0
sg184
VP0DT0H0M1.1833S
p3603
sg39
(dp3604
g41
VOG ACE HCS
p3605
sg43
Nssa(dp3606
g38
I2511447508
sg32
VWeaponDrop
p3607
sg180
I9
sg44
(lp3608
I2758383128
asg35
VPT4M19.0513613S
p3609
sg183
I4
sg184
VP0DT0H0M12.5000S
p3610
sg39
(dp3611
g41
VOG ACE HCS
p3612
sg43
Nssa(dp3613
g208
I4096745987
sg209
I00
sg210
I00
sg211
(dp3614
g41
VOG Str8 SickHCS
p3615
sg43
Nssg214
(lp3616
I2758383128
asg216
I00
sg217
I01
sg218
I1
sg219
I0
sg220
I1
sg221
(dp3617
Vy
F2.0833344500000002
sVx
F9.6387909999999994
sVz
F5.720847
ssg223
(dp3618
Vy
F6.0886216199999996
sVx
F21.689796399999999
sVz
F0.31912422200000001
ssg225
I00
sg226
(dp3619
g41
VRNG Ninja HCS
p3620
sg43
Nssg229
(lp3621
sg231
(lp3622
sg235
I01
sg35
VPT4M20.6323345S
p3623
sg32
VDeath
p3624
sg238
I1
sa(dp3625
g32
VImpulse
p3626
sg39
(dp3627
g41
VOG Str8 SickHCS
p3628
sg43
Nssg720
I3174430457
sg35
VPT4M20.6343532S
p3629
sa(dp3630
g32
VMedal
p3631
sg39
(dp3632
g41
VOG Str8 SickHCS
p3633
sg43
Nssg243
I3653057799
sg35
VPT4M20.6343532S
p3634
sa(dp3635
g38
I313138863
sg32
VWeaponDrop
p3636
sg180
I0
sg44
(lp3637
I1095363701
asg35
VPT4M20.6353707S
p3638
sg183
I0
sg184
VP0DT0H0M3.9000S
p3639
sg39
(dp3640
g41
VRNG Ninja HCS
p3641
sg43
Nssa(dp3642
g38
I424645655
sg32
VWeaponDrop
p3643
sg180
I0
sg44
(lp3644
I1327094800
asg35
VPT4M20.6353707S
p3645
sg183
I0
sg184
VP0DT0H0M7.0833S
p3646
sg39
(dp3647
g41
VRNG Ninja HCS
p3648
sg43
Nssa(dp3649
g38
I313138863
sg39
(dp3650
g41
VOG APG HCS
p3651
sg43
Nssg44
(lp3652
I1095363701
asg32
VWeaponPickup
p3653
sg35
VPT4M22.2663465S
p3654
sa(dp3655
g38
I4096745987
sg39
(dp3656
g41
VOG APG HCS
p3657
sg43
Nssg44
(lp3658
I2758383128
asg32
VWeaponPickup
p3659
sg35
VPT4M22.2663465S
p3660
sa(dp3661
g32
VPlayerSpawn
p3662
sg39
(dp3663
g41
VOG APG HCS
p3664
sg43
Nssg35
VPT4M22.2673446S
p3665
sa(dp3666
g38
I313138863
sg39
(dp3667
g41
VRNG Victory X
p3668
sg43
Nssg44
(lp3669
I1095363701
asg32
VWeaponPickup
p3670
sg35
VPT4M23.449316S
p3671
sa(dp3672
g38
I4096745987
sg39
(dp3673
g41
VRNG Victory X
p3674
sg43
Nssg44
(lp3675
I2758383128
asg32
VWeaponPickup
p3676
sg35
VPT4M23.4503355S
p3677
sa(dp3678
g32
VPlayerSpawn
p3679
sg39
(dp3680
g41
VRNG Victory X
p3681
sg43
Nssg35
VPT4M23.4503355S
p3682
sa(dp3683
g38
I723388907
sg32
VWeaponDrop
p3684
sg180
I55
sg44
(lp3685
I89283061
asg35
VPT4M24.2983337S
p3686
sg183
I17
sg184
VP0DT0H0M31.4667S
p3687
sg39
(dp3688
g41
VRNG Penguin HCS
p3689
sg43
Nssa(dp3690
g38
I669296699
sg39
(dp3691
g41
VRNG Penguin HCS
p3692
sg43
Nssg44
(lp3693
I2758383128
asg32
VWeaponPickup
p3694
sg35
VPT4M24.2983337S
p3695
sa(dp3696
g208
I4096745987
sg209
I00
sg210
I00
sg211
(dp3697
g41
VOG Maniac HCS
p3698
sg43
Nssg214
(lp3699
I2758383128
asg216
I00
sg217
I01
sg218
I1
sg219
I0
sg220
I1
sg221
(dp3700
Vy
F0.16996790000000001
sVx
F21.555416099999999
sVz
F-0.054920107099999997
ssg223
(dp3701
Vy
F7.5349636100000001
sVx
F21.439998599999999
sVz
F-0.00312867761
ssg225
I00
sg226
(dp3702
g41
VRNG Penguin HCS
p3703
sg43
Nssg229
(lp3704
sg231
(lp3705
(dp3706
g41
VOG ACE HCS
p3707
sg43
Nsasg235
I01
sg35
VPT4M24.5323314S
p3708
sg32
VDeath
p3709
sg238
I1
sa(dp3710
g32
VMedal
p3711
sg39
(dp3712
g41
VOG Maniac HCS
p3713
sg43
Nssg243
I3261908037
sg35
VPT4M24.5343283S
p3714
sa(dp3715
g38
I2511447508
sg32
VWeaponDrop
p3716
sg180
I21
sg44
(lp3717
I2758383128
asg35
VPT4M24.5343283S
p3718
sg183
I16
sg184
VP0DT0H1M13.0167S
p3719
sg39
(dp3720
g41
VRNG Penguin HCS
p3721
sg43
Nssa(dp3722
g38
I669296699
sg32
VWeaponDrop
p3723
sg180
I0
sg44
(lp3724
I2758383128
asg35
VPT4M24.5343283S
p3725
sg183
I0
sg184
VP0DT0H0M0.2333S
p3726
sg39
(dp3727
g41
VRNG Penguin HCS
p3728
sg43
Nssa(dp3729
g38
I313138863
sg32
VWeaponDrop
p3730
sg180
I4
sg44
(lp3731
I1095363701
asg35
VPT4M26.3643155S
p3732
sg183
I0
sg184
VP0DT0H0M4.2000S
p3733
sg39
(dp3734
g41
VOG Str8 SickHCS
p3735
sg43
Nssa(dp3736
g38
I424645655
sg39
(dp3737
g41
VOG Str8 SickHCS
p3738
sg43
Nssg44
(lp3739
I1327094800
asg32
VWeaponPickup
p3740
sg35
VPT4M26.3652979S
p3741
sa(dp3742
g38
I313138863
sg39
(dp3743
g41
VOG ACE HCS
p3744
sg43
Nssg44
(lp3745
I1095363701
asg32
VWeaponPickup
p3746
sg35
VPT4M27.0663159S
p3747
sa(dp3748
g38
I4096745987
sg39
(dp3749
g41
VOG ACE HCS
p3750
sg43
Nssg44
(lp3751
I2758383128
asg32
VWeaponPickup
p3752
sg35
VPT4M27.0663159S
p3753
sa(dp3754
g32
VPlayerSpawn
p3755
sg39
(dp3756
g41
VOG ACE HCS
p3757
sg43
Nssg35
VPT4M27.0663159S
p3758
sa(dp3759
g38
I424645655
sg32
VWeaponDrop
p3760
sg180
I0
sg44
(lp3761
I1327094800
asg35
VPT4M27.2143154S
p3762
sg183
I0
sg184
VP0DT0H0M0.8500S
p3763
sg39
(dp3764
g41
VOG Str8 SickHCS
p3765
sg43
Nssa(dp3766
g38
I669296699
sg39
(dp3767
g41
VOG Str8 SickHCS
p3768
sg43
Nssg44
(lp3769
I2758383128
asg32
VWeaponPickup
p3770
sg35
VPT4M27.2152982S
p3771
sa(dp3772
g38
I313138863
sg32
VWeaponDrop
p3773
sg180
I0
sg44
(lp3774
I1095363701
asg35
VPT4M28.5142836S
p3775
sg183
I0
sg184
VP0DT0H0M1.0500S
p3776
sg39
(dp3777
g41
VRNG Victory X
p3778
sg43
Nssa(dp3779
g38
I723388907
sg39
(dp3780
g41
VRNG Victory X
p3781
sg43
Nssg44
(lp3782
I89283061
asg32
VWeaponPickup
p3783
sg35
VPT4M28.5153085S
p3784
sa(dp3785
g38
I313138863
sg39
(dp3786
g41
VRNG Ninja HCS
p3787
sg43
Nssg44
(lp3788
I1095363701
asg32
VWeaponPickup
p3789
sg35
VPT4M28.6492824S
p3790
sa(dp3791
g38
I4096745987
sg39
(dp3792
g41
VRNG Ninja HCS
p3793
sg43
Nssg44
(lp3794
I2758383128
asg32
VWeaponPickup
p3795
sg35
VPT4M28.6492824S
p3796
sa(dp3797
g32
VPlayerSpawn
p3798
sg39
(dp3799
g41
VRNG Ninja HCS
p3800
sg43
Nssg35
VPT4M28.6503003S
p3801
sa(dp3802
g38
I313138863
sg39
(dp3803
g41
VRNG Penguin HCS
p3804
sg43
Nssg44
(lp3805
I1095363701
asg32
VWeaponPickup
p3806
sg35
VPT4M32.5492804S
p3807
sa(dp3808
g38
I4096745987
sg39
(dp3809
g41
VRNG Penguin HCS
p3810
sg43
Nssg44
(lp3811
I2758383128
asg32
VWeaponPickup
p3812
sg35
VPT4M32.5492804S
p3813
sa(dp3814
g32
VPlayerSpawn
p3815
sg39
(dp3816
g41
VRNG Penguin HCS
p3817
sg43
Nssg35
VPT4M32.5502592S
p3818
sa(dp3819
g38
I313138863
sg32
VWeaponDrop
p3820
sg180
I0
sg44
(lp3821
I1095363701
asg35
VPT4M36.8472486S
p3822
sg183
I0
sg184
VP0DT0H0M1.0167S
p3823
sg39
(dp3824
g41
VRNG Ninja HCS
p3825
sg43
Nssa(dp3826
g38
I1579758889
sg39
(dp3827
g41
VRNG Ninja HCS
p3828
sg43
Nssg44
(lp3829
I2758383128
asg32
VWeaponPickup
p3830
sg35
VPT4M36.8482484S
p3831
sa(dp3832
g208
I4096745987
sg209
I00
sg210
I00
sg211
(dp3833
g41
VRNG Penguin HCS
p3834
sg43
Nssg214
(lp3835
I2758383128
asg216
I00
sg217
I01
sg218
I1
sg219
I0
sg220
I1
sg221
(dp3836
Vy
F8.3740389999999998
sVx
F-3.2987169999999999
sVz
F4.4855623199999997
ssg223
(dp3837
Vy
F6.3409423800000004
sVx
F8.9576499999999992
sVz
F0.93729530000000005
ssg225
I00
sg226
(dp3838
g41
VOG Maniac HCS
p3839
sg43
Nssg229
(lp3840
sg231
(lp3841
(dp3842
g41
VRNG Victory X
p3843
sg43
Nsasg235
I01
sg35
VPT4M37.9152231S
p3844
sg32
VDeath
p3845
sg238
I1
sa(dp3846
g32
VMedal
p3847
sg39
(dp3848
g41
VRNG Penguin HCS
p3849
sg43
Nssg243
I3261908037
sg35
VPT4M37.9172468S
p3850
sa(dp3851
g38
I313138863
sg32
VWeaponDrop
p3852
sg180
I0
sg44
(lp3853
I1095363701
asg35
VPT4M37.9172468S
p3854
sg183
I0
sg184
VP0DT0H0M0.9167S
p3855
sg39
(dp3856
g41
VOG Maniac HCS
p3857
sg43
Nssa(dp3858
g38
I4096745987
sg32
VWeaponDrop
p3859
sg180
I7
sg44
(lp3860
I2758383128
asg35
VPT4M37.9172468S
p3861
sg183
I4
sg184
VP0DT0H0M21.4167S
p3862
sg39
(dp3863
g41
VOG Maniac HCS
p3864
sg43
Nssa(dp3865
g208
I4096745987
sg209
I00
sg210
I00
sg211
(dp3866
g41
VRNG Commonly
p3867
sg43
Nssg214
(lp3868
I2758383128
asg216
I00
sg217
I01
sg218
I1
sg219
I0
sg220
I1
sg221
(dp3869
Vy
F3.0949749999999998
sVx
F17.259363199999999
sVz
F1.0107374200000001
ssg223
(dp3870
Vy
F5.5063667299999999
sVx
F18.579097699999998
sVz
F0.51042529999999997
ssg225
I00
sg226
(dp3871
g41
VOG APG HCS
p3872
sg43
Nssg229
(lp3873
sg231
(lp3874
sg235
I00
sg35
VPT4M42.5481923S
p3875
sg32
VDeath
p3876
sg238
I1
sa(dp3877
g38
I313138863
sg32
VWeaponDrop
p3878
sg180
I0
sg44
(lp3879
I1095363701
asg35
VPT4M42.5502276S
p3880
sg183
I0
sg184
VP0DT0H0M0.7833S
p3881
sg39
(dp3882
g41
VOG APG HCS
p3883
sg43
Nssa(dp3884
g38
I4096745987
sg32
VWeaponDrop
p3885
sg180
I16
sg44
(lp3886
I2758383128
asg35
VPT4M42.5502276S
p3887
sg183
I8
sg184
VP0DT0H0M19.5000S
p3888
sg39
(dp3889
g41
VOG APG HCS
p3890
sg43
Nssa(dp3891
g32
VMedal
p3892
sg39
(dp3893
g41
VRNG Commonly
p3894
sg43
Nssg243
I3400287617
sg35
VPT4M45.3641756S
p3895
sa(dp3896
g208
I4096745987
sg209
I00
sg210
I00
sg211
(dp3897
g41
VOG Str8 SickHCS
p3898
sg43
Nssg214
(lp3899
I2758383128
asg216
I00
sg217
I01
sg218
I1
sg219
I0
sg220
I1
sg221
(dp3900
Vy
F10.991405500000001
sVx
F1.0991869000000001
sVz
F3.4789235600000001
ssg223
(dp3901
Vy
F1.71342957
sVx
F1.5590378
sVz
F4.7268319999999999
ssg225
I00
sg226
(dp3902
g41
VRNG Victory X
p3903
sg43
Nssg229
(lp3904
sg231
(lp3905
(dp3906
g41
VOG ACE HCS
p3907
sg43
Nsasg235
I01
sg35
VPT4M45.3981772S
p3908
sg32
VDeath
p3909
sg238
I1
sa(dp3910
g32
VMedal
p3911
sg39
(dp3912
g41
VOG Str8 SickHCS
p3913
sg43
Nssg243
I3261908037
sg35
VPT4M45.4002026S
p3914
sa(dp3915
g38
I723388907
sg32
VWeaponDrop
p3916
sg180
I0
sg44
(lp3917
I89283061
asg35
VPT4M45.4002026S
p3918
sg183
I0
sg184
VP0DT0H0M2.4167S
p3919
sg39
(dp3920
g41
VRNG Victory X
p3921
sg43
Nssa(dp3922
g38
I4096745987
sg32
VWeaponDrop
p3923
sg180
I9
sg44
(lp3924
I2758383128
asg35
VPT4M45.4002026S
p3925
sg183
I7
sg184
VP0DT0H0M18.4833S
p3926
sg39
(dp3927
g41
VRNG Victory X
p3928
sg43
Nssa(dp3929
g38
I313138863
sg39
(dp3930
g41
VOG Maniac HCS
p3931
sg43
Nssg44
(lp3932
I1095363701
asg32
VWeaponPickup
p3933
sg35
VPT4M45.9321978S
p3934
sa(dp3935
g38
I4096745987
sg39
(dp3936
g41
VOG Maniac HCS
p3937
sg43
Nssg44
(lp3938
I2758383128
asg32
VWeaponPickup
p3939
sg35
VPT4M45.9321978S
p3940
sa(dp3941
g32
VPlayerSpawn
p3942
sg39
(dp3943
g41
VOG Maniac HCS
p3944
sg43
Nssg35
VPT4M45.9321978S
p3945
sa(dp3946
g208
I4096745987
sg209
I00
sg210
I01
sg211
(dp3947
g41
VOG Str8 SickHCS
p3948
sg43
Nssg214
(lp3949
I2758383128
asg216
I00
sg217
I00
sg218
I1
sg219
I0
sg220
I1
sg221
(dp3950
Vy
F12.267866100000001
sVx
F2.0636060000000001
sVz
F1.5927541300000001
ssg223
(dp3951
Vy
F12.4116535
sVx
F1.74641085
sVz
F2.3102070000000001
ssg225
I00
sg226
(dp3952
g41
VRNG Penguin HCS
p3953
sg43
Nssg229
(lp3954
sg231
(lp3955
sg235
I00
sg35
VPT4M48.1811664S
p3956
sg32
VDeath
p3957
sg238
I1
sa(dp3958
g32
VMedal
p3959
sg39
(dp3960
g41
VOG Str8 SickHCS
p3961
sg43
Nssg243
I250435527
sg35
VPT4M48.1821757S
p3962
sa(dp3963
g32
VMedal
p3964
sg39
(dp3965
g41
VOG Str8 SickHCS
p3966
sg43
Nssg243
I2078758684
sg35
VPT4M48.1821757S
p3967
sa(dp3968
g38
I313138863
sg32
VWeaponDrop
p3969
sg180
I10
sg44
(lp3970
I1095363701
asg35
VPT4M48.1821757S
p3971
sg183
I5
sg184
VP0DT0H0M5.4833S
p3972
sg39
(dp3973
g41
VRNG Penguin HCS
p3974
sg43
Nssa(dp3975
g38
I313138863
sg32
VWeaponDrop
p3976
sg180
I0
sg44
(lp3977
I1095363701
asg35
VPT4M48.1821757S
p3978
sg183
I0
sg184
VP0DT0S
p3979
sg39
(dp3980
g41
VRNG Penguin HCS
p3981
sg43
Nssa(dp3982
g38
I4096745987
sg32
VWeaponDrop
p3983
sg180
I8
sg44
(lp3984
I2758383128
asg35
VPT4M48.183177S
p3985
sg183
I2
sg184
VP0DT0H0M10.1500S
p3986
sg39
(dp3987
g41
VRNG Penguin HCS
p3988
sg43
Nssa(dp3989
g38
I313138863
sg39
(dp3990
g41
VOG APG HCS
p3991
sg43
Nssg44
(lp3992
I1095363701
asg32
VWeaponPickup
p3993
sg35
VPT4M50.5651424S
p3994
sa(dp3995
g38
I4096745987
sg39
(dp3996
g41
VOG APG HCS
p3997
sg43
Nssg44
(lp3998
I2758383128
asg32
VWeaponPickup
p3999
sg35
VPT4M50.5651424S
p4000
sa(dp4001
g32
VPlayerSpawn
p4002
sg39
(dp4003
g41
VOG APG HCS
p4004
sg43
Nssg35
VPT4M50.5651424S
p4005
sa(dp4006
g32
VMedal
p4007
sg39
(dp4008
g41
VOG Str8 SickHCS
p4009
sg43
Nssg243
I3400287617
sg35
VPT4M50.5661424S
p4010
sa(dp4011
g208
I669296699
sg209
I00
sg210
I00
sg211
(dp4012
g41
VOG Str8 SickHCS
p4013
sg43
Nssg214
(lp4014
I2758383128
asg216
I00
sg217
I01
sg218
I1
sg219
I0
sg220
I1
sg221
(dp4015
Vy
F11.4297647
sVx
F4.1644560000000004
sVz
F3.05952454
ssg223
(dp4016
Vy
F11.6305742
sVx
F11.8077278
sVz
F4.1957079999999998
ssg225
I00
sg226
(dp4017
g41
VRNG Commonly
p4018
sg43
Nssg229
(lp4019
sg231
(lp4020
(dp4021
g41
VOG Maniac HCS
p4022
sg43
Nsasg235
I00
sg35
VPT4M51.7981337S
p4023
sg32
VDeath
p4024
sg238
I1
sa(dp4025
g32
VMedal
p4026
sg39
(dp4027
g41
VOG Str8 SickHCS
p4028
sg43
Nssg243
I3486286344
sg35
VPT4M51.7991568S
p4029
sa(dp4030
g32
VMedal
p4031
sg39
(dp4032
g41
VOG Str8 SickHCS
p4033
sg43
Nssg243
I2763748638
sg35
VPT4M51.7991568S
p4034
sa(dp4035
g38
I524558978
sg32
VWeaponDrop
p4036
sg180
I4
sg44
(lp4037
I2758383128
asg35
VPT4M51.7991568S
p4038
sg183
I1
sg184
VP0DT0H0M37.2667S
p4039
sg39
(dp4040
g41
VRNG Commonly
p4041
sg43
Nssa(dp4042
g38
I4096745987
sg32
VWeaponDrop
p4043
sg180
I24
sg44
(lp4044
I2758383128
asg35
VPT4M51.7991568S
p4045
sg183
I9
sg184
VP0DT0H0M33.3333S
p4046
sg39
(dp4047
g41
VRNG Commonly
p4048
sg43
Nssa(dp4049
g38
I4096745987
sg32
VWeaponDrop
p4050
sg180
I4
sg44
(lp4051
I2758383128
asg35
VPT4M52.3471453S
p4052
sg183
I3
sg184
VP0DT0H0M4.7000S
p4053
sg39
(dp4054
g41
VOG Maniac HCS
p4055
sg43
Nssa(dp4056
g38
I424645655
sg39
(dp4057
g41
VOG Maniac HCS
p4058
sg43
Nssg44
(lp4059
I1327094800
asg32
VWeaponPickup
p4060
sg35
VPT4M52.3471453S
p4061
sa(dp4062
g38
I313138863
sg39
(dp4063
g41
VRNG Victory X
p4064
sg43
Nssg44
(lp4065
I1095363701
asg32
VWeaponPickup
p4066
sg35
VPT4M53.4151466S
p4067
sa(dp4068
g38
I4096745987
sg39
(dp4069
g41
VRNG Victory X
p4070
sg43
Nssg44
(lp4071
I2758383128
asg32
VWeaponPickup
p4072
sg35
VPT4M53.4151466S
p4073
sa(dp4074
g32
VPlayerSpawn
p4075
sg39
(dp4076
g41
VRNG Victory X
p4077
sg43
Nssg35
VPT4M53.4151466S
p4078
sa(dp4079
g208
I4096745987
sg209
I00
sg210
I00
sg211
(dp4080
g41
VOG ACE HCS
p4081
sg43
Nssg214
(lp4082
I2758383128
asg216
I00
sg217
I01
sg218
I1
sg219
I0
sg220
I1
sg221
(dp4083
Vy
F-0.224611014
sVx
F3.0784864399999998
sVz
F1.02249777
ssg223
(dp4084
Vy
F1.0874159999999999
sVx
F-7.4540877300000004
sVz
F1.56988883
ssg225
I00
sg226
(dp4085
g41
VRNG Ninja HCS
p4086
sg43
Nssg229
(lp4087
sg231
(lp4088
sg235
I01
sg35
VPT4M54.4151182S
p4089
sg32
VDeath
p4090
sg238
I1
sa(dp4091
g32
VMedal
p4092
sg39
(dp4093
g41
VOG ACE HCS
p4094
sg43
Nssg243
I3261908037
sg35
VPT4M54.4171391S
p4095
sa(dp4096
g38
I1579758889
sg32
VWeaponDrop
p4097
sg180
I9
sg44
(lp4098
I2758383128
asg35
VPT4M54.4171391S
p4099
sg183
I0
sg184
VP0DT0H0M10.7167S
p4100
sg39
(dp4101
g41
VRNG Ninja HCS
p4102
sg43
Nssa(dp4103
g38
I4096745987
sg32
VWeaponDrop
p4104
sg180
I7
sg44
(lp4105
I2758383128
asg35
VPT4M54.4171391S
p4106
sg183
I3
sg184
VP0DT0H0M14.0333S
p4107
sg39
(dp4108
g41
VRNG Ninja HCS
p4109
sg43
Nssa(dp4110
g32
VMedal
p4111
sg39
(dp4112
g41
VOG Str8 SickHCS
p4113
sg43
Nssg243
I3400287617
sg35
VPT4M55.6301321S
p4114
sa(dp4115
g38
I313138863
sg39
(dp4116
g41
VRNG Penguin HCS
p4117
sg43
Nssg44
(lp4118
I1095363701
asg32
VWeaponPickup
p4119
sg35
VPT4M56.1981286S
p4120
sa(dp4121
g38
I4096745987
sg39
(dp4122
g41
VRNG Penguin HCS
p4123
sg43
Nssg44
(lp4124
I2758383128
asg32
VWeaponPickup
p4125
sg35
VPT4M56.1981286S
p4126
sa(dp4127
g32
VPlayerSpawn
p4128
sg39
(dp4129
g41
VRNG Penguin HCS
p4130
sg43
Nssg35
VPT4M56.1981286S
p4131
sa(dp4132
g38
I4096745987
sg32
VWeaponDrop
p4133
sg180
I0
sg44
(lp4134
I2758383128
asg35
VPT4M56.7131028S
p4135
sg183
I0
sg184
VP0DT0H0M2.8500S
p4136
sg39
(dp4137
g41
VRNG Victory X
p4138
sg43
Nssa(dp4139
g38
I424645655
sg39
(dp4140
g41
VRNG Victory X
p4141
sg43
Nssg44
(lp4142
I1327094800
asg32
VWeaponPickup
p4143
sg35
VPT4M56.7131028S
p4144
sa(dp4145
g38
I313138863
sg32
VWeaponDrop
p4146
sg180
I0
sg44
(lp4147
I1095363701
asg35
VPT4M57.1801184S
p4148
sg183
I0
sg184
VP0DT0H0M1.4000S
p4149
sg39
(dp4150
g41
VOG ACE HCS
p4151
sg43
Nssa(dp4152
g38
I723388907
sg39
(dp4153
g41
VOG ACE HCS
p4154
sg43
Nssg44
(lp4155
I89283061
asg32
VWeaponPickup
p4156
sg35
VPT4M57.1801184S
p4157
sa(dp4158
g38
I2492868984
sg39
(dp4159
g41
VOG APG HCS
p4160
sg43
Nssg44
(lp4161
I2758383128
asg32
VWeaponPickup
p4162
sg35
VPT4M57.5470975S
p4163
sa(dp4164
g38
I313138863
sg32
VWeaponDrop
p4165
sg180
I0
sg44
(lp4166
I1095363701
asg35
VPT4M58.4470917S
p4167
sg183
I0
sg184
VP0DT0H0M2.2500S
p4168
sg39
(dp4169
g41
VRNG Penguin HCS
p4170
sg43
Nssa(dp4171
g38
I723388907
sg39
(dp4172
g41
VRNG Penguin HCS
p4173
sg43
Nssg44
(lp4174
I89283061
asg32
VWeaponPickup
p4175
sg35
VPT4M58.4470917S
p4176
sa(dp4177
g38
I2492868984
sg32
VWeaponDrop
p4178
sg180
I0
sg44
(lp4179
I2758383128
asg35
VPT4M58.6980895S
p4180
sg183
I0
sg184
VP0DT0H0M1.0000S
p4181
sg39
(dp4182
g41
VOG APG HCS
p4183
sg43
Nssa(dp4184
g38
I313138863
sg39
(dp4185
g41
VRNG Commonly
p4186
sg43
Nssg44
(lp4187
I1095363701
asg32
VWeaponPickup
p4188
sg35
VPT4M59.8151014S
p4189
sa(dp4190
g38
I4096745987
sg39
(dp4191
g41
VRNG Commonly
p4192
sg43
Nssg44
(lp4193
I2758383128
asg32
VWeaponPickup
p4194
sg35
VPT4M59.8151014S
p4195
sa(dp4196
g32
VPlayerSpawn
p4197
sg39
(dp4198
g41
VRNG Commonly
p4199
sg43
Nssg35
VPT4M59.8151014S
p4200
sa(dp4201
g38
I313138863
sg39
(dp4202
g41
VRNG Ninja HCS
p4203
sg43
Nssg44
(lp4204
I1095363701
asg32
VWeaponPickup
p4205
sg35
VPT5M2.4310666S
p4206
sa(dp4207
g38
I4096745987
sg39
(dp4208
g41
VRNG Ninja HCS
p4209
sg43
Nssg44
(lp4210
I2758383128
asg32
VWeaponPickup
p4211
sg35
VPT5M2.432066S
p4212
sa(dp4213
g32
VPlayerSpawn
p4214
sg39
(dp4215
g41
VRNG Ninja HCS
p4216
sg43
Nssg35
VPT5M2.432066S
p4217
sa(dp4218
g208
I723388907
sg209
I00
sg210
I00
sg211
(dp4219
g41
VRNG Penguin HCS
p4220
sg43
Nssg214
(lp4221
I89283061
asg216
I00
sg217
I01
sg218
I1
sg219
I0
sg220
I1
sg221
(dp4222
Vy
F13.2885656
sVx
F-6.9086420000000004
sVz
F1.5995029999999999
ssg223
(dp4223
Vy
F12.8437719
sVx
F-2.8069307800000001
sVz
F1.7016555099999999
ssg225
I00
sg226
(dp4224
g41
VOG Str8 SickHCS
p4225
sg43
Nssg229
(lp4226
sg231
(lp4227
sg235
I00
sg35
VPT5M5.2480483S
p4228
sg32
VDeath
p4229
sg238
I1
sa(dp4230
g38
I669296699
sg32
VWeaponDrop
p4231
sg180
I2
sg44
(lp4232
I2758383128
asg35
VPT5M5.2490674S
p4233
sg183
I1
sg184
VP0DT0H0M21.8333S
p4234
sg39
(dp4235
g41
VOG Str8 SickHCS
p4236
sg43
Nssa(dp4237
g38
I4096745987
sg32
VWeaponDrop
p4238
sg180
I20
sg44
(lp4239
I2758383128
asg35
VPT5M5.2490674S
p4240
sg183
I12
sg184
VP0DT0H0M31.7833S
p4241
sg39
(dp4242
g41
VOG Str8 SickHCS
p4243
sg43
Nssa(dp4244
g38
I4096745987
sg32
VWeaponDrop
p4245
sg180
I0
sg44
(lp4246
I2758383128
asg35
VPT5M5.2490674S
p4247
sg183
I0
sg184
VP0DT0S
p4248
sg39
(dp4249
g41
VOG Str8 SickHCS
p4250
sg43
Nssa(dp4251
g208
I424645655
sg209
I00
sg210
I00
sg211
(dp4252
g41
VOG Maniac HCS
p4253
sg43
Nssg214
(lp4254
I1327094800
asg216
I00
sg217
I01
sg218
I1
sg219
I0
sg220
I1
sg221
(dp4255
Vy
F10.9011707
sVx
F0.23891709999999999
sVz
F1.6003395300000001
ssg223
(dp4256
Vy
F14.439887000000001
sVx
F-6.238086
sVz
F2.3041589999999998
ssg225
I00
sg226
(dp4257
g41
VRNG Penguin HCS
p4258
sg43
Nssg229
(lp4259
sg231
(lp4260
(dp4261
g41
VOG APG HCS
p4262
sg43
Nsa(dp4263
g41
VOG ACE HCS
p4264
sg43
Nsasg235
I01
sg35
VPT5M6.3300412S
p4265
sg32
VDeath
p4266
sg238
I1
sa(dp4267
g32
VMedal
p4268
sg39
(dp4269
g41
VOG Maniac HCS
p4270
sg43
Nssg243
I3261908037
sg35
VPT5M6.3320586S
p4271
sa(dp4272
g38
I723388907
sg32
VWeaponDrop
p4273
sg180
I30
sg44
(lp4274
I89283061
asg35
VPT5M6.3320586S
p4275
sg183
I7
sg184
VP0DT0H0M7.8833S
p4276
sg39
(dp4277
g41
VRNG Penguin HCS
p4278
sg43
Nssa(dp4279
g208
I723388907
sg209
I00
sg210
I01
sg211
(dp4280
g41
VOG ACE HCS
p4281
sg43
Nssg214
(lp4282
I89283061
asg216
I00
sg217
I00
sg218
I1
sg219
I0
sg220
I1
sg221
(dp4283
Vy
F4.2633862499999999
sVx
F-2.9638499999999999
sVz
F3.1556046000000002
ssg223
(dp4284
Vy
F4.0433893200000002
sVx
F-3.2316980000000002
sVz
F3.19469643
ssg225
I00
sg226
(dp4285
g41
VRNG Commonly
p4286
sg43
Nssg229
(lp4287
sg231
(lp4288
sg235
I00
sg35
VPT5M11.0140292S
p4289
sg32
VDeath
p4290
sg238
I1
sa(dp4291
g32
VMedal
p4292
sg39
(dp4293
g41
VOG ACE HCS
p4294
sg43
Nssg243
I2287626681
sg35
VPT5M11.0150588S
p4295
sa(dp4296
g38
I313138863
sg32
VWeaponDrop
p4297
sg180
I0
sg44
(lp4298
I1095363701
asg35
VPT5M11.0150588S
p4299
sg183
I0
sg184
VP0DT0H0M2.6667S
p4300
sg39
(dp4301
g41
VRNG Commonly
p4302
sg43
Nssa(dp4303
g38
I4096745987
sg32
VWeaponDrop
p4304
sg180
I0
sg44
(lp4305
I2758383128
asg35
VPT5M11.0160536S
p4306
sg183
I0
sg184
VP0DT0H0M8.5333S
p4307
sg39
(dp4308
g41
VRNG Commonly
p4309
sg43
Nssa(dp4310
g38
I313138863
sg39
(dp4311
g41
VOG Str8 SickHCS
p4312
sg43
Nssg44
(lp4313
I1095363701
asg32
VWeaponPickup
p4314
sg35
VPT5M13.2640487S
p4315
sa(dp4316
g38
I4096745987
sg39
(dp4317
g41
VOG Str8 SickHCS
p4318
sg43
Nssg44
(lp4319
I2758383128
asg32
VWeaponPickup
p4320
sg35
VPT5M13.2640487S
p4321
sa(dp4322
g32
VPlayerSpawn
p4323
sg39
(dp4324
g41
VOG Str8 SickHCS
p4325
sg43
Nssg35
VPT5M13.2640487S
p4326
sa(dp4327
g38
I313138863
sg32
VWeaponDrop
p4328
sg180
I7
sg44
(lp4329
I1095363701
asg35
VPT5M13.2960535S
p4330
sg183
I0
sg184
VP0DT0H0M8.0500S
p4331
sg39
(dp4332
g41
VRNG Victory X
p4333
sg43
Nssa(dp4334
g38
I4096745987
sg39
(dp4335
g41
VRNG Victory X
p4336
sg43
Nssg44
(lp4337
I2758383128
asg32
VWeaponPickup
p4338
sg35
VPT5M13.2960535S
p4339
sa(dp4340
g38
I313138863
sg39
(dp4341
g41
VRNG Penguin HCS
p4342
sg43
Nssg44
(lp4343
I1095363701
asg32
VWeaponPickup
p4344
sg35
VPT5M14.3470366S
p4345
sa(dp4346
g38
I4096745987
sg39
(dp4347
g41
VRNG Penguin HCS
p4348
sg43
Nssg44
(lp4349
I2758383128
asg32
VWeaponPickup
p4350
sg35
VPT5M14.3480525S
p4351
sa(dp4352
g32
VPlayerSpawn
p4353
sg39
(dp4354
g41
VRNG Penguin HCS
p4355
sg43
Nssg35
VPT5M14.3480525S
p4356
sa(dp4357
g32
VMedal
p4358
sg39
(dp4359
g41
VOG ACE HCS
p4360
sg43
Nssg243
I3400287617
sg35
VPT5M14.7790433S
p4361
sa(dp4362
g38
I4096745987
sg32
VWeaponDrop
p4363
sg180
I0
sg44
(lp4364
I2758383128
asg35
VPT5M15.7620296S
p4365
sg183
I0
sg184
VP0DT0H0M1.0333S
p4366
sg39
(dp4367
g41
VRNG Victory X
p4368
sg43
Nssa(dp4369
g38
I313138863
sg39
(dp4370
g41
VRNG Victory X
p4371
sg43
Nssg44
(lp4372
I1095363701
asg32
VWeaponPickup
p4373
sg35
VPT5M15.7630296S
p4374
sa(dp4375
g38
I313138863
sg39
(dp4376
g41
VRNG Commonly
p4377
sg43
Nssg44
(lp4378
I1095363701
asg32
VWeaponPickup
p4379
sg35
VPT5M19.0300294S
p4380
sa(dp4381
g38
I4096745987
sg39
(dp4382
g41
VRNG Commonly
p4383
sg43
Nssg44
(lp4384
I2758383128
asg32
VWeaponPickup
p4385
sg35
VPT5M19.0310516S
p4386
sa(dp4387
g32
VPlayerSpawn
p4388
sg39
(dp4389
g41
VRNG Commonly
p4390
sg43
Nssg35
VPT5M19.0310516S
p4391
sa(dp4392
g38
I313138863
sg32
VWeaponDrop
p4393
sg180
I0
sg44
(lp4394
I1095363701
asg35
VPT5M19.879051S
p4395
sg183
I0
sg184
VP0DT0H0M2.0667S
p4396
sg39
(dp4397
g41
VOG Maniac HCS
p4398
sg43
Nssa(dp4399
g38
I669296699
sg39
(dp4400
g41
VOG Maniac HCS
p4401
sg43
Nssg44
(lp4402
I2758383128
asg32
VWeaponPickup
p4403
sg35
VPT5M19.879051S
p4404
sa(dp4405
g208
I3168248199
sg209
I00
sg210
I00
sg211
(dp4406
g41
VRNG Penguin HCS
p4407
sg43
Nssg214
(lp4408
sg216
I00
sg217
I00
sg218
I1
sg219
I0
sg220
I1
sg221
(dp4409
Vy
F0.77883559999999996
sVx
F1.54316521
sVz
F-0.019342511900000001
ssg223
(dp4410
Vy
F0.44351452600000002
sVx
F1.6498506100000001
sVz
F-0.0548585355
ssg225
I01
sg226
(dp4411
g41
VOG APG HCS
p4412
sg43
Nssg229
(lp4413
sg231
(lp4414
sg235
I00
sg35
VPT5M23.0800288S
p4415
sg32
VDeath
p4416
sg238
I1
sa(dp4417
g32
VMedal
p4418
sg39
(dp4419
g41
VRNG Penguin HCS
p4420
sg43
Nssg243
I2838259753
sg35
VPT5M23.0800288S
p4421
sa(dp4422
g32
VImpulse
p4423
sg39
(dp4424
g41
VRNG Penguin HCS
p4425
sg43
Nssg720
I2556889090
sg35
VPT5M23.0800288S
p4426
sa(dp4427
g32
VMedal
p4428
sg39
(dp4429
g41
VRNG Ninja HCS
p4430
sg43
Nssg243
I824733727
sg35
VPT5M23.0800288S
p4431
sa(dp4432
g32
VMedal
p4433
sg39
(dp4434
g41
VRNG Penguin HCS
p4435
sg43
Nssg243
I298813630
sg35
VPT5M23.0810314S
p4436
sa(dp4437
g38
I313138863
sg32
VWeaponDrop
p4438
sg180
I10
sg44
(lp4439
I1095363701
asg35
VPT5M23.0810314S
p4440
sg183
I5
sg184
VP0DT0H0M3.5500S
p4441
sg39
(dp4442
g41
VOG APG HCS
p4443
sg43
Nssa(dp4444
g38
I4096745987
sg32
VWeaponDrop
p4445
sg180
I10
sg44
(lp4446
I2758383128
asg35
VPT5M23.0820518S
p4447
sg183
I6
sg184
VP0DT0H0M27.9500S
p4448
sg39
(dp4449
g41
VOG APG HCS
p4450
sg43
Nssa(dp4451
g208
I4096745987
sg209
I00
sg210
I00
sg211
(dp4452
g41
VRNG Commonly
p4453
sg43
Nssg214
(lp4454
I2758383128
asg216
I00
sg217
I01
sg218
I1
sg219
I0
sg220
I1
sg221
(dp4455
Vy
F-3.0431115599999998
sVx
F6.2072440000000002
sVz
F3.2827537100000002
ssg223
(dp4456
Vy
F6.9021654100000003
sVx
F0.47146508100000001
sVz
F4.1564884199999996
ssg225
I00
sg226
(dp4457
g41
VOG ACE HCS
p4458
sg43
Nssg229
(lp4459
sg231
(lp4460
(dp4461
g41
VRNG Victory X
p4462
sg43
Nsasg235
I01
sg35
VPT5M24.6300264S
p4463
sg32
VDeath
p4464
sg238
I1
sa(dp4465
g32
VMedal
p4466
sg39
(dp4467
g41
VRNG Commonly
p4468
sg43
Nssg243
I2838259753
sg35
VPT5M24.6300264S
p4469
sa(dp4470
g32
VImpulse
p4471
sg39
(dp4472
g41
VRNG Commonly
p4473
sg43
Nssg720
I2556889090
sg35
VPT5M24.6300264S
p4474
sa(dp4475
g32
VMedal
p4476
sg39
(dp4477
g41
VRNG Ninja HCS
p4478
sg43
Nssg243
I824733727
sg35
VPT5M24.6300264S
p4479
sa(dp4480
g32
VMedal
p4481
sg39
(dp4482
g41
VRNG Penguin HCS
p4483
sg43
Nssg243
I824733727
sg35
VPT5M24.6300264S
p4484
sa(dp4485
g32
VMedal
p4486
sg39
(dp4487
g41
VRNG Commonly
p4488
sg43
Nssg243
I3261908037
sg35
VPT5M24.631064S
p4489
sa(dp4490
g38
I723388907
sg32
VWeaponDrop
p4491
sg180
I27
sg44
(lp4492
I89283061
asg35
VPT5M24.6320496S
p4493
sg183
I13
sg184
VP0DT0H0M13.9667S
p4494
sg39
(dp4495
g41
VOG ACE HCS
p4496
sg43
Nssa(dp4497
g38
I723388907
sg32
VWeaponDrop
p4498
sg180
I0
sg44
(lp4499
I89283061
asg35
VPT5M24.6320496S
p4500
sg183
I0
sg184
VP0DT0S
p4501
sg39
(dp4502
g41
VOG ACE HCS
p4503
sg43
Nssa(dp4504
g38
I4096745987
sg32
VWeaponDrop
p4505
sg180
I41
sg44
(lp4506
I2758383128
asg35
VPT5M24.6320496S
p4507
sg183
I21
sg184
VP0DT0H0M42.2000S
p4508
sg39
(dp4509
g41
VOG ACE HCS
p4510
sg43
Nssa(dp4511
g208
I4096745987
sg209
I00
sg210
I00
sg211
(dp4512
g41
VOG Str8 SickHCS
p4513
sg43
Nssg214
(lp4514
I2758383128
asg216
I00
sg217
I01
sg218
I1
sg219
I0
sg220
I1
sg221
(dp4515
Vy
F7.7126159999999997
sVx
F5.9594709999999997
sVz
F3.3424659999999999
ssg223
(dp4516
Vy
F8.5691939999999995
sVx
F1.9493265200000001
sVz
F2.5816729999999999
ssg225
I00
sg226
(dp4517
g41
VRNG Penguin HCS
p4518
sg43
Nssg229
(lp4519
sg231
(lp4520
(dp4521
g41
VOG ACE HCS
p4522
sg43
Nsa(dp4523
g41
VOG Maniac HCS
p4524
sg43
Nsasg235
I00
sg35
VPT5M27.5460085S
p4525
sg32
VDeath
p4526
sg238
I1
sa(dp4527
g38
I313138863
sg32
VWeaponDrop
p4528
sg180
I11
sg44
(lp4529
I1095363701
asg35
VPT5M27.5480314S
p4530
sg183
I0
sg184
VP0DT0H0M8.1500S
p4531
sg39
(dp4532
g41
VRNG Penguin HCS
p4533
sg43
Nssa(dp4534
g38
I4096745987
sg32
VWeaponDrop
p4535
sg180
I7
sg44
(lp4536
I2758383128
asg35
VPT5M27.5480314S
p4537
sg183
I4
sg184
VP0DT0H0M5.0500S
p4538
sg39
(dp4539
g41
VRNG Penguin HCS
p4540
sg43
Nssa(dp4541
g208
I424645655
sg209
I00
sg210
I00
sg211
(dp4542
g41
VRNG Victory X
p4543
sg43
Nssg214
(lp4544
I1327094800
asg216
I00
sg217
I01
sg218
I1
sg219
I0
sg220
I1
sg221
(dp4545
Vy
F10.3633881
sVx
F-1.8821009399999999
sVz
F2.2710743
ssg223
(dp4546
Vy
F4.4715485599999996
sVx
F1.0820432900000001
sVz
F0.0088628530000000004
ssg225
I00
sg226
(dp4547
g41
VOG Maniac HCS
p4548
sg43
Nssg229
(lp4549
sg231
(lp4550
(dp4551
g41
VRNG Ninja HCS
p4552
sg43
Nsasg235
I01
sg35
VPT5M28.8800123S
p4553
sg32
VDeath
p4554
sg238
I1
sa(dp4555
g32
VMedal
p4556
sg39
(dp4557
g41
VRNG Victory X
p4558
sg43
Nssg243
I3261908037
sg35
VPT5M28.8810244S
p4559
sa(dp4560
g38
I669296699
sg32
VWeaponDrop
p4561
sg180
I0
sg44
(lp4562
I2758383128
asg35
VPT5M28.8810244S
p4563
sg183
I0
sg184
VP0DT0H0M2.4333S
p4564
sg39
(dp4565
g41
VOG Maniac HCS
p4566
sg43
Nssa(dp4567
g38
I424645655
sg32
VWeaponDrop
p4568
sg180
I27
sg44
(lp4569
I1327094800
asg35
VPT5M28.8810244S
p4570
sg183
I14
sg184
VP0DT0H0M33.7500S
p4571
sg39
(dp4572
g41
VOG Maniac HCS
p4573
sg43
Nssa(dp4574
g38
I313138863
sg39
(dp4575
g41
VOG APG HCS
p4576
sg43
Nssg44
(lp4577
I1095363701
asg32
VWeaponPickup
p4578
sg35
VPT5M31.0970074S
p4579
sa(dp4580
g38
I4096745987
sg39
(dp4581
g41
VOG APG HCS
p4582
sg43
Nssg44
(lp4583
I2758383128
asg32
VWeaponPickup
p4584
sg35
VPT5M31.0970074S
p4585
sa(dp4586
g32
VPlayerSpawn
p4587
sg39
(dp4588
g41
VOG APG HCS
p4589
sg43
Nssg35
VPT5M31.0970074S
p4590
sa(dp4591
g208
I4106030681
sg209
I00
sg210
I00
sg211
(dp4592
g41
VRNG Ninja HCS
p4593
sg43
Nssg214
(lp4594
sg216
I00
sg217
I01
sg218
I1
sg219
I0
sg220
I1
sg221
(dp4595
Vy
F-5.3108469999999999
sVx
F7.0425209999999998
sVz
F0.79997986600000004
ssg223
(dp4596
Vy
F2.4260427999999998
sVx
F7.8023714999999996
sVz
F0.28633576599999999
ssg225
I00
sg226
(dp4597
g41
VOG Str8 SickHCS
p4598
sg43
Nssg229
(lp4599
sg231
(lp4600
(dp4601
g41
VRNG Commonly
p4602
sg43
Nsa(dp4603
g41
VRNG Victory X
p4604
sg43
Nsasg235
I00
sg35
VPT5M32.0619961S
p4605
sg32
VDeath
p4606
sg238
I1
sa(dp4607
g38
I313138863
sg32
VWeaponDrop
p4608
sg180
I2
sg44
(lp4609
I1095363701
asg35
VPT5M32.0639963S
p4610
sg183
I1
sg184
VP0DT0H0M2.1333S
p4611
sg39
(dp4612
g41
VOG Str8 SickHCS
p4613
sg43
Nssa(dp4614
g38
I4096745987
sg32
VWeaponDrop
p4615
sg180
I12
sg44
(lp4616
I2758383128
asg35
VPT5M32.0639963S
p4617
sg183
I2
sg184
VP0DT0H0M16.6667S
p4618
sg39
(dp4619
g41
VOG Str8 SickHCS
p4620
sg43
Nssa(dp4621
g38
I313138863
sg39
(dp4622
g41
VOG ACE HCS
p4623
sg43
Nssg44
(lp4624
I1095363701
asg32
VWeaponPickup
p4625
sg35
VPT5M32.6459744S
p4626
sa(dp4627
g38
I4096745987
sg39
(dp4628
g41
VOG ACE HCS
p4629
sg43
Nssg44
(lp4630
I2758383128
asg32
VWeaponPickup
p4631
sg35
VPT5M32.6469769S
p4632
sa(dp4633
g32
VPlayerSpawn
p4634
sg39
(dp4635
g41
VOG ACE HCS
p4636
sg43
Nssg35
VPT5M32.6469769S
p4637
sa(dp4638
g38
I313138863
sg32
VWeaponDrop
p4639
sg180
I5
sg44
(lp4640
I1095363701
asg35
VPT5M34.5779625S
p4641
sg183
I1
sg184
VP0DT0H0M4.9167S
p4642
sg39
(dp4643
g41
VRNG Victory X
p4644
sg43
Nssa(dp4645
g38
I723388907
sg39
(dp4646
g41
VRNG Victory X
p4647
sg43
Nssg44
(lp4648
I89283061
asg32
VWeaponPickup
p4649
sg35
VPT5M34.5789803S
p4650
sa(dp4651
g38
I313138863
sg39
(dp4652
g41
VRNG Penguin HCS
p4653
sg43
Nssg44
(lp4654
I1095363701
asg32
VWeaponPickup
p4655
sg35
VPT5M35.5639802S
p4656
sa(dp4657
g38
I4096745987
sg39
(dp4658
g41
VRNG Penguin HCS
p4659
sg43
Nssg44
(lp4660
I2758383128
asg32
VWeaponPickup
p4661
sg35
VPT5M35.5649805S
p4662
sa(dp4663
g32
VPlayerSpawn
p4664
sg39
(dp4665
g41
VRNG Penguin HCS
p4666
sg43
Nssg35
VPT5M35.5649805S
p4667
sa(dp4668
g208
I4106030681
sg209
I00
sg210
I00
sg211
(dp4669
g41
VRNG Ninja HCS
p4670
sg43
Nssg214
(lp4671
sg216
I00
sg217
I01
sg218
I1
sg219
I0
sg220
I1
sg221
(dp4672
Vy
F-5.5510253900000004
sVx
F11.166237799999999
sVz
F1.5498644100000001
ssg223
(dp4673
Vy
F-4.5193139999999996
sVx
F18.6089363
sVz
F2.22399616
ssg225
I00
sg226
(dp4674
g41
VOG APG HCS
p4675
sg43
Nssg229
(lp4676
sg231
(lp4677
(dp4678
g41
VRNG Commonly
p4679
sg43
Nsasg235
I00
sg35
VPT5M36.0799538S
p4680
sg32
VDeath
p4681
sg238
I1
sa(dp4682
g32
VMedal
p4683
sg39
(dp4684
g41
VRNG Ninja HCS
p4685
sg43
Nssg243
I2078758684
sg35
VPT5M36.0809551S
p4686
sa(dp4687
g38
I313138863
sg32
VWeaponDrop
p4688
sg180
I0
sg44
(lp4689
I1095363701
asg35
VPT5M36.0809551S
p4690
sg183
I0
sg184
VP0DT0H0M0.7333S
p4691
sg39
(dp4692
g41
VOG APG HCS
p4693
sg43
Nssa(dp4694
g38
I4096745987
sg32
VWeaponDrop
p4695
sg180
I5
sg44
(lp4696
I2758383128
asg35
VPT5M36.0809551S
p4697
sg183
I3
sg184
VP0DT0H0M4.2500S
p4698
sg39
(dp4699
g41
VOG APG HCS
p4700
sg43
Nssa(dp4701
g38
I3190813201
sg32
VWeaponDrop
p4702
sg180
I11
sg44
(lp4703
sg35
VPT5M36.0819762S
p4704
sg183
I0
sg184
VPT0S
p4705
sg39
(dp4706
g41
VOG APG HCS
p4707
sg43
Nssa(dp4708
g38
I313138863
sg39
(dp4709
g41
VOG Maniac HCS
p4710
sg43
Nssg44
(lp4711
I1095363701
asg32
VWeaponPickup
p4712
sg35
VPT5M36.8969483S
p4713
sa(dp4714
g38
I4096745987
sg39
(dp4715
g41
VOG Maniac HCS
p4716
sg43
Nssg44
(lp4717
I2758383128
asg32
VWeaponPickup
p4718
sg35
VPT5M36.8969483S
p4719
sa(dp4720
g32
VPlayerSpawn
p4721
sg39
(dp4722
g41
VOG Maniac HCS
p4723
sg43
Nssg35
VPT5M36.8969483S
p4724
sa(dp4725
g38
I313138863
sg39
(dp4726
g41
VOG Str8 SickHCS
p4727
sg43
Nssg44
(lp4728
I1095363701
asg32
VWeaponPickup
p4729
sg35
VPT5M40.078927S
p4730
sa(dp4731
g38
I4096745987
sg39
(dp4732
g41
VOG Str8 SickHCS
p4733
sg43
Nssg44
(lp4734
I2758383128
asg32
VWeaponPickup
p4735
sg35
VPT5M40.0799465S
p4736
sa(dp4737
g32
VPlayerSpawn
p4738
sg39
(dp4739
g41
VOG Str8 SickHCS
p4740
sg43
Nssg35
VPT5M40.0799465S
p4741
sa(dp4742
g208
I4096745987
sg209
I00
sg210
I00
sg211
(dp4743
g41
VOG ACE HCS
p4744
sg43
Nssg214
(lp4745
I2758383128
asg216
I00
sg217
I01
sg218
I1
sg219
I0
sg220
I1
sg221
(dp4746
Vy
F6.6361489999999996
sVx
F22.2035923
sVz
F-0.0059000550000000004
ssg223
(dp4747
Vy
F-1.4196972800000001
sVx
F19.749443100000001
sVz
F-0.0063743293300000002
ssg225
I00
sg226
(dp4748
g41
VRNG Commonly
p4749
sg43
Nssg229
(lp4750
sg231
(lp4751
sg235
I01
sg35
VPT5M40.4119253S
p4752
sg32
VDeath
p4753
sg238
I1
sa(dp4754
g32
VMedal
p4755
sg39
(dp4756
g41
VOG ACE HCS
p4757
sg43
Nssg243
I3261908037
sg35
VPT5M40.4149504S
p4758
sa(dp4759
g38
I313138863
sg32
VWeaponDrop
p4760
sg180
I29
sg44
(lp4761
I1095363701
asg35
VPT5M40.4159505S
p4762
sg183
I9
sg184
VP0DT0H0M9.4000S
p4763
sg39
(dp4764
g41
VRNG Commonly
p4765
sg43
Nssa(dp4766
g38
I4096745987
sg32
VWeaponDrop
p4767
sg180
I13
sg44
(lp4768
I2758383128
asg35
VPT5M40.4159505S
p4769
sg183
I6
sg184
VP0DT0H0M11.9833S
p4770
sg39
(dp4771
g41
VRNG Commonly
p4772
sg43
Nssa(dp4773
g38
I313138863
sg39
(dp4774
g41
VOG APG HCS
p4775
sg43
Nssg44
(lp4776
I1095363701
asg32
VWeaponPickup
p4777
sg35
VPT5M44.0959211S
p4778
sa(dp4779
g38
I4096745987
sg39
(dp4780
g41
VOG APG HCS
p4781
sg43
Nssg44
(lp4782
I2758383128
asg32
VWeaponPickup
p4783
sg35
VPT5M44.0959211S
p4784
sa(dp4785
g32
VPlayerSpawn
p4786
sg39
(dp4787
g41
VOG APG HCS
p4788
sg43
Nssg35
VPT5M44.0959211S
p4789
sa(dp4790
g208
I313138863
sg209
I00
sg210
I00
sg211
(dp4791
g41
VRNG Penguin HCS
p4792
sg43
Nssg214
(lp4793
I1095363701
asg216
I00
sg217
I01
sg218
I1
sg219
I0
sg220
I1
sg221
(dp4794
Vy
F9.888655
sVx
F16.201103199999999
sVz
F3.1995618299999999
ssg223
(dp4795
Vy
F9.5993499999999994
sVx
F16.622037899999999
sVz
F3.1958451299999999
ssg225
I00
sg226
(dp4796
g41
VOG Str8 SickHCS
p4797
sg43
Nssg229
(lp4798
sg231
(lp4799
(dp4800
g41
VRNG Ninja HCS
p4801
sg43
Nsasg235
I00
sg35
VPT5M46.1958887S
p4802
sg32
VDeath
p4803
sg238
I1
sa(dp4804
g38
I313138863
sg32
VWeaponDrop
p4805
sg180
I0
sg44
(lp4806
I1095363701
asg35
VPT5M46.1979077S
p4807
sg183
I0
sg184
VP0DT0H0M0.6833S
p4808
sg39
(dp4809
g41
VOG Str8 SickHCS
p4810
sg43
Nssa(dp4811
g38
I4096745987
sg32
VWeaponDrop
p4812
sg180
I3
sg44
(lp4813
I2758383128
asg35
VPT5M46.1979077S
p4814
sg183
I3
sg184
VP0DT0H0M5.4333S
p4815
sg39
(dp4816
g41
VOG Str8 SickHCS
p4817
sg43
Nssa(dp4818
g208
I4096745987
sg209
I00
sg210
I01
sg211
(dp4819
g41
VOG Str8 SickHCS
p4820
sg43
Nssg214
(lp4821
I2758383128
asg216
I00
sg217
I00
sg218
I1
sg219
I0
sg220
I1
sg221
(dp4822
Vy
F9.4732109999999992
sVx
F16.7270355
sVz
F3.3840355899999999
ssg223
(dp4823
Vy
F9.9383239999999997
sVx
F16.170051600000001
sVz
F3.1995618299999999
ssg225
I00
sg226
(dp4824
g41
VRNG Penguin HCS
p4825
sg43
Nssg229
(lp4826
sg231
(lp4827
(dp4828
g41
VOG Maniac HCS
p4829
sg43
Nsasg235
I00
sg35
VPT5M46.2448879S
p4830
sg32
VDeath
p4831
sg238
I1
sa(dp4832
g32
VMedal
p4833
sg39
(dp4834
g41
VOG Str8 SickHCS
p4835
sg43
Nssg243
I2287626681
sg35
VPT5M46.2458886S
p4836
sa(dp4837
g38
I313138863
sg32
VWeaponDrop
p4838
sg180
I17
sg44
(lp4839
I1095363701
asg35
VPT5M46.2469056S
p4840
sg183
I11
sg184
VP0DT0H0M5.1333S
p4841
sg39
(dp4842
g41
VRNG Penguin HCS
p4843
sg43
Nssa(dp4844
g38
I4096745987
sg32
VWeaponDrop
p4845
sg180
I4
sg44
(lp4846
I2758383128
asg35
VPT5M46.2469056S
p4847
sg183
I2
sg184
VP0DT0H0M5.5500S
p4848
sg39
(dp4849
g41
VRNG Penguin HCS
p4850
sg43
Nssa(dp4851
g38
I313138863
sg39
(dp4852
g41
VRNG Commonly
p4853
sg43
Nssg44
(lp4854
I1095363701
asg32
VWeaponPickup
p4855
sg35
VPT5M48.4288744S
p4856
sa(dp4857
g38
I4096745987
sg39
(dp4858
g41
VRNG Commonly
p4859
sg43
Nssg44
(lp4860
I2758383128
asg32
VWeaponPickup
p4861
sg35
VPT5M48.4288744S
p4862
sa(dp4863
g32
VPlayerSpawn
p4864
sg39
(dp4865
g41
VRNG Commonly
p4866
sg43
Nssg35
VPT5M48.4288744S
p4867
sa(dp4868
g208
I4096745987
sg209
I00
sg210
I00
sg211
(dp4869
g41
VOG APG HCS
p4870
sg43
Nssg214
(lp4871
I2758383128
asg216
I00
sg217
I01
sg218
I1
sg219
I0
sg220
I1
sg221
(dp4872
Vy
F8.4933589999999999
sVx
F0.84096276800000003
sVz
F1.59956765
ssg223
(dp4873
Vy
F3.8426101199999998
sVx
F15.012872700000001
sVz
F-0.00590002537
ssg225
I00
sg226
(dp4874
g41
VRNG Ninja HCS
p4875
sg43
Nssg229
(lp4876
sg231
(lp4877
(dp4878
g41
VOG ACE HCS
p4879
sg43
Nsasg235
I01
sg35
VPT5M49.411905S
p4880
sg32
VDeath
p4881
sg238
I1
sa(dp4882
g32
VMedal
p4883
sg39
(dp4884
g41
VOG APG HCS
p4885
sg43
Nssg243
I3261908037
sg35
VPT5M49.4138896S
p4886
sa(dp4887
g38
I313138863
sg32
VWeaponDrop
p4888
sg180
I14
sg44
(lp4889
I1095363701
asg35
VPT5M49.4138896S
p4890
sg183
I7
sg184
VP0DT0H0M3.7167S
p4891
sg39
(dp4892
g41
VRNG Ninja HCS
p4893
sg43
Nssa(dp4894
g38
I4096745987
sg32
VWeaponDrop
p4895
sg180
I32
sg44
(lp4896
I2758383128
asg35
VPT5M49.4138896S
p4897
sg183
I14
sg184
VP0DT0H0M43.2667S
p4898
sg39
(dp4899
g41
VRNG Ninja HCS
p4900
sg43
Nssa(dp4901
g38
I313138863
sg32
VWeaponDrop
p4902
sg180
I0
sg44
(lp4903
I1095363701
asg35
VPT5M49.8108653S
p4904
sg183
I0
sg184
VP0DT0H0M1.0333S
p4905
sg39
(dp4906
g41
VRNG Commonly
p4907
sg43
Nssa(dp4908
g38
I524558978
sg39
(dp4909
g41
VRNG Commonly
p4910
sg43
Nssg44
(lp4911
I2758383128
asg32
VWeaponPickup
p4912
sg35
VPT5M49.8108653S
p4913
sa(dp4914
g38
I4096745987
sg32
VWeaponDrop
p4915
sg180
I13
sg44
(lp4916
I2758383128
asg35
VPT5M52.4278485S
p4917
sg183
I10
sg184
VP0DT0H0M16.6333S
p4918
sg39
(dp4919
g41
VOG ACE HCS
p4920
sg43
Nssa(dp4921
g38
I424645655
sg39
(dp4922
g41
VOG ACE HCS
p4923
sg43
Nssg44
(lp4924
I1327094800
asg32
VWeaponPickup
p4925
sg35
VPT5M52.4278485S
p4926
sa(dp4927
g38
I313138863
sg39
(dp4928
g41
VOG Str8 SickHCS
p4929
sg43
Nssg44
(lp4930
I1095363701
asg32
VWeaponPickup
p4931
sg35
VPT5M54.2118376S
p4932
sa(dp4933
g38
I4096745987
sg39
(dp4934
g41
VOG Str8 SickHCS
p4935
sg43
Nssg44
(lp4936
I2758383128
asg32
VWeaponPickup
p4937
sg35
VPT5M54.2128403S
p4938
sa(dp4939
g32
VPlayerSpawn
p4940
sg39
(dp4941
g41
VOG Str8 SickHCS
p4942
sg43
Nssg35
VPT5M54.2128403S
p4943
sa(dp4944
g38
I313138863
sg39
(dp4945
g41
VRNG Penguin HCS
p4946
sg43
Nssg44
(lp4947
I1095363701
asg32
VWeaponPickup
p4948
sg35
VPT5M54.2618388S
p4949
sa(dp4950
g38
I4096745987
sg39
(dp4951
g41
VRNG Penguin HCS
p4952
sg43
Nssg44
(lp4953
I2758383128
asg32
VWeaponPickup
p4954
sg35
VPT5M54.2628372S
p4955
sa(dp4956
g32
VPlayerSpawn
p4957
sg39
(dp4958
g41
VRNG Penguin HCS
p4959
sg43
Nssg35
VPT5M54.2628372S
p4960
sa(dp4961
g38
I313138863
sg39
(dp4962
g41
VRNG Ninja HCS
p4963
sg43
Nssg44
(lp4964
I1095363701
asg32
VWeaponPickup
p4965
sg35
VPT5M57.4288289S
p4966
sa(dp4967
g38
I4096745987
sg39
(dp4968
g41
VRNG Ninja HCS
p4969
sg43
Nssg44
(lp4970
I2758383128
asg32
VWeaponPickup
p4971
sg35
VPT5M57.429827S
p4972
sa(dp4973
g32
VPlayerSpawn
p4974
sg39
(dp4975
g41
VRNG Ninja HCS
p4976
sg43
Nssg35
VPT5M57.429827S
p4977
sa(dp4978
g208
I313138863
sg209
I00
sg210
I01
sg211
(dp4979
g41
VRNG Penguin HCS
p4980
sg43
Nssg214
(lp4981
I1095363701
asg216
I00
sg217
I00
sg218
I1
sg219
I0
sg220
I1
sg221
(dp4982
Vy
F10.487402899999999
sVx
F2.9442490000000001
sVz
F1.64371383
ssg223
(dp4983
Vy
F10.254462200000001
sVx
F3.41230178
sVz
F1.7532897000000001
ssg225
I00
sg226
(dp4984
g41
VOG Maniac HCS
p4985
sg43
Nssg229
(lp4986
sg231
(lp4987
(dp4988
g41
VRNG Victory X
p4989
sg43
Nsasg235
I00
sg35
VPT6M4.6117816S
p4990
sg32
VDeath
p4991
sg238
I1
sa(dp4992
g32
VMedal
p4993
sg39
(dp4994
g41
VRNG Penguin HCS
p4995
sg43
Nssg243
I2287626681
sg35
VPT6M4.6127939S
p4996
sa(dp4997
g38
I313138863
sg32
VWeaponDrop
p4998
sg180
I8
sg44
(lp4999
I1095363701
asg35
VPT6M4.6127939S
p5000
sg183
I1
sg184
VP0DT0H0M7.7500S
p5001
sg39
(dp5002
g41
VOG Maniac HCS
p5003
sg43
Nssa(dp5004
g38
I4096745987
sg32
VWeaponDrop
p5005
sg180
I12
sg44
(lp5006
I2758383128
asg35
VPT6M4.6137934S
p5007
sg183
I3
sg184
VP0DT0H0M19.9667S
p5008
sg39
(dp5009
g41
VOG Maniac HCS
p5010
sg43
Nssa(dp5011
g208
I4096745987
sg209
I00
sg210
I00
sg211
(dp5012
g41
VOG Str8 SickHCS
p5013
sg43
Nssg214
(lp5014
I2758383128
asg216
I00
sg217
I00
sg218
I2
sg219
I0
sg220
I0
sg221
(dp5015
Vy
F6.9313406899999999
sVx
F12.469648400000001
sVz
F5.2539835000000004
ssg223
(dp5016
Vy
F9.3494270000000004
sVx
F12.289108300000001
sVz
F5.504264
ssg225
I00
sg226
(dp5017
g1221
g1222
ssg229
(lp5018
sg231
(lp5019
sg235
I00
sg35
VPT6M7.3277524S
p5020
sg32
VDeath
p5021
sg238
I1
sa(dp5022
g38
I313138863
sg39
(dp5023
g41
VOG Maniac HCS
p5024
sg43
Nssg44
(lp5025
I1095363701
asg32
VWeaponPickup
p5026
sg35
VPT6M12.6287444S
p5027
sa(dp5028
g38
I4096745987
sg39
(dp5029
g41
VOG Maniac HCS
p5030
sg43
Nssg44
(lp5031
I2758383128
asg32
VWeaponPickup
p5032
sg35
VPT6M12.6287444S
p5033
sa(dp5034
g32
VPlayerSpawn
p5035
sg39
(dp5036
g41
VOG Maniac HCS
p5037
sg43
Nssg35
VPT6M12.6287444S
p5038
sa(dp5039
g208
I313138863
sg209
I00
sg210
I00
sg211
(dp5040
g41
VOG Str8 SickHCS
p5041
sg43
Nssg214
(lp5042
I1095363701
asg216
I00
sg217
I01
sg218
I1
sg219
I0
sg220
I1
sg221
(dp5043
Vy
F7.7290606500000001
sVx
F8.8465209999999992
sVz
F5.0644164099999998
ssg223
(dp5044
Vy
F5.5004359999999997
sVx
F8.3465509999999998
sVz
F3.2007184
ssg225
I00
sg226
(dp5045
g41
VRNG Penguin HCS
p5046
sg43
Nssg229
(lp5047
sg231
(lp5048
(dp5049
g41
VOG ACE HCS
p5050
sg43
Nsasg235
I00
sg35
VPT6M15.2937021S
p5051
sg32
VDeath
p5052
sg238
I1
sa(dp5053
g38
I4096745987
sg32
VWeaponDrop
p5054
sg180
I0
sg44
(lp5055
I2758383128
asg35
VPT6M15.2957254S
p5056
sg183
I0
sg184
VP0DT0H0M14.8667S
p5057
sg39
(dp5058
g41
VRNG Penguin HCS
p5059
sg43
Nssa(dp5060
g38
I313138863
sg32
VWeaponDrop
p5061
sg180
I12
sg44
(lp5062
I1095363701
asg35
VPT6M15.2967249S
p5063
sg183
I3
sg184
VP0DT0H0M6.1667S
p5064
sg39
(dp5065
g41
VRNG Penguin HCS
p5066
sg43
Nssa(dp5067
g38
I313138863
sg32
VWeaponDrop
p5068
sg180
I0
sg44
(lp5069
I1095363701
asg35
VPT6M15.2967249S
p5070
sg183
I0
sg184
VP0DT0S
p5071
sg39
(dp5072
g41
VRNG Penguin HCS
p5073
sg43
Nssa(dp5074
g208
I424645655
sg209
I00
sg210
I00
sg211
(dp5075
g41
VOG ACE HCS
p5076
sg43
Nssg214
(lp5077
I1327094800
asg216
I00
sg217
I01
sg218
I1
sg219
I0
sg220
I1
sg221
(dp5078
Vy
F-14.452590000000001
sVx
F10.400510799999999
sVz
F3.7064554699999999
ssg223
(dp5079
Vy
F-12.0572681
sVx
F8.0900800000000004
sVz
F4.0752344100000002
ssg225
I00
sg226
(dp5080
g41
VRNG Victory X
p5081
sg43
Nssg229
(lp5082
sg231
(lp5083
sg235
I01
sg35
VPT6M16.4437037S
p5084
sg32
VDeath
p5085
sg238
I1
sa(dp5086
g32
VImpulse
p5087
sg39
(dp5088
g41
VOG ACE HCS
p5089
sg43
Nssg720
I3174430457
sg35
VPT6M16.445717S
p5090
sa(dp5091
g32
VMedal
p5092
sg39
(dp5093
g41
VOG ACE HCS
p5094
sg43
Nssg243
I1080468863
sg35
VPT6M16.4467286S
p5095
sa(dp5096
g38
I723388907
sg32
VWeaponDrop
p5097
sg180
I19
sg44
(lp5098
I89283061
asg35
VPT6M16.4467286S
p5099
sg183
I13
sg184
VP0DT0H0M7.1667S
p5100
sg39
(dp5101
g41
VRNG Victory X
p5102
sg43
Nssa(dp5103
g38
I424645655
sg32
VWeaponDrop
p5104
sg180
I69
sg44
(lp5105
I1327094800
asg35
VPT6M16.4467286S
p5106
sg183
I24
sg184
VP0DT0H0M59.0167S
p5107
sg39
(dp5108
g41
VRNG Victory X
p5109
sg43
Nssa(dp5110
g38
I313138863
sg32
VWeaponDrop
p5111
sg180
I9
sg44
(lp5112
I1095363701
asg35
VPT6M18.3926839S
p5113
sg183
I0
sg184
VP0DT0H0M4.7333S
p5114
sg39
(dp5115
g41
VOG ACE HCS
p5116
sg43
Nssa(dp5117
g38
I723388907
sg39
(dp5118
g41
VOG ACE HCS
p5119
sg43
Nssg44
(lp5120
I89283061
asg32
VWeaponPickup
p5121
sg35
VPT6M18.3926839S
p5122
sa(dp5123
g208
I4096745987
sg209
I00
sg210
I00
sg211
(dp5124
g41
VRNG Ninja HCS
p5125
sg43
Nssg214
(lp5126
I2758383128
asg216
I00
sg217
I01
sg218
I1
sg219
I0
sg220
I1
sg221
(dp5127
Vy
F13.832513799999999
sVx
F8.9981390000000001
sVz
F3.6127910000000001
ssg223
(dp5128
Vy
F10.2701025
sVx
F9.9232940000000003
sVz
F4.1070585299999998
ssg225
I00
sg226
(dp5129
g41
VOG Str8 SickHCS
p5130
sg43
Nssg229
(lp5131
sg231
(lp5132
sg235
I00
sg35
VPT6M18.5106815S
p5133
sg32
VDeath
p5134
sg238
I1
sa(dp5135
g38
I313138863
sg32
VWeaponDrop
p5136
sg180
I13
sg44
(lp5137
I1095363701
asg35
VPT6M18.5227034S
p5138
sg183
I2
sg184
VP0DT0H0M5.8000S
p5139
sg39
(dp5140
g41
VOG Str8 SickHCS
p5141
sg43
Nssa(dp5142
g38
I4096745987
sg32
VWeaponDrop
p5143
sg180
I12
sg44
(lp5144
I2758383128
asg35
VPT6M18.5227034S
p5145
sg183
I5
sg184
VP0DT0H0M18.5000S
p5146
sg39
(dp5147
g41
VOG Str8 SickHCS
p5148
sg43
Nssa(dp5149
g208
I4106030681
sg209
I00
sg210
I00
sg211
(dp5150
g41
VOG Maniac HCS
p5151
sg43
Nssg214
(lp5152
sg216
I00
sg217
I01
sg218
I1
sg219
I0
sg220
I1
sg221
(dp5153
Vy
F-0.60432636699999998
sVx
F17.486644699999999
sVz
F-0.054864615200000001
ssg223
(dp5154
Vy
F-1.75697076
sVx
F7.7940120000000004
sVz
F0.14456793700000001
ssg225
I00
sg226
(dp5155
g41
VRNG Commonly
p5156
sg43
Nssg229
(lp5157
sg231
(lp5158
(dp5159
g41
VOG Str8 SickHCS
p5160
sg43
Nsa(dp5161
g41
VOG APG HCS
p5162
sg43
Nsasg235
I00
sg35
VPT6M19.1106785S
p5163
sg32
VDeath
p5164
sg238
I1
sa(dp5165
g38
I4096745987
sg32
VWeaponDrop
p5166
sg180
I3
sg44
(lp5167
I2758383128
asg35
VPT6M19.1127003S
p5168
sg183
I1
sg184
VP0DT0H0M7.9000S
p5169
sg39
(dp5170
g41
VRNG Commonly
p5171
sg43
Nssa(dp5172
g38
I524558978
sg32
VWeaponDrop
p5173
sg180
I2
sg44
(lp5174
I2758383128
asg35
VPT6M19.1137016S
p5175
sg183
I0
sg184
VP0DT0H0M21.7500S
p5176
sg39
(dp5177
g41
VRNG Commonly
p5178
sg43
Nssa(dp5179
g32
VMedal
p5180
sg39
(dp5181
g41
VOG ACE HCS
p5182
sg43
Nssg243
I3400287617
sg35
VPT6M20.3436706S
p5183
sa(dp5184
g38
I313138863
sg32
VWeaponDrop
p5185
sg180
I0
sg44
(lp5186
I1095363701
asg35
VPT6M21.642679S
p5187
sg183
I0
sg184
VP0DT0H0M2.0333S
p5188
sg39
(dp5189
g41
VRNG Ninja HCS
p5190
sg43
Nssa(dp5191
g38
I669296699
sg39
(dp5192
g41
VRNG Ninja HCS
p5193
sg43
Nssg44
(lp5194
I2758383128
asg32
VWeaponPickupPad
p5195
sg35
VPT6M21.642679S
p5196
sa(dp5197
g38
I669296699
sg39
(dp5198
g41
VRNG Ninja HCS
p5199
sg43
Nssg44
(lp5200
I2758383128
asg32
VWeaponPickup
p5201
sg35
VPT6M21.642679S
p5202
sa(dp5203
g38
I313138863
sg39
(dp5204
g41
VRNG Penguin HCS
p5205
sg43
Nssg44
(lp5206
I1095363701
asg32
VWeaponPickup
p5207
sg35
VPT6M23.3106517S
p5208
sa(dp5209
g38
I4096745987
sg39
(dp5210
g41
VRNG Penguin HCS
p5211
sg43
Nssg44
(lp5212
I2758383128
asg32
VWeaponPickup
p5213
sg35
VPT6M23.3106517S
p5214
sa(dp5215
g32
VPlayerSpawn
p5216
sg39
(dp5217
g41
VRNG Penguin HCS
p5218
sg43
Nssg35
VPT6M23.3106517S
p5219
sa(dp5220
g208
I4096745987
sg209
I00
sg210
I00
sg211
(dp5221
g41
VOG Maniac HCS
p5222
sg43
Nssg214
(lp5223
I2758383128
asg216
I00
sg217
I01
sg218
I1
sg219
I0
sg220
I1
sg221
(dp5224
Vy
F6.9365249999999996
sVx
F17.126125300000002
sVz
F2.8953981400000002
ssg223
(dp5225
Vy
F13.843066200000001
sVx
F16.8467789
sVz
F4.0966234200000002
ssg225
I00
sg226
(dp5226
g41
VRNG Ninja HCS
p5227
sg43
Nssg229
(lp5228
sg231
(lp5229
(dp5230
g41
VOG Str8 SickHCS
p5231
sg43
Nsa(dp5232
g41
VOG APG HCS
p5233
sg43
Nsasg235
I01
sg35
VPT6M23.8106484S
p5234
sg32
VDeath
p5235
sg238
I1
sa(dp5236
g32
VMedal
p5237
sg39
(dp5238
g41
VOG Maniac HCS
p5239
sg43
Nssg243
I3261908037
sg35
VPT6M23.8116668S
p5240
sa(dp5241
g32
VMedal
p5242
sg39
(dp5243
g41
VOG Maniac HCS
p5244
sg43
Nssg243
I2078758684
sg35
VPT6M23.8116668S
p5245
sa(dp5246
g38
I669296699
sg32
VWeaponDrop
p5247
sg180
I0
sg44
(lp5248
I2758383128
asg35
VPT6M23.8126673S
p5249
sg183
I0
sg184
VP0DT0H0M2.1667S
p5250
sg39
(dp5251
g41
VRNG Ninja HCS
p5252
sg43
Nssa(dp5253
g38
I4096745987
sg32
VWeaponDrop
p5254
sg180
I12
sg44
(lp5255
I2758383128
asg35
VPT6M23.8126673S
p5256
sg183
I7
sg184
VP0DT0H0M22.1833S
p5257
sg39
(dp5258
g41
VRNG Ninja HCS
p5259
sg43
Nssa(dp5260
g38
I313138863
sg39
(dp5261
g41
VRNG Victory X
p5262
sg43
Nssg44
(lp5263
I1095363701
asg32
VWeaponPickup
p5264
sg35
VPT6M24.4606497S
p5265
sa(dp5266
g38
I4096745987
sg39
(dp5267
g41
VRNG Victory X
p5268
sg43
Nssg44
(lp5269
I2758383128
asg32
VWeaponPickup
p5270
sg35
VPT6M24.4606497S
p5271
sa(dp5272
g32
VPlayerSpawn
p5273
sg39
(dp5274
g41
VRNG Victory X
p5275
sg43
Nssg35
VPT6M24.4606497S
p5276
sa(dp5277
g38
I313138863
sg32
VWeaponDrop
p5278
sg180
I0
sg44
(lp5279
I1095363701
asg35
VPT6M26.0926562S
p5280
sg183
I0
sg184
VP0DT0H0M0.6500S
p5281
sg39
(dp5282
g41
VRNG Victory X
p5283
sg43
Nssa(dp5284
g38
I723388907
sg39
(dp5285
g41
VRNG Victory X
p5286
sg43
Nssg44
(lp5287
I89283061
asg32
VWeaponPickup
p5288
sg35
VPT6M26.0926562S
p5289
sa(dp5290
g38
I313138863
sg32
VWeaponDrop
p5291
sg180
I0
sg44
(lp5292
I1095363701
asg35
VPT6M26.4426328S
p5293
sg183
I0
sg184
VP0DT0H0M2.3667S
p5294
sg39
(dp5295
g41
VOG Maniac HCS
p5296
sg43
Nssa(dp5297
g38
I669296699
sg39
(dp5298
g41
VOG Maniac HCS
p5299
sg43
Nssg44
(lp5300
I2758383128
asg32
VWeaponPickup
p5301
sg35
VPT6M26.4426328S
p5302
sa(dp5303
g38
I313138863
sg39
(dp5304
g41
VOG Str8 SickHCS
p5305
sg43
Nssg44
(lp5306
I1095363701
asg32
VWeaponPickup
p5307
sg35
VPT6M26.5276532S
p5308
sa(dp5309
g38
I4096745987
sg39
(dp5310
g41
VOG Str8 SickHCS
p5311
sg43
Nssg44
(lp5312
I2758383128
asg32
VWeaponPickup
p5313
sg35
VPT6M26.5276532S
p5314
sa(dp5315
g32
VPlayerSpawn
p5316
sg39
(dp5317
g41
VOG Str8 SickHCS
p5318
sg43
Nssg35
VPT6M26.5276532S
p5319
sa(dp5320
g38
I313138863
sg39
(dp5321
g41
VRNG Commonly
p5322
sg43
Nssg44
(lp5323
I1095363701
asg32
VWeaponPickup
p5324
sg35
VPT6M27.1276481S
p5325
sa(dp5326
g38
I4096745987
sg39
(dp5327
g41
VRNG Commonly
p5328
sg43
Nssg44
(lp5329
I2758383128
asg32
VWeaponPickup
p5330
sg35
VPT6M27.1276481S
p5331
sa(dp5332
g32
VPlayerSpawn
p5333
sg39
(dp5334
g41
VRNG Commonly
p5335
sg43
Nssg35
VPT6M27.1276481S
p5336
sa(dp5337
g38
I4096745987
sg32
VWeaponDrop
p5338
sg180
I0
sg44
(lp5339
I2758383128
asg35
VPT6M28.6756403S
p5340
sg183
I0
sg184
VP0DT0H0M3.1500S
p5341
sg39
(dp5342
g41
VRNG Victory X
p5343
sg43
Nssa(dp5344
g38
I424645655
sg39
(dp5345
g41
VRNG Victory X
p5346
sg43
Nssg44
(lp5347
I1327094800
asg32
VWeaponPickup
p5348
sg35
VPT6M28.6756403S
p5349
sa(dp5350
g38
I4096745987
sg32
VWeaponDrop
p5351
sg180
I1
sg44
(lp5352
I2758383128
asg35
VPT6M28.743616S
p5353
sg183
I1
sg184
VPT0S
p5354
sg39
(dp5355
g41
VOG ACE HCS
p5356
sg43
Nssa(dp5357
g208
I313138863
sg209
I00
sg210
I01
sg211
(dp5358
g41
VRNG Penguin HCS
p5359
sg43
Nssg214
(lp5360
I1095363701
asg216
I00
sg217
I00
sg218
I1
sg219
I0
sg220
I1
sg221
(dp5361
Vy
F10.502471
sVx
F-2.38133931
sVz
F1.5925286999999999
ssg223
(dp5362
Vy
F10.938560499999999
sVx
F-2.2002363200000001
sVz
F1.5994215000000001
ssg225
I00
sg226
(dp5363
g41
VOG ACE HCS
p5364
sg43
Nssg229
(lp5365
sg231
(lp5366
sg235
I00
sg35
VPT6M29.1606132S
p5367
sg32
VDeath
p5368
sg238
I1
sa(dp5369
g32
VMedal
p5370
sg39
(dp5371
g41
VRNG Penguin HCS
p5372
sg43
Nssg243
I250435527
sg35
VPT6M29.1616369S
p5373
sa(dp5374
g38
I723388907
sg32
VWeaponDrop
p5375
sg180
I8
sg44
(lp5376
I89283061
asg35
VPT6M29.1616369S
p5377
sg183
I8
sg184
VP0DT0H0M3.2667S
p5378
sg39
(dp5379
g41
VOG ACE HCS
p5380
sg43
Nssa(dp5381
g38
I723388907
sg32
VWeaponDrop
p5382
sg180
I0
sg44
(lp5383
I89283061
asg35
VPT6M29.1616369S
p5384
sg183
I0
sg184
VP0DT0S
p5385
sg39
(dp5386
g41
VOG ACE HCS
p5387
sg43
Nssa(dp5388
g38
I424645655
sg32
VWeaponDrop
p5389
sg180
I39
sg44
(lp5390
I1327094800
asg35
VPT6M29.1626307S
p5391
sg183
I25
sg184
VP0DT0H0M31.8833S
p5392
sg39
(dp5393
g41
VOG ACE HCS
p5394
sg43
Nssa(dp5395
g38
I3190813201
sg32
VWeaponDrop
p5396
sg180
I9
sg44
(lp5397
sg35
VPT6M29.1626307S
p5398
sg183
I0
sg184
VPT0S
p5399
sg39
(dp5400
g41
VOG ACE HCS
p5401
sg43
Nssa(dp5402
g208
I723388907
sg209
I00
sg210
I01
sg211
(dp5403
g41
VOG ACE HCS
p5404
sg43
Nssg214
(lp5405
I89283061
asg216
I00
sg217
I00
sg218
I1
sg219
I0
sg220
I1
sg221
(dp5406
Vy
F10.938560499999999
sVx
F-2.2002363200000001
sVz
F1.82442153
ssg223
(dp5407
Vy
F10.502471
sVx
F-2.38133931
sVz
F1.5925286999999999
ssg225
I00
sg226
(dp5408
g41
VRNG Penguin HCS
p5409
sg43
Nssg229
(lp5410
sg231
(lp5411
sg235
I00
sg35
VPT6M29.1626307S
p5412
sg32
VDeath
p5413
sg238
I1
sa(dp5414
g32
VMedal
p5415
sg39
(dp5416
g41
VOG ACE HCS
p5417
sg43
Nssg243
I250435527
sg35
VPT6M29.1636323S
p5418
sa(dp5419
g38
I313138863
sg32
VWeaponDrop
p5420
sg180
I9
sg44
(lp5421
I1095363701
asg35
VPT6M29.1636323S
p5422
sg183
I8
sg184
VP0DT0H0M2.3667S
p5423
sg39
(dp5424
g41
VRNG Penguin HCS
p5425
sg43
Nssa(dp5426
g38
I313138863
sg32
VWeaponDrop
p5427
sg180
I0
sg44
(lp5428
I1095363701
asg35
VPT6M29.1636323S
p5429
sg183
I0
sg184
VP0DT0S
p5430
sg39
(dp5431
g41
VRNG Penguin HCS
p5432
sg43
Nssa(dp5433
g38
I4096745987
sg32
VWeaponDrop
p5434
sg180
I2
sg44
(lp5435
I2758383128
asg35
VPT6M29.1636323S
p5436
sg183
I0
sg184
VP0DT0H0M3.4833S
p5437
sg39
(dp5438
g41
VRNG Penguin HCS
p5439
sg43
Nssa(dp5440
g32
VRoundEnd
p5441
sg34
I0
sg35
VPT6M29.1766493S
p5442
sassb.