ccopy_reg
_reconstructor
p1
(c__main__
match_breakdown
p2
c__builtin__
object
p3
NtRp4
(dp5
S'details'
p6
(dp7
VIsCompleteSetOfEvents
p8
I01
sVLinks
p9
(dp10
VUgcFilmManifest
p11
(dp12
VAuthenticationLifetimeExtensionSupported
p13
I00
sVQueryString
p14
V?view=film-manifest
p15
sVRetryPolicyId
p16
Vexponentialretry
p17
sVPath
p18
V/h5/films/4c324cab-d5cb-479c-9b4f-dbac765713ca
p19
sVAcknowledgementTypeId
p20
I0
sVAuthorityId
p21
Vugc
p22
sVTopicName
p23
V
ssVStatsMatchDetails
p24
(dp25
g13
I00
sg14
Nsg16
Vexponentialretry
p26
sg18
Vh5/custom/matches/4c324cab-d5cb-479c-9b4f-dbac765713ca
p27
sg20
I0
sg21
Vspartanstats
p28
sg23
V
sssVGameEvents
p29
(lp30
(dp31
VEventName
p32
VRoundStart
p33
sVRoundIndex
p34
I0
sVTimeSinceStart
p35
VPT0.0269996S
p36
sa(dp37
VKillerWeaponStockId
p38
I2457457776
sVIsAssassination
p39
I00
sVIsMelee
p40
I00
sVKiller
p41
(dp42
S'Gamertag'
p43
S'None'
p44
ssVKillerWeaponAttachmentIds
p45
(lp46
sVIsGroundPound
p47
I00
sVIsWeapon
p48
I00
sVDeathDisposition
p49
I2
sVVictimStockId
p50
I0
sVVictimAgent
p51
I0
sVKillerWorldLocation
p52
(dp53
Vy
F0
sVx
F0
sVz
F0
ssVVictimWorldLocation
p54
(dp55
Vy
F0
sVx
F2
sVz
F-3.2141876200000001
ssVIsShoulderBash
p56
I00
sVVictim
p57
(dp58
g43
g44
ssVVictimAttachmentIds
p59
(lp60
sVAssistants
p61
(lp62
sVIsHeadshot
p63
I00
sg35
VPT6.347845S
p64
sg32
VDeath
p65
sVKillerAgent
p66
I0
sa(dp67
VWeaponStockId
p68
I313138863
sVPlayer
p69
(dp70
VGamertag
p71
VCLG Royal 2
p72
sVXuid
p73
NssVWeaponAttachmentIds
p74
(lp75
I1095363701
asg32
VWeaponPickup
p76
sg35
VPT18.1785597S
p77
sa(dp78
g68
I4096745987
sg69
(dp79
g71
VCLG Royal 2
p80
sg73
Nssg74
(lp81
I2758383128
asg32
VWeaponPickup
p82
sg35
VPT18.1785597S
p83
sa(dp84
g32
VPlayerSpawn
p85
sg69
(dp86
g71
VCLG Royal 2
p87
sg73
Nssg35
VPT18.1785597S
p88
sa(dp89
g68
I313138863
sg69
(dp90
g71
VCLG Frosty HCS
p91
sg73
Nssg74
(lp92
I1095363701
asg32
VWeaponPickup
p93
sg35
VPT18.1935357S
p94
sa(dp95
g68
I4096745987
sg69
(dp96
g71
VCLG Frosty HCS
p97
sg73
Nssg74
(lp98
I2758383128
asg32
VWeaponPickup
p99
sg35
VPT18.1945543S
p100
sa(dp101
g32
VPlayerSpawn
p102
sg69
(dp103
g71
VCLG Frosty HCS
p104
sg73
Nssg35
VPT18.1945543S
p105
sa(dp106
g68
I313138863
sg69
(dp107
g71
VE6 Huke HCS
p108
sg73
Nssg74
(lp109
I1095363701
asg32
VWeaponPickup
p110
sg35
VPT18.210535S
p111
sa(dp112
g68
I4096745987
sg69
(dp113
g71
VE6 Huke HCS
p114
sg73
Nssg74
(lp115
I2758383128
asg32
VWeaponPickup
p116
sg35
VPT18.2115534S
p117
sa(dp118
g32
VPlayerSpawn
p119
sg69
(dp120
g71
VE6 Huke HCS
p121
sg73
Nssg35
VPT18.2115534S
p122
sa(dp123
g68
I313138863
sg69
(dp124
g71
VCLG Snake Bite
p125
sg73
Nssg74
(lp126
I1095363701
asg32
VWeaponPickup
p127
sg35
VPT18.2275581S
p128
sa(dp129
g68
I4096745987
sg69
(dp130
g71
VCLG Snake Bite
p131
sg73
Nssg74
(lp132
I2758383128
asg32
VWeaponPickup
p133
sg35
VPT18.2275581S
p134
sa(dp135
g32
VPlayerSpawn
p136
sg69
(dp137
g71
VCLG Snake Bite
p138
sg73
Nssg35
VPT18.2275581S
p139
sa(dp140
g68
I313138863
sg69
(dp141
g71
VE6 Shooter
p142
sg73
Nssg74
(lp143
I1095363701
asg32
VWeaponPickup
p144
sg35
VPT18.2445544S
p145
sa(dp146
g68
I4096745987
sg69
(dp147
g71
VE6 Shooter
p148
sg73
Nssg74
(lp149
I2758383128
asg32
VWeaponPickup
p150
sg35
VPT18.2445544S
p151
sa(dp152
g32
VPlayerSpawn
p153
sg69
(dp154
g71
VE6 Shooter
p155
sg73
Nssg35
VPT18.2445544S
p156
sa(dp157
g68
I313138863
sg69
(dp158
g71
VE6 bubu dubu
p159
sg73
Nssg74
(lp160
I1095363701
asg32
VWeaponPickup
p161
sg35
VPT18.2605346S
p162
sa(dp163
g68
I4096745987
sg69
(dp164
g71
VE6 bubu dubu
p165
sg73
Nssg74
(lp166
I2758383128
asg32
VWeaponPickup
p167
sg35
VPT18.2615517S
p168
sa(dp169
g32
VPlayerSpawn
p170
sg69
(dp171
g71
VE6 bubu dubu
p172
sg73
Nssg35
VPT18.2615517S
p173
sa(dp174
g68
I313138863
sg69
(dp175
g71
VCLG LethuL HCS
p176
sg73
Nssg74
(lp177
I1095363701
asg32
VWeaponPickup
p178
sg35
VPT18.2775554S
p179
sa(dp180
g68
I4096745987
sg69
(dp181
g71
VCLG LethuL HCS
p182
sg73
Nssg74
(lp183
I2758383128
asg32
VWeaponPickup
p184
sg35
VPT18.2775554S
p185
sa(dp186
g32
VPlayerSpawn
p187
sg69
(dp188
g71
VCLG LethuL HCS
p189
sg73
Nssg35
VPT18.2775554S
p190
sa(dp191
g68
I313138863
sg69
(dp192
g71
VE6 Cratos HCS
p193
sg73
Nssg74
(lp194
I1095363701
asg32
VWeaponPickup
p195
sg35
VPT18.2945512S
p196
sa(dp197
g68
I4096745987
sg69
(dp198
g71
VE6 Cratos HCS
p199
sg73
Nssg74
(lp200
I2758383128
asg32
VWeaponPickup
p201
sg35
VPT18.2945512S
p202
sa(dp203
g32
VPlayerSpawn
p204
sg69
(dp205
g71
VE6 Cratos HCS
p206
sg73
Nssg35
VPT18.2945512S
p207
sa(dp208
g68
I4096745987
sg32
VWeaponDrop
p209
sVShotsFired
p210
I0
sg74
(lp211
I2758383128
asg35
VPT20.6094744S
p212
sVShotsLanded
p213
I0
sVTimeWeaponActiveAsPrimary
p214
VP0DT0H0M1.1667S
p215
sg69
(dp216
g71
VE6 bubu dubu
p217
sg73
Nssa(dp218
g68
I4108759423
sg69
(dp219
g71
VE6 bubu dubu
p220
sg73
Nssg74
(lp221
I2758383128
asg32
VWeaponPickup
p222
sg35
VPT20.6094744S
p223
sa(dp224
g68
I313138863
sg32
VWeaponDrop
p225
sg210
I0
sg74
(lp226
I1095363701
asg35
VPT21.1424826S
p227
sg213
I0
sg214
VP0DT0H0M1.7333S
p228
sg69
(dp229
g71
VCLG Frosty HCS
p230
sg73
Nssa(dp231
g68
I4108759423
sg69
(dp232
g71
VCLG Frosty HCS
p233
sg73
Nssg74
(lp234
I2758383128
asg32
VWeaponPickup
p235
sg35
VPT21.1424826S
p236
sa(dp237
g38
I4096745987
sg39
I00
sg40
I00
sg41
(dp238
g71
VCLG LethuL HCS
p239
sg73
Nssg45
(lp240
I2758383128
asg47
I00
sg48
I01
sg49
I1
sg50
I0
sg51
I1
sg52
(dp241
Vy
F-5.5501623200000001
sVx
F1.04570556
sVz
F-0.14033247500000001
ssg54
(dp242
Vy
F2.45717382
sVx
F-10.3285847
sVz
F0.36838579999999999
ssg56
I00
sg57
(dp243
g71
VE6 Shooter
p244
sg73
Nssg59
(lp245
sg61
(lp246
(dp247
g71
VCLG Snake Bite
p248
sg73
Nsasg63
I00
sg35
VPT27.2933032S
p249
sg32
VDeath
p250
sg66
I1
sa(dp251
g32
VMedal
p252
sg69
(dp253
g71
VCLG LethuL HCS
p254
sg73
NssVMedalId
p255
I3001183151
sg35
VPT27.2953258S
p256
sa(dp257
g68
I313138863
sg32
VWeaponDrop
p258
sg210
I0
sg74
(lp259
I1095363701
asg35
VPT27.3133441S
p260
sg213
I0
sg214
VP0DT0H0M0.6500S
p261
sg69
(dp262
g71
VE6 Shooter
p263
sg73
Nssa(dp264
g68
I4096745987
sg32
VWeaponDrop
p265
sg210
I2
sg74
(lp266
I2758383128
asg35
VPT27.3133441S
p267
sg213
I1
sg214
VP0DT0H0M8.4000S
p268
sg69
(dp269
g71
VE6 Shooter
p270
sg73
Nssa(dp271
g68
I2492868984
sg69
(dp272
g71
VE6 Cratos HCS
p273
sg73
Nssg74
(lp274
I2758383128
asg32
VWeaponPickup
p275
sg35
VPT27.8102893S
p276
sa(dp277
g38
I4096745987
sg39
I00
sg40
I00
sg41
(dp278
g71
VCLG Royal 2
p279
sg73
Nssg45
(lp280
I2758383128
asg47
I00
sg48
I01
sg49
I1
sg50
I0
sg51
I1
sg52
(dp281
Vy
F-5.3210396800000002
sVx
F-4.9416000000000002
sVz
F5.0600870000000002
ssg54
(dp282
Vy
F4.9469404199999998
sVx
F-4.3927569999999996
sVz
F5.3149889999999997
ssg56
I00
sg57
(dp283
g71
VE6 Huke HCS
p284
sg73
Nssg59
(lp285
sg61
(lp286
sg63
I01
sg35
VPT28.1602803S
p287
sg32
VDeath
p288
sg66
I1
sa(dp289
g32
VImpulse
p290
sg69
(dp291
g71
VCLG Royal 2
p292
sg73
NssVImpulseId
p293
I3174430457
sg35
VPT28.1612826S
p294
sa(dp295
g32
VMedal
p296
sg69
(dp297
g71
VCLG Royal 2
p298
sg73
Nssg255
I3653057799
sg35
VPT28.1622797S
p299
sa(dp300
g68
I313138863
sg32
VWeaponDrop
p301
sg210
I0
sg74
(lp302
I1095363701
asg35
VPT28.1622797S
p303
sg213
I0
sg214
VP0DT0H0M0.6667S
p304
sg69
(dp305
g71
VE6 Huke HCS
p306
sg73
Nssa(dp307
g68
I4096745987
sg32
VWeaponDrop
p308
sg210
I4
sg74
(lp309
I2758383128
asg35
VPT28.1622797S
p310
sg213
I4
sg214
VP0DT0H0M9.2833S
p311
sg69
(dp312
g71
VE6 Huke HCS
p313
sg73
Nssa(dp314
g68
I2492868984
sg32
VWeaponDrop
p315
sg210
I0
sg74
(lp316
I2758383128
asg35
VPT28.9602592S
p317
sg213
I0
sg214
VP0DT0H0M1.0000S
p318
sg69
(dp319
g71
VE6 Cratos HCS
p320
sg73
Nssa(dp321
g68
I313138863
sg32
VWeaponDrop
p322
sg210
I0
sg74
(lp323
I1095363701
asg35
VPT32.2252009S
p324
sg213
I0
sg214
VP0DT0H0M3.8500S
p325
sg69
(dp326
g71
VE6 bubu dubu
p327
sg73
Nssa(dp328
g68
I2133511419
sg69
(dp329
g71
VE6 bubu dubu
p330
sg73
Nssg74
(lp331
I2758383128
asg32
VWeaponPickup
p332
sg35
VPT32.2252009S
p333
sa(dp334
g38
I2133511419
sg39
I00
sg40
I00
sg41
(dp335
g71
VE6 bubu dubu
p336
sg73
Nssg45
(lp337
I2758383128
asg47
I00
sg48
I01
sg49
I1
sg50
I0
sg51
I1
sg52
(dp338
Vy
F-0.124036014
sVx
F7.1383395199999997
sVz
F0.51600829999999998
ssg54
(dp339
Vy
F-0.96079665400000003
sVx
F5.2443590000000002
sVz
F0.53910905099999995
ssg56
I00
sg57
(dp340
g71
VCLG Frosty HCS
p341
sg73
Nssg59
(lp342
sg61
(lp343
sg63
I00
sg35
VPT34.8591089S
p344
sg32
VDeath
p345
sg66
I1
sa(dp346
g68
I4108759423
sg32
VWeaponDrop
p347
sg210
I4
sg74
(lp348
I2758383128
asg35
VPT34.8611332S
p349
sg213
I0
sg214
VP0DT0H0M9.3167S
p350
sg69
(dp351
g71
VCLG Frosty HCS
p352
sg73
Nssa(dp353
g68
I4096745987
sg32
VWeaponDrop
p354
sg210
I10
sg74
(lp355
I2758383128
asg35
VPT34.8611332S
p356
sg213
I6
sg214
VP0DT0H0M5.6167S
p357
sg69
(dp358
g71
VCLG Frosty HCS
p359
sg73
Nssa(dp360
g68
I313138863
sg69
(dp361
g71
VE6 Shooter
p362
sg73
Nssg74
(lp363
I1095363701
asg32
VWeaponPickup
p364
sg35
VPT35.3100979S
p365
sa(dp366
g68
I4096745987
sg69
(dp367
g71
VE6 Shooter
p368
sg73
Nssg74
(lp369
I2758383128
asg32
VWeaponPickup
p370
sg35
VPT35.3100979S
p371
sa(dp372
g32
VPlayerSpawn
p373
sg69
(dp374
g71
VE6 Shooter
p375
sg73
Nssg35
VPT35.3100979S
p376
sa(dp377
g68
I313138863
sg69
(dp378
g71
VE6 Huke HCS
p379
sg73
Nssg74
(lp380
I1095363701
asg32
VWeaponPickup
p381
sg35
VPT36.1760762S
p382
sa(dp383
g68
I4096745987
sg69
(dp384
g71
VE6 Huke HCS
p385
sg73
Nssg74
(lp386
I2758383128
asg32
VWeaponPickup
p387
sg35
VPT36.177089S
p388
sa(dp389
g32
VPlayerSpawn
p390
sg69
(dp391
g71
VE6 Huke HCS
p392
sg73
Nssg35
VPT36.177089S
p393
sa(dp394
g68
I4096745987
sg32
VWeaponDrop
p395
sg210
I15
sg74
(lp396
I2758383128
asg35
VPT36.9420563S
p397
sg213
I7
sg214
VP0DT0H0M17.7667S
p398
sg69
(dp399
g71
VCLG Snake Bite
p400
sg73
Nssa(dp401
g68
I424645655
sg69
(dp402
g71
VCLG Snake Bite
p403
sg73
Nssg74
(lp404
I1327094800
asg32
VWeaponPickup
p405
sg35
VPT36.9420563S
p406
sa(dp407
g38
I313138863
sg39
I00
sg40
I00
sg41
(dp408
g71
VCLG LethuL HCS
p409
sg73
Nssg45
(lp410
I1095363701
asg47
I00
sg48
I01
sg49
I1
sg50
I0
sg51
I1
sg52
(dp411
Vy
F-4.2825365099999999
sVx
F5.9930687000000002
sVz
F0.98729029999999995
ssg54
(dp412
Vy
F-1.69282222
sVx
F5.1555179999999998
sVz
F0.58881276800000004
ssg56
I00
sg57
(dp413
g71
VE6 bubu dubu
p414
sg73
Nssg59
(lp415
sg61
(lp416
(dp417
g71
VCLG Frosty HCS
p418
sg73
Nsasg63
I00
sg35
VPT37.327047S
p419
sg32
VDeath
p420
sg66
I1
sa(dp421
g68
I2133511419
sg32
VWeaponDrop
p422
sg210
I24
sg74
(lp423
I2758383128
asg35
VPT37.3280699S
p424
sg213
I10
sg214
VP0DT0H0M5.1000S
p425
sg69
(dp426
g71
VE6 bubu dubu
p427
sg73
Nssa(dp428
g68
I4108759423
sg32
VWeaponDrop
p429
sg210
I6
sg74
(lp430
I2758383128
asg35
VPT37.3280699S
p431
sg213
I3
sg214
VP0DT0H0M8.9500S
p432
sg69
(dp433
g71
VE6 bubu dubu
p434
sg73
Nssa(dp435
g68
I313138863
sg32
VWeaponDrop
p436
sg210
I0
sg74
(lp437
I1095363701
asg35
VPT39.0250233S
p438
sg213
I0
sg214
VP0DT0H0M1.3667S
p439
sg69
(dp440
g71
VCLG Royal 2
p441
sg73
Nssa(dp442
g68
I4054937266
sg69
(dp443
g71
VCLG Royal 2
p444
sg73
Nssg74
(lp445
I2758383128
asg32
VWeaponPickupPad
p446
sg35
VPT39.0250233S
p447
sa(dp448
g68
I4054937266
sg69
(dp449
g71
VCLG Royal 2
p450
sg73
Nssg74
(lp451
I2758383128
asg32
VWeaponPickup
p452
sg35
VPT39.0270049S
p453
sa(dp454
g68
I313138863
sg32
VWeaponDrop
p455
sg210
I16
sg74
(lp456
I1095363701
asg35
VPT39.0410271S
p457
sg213
I8
sg214
VP0DT0H0M5.8333S
p458
sg69
(dp459
g71
VCLG LethuL HCS
p460
sg73
Nssa(dp461
g68
I4108759423
sg69
(dp462
g71
VCLG LethuL HCS
p463
sg73
Nssg74
(lp464
I2758383128
asg32
VWeaponPickup
p465
sg35
VPT39.0420032S
p466
sa(dp467
g68
I313138863
sg32
VWeaponDrop
p468
sg210
I0
sg74
(lp469
I1095363701
asg35
VPT39.1750168S
p470
sg213
I0
sg214
VP0DT0H0M3.5500S
p471
sg69
(dp472
g71
VE6 Cratos HCS
p473
sg73
Nssa(dp474
g68
I524558978
sg69
(dp475
g71
VE6 Cratos HCS
p476
sg73
Nssg74
(lp477
I2758383128
asg32
VWeaponPickup
p478
sg35
VPT39.1750168S
p479
sa(dp480
g68
I4096745987
sg32
VWeaponDrop
p481
sg210
I8
sg74
(lp482
I2758383128
asg35
VPT40.7579583S
p483
sg213
I4
sg214
VP0DT0H0M15.3667S
p484
sg69
(dp485
g71
VCLG LethuL HCS
p486
sg73
Nssa(dp487
g68
I2133511419
sg69
(dp488
g71
VCLG LethuL HCS
p489
sg73
Nssg74
(lp490
I2758383128
asg32
VWeaponPickup
p491
sg35
VPT40.7579583S
p492
sa(dp493
g38
I4096745987
sg39
I00
sg40
I00
sg41
(dp494
g71
VE6 Huke HCS
p495
sg73
Nssg45
(lp496
I2758383128
asg47
I00
sg48
I01
sg49
I1
sg50
I0
sg51
I1
sg52
(dp497
Vy
F10.2376337
sVx
F-5.684577
sVz
F-0.057635992800000001
ssg54
(dp498
Vy
F2.8632807699999998
sVx
F-8.9875969999999992
sVz
F0.89139400000000002
ssg56
I00
sg57
(dp499
g71
VCLG Snake Bite
p500
sg73
Nssg59
(lp501
sg61
(lp502
sg63
I01
sg35
VPT41.5759375S
p503
sg32
VDeath
p504
sg66
I1
sa(dp505
g32
VMedal
p506
sg69
(dp507
g71
VE6 Huke HCS
p508
sg73
Nssg255
I3261908037
sg35
VPT41.577955S
p509
sa(dp510
g68
I313138863
sg32
VWeaponDrop
p511
sg210
I0
sg74
(lp512
I1095363701
asg35
VPT41.577955S
p513
sg213
I0
sg214
VP0DT0H0M0.9500S
p514
sg69
(dp515
g71
VCLG Snake Bite
p516
sg73
Nssa(dp517
g68
I424645655
sg32
VWeaponDrop
p518
sg210
I12
sg74
(lp519
I1327094800
asg35
VPT41.577955S
p520
sg213
I8
sg214
VP0DT0H0M4.6333S
p521
sg69
(dp522
g71
VCLG Snake Bite
p523
sg73
Nssa(dp524
g68
I313138863
sg69
(dp525
g71
VCLG Frosty HCS
p526
sg73
Nssg74
(lp527
I1095363701
asg32
VWeaponPickup
p528
sg35
VPT42.8759259S
p529
sa(dp530
g68
I4096745987
sg69
(dp531
g71
VCLG Frosty HCS
p532
sg73
Nssg74
(lp533
I2758383128
asg32
VWeaponPickup
p534
sg35
VPT42.8759259S
p535
sa(dp536
g32
VPlayerSpawn
p537
sg69
(dp538
g71
VCLG Frosty HCS
p539
sg73
Nssg35
VPT42.8759259S
p540
sa(dp541
g38
I4054937266
sg39
I00
sg40
I00
sg41
(dp542
g71
VCLG Royal 2
p543
sg73
Nssg45
(lp544
I2758383128
asg47
I00
sg48
I01
sg49
I1
sg50
I0
sg51
I1
sg52
(dp545
Vy
F9.4014880000000005
sVx
F-16.070295300000002
sVz
F1.6744778199999999
ssg54
(dp546
Vy
F10.370448100000001
sVx
F-8.4386980000000005
sVz
F0.51503589999999999
ssg56
I00
sg57
(dp547
g71
VE6 Huke HCS
p548
sg73
Nssg59
(lp549
sg61
(lp550
(dp551
g71
VCLG Snake Bite
p552
sg73
Nsasg63
I00
sg35
VPT43.8748787S
p553
sg32
VDeath
p554
sg66
I1
sa(dp555
g68
I313138863
sg32
VWeaponDrop
p556
sg210
I0
sg74
(lp557
I1095363701
asg35
VPT43.875903S
p558
sg213
I0
sg214
VP0DT0H0M1.0333S
p559
sg69
(dp560
g71
VE6 Huke HCS
p561
sg73
Nssa(dp562
g68
I4096745987
sg32
VWeaponDrop
p563
sg210
I10
sg74
(lp564
I2758383128
asg35
VPT43.875903S
p565
sg213
I8
sg214
VP0DT0H0M6.6667S
p566
sg69
(dp567
g71
VE6 Huke HCS
p568
sg73
Nssa(dp569
g38
I313138863
sg39
I00
sg40
I00
sg41
(dp570
g71
VE6 Shooter
p571
sg73
Nssg45
(lp572
I1095363701
asg47
I00
sg48
I01
sg49
I1
sg50
I0
sg51
I1
sg52
(dp573
Vy
F13.250109999999999
sVx
F-12.5553179
sVz
F1.41999114
ssg54
(dp574
Vy
F11.675734500000001
sVx
F-16.286586799999998
sVz
F1.4262365100000001
ssg56
I00
sg57
(dp575
g71
VCLG Royal 2
p576
sg73
Nssg59
(lp577
sg61
(lp578
(dp579
g71
VE6 Huke HCS
p580
sg73
Nsasg63
I00
sg35
VPT45.2098697S
p581
sg32
VDeath
p582
sg66
I1
sa(dp583
g68
I4054937266
sg32
VWeaponDrop
p584
sg210
I4
sg74
(lp585
I2758383128
asg35
VPT45.2118683S
p586
sg213
I3
sg214
VP0DT0H0M2.6333S
p587
sg69
(dp588
g71
VCLG Royal 2
p589
sg73
Nssa(dp590
g68
I4096745987
sg32
VWeaponDrop
p591
sg210
I10
sg74
(lp592
I2758383128
asg35
VPT45.2118683S
p593
sg213
I5
sg214
VP0DT0H0M23.0333S
p594
sg69
(dp595
g71
VCLG Royal 2
p596
sg73
Nssa(dp597
g68
I313138863
sg69
(dp598
g71
VE6 bubu dubu
p599
sg73
Nssg74
(lp600
I1095363701
asg32
VWeaponPickup
p601
sg35
VPT45.3428679S
p602
sa(dp603
g68
I4096745987
sg69
(dp604
g71
VE6 bubu dubu
p605
sg73
Nssg74
(lp606
I2758383128
asg32
VWeaponPickup
p607
sg35
VPT45.3428679S
p608
sa(dp609
g32
VPlayerSpawn
p610
sg69
(dp611
g71
VE6 bubu dubu
p612
sg73
Nssg35
VPT45.3428679S
p613
sa(dp614
g68
I313138863
sg32
VWeaponDrop
p615
sg210
I19
sg74
(lp616
I1095363701
asg35
VPT46.80786S
p617
sg213
I10
sg214
VP0DT0H0M4.6000S
p618
sg69
(dp619
g71
VE6 Shooter
p620
sg73
Nssa(dp621
g68
I4054937266
sg69
(dp622
g71
VE6 Shooter
p623
sg73
Nssg74
(lp624
I2758383128
asg32
VWeaponPickup
p625
sg35
VPT46.80786S
p626
sa(dp627
g68
I313138863
sg69
(dp628
g71
VCLG Snake Bite
p629
sg73
Nssg74
(lp630
I1095363701
asg32
VWeaponPickup
p631
sg35
VPT49.5917311S
p632
sa(dp633
g68
I4096745987
sg69
(dp634
g71
VCLG Snake Bite
p635
sg73
Nssg74
(lp636
I2758383128
asg32
VWeaponPickup
p637
sg35
VPT49.5927513S
p638
sa(dp639
g32
VPlayerSpawn
p640
sg69
(dp641
g71
VCLG Snake Bite
p642
sg73
Nssg35
VPT49.5927513S
p643
sa(dp644
g68
I313138863
sg69
(dp645
g71
VE6 Huke HCS
p646
sg73
Nssg74
(lp647
I1095363701
asg32
VWeaponPickup
p648
sg35
VPT51.8926997S
p649
sa(dp650
g68
I4096745987
sg69
(dp651
g71
VE6 Huke HCS
p652
sg73
Nssg74
(lp653
I2758383128
asg32
VWeaponPickup
p654
sg35
VPT51.8926997S
p655
sa(dp656
g32
VPlayerSpawn
p657
sg69
(dp658
g71
VE6 Huke HCS
p659
sg73
Nssg35
VPT51.8926997S
p660
sa(dp661
g68
I313138863
sg69
(dp662
g71
VCLG Royal 2
p663
sg73
Nssg74
(lp664
I1095363701
asg32
VWeaponPickup
p665
sg35
VPT53.2256383S
p666
sa(dp667
g68
I4096745987
sg69
(dp668
g71
VCLG Royal 2
p669
sg73
Nssg74
(lp670
I2758383128
asg32
VWeaponPickup
p671
sg35
VPT53.2256383S
p672
sa(dp673
g32
VPlayerSpawn
p674
sg69
(dp675
g71
VCLG Royal 2
p676
sg73
Nssg35
VPT53.2256383S
p677
sa(dp678
g68
I4096745987
sg32
VWeaponDrop
p679
sg210
I0
sg74
(lp680
I2758383128
asg35
VPT59.6404751S
p681
sg213
I0
sg214
VP0DT0H0M5.6333S
p682
sg69
(dp683
g71
VCLG Royal 2
p684
sg73
Nssa(dp685
g68
I424645655
sg69
(dp686
g71
VCLG Royal 2
p687
sg73
Nssg74
(lp688
I1327094800
asg32
VWeaponPickup
p689
sg35
VPT59.6404751S
p690
sa(dp691
g38
I4054937266
sg39
I00
sg40
I00
sg41
(dp692
g71
VE6 Shooter
p693
sg73
Nssg45
(lp694
I2758383128
asg47
I00
sg48
I01
sg49
I1
sg50
I0
sg51
I1
sg52
(dp695
Vy
F9.8914000000000009
sVx
F2.954558
sVz
F3.7068083299999999
ssg54
(dp696
Vy
F5.68409824
sVx
F3.0859541899999998
sVz
F3.1335175
ssg56
I00
sg57
(dp697
g71
VCLG Snake Bite
p698
sg73
Nssg59
(lp699
sg61
(lp700
(dp701
g71
VE6 Cratos HCS
p702
sg73
Nsasg63
I00
sg35
VPT1M7.5742726S
p703
sg32
VDeath
p704
sg66
I1
sa(dp705
g68
I313138863
sg32
VWeaponDrop
p706
sg210
I9
sg74
(lp707
I1095363701
asg35
VPT1M7.5752834S
p708
sg213
I4
sg214
VP0DT0H0M4.0667S
p709
sg69
(dp710
g71
VCLG Snake Bite
p711
sg73
Nssa(dp712
g68
I4096745987
sg32
VWeaponDrop
p713
sg210
I6
sg74
(lp714
I2758383128
asg35
VPT1M7.5752834S
p715
sg213
I1
sg214
VP0DT0H0M13.9167S
p716
sg69
(dp717
g71
VCLG Snake Bite
p718
sg73
Nssa(dp719
g38
I4096745987
sg39
I00
sg40
I00
sg41
(dp720
g71
VCLG Frosty HCS
p721
sg73
Nssg45
(lp722
I2758383128
asg47
I00
sg48
I01
sg49
I1
sg50
I0
sg51
I1
sg52
(dp723
Vy
F1.8277554499999999
sVx
F-4.0704520000000004
sVz
F3.1532079999999998
ssg54
(dp724
Vy
F10.605449999999999
sVx
F3.439416
sVz
F4.2717895500000003
ssg56
I00
sg57
(dp725
g71
VE6 Shooter
p726
sg73
Nssg59
(lp727
sg61
(lp728
(dp729
g71
VCLG Snake Bite
p730
sg73
Nsasg63
I01
sg35
VPT1M7.9572621S
p731
sg32
VDeath
p732
sg66
I1
sa(dp733
g32
VMedal
p734
sg69
(dp735
g71
VCLG Frosty HCS
p736
sg73
Nssg255
I3261908037
sg35
VPT1M7.9572621S
p737
sa(dp738
g68
I4054937266
sg32
VWeaponDrop
p739
sg210
I3
sg74
(lp740
I2758383128
asg35
VPT1M7.9572621S
p741
sg213
I1
sg214
VP0DT0H0M10.1000S
p742
sg69
(dp743
g71
VE6 Shooter
p744
sg73
Nssa(dp745
g68
I4054937266
sg32
VWeaponDrop
p746
sg210
I0
sg74
(lp747
I2758383128
asg35
VPT1M7.9572621S
p748
sg213
I0
sg214
VP0DT0S
p749
sg69
(dp750
g71
VE6 Shooter
p751
sg73
Nssa(dp752
g68
I4096745987
sg32
VWeaponDrop
p753
sg210
I0
sg74
(lp754
I2758383128
asg35
VPT1M7.9572621S
p755
sg213
I0
sg214
VP0DT0H0M17.9500S
p756
sg69
(dp757
g71
VE6 Shooter
p758
sg73
Nssa(dp759
g68
I313138863
sg32
VWeaponDrop
p760
sg210
I0
sg74
(lp761
I1095363701
asg35
VPT1M11.1891971S
p762
sg213
I0
sg214
VP0DT0H0M1.4000S
p763
sg69
(dp764
g71
VE6 bubu dubu
p765
sg73
Nssa(dp766
g68
I4054937266
sg69
(dp767
g71
VE6 bubu dubu
p768
sg73
Nssg74
(lp769
I2758383128
asg32
VWeaponPickup
p770
sg35
VPT1M11.1891971S
p771
sa(dp772
g68
I313138863
sg69
(dp773
g71
VCLG Snake Bite
p774
sg73
Nssg74
(lp775
I1095363701
asg32
VWeaponPickup
p776
sg35
VPT1M15.5900666S
p777
sa(dp778
g68
I4096745987
sg69
(dp779
g71
VCLG Snake Bite
p780
sg73
Nssg74
(lp781
I2758383128
asg32
VWeaponPickup
p782
sg35
VPT1M15.5910889S
p783
sa(dp784
g32
VPlayerSpawn
p785
sg69
(dp786
g71
VCLG Snake Bite
p787
sg73
Nssg35
VPT1M15.5910889S
p788
sa(dp789
g68
I313138863
sg69
(dp790
g71
VE6 Shooter
p791
sg73
Nssg74
(lp792
I1095363701
asg32
VWeaponPickup
p793
sg35
VPT1M15.9740787S
p794
sa(dp795
g68
I4096745987
sg69
(dp796
g71
VE6 Shooter
p797
sg73
Nssg74
(lp798
I2758383128
asg32
VWeaponPickup
p799
sg35
VPT1M15.9740787S
p800
sa(dp801
g32
VPlayerSpawn
p802
sg69
(dp803
g71
VE6 Shooter
p804
sg73
Nssg35
VPT1M15.9740787S
p805
sa(dp806
g38
I313138863
sg39
I00
sg40
I00
sg41
(dp807
g71
VCLG Frosty HCS
p808
sg73
Nssg45
(lp809
I1095363701
asg47
I00
sg48
I01
sg49
I1
sg50
I0
sg51
I1
sg52
(dp810
Vy
F10.4339523
sVx
F-4.9844369999999998
sVz
F2.0006813999999999
ssg54
(dp811
Vy
F10.2089119
sVx
F-9.0038280000000004
sVz
F3.4447429999999999
ssg56
I00
sg57
(dp812
g71
VE6 Cratos HCS
p813
sg73
Nssg59
(lp814
sg61
(lp815
sg63
I00
sg35
VPT1M17.1760805S
p816
sg32
VDeath
p817
sg66
I1
sa(dp818
g68
I524558978
sg32
VWeaponDrop
p819
sg210
I4
sg74
(lp820
I2758383128
asg35
VPT1M17.1760805S
p821
sg213
I0
sg214
VP0DT0H0M12.8000S
p822
sg69
(dp823
g71
VE6 Cratos HCS
p824
sg73
Nssa(dp825
g68
I4096745987
sg32
VWeaponDrop
p826
sg210
I15
sg74
(lp827
I2758383128
asg35
VPT1M17.1760805S
p828
sg213
I8
sg214
VP0DT0H0M41.5167S
p829
sg69
(dp830
g71
VE6 Cratos HCS
p831
sg73
Nssa(dp832
g38
I2133511419
sg39
I00
sg40
I00
sg41
(dp833
g71
VCLG LethuL HCS
p834
sg73
Nssg45
(lp835
I2758383128
asg47
I00
sg48
I01
sg49
I1
sg50
I0
sg51
I1
sg52
(dp836
Vy
F10.2808943
sVx
F2.8630805000000001
sVz
F0.96922649999999999
ssg54
(dp837
Vy
F6.99512863
sVx
F3.43726873
sVz
F0.99291600000000002
ssg56
I00
sg57
(dp838
g71
VE6 bubu dubu
p839
sg73
Nssg59
(lp840
sg61
(lp841
sg63
I00
sg35
VPT1M21.9729035S
p842
sg32
VDeath
p843
sg66
I1
sa(dp844
g32
VMedal
p845
sg69
(dp846
g71
VCLG LethuL HCS
p847
sg73
Nssg255
I2838259753
sg35
VPT1M21.9729035S
p848
sa(dp849
g32
VImpulse
p850
sg69
(dp851
g71
VCLG LethuL HCS
p852
sg73
Nssg293
I2556889090
sg35
VPT1M21.9729035S
p853
sa(dp854
g68
I4054937266
sg32
VWeaponDrop
p855
sg210
I5
sg74
(lp856
I2758383128
asg35
VPT1M21.9759282S
p857
sg213
I3
sg214
VP0DT0H0M9.0500S
p858
sg69
(dp859
g71
VE6 bubu dubu
p860
sg73
Nssa(dp861
g68
I4096745987
sg32
VWeaponDrop
p862
sg210
I4
sg74
(lp863
I2758383128
asg35
VPT1M21.9759282S
p864
sg213
I0
sg214
VP0DT0H0M26.1833S
p865
sg69
(dp866
g71
VE6 bubu dubu
p867
sg73
Nssa(dp868
g38
I4096745987
sg39
I00
sg40
I00
sg41
(dp869
g71
VE6 Huke HCS
p870
sg73
Nssg45
(lp871
I2758383128
asg47
I00
sg48
I01
sg49
I1
sg50
I0
sg51
I1
sg52
(dp872
Vy
F17.560836800000001
sVx
F-6.4089119999999999
sVz
F2.0006813999999999
ssg54
(dp873
Vy
F15.5779619
sVx
F-3.6666590000000001
sVz
F2.0006813999999999
ssg56
I00
sg57
(dp874
g71
VCLG Frosty HCS
p875
sg73
Nssg59
(lp876
sg61
(lp877
(dp878
g71
VE6 bubu dubu
p879
sg73
Nsasg63
I01
sg35
VPT1M22.5228891S
p880
sg32
VDeath
p881
sg66
I1
sa(dp882
g32
VMedal
p883
sg69
(dp884
g71
VE6 Huke HCS
p885
sg73
Nssg255
I3261908037
sg35
VPT1M22.5248904S
p886
sa(dp887
g68
I313138863
sg32
VWeaponDrop
p888
sg210
I40
sg74
(lp889
I1095363701
asg35
VPT1M22.5258889S
p890
sg213
I18
sg214
VP0DT0H0M19.7667S
p891
sg69
(dp892
g71
VCLG Frosty HCS
p893
sg73
Nssa(dp894
g68
I4096745987
sg32
VWeaponDrop
p895
sg210
I5
sg74
(lp896
I2758383128
asg35
VPT1M22.5258889S
p897
sg213
I4
sg214
VP0DT0H0M19.8833S
p898
sg69
(dp899
g71
VCLG Frosty HCS
p900
sg73
Nssa(dp901
g68
I313138863
sg69
(dp902
g71
VE6 Cratos HCS
p903
sg73
Nssg74
(lp904
I1095363701
asg32
VWeaponPickup
p905
sg35
VPT1M25.1878202S
p906
sa(dp907
g68
I4096745987
sg69
(dp908
g71
VE6 Cratos HCS
p909
sg73
Nssg74
(lp910
I2758383128
asg32
VWeaponPickup
p911
sg35
VPT1M25.1908022S
p912
sa(dp913
g32
VPlayerSpawn
p914
sg69
(dp915
g71
VE6 Cratos HCS
p916
sg73
Nssg35
VPT1M25.1908022S
p917
sa(dp918
g32
VMedal
p919
sg69
(dp920
g71
VCLG LethuL HCS
p921
sg73
Nssg255
I3400287617
sg35
VPT1M25.4548335S
p922
sa(dp923
g38
I4108759423
sg39
I00
sg40
I00
sg41
(dp924
g71
VCLG LethuL HCS
p925
sg73
Nssg45
(lp926
I2758383128
asg47
I00
sg48
I01
sg49
I1
sg50
I0
sg51
I1
sg52
(dp927
Vy
F10.249894100000001
sVx
F1.10701048
sVz
F2.1035287399999998
ssg54
(dp928
Vy
F18.7868347
sVx
F-8.3572299999999995
sVz
F2.37273836
ssg56
I00
sg57
(dp929
g71
VE6 Huke HCS
p930
sg73
Nssg59
(lp931
sg61
(lp932
(dp933
g71
VCLG Royal 2
p934
sg73
Nsasg63
I01
sg35
VPT1M25.5058389S
p935
sg32
VDeath
p936
sg66
I1
sa(dp937
g32
VMedal
p938
sg69
(dp939
g71
VCLG LethuL HCS
p940
sg73
Nssg255
I3261908037
sg35
VPT1M25.5078128S
p941
sa(dp942
g32
VMedal
p943
sg69
(dp944
g71
VCLG LethuL HCS
p945
sg73
Nssg255
I2078758684
sg35
VPT1M25.5078128S
p946
sa(dp947
g68
I313138863
sg32
VWeaponDrop
p948
sg210
I11
sg74
(lp949
I1095363701
asg35
VPT1M25.5078128S
p950
sg213
I5
sg214
VP0DT0H0M4.3333S
p951
sg69
(dp952
g71
VE6 Huke HCS
p953
sg73
Nssa(dp954
g68
I4096745987
sg32
VWeaponDrop
p955
sg210
I11
sg74
(lp956
I2758383128
asg35
VPT1M25.5078128S
p957
sg213
I7
sg214
VP0DT0H0M29.2833S
p958
sg69
(dp959
g71
VE6 Huke HCS
p960
sg73
Nssa(dp961
g68
I313138863
sg32
VWeaponDrop
p962
sg210
I0
sg74
(lp963
I1095363701
asg35
VPT1M27.1717944S
p964
sg213
I0
sg214
VP0DT0H0M1.0167S
p965
sg69
(dp966
g71
VCLG Royal 2
p967
sg73
Nssa(dp968
g68
I4096745987
sg69
(dp969
g71
VCLG Royal 2
p970
sg73
Nssg74
(lp971
I2758383128
asg32
VWeaponPickup
p972
sg35
VPT1M27.1717944S
p973
sa(dp974
g38
I313138863
sg39
I00
sg40
I01
sg41
(dp975
g71
VE6 Shooter
p976
sg73
Nssg45
(lp977
I1095363701
asg47
I00
sg48
I00
sg49
I1
sg50
I0
sg51
I1
sg52
(dp978
Vy
F12.4359751
sVx
F0.3524217
sVz
F1.7176592399999999
ssg54
(dp979
Vy
F12.3146725
sVx
F-0.078153625099999999
sVz
F1.6342244100000001
ssg56
I00
sg57
(dp980
g71
VCLG LethuL HCS
p981
sg73
Nssg59
(lp982
sg61
(lp983
sg63
I00
sg35
VPT1M29.3557337S
p984
sg32
VDeath
p985
sg66
I1
sa(dp986
g32
VMedal
p987
sg69
(dp988
g71
VE6 Shooter
p989
sg73
Nssg255
I2287626681
sg35
VPT1M29.3567145S
p990
sa(dp991
g68
I2133511419
sg32
VWeaponDrop
p992
sg210
I32
sg74
(lp993
I2758383128
asg35
VPT1M29.3577386S
p994
sg213
I14
sg214
VP0DT0H0M11.8667S
p995
sg69
(dp996
g71
VCLG LethuL HCS
p997
sg73
Nssa(dp998
g68
I4108759423
sg32
VWeaponDrop
p999
sg210
I53
sg74
(lp1000
I2758383128
asg35
VPT1M29.3587345S
p1001
sg213
I24
sg214
VP0DT0H0M38.0167S
p1002
sg69
(dp1003
g71
VCLG LethuL HCS
p1004
sg73
Nssa(dp1005
g68
I313138863
sg69
(dp1006
g71
VE6 bubu dubu
p1007
sg73
Nssg74
(lp1008
I1095363701
asg32
VWeaponPickup
p1009
sg35
VPT1M29.989722S
p1010
sa(dp1011
g68
I4096745987
sg69
(dp1012
g71
VE6 bubu dubu
p1013
sg73
Nssg74
(lp1014
I2758383128
asg32
VWeaponPickup
p1015
sg35
VPT1M29.989722S
p1016
sa(dp1017
g32
VPlayerSpawn
p1018
sg69
(dp1019
g71
VE6 bubu dubu
p1020
sg73
Nssg35
VPT1M29.989722S
p1021
sa(dp1022
g68
I313138863
sg69
(dp1023
g71
VCLG Frosty HCS
p1024
sg73
Nssg74
(lp1025
I1095363701
asg32
VWeaponPickup
p1026
sg35
VPT1M30.5397071S
p1027
sa(dp1028
g68
I4096745987
sg69
(dp1029
g71
VCLG Frosty HCS
p1030
sg73
Nssg74
(lp1031
I2758383128
asg32
VWeaponPickup
p1032
sg35
VPT1M30.5397071S
p1033
sa(dp1034
g32
VPlayerSpawn
p1035
sg69
(dp1036
g71
VCLG Frosty HCS
p1037
sg73
Nssg35
VPT1M30.5397071S
p1038
sa(dp1039
g38
I424645655
sg39
I00
sg40
I00
sg41
(dp1040
g71
VCLG Royal 2
p1041
sg73
Nssg45
(lp1042
I1327094800
asg47
I00
sg48
I01
sg49
I1
sg50
I0
sg51
I1
sg52
(dp1043
Vy
F15.1412716
sVx
F-2.8030029999999999
sVz
F2.0006813999999999
ssg54
(dp1044
Vy
F10.864427600000001
sVx
F0.58109206000000002
sVz
F1.3995032300000001
ssg56
I00
sg57
(dp1045
g71
VE6 Shooter
p1046
sg73
Nssg59
(lp1047
sg61
(lp1048
(dp1049
g71
VCLG Snake Bite
p1050
sg73
Nsa(dp1051
g71
VCLG LethuL HCS
p1052
sg73
Nsasg63
I01
sg35
VPT1M31.10567S
p1053
sg32
VDeath
p1054
sg66
I1
sa(dp1055
g32
VMedal
p1056
sg69
(dp1057
g71
VCLG Royal 2
p1058
sg73
Nssg255
I3261908037
sg35
VPT1M31.1076941S
p1059
sa(dp1060
g68
I313138863
sg32
VWeaponDrop
p1061
sg210
I14
sg74
(lp1062
I1095363701
asg35
VPT1M31.108691S
p1063
sg213
I11
sg214
VP0DT0H0M6.6500S
p1064
sg69
(dp1065
g71
VE6 Shooter
p1066
sg73
Nssa(dp1067
g68
I313138863
sg32
VWeaponDrop
p1068
sg210
I0
sg74
(lp1069
I1095363701
asg35
VPT1M31.108691S
p1070
sg213
I0
sg214
VP0DT0S
p1071
sg69
(dp1072
g71
VE6 Shooter
p1073
sg73
Nssa(dp1074
g68
I4096745987
sg32
VWeaponDrop
p1075
sg210
I0
sg74
(lp1076
I2758383128
asg35
VPT1M31.108691S
p1077
sg213
I0
sg214
VP0DT0H0M8.4833S
p1078
sg69
(dp1079
g71
VE6 Shooter
p1080
sg73
Nssa(dp1081
g68
I4096745987
sg32
VWeaponDrop
p1082
sg210
I0
sg74
(lp1083
I2758383128
asg35
VPT1M31.4716604S
p1084
sg213
I0
sg214
VP0DT0H0M0.3333S
p1085
sg69
(dp1086
g71
VE6 bubu dubu
p1087
sg73
Nssa(dp1088
g68
I4108759423
sg69
(dp1089
g71
VE6 bubu dubu
p1090
sg73
Nssg74
(lp1091
I2758383128
asg32
VWeaponPickup
p1092
sg35
VPT1M31.4716604S
p1093
sa(dp1094
g68
I313138863
sg69
(dp1095
g71
VE6 Huke HCS
p1096
sg73
Nssg74
(lp1097
I1095363701
asg32
VWeaponPickup
p1098
sg35
VPT1M33.5226118S
p1099
sa(dp1100
g68
I4096745987
sg69
(dp1101
g71
VE6 Huke HCS
p1102
sg73
Nssg74
(lp1103
I2758383128
asg32
VWeaponPickup
p1104
sg35
VPT1M33.5226118S
p1105
sa(dp1106
g32
VPlayerSpawn
p1107
sg69
(dp1108
g71
VE6 Huke HCS
p1109
sg73
Nssg35
VPT1M33.5226118S
p1110
sa(dp1111
g68
I313138863
sg32
VWeaponDrop
p1112
sg210
I0
sg74
(lp1113
I1095363701
asg35
VPT1M35.6545724S
p1114
sg213
I0
sg214
VP0DT0H0M0.9167S
p1115
sg69
(dp1116
g71
VE6 Cratos HCS
p1117
sg73
Nssa(dp1118
g68
I2133511419
sg69
(dp1119
g71
VE6 Cratos HCS
p1120
sg73
Nssg74
(lp1121
I2758383128
asg32
VWeaponPickup
p1122
sg35
VPT1M35.6545724S
p1123
sa(dp1124
g68
I313138863
sg69
(dp1125
g71
VCLG LethuL HCS
p1126
sg73
Nssg74
(lp1127
I1095363701
asg32
VWeaponPickup
p1128
sg35
VPT1M37.3725098S
p1129
sa(dp1130
g68
I4096745987
sg69
(dp1131
g71
VCLG LethuL HCS
p1132
sg73
Nssg74
(lp1133
I2758383128
asg32
VWeaponPickup
p1134
sg35
VPT1M37.3725098S
p1135
sa(dp1136
g32
VPlayerSpawn
p1137
sg69
(dp1138
g71
VCLG LethuL HCS
p1139
sg73
Nssg35
VPT1M37.3725098S
p1140
sa(dp1141
g68
I313138863
sg32
VWeaponDrop
p1142
sg210
I0
sg74
(lp1143
I1095363701
asg35
VPT1M38.0875168S
p1144
sg213
I0
sg214
VP0DT0H0M3.1000S
p1145
sg69
(dp1146
g71
VCLG Frosty HCS
p1147
sg73
Nssa(dp1148
g68
I424645655
sg69
(dp1149
g71
VCLG Frosty HCS
p1150
sg73
Nssg74
(lp1151
I1327094800
asg32
VWeaponPickup
p1152
sg35
VPT1M38.0875168S
p1153
sa(dp1154
g68
I313138863
sg69
(dp1155
g71
VE6 Shooter
p1156
sg73
Nssg74
(lp1157
I1095363701
asg32
VWeaponPickup
p1158
sg35
VPT1M39.1234665S
p1159
sa(dp1160
g68
I4096745987
sg69
(dp1161
g71
VE6 Shooter
p1162
sg73
Nssg74
(lp1163
I2758383128
asg32
VWeaponPickup
p1164
sg35
VPT1M39.1234665S
p1165
sa(dp1166
g32
VPlayerSpawn
p1167
sg69
(dp1168
g71
VE6 Shooter
p1169
sg73
Nssg35
VPT1M39.1234665S
p1170
sa(dp1171
g38
I4106030681
sg39
I00
sg40
I00
sg41
(dp1172
g71
VCLG LethuL HCS
p1173
sg73
Nssg45
(lp1174
sg47
I00
sg48
I01
sg49
I1
sg50
I0
sg51
I1
sg52
(dp1175
Vy
F-2.661686
sVx
F-11.23169
sVz
F-0.18606413899999999
ssg54
(dp1176
Vy
F-2.2279939999999998
sVx
F-1.261404
sVz
F-0.179488644
ssg56
I00
sg57
(dp1177
g71
VE6 bubu dubu
p1178
sg73
Nssg59
(lp1179
sg61
(lp1180
(dp1181
g71
VCLG Snake Bite
p1182
sg73
Nsasg63
I00
sg35
VPT1M40.7384225S
p1183
sg32
VDeath
p1184
sg66
I1
sa(dp1185
g68
I313138863
sg32
VWeaponDrop
p1186
sg210
I0
sg74
(lp1187
I1095363701
asg35
VPT1M40.7404473S
p1188
sg213
I0
sg214
VP0DT0H0M4.4667S
p1189
sg69
(dp1190
g71
VE6 bubu dubu
p1191
sg73
Nssa(dp1192
g68
I4108759423
sg32
VWeaponDrop
p1193
sg210
I5
sg74
(lp1194
I2758383128
asg35
VPT1M40.7404473S
p1195
sg213
I3
sg214
VP0DT0H0M5.9500S
p1196
sg69
(dp1197
g71
VE6 bubu dubu
p1198
sg73
Nssa(dp1199
g38
I424645655
sg39
I00
sg40
I00
sg41
(dp1200
g71
VCLG Frosty HCS
p1201
sg73
Nssg45
(lp1202
I1327094800
asg47
I00
sg48
I01
sg49
I1
sg50
I0
sg51
I1
sg52
(dp1203
Vy
F-11.025841700000001
sVx
F-14.2962618
sVz
F3.5371863800000001
ssg54
(dp1204
Vy
F-11.054505300000001
sVx
F-10.0424433
sVz
F4.1537027399999999
ssg56
I00
sg57
(dp1205
g71
VE6 Cratos HCS
p1206
sg73
Nssg59
(lp1207
sg61
(lp1208
(dp1209
g71
VCLG Royal 2
p1210
sg73
Nsasg63
I01
sg35
VPT1M44.0553379S
p1211
sg32
VDeath
p1212
sg66
I1
sa(dp1213
g32
VMedal
p1214
sg69
(dp1215
g71
VCLG Frosty HCS
p1216
sg73
Nssg255
I3261908037
sg35
VPT1M44.0563609S
p1217
sa(dp1218
g68
I2133511419
sg32
VWeaponDrop
p1219
sg210
I11
sg74
(lp1220
I2758383128
asg35
VPT1M44.0563609S
p1221
sg213
I3
sg214
VP0DT0H0M4.5000S
p1222
sg69
(dp1223
g71
VE6 Cratos HCS
p1224
sg73
Nssa(dp1225
g68
I4096745987
sg32
VWeaponDrop
p1226
sg210
I1
sg74
(lp1227
I2758383128
asg35
VPT1M44.0563609S
p1228
sg213
I0
sg214
VP0DT0H0M13.4500S
p1229
sg69
(dp1230
g71
VE6 Cratos HCS
p1231
sg73
Nssa(dp1232
g38
I424645655
sg39
I00
sg40
I00
sg41
(dp1233
g71
VCLG Royal 2
p1234
sg73
Nssg45
(lp1235
I1327094800
asg47
I00
sg48
I01
sg49
I1
sg50
I0
sg51
I1
sg52
(dp1236
Vy
F-8.42652
sVx
F-5.3061633099999996
sVz
F2.6823284599999999
ssg54
(dp1237
Vy
F-9.9592779999999994
sVx
F-6.1312532400000004
sVz
F2.04662371
ssg56
I00
sg57
(dp1238
g71
VE6 Huke HCS
p1239
sg73
Nssg59
(lp1240
sg61
(lp1241
(dp1242
g71
VCLG LethuL HCS
p1243
sg73
Nsasg63
I01
sg35
VPT1M47.7042637S
p1244
sg32
VDeath
p1245
sg66
I1
sa(dp1246
g32
VMedal
p1247
sg69
(dp1248
g71
VCLG Royal 2
p1249
sg73
Nssg255
I3261908037
sg35
VPT1M47.706266S
p1250
sa(dp1251
g68
I313138863
sg32
VWeaponDrop
p1252
sg210
I0
sg74
(lp1253
I1095363701
asg35
VPT1M47.706266S
p1254
sg213
I0
sg214
VP0DT0H0M2.2667S
p1255
sg69
(dp1256
g71
VE6 Huke HCS
p1257
sg73
Nssa(dp1258
g68
I4096745987
sg32
VWeaponDrop
p1259
sg210
I6
sg74
(lp1260
I2758383128
asg35
VPT1M47.706266S
p1261
sg213
I1
sg214
VP0DT0H0M11.9167S
p1262
sg69
(dp1263
g71
VE6 Huke HCS
p1264
sg73
Nssa(dp1265
g68
I313138863
sg69
(dp1266
g71
VE6 bubu dubu
p1267
sg73
Nssg74
(lp1268
I1095363701
asg32
VWeaponPickup
p1269
sg35
VPT1M48.7552431S
p1270
sa(dp1271
g68
I4096745987
sg69
(dp1272
g71
VE6 bubu dubu
p1273
sg73
Nssg74
(lp1274
I2758383128
asg32
VWeaponPickup
p1275
sg35
VPT1M48.7552431S
p1276
sa(dp1277
g32
VPlayerSpawn
p1278
sg69
(dp1279
g71
VE6 bubu dubu
p1280
sg73
Nssg35
VPT1M48.7552431S
p1281
sa(dp1282
g68
I313138863
sg69
(dp1283
g71
VE6 Cratos HCS
p1284
sg73
Nssg74
(lp1285
I1095363701
asg32
VWeaponPickup
p1286
sg35
VPT1M52.0711326S
p1287
sa(dp1288
g68
I4096745987
sg69
(dp1289
g71
VE6 Cratos HCS
p1290
sg73
Nssg74
(lp1291
I2758383128
asg32
VWeaponPickup
p1292
sg35
VPT1M52.0721571S
p1293
sa(dp1294
g32
VPlayerSpawn
p1295
sg69
(dp1296
g71
VE6 Cratos HCS
p1297
sg73
Nssg35
VPT1M52.0721571S
p1298
sa(dp1299
g68
I313138863
sg32
VWeaponDrop
p1300
sg210
I0
sg74
(lp1301
I1095363701
asg35
VPT1M52.1871302S
p1302
sg213
I0
sg214
VP0DT0H0M0.8500S
p1303
sg69
(dp1304
g71
VE6 bubu dubu
p1305
sg73
Nssa(dp1306
g68
I2133511419
sg69
(dp1307
g71
VE6 bubu dubu
p1308
sg73
Nssg74
(lp1309
I2758383128
asg32
VWeaponPickup
p1310
sg35
VPT1M52.1871302S
p1311
sa(dp1312
g68
I4096745987
sg32
VWeaponDrop
p1313
sg210
I0
sg74
(lp1314
I2758383128
asg35
VPT1M53.2701019S
p1315
sg213
I0
sg214
VP0DT0H0M2.7500S
p1316
sg69
(dp1317
g71
VE6 bubu dubu
p1318
sg73
Nssa(dp1319
g68
I4108759423
sg69
(dp1320
g71
VE6 bubu dubu
p1321
sg73
Nssg74
(lp1322
I2758383128
asg32
VWeaponPickup
p1323
sg35
VPT1M53.2701019S
p1324
sa(dp1325
g68
I313138863
sg69
(dp1326
g71
VE6 Huke HCS
p1327
sg73
Nssg74
(lp1328
I1095363701
asg32
VWeaponPickup
p1329
sg35
VPT1M55.7210399S
p1330
sa(dp1331
g68
I4096745987
sg69
(dp1332
g71
VE6 Huke HCS
p1333
sg73
Nssg74
(lp1334
I2758383128
asg32
VWeaponPickup
p1335
sg35
VPT1M55.7220655S
p1336
sa(dp1337
g32
VPlayerSpawn
p1338
sg69
(dp1339
g71
VE6 Huke HCS
p1340
sg73
Nssg35
VPT1M55.7220655S
p1341
sa(dp1342
g38
I4108759423
sg39
I00
sg40
I00
sg41
(dp1343
g71
VE6 bubu dubu
p1344
sg73
Nssg45
(lp1345
I2758383128
asg47
I00
sg48
I00
sg49
I2
sg50
I0
sg51
I0
sg52
(dp1346
Vy
F14.0576639
sVx
F2.3143327199999999
sVz
F2.2151315199999999
ssg54
(dp1347
Vy
F7.7619714699999998
sVx
F6.2044579999999998
sVz
F3.1515648399999998
ssg56
I00
sg57
(dp1348
g43
g44
ssg59
(lp1349
sg61
(lp1350
sg63
I00
sg35
VPT2M4.869805S
p1351
sg32
VDeath
p1352
sg66
I1
sa(dp1353
g38
I424645655
sg39
I00
sg40
I00
sg41
(dp1354
g71
VCLG Royal 2
p1355
sg73
Nssg45
(lp1356
I1327094800
asg47
I00
sg48
I01
sg49
I1
sg50
I0
sg51
I1
sg52
(dp1357
Vy
F6.9006557500000003
sVx
F1.9742291000000001
sVz
F0.64223330000000001
ssg54
(dp1358
Vy
F13.827781699999999
sVx
F1.78187311
sVz
F2.3644247100000002
ssg56
I00
sg57
(dp1359
g71
VE6 bubu dubu
p1360
sg73
Nssg59
(lp1361
sg61
(lp1362
(dp1363
g71
VCLG Snake Bite
p1364
sg73
Nsasg63
I01
sg35
VPT2M5.1367984S
p1365
sg32
VDeath
p1366
sg66
I1
sa(dp1367
g32
VMedal
p1368
sg69
(dp1369
g71
VCLG Royal 2
p1370
sg73
Nssg255
I3261908037
sg35
VPT2M5.1377982S
p1371
sa(dp1372
g68
I2133511419
sg32
VWeaponDrop
p1373
sg210
I0
sg74
(lp1374
I2758383128
asg35
VPT2M5.1388217S
p1375
sg213
I0
sg214
VP0DT0H0M0.9167S
p1376
sg69
(dp1377
g71
VE6 bubu dubu
p1378
sg73
Nssa(dp1379
g68
I4108759423
sg32
VWeaponDrop
p1380
sg210
I8
sg74
(lp1381
I2758383128
asg35
VPT2M5.1388217S
p1382
sg213
I3
sg214
VP0DT0H0M11.8667S
p1383
sg69
(dp1384
g71
VE6 bubu dubu
p1385
sg73
Nssa(dp1386
g38
I424645655
sg39
I00
sg40
I00
sg41
(dp1387
g71
VCLG Royal 2
p1388
sg73
Nssg45
(lp1389
I1327094800
asg47
I00
sg48
I01
sg49
I1
sg50
I0
sg51
I1
sg52
(dp1390
Vy
F7.3706940000000003
sVx
F3.0415012799999999
sVz
F1.0435314200000001
ssg54
(dp1391
Vy
F11.9138594
sVx
F2.07663631
sVz
F1.3835478999999999
ssg56
I00
sg57
(dp1392
g71
VE6 Cratos HCS
p1393
sg73
Nssg59
(lp1394
sg61
(lp1395
sg63
I01
sg35
VPT2M6.9037542S
p1396
sg32
VDeath
p1397
sg66
I1
sa(dp1398
g32
VMedal
p1399
sg69
(dp1400
g71
VCLG Royal 2
p1401
sg73
Nssg255
I3261908037
sg35
VPT2M6.9037542S
p1402
sa(dp1403
g32
VMedal
p1404
sg69
(dp1405
g71
VCLG Royal 2
p1406
sg73
Nssg255
I2078758684
sg35
VPT2M6.9037542S
p1407
sa(dp1408
g68
I313138863
sg32
VWeaponDrop
p1409
sg210
I7
sg74
(lp1410
I1095363701
asg35
VPT2M6.9057529S
p1411
sg213
I7
sg214
VP0DT0H0M3.6833S
p1412
sg69
(dp1413
g71
VE6 Cratos HCS
p1414
sg73
Nssa(dp1415
g68
I4096745987
sg32
VWeaponDrop
p1416
sg210
I6
sg74
(lp1417
I2758383128
asg35
VPT2M6.9057529S
p1418
sg213
I2
sg214
VP0DT0H0M11.1500S
p1419
sg69
(dp1420
g71
VE6 Cratos HCS
p1421
sg73
Nssa(dp1422
g38
I424645655
sg39
I00
sg40
I00
sg41
(dp1423
g71
VCLG Frosty HCS
p1424
sg73
Nssg45
(lp1425
I1327094800
asg47
I00
sg48
I01
sg49
I1
sg50
I0
sg51
I1
sg52
(dp1426
Vy
F4.8498387300000001
sVx
F-4.9262523700000003
sVz
F4.2325305899999996
ssg54
(dp1427
Vy
F11.474694299999999
sVx
F-5.0938910000000002
sVz
F2.0006813999999999
ssg56
I00
sg57
(dp1428
g71
VE6 Huke HCS
p1429
sg73
Nssg59
(lp1430
sg61
(lp1431
(dp1432
g71
VCLG LethuL HCS
p1433
sg73
Nsa(dp1434
g71
VCLG Royal 2
p1435
sg73
Nsasg63
I01
sg35
VPT2M7.7367316S
p1436
sg32
VDeath
p1437
sg66
I1
sa(dp1438
g32
VMedal
p1439
sg69
(dp1440
g71
VCLG Frosty HCS
p1441
sg73
Nssg255
I3261908037
sg35
VPT2M7.7387518S
p1442
sa(dp1443
g68
I313138863
sg32
VWeaponDrop
p1444
sg210
I0
sg74
(lp1445
I1095363701
asg35
VPT2M7.7387518S
p1446
sg213
I0
sg214
VP0DT0H0M0.7333S
p1447
sg69
(dp1448
g71
VE6 Huke HCS
p1449
sg73
Nssa(dp1450
g68
I4096745987
sg32
VWeaponDrop
p1451
sg210
I3
sg74
(lp1452
I2758383128
asg35
VPT2M7.7387518S
p1453
sg213
I1
sg214
VP0DT0H0M11.2833S
p1454
sg69
(dp1455
g71
VE6 Huke HCS
p1456
sg73
Nssa(dp1457
g38
I4096745987
sg39
I00
sg40
I00
sg41
(dp1458
g71
VE6 Shooter
p1459
sg73
Nssg45
(lp1460
I2758383128
asg47
I00
sg48
I01
sg49
I1
sg50
I0
sg51
I1
sg52
(dp1461
Vy
F14.046318100000001
sVx
F-8.0013030000000001
sVz
F2.8378152800000001
ssg54
(dp1462
Vy
F13.0836554
sVx
F3.98233557
sVz
F3.2796485400000002
ssg56
I00
sg57
(dp1463
g71
VCLG Snake Bite
p1464
sg73
Nssg59
(lp1465
sg61
(lp1466
sg63
I01
sg35
VPT2M10.4866613S
p1467
sg32
VDeath
p1468
sg66
I1
sa(dp1469
g32
VImpulse
p1470
sg69
(dp1471
g71
VE6 Shooter
p1472
sg73
Nssg293
I3174430457
sg35
VPT2M10.4876857S
p1473
sa(dp1474
g32
VMedal
p1475
sg69
(dp1476
g71
VE6 Shooter
p1477
sg73
Nssg255
I3653057799
sg35
VPT2M10.4886884S
p1478
sa(dp1479
g68
I313138863
sg32
VWeaponDrop
p1480
sg210
I25
sg74
(lp1481
I1095363701
asg35
VPT2M10.4886884S
p1482
sg213
I12
sg214
VP0DT0H0M7.6667S
p1483
sg69
(dp1484
g71
VCLG Snake Bite
p1485
sg73
Nssa(dp1486
g68
I4096745987
sg32
VWeaponDrop
p1487
sg210
I23
sg74
(lp1488
I2758383128
asg35
VPT2M10.4886884S
p1489
sg213
I14
sg214
VP0DT0H0M47.2333S
p1490
sg69
(dp1491
g71
VCLG Snake Bite
p1492
sg73
Nssa(dp1493
g38
I424645655
sg39
I00
sg40
I00
sg41
(dp1494
g71
VCLG Frosty HCS
p1495
sg73
Nssg45
(lp1496
I1327094800
asg47
I00
sg48
I01
sg49
I1
sg50
I0
sg51
I1
sg52
(dp1497
Vy
F9.7001480000000004
sVx
F-5.024616
sVz
F2.1644692399999998
ssg54
(dp1498
Vy
F13.822950000000001
sVx
F-5.5629439999999999
sVz
F2.4975063799999999
ssg56
I00
sg57
(dp1499
g71
VE6 Shooter
p1500
sg73
Nssg59
(lp1501
sg61
(lp1502
(dp1503
g71
VCLG Snake Bite
p1504
sg73
Nsasg63
I01
sg35
VPT2M11.1726439S
p1505
sg32
VDeath
p1506
sg66
I1
sa(dp1507
g32
VMedal
p1508
sg69
(dp1509
g71
VCLG Frosty HCS
p1510
sg73
Nssg255
I3261908037
sg35
VPT2M11.1746697S
p1511
sa(dp1512
g32
VMedal
p1513
sg69
(dp1514
g71
VCLG Frosty HCS
p1515
sg73
Nssg255
I2078758684
sg35
VPT2M11.1746697S
p1516
sa(dp1517
g68
I313138863
sg32
VWeaponDrop
p1518
sg210
I0
sg74
(lp1519
I1095363701
asg35
VPT2M11.1746697S
p1520
sg213
I0
sg214
VP0DT0H0M1.5167S
p1521
sg69
(dp1522
g71
VE6 Shooter
p1523
sg73
Nssa(dp1524
g68
I4096745987
sg32
VWeaponDrop
p1525
sg210
I10
sg74
(lp1526
I2758383128
asg35
VPT2M11.1746697S
p1527
sg213
I8
sg214
VP0DT0H0M30.5333S
p1528
sg69
(dp1529
g71
VE6 Shooter
p1530
sg73
Nssa(dp1531
g68
I313138863
sg69
(dp1532
g71
VE6 bubu dubu
p1533
sg73
Nssg74
(lp1534
I1095363701
asg32
VWeaponPickup
p1535
sg35
VPT2M13.1536169S
p1536
sa(dp1537
g68
I4096745987
sg69
(dp1538
g71
VE6 bubu dubu
p1539
sg73
Nssg74
(lp1540
I2758383128
asg32
VWeaponPickup
p1541
sg35
VPT2M13.1536169S
p1542
sa(dp1543
g32
VPlayerSpawn
p1544
sg69
(dp1545
g71
VE6 bubu dubu
p1546
sg73
Nssg35
VPT2M13.1546187S
p1547
sa(dp1548
g68
I313138863
sg69
(dp1549
g71
VE6 Cratos HCS
p1550
sg73
Nssg74
(lp1551
I1095363701
asg32
VWeaponPickup
p1552
sg35
VPT2M14.9205489S
p1553
sa(dp1554
g68
I4096745987
sg69
(dp1555
g71
VE6 Cratos HCS
p1556
sg73
Nssg74
(lp1557
I2758383128
asg32
VWeaponPickup
p1558
sg35
VPT2M14.9205489S
p1559
sa(dp1560
g32
VPlayerSpawn
p1561
sg69
(dp1562
g71
VE6 Cratos HCS
p1563
sg73
Nssg35
VPT2M14.9205489S
p1564
sa(dp1565
g68
I313138863
sg69
(dp1566
g71
VE6 Huke HCS
p1567
sg73
Nssg74
(lp1568
I1095363701
asg32
VWeaponPickup
p1569
sg35
VPT2M15.7535277S
p1570
sa(dp1571
g68
I4096745987
sg69
(dp1572
g71
VE6 Huke HCS
p1573
sg73
Nssg74
(lp1574
I2758383128
asg32
VWeaponPickup
p1575
sg35
VPT2M15.7535277S
p1576
sa(dp1577
g32
VPlayerSpawn
p1578
sg69
(dp1579
g71
VE6 Huke HCS
p1580
sg73
Nssg35
VPT2M15.7535277S
p1581
sa(dp1582
g68
I4096745987
sg32
VWeaponDrop
p1583
sg210
I1
sg74
(lp1584
I2758383128
asg35
VPT2M17.8184974S
p1585
sg213
I0
sg214
VP0DT0H0M6.4667S
p1586
sg69
(dp1587
g71
VCLG Frosty HCS
p1588
sg73
Nssa(dp1589
g68
I524558978
sg69
(dp1590
g71
VCLG Frosty HCS
p1591
sg73
Nssg74
(lp1592
I2758383128
asg32
VWeaponPickup
p1593
sg35
VPT2M17.8184974S
p1594
sa(dp1595
g68
I313138863
sg69
(dp1596
g71
VCLG Snake Bite
p1597
sg73
Nssg74
(lp1598
I1095363701
asg32
VWeaponPickup
p1599
sg35
VPT2M18.5034766S
p1600
sa(dp1601
g68
I4096745987
sg69
(dp1602
g71
VCLG Snake Bite
p1603
sg73
Nssg74
(lp1604
I2758383128
asg32
VWeaponPickup
p1605
sg35
VPT2M18.5034766S
p1606
sa(dp1607
g32
VPlayerSpawn
p1608
sg69
(dp1609
g71
VCLG Snake Bite
p1610
sg73
Nssg35
VPT2M18.5034766S
p1611
sa(dp1612
g68
I313138863
sg69
(dp1613
g71
VE6 Shooter
p1614
sg73
Nssg74
(lp1615
I1095363701
asg32
VWeaponPickup
p1616
sg35
VPT2M19.1864411S
p1617
sa(dp1618
g68
I4096745987
sg69
(dp1619
g71
VE6 Shooter
p1620
sg73
Nssg74
(lp1621
I2758383128
asg32
VWeaponPickup
p1622
sg35
VPT2M19.1864411S
p1623
sa(dp1624
g32
VPlayerSpawn
p1625
sg69
(dp1626
g71
VE6 Shooter
p1627
sg73
Nssg35
VPT2M19.1864411S
p1628
sa(dp1629
g68
I313138863
sg32
VWeaponDrop
p1630
sg210
I0
sg74
(lp1631
I1095363701
asg35
VPT2M20.584411S
p1632
sg213
I0
sg214
VP0DT0H0M1.1500S
p1633
sg69
(dp1634
g71
VCLG LethuL HCS
p1635
sg73
Nssa(dp1636
g68
I4054937266
sg69
(dp1637
g71
VCLG LethuL HCS
p1638
sg73
Nssg74
(lp1639
I2758383128
asg32
VWeaponPickupPad
p1640
sg35
VPT2M20.5854271S
p1641
sa(dp1642
g68
I4054937266
sg69
(dp1643
g71
VCLG LethuL HCS
p1644
sg73
Nssg74
(lp1645
I2758383128
asg32
VWeaponPickup
p1646
sg35
VPT2M20.5854271S
p1647
sa(dp1648
g68
I4096745987
sg32
VWeaponDrop
p1649
sg210
I0
sg74
(lp1650
I2758383128
asg35
VPT2M20.818397S
p1651
sg213
I0
sg214
VP0DT0H0M7.9333S
p1652
sg69
(dp1653
g71
VCLG Royal 2
p1654
sg73
Nssa(dp1655
g68
I2133511419
sg69
(dp1656
g71
VCLG Royal 2
p1657
sg73
Nssg74
(lp1658
I2758383128
asg32
VWeaponPickup
p1659
sg35
VPT2M20.818397S
p1660
sa(dp1661
g38
I313138863
sg39
I00
sg40
I00
sg41
(dp1662
g71
VE6 Cratos HCS
p1663
sg73
Nssg45
(lp1664
I1095363701
asg47
I00
sg48
I01
sg49
I1
sg50
I0
sg51
I1
sg52
(dp1665
Vy
F-3.7460680000000002
sVx
F5.7512259999999999
sVz
F0.99358975900000002
ssg54
(dp1666
Vy
F-0.96393203699999996
sVx
F4.5526150000000003
sVz
F0.5391956
ssg56
I00
sg57
(dp1667
g71
VCLG Royal 2
p1668
sg73
Nssg59
(lp1669
sg61
(lp1670
sg63
I00
sg35
VPT2M23.3523321S
p1671
sg32
VDeath
p1672
sg66
I1
sa(dp1673
g68
I2133511419
sg32
VWeaponDrop
p1674
sg210
I11
sg74
(lp1675
I2758383128
asg35
VPT2M23.3543569S
p1676
sg213
I3
sg214
VP0DT0H0M2.5333S
p1677
sg69
(dp1678
g71
VCLG Royal 2
p1679
sg73
Nssa(dp1680
g68
I424645655
sg32
VWeaponDrop
p1681
sg210
I93
sg74
(lp1682
I1327094800
asg35
VPT2M23.3543569S
p1683
sg213
I35
sg214
VP0DT0H1M13.0167S
p1684
sg69
(dp1685
g71
VCLG Royal 2
p1686
sg73
Nssa(dp1687
g38
I3190813201
sg39
I00
sg40
I00
sg41
(dp1688
g71
VCLG Royal 2
p1689
sg73
Nssg45
(lp1690
sg47
I00
sg48
I01
sg49
I1
sg50
I0
sg51
I1
sg52
(dp1691
Vy
F-0.59380650000000001
sVx
F4.7835555100000002
sVz
F0.45837202700000002
ssg54
(dp1692
Vy
F-4.1721779999999997
sVx
F5.3688099999999999
sVz
F1.0438883299999999
ssg56
I00
sg57
(dp1693
g71
VE6 Cratos HCS
p1694
sg73
Nssg59
(lp1695
sg61
(lp1696
sg63
I00
sg35
VPT2M23.7353215S
p1697
sg32
VDeath
p1698
sg66
I1
sa(dp1699
g32
VMedal
p1700
sg69
(dp1701
g71
VCLG Royal 2
p1702
sg73
Nssg255
I285057226
sg35
VPT2M23.73634S
p1703
sa(dp1704
g68
I313138863
sg32
VWeaponDrop
p1705
sg210
I23
sg74
(lp1706
I1095363701
asg35
VPT2M23.73634S
p1707
sg213
I15
sg214
VP0DT0H0M4.4833S
p1708
sg69
(dp1709
g71
VE6 Cratos HCS
p1710
sg73
Nssa(dp1711
g68
I4096745987
sg32
VWeaponDrop
p1712
sg210
I0
sg74
(lp1713
I2758383128
asg35
VPT2M23.73634S
p1714
sg213
I0
sg214
VP0DT0H0M4.3333S
p1715
sg69
(dp1716
g71
VE6 Cratos HCS
p1717
sg73
Nssa(dp1718
g38
I4096745987
sg39
I00
sg40
I00
sg41
(dp1719
g71
VCLG LethuL HCS
p1720
sg73
Nssg45
(lp1721
I2758383128
asg47
I00
sg48
I01
sg49
I1
sg50
I0
sg51
I1
sg52
(dp1722
Vy
F-5.4411926299999998
sVx
F-12.559229999999999
sVz
F-0.093726605199999993
ssg54
(dp1723
Vy
F-5.8715643899999996
sVx
F-5.255738
sVz
F-0.11031299999999999
ssg56
I00
sg57
(dp1724
g71
VE6 Shooter
p1725
sg73
Nssg59
(lp1726
sg61
(lp1727
(dp1728
g71
VCLG Snake Bite
p1729
sg73
Nsa(dp1730
g71
VCLG Frosty HCS
p1731
sg73
Nsasg63
I00
sg35
VPT2M30.7521427S
p1732
sg32
VDeath
p1733
sg66
I1
sa(dp1734
g32
VMedal
p1735
sg69
(dp1736
g71
VCLG LethuL HCS
p1737
sg73
Nssg255
I2838259753
sg35
VPT2M30.7521427S
p1738
sa(dp1739
g32
VImpulse
p1740
sg69
(dp1741
g71
VCLG LethuL HCS
p1742
sg73
Nssg293
I2556889090
sg35
VPT2M30.7521427S
p1743
sa(dp1744
g68
I4096745987
sg32
VWeaponDrop
p1745
sg210
I7
sg74
(lp1746
I2758383128
asg35
VPT2M30.7531644S
p1747
sg213
I4
sg214
VP0DT0H0M10.2333S
p1748
sg69
(dp1749
g71
VE6 Shooter
p1750
sg73
Nssa(dp1751
g68
I313138863
sg32
VWeaponDrop
p1752
sg210
I0
sg74
(lp1753
I1095363701
asg35
VPT2M30.7541613S
p1754
sg213
I0
sg214
VP0DT0H0M1.3333S
p1755
sg69
(dp1756
g71
VE6 Shooter
p1757
sg73
Nssa(dp1758
g38
I424645655
sg39
I00
sg40
I00
sg41
(dp1759
g71
VCLG Frosty HCS
p1760
sg73
Nssg45
(lp1761
I1327094800
asg47
I00
sg48
I01
sg49
I1
sg50
I0
sg51
I1
sg52
(dp1762
Vy
F-1.9743387699999999
sVx
F-0.14147209999999999
sVz
F-0.180191725
ssg54
(dp1763
Vy
F-5.0318440000000004
sVx
F-2.1886510000000001
sVz
F-0.174308449
ssg56
I00
sg57
(dp1764
g71
VE6 Huke HCS
p1765
sg73
Nssg59
(lp1766
sg61
(lp1767
(dp1768
g71
VCLG Snake Bite
p1769
sg73
Nsa(dp1770
g71
VCLG LethuL HCS
p1771
sg73
Nsasg63
I01
sg35
VPT2M30.7871417S
p1772
sg32
VDeath
p1773
sg66
I1
sa(dp1774
g32
VMedal
p1775
sg69
(dp1776
g71
VCLG Frosty HCS
p1777
sg73
Nssg255
I3261908037
sg35
VPT2M30.7901787S
p1778
sa(dp1779
g68
I313138863
sg32
VWeaponDrop
p1780
sg210
I0
sg74
(lp1781
I1095363701
asg35
VPT2M30.7931435S
p1782
sg213
I0
sg214
VP0DT0H0M0.5833S
p1783
sg69
(dp1784
g71
VE6 Huke HCS
p1785
sg73
Nssa(dp1786
g68
I4096745987
sg32
VWeaponDrop
p1787
sg210
I6
sg74
(lp1788
I2758383128
asg35
VPT2M30.7931435S
p1789
sg213
I1
sg214
VP0DT0H0M14.4500S
p1790
sg69
(dp1791
g71
VE6 Huke HCS
p1792
sg73
Nssa(dp1793
g68
I313138863
sg69
(dp1794
g71
VCLG Royal 2
p1795
sg73
Nssg74
(lp1796
I1095363701
asg32
VWeaponPickup
p1797
sg35
VPT2M31.369127S
p1798
sa(dp1799
g68
I4096745987
sg69
(dp1800
g71
VCLG Royal 2
p1801
sg73
Nssg74
(lp1802
I2758383128
asg32
VWeaponPickup
p1803
sg35
VPT2M31.369127S
p1804
sa(dp1805
g32
VPlayerSpawn
p1806
sg69
(dp1807
g71
VCLG Royal 2
p1808
sg73
Nssg35
VPT2M31.369127S
p1809
sa(dp1810
g68
I313138863
sg69
(dp1811
g71
VE6 Cratos HCS
p1812
sg73
Nssg74
(lp1813
I1095363701
asg32
VWeaponPickup
p1814
sg35
VPT2M31.7521362S
p1815
sa(dp1816
g68
I4096745987
sg69
(dp1817
g71
VE6 Cratos HCS
p1818
sg73
Nssg74
(lp1819
I2758383128
asg32
VWeaponPickup
p1820
sg35
VPT2M31.7521362S
p1821
sa(dp1822
g32
VPlayerSpawn
p1823
sg69
(dp1824
g71
VE6 Cratos HCS
p1825
sg73
Nssg35
VPT2M31.7521362S
p1826
sa(dp1827
g68
I2492868984
sg69
(dp1828
g71
VCLG Snake Bite
p1829
sg73
Nssg74
(lp1830
I2758383128
asg32
VWeaponPickup
p1831
sg35
VPT2M33.8850629S
p1832
sa(dp1833
g68
I2492868984
sg32
VWeaponDrop
p1834
sg210
I0
sg74
(lp1835
I2758383128
asg35
VPT2M35.0420333S
p1836
sg213
I0
sg214
VP0DT0H0M1.0000S
p1837
sg69
(dp1838
g71
VCLG Snake Bite
p1839
sg73
Nssa(dp1840
g68
I313138863
sg69
(dp1841
g71
VE6 Shooter
p1842
sg73
Nssg74
(lp1843
I1095363701
asg32
VWeaponPickup
p1844
sg35
VPT2M38.7679372S
p1845
sa(dp1846
g68
I4096745987
sg69
(dp1847
g71
VE6 Shooter
p1848
sg73
Nssg74
(lp1849
I2758383128
asg32
VWeaponPickup
p1850
sg35
VPT2M38.7689591S
p1851
sa(dp1852
g32
VPlayerSpawn
p1853
sg69
(dp1854
g71
VE6 Shooter
p1855
sg73
Nssg35
VPT2M38.7689591S
p1856
sa(dp1857
g68
I313138863
sg69
(dp1858
g71
VE6 Huke HCS
p1859
sg73
Nssg74
(lp1860
I1095363701
asg32
VWeaponPickup
p1861
sg35
VPT2M38.8019368S
p1862
sa(dp1863
g68
I4096745987
sg69
(dp1864
g71
VE6 Huke HCS
p1865
sg73
Nssg74
(lp1866
I2758383128
asg32
VWeaponPickup
p1867
sg35
VPT2M38.8019368S
p1868
sa(dp1869
g32
VPlayerSpawn
p1870
sg69
(dp1871
g71
VE6 Huke HCS
p1872
sg73
Nssg35
VPT2M38.8019368S
p1873
sa(dp1874
g38
I4096745987
sg39
I00
sg40
I00
sg41
(dp1875
g71
VE6 Cratos HCS
p1876
sg73
Nssg45
(lp1877
I2758383128
asg47
I00
sg48
I01
sg49
I1
sg50
I0
sg51
I1
sg52
(dp1878
Vy
F-12.2366066
sVx
F3.575393
sVz
F2.6178138299999998
ssg54
(dp1879
Vy
F-12.6307411
sVx
F-10.922549999999999
sVz
F2.3883805300000001
ssg56
I00
sg57
(dp1880
g71
VCLG LethuL HCS
p1881
sg73
Nssg59
(lp1882
sg61
(lp1883
sg63
I00
sg35
VPT2M40.0850224S
p1884
sg32
VDeath
p1885
sg66
I1
sa(dp1886
g68
I4054937266
sg32
VWeaponDrop
p1887
sg210
I12
sg74
(lp1888
I2758383128
asg35
VPT2M40.0850224S
p1889
sg213
I4
sg214
VP0DT0H0M10.3833S
p1890
sg69
(dp1891
g71
VCLG LethuL HCS
p1892
sg73
Nssa(dp1893
g68
I4096745987
sg32
VWeaponDrop
p1894
sg210
I21
sg74
(lp1895
I2758383128
asg35
VPT2M40.0850224S
p1896
sg213
I16
sg214
VP0DT0H0M51.1833S
p1897
sg69
(dp1898
g71
VCLG LethuL HCS
p1899
sg73
Nssa(dp1900
g38
I4096745987
sg39
I00
sg40
I00
sg41
(dp1901
g71
VCLG Royal 2
p1902
sg73
Nssg45
(lp1903
I2758383128
asg47
I00
sg48
I01
sg49
I1
sg50
I0
sg51
I1
sg52
(dp1904
Vy
F0.97046679999999996
sVx
F-13.464262
sVz
F4.1303770000000002
ssg54
(dp1905
Vy
F-1.4474523100000001
sVx
F5.6153292700000002
sVz
F3.1848619999999999
ssg56
I00
sg57
(dp1906
g71
VE6 bubu dubu
p1907
sg73
Nssg59
(lp1908
sg61
(lp1909
(dp1910
g71
VCLG Frosty HCS
p1911
sg73
Nsasg63
I01
sg35
VPT2M40.4508957S
p1912
sg32
VDeath
p1913
sg66
I1
sa(dp1914
g32
VMedal
p1915
sg69
(dp1916
g71
VCLG Frosty HCS
p1917
sg73
Nssg255
I2366628262
sg35
VPT2M40.451894S
p1918
sa(dp1919
g32
VMedal
p1920
sg69
(dp1921
g71
VCLG Royal 2
p1922
sg73
Nssg255
I3261908037
sg35
VPT2M40.4528951S
p1923
sa(dp1924
g68
I313138863
sg32
VWeaponDrop
p1925
sg210
I8
sg74
(lp1926
I1095363701
asg35
VPT2M40.4539059S
p1927
sg213
I1
sg214
VP0DT0H0M8.4500S
p1928
sg69
(dp1929
g71
VE6 bubu dubu
p1930
sg73
Nssa(dp1931
g68
I4096745987
sg32
VWeaponDrop
p1932
sg210
I3
sg74
(lp1933
I2758383128
asg35
VPT2M40.4539059S
p1934
sg213
I1
sg214
VP0DT0H0M18.8500S
p1935
sg69
(dp1936
g71
VE6 bubu dubu
p1937
sg73
Nssa(dp1938
g68
I313138863
sg32
VWeaponDrop
p1939
sg210
I0
sg74
(lp1940
I1095363701
asg35
VPT2M41.7328639S
p1941
sg213
I0
sg214
VP0DT0H0M1.7167S
p1942
sg69
(dp1943
g71
VE6 Huke HCS
p1944
sg73
Nssa(dp1945
g68
I2133511419
sg69
(dp1946
g71
VE6 Huke HCS
p1947
sg73
Nssg74
(lp1948
I2758383128
asg32
VWeaponPickup
p1949
sg35
VPT2M41.7338615S
p1950
sa(dp1951
g38
I4096745987
sg39
I00
sg40
I00
sg41
(dp1952
g71
VCLG Royal 2
p1953
sg73
Nssg45
(lp1954
I2758383128
asg47
I00
sg48
I01
sg49
I1
sg50
I0
sg51
I1
sg52
(dp1955
Vy
F0.96926040000000002
sVx
F-8.6334250000000008
sVz
F4.1746650000000001
ssg54
(dp1956
Vy
F1.22560632
sVx
F8.2164680000000008
sVz
F3.1617030000000002
ssg56
I00
sg57
(dp1957
g71
VE6 Cratos HCS
p1958
sg73
Nssg59
(lp1959
sg61
(lp1960
(dp1961
g71
VCLG LethuL HCS
p1962
sg73
Nsasg63
I01
sg35
VPT2M43.817808S
p1963
sg32
VDeath
p1964
sg66
I1
sa(dp1965
g32
VMedal
p1966
sg69
(dp1967
g71
VCLG Royal 2
p1968
sg73
Nssg255
I3261908037
sg35
VPT2M43.8188356S
p1969
sa(dp1970
g32
VMedal
p1971
sg69
(dp1972
g71
VCLG Royal 2
p1973
sg73
Nssg255
I2078758684
sg35
VPT2M43.8188356S
p1974
sa(dp1975
g68
I4096745987
sg32
VWeaponDrop
p1976
sg210
I5
sg74
(lp1977
I2758383128
asg35
VPT2M43.8188356S
p1978
sg213
I4
sg214
VP0DT0H0M11.3667S
p1979
sg69
(dp1980
g71
VE6 Cratos HCS
p1981
sg73
Nssa(dp1982
g68
I313138863
sg32
VWeaponDrop
p1983
sg210
I0
sg74
(lp1984
I1095363701
asg35
VPT2M43.8198201S
p1985
sg213
I0
sg214
VP0DT0H0M0.7000S
p1986
sg69
(dp1987
g71
VE6 Cratos HCS
p1988
sg73
Nssa(dp1989
g68
I313138863
sg69
(dp1990
g71
VCLG LethuL HCS
p1991
sg73
Nssg74
(lp1992
I1095363701
asg32
VWeaponPickup
p1993
sg35
VPT2M48.1006982S
p1994
sa(dp1995
g68
I4096745987
sg69
(dp1996
g71
VCLG LethuL HCS
p1997
sg73
Nssg74
(lp1998
I2758383128
asg32
VWeaponPickup
p1999
sg35
VPT2M48.101703S
p2000
sa(dp2001
g32
VPlayerSpawn
p2002
sg69
(dp2003
g71
VCLG LethuL HCS
p2004
sg73
Nssg35
VPT2M48.101703S
p2005
sa(dp2006
g68
I313138863
sg69
(dp2007
g71
VE6 bubu dubu
p2008
sg73
Nssg74
(lp2009
I1095363701
asg32
VWeaponPickup
p2010
sg35
VPT2M48.4677122S
p2011
sa(dp2012
g68
I4096745987
sg69
(dp2013
g71
VE6 bubu dubu
p2014
sg73
Nssg74
(lp2015
I2758383128
asg32
VWeaponPickup
p2016
sg35
VPT2M48.4677122S
p2017
sa(dp2018
g32
VPlayerSpawn
p2019
sg69
(dp2020
g71
VE6 bubu dubu
p2021
sg73
Nssg35
VPT2M48.4677122S
p2022
sa(dp2023
g38
I4096745987
sg39
I00
sg40
I00
sg41
(dp2024
g71
VCLG Snake Bite
p2025
sg73
Nssg45
(lp2026
I2758383128
asg47
I00
sg48
I01
sg49
I1
sg50
I0
sg51
I1
sg52
(dp2027
Vy
F1.1044309999999999
sVx
F8.103529
sVz
F3.8423585899999999
ssg54
(dp2028
Vy
F12.154582
sVx
F3.120771
sVz
F2.4854111699999999
ssg56
I00
sg57
(dp2029
g71
VE6 Shooter
p2030
sg73
Nssg59
(lp2031
sg61
(lp2032
(dp2033
g71
VCLG Royal 2
p2034
sg73
Nsasg63
I01
sg35
VPT2M49.6506584S
p2035
sg32
VDeath
p2036
sg66
I1
sa(dp2037
g32
VMedal
p2038
sg69
(dp2039
g71
VCLG Snake Bite
p2040
sg73
Nssg255
I3261908037
sg35
VPT2M49.6516813S
p2041
sa(dp2042
g68
I313138863
sg32
VWeaponDrop
p2043
sg210
I0
sg74
(lp2044
I1095363701
asg35
VPT2M49.652679S
p2045
sg213
I0
sg214
VP0DT0H0M1.6667S
p2046
sg69
(dp2047
g71
VE6 Shooter
p2048
sg73
Nssa(dp2049
g68
I4096745987
sg32
VWeaponDrop
p2050
sg210
I4
sg74
(lp2051
I2758383128
asg35
VPT2M49.652679S
p2052
sg213
I2
sg214
VP0DT0H0M9.2167S
p2053
sg69
(dp2054
g71
VE6 Shooter
p2055
sg73
Nssa(dp2056
g38
I4096745987
sg39
I00
sg40
I00
sg41
(dp2057
g71
VE6 bubu dubu
p2058
sg73
Nssg45
(lp2059
I2758383128
asg47
I00
sg48
I01
sg49
I1
sg50
I0
sg51
I1
sg52
(dp2060
Vy
F12.354044
sVx
F-4.9312362700000003
sVz
F2.0006813999999999
ssg54
(dp2061
Vy
F6.3095903399999997
sVx
F-7.7076096500000002
sVz
F3.9818310000000001
ssg56
I00
sg57
(dp2062
g71
VCLG Royal 2
p2063
sg73
Nssg59
(lp2064
sg61
(lp2065
(dp2066
g71
VE6 Shooter
p2067
sg73
Nsa(dp2068
g71
VE6 Huke HCS
p2069
sg73
Nsasg63
I01
sg35
VPT2M51.6346087S
p2070
sg32
VDeath
p2071
sg66
I1
sa(dp2072
g32
VMedal
p2073
sg69
(dp2074
g71
VE6 bubu dubu
p2075
sg73
Nssg255
I3261908037
sg35
VPT2M51.6356338S
p2076
sa(dp2077
g68
I313138863
sg32
VWeaponDrop
p2078
sg210
I0
sg74
(lp2079
I1095363701
asg35
VPT2M51.6366335S
p2080
sg213
I0
sg214
VP0DT0H0M2.0500S
p2081
sg69
(dp2082
g71
VCLG Royal 2
p2083
sg73
Nssa(dp2084
g68
I4096745987
sg32
VWeaponDrop
p2085
sg210
I10
sg74
(lp2086
I2758383128
asg35
VPT2M51.6366335S
p2087
sg213
I6
sg214
VP0DT0H0M18.2167S
p2088
sg69
(dp2089
g71
VCLG Royal 2
p2090
sg73
Nssa(dp2091
g38
I4096745987
sg39
I00
sg40
I00
sg41
(dp2092
g71
VCLG Snake Bite
p2093
sg73
Nssg45
(lp2094
I2758383128
asg47
I00
sg48
I01
sg49
I1
sg50
I0
sg51
I1
sg52
(dp2095
Vy
F6.7304225000000004
sVx
F9.9277990000000003
sVz
F3.1448812500000001
ssg54
(dp2096
Vy
F4.2631807300000002
sVx
F6.725695
sVz
F4.1270956999999999
ssg56
I00
sg57
(dp2097
g71
VE6 Huke HCS
p2098
sg73
Nssg59
(lp2099
sg61
(lp2100
(dp2101
g71
VCLG Royal 2
p2102
sg73
Nsasg63
I00
sg35
VPT2M51.7336267S
p2103
sg32
VDeath
p2104
sg66
I1
sa(dp2105
g32
VMedal
p2106
sg69
(dp2107
g71
VCLG Snake Bite
p2108
sg73
Nssg255
I2078758684
sg35
VPT2M51.7346246S
p2109
sa(dp2110
g68
I2133511419
sg32
VWeaponDrop
p2111
sg210
I11
sg74
(lp2112
I2758383128
asg35
VPT2M51.7356361S
p2113
sg213
I6
sg214
VP0DT0H0M3.9500S
p2114
sg69
(dp2115
g71
VE6 Huke HCS
p2116
sg73
Nssa(dp2117
g68
I4096745987
sg32
VWeaponDrop
p2118
sg210
I1
sg74
(lp2119
I2758383128
asg35
VPT2M51.7356361S
p2120
sg213
I1
sg214
VP0DT0H0M7.2667S
p2121
sg69
(dp2122
g71
VE6 Huke HCS
p2123
sg73
Nssa(dp2124
g68
I313138863
sg69
(dp2125
g71
VE6 Cratos HCS
p2126
sg73
Nssg74
(lp2127
I1095363701
asg32
VWeaponPickup
p2128
sg35
VPT2M51.8346282S
p2129
sa(dp2130
g68
I4096745987
sg69
(dp2131
g71
VE6 Cratos HCS
p2132
sg73
Nssg74
(lp2133
I2758383128
asg32
VWeaponPickup
p2134
sg35
VPT2M51.8346282S
p2135
sa(dp2136
g32
VPlayerSpawn
p2137
sg69
(dp2138
g71
VE6 Cratos HCS
p2139
sg73
Nssg35
VPT2M51.8346282S
p2140
sa(dp2141
g68
I313138863
sg69
(dp2142
g71
VE6 Shooter
p2143
sg73
Nssg74
(lp2144
I1095363701
asg32
VWeaponPickup
p2145
sg35
VPT2M57.6664526S
p2146
sa(dp2147
g68
I4096745987
sg69
(dp2148
g71
VE6 Shooter
p2149
sg73
Nssg74
(lp2150
I2758383128
asg32
VWeaponPickup
p2151
sg35
VPT2M57.6664526S
p2152
sa(dp2153
g32
VPlayerSpawn
p2154
sg69
(dp2155
g71
VE6 Shooter
p2156
sg73
Nssg35
VPT2M57.6664526S
p2157
sa(dp2158
g38
I424645655
sg39
I00
sg40
I00
sg41
(dp2159
g71
VCLG Frosty HCS
p2160
sg73
Nssg45
(lp2161
I1327094800
asg47
I00
sg48
I01
sg49
I1
sg50
I0
sg51
I1
sg52
(dp2162
Vy
F11.7565823
sVx
F-15.698979400000001
sVz
F1.3717842099999999
ssg54
(dp2163
Vy
F11.8983183
sVx
F-12.6089
sVz
F3.7480316199999999
ssg56
I00
sg57
(dp2164
g71
VE6 bubu dubu
p2165
sg73
Nssg59
(lp2166
sg61
(lp2167
sg63
I01
sg35
VPT2M59.3334106S
p2168
sg32
VDeath
p2169
sg66
I1
sa(dp2170
g32
VMedal
p2171
sg69
(dp2172
g71
VCLG Frosty HCS
p2173
sg73
Nssg255
I3261908037
sg35
VPT2M59.3364317S
p2174
sa(dp2175
g32
VMedal
p2176
sg69
(dp2177
g71
VCLG Frosty HCS
p2178
sg73
Nssg255
I2430242797
sg35
VPT2M59.3364317S
p2179
sa(dp2180
g68
I313138863
sg32
VWeaponDrop
p2181
sg210
I18
sg74
(lp2182
I1095363701
asg35
VPT2M59.3364317S
p2183
sg213
I13
sg214
VP0DT0H0M3.1667S
p2184
sg69
(dp2185
g71
VE6 bubu dubu
p2186
sg73
Nssa(dp2187
g68
I4096745987
sg32
VWeaponDrop
p2188
sg210
I5
sg74
(lp2189
I2758383128
asg35
VPT2M59.3364317S
p2190
sg213
I2
sg214
VP0DT0H0M7.7000S
p2191
sg69
(dp2192
g71
VE6 bubu dubu
p2193
sg73
Nssa(dp2194
g38
I313138863
sg39
I00
sg40
I00
sg41
(dp2195
g71
VE6 bubu dubu
p2196
sg73
Nssg45
(lp2197
I1095363701
asg47
I00
sg48
I01
sg49
I1
sg50
I0
sg51
I1
sg52
(dp2198
Vy
F11.993455900000001
sVx
F-12.646791500000001
sVz
F3.6986897000000001
ssg54
(dp2199
Vy
F11.782645199999999
sVx
F-15.613993600000001
sVz
F1.3671370700000001
ssg56
I00
sg57
(dp2200
g71
VCLG Frosty HCS
p2201
sg73
Nssg59
(lp2202
sg61
(lp2203
sg63
I00
sg35
VPT2M59.383429S
p2204
sg32
VDeath
p2205
sg66
I1
sa(dp2206
g68
I424645655
sg32
VWeaponDrop
p2207
sg210
I69
sg74
(lp2208
I1327094800
asg35
VPT2M59.3854338S
p2209
sg213
I39
sg214
VP0DT0H1M0.6833S
p2210
sg69
(dp2211
g71
VCLG Frosty HCS
p2212
sg73
Nssa(dp2213
g68
I524558978
sg32
VWeaponDrop
p2214
sg210
I6
sg74
(lp2215
I2758383128
asg35
VPT2M59.3854338S
p2216
sg213
I4
sg214
VP0DT0H0M18.6000S
p2217
sg69
(dp2218
g71
VCLG Frosty HCS
p2219
sg73
Nssa(dp2220
g68
I524558978
sg32
VWeaponDrop
p2221
sg210
I0
sg74
(lp2222
I2758383128
asg35
VPT2M59.3854338S
p2223
sg213
I0
sg214
VP0DT0S
p2224
sg69
(dp2225
g71
VCLG Frosty HCS
p2226
sg73
Nssa(dp2227
g68
I524558978
sg32
VWeaponDrop
p2228
sg210
I0
sg74
(lp2229
I2758383128
asg35
VPT2M59.3854338S
p2230
sg213
I0
sg214
VP0DT0S
p2231
sg69
(dp2232
g71
VCLG Frosty HCS
p2233
sg73
Nssa(dp2234
g68
I313138863
sg69
(dp2235
g71
VCLG Royal 2
p2236
sg73
Nssg74
(lp2237
I1095363701
asg32
VWeaponPickup
p2238
sg35
VPT2M59.6504257S
p2239
sa(dp2240
g68
I4096745987
sg69
(dp2241
g71
VCLG Royal 2
p2242
sg73
Nssg74
(lp2243
I2758383128
asg32
VWeaponPickup
p2244
sg35
VPT2M59.6504257S
p2245
sa(dp2246
g32
VPlayerSpawn
p2247
sg69
(dp2248
g71
VCLG Royal 2
p2249
sg73
Nssg35
VPT2M59.6514281S
p2250
sa(dp2251
g68
I313138863
sg69
(dp2252
g71
VE6 Huke HCS
p2253
sg73
Nssg74
(lp2254
I1095363701
asg32
VWeaponPickup
p2255
sg35
VPT2M59.7504005S
p2256
sa(dp2257
g68
I4096745987
sg69
(dp2258
g71
VE6 Huke HCS
p2259
sg73
Nssg74
(lp2260
I2758383128
asg32
VWeaponPickup
p2261
sg35
VPT2M59.7514195S
p2262
sa(dp2263
g32
VPlayerSpawn
p2264
sg69
(dp2265
g71
VE6 Huke HCS
p2266
sg73
Nssg35
VPT2M59.7514195S
p2267
sa(dp2268
g68
I313138863
sg32
VWeaponDrop
p2269
sg210
I0
sg74
(lp2270
I1095363701
asg35
VPT3M2.8323215S
p2271
sg213
I0
sg214
VP0DT0H0M2.1333S
p2272
sg69
(dp2273
g71
VCLG Royal 2
p2274
sg73
Nssa(dp2275
g68
I424645655
sg69
(dp2276
g71
VCLG Royal 2
p2277
sg73
Nssg74
(lp2278
I1327094800
asg32
VWeaponPickup
p2279
sg35
VPT3M2.8323215S
p2280
sa(dp2281
g68
I313138863
sg69
(dp2282
g71
VLeagueOps
p2283
sg73
Nssg74
(lp2284
I1095363701
asg32
VWeaponPickup
p2285
sg35
VPT3M2.9173194S
p2286
sa(dp2287
g68
I4096745987
sg69
(dp2288
g71
VLeagueOps
p2289
sg73
Nssg74
(lp2290
I2758383128
asg32
VWeaponPickup
p2291
sg35
VPT3M2.9173194S
p2292
sa(dp2293
g32
VPlayerSpawn
p2294
sg69
(dp2295
g71
VLeagueOps
p2296
sg73
Nssg35
VPT3M2.9173194S
p2297
sa(dp2298
g68
I4096745987
sg32
VWeaponDrop
p2299
sg210
I0
sg74
(lp2300
I2758383128
asg35
VPT3M3.4153306S
p2301
sg213
I0
sg214
VP0DT0H0M1.2167S
p2302
sg69
(dp2303
g71
VCLG Royal 2
p2304
sg73
Nssa(dp2305
g68
I524558978
sg69
(dp2306
g71
VCLG Royal 2
p2307
sg73
Nssg74
(lp2308
I2758383128
asg32
VWeaponPickup
p2309
sg35
VPT3M3.4153306S
p2310
sa(dp2311
g38
I4096745987
sg39
I00
sg40
I00
sg41
(dp2312
g71
VCLG LethuL HCS
p2313
sg73
Nssg45
(lp2314
I2758383128
asg47
I00
sg48
I01
sg49
I1
sg50
I0
sg51
I1
sg52
(dp2315
Vy
F13.957240000000001
sVx
F1.1770633500000001
sVz
F2.8185660000000001
ssg54
(dp2316
Vy
F7.3824230000000002
sVx
F7.7495839999999996
sVz
F4.0427103000000004
ssg56
I00
sg57
(dp2317
g71
VE6 Cratos HCS
p2318
sg73
Nssg59
(lp2319
sg61
(lp2320
(dp2321
g71
VCLG Snake Bite
p2322
sg73
Nsasg63
I01
sg35
VPT3M3.6163013S
p2323
sg32
VDeath
p2324
sg66
I1
sa(dp2325
g32
VMedal
p2326
sg69
(dp2327
g71
VCLG LethuL HCS
p2328
sg73
Nssg255
I3261908037
sg35
VPT3M3.6173018S
p2329
sa(dp2330
g68
I313138863
sg32
VWeaponDrop
p2331
sg210
I0
sg74
(lp2332
I1095363701
asg35
VPT3M3.6183243S
p2333
sg213
I0
sg214
VP0DT0H0M0.8667S
p2334
sg69
(dp2335
g71
VE6 Cratos HCS
p2336
sg73
Nssa(dp2337
g68
I4096745987
sg32
VWeaponDrop
p2338
sg210
I5
sg74
(lp2339
I2758383128
asg35
VPT3M3.6183243S
p2340
sg213
I3
sg214
VP0DT0H0M10.9167S
p2341
sg69
(dp2342
g71
VE6 Cratos HCS
p2343
sg73
Nssa(dp2344
g68
I313138863
sg32
VWeaponDrop
p2345
sg210
I0
sg74
(lp2346
I1095363701
asg35
VPT3M6.4012324S
p2347
sg213
I0
sg214
VP0DT0H0M3.4833S
p2348
sg69
(dp2349
g71
VLeagueOps
p2350
sg73
Nssa(dp2351
g68
I313138863
sg69
(dp2352
g71
VE6 bubu dubu
p2353
sg73
Nssg74
(lp2354
I1095363701
asg32
VWeaponPickup
p2355
sg35
VPT3M7.3502082S
p2356
sa(dp2357
g68
I4096745987
sg69
(dp2358
g71
VE6 bubu dubu
p2359
sg73
Nssg74
(lp2360
I2758383128
asg32
VWeaponPickup
p2361
sg35
VPT3M7.3502082S
p2362
sa(dp2363
g32
VPlayerSpawn
p2364
sg69
(dp2365
g71
VE6 bubu dubu
p2366
sg73
Nssg35
VPT3M7.3502082S
p2367
sa(dp2368
g68
I313138863
sg69
(dp2369
g71
VCLG Frosty HCS
p2370
sg73
Nssg74
(lp2371
I1095363701
asg32
VWeaponPickup
p2372
sg35
VPT3M7.4002236S
p2373
sa(dp2374
g68
I4096745987
sg69
(dp2375
g71
VCLG Frosty HCS
p2376
sg73
Nssg74
(lp2377
I2758383128
asg32
VWeaponPickup
p2378
sg35
VPT3M7.4002236S
p2379
sa(dp2380
g32
VPlayerSpawn
p2381
sg69
(dp2382
g71
VCLG Frosty HCS
p2383
sg73
Nssg35
VPT3M7.4002236S
p2384
sa(dp2385
g68
I313138863
sg32
VWeaponDrop
p2386
sg210
I0
sg74
(lp2387
I1095363701
asg35
VPT3M10.5771422S
p2388
sg213
I0
sg214
VP0DT0H0M2.5833S
p2389
sg69
(dp2390
g71
VCLG Frosty HCS
p2391
sg73
Nssa(dp2392
g68
I4108759423
sg69
(dp2393
g71
VCLG Frosty HCS
p2394
sg73
Nssg74
(lp2395
I2758383128
asg32
VWeaponPickup
p2396
sg35
VPT3M10.5771422S
p2397
sa(dp2398
g68
I313138863
sg69
(dp2399
g71
VE6 Cratos HCS
p2400
sg73
Nssg74
(lp2401
I1095363701
asg32
VWeaponPickup
p2402
sg35
VPT3M11.6330958S
p2403
sa(dp2404
g68
I4096745987
sg69
(dp2405
g71
VE6 Cratos HCS
p2406
sg73
Nssg74
(lp2407
I2758383128
asg32
VWeaponPickup
p2408
sg35
VPT3M11.6330958S
p2409
sa(dp2410
g32
VPlayerSpawn
p2411
sg69
(dp2412
g71
VE6 Cratos HCS
p2413
sg73
Nssg35
VPT3M11.6330958S
p2414
sa(dp2415
g38
I313138863
sg39
I00
sg40
I00
sg41
(dp2416
g71
VE6 Huke HCS
p2417
sg73
Nssg45
(lp2418
I1095363701
asg47
I00
sg48
I01
sg49
I1
sg50
I0
sg51
I1
sg52
(dp2419
Vy
F-4.5006537399999997
sVx
F-14.182518
sVz
F4.10021448
ssg54
(dp2420
Vy
F1.04275143
sVx
F-12.9305267
sVz
F3.6080937400000002
ssg56
I00
sg57
(dp2421
g71
VCLG Royal 2
p2422
sg73
Nssg59
(lp2423
sg61
(lp2424
sg63
I00
sg35
VPT3M13.7170435S
p2425
sg32
VDeath
p2426
sg66
I1
sa(dp2427
g68
I424645655
sg32
VWeaponDrop
p2428
sg210
I0
sg74
(lp2429
I1327094800
asg35
VPT3M13.7180448S
p2430
sg213
I0
sg214
VP0DT0H0M3.8833S
p2431
sg69
(dp2432
g71
VCLG Royal 2
p2433
sg73
Nssa(dp2434
g68
I524558978
sg32
VWeaponDrop
p2435
sg210
I1
sg74
(lp2436
I2758383128
asg35
VPT3M13.7180448S
p2437
sg213
I1
sg214
VP0DT0H0M6.8333S
p2438
sg69
(dp2439
g71
VCLG Royal 2
p2440
sg73
Nssa(dp2441
g68
I524558978
sg32
VWeaponDrop
p2442
sg210
I0
sg74
(lp2443
I2758383128
asg35
VPT3M13.7180448S
p2444
sg213
I0
sg214
VP0DT0S
p2445
sg69
(dp2446
g71
VCLG Royal 2
p2447
sg73
Nssa(dp2448
g68
I4096745987
sg32
VWeaponDrop
p2449
sg210
I0
sg74
(lp2450
I2758383128
asg35
VPT3M15.9140134S
p2451
sg213
I0
sg214
VP0DT0H0M1.6667S
p2452
sg69
(dp2453
g71
VCLG Frosty HCS
p2454
sg73
Nssa(dp2455
g68
I2133511419
sg69
(dp2456
g71
VCLG Frosty HCS
p2457
sg73
Nssg74
(lp2458
I2758383128
asg32
VWeaponPickup
p2459
sg35
VPT3M15.9149866S
p2460
sa(dp2461
g68
I313138863
sg69
(dp2462
g71
VCLG Royal 2
p2463
sg73
Nssg74
(lp2464
I1095363701
asg32
VWeaponPickup
p2465
sg35
VPT3M21.7328581S
p2466
sa(dp2467
g68
I4096745987
sg69
(dp2468
g71
VCLG Royal 2
p2469
sg73
Nssg74
(lp2470
I2758383128
asg32
VWeaponPickup
p2471
sg35
VPT3M21.7328581S
p2472
sa(dp2473
g32
VPlayerSpawn
p2474
sg69
(dp2475
g71
VCLG Royal 2
p2476
sg73
Nssg35
VPT3M21.7328581S
p2477
sa(dp2478
g38
I4096745987
sg39
I00
sg40
I00
sg41
(dp2479
g71
VCLG LethuL HCS
p2480
sg73
Nssg45
(lp2481
I2758383128
asg47
I00
sg48
I01
sg49
I1
sg50
I0
sg51
I1
sg52
(dp2482
Vy
F3.7989475700000002
sVx
F6.84390974
sVz
F3.18754435
ssg54
(dp2483
Vy
F-7.1050820000000003
sVx
F7.4082679999999996
sVz
F3.1253283000000001
ssg56
I00
sg57
(dp2484
g71
VE6 Shooter
p2485
sg73
Nssg59
(lp2486
sg61
(lp2487
sg63
I01
sg35
VPT3M23.5148277S
p2488
sg32
VDeath
p2489
sg66
I1
sa(dp2490
g32
VImpulse
p2491
sg69
(dp2492
g71
VCLG LethuL HCS
p2493
sg73
Nssg293
I3174430457
sg35
VPT3M23.5168159S
p2494
sa(dp2495
g32
VMedal
p2496
sg69
(dp2497
g71
VCLG LethuL HCS
p2498
sg73
Nssg255
I3653057799
sg35
VPT3M23.5168159S
p2499
sa(dp2500
g68
I313138863
sg32
VWeaponDrop
p2501
sg210
I0
sg74
(lp2502
I1095363701
asg35
VPT3M23.5168159S
p2503
sg213
I0
sg214
VP0DT0H0M1.6667S
p2504
sg69
(dp2505
g71
VE6 Shooter
p2506
sg73
Nssa(dp2507
g68
I4096745987
sg32
VWeaponDrop
p2508
sg210
I4
sg74
(lp2509
I2758383128
asg35
VPT3M23.5168159S
p2510
sg213
I1
sg214
VP0DT0H0M24.1833S
p2511
sg69
(dp2512
g71
VE6 Shooter
p2513
sg73
Nssa(dp2514
g38
I313138863
sg39
I00
sg40
I00
sg41
(dp2515
g71
VE6 bubu dubu
p2516
sg73
Nssg45
(lp2517
I1095363701
asg47
I00
sg48
I01
sg49
I1
sg50
I0
sg51
I1
sg52
(dp2518
Vy
F3.1245530000000001
sVx
F7.391159
sVz
F3.1712176799999998
ssg54
(dp2519
Vy
F6.6663427400000002
sVx
F5.4081363700000002
sVz
F3.2968056200000002
ssg56
I00
sg57
(dp2520
g71
VCLG LethuL HCS
p2521
sg73
Nssg59
(lp2522
sg61
(lp2523
sg63
I00
sg35
VPT3M26.115726S
p2524
sg32
VDeath
p2525
sg66
I1
sa(dp2526
g68
I313138863
sg32
VWeaponDrop
p2527
sg210
I0
sg74
(lp2528
I1095363701
asg35
VPT3M26.1167438S
p2529
sg213
I0
sg214
VP0DT0H0M0.7667S
p2530
sg69
(dp2531
g71
VCLG LethuL HCS
p2532
sg73
Nssa(dp2533
g68
I4096745987
sg32
VWeaponDrop
p2534
sg210
I14
sg74
(lp2535
I2758383128
asg35
VPT3M26.1167438S
p2536
sg213
I12
sg214
VP0DT0H0M37.2500S
p2537
sg69
(dp2538
g71
VCLG LethuL HCS
p2539
sg73
Nssa(dp2540
g38
I4096745987
sg39
I00
sg40
I00
sg41
(dp2541
g71
VCLG Snake Bite
p2542
sg73
Nssg45
(lp2543
I2758383128
asg47
I00
sg48
I01
sg49
I1
sg50
I0
sg51
I1
sg52
(dp2544
Vy
F-10.5536709
sVx
F-15.2173634
sVz
F1.74204516
ssg54
(dp2545
Vy
F-10.060328500000001
sVx
F-9.6616630000000008
sVz
F0.10833844500000001
ssg56
I00
sg57
(dp2546
g71
VE6 Cratos HCS
p2547
sg73
Nssg59
(lp2548
sg61
(lp2549
sg63
I01
sg35
VPT3M30.1976457S
p2550
sg32
VDeath
p2551
sg66
I1
sa(dp2552
g32
VMedal
p2553
sg69
(dp2554
g71
VCLG Snake Bite
p2555
sg73
Nssg255
I3261908037
sg35
VPT3M30.1986404S
p2556
sa(dp2557
g68
I313138863
sg32
VWeaponDrop
p2558
sg210
I0
sg74
(lp2559
I1095363701
asg35
VPT3M30.1996232S
p2560
sg213
I0
sg214
VP0DT0H0M0.8833S
p2561
sg69
(dp2562
g71
VE6 Cratos HCS
p2563
sg73
Nssa(dp2564
g68
I4096745987
sg32
VWeaponDrop
p2565
sg210
I8
sg74
(lp2566
I2758383128
asg35
VPT3M30.1996232S
p2567
sg213
I5
sg214
VP0DT0H0M17.6833S
p2568
sg69
(dp2569
g71
VE6 Cratos HCS
p2570
sg73
Nssa(dp2571
g68
I313138863
sg69
(dp2572
g71
VE6 Shooter
p2573
sg73
Nssg74
(lp2574
I1095363701
asg32
VWeaponPickup
p2575
sg35
VPT3M31.5316101S
p2576
sa(dp2577
g68
I4096745987
sg69
(dp2578
g71
VE6 Shooter
p2579
sg73
Nssg74
(lp2580
I2758383128
asg32
VWeaponPickup
p2581
sg35
VPT3M31.5316101S
p2582
sa(dp2583
g32
VPlayerSpawn
p2584
sg69
(dp2585
g71
VE6 Shooter
p2586
sg73
Nssg35
VPT3M31.5316101S
p2587
sa(dp2588
g68
I313138863
sg69
(dp2589
g71
VCLG LethuL HCS
p2590
sg73
Nssg74
(lp2591
I1095363701
asg32
VWeaponPickup
p2592
sg35
VPT3M34.1316529S
p2593
sa(dp2594
g68
I4096745987
sg69
(dp2595
g71
VCLG LethuL HCS
p2596
sg73
Nssg74
(lp2597
I2758383128
asg32
VWeaponPickup
p2598
sg35
VPT3M34.1325399S
p2599
sa(dp2600
g32
VPlayerSpawn
p2601
sg69
(dp2602
g71
VCLG LethuL HCS
p2603
sg73
Nssg35
VPT3M34.1325399S
p2604
sa(dp2605
g68
I313138863
sg69
(dp2606
g71
VE6 Cratos HCS
p2607
sg73
Nssg74
(lp2608
I1095363701
asg32
VWeaponPickup
p2609
sg35
VPT3M38.2154152S
p2610
sa(dp2611
g68
I4096745987
sg69
(dp2612
g71
VE6 Cratos HCS
p2613
sg73
Nssg74
(lp2614
I2758383128
asg32
VWeaponPickup
p2615
sg35
VPT3M38.2154152S
p2616
sa(dp2617
g32
VPlayerSpawn
p2618
sg69
(dp2619
g71
VE6 Cratos HCS
p2620
sg73
Nssg35
VPT3M38.2154152S
p2621
sa(dp2622
g38
I4106030681
sg39
I00
sg40
I00
sg41
(dp2623
g71
VE6 Shooter
p2624
sg73
Nssg45
(lp2625
sg47
I00
sg48
I01
sg49
I1
sg50
I0
sg51
I1
sg52
(dp2626
Vy
F10.4231949
sVx
F-10.1393776
sVz
F3.3959290000000002
ssg54
(dp2627
Vy
F-0.79268209999999995
sVx
F-4.73734331
sVz
F3.4200390000000001
ssg56
I00
sg57
(dp2628
g71
VCLG Snake Bite
p2629
sg73
Nssg59
(lp2630
sg61
(lp2631
sg63
I00
sg35
VPT3M45.9642168S
p2632
sg32
VDeath
p2633
sg66
I1
sa(dp2634
g68
I4096745987
sg32
VWeaponDrop
p2635
sg210
I41
sg74
(lp2636
I2758383128
asg35
VPT3M45.9662357S
p2637
sg213
I26
sg214
VP0DT0H1M24.3000S
p2638
sg69
(dp2639
g71
VCLG Snake Bite
p2640
sg73
Nssa(dp2641
g68
I313138863
sg32
VWeaponDrop
p2642
sg210
I0
sg74
(lp2643
I1095363701
asg35
VPT3M45.9662357S
p2644
sg213
I0
sg214
VP0DT0H0M2.1500S
p2645
sg69
(dp2646
g71
VCLG Snake Bite
p2647
sg73
Nssa(dp2648
g38
I4096745987
sg39
I00
sg40
I00
sg41
(dp2649
g71
VCLG LethuL HCS
p2650
sg73
Nssg45
(lp2651
I2758383128
asg47
I00
sg48
I01
sg49
I1
sg50
I0
sg51
I1
sg52
(dp2652
Vy
F5.1299469999999996
sVx
F-18.953824999999998
sVz
F2.40468335
ssg54
(dp2653
Vy
F7.63742828
sVx
F-5.1611742999999999
sVz
F2.8536679999999999
ssg56
I00
sg57
(dp2654
g71
VE6 Shooter
p2655
sg73
Nssg59
(lp2656
sg61
(lp2657
sg63
I01
sg35
VPT3M50.8630917S
p2658
sg32
VDeath
p2659
sg66
I1
sa(dp2660
g32
VMedal
p2661
sg69
(dp2662
g71
VCLG LethuL HCS
p2663
sg73
Nssg255
I3261908037
sg35
VPT3M50.865115S
p2664
sa(dp2665
g68
I313138863
sg32
VWeaponDrop
p2666
sg210
I0
sg74
(lp2667
I1095363701
asg35
VPT3M50.8661142S
p2668
sg213
I0
sg214
VP0DT0H0M1.2667S
p2669
sg69
(dp2670
g71
VE6 Shooter
p2671
sg73
Nssa(dp2672
g68
I4096745987
sg32
VWeaponDrop
p2673
sg210
I4
sg74
(lp2674
I2758383128
asg35
VPT3M50.8661142S
p2675
sg213
I3
sg214
VP0DT0H0M18.0667S
p2676
sg69
(dp2677
g71
VE6 Shooter
p2678
sg73
Nssa(dp2679
g68
I313138863
sg32
VWeaponDrop
p2680
sg210
I35
sg74
(lp2681
I1095363701
asg35
VPT3M51.3951013S
p2682
sg213
I14
sg214
VP0DT0H0M13.2167S
p2683
sg69
(dp2684
g71
VE6 bubu dubu
p2685
sg73
Nssa(dp2686
g68
I2133511419
sg69
(dp2687
g71
VE6 bubu dubu
p2688
sg73
Nssg74
(lp2689
I2758383128
asg32
VWeaponPickup
p2690
sg35
VPT3M51.3961031S
p2691
sa(dp2692
g68
I313138863
sg69
(dp2693
g71
VCLG Snake Bite
p2694
sg73
Nssg74
(lp2695
I1095363701
asg32
VWeaponPickup
p2696
sg35
VPT3M53.9800122S
p2697
sa(dp2698
g68
I4096745987
sg69
(dp2699
g71
VCLG Snake Bite
p2700
sg73
Nssg74
(lp2701
I2758383128
asg32
VWeaponPickup
p2702
sg35
VPT3M53.9810361S
p2703
sa(dp2704
g32
VPlayerSpawn
p2705
sg69
(dp2706
g71
VCLG Snake Bite
p2707
sg73
Nssg35
VPT3M53.9810361S
p2708
sa(dp2709
g38
I4096745987
sg39
I00
sg40
I00
sg41
(dp2710
g71
VCLG LethuL HCS
p2711
sg73
Nssg45
(lp2712
I2758383128
asg47
I00
sg48
I01
sg49
I1
sg50
I0
sg51
I1
sg52
(dp2713
Vy
F-1.5257786499999999
sVx
F-12.5369864
sVz
F3.7567729999999999
ssg54
(dp2714
Vy
F2.97929764
sVx
F-1.5982061599999999
sVz
F3.2143495099999999
ssg56
I00
sg57
(dp2715
g71
VE6 Huke HCS
p2716
sg73
Nssg59
(lp2717
sg61
(lp2718
(dp2719
g71
VCLG Frosty HCS
p2720
sg73
Nsa(dp2721
g71
VCLG Snake Bite
p2722
sg73
Nsasg63
I00
sg35
VPT3M57.4629219S
p2723
sg32
VDeath
p2724
sg66
I1
sa(dp2725
g32
VMedal
p2726
sg69
(dp2727
g71
VCLG LethuL HCS
p2728
sg73
Nssg255
I2838259753
sg35
VPT3M57.4629219S
p2729
sa(dp2730
g32
VImpulse
p2731
sg69
(dp2732
g71
VCLG LethuL HCS
p2733
sg73
Nssg293
I2556889090
sg35
VPT3M57.4629219S
p2734
sa(dp2735
g32
VMedal
p2736
sg69
(dp2737
g71
VCLG Royal 2
p2738
sg73
Nssg255
I824733727
sg35
VPT3M57.4629219S
p2739
sa(dp2740
g32
VMedal
p2741
sg69
(dp2742
g71
VCLG LethuL HCS
p2743
sg73
Nssg255
I466059351
sg35
VPT3M57.4639479S
p2744
sa(dp2745
g68
I313138863
sg32
VWeaponDrop
p2746
sg210
I22
sg74
(lp2747
I1095363701
asg35
VPT3M57.4649436S
p2748
sg213
I15
sg214
VP0DT0H0M7.9833S
p2749
sg69
(dp2750
g71
VE6 Huke HCS
p2751
sg73
Nssa(dp2752
g68
I4096745987
sg32
VWeaponDrop
p2753
sg210
I15
sg74
(lp2754
I2758383128
asg35
VPT3M57.4649436S
p2755
sg213
I7
sg214
VP0DT0H0M49.7333S
p2756
sg69
(dp2757
g71
VE6 Huke HCS
p2758
sg73
Nssa(dp2759
g68
I313138863
sg69
(dp2760
g71
VE6 Shooter
p2761
sg73
Nssg74
(lp2762
I1095363701
asg32
VWeaponPickup
p2763
sg35
VPT3M58.879911S
p2764
sa(dp2765
g68
I4096745987
sg69
(dp2766
g71
VE6 Shooter
p2767
sg73
Nssg74
(lp2768
I2758383128
asg32
VWeaponPickup
p2769
sg35
VPT3M58.879911S
p2770
sa(dp2771
g32
VPlayerSpawn
p2772
sg69
(dp2773
g71
VE6 Shooter
p2774
sg73
Nssg35
VPT3M58.879911S
p2775
sa(dp2776
g38
I4096745987
sg39
I00
sg40
I00
sg41
(dp2777
g71
VCLG LethuL HCS
p2778
sg73
Nssg45
(lp2779
I2758383128
asg47
I00
sg48
I01
sg49
I1
sg50
I0
sg51
I1
sg52
(dp2780
Vy
F-0.42949855300000001
sVx
F-5.3581514400000003
sVz
F4.30222368
ssg54
(dp2781
Vy
F-1.38224792
sVx
F7.7561774300000002
sVz
F4.0178704300000003
ssg56
I00
sg57
(dp2782
g71
VE6 Cratos HCS
p2783
sg73
Nssg59
(lp2784
sg61
(lp2785
(dp2786
g71
VCLG Frosty HCS
p2787
sg73
Nsasg63
I01
sg35
VPT4M3.0788034S
p2788
sg32
VDeath
p2789
sg66
I1
sa(dp2790
g32
VMedal
p2791
sg69
(dp2792
g71
VCLG LethuL HCS
p2793
sg73
Nssg255
I3261908037
sg35
VPT4M3.0798018S
p2794
sa(dp2795
g68
I313138863
sg32
VWeaponDrop
p2796
sg210
I0
sg74
(lp2797
I1095363701
asg35
VPT4M3.0808025S
p2798
sg213
I0
sg214
VP0DT0H0M1.0667S
p2799
sg69
(dp2800
g71
VE6 Cratos HCS
p2801
sg73
Nssa(dp2802
g68
I4096745987
sg32
VWeaponDrop
p2803
sg210
I17
sg74
(lp2804
I2758383128
asg35
VPT4M3.0808025S
p2805
sg213
I7
sg214
VP0DT0H0M23.8000S
p2806
sg69
(dp2807
g71
VE6 Cratos HCS
p2808
sg73
Nssa(dp2809
g38
I4096745987
sg39
I00
sg40
I00
sg41
(dp2810
g71
VE6 Shooter
p2811
sg73
Nssg45
(lp2812
I2758383128
asg47
I00
sg48
I01
sg49
I1
sg50
I0
sg51
I1
sg52
(dp2813
Vy
F6.7507109999999999
sVx
F-2.0841352899999999
sVz
F0.71768546099999997
ssg54
(dp2814
Vy
F-0.92123615700000006
sVx
F1.6898955099999999
sVz
F4.0831429999999997
ssg56
I00
sg57
(dp2815
g71
VCLG Frosty HCS
p2816
sg73
Nssg59
(lp2817
sg61
(lp2818
(dp2819
g71
VE6 bubu dubu
p2820
sg73
Nsa(dp2821
g71
VE6 Cratos HCS
p2822
sg73
Nsasg63
I01
sg35
VPT4M3.6957632S
p2823
sg32
VDeath
p2824
sg66
I1
sa(dp2825
g32
VMedal
p2826
sg69
(dp2827
g71
VE6 Shooter
p2828
sg73
Nssg255
I3261908037
sg35
VPT4M3.6977651S
p2829
sa(dp2830
g68
I4108759423
sg32
VWeaponDrop
p2831
sg210
I30
sg74
(lp2832
I2758383128
asg35
VPT4M3.6977651S
p2833
sg213
I13
sg214
VP0DT0H0M33.9833S
p2834
sg69
(dp2835
g71
VCLG Frosty HCS
p2836
sg73
Nssa(dp2837
g68
I2133511419
sg32
VWeaponDrop
p2838
sg210
I11
sg74
(lp2839
I2758383128
asg35
VPT4M3.6977651S
p2840
sg213
I6
sg214
VP0DT0H0M18.0667S
p2841
sg69
(dp2842
g71
VCLG Frosty HCS
p2843
sg73
Nssa(dp2844
g38
I313138863
sg39
I00
sg40
I01
sg41
(dp2845
g71
VCLG Royal 2
p2846
sg73
Nssg45
(lp2847
I1095363701
asg47
I00
sg48
I00
sg49
I1
sg50
I0
sg51
I1
sg52
(dp2848
Vy
F-10.9003754
sVx
F-4.1481430000000001
sVz
F2.1828601399999998
ssg54
(dp2849
Vy
F-10.9558144
sVx
F-3.8070116000000001
sVz
F2.0006813999999999
ssg56
I00
sg57
(dp2850
g71
VE6 bubu dubu
p2851
sg73
Nssg59
(lp2852
sg61
(lp2853
(dp2854
g71
VCLG Snake Bite
p2855
sg73
Nsasg63
I00
sg35
VPT4M4.6287759S
p2856
sg32
VDeath
p2857
sg66
I1
sa(dp2858
g32
VMedal
p2859
sg69
(dp2860
g71
VCLG Royal 2
p2861
sg73
Nssg255
I2287626681
sg35
VPT4M4.6297629S
p2862
sa(dp2863
g68
I2133511419
sg32
VWeaponDrop
p2864
sg210
I21
sg74
(lp2865
I2758383128
asg35
VPT4M4.6307634S
p2866
sg213
I5
sg214
VP0DT0H0M8.8167S
p2867
sg69
(dp2868
g71
VE6 bubu dubu
p2869
sg73
Nssa(dp2870
g68
I4096745987
sg32
VWeaponDrop
p2871
sg210
I9
sg74
(lp2872
I2758383128
asg35
VPT4M4.6317614S
p2873
sg213
I6
sg214
VP0DT0H0M35.2500S
p2874
sg69
(dp2875
g71
VE6 bubu dubu
p2876
sg73
Nssa(dp2877
g68
I313138863
sg69
(dp2878
g71
VE6 Huke HCS
p2879
sg73
Nssg74
(lp2880
I1095363701
asg32
VWeaponPickup
p2881
sg35
VPT4M5.4797358S
p2882
sa(dp2883
g68
I4096745987
sg69
(dp2884
g71
VE6 Huke HCS
p2885
sg73
Nssg74
(lp2886
I2758383128
asg32
VWeaponPickup
p2887
sg35
VPT4M5.4797358S
p2888
sa(dp2889
g32
VPlayerSpawn
p2890
sg69
(dp2891
g71
VE6 Huke HCS
p2892
sg73
Nssg35
VPT4M5.4797358S
p2893
sa(dp2894
g68
I313138863
sg32
VWeaponDrop
p2895
sg210
I1
sg74
(lp2896
I1095363701
asg35
VPT4M5.7277287S
p2897
sg213
I1
sg214
VP0DT0H0M3.5000S
p2898
sg69
(dp2899
g71
VCLG Royal 2
p2900
sg73
Nssa(dp2901
g68
I313138863
sg32
VWeaponDrop
p2902
sg210
I0
sg74
(lp2903
I1095363701
asg35
VPT4M5.7277287S
p2904
sg213
I0
sg214
VP0DT0S
p2905
sg69
(dp2906
g71
VCLG Royal 2
p2907
sg73
Nssa(dp2908
g68
I2133511419
sg69
(dp2909
g71
VCLG Royal 2
p2910
sg73
Nssg74
(lp2911
I2758383128
asg32
VWeaponPickup
p2912
sg35
VPT4M5.7277287S
p2913
sa(dp2914
g68
I313138863
sg69
(dp2915
g71
VE6 Cratos HCS
p2916
sg73
Nssg74
(lp2917
I1095363701
asg32
VWeaponPickup
p2918
sg35
VPT4M11.0955784S
p2919
sa(dp2920
g68
I4096745987
sg69
(dp2921
g71
VE6 Cratos HCS
p2922
sg73
Nssg74
(lp2923
I2758383128
asg32
VWeaponPickup
p2924
sg35
VPT4M11.0955784S
p2925
sa(dp2926
g32
VPlayerSpawn
p2927
sg69
(dp2928
g71
VE6 Cratos HCS
p2929
sg73
Nssg35
VPT4M11.0955784S
p2930
sa(dp2931
g68
I313138863
sg69
(dp2932
g71
VCLG Frosty HCS
p2933
sg73
Nssg74
(lp2934
I1095363701
asg32
VWeaponPickup
p2935
sg35
VPT4M11.7125579S
p2936
sa(dp2937
g68
I4096745987
sg69
(dp2938
g71
VCLG Frosty HCS
p2939
sg73
Nssg74
(lp2940
I2758383128
asg32
VWeaponPickup
p2941
sg35
VPT4M11.7125579S
p2942
sa(dp2943
g32
VPlayerSpawn
p2944
sg69
(dp2945
g71
VCLG Frosty HCS
p2946
sg73
Nssg35
VPT4M11.7125579S
p2947
sa(dp2948
g68
I313138863
sg69
(dp2949
g71
VE6 bubu dubu
p2950
sg73
Nssg74
(lp2951
I1095363701
asg32
VWeaponPickup
p2952
sg35
VPT4M12.6455345S
p2953
sa(dp2954
g68
I4096745987
sg69
(dp2955
g71
VE6 bubu dubu
p2956
sg73
Nssg74
(lp2957
I2758383128
asg32
VWeaponPickup
p2958
sg35
VPT4M12.6465567S
p2959
sa(dp2960
g32
VPlayerSpawn
p2961
sg69
(dp2962
g71
VE6 bubu dubu
p2963
sg73
Nssg35
VPT4M12.6465567S
p2964
sa(dp2965
g68
I313138863
sg32
VWeaponDrop
p2966
sg210
I0
sg74
(lp2967
I1095363701
asg35
VPT4M13.6935312S
p2968
sg213
I0
sg214
VP0DT0H0M1.6333S
p2969
sg69
(dp2970
g71
VCLG Frosty HCS
p2971
sg73
Nssa(dp2972
g68
I424645655
sg69
(dp2973
g71
VCLG Frosty HCS
p2974
sg73
Nssg74
(lp2975
I1327094800
asg32
VWeaponPickup
p2976
sg35
VPT4M13.6945074S
p2977
sa(dp2978
g68
I313138863
sg32
VWeaponDrop
p2979
sg210
I0
sg74
(lp2980
I1095363701
asg35
VPT4M18.9933909S
p2981
sg213
I0
sg214
VP0DT0H0M3.0167S
p2982
sg69
(dp2983
g71
VCLG Snake Bite
p2984
sg73
Nssa(dp2985
g68
I4054937266
sg69
(dp2986
g71
VCLG Snake Bite
p2987
sg73
Nssg74
(lp2988
I2758383128
asg32
VWeaponPickupPad
p2989
sg35
VPT4M18.9933909S
p2990
sa(dp2991
g68
I4054937266
sg69
(dp2992
g71
VCLG Snake Bite
p2993
sg73
Nssg74
(lp2994
I2758383128
asg32
VWeaponPickup
p2995
sg35
VPT4M18.9943928S
p2996
sa(dp2997
g38
I4096745987
sg39
I00
sg40
I00
sg41
(dp2998
g71
VE6 Cratos HCS
p2999
sg73
Nssg45
(lp3000
I2758383128
asg47
I00
sg48
I01
sg49
I1
sg50
I0
sg51
I1
sg52
(dp3001
Vy
F5.5914225599999998
sVx
F4.3817839999999997
sVz
F0.98373496500000002
ssg54
(dp3002
Vy
F7.3237156900000002
sVx
F-6.8347740000000003
sVz
F4.3956580000000001
ssg56
I00
sg57
(dp3003
g71
VCLG Frosty HCS
p3004
sg73
Nssg59
(lp3005
sg61
(lp3006
(dp3007
g71
VE6 bubu dubu
p3008
sg73
Nsasg63
I01
sg35
VPT4M24.2282377S
p3009
sg32
VDeath
p3010
sg66
I1
sa(dp3011
g32
VMedal
p3012
sg69
(dp3013
g71
VE6 Cratos HCS
p3014
sg73
Nssg255
I3261908037
sg35
VPT4M24.2292607S
p3015
sa(dp3016
g68
I424645655
sg32
VWeaponDrop
p3017
sg210
I0
sg74
(lp3018
I1327094800
asg35
VPT4M24.2302692S
p3019
sg213
I0
sg214
VP0DT0H0M10.5333S
p3020
sg69
(dp3021
g71
VCLG Frosty HCS
p3022
sg73
Nssa(dp3023
g68
I4096745987
sg32
VWeaponDrop
p3024
sg210
I0
sg74
(lp3025
I2758383128
asg35
VPT4M24.2302692S
p3026
sg213
I0
sg214
VP0DT0H0M0.3500S
p3027
sg69
(dp3028
g71
VCLG Frosty HCS
p3029
sg73
Nssa(dp3030
g68
I313138863
sg32
VWeaponDrop
p3031
sg210
I0
sg74
(lp3032
I1095363701
asg35
VPT4M26.910169S
p3033
sg213
I0
sg214
VP0DT0H0M1.4667S
p3034
sg69
(dp3035
g71
VE6 Cratos HCS
p3036
sg73
Nssa(dp3037
g68
I2133511419
sg69
(dp3038
g71
VE6 Cratos HCS
p3039
sg73
Nssg74
(lp3040
I2758383128
asg32
VWeaponPickup
p3041
sg35
VPT4M26.910169S
p3042
sa(dp3043
g38
I4096745987
sg39
I00
sg40
I00
sg41
(dp3044
g71
VE6 Huke HCS
p3045
sg73
Nssg45
(lp3046
I2758383128
asg47
I00
sg48
I01
sg49
I1
sg50
I0
sg51
I1
sg52
(dp3047
Vy
F12.1752834
sVx
F2.8434395800000001
sVz
F3.00629759
ssg54
(dp3048
Vy
F6.3391895299999996
sVx
F6.8909125299999996
sVz
F3.1764559999999999
ssg56
I00
sg57
(dp3049
g71
VCLG LethuL HCS
p3050
sg73
Nssg59
(lp3051
sg61
(lp3052
(dp3053
g71
VE6 Shooter
p3054
sg73
Nsasg63
I01
sg35
VPT4M27.144163S
p3055
sg32
VDeath
p3056
sg66
I1
sa(dp3057
g32
VMedal
p3058
sg69
(dp3059
g71
VE6 Huke HCS
p3060
sg73
Nssg255
I3261908037
sg35
VPT4M27.1451882S
p3061
sa(dp3062
g68
I4096745987
sg32
VWeaponDrop
p3063
sg210
I22
sg74
(lp3064
I2758383128
asg35
VPT4M27.1461867S
p3065
sg213
I15
sg214
VP0DT0H0M46.6500S
p3066
sg69
(dp3067
g71
VCLG LethuL HCS
p3068
sg73
Nssa(dp3069
g68
I313138863
sg32
VWeaponDrop
p3070
sg210
I8
sg74
(lp3071
I1095363701
asg35
VPT4M27.1461867S
p3072
sg213
I6
sg214
VP0DT0H0M6.3667S
p3073
sg69
(dp3074
g71
VCLG LethuL HCS
p3075
sg73
Nssa(dp3076
g38
I2133511419
sg39
I00
sg40
I00
sg41
(dp3077
g71
VCLG Royal 2
p3078
sg73
Nssg45
(lp3079
I2758383128
asg47
I00
sg48
I01
sg49
I1
sg50
I0
sg51
I1
sg52
(dp3080
Vy
F-5.154935
sVx
F2.55029321
sVz
F0.74421155500000002
ssg54
(dp3081
Vy
F-9.3752619999999993
sVx
F2.5301787899999999
sVz
F1.0786297300000001
ssg56
I00
sg57
(dp3082
g71
VE6 Cratos HCS
p3083
sg73
Nssg59
(lp3084
sg61
(lp3085
(dp3086
g71
VCLG Snake Bite
p3087
sg73
Nsasg63
I00
sg35
VPT4M30.5440765S
p3088
sg32
VDeath
p3089
sg66
I1
sa(dp3090
g68
I2133511419
sg32
VWeaponDrop
p3091
sg210
I0
sg74
(lp3092
I2758383128
asg35
VPT4M30.5450987S
p3093
sg213
I0
sg214
VP0DT0H0M0.9833S
p3094
sg69
(dp3095
g71
VE6 Cratos HCS
p3096
sg73
Nssa(dp3097
g68
I4096745987
sg32
VWeaponDrop
p3098
sg210
I10
sg74
(lp3099
I2758383128
asg35
VPT4M30.5450987S
p3100
sg213
I5
sg214
VP0DT0H0M17.0000S
p3101
sg69
(dp3102
g71
VE6 Cratos HCS
p3103
sg73
Nssa(dp3104
g38
I4096745987
sg39
I00
sg40
I00
sg41
(dp3105
g71
VE6 Cratos HCS
p3106
sg73
Nssg45
(lp3107
I2758383128
asg47
I00
sg48
I01
sg49
I1
sg50
I0
sg51
I1
sg52
(dp3108
Vy
F-10.2467966
sVx
F1.4253469999999999
sVz
F1.80070424
ssg54
(dp3109
Vy
F-5.3970684999999996
sVx
F2.63756776
sVz
F1.1767209999999999
ssg56
I00
sg57
(dp3110
g71
VCLG Royal 2
p3111
sg73
Nssg59
(lp3112
sg61
(lp3113
sg63
I00
sg35
VPT4M31.1600603S
p3114
sg32
VDeath
p3115
sg66
I1
sa(dp3116
g32
VMedal
p3117
sg69
(dp3118
g71
VE6 Cratos HCS
p3119
sg73
Nssg255
I285057226
sg35
VPT4M31.1620841S
p3120
sa(dp3121
g68
I2133511419
sg32
VWeaponDrop
p3122
sg210
I17
sg74
(lp3123
I2758383128
asg35
VPT4M31.1620841S
p3124
sg213
I7
sg214
VP0DT0H0M4.8000S
p3125
sg69
(dp3126
g71
VCLG Royal 2
p3127
sg73
Nssa(dp3128
g68
I4096745987
sg32
VWeaponDrop
p3129
sg210
I22
sg74
(lp3130
I2758383128
asg35
VPT4M31.1620841S
p3131
sg213
I8
sg214
VP0DT0H1M1.1333S
p3132
sg69
(dp3133
g71
VCLG Royal 2
p3134
sg73
Nssa(dp3135
g68
I313138863
sg69
(dp3136
g71
VCLG Frosty HCS
p3137
sg73
Nssg74
(lp3138
I1095363701
asg32
VWeaponPickup
p3139
sg35
VPT4M32.2440322S
p3140
sa(dp3141
g68
I4096745987
sg69
(dp3142
g71
VCLG Frosty HCS
p3143
sg73
Nssg74
(lp3144
I2758383128
asg32
VWeaponPickup
p3145
sg35
VPT4M32.2450541S
p3146
sa(dp3147
g32
VPlayerSpawn
p3148
sg69
(dp3149
g71
VCLG Frosty HCS
p3150
sg73
Nssg35
VPT4M32.2450541S
p3151
sa(dp3152
g38
I4096745987
sg39
I00
sg40
I00
sg41
(dp3153
g71
VE6 bubu dubu
p3154
sg73
Nssg45
(lp3155
I2758383128
asg47
I00
sg48
I01
sg49
I1
sg50
I0
sg51
I1
sg52
(dp3156
Vy
F8.9153769999999994
sVx
F-14.2826424
sVz
F0.9116708
ssg54
(dp3157
Vy
F-2.7069842799999999
sVx
F-3.56179786
sVz
F0.26810127499999997
ssg56
I00
sg57
(dp3158
g71
VCLG Snake Bite
p3159
sg73
Nssg59
(lp3160
sg61
(lp3161
(dp3162
g71
VE6 Huke HCS
p3163
sg73
Nsa(dp3164
g71
VE6 Shooter
p3165
sg73
Nsasg63
I01
sg35
VPT4M33.5939977S
p3166
sg32
VDeath
p3167
sg66
I1
sa(dp3168
g32
VMedal
p3169
sg69
(dp3170
g71
VE6 bubu dubu
p3171
sg73
Nssg255
I352859864
sg35
VPT4M33.5939977S
p3172
sa(dp3173
g32
VImpulse
p3174
sg69
(dp3175
g71
VE6 bubu dubu
p3176
sg73
Nssg293
I2556889090
sg35
VPT4M33.5939977S
p3177
sa(dp3178
g32
VMedal
p3179
sg69
(dp3180
g71
VE6 bubu dubu
p3181
sg73
Nssg255
I3261908037
sg35
VPT4M33.5959976S
p3182
sa(dp3183
g68
I4054937266
sg32
VWeaponDrop
p3184
sg210
I23
sg74
(lp3185
I2758383128
asg35
VPT4M33.5959976S
p3186
sg213
I6
sg214
VP0DT0H0M14.6000S
p3187
sg69
(dp3188
g71
VCLG Snake Bite
p3189
sg73
Nssa(dp3190
g68
I4096745987
sg32
VWeaponDrop
p3191
sg210
I8
sg74
(lp3192
I2758383128
asg35
VPT4M33.5959976S
p3193
sg213
I3
sg214
VP0DT0H0M22.0000S
p3194
sg69
(dp3195
g71
VCLG Snake Bite
p3196
sg73
Nssa(dp3197
g38
I4054937266
sg39
I00
sg40
I00
sg41
(dp3198
g71
VCLG Snake Bite
p3199
sg73
Nssg45
(lp3200
I2758383128
asg47
I00
sg48
I01
sg49
I1
sg50
I0
sg51
I1
sg52
(dp3201
Vy
F-3.31912947
sVx
F-2.33095455
sVz
F-0.23026078899999999
ssg54
(dp3202
Vy
F6.0391310000000002
sVx
F-3.7011675799999999
sVz
F0.028992831699999999
ssg56
I00
sg57
(dp3203
g71
VE6 Shooter
p3204
sg73
Nssg59
(lp3205
sg61
(lp3206
sg63
I00
sg35
VPT4M34.2599798S
p3207
sg32
VDeath
p3208
sg66
I1
sa(dp3209
g32
VMedal
p3210
sg69
(dp3211
g71
VCLG Snake Bite
p3212
sg73
Nssg255
I285057226
sg35
VPT4M34.2610029S
p3213
sa(dp3214
g68
I313138863
sg32
VWeaponDrop
p3215
sg210
I0
sg74
(lp3216
I1095363701
asg35
VPT4M34.2610029S
p3217
sg213
I0
sg214
VP0DT0H0M1.1667S
p3218
sg69
(dp3219
g71
VE6 Shooter
p3220
sg73
Nssa(dp3221
g68
I4096745987
sg32
VWeaponDrop
p3222
sg210
I21
sg74
(lp3223
I2758383128
asg35
VPT4M34.2610029S
p3224
sg213
I10
sg214
VP0DT0H0M34.2167S
p3225
sg69
(dp3226
g71
VE6 Shooter
p3227
sg73
Nssa(dp3228
g68
I313138863
sg69
(dp3229
g71
VCLG LethuL HCS
p3230
sg73
Nssg74
(lp3231
I1095363701
asg32
VWeaponPickup
p3232
sg35
VPT4M35.1609575S
p3233
sa(dp3234
g68
I4096745987
sg69
(dp3235
g71
VCLG LethuL HCS
p3236
sg73
Nssg74
(lp3237
I2758383128
asg32
VWeaponPickup
p3238
sg35
VPT4M35.1609575S
p3239
sa(dp3240
g32
VPlayerSpawn
p3241
sg69
(dp3242
g71
VCLG LethuL HCS
p3243
sg73
Nssg35
VPT4M35.1609575S
p3244
sa(dp3245
g68
I2492868984
sg69
(dp3246
g71
VE6 bubu dubu
p3247
sg73
Nssg74
(lp3248
I2758383128
asg32
VWeaponPickup
p3249
sg35
VPT4M36.9099132S
p3250
sa(dp3251
g68
I2492868984
sg32
VWeaponDrop
p3252
sg210
I0
sg74
(lp3253
I2758383128
asg35
VPT4M38.0438827S
p3254
sg213
I0
sg214
VP0DT0H0M0.9833S
p3255
sg69
(dp3256
g71
VE6 bubu dubu
p3257
sg73
Nssa(dp3258
g68
I313138863
sg69
(dp3259
g71
VE6 Cratos HCS
p3260
sg73
Nssg74
(lp3261
I1095363701
asg32
VWeaponPickup
p3262
sg35
VPT4M38.5608707S
p3263
sa(dp3264
g68
I4096745987
sg69
(dp3265
g71
VE6 Cratos HCS
p3266
sg73
Nssg74
(lp3267
I2758383128
asg32
VWeaponPickup
p3268
sg35
VPT4M38.5618898S
p3269
sa(dp3270
g32
VPlayerSpawn
p3271
sg69
(dp3272
g71
VE6 Cratos HCS
p3273
sg73
Nssg35
VPT4M38.5618898S
p3274
sa(dp3275
g68
I313138863
sg69
(dp3276
g71
VCLG Royal 2
p3277
sg73
Nssg74
(lp3278
I1095363701
asg32
VWeaponPickup
p3279
sg35
VPT4M39.1768555S
p3280
sa(dp3281
g68
I4096745987
sg69
(dp3282
g71
VCLG Royal 2
p3283
sg73
Nssg74
(lp3284
I2758383128
asg32
VWeaponPickup
p3285
sg35
VPT4M39.1778772S
p3286
sa(dp3287
g32
VPlayerSpawn
p3288
sg69
(dp3289
g71
VCLG Royal 2
p3290
sg73
Nssg35
VPT4M39.1778772S
p3291
sa(dp3292
g68
I313138863
sg32
VWeaponDrop
p3293
sg210
I0
sg74
(lp3294
I1095363701
asg35
VPT4M41.0918293S
p3295
sg213
I0
sg214
VP0DT0H0M3.1667S
p3296
sg69
(dp3297
g71
VCLG Frosty HCS
p3298
sg73
Nssa(dp3299
g68
I424645655
sg69
(dp3300
g71
VCLG Frosty HCS
p3301
sg73
Nssg74
(lp3302
I1327094800
asg32
VWeaponPickup
p3303
sg35
VPT4M41.0928084S
p3304
sa(dp3305
g68
I313138863
sg69
(dp3306
g71
VCLG Snake Bite
p3307
sg73
Nssg74
(lp3308
I1095363701
asg32
VWeaponPickup
p3309
sg35
VPT4M41.6108165S
p3310
sa(dp3311
g68
I4096745987
sg69
(dp3312
g71
VCLG Snake Bite
p3313
sg73
Nssg74
(lp3314
I2758383128
asg32
VWeaponPickup
p3315
sg35
VPT4M41.6108165S
p3316
sa(dp3317
g32
VPlayerSpawn
p3318
sg69
(dp3319
g71
VCLG Snake Bite
p3320
sg73
Nssg35
VPT4M41.6108165S
p3321
sa(dp3322
g68
I313138863
sg69
(dp3323
g71
VE6 Shooter
p3324
sg73
Nssg74
(lp3325
I1095363701
asg32
VWeaponPickup
p3326
sg35
VPT4M42.2767759S
p3327
sa(dp3328
g68
I4096745987
sg69
(dp3329
g71
VE6 Shooter
p3330
sg73
Nssg74
(lp3331
I2758383128
asg32
VWeaponPickup
p3332
sg35
VPT4M42.2778007S
p3333
sa(dp3334
g32
VPlayerSpawn
p3335
sg69
(dp3336
g71
VE6 Shooter
p3337
sg73
Nssg35
VPT4M42.2778007S
p3338
sa(dp3339
g68
I313138863
sg32
VWeaponDrop
p3340
sg210
I0
sg74
(lp3341
I1095363701
asg35
VPT4M42.3257743S
p3342
sg213
I0
sg214
VP0DT0H0M1.9000S
p3343
sg69
(dp3344
g71
VE6 Huke HCS
p3345
sg73
Nssa(dp3346
g68
I524558978
sg69
(dp3347
g71
VE6 Huke HCS
p3348
sg73
Nssg74
(lp3349
I2758383128
asg32
VWeaponPickup
p3350
sg35
VPT4M42.3257743S
p3351
sa(dp3352
g68
I313138863
sg32
VWeaponDrop
p3353
sg210
I0
sg74
(lp3354
I1095363701
asg35
VPT4M42.5587917S
p3355
sg213
I0
sg214
VP0DT0H0M1.1500S
p3356
sg69
(dp3357
g71
VE6 bubu dubu
p3358
sg73
Nssa(dp3359
g68
I2133511419
sg69
(dp3360
g71
VE6 bubu dubu
p3361
sg73
Nssg74
(lp3362
I2758383128
asg32
VWeaponPickup
p3363
sg35
VPT4M42.5587917S
p3364
sa(dp3365
g68
I4096745987
sg32
VWeaponDrop
p3366
sg210
I6
sg74
(lp3367
I2758383128
asg35
VPT4M47.0246762S
p3368
sg213
I3
sg214
VP0DT0H0M7.6000S
p3369
sg69
(dp3370
g71
VE6 Cratos HCS
p3371
sg73
Nssa(dp3372
g68
I424645655
sg69
(dp3373
g71
VE6 Cratos HCS
p3374
sg73
Nssg74
(lp3375
I1327094800
asg32
VWeaponPickup
p3376
sg35
VPT4M47.025654S
p3377
sa(dp3378
g38
I4096745987
sg39
I00
sg40
I00
sg41
(dp3379
g71
VE6 bubu dubu
p3380
sg73
Nssg45
(lp3381
I2758383128
asg47
I00
sg48
I01
sg49
I1
sg50
I0
sg51
I1
sg52
(dp3382
Vy
F-9.4385604900000004
sVx
F-6.1610526999999999
sVz
F-0.025823891200000001
ssg54
(dp3383
Vy
F-15.3759861
sVx
F-5.4314220000000004
sVz
F0.71715200000000001
ssg56
I00
sg57
(dp3384
g71
VCLG LethuL HCS
p3385
sg73
Nssg59
(lp3386
sg61
(lp3387
sg63
I01
sg35
VPT4M51.7925319S
p3388
sg32
VDeath
p3389
sg66
I1
sa(dp3390
g32
VImpulse
p3391
sg69
(dp3392
g71
VE6 bubu dubu
p3393
sg73
Nssg293
I3174430457
sg35
VPT4M51.7935563S
p3394
sa(dp3395
g32
VMedal
p3396
sg69
(dp3397
g71
VE6 bubu dubu
p3398
sg73
Nssg255
I3653057799
sg35
VPT4M51.7945556S
p3399
sa(dp3400
g68
I313138863
sg32
VWeaponDrop
p3401
sg210
I0
sg74
(lp3402
I1095363701
asg35
VPT4M51.7945556S
p3403
sg213
I0
sg214
VP0DT0H0M2.6000S
p3404
sg69
(dp3405
g71
VCLG LethuL HCS
p3406
sg73
Nssa(dp3407
g68
I4096745987
sg32
VWeaponDrop
p3408
sg210
I10
sg74
(lp3409
I2758383128
asg35
VPT4M51.7945556S
p3410
sg213
I7
sg214
VP0DT0H0M14.0333S
p3411
sg69
(dp3412
g71
VCLG LethuL HCS
p3413
sg73
Nssa(dp3414
g38
I313138863
sg39
I00
sg40
I01
sg41
(dp3415
g71
VCLG Snake Bite
p3416
sg73
Nssg45
(lp3417
I1095363701
asg47
I00
sg48
I00
sg49
I1
sg50
I0
sg51
I1
sg52
(dp3418
Vy
F-7.6857860000000002
sVx
F-6.7721580000000001
sVz
F-0.00079891085599999995
ssg54
(dp3419
Vy
F-7.7190833100000003
sVx
F-6.4109892799999999
sVz
F0.19321286700000001
ssg56
I00
sg57
(dp3420
g71
VE6 bubu dubu
p3421
sg73
Nssg59
(lp3422
sg61
(lp3423
(dp3424
g71
VCLG Royal 2
p3425
sg73
Nsasg63
I00
sg35
VPT4M53.1754984S
p3426
sg32
VDeath
p3427
sg66
I1
sa(dp3428
g32
VMedal
p3429
sg69
(dp3430
g71
VCLG Snake Bite
p3431
sg73
Nssg255
I2287626681
sg35
VPT4M53.177522S
p3432
sa(dp3433
g68
I4096745987
sg32
VWeaponDrop
p3434
sg210
I23
sg74
(lp3435
I2758383128
asg35
VPT4M53.1785219S
p3436
sg213
I12
sg214
VP0DT0H0M36.0667S
p3437
sg69
(dp3438
g71
VE6 bubu dubu
p3439
sg73
Nssa(dp3440
g68
I2133511419
sg32
VWeaponDrop
p3441
sg210
I7
sg74
(lp3442
I2758383128
asg35
VPT4M53.1785219S
p3443
sg213
I0
sg214
VP0DT0H0M2.3167S
p3444
sg69
(dp3445
g71
VE6 bubu dubu
p3446
sg73
Nssa(dp3447
g68
I313138863
sg69
(dp3448
g71
VCLG LethuL HCS
p3449
sg73
Nssg74
(lp3450
I1095363701
asg32
VWeaponPickup
p3451
sg35
VPT4M59.809345S
p3452
sa(dp3453
g68
I4096745987
sg69
(dp3454
g71
VCLG LethuL HCS
p3455
sg73
Nssg74
(lp3456
I2758383128
asg32
VWeaponPickup
p3457
sg35
VPT4M59.809345S
p3458
sa(dp3459
g32
VPlayerSpawn
p3460
sg69
(dp3461
g71
VCLG LethuL HCS
p3462
sg73
Nssg35
VPT4M59.809345S
p3463
sa(dp3464
g38
I313138863
sg39
I00
sg40
I00
sg41
(dp3465
g71
VE6 Shooter
p3466
sg73
Nssg45
(lp3467
I1095363701
asg47
I00
sg48
I01
sg49
I1
sg50
I0
sg51
I1
sg52
(dp3468
Vy
F-7.918857
sVx
F-3.6925530000000002
sVz
F2.9325084700000001
ssg54
(dp3469
Vy
F-11.5828829
sVx
F-6.2447257
sVz
F2.7745630000000001
ssg56
I00
sg57
(dp3470
g71
VCLG Frosty HCS
p3471
sg73
Nssg59
(lp3472
sg61
(lp3473
sg63
I00
sg35
VPT5M0.7423025S
p3474
sg32
VDeath
p3475
sg66
I1
sa(dp3476
g68
I424645655
sg32
VWeaponDrop
p3477
sg210
I10
sg74
(lp3478
I1327094800
asg35
VPT5M0.7443204S
p3479
sg213
I9
sg214
VP0DT0H0M19.6500S
p3480
sg69
(dp3481
g71
VCLG Frosty HCS
p3482
sg73
Nssa(dp3483
g68
I4096745987
sg32
VWeaponDrop
p3484
sg210
I1
sg74
(lp3485
I2758383128
asg35
VPT5M0.7443204S
p3486
sg213
I0
sg214
VP0DT0H0M5.6833S
p3487
sg69
(dp3488
g71
VCLG Frosty HCS
p3489
sg73
Nssa(dp3490
g68
I313138863
sg69
(dp3491
g71
VE6 bubu dubu
p3492
sg73
Nssg74
(lp3493
I1095363701
asg32
VWeaponPickup
p3494
sg35
VPT5M1.192309S
p3495
sa(dp3496
g68
I4096745987
sg69
(dp3497
g71
VE6 bubu dubu
p3498
sg73
Nssg74
(lp3499
I2758383128
asg32
VWeaponPickup
p3500
sg35
VPT5M1.192309S
p3501
sa(dp3502
g32
VPlayerSpawn
p3503
sg69
(dp3504
g71
VE6 bubu dubu
p3505
sg73
Nssg35
VPT5M1.192309S
p3506
sa(dp3507
g32
VMedal
p3508
sg69
(dp3509
g71
VCLG Snake Bite
p3510
sg73
Nssg255
I3400287617
sg35
VPT5M2.6082551S
p3511
sa(dp3512
g38
I313138863
sg39
I00
sg40
I00
sg41
(dp3513
g71
VCLG Snake Bite
p3514
sg73
Nssg45
(lp3515
I1095363701
asg47
I00
sg48
I01
sg49
I1
sg50
I0
sg51
I1
sg52
(dp3516
Vy
F-6.0315789999999998
sVx
F-1.7988207300000001
sVz
F0.012396335600000001
ssg54
(dp3517
Vy
F-7.270683
sVx
F-4.4997619999999996
sVz
F0.40270339999999999
ssg56
I00
sg57
(dp3518
g71
VE6 Shooter
p3519
sg73
Nssg59
(lp3520
sg61
(lp3521
(dp3522
g71
VCLG Frosty HCS
p3523
sg73
Nsasg63
I00
sg35
VPT5M4.125216S
p3524
sg32
VDeath
p3525
sg66
I1
sa(dp3526
g68
I313138863
sg32
VWeaponDrop
p3527
sg210
I24
sg74
(lp3528
I1095363701
asg35
VPT5M4.1272394S
p3529
sg213
I20
sg214
VP0DT0H0M7.1667S
p3530
sg69
(dp3531
g71
VE6 Shooter
p3532
sg73
Nssa(dp3533
g68
I4096745987
sg32
VWeaponDrop
p3534
sg210
I3
sg74
(lp3535
I2758383128
asg35
VPT5M4.1272394S
p3536
sg213
I1
sg214
VP0DT0H0M14.6833S
p3537
sg69
(dp3538
g71
VE6 Shooter
p3539
sg73
Nssa(dp3540
g38
I424645655
sg39
I00
sg40
I00
sg41
(dp3541
g71
VE6 Cratos HCS
p3542
sg73
Nssg45
(lp3543
I1327094800
asg47
I00
sg48
I01
sg49
I1
sg50
I0
sg51
I1
sg52
(dp3544
Vy
F-12.5094881
sVx
F-11.8127031
sVz
F2.04029441
ssg54
(dp3545
Vy
F-17.694313000000001
sVx
F-1.81881034
sVz
F1.790729
ssg56
I00
sg57
(dp3546
g71
VCLG Royal 2
p3547
sg73
Nssg59
(lp3548
sg61
(lp3549
(dp3550
g71
VE6 Huke HCS
p3551
sg73
Nsasg63
I01
sg35
VPT5M4.9911941S
p3552
sg32
VDeath
p3553
sg66
I1
sa(dp3554
g32
VMedal
p3555
sg69
(dp3556
g71
VE6 Cratos HCS
p3557
sg73
Nssg255
I3261908037
sg35
VPT5M4.9932167S
p3558
sa(dp3559
g68
I313138863
sg32
VWeaponDrop
p3560
sg210
I0
sg74
(lp3561
I1095363701
asg35
VPT5M4.9932167S
p3562
sg213
I0
sg214
VP0DT0H0M2.8833S
p3563
sg69
(dp3564
g71
VCLG Royal 2
p3565
sg73
Nssa(dp3566
g68
I4096745987
sg32
VWeaponDrop
p3567
sg210
I20
sg74
(lp3568
I2758383128
asg35
VPT5M4.9932167S
p3569
sg213
I12
sg214
VP0DT0H0M22.9333S
p3570
sg69
(dp3571
g71
VCLG Royal 2
p3572
sg73
Nssa(dp3573
g68
I313138863
sg69
(dp3574
g71
VCLG Frosty HCS
p3575
sg73
Nssg74
(lp3576
I1095363701
asg32
VWeaponPickup
p3577
sg35
VPT5M8.7580968S
p3578
sa(dp3579
g68
I4096745987
sg69
(dp3580
g71
VCLG Frosty HCS
p3581
sg73
Nssg74
(lp3582
I2758383128
asg32
VWeaponPickup
p3583
sg35
VPT5M8.7591206S
p3584
sa(dp3585
g32
VPlayerSpawn
p3586
sg69
(dp3587
g71
VCLG Frosty HCS
p3588
sg73
Nssg35
VPT5M8.7591206S
p3589
sa(dp3590
g32
VMedal
p3591
sg69
(dp3592
g71
VCLG Snake Bite
p3593
sg73
Nssg255
I3400287617
sg35
VPT5M11.8740171S
p3594
sa(dp3595
g38
I4096745987
sg39
I00
sg40
I00
sg41
(dp3596
g71
VE6 bubu dubu
p3597
sg73
Nssg45
(lp3598
I2758383128
asg47
I00
sg48
I01
sg49
I1
sg50
I0
sg51
I1
sg52
(dp3599
Vy
F3.5857549999999998
sVx
F-19.175129999999999
sVz
F2.9157714800000001
ssg54
(dp3600
Vy
F-2.1727392700000001
sVx
F-19.098966600000001
sVz
F3.8535008400000001
ssg56
I00
sg57
(dp3601
g71
VCLG LethuL HCS
p3602
sg73
Nssg59
(lp3603
sg61
(lp3604
sg63
I01
sg35
VPT5M11.9580154S
p3605
sg32
VDeath
p3606
sg66
I1
sa(dp3607
g32
VImpulse
p3608
sg69
(dp3609
g71
VE6 bubu dubu
p3610
sg73
Nssg293
I3174430457
sg35
VPT5M11.9590351S
p3611
sa(dp3612
g32
VMedal
p3613
sg69
(dp3614
g71
VE6 bubu dubu
p3615
sg73
Nssg255
I3653057799
sg35
VPT5M11.9600345S
p3616
sa(dp3617
g68
I313138863
sg32
VWeaponDrop
p3618
sg210
I0
sg74
(lp3619
I1095363701
asg35
VPT5M11.9600345S
p3620
sg213
I0
sg214
VP0DT0H0M0.7833S
p3621
sg69
(dp3622
g71
VCLG LethuL HCS
p3623
sg73
Nssa(dp3624
g68
I4096745987
sg32
VWeaponDrop
p3625
sg210
I1
sg74
(lp3626
I2758383128
asg35
VPT5M11.9600345S
p3627
sg213
I0
sg214
VP0DT0H0M11.3667S
p3628
sg69
(dp3629
g71
VCLG LethuL HCS
p3630
sg73
Nssa(dp3631
g68
I313138863
sg69
(dp3632
g71
VE6 Shooter
p3633
sg73
Nssg74
(lp3634
I1095363701
asg32
VWeaponPickup
p3635
sg35
VPT5M12.1420462S
p3636
sa(dp3637
g68
I4096745987
sg69
(dp3638
g71
VE6 Shooter
p3639
sg73
Nssg74
(lp3640
I2758383128
asg32
VWeaponPickup
p3641
sg35
VPT5M12.1420462S
p3642
sa(dp3643
g32
VPlayerSpawn
p3644
sg69
(dp3645
g71
VE6 Shooter
p3646
sg73
Nssg35
VPT5M12.1420462S
p3647
sa(dp3648
g68
I313138863
sg69
(dp3649
g71
VCLG Royal 2
p3650
sg73
Nssg74
(lp3651
I1095363701
asg32
VWeaponPickup
p3652
sg35
VPT5M13.0089891S
p3653
sa(dp3654
g68
I4096745987
sg69
(dp3655
g71
VCLG Royal 2
p3656
sg73
Nssg74
(lp3657
I2758383128
asg32
VWeaponPickup
p3658
sg35
VPT5M13.0089891S
p3659
sa(dp3660
g32
VPlayerSpawn
p3661
sg69
(dp3662
g71
VCLG Royal 2
p3663
sg73
Nssg35
VPT5M13.0089891S
p3664
sa(dp3665
g68
I313138863
sg32
VWeaponDrop
p3666
sg210
I13
sg74
(lp3667
I1095363701
asg35
VPT5M14.3229772S
p3668
sg213
I8
sg214
VP0DT0H0M22.5500S
p3669
sg69
(dp3670
g71
VCLG Snake Bite
p3671
sg73
Nssa(dp3672
g68
I313138863
sg32
VWeaponDrop
p3673
sg210
I0
sg74
(lp3674
I1095363701
asg35
VPT5M14.3229772S
p3675
sg213
I0
sg214
VP0DT0S
p3676
sg69
(dp3677
g71
VCLG Snake Bite
p3678
sg73
Nssa(dp3679
g68
I4153405209
sg69
(dp3680
g71
VCLG Snake Bite
p3681
sg73
Nssg74
(lp3682
I2758383128
asg32
VWeaponPickup
p3683
sg35
VPT5M14.3239814S
p3684
sa(dp3685
g68
I313138863
sg32
VWeaponDrop
p3686
sg210
I1
sg74
(lp3687
I1095363701
asg35
VPT5M17.0748842S
p3688
sg213
I1
sg214
VPT0S
p3689
sg69
(dp3690
g71
VE6 bubu dubu
p3691
sg73
Nssa(dp3692
g68
I4153405209
sg32
VWeaponDrop
p3693
sg210
I0
sg74
(lp3694
I2758383128
asg35
VPT5M18.5398662S
p3695
sg213
I0
sg214
VP0DT0H0M1.4333S
p3696
sg69
(dp3697
g71
VCLG Snake Bite
p3698
sg73
Nssa(dp3699
g68
I2133511419
sg69
(dp3700
g71
VCLG Snake Bite
p3701
sg73
Nssg74
(lp3702
I2758383128
asg32
VWeaponPickup
p3703
sg35
VPT5M18.5398662S
p3704
sa(dp3705
g68
I313138863
sg69
(dp3706
g71
VCLG LethuL HCS
p3707
sg73
Nssg74
(lp3708
I1095363701
asg32
VWeaponPickup
p3709
sg35
VPT5M19.9748345S
p3710
sa(dp3711
g68
I4096745987
sg69
(dp3712
g71
VCLG LethuL HCS
p3713
sg73
Nssg74
(lp3714
I2758383128
asg32
VWeaponPickup
p3715
sg35
VPT5M19.9748345S
p3716
sa(dp3717
g32
VPlayerSpawn
p3718
sg69
(dp3719
g71
VCLG LethuL HCS
p3720
sg73
Nssg35
VPT5M19.9748345S
p3721
sa(dp3722
g38
I4096745987
sg39
I00
sg40
I00
sg41
(dp3723
g71
VCLG Snake Bite
p3724
sg73
Nssg45
(lp3725
I2758383128
asg47
I00
sg48
I01
sg49
I1
sg50
I0
sg51
I1
sg52
(dp3726
Vy
F4.853745
sVx
F4.1938142799999998
sVz
F0.97286680000000003
ssg54
(dp3727
Vy
F8.2503220000000006
sVx
F-9.7589959999999998
sVz
F2.9793729999999998
ssg56
I00
sg57
(dp3728
g71
VE6 bubu dubu
p3729
sg73
Nssg59
(lp3730
sg61
(lp3731
(dp3732
g71
VCLG Royal 2
p3733
sg73
Nsa(dp3734
g71
VCLG Frosty HCS
p3735
sg73
Nsasg63
I00
sg35
VPT5M23.9567144S
p3736
sg32
VDeath
p3737
sg66
I1
sa(dp3738
g68
I313138863
sg32
VWeaponDrop
p3739
sg210
I0
sg74
(lp3740
I1095363701
asg35
VPT5M23.9587106S
p3741
sg213
I0
sg214
VP0DT0H0M3.5000S
p3742
sg69
(dp3743
g71
VE6 bubu dubu
p3744
sg73
Nssa(dp3745
g68
I4096745987
sg32
VWeaponDrop
p3746
sg210
I11
sg74
(lp3747
I2758383128
asg35
VPT5M23.9587106S
p3748
sg213
I9
sg214
VP0DT0H0M19.2667S
p3749
sg69
(dp3750
g71
VE6 bubu dubu
p3751
sg73
Nssa(dp3752
g38
I4096745987
sg39
I00
sg40
I00
sg41
(dp3753
g71
VE6 Shooter
p3754
sg73
Nssg45
(lp3755
I2758383128
asg47
I00
sg48
I01
sg49
I1
sg50
I0
sg51
I1
sg52
(dp3756
Vy
F4.2443866699999999
sVx
F-19.455272699999998
sVz
F2.7661273500000001
ssg54
(dp3757
Vy
F7.8185750000000001
sVx
F-16.7249756
sVz
F1.3819322599999999
ssg56
I00
sg57
(dp3758
g71
VCLG Frosty HCS
p3759
sg73
Nssg59
(lp3760
sg61
(lp3761
sg63
I01
sg35
VPT5M24.390697S
p3762
sg32
VDeath
p3763
sg66
I1
sa(dp3764
g32
VMedal
p3765
sg69
(dp3766
g71
VE6 Shooter
p3767
sg73
Nssg255
I3261908037
sg35
VPT5M24.392715S
p3768
sa(dp3769
g68
I313138863
sg32
VWeaponDrop
p3770
sg210
I13
sg74
(lp3771
I1095363701
asg35
VPT5M24.3937159S
p3772
sg213
I6
sg214
VP0DT0H0M5.9333S
p3773
sg69
(dp3774
g71
VCLG Frosty HCS
p3775
sg73
Nssa(dp3776
g68
I4096745987
sg32
VWeaponDrop
p3777
sg210
I0
sg74
(lp3778
I2758383128
asg35
VPT5M24.3937159S
p3779
sg213
I0
sg214
VP0DT0H0M9.7000S
p3780
sg69
(dp3781
g71
VCLG Frosty HCS
p3782
sg73
Nssa(dp3783
g68
I4096745987
sg32
VWeaponDrop
p3784
sg210
I4
sg74
(lp3785
I2758383128
asg35
VPT5M29.4225679S
p3786
sg213
I2
sg214
VP0DT0H0M15.1333S
p3787
sg69
(dp3788
g71
VCLG Royal 2
p3789
sg73
Nssa(dp3790
g68
I424645655
sg69
(dp3791
g71
VCLG Royal 2
p3792
sg73
Nssg74
(lp3793
I1327094800
asg32
VWeaponPickup
p3794
sg35
VPT5M29.4225679S
p3795
sa(dp3796
g68
I313138863
sg69
(dp3797
g71
VE6 bubu dubu
p3798
sg73
Nssg74
(lp3799
I1095363701
asg32
VWeaponPickup
p3800
sg35
VPT5M31.9735036S
p3801
sa(dp3802
g68
I4096745987
sg69
(dp3803
g71
VE6 bubu dubu
p3804
sg73
Nssg74
(lp3805
I2758383128
asg32
VWeaponPickup
p3806
sg35
VPT5M31.9735036S
p3807
sa(dp3808
g32
VPlayerSpawn
p3809
sg69
(dp3810
g71
VE6 bubu dubu
p3811
sg73
Nssg35
VPT5M31.9735036S
p3812
sa(dp3813
g68
I313138863
sg69
(dp3814
g71
VCLG Frosty HCS
p3815
sg73
Nssg74
(lp3816
I1095363701
asg32
VWeaponPickup
p3817
sg35
VPT5M32.4075141S
p3818
sa(dp3819
g68
I4096745987
sg69
(dp3820
g71
VCLG Frosty HCS
p3821
sg73
Nssg74
(lp3822
I2758383128
asg32
VWeaponPickup
p3823
sg35
VPT5M32.4075141S
p3824
sa(dp3825
g32
VPlayerSpawn
p3826
sg69
(dp3827
g71
VCLG Frosty HCS
p3828
sg73
Nssg35
VPT5M32.4075141S
p3829
sa(dp3830
g68
I313138863
sg32
VWeaponDrop
p3831
sg210
I0
sg74
(lp3832
I1095363701
asg35
VPT5M35.1554415S
p3833
sg213
I0
sg214
VP0DT0H0M1.2167S
p3834
sg69
(dp3835
g71
VE6 bubu dubu
p3836
sg73
Nssa(dp3837
g68
I2133511419
sg69
(dp3838
g71
VE6 bubu dubu
p3839
sg73
Nssg74
(lp3840
I2758383128
asg32
VWeaponPickup
p3841
sg35
VPT5M35.1554415S
p3842
sa(dp3843
g38
I4096745987
sg39
I00
sg40
I00
sg41
(dp3844
g71
VE6 Huke HCS
p3845
sg73
Nssg45
(lp3846
I2758383128
asg47
I00
sg48
I01
sg49
I1
sg50
I0
sg51
I1
sg52
(dp3847
Vy
F-2.3849646999999998
sVx
F-9.6262039999999995
sVz
F3.1830387099999999
ssg54
(dp3848
Vy
F1.44341063
sVx
F-18.807390000000002
sVz
F3.38339686
ssg56
I00
sg57
(dp3849
g71
VCLG Snake Bite
p3850
sg73
Nssg59
(lp3851
sg61
(lp3852
sg63
I01
sg35
VPT5M36.0233994S
p3853
sg32
VDeath
p3854
sg66
I1
sa(dp3855
g32
VMedal
p3856
sg69
(dp3857
g71
VE6 Huke HCS
p3858
sg73
Nssg255
I2838259753
sg35
VPT5M36.0233994S
p3859
sa(dp3860
g32
VImpulse
p3861
sg69
(dp3862
g71
VE6 Huke HCS
p3863
sg73
Nssg293
I2556889090
sg35
VPT5M36.0233994S
p3864
sa(dp3865
g32
VMedal
p3866
sg69
(dp3867
g71
VE6 Shooter
p3868
sg73
Nssg255
I824733727
sg35
VPT5M36.0233994S
p3869
sa(dp3870
g32
VMedal
p3871
sg69
(dp3872
g71
VE6 Huke HCS
p3873
sg73
Nssg255
I3261908037
sg35
VPT5M36.0244195S
p3874
sa(dp3875
g68
I2133511419
sg32
VWeaponDrop
p3876
sg210
I21
sg74
(lp3877
I2758383128
asg35
VPT5M36.0254193S
p3878
sg213
I8
sg214
VP0DT0H0M5.3667S
p3879
sg69
(dp3880
g71
VCLG Snake Bite
p3881
sg73
Nssa(dp3882
g68
I4096745987
sg32
VWeaponDrop
p3883
sg210
I7
sg74
(lp3884
I2758383128
asg35
VPT5M36.0254193S
p3885
sg213
I3
sg214
VP0DT0H0M25.0667S
p3886
sg69
(dp3887
g71
VCLG Snake Bite
p3888
sg73
Nssa(dp3889
g68
I313138863
sg69
(dp3890
g71
VCLG Snake Bite
p3891
sg73
Nssg74
(lp3892
I1095363701
asg32
VWeaponPickup
p3893
sg35
VPT5M44.0402175S
p3894
sa(dp3895
g68
I4096745987
sg69
(dp3896
g71
VCLG Snake Bite
p3897
sg73
Nssg74
(lp3898
I2758383128
asg32
VWeaponPickup
p3899
sg35
VPT5M44.0402175S
p3900
sa(dp3901
g32
VPlayerSpawn
p3902
sg69
(dp3903
g71
VCLG Snake Bite
p3904
sg73
Nssg35
VPT5M44.0402175S
p3905
sa(dp3906
g68
I4096745987
sg32
VWeaponDrop
p3907
sg210
I0
sg74
(lp3908
I2758383128
asg35
VPT5M46.2211635S
p3909
sg213
I0
sg214
VP0DT0H0M3.7000S
p3910
sg69
(dp3911
g71
VE6 bubu dubu
p3912
sg73
Nssa(dp3913
g68
I424645655
sg69
(dp3914
g71
VE6 bubu dubu
p3915
sg73
Nssg74
(lp3916
I1327094800
asg32
VWeaponPickup
p3917
sg35
VPT5M46.2211635S
p3918
sa(dp3919
g38
I4096745987
sg39
I00
sg40
I00
sg41
(dp3920
g71
VCLG Snake Bite
p3921
sg73
Nssg45
(lp3922
I2758383128
asg47
I00
sg48
I01
sg49
I1
sg50
I0
sg51
I1
sg52
(dp3923
Vy
F14.724126800000001
sVx
F-3.7050700000000001
sVz
F-0.083107979999999998
ssg54
(dp3924
Vy
F2.9908337600000001
sVx
F-7.4490547200000004
sVz
F-0.084128530000000007
ssg56
I00
sg57
(dp3925
g71
VE6 Shooter
p3926
sg73
Nssg59
(lp3927
sg61
(lp3928
sg63
I01
sg35
VPT5M48.9560703S
p3929
sg32
VDeath
p3930
sg66
I1
sa(dp3931
g32
VMedal
p3932
sg69
(dp3933
g71
VCLG Snake Bite
p3934
sg73
Nssg255
I3261908037
sg35
VPT5M48.9570691S
p3935
sa(dp3936
g68
I4096745987
sg32
VWeaponDrop
p3937
sg210
I12
sg74
(lp3938
I2758383128
asg35
VPT5M48.9580688S
p3939
sg213
I5
sg214
VP0DT0H0M31.7333S
p3940
sg69
(dp3941
g71
VE6 Shooter
p3942
sg73
Nssa(dp3943
g68
I313138863
sg32
VWeaponDrop
p3944
sg210
I0
sg74
(lp3945
I1095363701
asg35
VPT5M48.9590698S
p3946
sg213
I0
sg214
VP0DT0H0M5.0833S
p3947
sg69
(dp3948
g71
VE6 Shooter
p3949
sg73
Nssa(dp3950
g68
I524558978
sg32
VWeaponDrop
p3951
sg210
I4
sg74
(lp3952
I2758383128
asg35
VPT5M50.9880167S
p3953
sg213
I0
sg214
VP0DT0H0M37.6000S
p3954
sg69
(dp3955
g71
VE6 Huke HCS
p3956
sg73
Nssa(dp3957
g68
I4153405209
sg69
(dp3958
g71
VE6 Huke HCS
p3959
sg73
Nssg74
(lp3960
I2758383128
asg32
VWeaponPickup
p3961
sg35
VPT5M50.9880167S
p3962
sa(dp3963
g38
I424645655
sg39
I00
sg40
I00
sg41
(dp3964
g71
VCLG Royal 2
p3965
sg73
Nssg45
(lp3966
I1327094800
asg47
I00
sg48
I01
sg49
I1
sg50
I0
sg51
I1
sg52
(dp3967
Vy
F6.8922610000000004
sVx
F4.8087520000000001
sVz
F0.98428490000000002
ssg54
(dp3968
Vy
F6.1632595099999996
sVx
F1.2281230700000001
sVz
F0.67140376599999996
ssg56
I00
sg57
(dp3969
g71
VE6 Cratos HCS
p3970
sg73
Nssg59
(lp3971
sg61
(lp3972
(dp3973
g71
VCLG Frosty HCS
p3974
sg73
Nsasg63
I01
sg35
VPT5M52.0050141S
p3975
sg32
VDeath
p3976
sg66
I1
sa(dp3977
g32
VMedal
p3978
sg69
(dp3979
g71
VCLG Royal 2
p3980
sg73
Nssg255
I3261908037
sg35
VPT5M52.0060159S
p3981
sa(dp3982
g68
I313138863
sg32
VWeaponDrop
p3983
sg210
I2
sg74
(lp3984
I1095363701
asg35
VPT5M52.0069903S
p3985
sg213
I0
sg214
VP0DT0H0M3.8500S
p3986
sg69
(dp3987
g71
VE6 Cratos HCS
p3988
sg73
Nssa(dp3989
g68
I424645655
sg32
VWeaponDrop
p3990
sg210
I63
sg74
(lp3991
I1327094800
asg35
VPT5M52.0069903S
p3992
sg213
I41
sg214
VP0DT0H1M2.0000S
p3993
sg69
(dp3994
g71
VE6 Cratos HCS
p3995
sg73
Nssa(dp3996
g68
I4096745987
sg32
VWeaponDrop
p3997
sg210
I9
sg74
(lp3998
I2758383128
asg35
VPT5M53.5709521S
p3999
sg213
I1
sg214
VP0DT0H0M33.2333S
p4000
sg69
(dp4001
g71
VCLG LethuL HCS
p4002
sg73
Nssa(dp4003
g68
I424645655
sg69
(dp4004
g71
VCLG LethuL HCS
p4005
sg73
Nssg74
(lp4006
I1327094800
asg32
VWeaponPickup
p4007
sg35
VPT5M53.5709521S
p4008
sa(dp4009
g68
I313138863
sg69
(dp4010
g71
VE6 Shooter
p4011
sg73
Nssg74
(lp4012
I1095363701
asg32
VWeaponPickup
p4013
sg35
VPT5M56.971864S
p4014
sa(dp4015
g68
I4096745987
sg69
(dp4016
g71
VE6 Shooter
p4017
sg73
Nssg74
(lp4018
I2758383128
asg32
VWeaponPickup
p4019
sg35
VPT5M56.971864S
p4020
sa(dp4021
g32
VPlayerSpawn
p4022
sg69
(dp4023
g71
VE6 Shooter
p4024
sg73
Nssg35
VPT5M56.971864S
p4025
sa(dp4026
g68
I313138863
sg69
(dp4027
g71
VE6 Cratos HCS
p4028
sg73
Nssg74
(lp4029
I1095363701
asg32
VWeaponPickup
p4030
sg35
VPT6M0.0178091S
p4031
sa(dp4032
g68
I4096745987
sg69
(dp4033
g71
VE6 Cratos HCS
p4034
sg73
Nssg74
(lp4035
I2758383128
asg32
VWeaponPickup
p4036
sg35
VPT6M0.0178091S
p4037
sa(dp4038
g32
VPlayerSpawn
p4039
sg69
(dp4040
g71
VE6 Cratos HCS
p4041
sg73
Nssg35
VPT6M0.0228367S
p4042
sa(dp4043
g38
I424645655
sg39
I00
sg40
I00
sg41
(dp4044
g71
VCLG Royal 2
p4045
sg73
Nssg45
(lp4046
I1327094800
asg47
I00
sg48
I01
sg49
I1
sg50
I0
sg51
I1
sg52
(dp4047
Vy
F7.9540639999999998
sVx
F8.6719539999999995
sVz
F3.8992307199999998
ssg54
(dp4048
Vy
F-12.8809261
sVx
F3.8558180000000002
sVz
F2.7203016299999998
ssg56
I00
sg57
(dp4049
g71
VE6 bubu dubu
p4050
sg73
Nssg59
(lp4051
sg61
(lp4052
(dp4053
g71
VCLG Frosty HCS
p4054
sg73
Nsasg63
I01
sg35
VPT6M0.2717787S
p4055
sg32
VDeath
p4056
sg66
I1
sa(dp4057
g32
VMedal
p4058
sg69
(dp4059
g71
VCLG Royal 2
p4060
sg73
Nssg255
I3261908037
sg35
VPT6M0.2738023S
p4061
sa(dp4062
g68
I2133511419
sg32
VWeaponDrop
p4063
sg210
I0
sg74
(lp4064
I2758383128
asg35
VPT6M0.2738023S
p4065
sg213
I0
sg214
VP0DT0H0M13.6667S
p4066
sg69
(dp4067
g71
VE6 bubu dubu
p4068
sg73
Nssa(dp4069
g68
I424645655
sg32
VWeaponDrop
p4070
sg210
I18
sg74
(lp4071
I1327094800
asg35
VPT6M0.2738023S
p4072
sg213
I6
sg214
VP0DT0H0M9.7167S
p4073
sg69
(dp4074
g71
VE6 bubu dubu
p4075
sg73
Nssa(dp4076
g38
I424645655
sg39
I00
sg40
I00
sg41
(dp4077
g71
VCLG LethuL HCS
p4078
sg73
Nssg45
(lp4079
I1327094800
asg47
I00
sg48
I01
sg49
I1
sg50
I0
sg51
I1
sg52
(dp4080
Vy
F-3.725965
sVx
F-5.2770333300000001
sVz
F4.5304060000000002
ssg54
(dp4081
Vy
F-8.2818280000000009
sVx
F-4.7404932999999998
sVz
F1.9943199199999999
ssg56
I00
sg57
(dp4082
g71
VE6 Cratos HCS
p4083
sg73
Nssg59
(lp4084
sg61
(lp4085
(dp4086
g71
VCLG Frosty HCS
p4087
sg73
Nsasg63
I01
sg35
VPT6M3.9546842S
p4088
sg32
VDeath
p4089
sg66
I1
sa(dp4090
g32
VMedal
p4091
sg69
(dp4092
g71
VCLG LethuL HCS
p4093
sg73
Nssg255
I3261908037
sg35
VPT6M3.9556863S
p4094
sa(dp4095
g68
I313138863
sg32
VWeaponDrop
p4096
sg210
I0
sg74
(lp4097
I1095363701
asg35
VPT6M3.9566849S
p4098
sg213
I0
sg214
VP0DT0H0M0.7833S
p4099
sg69
(dp4100
g71
VE6 Cratos HCS
p4101
sg73
Nssa(dp4102
g68
I4096745987
sg32
VWeaponDrop
p4103
sg210
I0
sg74
(lp4104
I2758383128
asg35
VPT6M3.9566849S
p4105
sg213
I0
sg214
VP0DT0H0M3.1500S
p4106
sg69
(dp4107
g71
VE6 Cratos HCS
p4108
sg73
Nssa(dp4109
g68
I313138863
sg69
(dp4110
g71
VE6 bubu dubu
p4111
sg73
Nssg74
(lp4112
I1095363701
asg32
VWeaponPickup
p4113
sg35
VPT6M8.288593S
p4114
sa(dp4115
g68
I4096745987
sg69
(dp4116
g71
VE6 bubu dubu
p4117
sg73
Nssg74
(lp4118
I2758383128
asg32
VWeaponPickup
p4119
sg35
VPT6M8.288593S
p4120
sa(dp4121
g32
VPlayerSpawn
p4122
sg69
(dp4123
g71
VE6 bubu dubu
p4124
sg73
Nssg35
VPT6M8.288593S
p4125
sa(dp4126
g38
I4096745987
sg39
I00
sg40
I00
sg41
(dp4127
g71
VCLG Frosty HCS
p4128
sg73
Nssg45
(lp4129
I2758383128
asg47
I00
sg48
I01
sg49
I1
sg50
I0
sg51
I1
sg52
(dp4130
Vy
F-16.351593000000001
sVx
F-4.2478394499999999
sVz
F2.2985129999999998
ssg54
(dp4131
Vy
F-11.952973399999999
sVx
F-11.8952446
sVz
F2.2815327600000002
ssg56
I00
sg57
(dp4132
g71
VE6 Shooter
p4133
sg73
Nssg59
(lp4134
sg61
(lp4135
(dp4136
g71
VCLG Snake Bite
p4137
sg73
Nsa(dp4138
g71
VCLG LethuL HCS
p4139
sg73
Nsasg63
I00
sg35
VPT6M8.3375713S
p4140
sg32
VDeath
p4141
sg66
I1
sa(dp4142
g68
I313138863
sg32
VWeaponDrop
p4143
sg210
I0
sg74
(lp4144
I1095363701
asg35
VPT6M8.3395721S
p4145
sg213
I0
sg214
VP0DT0H0M2.0500S
p4146
sg69
(dp4147
g71
VE6 Shooter
p4148
sg73
Nssa(dp4149
g68
I4096745987
sg32
VWeaponDrop
p4150
sg210
I5
sg74
(lp4151
I2758383128
asg35
VPT6M8.3395721S
p4152
sg213
I3
sg214
VP0DT0H0M9.3167S
p4153
sg69
(dp4154
g71
VE6 Shooter
p4155
sg73
Nssa(dp4156
g68
I313138863
sg69
(dp4157
g71
VE6 Cratos HCS
p4158
sg73
Nssg74
(lp4159
I1095363701
asg32
VWeaponPickup
p4160
sg35
VPT6M11.9714995S
p4161
sa(dp4162
g68
I4096745987
sg69
(dp4163
g71
VE6 Cratos HCS
p4164
sg73
Nssg74
(lp4165
I2758383128
asg32
VWeaponPickup
p4166
sg35
VPT6M11.9714995S
p4167
sa(dp4168
g32
VPlayerSpawn
p4169
sg69
(dp4170
g71
VE6 Cratos HCS
p4171
sg73
Nssg35
VPT6M11.9714995S
p4172
sa(dp4173
g38
I3190813201
sg39
I00
sg40
I00
sg41
(dp4174
g71
VE6 Huke HCS
p4175
sg73
Nssg45
(lp4176
sg47
I00
sg48
I01
sg49
I1
sg50
I0
sg51
I1
sg52
(dp4177
Vy
F-11.073165899999999
sVx
F0.60129523299999998
sVz
F1.3993561299999999
ssg54
(dp4178
Vy
F-17.976894399999999
sVx
F-1.46521711
sVz
F0.36306690000000003
ssg56
I00
sg57
(dp4179
g71
VCLG Frosty HCS
p4180
sg73
Nssg59
(lp4181
sg61
(lp4182
sg63
I00
sg35
VPT6M12.2704712S
p4183
sg32
VDeath
p4184
sg66
I1
sa(dp4185
g68
I313138863
sg32
VWeaponDrop
p4186
sg210
I0
sg74
(lp4187
I1095363701
asg35
VPT6M12.2724736S
p4188
sg213
I0
sg214
VP0DT0H0M7.0833S
p4189
sg69
(dp4190
g71
VCLG Frosty HCS
p4191
sg73
Nssa(dp4192
g68
I4096745987
sg32
VWeaponDrop
p4193
sg210
I16
sg74
(lp4194
I2758383128
asg35
VPT6M12.2724736S
p4195
sg213
I9
sg214
VP0DT0H0M32.7833S
p4196
sg69
(dp4197
g71
VCLG Frosty HCS
p4198
sg73
Nssa(dp4199
g38
I424645655
sg39
I00
sg40
I00
sg41
(dp4200
g71
VCLG Royal 2
p4201
sg73
Nssg45
(lp4202
I1327094800
asg47
I00
sg48
I01
sg49
I1
sg50
I0
sg51
I1
sg52
(dp4203
Vy
F-5.3835277599999998
sVx
F2.3791446700000001
sVz
F0.26601540000000001
ssg54
(dp4204
Vy
F-9.1393839999999997
sVx
F2.4335559999999998
sVz
F0.97924449999999996
ssg56
I00
sg57
(dp4205
g71
VE6 Huke HCS
p4206
sg73
Nssg59
(lp4207
sg61
(lp4208
(dp4209
g71
VCLG LethuL HCS
p4210
sg73
Nsasg63
I01
sg35
VPT6M14.6544109S
p4211
sg32
VDeath
p4212
sg66
I1
sa(dp4213
g32
VMedal
p4214
sg69
(dp4215
g71
VCLG Royal 2
p4216
sg73
Nssg255
I3261908037
sg35
VPT6M14.6554343S
p4217
sa(dp4218
g68
I4153405209
sg32
VWeaponDrop
p4219
sg210
I9
sg74
(lp4220
I2758383128
asg35
VPT6M14.6564309S
p4221
sg213
I6
sg214
VP0DT0H0M7.9167S
p4222
sg69
(dp4223
g71
VE6 Huke HCS
p4224
sg73
Nssa(dp4225
g68
I4096745987
sg32
VWeaponDrop
p4226
sg210
I36
sg74
(lp4227
I2758383128
asg35
VPT6M14.6564309S
p4228
sg213
I18
sg214
VP0DT0H1M21.7667S
p4229
sg69
(dp4230
g71
VE6 Huke HCS
p4231
sg73
Nssa(dp4232
g68
I313138863
sg69
(dp4233
g71
VE6 Shooter
p4234
sg73
Nssg74
(lp4235
I1095363701
asg32
VWeaponPickup
p4236
sg35
VPT6M16.3543866S
p4237
sa(dp4238
g68
I4096745987
sg69
(dp4239
g71
VE6 Shooter
p4240
sg73
Nssg74
(lp4241
I2758383128
asg32
VWeaponPickup
p4242
sg35
VPT6M16.3543866S
p4243
sa(dp4244
g32
VPlayerSpawn
p4245
sg69
(dp4246
g71
VE6 Shooter
p4247
sg73
Nssg35
VPT6M16.3543866S
p4248
sa(dp4249
g68
I313138863
sg69
(dp4250
g71
VCLG Frosty HCS
p4251
sg73
Nssg74
(lp4252
I1095363701
asg32
VWeaponPickup
p4253
sg35
VPT6M20.2872882S
p4254
sa(dp4255
g68
I4096745987
sg69
(dp4256
g71
VCLG Frosty HCS
p4257
sg73
Nssg74
(lp4258
I2758383128
asg32
VWeaponPickup
p4259
sg35
VPT6M20.2872882S
p4260
sa(dp4261
g32
VPlayerSpawn
p4262
sg69
(dp4263
g71
VCLG Frosty HCS
p4264
sg73
Nssg35
VPT6M20.2872882S
p4265
sa(dp4266
g68
I313138863
sg69
(dp4267
g71
VE6 Huke HCS
p4268
sg73
Nssg74
(lp4269
I1095363701
asg32
VWeaponPickup
p4270
sg35
VPT6M22.6702067S
p4271
sa(dp4272
g68
I4096745987
sg69
(dp4273
g71
VE6 Huke HCS
p4274
sg73
Nssg74
(lp4275
I2758383128
asg32
VWeaponPickup
p4276
sg35
VPT6M22.671205S
p4277
sa(dp4278
g32
VPlayerSpawn
p4279
sg69
(dp4280
g71
VE6 Huke HCS
p4281
sg73
Nssg35
VPT6M22.671205S
p4282
sa(dp4283
g68
I313138863
sg32
VWeaponDrop
p4284
sg210
I0
sg74
(lp4285
I1095363701
asg35
VPT6M24.5691574S
p4286
sg213
I0
sg214
VP0DT0H0M1.4000S
p4287
sg69
(dp4288
g71
VE6 Cratos HCS
p4289
sg73
Nssa(dp4290
g68
I524558978
sg69
(dp4291
g71
VE6 Cratos HCS
p4292
sg73
Nssg74
(lp4293
I2758383128
asg32
VWeaponPickup
p4294
sg35
VPT6M24.5691574S
p4295
sa(dp4296
g32
VMedal
p4297
sg69
(dp4298
g71
VCLG Royal 2
p4299
sg73
Nssg255
I3400287617
sg35
VPT6M25.1521631S
p4300
sa(dp4301
g38
I4096745987
sg39
I00
sg40
I00
sg41
(dp4302
g71
VCLG Frosty HCS
p4303
sg73
Nssg45
(lp4304
I2758383128
asg47
I00
sg48
I01
sg49
I1
sg50
I0
sg51
I1
sg52
(dp4305
Vy
F-1.9514279999999999
sVx
F-2.8345663499999998
sVz
F3.6655526200000002
ssg54
(dp4306
Vy
F1.69795322
sVx
F2.0407714800000001
sVz
F4.0825567200000004
ssg56
I00
sg57
(dp4307
g71
VE6 Cratos HCS
p4308
sg73
Nssg59
(lp4309
sg61
(lp4310
sg63
I01
sg35
VPT6M28.5360579S
p4311
sg32
VDeath
p4312
sg66
I1
sa(dp4313
g32
VMedal
p4314
sg69
(dp4315
g71
VCLG Frosty HCS
p4316
sg73
Nssg255
I3261908037
sg35
VPT6M28.5380753S
p4317
sa(dp4318
g68
I524558978
sg32
VWeaponDrop
p4319
sg210
I1
sg74
(lp4320
I2758383128
asg35
VPT6M28.5390558S
p4321
sg213
I1
sg214
VP0DT0H0M1.5500S
p4322
sg69
(dp4323
g71
VE6 Cratos HCS
p4324
sg73
Nssa(dp4325
g68
I4096745987
sg32
VWeaponDrop
p4326
sg210
I11
sg74
(lp4327
I2758383128
asg35
VPT6M28.5390558S
p4328
sg213
I4
sg214
VP0DT0H0M13.6167S
p4329
sg69
(dp4330
g71
VE6 Cratos HCS
p4331
sg73
Nssa(dp4332
g38
I4096745987
sg39
I00
sg40
I00
sg41
(dp4333
g71
VE6 Shooter
p4334
sg73
Nssg45
(lp4335
I2758383128
asg47
I00
sg48
I01
sg49
I1
sg50
I0
sg51
I1
sg52
(dp4336
Vy
F5.7081337000000003
sVx
F2.8890655000000001
sVz
F3.1977846599999999
ssg54
(dp4337
Vy
F-2.6064927600000001
sVx
F-2.4477987300000001
sVz
F4.0893090000000001
ssg56
I00
sg57
(dp4338
g71
VCLG Frosty HCS
p4339
sg73
Nssg59
(lp4340
sg61
(lp4341
(dp4342
g71
VE6 Cratos HCS
p4343
sg73
Nsasg63
I01
sg35
VPT6M28.919046S
p4344
sg32
VDeath
p4345
sg66
I1
sa(dp4346
g32
VMedal
p4347
sg69
(dp4348
g71
VE6 Shooter
p4349
sg73
Nssg255
I3261908037
sg35
VPT6M28.9210651S
p4350
sa(dp4351
g68
I313138863
sg32
VWeaponDrop
p4352
sg210
I0
sg74
(lp4353
I1095363701
asg35
VPT6M28.9210651S
p4354
sg213
I0
sg214
VP0DT0H0M1.0833S
p4355
sg69
(dp4356
g71
VCLG Frosty HCS
p4357
sg73
Nssa(dp4358
g68
I4096745987
sg32
VWeaponDrop
p4359
sg210
I7
sg74
(lp4360
I2758383128
asg35
VPT6M28.9210651S
p4361
sg213
I5
sg214
VP0DT0H0M7.5500S
p4362
sg69
(dp4363
g71
VCLG Frosty HCS
p4364
sg73
Nssa(dp4365
g68
I313138863
sg32
VWeaponDrop
p4366
sg210
I0
sg74
(lp4367
I1095363701
asg35
VPT6M29.0180617S
p4368
sg213
I0
sg214
VP0DT0H0M3.6500S
p4369
sg69
(dp4370
g71
VCLG Royal 2
p4371
sg73
Nssa(dp4372
g68
I2133511419
sg69
(dp4373
g71
VCLG Royal 2
p4374
sg73
Nssg74
(lp4375
I2758383128
asg32
VWeaponPickup
p4376
sg35
VPT6M29.0190614S
p4377
sa(dp4378
g38
I424645655
sg39
I00
sg40
I00
sg41
(dp4379
g71
VCLG Royal 2
p4380
sg73
Nssg45
(lp4381
I1327094800
asg47
I00
sg48
I01
sg49
I1
sg50
I0
sg51
I1
sg52
(dp4382
Vy
F5.5017976800000001
sVx
F4.181724
sVz
F0.98432636299999998
ssg54
(dp4383
Vy
F8.2532420000000002
sVx
F-6.4173780000000002
sVz
F-0.034700423500000001
ssg56
I00
sg57
(dp4384
g71
VE6 Huke HCS
p4385
sg73
Nssg59
(lp4386
sg61
(lp4387
(dp4388
g71
VCLG Snake Bite
p4389
sg73
Nsasg63
I01
sg35
VPT6M33.5529269S
p4390
sg32
VDeath
p4391
sg66
I1
sa(dp4392
g32
VMedal
p4393
sg69
(dp4394
g71
VCLG LethuL HCS
p4395
sg73
Nssg255
I824733727
sg35
VPT6M33.5529269S
p4396
sa(dp4397
g32
VMedal
p4398
sg69
(dp4399
g71
VCLG Royal 2
p4400
sg73
Nssg255
I3261908037
sg35
VPT6M33.5539269S
p4401
sa(dp4402
g68
I313138863
sg32
VWeaponDrop
p4403
sg210
I0
sg74
(lp4404
I1095363701
asg35
VPT6M33.5549519S
p4405
sg213
I0
sg214
VP0DT0H0M3.6667S
p4406
sg69
(dp4407
g71
VE6 Huke HCS
p4408
sg73
Nssa(dp4409
g68
I4096745987
sg32
VWeaponDrop
p4410
sg210
I4
sg74
(lp4411
I2758383128
asg35
VPT6M33.5549519S
p4412
sg213
I3
sg214
VP0DT0H0M7.2167S
p4413
sg69
(dp4414
g71
VE6 Huke HCS
p4415
sg73
Nssa(dp4416
g68
I313138863
sg69
(dp4417
g71
VE6 Cratos HCS
p4418
sg73
Nssg74
(lp4419
I1095363701
asg32
VWeaponPickup
p4420
sg35
VPT6M36.552874S
p4421
sa(dp4422
g68
I4096745987
sg69
(dp4423
g71
VE6 Cratos HCS
p4424
sg73
Nssg74
(lp4425
I2758383128
asg32
VWeaponPickup
p4426
sg35
VPT6M36.552874S
p4427
sa(dp4428
g32
VPlayerSpawn
p4429
sg69
(dp4430
g71
VE6 Cratos HCS
p4431
sg73
Nssg35
VPT6M36.5538738S
p4432
sa(dp4433
g68
I313138863
sg69
(dp4434
g71
VCLG Frosty HCS
p4435
sg73
Nssg74
(lp4436
I1095363701
asg32
VWeaponPickup
p4437
sg35
VPT6M36.9358409S
p4438
sa(dp4439
g68
I4096745987
sg69
(dp4440
g71
VCLG Frosty HCS
p4441
sg73
Nssg74
(lp4442
I2758383128
asg32
VWeaponPickup
p4443
sg35
VPT6M36.9368631S
p4444
sa(dp4445
g32
VPlayerSpawn
p4446
sg69
(dp4447
g71
VCLG Frosty HCS
p4448
sg73
Nssg35
VPT6M36.9368631S
p4449
sa(dp4450
g38
I4096745987
sg39
I00
sg40
I00
sg41
(dp4451
g71
VE6 Shooter
p4452
sg73
Nssg45
(lp4453
I2758383128
asg47
I00
sg48
I01
sg49
I1
sg50
I0
sg51
I1
sg52
(dp4454
Vy
F-6.2917194399999996
sVx
F0.0290851928
sVz
F1.15332127
ssg54
(dp4455
Vy
F0.57276059999999995
sVx
F-0.58334934699999996
sVz
F-0.16776674999999999
ssg56
I00
sg57
(dp4456
g71
VCLG Royal 2
p4457
sg73
Nssg59
(lp4458
sg61
(lp4459
(dp4460
g71
VE6 bubu dubu
p4461
sg73
Nsasg63
I01
sg35
VPT6M37.4858256S
p4462
sg32
VDeath
p4463
sg66
I1
sa(dp4464
g32
VMedal
p4465
sg69
(dp4466
g71
VE6 Shooter
p4467
sg73
Nssg255
I3261908037
sg35
VPT6M37.4868274S
p4468
sa(dp4469
g68
I2133511419
sg32
VWeaponDrop
p4470
sg210
I0
sg74
(lp4471
I2758383128
asg35
VPT6M37.4878515S
p4472
sg213
I0
sg214
VP0DT0H0M5.4000S
p4473
sg69
(dp4474
g71
VCLG Royal 2
p4475
sg73
Nssa(dp4476
g68
I424645655
sg32
VWeaponDrop
p4477
sg210
I96
sg74
(lp4478
I1327094800
asg35
VPT6M37.4878515S
p4479
sg213
I39
sg214
VP0DT0H1M0.3000S
p4480
sg69
(dp4481
g71
VCLG Royal 2
p4482
sg73
Nssa(dp4483
g68
I2492868984
sg69
(dp4484
g71
VCLG Snake Bite
p4485
sg73
Nssg74
(lp4486
I2758383128
asg32
VWeaponPickup
p4487
sg35
VPT6M39.30178S
p4488
sa(dp4489
g68
I313138863
sg32
VWeaponDrop
p4490
sg210
I0
sg74
(lp4491
I1095363701
asg35
VPT6M39.4178001S
p4492
sg213
I0
sg214
VP0DT0H0M1.0000S
p4493
sg69
(dp4494
g71
VCLG Frosty HCS
p4495
sg73
Nssa(dp4496
g68
I4108759423
sg69
(dp4497
g71
VCLG Frosty HCS
p4498
sg73
Nssg74
(lp4499
I2758383128
asg32
VWeaponPickup
p4500
sg35
VPT6M39.4178001S
p4501
sa(dp4502
g38
I4096745987
sg39
I00
sg40
I00
sg41
(dp4503
g71
VE6 Shooter
p4504
sg73
Nssg45
(lp4505
I2758383128
asg47
I00
sg48
I01
sg49
I1
sg50
I0
sg51
I1
sg52
(dp4506
Vy
F-5.139659
sVx
F1.48589945
sVz
F0.87931789999999999
ssg54
(dp4507
Vy
F-0.36441615199999999
sVx
F-4.9222140000000003
sVz
F-0.034254880000000001
ssg56
I00
sg57
(dp4508
g71
VCLG Snake Bite
p4509
sg73
Nssg59
(lp4510
sg61
(lp4511
sg63
I01
sg35
VPT6M39.5687727S
p4512
sg32
VDeath
p4513
sg66
I1
sa(dp4514
g32
VImpulse
p4515
sg69
(dp4516
g71
VE6 Shooter
p4517
sg73
Nssg293
I3174430457
sg35
VPT6M39.570797S
p4518
sa(dp4519
g32
VMedal
p4520
sg69
(dp4521
g71
VE6 Shooter
p4522
sg73
Nssg255
I3653057799
sg35
VPT6M39.570797S
p4523
sa(dp4524
g32
VMedal
p4525
sg69
(dp4526
g71
VE6 Shooter
p4527
sg73
Nssg255
I2078758684
sg35
VPT6M39.570797S
p4528
sa(dp4529
g68
I2492868984
sg32
VWeaponDrop
p4530
sg210
I0
sg74
(lp4531
I2758383128
asg35
VPT6M39.5717921S
p4532
sg213
I0
sg214
VP0DT0H0M0.1167S
p4533
sg69
(dp4534
g71
VCLG Snake Bite
p4535
sg73
Nssa(dp4536
g68
I313138863
sg32
VWeaponDrop
p4537
sg210
I0
sg74
(lp4538
I1095363701
asg35
VPT6M39.5717921S
p4539
sg213
I0
sg214
VP0DT0H0M2.3167S
p4540
sg69
(dp4541
g71
VCLG Snake Bite
p4542
sg73
Nssa(dp4543
g68
I4096745987
sg32
VWeaponDrop
p4544
sg210
I22
sg74
(lp4545
I2758383128
asg35
VPT6M39.5717921S
p4546
sg213
I13
sg214
VP0DT0H0M53.1000S
p4547
sg69
(dp4548
g71
VCLG Snake Bite
p4549
sg73
Nssa(dp4550
g68
I313138863
sg69
(dp4551
g71
VE6 Huke HCS
p4552
sg73
Nssg74
(lp4553
I1095363701
asg32
VWeaponPickup
p4554
sg35
VPT6M41.5697645S
p4555
sa(dp4556
g68
I4096745987
sg69
(dp4557
g71
VE6 Huke HCS
p4558
sg73
Nssg74
(lp4559
I2758383128
asg32
VWeaponPickup
p4560
sg35
VPT6M41.5697645S
p4561
sa(dp4562
g32
VPlayerSpawn
p4563
sg69
(dp4564
g71
VE6 Huke HCS
p4565
sg73
Nssg35
VPT6M41.5697645S
p4566
sa(dp4567
g68
I4096745987
sg32
VWeaponDrop
p4568
sg210
I0
sg74
(lp4569
I2758383128
asg35
VPT6M44.8506401S
p4570
sg213
I0
sg214
VP0DT0H0M1.8833S
p4571
sg69
(dp4572
g71
VE6 Huke HCS
p4573
sg73
Nssa(dp4574
g68
I424645655
sg69
(dp4575
g71
VE6 Huke HCS
p4576
sg73
Nssg74
(lp4577
I1327094800
asg32
VWeaponPickup
p4578
sg35
VPT6M44.8506401S
p4579
sa(dp4580
g68
I313138863
sg69
(dp4581
g71
VCLG Royal 2
p4582
sg73
Nssg74
(lp4583
I1095363701
asg32
VWeaponPickup
p4584
sg35
VPT6M45.5026439S
p4585
sa(dp4586
g68
I4096745987
sg69
(dp4587
g71
VCLG Royal 2
p4588
sg73
Nssg74
(lp4589
I2758383128
asg32
VWeaponPickup
p4590
sg35
VPT6M45.5026439S
p4591
sa(dp4592
g32
VPlayerSpawn
p4593
sg69
(dp4594
g71
VCLG Royal 2
p4595
sg73
Nssg35
VPT6M45.5026439S
p4596
sa(dp4597
g68
I313138863
sg32
VWeaponDrop
p4598
sg210
I4
sg74
(lp4599
I1095363701
asg35
VPT6M46.8505868S
p4600
sg213
I0
sg214
VP0DT0H0M8.8333S
p4601
sg69
(dp4602
g71
VE6 bubu dubu
p4603
sg73
Nssa(dp4604
g68
I2050745863
sg69
(dp4605
g71
VE6 bubu dubu
p4606
sg73
Nssg74
(lp4607
I2758383128
asg32
VWeaponPickup
p4608
sg35
VPT6M46.8505868S
p4609
sa(dp4610
g68
I313138863
sg69
(dp4611
g71
VCLG Snake Bite
p4612
sg73
Nssg74
(lp4613
I1095363701
asg32
VWeaponPickup
p4614
sg35
VPT6M47.5855885S
p4615
sa(dp4616
g68
I4096745987
sg69
(dp4617
g71
VCLG Snake Bite
p4618
sg73
Nssg74
(lp4619
I2758383128
asg32
VWeaponPickup
p4620
sg35
VPT6M47.5855885S
p4621
sa(dp4622
g32
VPlayerSpawn
p4623
sg69
(dp4624
g71
VCLG Snake Bite
p4625
sg73
Nssg35
VPT6M47.5855885S
p4626
sa(dp4627
g68
I313138863
sg32
VWeaponDrop
p4628
sg210
I0
sg74
(lp4629
I1095363701
asg35
VPT6M48.7335621S
p4630
sg213
I0
sg214
VP0DT0H0M1.5500S
p4631
sg69
(dp4632
g71
VE6 Huke HCS
p4633
sg73
Nssa(dp4634
g68
I4054937266
sg69
(dp4635
g71
VE6 Huke HCS
p4636
sg73
Nssg74
(lp4637
I2758383128
asg32
VWeaponPickupPad
p4638
sg35
VPT6M48.7335621S
p4639
sa(dp4640
g68
I4054937266
sg69
(dp4641
g71
VE6 Huke HCS
p4642
sg73
Nssg74
(lp4643
I2758383128
asg32
VWeaponPickup
p4644
sg35
VPT6M48.7345585S
p4645
sa(dp4646
g38
I4106030681
sg39
I00
sg40
I00
sg41
(dp4647
g71
VCLG Royal 2
p4648
sg73
Nssg45
(lp4649
sg47
I00
sg48
I01
sg49
I1
sg50
I0
sg51
I1
sg52
(dp4650
Vy
F-2.0584929999999999
sVx
F7.8900065399999999
sVz
F3.137324
ssg54
(dp4651
Vy
F-11.1000538
sVx
F2.6478562399999999
sVz
F3.9465400000000002
ssg56
I00
sg57
(dp4652
g71
VE6 Cratos HCS
p4653
sg73
Nssg59
(lp4654
sg61
(lp4655
(dp4656
g71
VCLG Snake Bite
p4657
sg73
Nsasg63
I00
sg35
VPT6M58.534288S
p4658
sg32
VDeath
p4659
sg66
I1
sa(dp4660
g68
I313138863
sg32
VWeaponDrop
p4661
sg210
I0
sg74
(lp4662
I1095363701
asg35
VPT6M58.5363091S
p4663
sg213
I0
sg214
VP0DT0H0M0.7000S
p4664
sg69
(dp4665
g71
VE6 Cratos HCS
p4666
sg73
Nssa(dp4667
g68
I4096745987
sg32
VWeaponDrop
p4668
sg210
I11
sg74
(lp4669
I2758383128
asg35
VPT6M58.5363091S
p4670
sg213
I6
sg214
VP0DT0H0M21.2833S
p4671
sg69
(dp4672
g71
VE6 Cratos HCS
p4673
sg73
Nssa(dp4674
g38
I4096745987
sg39
I00
sg40
I00
sg41
(dp4675
g71
VCLG Snake Bite
p4676
sg73
Nssg45
(lp4677
I2758383128
asg47
I00
sg48
I01
sg49
I1
sg50
I0
sg51
I1
sg52
(dp4678
Vy
F-5.5855846400000004
sVx
F-2.3539543200000002
sVz
F6.5358767499999999
ssg54
(dp4679
Vy
F-3.3641016499999998
sVx
F4.4171969999999998
sVz
F7.1257619999999999
ssg56
I00
sg57
(dp4680
g71
VE6 Shooter
p4681
sg73
Nssg59
(lp4682
sg61
(lp4683
(dp4684
g71
VCLG Frosty HCS
p4685
sg73
Nsasg63
I01
sg35
VPT7M0.6842322S
p4686
sg32
VDeath
p4687
sg66
I1
sa(dp4688
g32
VMedal
p4689
sg69
(dp4690
g71
VCLG Snake Bite
p4691
sg73
Nssg255
I3261908037
sg35
VPT7M0.6852544S
p4692
sa(dp4693
g68
I313138863
sg32
VWeaponDrop
p4694
sg210
I0
sg74
(lp4695
I1095363701
asg35
VPT7M0.6862544S
p4696
sg213
I0
sg214
VP0DT0H0M0.6500S
p4697
sg69
(dp4698
g71
VE6 Shooter
p4699
sg73
Nssa(dp4700
g68
I4096745987
sg32
VWeaponDrop
p4701
sg210
I16
sg74
(lp4702
I2758383128
asg35
VPT7M0.6862544S
p4703
sg213
I10
sg214
VP0DT0H0M43.6833S
p4704
sg69
(dp4705
g71
VE6 Shooter
p4706
sg73
Nssa(dp4707
g68
I313138863
sg69
(dp4708
g71
VE6 Cratos HCS
p4709
sg73
Nssg74
(lp4710
I1095363701
asg32
VWeaponPickup
p4711
sg35
VPT7M6.5680837S
p4712
sa(dp4713
g68
I4096745987
sg69
(dp4714
g71
VE6 Cratos HCS
p4715
sg73
Nssg74
(lp4716
I2758383128
asg32
VWeaponPickup
p4717
sg35
VPT7M6.5680837S
p4718
sa(dp4719
g32
VPlayerSpawn
p4720
sg69
(dp4721
g71
VE6 Cratos HCS
p4722
sg73
Nssg35
VPT7M6.5680837S
p4723
sa(dp4724
g38
I313138863
sg39
I00
sg40
I00
sg41
(dp4725
g71
VCLG Snake Bite
p4726
sg73
Nssg45
(lp4727
I1095363701
asg47
I00
sg48
I01
sg49
I1
sg50
I0
sg51
I1
sg52
(dp4728
Vy
F9.2033729999999991
sVx
F1.9416798399999999
sVz
F0.9874849
ssg54
(dp4729
Vy
F11.79768
sVx
F-0.043591476999999997
sVz
F1.57087708
ssg56
I00
sg57
(dp4730
g71
VE6 bubu dubu
p4731
sg73
Nssg59
(lp4732
sg61
(lp4733
(dp4734
g71
VCLG Royal 2
p4735
sg73
Nsa(dp4736
g71
VCLG Frosty HCS
p4737
sg73
Nsasg63
I00
sg35
VPT7M8.3840361S
p4738
sg32
VDeath
p4739
sg66
I1
sa(dp4740
g68
I2050745863
sg32
VWeaponDrop
p4741
sg210
I0
sg74
(lp4742
I2758383128
asg35
VPT7M8.3870583S
p4743
sg213
I0
sg214
VP0DT0H0M5.8667S
p4744
sg69
(dp4745
g71
VE6 bubu dubu
p4746
sg73
Nssa(dp4747
g68
I4096745987
sg32
VWeaponDrop
p4748
sg210
I23
sg74
(lp4749
I2758383128
asg35
VPT7M8.3870583S
p4750
sg213
I12
sg214
VP0DT0H0M45.3833S
p4751
sg69
(dp4752
g71
VE6 bubu dubu
p4753
sg73
Nssa(dp4754
g68
I313138863
sg69
(dp4755
g71
VE6 Shooter
p4756
sg73
Nssg74
(lp4757
I1095363701
asg32
VWeaponPickup
p4758
sg35
VPT7M8.7170271S
p4759
sa(dp4760
g68
I4096745987
sg69
(dp4761
g71
VE6 Shooter
p4762
sg73
Nssg74
(lp4763
I2758383128
asg32
VWeaponPickup
p4764
sg35
VPT7M8.7180524S
p4765
sa(dp4766
g32
VPlayerSpawn
p4767
sg69
(dp4768
g71
VE6 Shooter
p4769
sg73
Nssg35
VPT7M8.7180524S
p4770
sa(dp4771
g38
I4054937266
sg39
I00
sg40
I00
sg41
(dp4772
g71
VE6 Huke HCS
p4773
sg73
Nssg45
(lp4774
I2758383128
asg47
I00
sg48
I01
sg49
I1
sg50
I0
sg51
I1
sg52
(dp4775
Vy
F10.183927499999999
sVx
F-9.3716910000000002
sVz
F3.45127082
ssg54
(dp4776
Vy
F15.5428734
sVx
F-2.2329554599999999
sVz
F2.95599174
ssg56
I00
sg57
(dp4777
g71
VCLG Snake Bite
p4778
sg73
Nssg59
(lp4779
sg61
(lp4780
sg63
I00
sg35
VPT7M11.7169502S
p4781
sg32
VDeath
p4782
sg66
I1
sa(dp4783
g68
I313138863
sg32
VWeaponDrop
p4784
sg210
I9
sg74
(lp4785
I1095363701
asg35
VPT7M11.7179747S
p4786
sg213
I3
sg214
VP0DT0H0M2.6500S
p4787
sg69
(dp4788
g71
VCLG Snake Bite
p4789
sg73
Nssa(dp4790
g68
I4096745987
sg32
VWeaponDrop
p4791
sg210
I10
sg74
(lp4792
I2758383128
asg35
VPT7M11.7179747S
p4793
sg213
I6
sg214
VP0DT0H0M21.4667S
p4794
sg69
(dp4795
g71
VCLG Snake Bite
p4796
sg73
Nssa(dp4797
g38
I4106030681
sg39
I00
sg40
I00
sg41
(dp4798
g71
VE6 Huke HCS
p4799
sg73
Nssg45
(lp4800
sg47
I00
sg48
I01
sg49
I1
sg50
I0
sg51
I1
sg52
(dp4801
Vy
F10.4766636
sVx
F-9.8393689999999996
sVz
F3.4853515599999998
ssg54
(dp4802
Vy
F17.600225399999999
sVx
F-8.6325380000000003
sVz
F1.3697691000000001
ssg56
I00
sg57
(dp4803
g71
VCLG Royal 2
p4804
sg73
Nssg59
(lp4805
sg61
(lp4806
sg63
I00
sg35
VPT7M15.449855S
p4807
sg32
VDeath
p4808
sg66
I1
sa(dp4809
g32
VMedal
p4810
sg69
(dp4811
g71
VE6 Huke HCS
p4812
sg73
Nssg255
I2078758684
sg35
VPT7M15.4508825S
p4813
sa(dp4814
g68
I313138863
sg32
VWeaponDrop
p4815
sg210
I4
sg74
(lp4816
I1095363701
asg35
VPT7M15.4508825S
p4817
sg213
I0
sg214
VP0DT0H0M4.8500S
p4818
sg69
(dp4819
g71
VCLG Royal 2
p4820
sg73
Nssa(dp4821
g68
I4096745987
sg32
VWeaponDrop
p4822
sg210
I9
sg74
(lp4823
I2758383128
asg35
VPT7M15.4508825S
p4824
sg213
I6
sg214
VP0DT0H0M25.0833S
p4825
sg69
(dp4826
g71
VCLG Royal 2
p4827
sg73
Nssa(dp4828
g38
I424645655
sg39
I00
sg40
I00
sg41
(dp4829
g71
VCLG LethuL HCS
p4830
sg73
Nssg45
(lp4831
I1327094800
asg47
I00
sg48
I01
sg49
I1
sg50
I0
sg51
I1
sg52
(dp4832
Vy
F10.681662599999999
sVx
F-4.97467375
sVz
F2.8363053800000002
ssg54
(dp4833
Vy
F10.501111999999999
sVx
F-9.8541849999999993
sVz
F3.4435253100000001
ssg56
I00
sg57
(dp4834
g71
VE6 Huke HCS
p4835
sg73
Nssg59
(lp4836
sg61
(lp4837
(dp4838
g71
VCLG Snake Bite
p4839
sg73
Nsasg63
I01
sg35
VPT7M15.4668533S
p4840
sg32
VDeath
p4841
sg66
I1
sa(dp4842
g32
VMedal
p4843
sg69
(dp4844
g71
VCLG LethuL HCS
p4845
sg73
Nssg255
I3261908037
sg35
VPT7M15.4678602S
p4846
sa(dp4847
g68
I4054937266
sg32
VWeaponDrop
p4848
sg210
I7
sg74
(lp4849
I2758383128
asg35
VPT7M15.4688662S
p4850
sg213
I5
sg214
VP0DT0H0M24.2167S
p4851
sg69
(dp4852
g71
VE6 Huke HCS
p4853
sg73
Nssa(dp4854
g68
I424645655
sg32
VWeaponDrop
p4855
sg210
I3
sg74
(lp4856
I1327094800
asg35
VPT7M15.4688662S
p4857
sg213
I0
sg214
VP0DT0H0M6.2333S
p4858
sg69
(dp4859
g71
VE6 Huke HCS
p4860
sg73
Nssa(dp4861
g68
I313138863
sg69
(dp4862
g71
VE6 bubu dubu
p4863
sg73
Nssg74
(lp4864
I1095363701
asg32
VWeaponPickup
p4865
sg35
VPT7M16.3998306S
p4866
sa(dp4867
g68
I4096745987
sg69
(dp4868
g71
VE6 bubu dubu
p4869
sg73
Nssg74
(lp4870
I2758383128
asg32
VWeaponPickup
p4871
sg35
VPT7M16.4008484S
p4872
sa(dp4873
g32
VPlayerSpawn
p4874
sg69
(dp4875
g71
VE6 bubu dubu
p4876
sg73
Nssg35
VPT7M16.4008484S
p4877
sa(dp4878
g68
I313138863
sg69
(dp4879
g71
VCLG Snake Bite
p4880
sg73
Nssg74
(lp4881
I1095363701
asg32
VWeaponPickup
p4882
sg35
VPT7M19.7337687S
p4883
sa(dp4884
g68
I4096745987
sg69
(dp4885
g71
VCLG Snake Bite
p4886
sg73
Nssg74
(lp4887
I2758383128
asg32
VWeaponPickup
p4888
sg35
VPT7M19.7337687S
p4889
sa(dp4890
g32
VPlayerSpawn
p4891
sg69
(dp4892
g71
VCLG Snake Bite
p4893
sg73
Nssg35
VPT7M19.7337687S
p4894
sa(dp4895
g68
I4096745987
sg32
VWeaponDrop
p4896
sg210
I3
sg74
(lp4897
I2758383128
asg35
VPT7M20.5317487S
p4898
sg213
I2
sg214
VP0DT0H0M10.8833S
p4899
sg69
(dp4900
g71
VCLG Frosty HCS
p4901
sg73
Nssa(dp4902
g68
I524558978
sg69
(dp4903
g71
VCLG Frosty HCS
p4904
sg73
Nssg74
(lp4905
I2758383128
asg32
VWeaponPickup
p4906
sg35
VPT7M20.5317487S
p4907
sa(dp4908
g68
I313138863
sg69
(dp4909
g71
VCLG Royal 2
p4910
sg73
Nssg74
(lp4911
I1095363701
asg32
VWeaponPickup
p4912
sg35
VPT7M23.4666499S
p4913
sa(dp4914
g68
I4096745987
sg69
(dp4915
g71
VCLG Royal 2
p4916
sg73
Nssg74
(lp4917
I2758383128
asg32
VWeaponPickup
p4918
sg35
VPT7M23.4666499S
p4919
sa(dp4920
g32
VPlayerSpawn
p4921
sg69
(dp4922
g71
VCLG Royal 2
p4923
sg73
Nssg35
VPT7M23.4666499S
p4924
sa(dp4925
g68
I313138863
sg69
(dp4926
g71
VE6 Huke HCS
p4927
sg73
Nssg74
(lp4928
I1095363701
asg32
VWeaponPickup
p4929
sg35
VPT7M23.4826491S
p4930
sa(dp4931
g68
I4096745987
sg69
(dp4932
g71
VE6 Huke HCS
p4933
sg73
Nssg74
(lp4934
I2758383128
asg32
VWeaponPickup
p4935
sg35
VPT7M23.4836722S
p4936
sa(dp4937
g32
VPlayerSpawn
p4938
sg69
(dp4939
g71
VE6 Huke HCS
p4940
sg73
Nssg35
VPT7M23.4836722S
p4941
sa(dp4942
g38
I4096745987
sg39
I00
sg40
I00
sg41
(dp4943
g71
VE6 bubu dubu
p4944
sg73
Nssg45
(lp4945
I2758383128
asg47
I00
sg48
I01
sg49
I1
sg50
I0
sg51
I1
sg52
(dp4946
Vy
F-0.25186836699999998
sVx
F-5.3987064399999998
sVz
F4.0229759999999999
ssg54
(dp4947
Vy
F0.61188330000000002
sVx
F5.7725987400000003
sVz
F4.2467220000000001
ssg56
I00
sg57
(dp4948
g71
VCLG Frosty HCS
p4949
sg73
Nssg59
(lp4950
sg61
(lp4951
sg63
I01
sg35
VPT7M24.8156385S
p4952
sg32
VDeath
p4953
sg66
I1
sa(dp4954
g32
VMedal
p4955
sg69
(dp4956
g71
VE6 bubu dubu
p4957
sg73
Nssg255
I3261908037
sg35
VPT7M24.8176169S
p4958
sa(dp4959
g68
I4108759423
sg32
VWeaponDrop
p4960
sg210
I31
sg74
(lp4961
I2758383128
asg35
VPT7M24.8176169S
p4962
sg213
I14
sg214
VP0DT0H0M33.8833S
p4963
sg69
(dp4964
g71
VCLG Frosty HCS
p4965
sg73
Nssa(dp4966
g68
I524558978
sg32
VWeaponDrop
p4967
sg210
I1
sg74
(lp4968
I2758383128
asg35
VPT7M24.8176169S
p4969
sg213
I0
sg214
VP0DT0H0M2.1000S
p4970
sg69
(dp4971
g71
VCLG Frosty HCS
p4972
sg73
Nssa(dp4973
g38
I4106030681
sg39
I00
sg40
I00
sg41
(dp4974
g71
VCLG LethuL HCS
p4975
sg73
Nssg45
(lp4976
sg47
I00
sg48
I01
sg49
I1
sg50
I0
sg51
I1
sg52
(dp4977
Vy
F4.2513813999999996
sVx
F-17.1148624
sVz
F3.2743043900000002
ssg54
(dp4978
Vy
F10.2149611
sVx
F-6.3001449999999997
sVz
F2.0600948300000002
ssg56
I00
sg57
(dp4979
g71
VE6 Cratos HCS
p4980
sg73
Nssg59
(lp4981
sg61
(lp4982
(dp4983
g71
VCLG Snake Bite
p4984
sg73
Nsasg63
I00
sg35
VPT7M28.5485193S
p4985
sg32
VDeath
p4986
sg66
I1
sa(dp4987
g68
I313138863
sg32
VWeaponDrop
p4988
sg210
I0
sg74
(lp4989
I1095363701
asg35
VPT7M28.5615379S
p4990
sg213
I0
sg214
VP0DT0H0M4.4667S
p4991
sg69
(dp4992
g71
VE6 Cratos HCS
p4993
sg73
Nssa(dp4994
g68
I4096745987
sg32
VWeaponDrop
p4995
sg210
I3
sg74
(lp4996
I2758383128
asg35
VPT7M28.5615379S
p4997
sg213
I0
sg214
VP0DT0H0M17.5167S
p4998
sg69
(dp4999
g71
VE6 Cratos HCS
p5000
sg73
Nssa(dp5001
g38
I424645655
sg39
I00
sg40
I00
sg41
(dp5002
g71
VCLG LethuL HCS
p5003
sg73
Nssg45
(lp5004
I1327094800
asg47
I00
sg48
I01
sg49
I1
sg50
I0
sg51
I1
sg52
(dp5005
Vy
F3.0883855800000002
sVx
F-13.3309975
sVz
F-0.085950434199999995
ssg54
(dp5006
Vy
F1.96720016
sVx
F-1.0756773900000001
sVz
F-0.14640460899999999
ssg56
I00
sg57
(dp5007
g71
VE6 bubu dubu
p5008
sg73
Nssg59
(lp5009
sg61
(lp5010
sg63
I01
sg35
VPT7M30.9824568S
p5011
sg32
VDeath
p5012
sg66
I1
sa(dp5013
g32
VMedal
p5014
sg69
(dp5015
g71
VCLG LethuL HCS
p5016
sg73
Nssg255
I3261908037
sg35
VPT7M30.9834813S
p5017
sa(dp5018
g32
VMedal
p5019
sg69
(dp5020
g71
VCLG LethuL HCS
p5021
sg73
Nssg255
I2078758684
sg35
VPT7M30.9834813S
p5022
sa(dp5023
g68
I313138863
sg32
VWeaponDrop
p5024
sg210
I0
sg74
(lp5025
I1095363701
asg35
VPT7M30.9844888S
p5026
sg213
I0
sg214
VP0DT0H0M0.8333S
p5027
sg69
(dp5028
g71
VE6 bubu dubu
p5029
sg73
Nssa(dp5030
g68
I4096745987
sg32
VWeaponDrop
p5031
sg210
I6
sg74
(lp5032
I2758383128
asg35
VPT7M30.9844888S
p5033
sg213
I4
sg214
VP0DT0H0M13.7500S
p5034
sg69
(dp5035
g71
VE6 bubu dubu
p5036
sg73
Nssa(dp5037
g32
VRoundEnd
p5038
sg34
I0
sg35
VPT7M30.9984563S
p5039
sassb.